Archive member included to satisfy reference by file (symbol)

e:/programms/gnu mcu eclipse/toolchain/arm-gnu-toolchain-12.2.mpacbti-bet1-mingw-w64-i686-arm-none-eabi/bin/../lib/gcc/arm-none-eabi/12.2.0/thumb/v7e-m+fp/hard\libgcc.a(_aeabi_uldivmod.o)
                              ./Drivers/STM32F4xx_HAL_Driver/Src/stm32f4xx_hal_rcc.o (__aeabi_uldivmod)
e:/programms/gnu mcu eclipse/toolchain/arm-gnu-toolchain-12.2.mpacbti-bet1-mingw-w64-i686-arm-none-eabi/bin/../lib/gcc/arm-none-eabi/12.2.0/thumb/v7e-m+fp/hard\libgcc.a(_udivmoddi4.o)
                              e:/programms/gnu mcu eclipse/toolchain/arm-gnu-toolchain-12.2.mpacbti-bet1-mingw-w64-i686-arm-none-eabi/bin/../lib/gcc/arm-none-eabi/12.2.0/thumb/v7e-m+fp/hard\libgcc.a(_aeabi_uldivmod.o) (__udivmoddi4)
e:/programms/gnu mcu eclipse/toolchain/arm-gnu-toolchain-12.2.mpacbti-bet1-mingw-w64-i686-arm-none-eabi/bin/../lib/gcc/arm-none-eabi/12.2.0/thumb/v7e-m+fp/hard\libgcc.a(_dvmd_tls.o)
                              e:/programms/gnu mcu eclipse/toolchain/arm-gnu-toolchain-12.2.mpacbti-bet1-mingw-w64-i686-arm-none-eabi/bin/../lib/gcc/arm-none-eabi/12.2.0/thumb/v7e-m+fp/hard\libgcc.a(_aeabi_uldivmod.o) (__aeabi_ldiv0)
e:/programms/gnu mcu eclipse/toolchain/arm-gnu-toolchain-12.2.mpacbti-bet1-mingw-w64-i686-arm-none-eabi/bin/../lib/gcc/arm-none-eabi/12.2.0/thumb/v7e-m+fp/hard\libg_nano.a(libc_a-memset.o)
                              ./Core/Src/main.o (memset)

Memory Configuration

Name             Origin             Length             Attributes
RAM              0x20000000         0x00020000         xrw
CCMRAM           0x10000000         0x00010000         xrw
FLASH            0x08000000         0x00080000         xr
*default*        0x00000000         0xffffffff

Linker script and memory map

LOAD ./Lib/ili9341/fonts.o
LOAD ./Lib/ili9341/ili9341.o
LOAD ./Lib/ili9341/ili9341_touch.o
LOAD ./Drivers/STM32F4xx_HAL_Driver/Src/stm32f4xx_hal.o
LOAD ./Drivers/STM32F4xx_HAL_Driver/Src/stm32f4xx_hal_adc.o
LOAD ./Drivers/STM32F4xx_HAL_Driver/Src/stm32f4xx_hal_adc_ex.o
LOAD ./Drivers/STM32F4xx_HAL_Driver/Src/stm32f4xx_hal_can.o
LOAD ./Drivers/STM32F4xx_HAL_Driver/Src/stm32f4xx_hal_cortex.o
LOAD ./Drivers/STM32F4xx_HAL_Driver/Src/stm32f4xx_hal_dac.o
LOAD ./Drivers/STM32F4xx_HAL_Driver/Src/stm32f4xx_hal_dac_ex.o
LOAD ./Drivers/STM32F4xx_HAL_Driver/Src/stm32f4xx_hal_dcmi.o
LOAD ./Drivers/STM32F4xx_HAL_Driver/Src/stm32f4xx_hal_dcmi_ex.o
LOAD ./Drivers/STM32F4xx_HAL_Driver/Src/stm32f4xx_hal_dfsdm.o
LOAD ./Drivers/STM32F4xx_HAL_Driver/Src/stm32f4xx_hal_dma.o
LOAD ./Drivers/STM32F4xx_HAL_Driver/Src/stm32f4xx_hal_dma2d.o
LOAD ./Drivers/STM32F4xx_HAL_Driver/Src/stm32f4xx_hal_dma_ex.o
LOAD ./Drivers/STM32F4xx_HAL_Driver/Src/stm32f4xx_hal_exti.o
LOAD ./Drivers/STM32F4xx_HAL_Driver/Src/stm32f4xx_hal_gpio.o
LOAD ./Drivers/STM32F4xx_HAL_Driver/Src/stm32f4xx_hal_hash.o
LOAD ./Drivers/STM32F4xx_HAL_Driver/Src/stm32f4xx_hal_hash_ex.o
LOAD ./Drivers/STM32F4xx_HAL_Driver/Src/stm32f4xx_hal_iwdg.o
LOAD ./Drivers/STM32F4xx_HAL_Driver/Src/stm32f4xx_hal_mmc.o
LOAD ./Drivers/STM32F4xx_HAL_Driver/Src/stm32f4xx_hal_nand.o
LOAD ./Drivers/STM32F4xx_HAL_Driver/Src/stm32f4xx_hal_nor.o
LOAD ./Drivers/STM32F4xx_HAL_Driver/Src/stm32f4xx_hal_pcd.o
LOAD ./Drivers/STM32F4xx_HAL_Driver/Src/stm32f4xx_hal_pcd_ex.o
LOAD ./Drivers/STM32F4xx_HAL_Driver/Src/stm32f4xx_hal_pwr.o
LOAD ./Drivers/STM32F4xx_HAL_Driver/Src/stm32f4xx_hal_pwr_ex.o
LOAD ./Drivers/STM32F4xx_HAL_Driver/Src/stm32f4xx_hal_rcc.o
LOAD ./Drivers/STM32F4xx_HAL_Driver/Src/stm32f4xx_hal_rcc_ex.o
LOAD ./Drivers/STM32F4xx_HAL_Driver/Src/stm32f4xx_hal_rng.o
LOAD ./Drivers/STM32F4xx_HAL_Driver/Src/stm32f4xx_hal_rtc.o
LOAD ./Drivers/STM32F4xx_HAL_Driver/Src/stm32f4xx_hal_rtc_ex.o
LOAD ./Drivers/STM32F4xx_HAL_Driver/Src/stm32f4xx_hal_sai.o
LOAD ./Drivers/STM32F4xx_HAL_Driver/Src/stm32f4xx_hal_sd.o
LOAD ./Drivers/STM32F4xx_HAL_Driver/Src/stm32f4xx_hal_sdram.o
LOAD ./Drivers/STM32F4xx_HAL_Driver/Src/stm32f4xx_hal_smartcard.o
LOAD ./Drivers/STM32F4xx_HAL_Driver/Src/stm32f4xx_hal_smbus.o
LOAD ./Drivers/STM32F4xx_HAL_Driver/Src/stm32f4xx_hal_spdifrx.o
LOAD ./Drivers/STM32F4xx_HAL_Driver/Src/stm32f4xx_hal_spi.o
LOAD ./Drivers/STM32F4xx_HAL_Driver/Src/stm32f4xx_hal_sram.o
LOAD ./Drivers/STM32F4xx_HAL_Driver/Src/stm32f4xx_hal_tim.o
LOAD ./Drivers/STM32F4xx_HAL_Driver/Src/stm32f4xx_hal_tim_ex.o
LOAD ./Drivers/STM32F4xx_HAL_Driver/Src/stm32f4xx_hal_uart.o
LOAD ./Drivers/STM32F4xx_HAL_Driver/Src/stm32f4xx_hal_usart.o
LOAD ./Drivers/STM32F4xx_HAL_Driver/Src/stm32f4xx_hal_wwdg.o
LOAD ./Drivers/STM32F4xx_HAL_Driver/Src/stm32f4xx_ll_adc.o
LOAD ./Drivers/STM32F4xx_HAL_Driver/Src/stm32f4xx_ll_crc.o
LOAD ./Drivers/STM32F4xx_HAL_Driver/Src/stm32f4xx_ll_dac.o
LOAD ./Drivers/STM32F4xx_HAL_Driver/Src/stm32f4xx_ll_dma.o
LOAD ./Drivers/STM32F4xx_HAL_Driver/Src/stm32f4xx_ll_dma2d.o
LOAD ./Drivers/STM32F4xx_HAL_Driver/Src/stm32f4xx_ll_exti.o
LOAD ./Drivers/STM32F4xx_HAL_Driver/Src/stm32f4xx_ll_fmc.o
LOAD ./Drivers/STM32F4xx_HAL_Driver/Src/stm32f4xx_ll_fmpi2c.o
LOAD ./Drivers/STM32F4xx_HAL_Driver/Src/stm32f4xx_ll_fsmc.o
LOAD ./Drivers/STM32F4xx_HAL_Driver/Src/stm32f4xx_ll_gpio.o
LOAD ./Drivers/STM32F4xx_HAL_Driver/Src/stm32f4xx_ll_i2c.o
LOAD ./Drivers/STM32F4xx_HAL_Driver/Src/stm32f4xx_ll_lptim.o
LOAD ./Drivers/STM32F4xx_HAL_Driver/Src/stm32f4xx_ll_pwr.o
LOAD ./Drivers/STM32F4xx_HAL_Driver/Src/stm32f4xx_ll_rcc.o
LOAD ./Drivers/STM32F4xx_HAL_Driver/Src/stm32f4xx_ll_rng.o
LOAD ./Drivers/STM32F4xx_HAL_Driver/Src/stm32f4xx_ll_rtc.o
LOAD ./Drivers/STM32F4xx_HAL_Driver/Src/stm32f4xx_ll_sdmmc.o
LOAD ./Drivers/STM32F4xx_HAL_Driver/Src/stm32f4xx_ll_spi.o
LOAD ./Drivers/STM32F4xx_HAL_Driver/Src/stm32f4xx_ll_tim.o
LOAD ./Drivers/STM32F4xx_HAL_Driver/Src/stm32f4xx_ll_usart.o
LOAD ./Drivers/STM32F4xx_HAL_Driver/Src/stm32f4xx_ll_usb.o
LOAD ./Drivers/STM32F4xx_HAL_Driver/Src/stm32f4xx_ll_utils.o
LOAD ./Core/Src/main.o
LOAD ./Core/Src/stm32f4xx_hal_msp.o
LOAD ./Core/Src/stm32f4xx_it.o
LOAD ./Core/Src/system_stm32f4xx.o
LOAD e:/programms/gnu mcu eclipse/toolchain/arm-gnu-toolchain-12.2.mpacbti-bet1-mingw-w64-i686-arm-none-eabi/bin/../lib/gcc/arm-none-eabi/12.2.0/thumb/v7e-m+fp/hard\libstdc++_nano.a
LOAD e:/programms/gnu mcu eclipse/toolchain/arm-gnu-toolchain-12.2.mpacbti-bet1-mingw-w64-i686-arm-none-eabi/bin/../lib/gcc/arm-none-eabi/12.2.0/thumb/v7e-m+fp/hard\libm.a
START GROUP
LOAD e:/programms/gnu mcu eclipse/toolchain/arm-gnu-toolchain-12.2.mpacbti-bet1-mingw-w64-i686-arm-none-eabi/bin/../lib/gcc/arm-none-eabi/12.2.0/thumb/v7e-m+fp/hard\libgcc.a
LOAD e:/programms/gnu mcu eclipse/toolchain/arm-gnu-toolchain-12.2.mpacbti-bet1-mingw-w64-i686-arm-none-eabi/bin/../lib/gcc/arm-none-eabi/12.2.0/thumb/v7e-m+fp/hard\libg_nano.a
LOAD e:/programms/gnu mcu eclipse/toolchain/arm-gnu-toolchain-12.2.mpacbti-bet1-mingw-w64-i686-arm-none-eabi/bin/../lib/gcc/arm-none-eabi/12.2.0/thumb/v7e-m+fp/hard\libc_nano.a
END GROUP
START GROUP
LOAD e:/programms/gnu mcu eclipse/toolchain/arm-gnu-toolchain-12.2.mpacbti-bet1-mingw-w64-i686-arm-none-eabi/bin/../lib/gcc/arm-none-eabi/12.2.0/thumb/v7e-m+fp/hard\libgcc.a
LOAD e:/programms/gnu mcu eclipse/toolchain/arm-gnu-toolchain-12.2.mpacbti-bet1-mingw-w64-i686-arm-none-eabi/bin/../lib/gcc/arm-none-eabi/12.2.0/thumb/v7e-m+fp/hard\libc_nano.a
LOAD e:/programms/gnu mcu eclipse/toolchain/arm-gnu-toolchain-12.2.mpacbti-bet1-mingw-w64-i686-arm-none-eabi/bin/../lib/gcc/arm-none-eabi/12.2.0/thumb/v7e-m+fp/hard\libnosys.a
END GROUP
START GROUP
LOAD e:/programms/gnu mcu eclipse/toolchain/arm-gnu-toolchain-12.2.mpacbti-bet1-mingw-w64-i686-arm-none-eabi/bin/../lib/gcc/arm-none-eabi/12.2.0/thumb/v7e-m+fp/hard\libgcc.a
LOAD e:/programms/gnu mcu eclipse/toolchain/arm-gnu-toolchain-12.2.mpacbti-bet1-mingw-w64-i686-arm-none-eabi/bin/../lib/gcc/arm-none-eabi/12.2.0/thumb/v7e-m+fp/hard\libc_nano.a
LOAD e:/programms/gnu mcu eclipse/toolchain/arm-gnu-toolchain-12.2.mpacbti-bet1-mingw-w64-i686-arm-none-eabi/bin/../lib/gcc/arm-none-eabi/12.2.0/thumb/v7e-m+fp/hard\libnosys.a
END GROUP
                0x20020000                        _estack = (ORIGIN (RAM) + LENGTH (RAM))
                0x00000200                        _Min_Heap_Size = 0x200
                0x00000400                        _Min_Stack_Size = 0x400

.isr_vector     0x08000000        0x0
                0x08000000                        . = ALIGN (0x4)
 *(.isr_vector)
                0x08000000                        . = ALIGN (0x4)

.text           0x08000000     0x5d00
                0x08000000                        . = ALIGN (0x4)
 *(.text)
 .text          0x08000000        0x0 ./Lib/ili9341/fonts.o
 .text          0x08000000        0x0 ./Lib/ili9341/ili9341.o
 .text          0x08000000        0x0 ./Lib/ili9341/ili9341_touch.o
 .text          0x08000000        0x0 ./Drivers/STM32F4xx_HAL_Driver/Src/stm32f4xx_hal.o
 .text          0x08000000        0x0 ./Drivers/STM32F4xx_HAL_Driver/Src/stm32f4xx_hal_adc.o
 .text          0x08000000        0x0 ./Drivers/STM32F4xx_HAL_Driver/Src/stm32f4xx_hal_adc_ex.o
 .text          0x08000000        0x0 ./Drivers/STM32F4xx_HAL_Driver/Src/stm32f4xx_hal_can.o
 .text          0x08000000        0x0 ./Drivers/STM32F4xx_HAL_Driver/Src/stm32f4xx_hal_cortex.o
 .text          0x08000000        0x0 ./Drivers/STM32F4xx_HAL_Driver/Src/stm32f4xx_hal_dac.o
 .text          0x08000000        0x0 ./Drivers/STM32F4xx_HAL_Driver/Src/stm32f4xx_hal_dac_ex.o
 .text          0x08000000        0x0 ./Drivers/STM32F4xx_HAL_Driver/Src/stm32f4xx_hal_dcmi.o
 .text          0x08000000        0x0 ./Drivers/STM32F4xx_HAL_Driver/Src/stm32f4xx_hal_dcmi_ex.o
 .text          0x08000000        0x0 ./Drivers/STM32F4xx_HAL_Driver/Src/stm32f4xx_hal_dfsdm.o
 .text          0x08000000        0x0 ./Drivers/STM32F4xx_HAL_Driver/Src/stm32f4xx_hal_dma.o
 .text          0x08000000        0x0 ./Drivers/STM32F4xx_HAL_Driver/Src/stm32f4xx_hal_dma2d.o
 .text          0x08000000        0x0 ./Drivers/STM32F4xx_HAL_Driver/Src/stm32f4xx_hal_dma_ex.o
 .text          0x08000000        0x0 ./Drivers/STM32F4xx_HAL_Driver/Src/stm32f4xx_hal_exti.o
 .text          0x08000000        0x0 ./Drivers/STM32F4xx_HAL_Driver/Src/stm32f4xx_hal_gpio.o
 .text          0x08000000        0x0 ./Drivers/STM32F4xx_HAL_Driver/Src/stm32f4xx_hal_hash.o
 .text          0x08000000        0x0 ./Drivers/STM32F4xx_HAL_Driver/Src/stm32f4xx_hal_hash_ex.o
 .text          0x08000000        0x0 ./Drivers/STM32F4xx_HAL_Driver/Src/stm32f4xx_hal_iwdg.o
 .text          0x08000000        0x0 ./Drivers/STM32F4xx_HAL_Driver/Src/stm32f4xx_hal_mmc.o
 .text          0x08000000        0x0 ./Drivers/STM32F4xx_HAL_Driver/Src/stm32f4xx_hal_nand.o
 .text          0x08000000        0x0 ./Drivers/STM32F4xx_HAL_Driver/Src/stm32f4xx_hal_nor.o
 .text          0x08000000        0x0 ./Drivers/STM32F4xx_HAL_Driver/Src/stm32f4xx_hal_pcd.o
 .text          0x08000000        0x0 ./Drivers/STM32F4xx_HAL_Driver/Src/stm32f4xx_hal_pcd_ex.o
 .text          0x08000000        0x0 ./Drivers/STM32F4xx_HAL_Driver/Src/stm32f4xx_hal_pwr.o
 .text          0x08000000        0x0 ./Drivers/STM32F4xx_HAL_Driver/Src/stm32f4xx_hal_pwr_ex.o
 .text          0x08000000        0x0 ./Drivers/STM32F4xx_HAL_Driver/Src/stm32f4xx_hal_rcc.o
 .text          0x08000000        0x0 ./Drivers/STM32F4xx_HAL_Driver/Src/stm32f4xx_hal_rcc_ex.o
 .text          0x08000000        0x0 ./Drivers/STM32F4xx_HAL_Driver/Src/stm32f4xx_hal_rng.o
 .text          0x08000000        0x0 ./Drivers/STM32F4xx_HAL_Driver/Src/stm32f4xx_hal_rtc.o
 .text          0x08000000        0x0 ./Drivers/STM32F4xx_HAL_Driver/Src/stm32f4xx_hal_rtc_ex.o
 .text          0x08000000        0x0 ./Drivers/STM32F4xx_HAL_Driver/Src/stm32f4xx_hal_sai.o
 .text          0x08000000        0x0 ./Drivers/STM32F4xx_HAL_Driver/Src/stm32f4xx_hal_sd.o
 .text          0x08000000        0x0 ./Drivers/STM32F4xx_HAL_Driver/Src/stm32f4xx_hal_sdram.o
 .text          0x08000000        0x0 ./Drivers/STM32F4xx_HAL_Driver/Src/stm32f4xx_hal_smartcard.o
 .text          0x08000000        0x0 ./Drivers/STM32F4xx_HAL_Driver/Src/stm32f4xx_hal_smbus.o
 .text          0x08000000        0x0 ./Drivers/STM32F4xx_HAL_Driver/Src/stm32f4xx_hal_spdifrx.o
 .text          0x08000000        0x0 ./Drivers/STM32F4xx_HAL_Driver/Src/stm32f4xx_hal_spi.o
 .text          0x08000000        0x0 ./Drivers/STM32F4xx_HAL_Driver/Src/stm32f4xx_hal_sram.o
 .text          0x08000000        0x0 ./Drivers/STM32F4xx_HAL_Driver/Src/stm32f4xx_hal_tim.o
 .text          0x08000000        0x0 ./Drivers/STM32F4xx_HAL_Driver/Src/stm32f4xx_hal_tim_ex.o
 .text          0x08000000        0x0 ./Drivers/STM32F4xx_HAL_Driver/Src/stm32f4xx_hal_uart.o
 .text          0x08000000        0x0 ./Drivers/STM32F4xx_HAL_Driver/Src/stm32f4xx_hal_usart.o
 .text          0x08000000        0x0 ./Drivers/STM32F4xx_HAL_Driver/Src/stm32f4xx_hal_wwdg.o
 .text          0x08000000        0x0 ./Drivers/STM32F4xx_HAL_Driver/Src/stm32f4xx_ll_adc.o
 .text          0x08000000        0x0 ./Drivers/STM32F4xx_HAL_Driver/Src/stm32f4xx_ll_crc.o
 .text          0x08000000        0x0 ./Drivers/STM32F4xx_HAL_Driver/Src/stm32f4xx_ll_dac.o
 .text          0x08000000        0x0 ./Drivers/STM32F4xx_HAL_Driver/Src/stm32f4xx_ll_dma.o
 .text          0x08000000        0x0 ./Drivers/STM32F4xx_HAL_Driver/Src/stm32f4xx_ll_dma2d.o
 .text          0x08000000        0x0 ./Drivers/STM32F4xx_HAL_Driver/Src/stm32f4xx_ll_exti.o
 .text          0x08000000        0x0 ./Drivers/STM32F4xx_HAL_Driver/Src/stm32f4xx_ll_fmc.o
 .text          0x08000000        0x0 ./Drivers/STM32F4xx_HAL_Driver/Src/stm32f4xx_ll_fmpi2c.o
 .text          0x08000000        0x0 ./Drivers/STM32F4xx_HAL_Driver/Src/stm32f4xx_ll_fsmc.o
 .text          0x08000000        0x0 ./Drivers/STM32F4xx_HAL_Driver/Src/stm32f4xx_ll_gpio.o
 .text          0x08000000        0x0 ./Drivers/STM32F4xx_HAL_Driver/Src/stm32f4xx_ll_i2c.o
 .text          0x08000000        0x0 ./Drivers/STM32F4xx_HAL_Driver/Src/stm32f4xx_ll_lptim.o
 .text          0x08000000        0x0 ./Drivers/STM32F4xx_HAL_Driver/Src/stm32f4xx_ll_pwr.o
 .text          0x08000000        0x0 ./Drivers/STM32F4xx_HAL_Driver/Src/stm32f4xx_ll_rcc.o
 .text          0x08000000        0x0 ./Drivers/STM32F4xx_HAL_Driver/Src/stm32f4xx_ll_rng.o
 .text          0x08000000        0x0 ./Drivers/STM32F4xx_HAL_Driver/Src/stm32f4xx_ll_rtc.o
 .text          0x08000000        0x0 ./Drivers/STM32F4xx_HAL_Driver/Src/stm32f4xx_ll_sdmmc.o
 .text          0x08000000        0x0 ./Drivers/STM32F4xx_HAL_Driver/Src/stm32f4xx_ll_spi.o
 .text          0x08000000        0x0 ./Drivers/STM32F4xx_HAL_Driver/Src/stm32f4xx_ll_tim.o
 .text          0x08000000        0x0 ./Drivers/STM32F4xx_HAL_Driver/Src/stm32f4xx_ll_usart.o
 .text          0x08000000        0x0 ./Drivers/STM32F4xx_HAL_Driver/Src/stm32f4xx_ll_usb.o
 .text          0x08000000        0x0 ./Drivers/STM32F4xx_HAL_Driver/Src/stm32f4xx_ll_utils.o
 .text          0x08000000        0x0 ./Core/Src/main.o
 .text          0x08000000        0x0 ./Core/Src/stm32f4xx_hal_msp.o
 .text          0x08000000        0x0 ./Core/Src/stm32f4xx_it.o
 .text          0x08000000        0x0 ./Core/Src/system_stm32f4xx.o
 .text          0x08000000       0x30 e:/programms/gnu mcu eclipse/toolchain/arm-gnu-toolchain-12.2.mpacbti-bet1-mingw-w64-i686-arm-none-eabi/bin/../lib/gcc/arm-none-eabi/12.2.0/thumb/v7e-m+fp/hard\libgcc.a(_aeabi_uldivmod.o)
                0x08000000                __aeabi_uldivmod
 .text          0x08000030        0x0 e:/programms/gnu mcu eclipse/toolchain/arm-gnu-toolchain-12.2.mpacbti-bet1-mingw-w64-i686-arm-none-eabi/bin/../lib/gcc/arm-none-eabi/12.2.0/thumb/v7e-m+fp/hard\libgcc.a(_udivmoddi4.o)
 .text          0x08000030        0x4 e:/programms/gnu mcu eclipse/toolchain/arm-gnu-toolchain-12.2.mpacbti-bet1-mingw-w64-i686-arm-none-eabi/bin/../lib/gcc/arm-none-eabi/12.2.0/thumb/v7e-m+fp/hard\libgcc.a(_dvmd_tls.o)
                0x08000030                __aeabi_idiv0
                0x08000030                __aeabi_ldiv0
 .text          0x08000034        0x0 e:/programms/gnu mcu eclipse/toolchain/arm-gnu-toolchain-12.2.mpacbti-bet1-mingw-w64-i686-arm-none-eabi/bin/../lib/gcc/arm-none-eabi/12.2.0/thumb/v7e-m+fp/hard\libg_nano.a(libc_a-memset.o)
 *(.text*)
 .text.ILI9341_Select
                0x08000034       0x14 ./Lib/ili9341/ili9341.o
 .text.ILI9341_Reset
                0x08000048       0x24 ./Lib/ili9341/ili9341.o
 .text.ILI9341_WriteCommand
                0x0800006c       0x34 ./Lib/ili9341/ili9341.o
 .text.ILI9341_WriteData
                0x080000a0       0x44 ./Lib/ili9341/ili9341.o
 .text.ILI9341_SetAddressWindow
                0x080000e4       0x5e ./Lib/ili9341/ili9341.o
 .text.ILI9341_WriteChar
                0x08000142       0x94 ./Lib/ili9341/ili9341.o
 *fill*         0x080001d6        0x2 
 .text.ILI9341_Unselect
                0x080001d8       0x14 ./Lib/ili9341/ili9341.o
                0x080001d8                ILI9341_Unselect
 .text.ILI9341_Init
                0x080001ec      0x1f8 ./Lib/ili9341/ili9341.o
                0x080001ec                ILI9341_Init
 .text.ILI9341_DrawPixel
                0x080003e4       0x46 ./Lib/ili9341/ili9341.o
                0x080003e4                ILI9341_DrawPixel
 .text.ILI9341_WriteString
                0x0800042a       0x76 ./Lib/ili9341/ili9341.o
                0x0800042a                ILI9341_WriteString
 .text.ILI9341_FillRectangle
                0x080004a0       0xa0 ./Lib/ili9341/ili9341.o
                0x080004a0                ILI9341_FillRectangle
 .text.ILI9341_FillScreen
                0x08000540       0x1a ./Lib/ili9341/ili9341.o
                0x08000540                ILI9341_FillScreen
 .text.ILI9341_DrawImage
                0x0800055a       0x54 ./Lib/ili9341/ili9341.o
                0x0800055a                ILI9341_DrawImage
 .text.ILI9341_InvertColors
                0x080005ae       0x1a ./Lib/ili9341/ili9341.o
                0x080005ae                ILI9341_InvertColors
 .text.ILI9341_TouchSelect
                0x080005c8       0x14 ./Lib/ili9341/ili9341_touch.o
 .text.ILI9341_TouchUnselect
                0x080005dc       0x14 ./Lib/ili9341/ili9341_touch.o
                0x080005dc                ILI9341_TouchUnselect
 .text.ILI9341_TouchPressed
                0x080005f0       0x18 ./Lib/ili9341/ili9341_touch.o
                0x080005f0                ILI9341_TouchPressed
 .text.ILI9341_TouchGetCoordinates
                0x08000608      0x12c ./Lib/ili9341/ili9341_touch.o
                0x08000608                ILI9341_TouchGetCoordinates
 .text.HAL_MspInit
                0x08000734        0x2 ./Drivers/STM32F4xx_HAL_Driver/Src/stm32f4xx_hal.o
 .text.HAL_MspDeInit
                0x08000736        0x2 ./Drivers/STM32F4xx_HAL_Driver/Src/stm32f4xx_hal.o
                0x08000736                HAL_MspDeInit
 .text.HAL_DeInit
                0x08000738       0x2c ./Drivers/STM32F4xx_HAL_Driver/Src/stm32f4xx_hal.o
                0x08000738                HAL_DeInit
 .text.HAL_InitTick
                0x08000764       0x4c ./Drivers/STM32F4xx_HAL_Driver/Src/stm32f4xx_hal.o
                0x08000764                HAL_InitTick
 .text.HAL_Init
                0x080007b0       0x34 ./Drivers/STM32F4xx_HAL_Driver/Src/stm32f4xx_hal.o
                0x080007b0                HAL_Init
 .text.HAL_IncTick
                0x080007e4       0x18 ./Drivers/STM32F4xx_HAL_Driver/Src/stm32f4xx_hal.o
                0x080007e4                HAL_IncTick
 .text.HAL_GetTick
                0x080007fc        0xc ./Drivers/STM32F4xx_HAL_Driver/Src/stm32f4xx_hal.o
                0x080007fc                HAL_GetTick
 .text.HAL_GetTickPrio
                0x08000808        0xc ./Drivers/STM32F4xx_HAL_Driver/Src/stm32f4xx_hal.o
                0x08000808                HAL_GetTickPrio
 .text.HAL_SetTickFreq
                0x08000814       0x2c ./Drivers/STM32F4xx_HAL_Driver/Src/stm32f4xx_hal.o
                0x08000814                HAL_SetTickFreq
 .text.HAL_GetTickFreq
                0x08000840        0xc ./Drivers/STM32F4xx_HAL_Driver/Src/stm32f4xx_hal.o
                0x08000840                HAL_GetTickFreq
 .text.HAL_Delay
                0x0800084c       0x28 ./Drivers/STM32F4xx_HAL_Driver/Src/stm32f4xx_hal.o
                0x0800084c                HAL_Delay
 .text.HAL_SuspendTick
                0x08000874        0xe ./Drivers/STM32F4xx_HAL_Driver/Src/stm32f4xx_hal.o
                0x08000874                HAL_SuspendTick
 .text.HAL_ResumeTick
                0x08000882        0xe ./Drivers/STM32F4xx_HAL_Driver/Src/stm32f4xx_hal.o
                0x08000882                HAL_ResumeTick
 .text.HAL_GetHalVersion
                0x08000890        0x8 ./Drivers/STM32F4xx_HAL_Driver/Src/stm32f4xx_hal.o
                0x08000890                HAL_GetHalVersion
 .text.HAL_GetREVID
                0x08000898        0xc ./Drivers/STM32F4xx_HAL_Driver/Src/stm32f4xx_hal.o
                0x08000898                HAL_GetREVID
 .text.HAL_GetDEVID
                0x080008a4       0x10 ./Drivers/STM32F4xx_HAL_Driver/Src/stm32f4xx_hal.o
                0x080008a4                HAL_GetDEVID
 .text.HAL_DBGMCU_EnableDBGSleepMode
                0x080008b4       0x10 ./Drivers/STM32F4xx_HAL_Driver/Src/stm32f4xx_hal.o
                0x080008b4                HAL_DBGMCU_EnableDBGSleepMode
 .text.HAL_DBGMCU_DisableDBGSleepMode
                0x080008c4       0x10 ./Drivers/STM32F4xx_HAL_Driver/Src/stm32f4xx_hal.o
                0x080008c4                HAL_DBGMCU_DisableDBGSleepMode
 .text.HAL_DBGMCU_EnableDBGStopMode
                0x080008d4       0x10 ./Drivers/STM32F4xx_HAL_Driver/Src/stm32f4xx_hal.o
                0x080008d4                HAL_DBGMCU_EnableDBGStopMode
 .text.HAL_DBGMCU_DisableDBGStopMode
                0x080008e4       0x10 ./Drivers/STM32F4xx_HAL_Driver/Src/stm32f4xx_hal.o
                0x080008e4                HAL_DBGMCU_DisableDBGStopMode
 .text.HAL_DBGMCU_EnableDBGStandbyMode
                0x080008f4       0x10 ./Drivers/STM32F4xx_HAL_Driver/Src/stm32f4xx_hal.o
                0x080008f4                HAL_DBGMCU_EnableDBGStandbyMode
 .text.HAL_DBGMCU_DisableDBGStandbyMode
                0x08000904       0x10 ./Drivers/STM32F4xx_HAL_Driver/Src/stm32f4xx_hal.o
                0x08000904                HAL_DBGMCU_DisableDBGStandbyMode
 .text.HAL_EnableCompensationCell
                0x08000914       0x10 ./Drivers/STM32F4xx_HAL_Driver/Src/stm32f4xx_hal.o
                0x08000914                HAL_EnableCompensationCell
 .text.HAL_DisableCompensationCell
                0x08000924       0x10 ./Drivers/STM32F4xx_HAL_Driver/Src/stm32f4xx_hal.o
                0x08000924                HAL_DisableCompensationCell
 .text.HAL_GetUIDw0
                0x08000934        0xc ./Drivers/STM32F4xx_HAL_Driver/Src/stm32f4xx_hal.o
                0x08000934                HAL_GetUIDw0
 .text.HAL_GetUIDw1
                0x08000940        0xc ./Drivers/STM32F4xx_HAL_Driver/Src/stm32f4xx_hal.o
                0x08000940                HAL_GetUIDw1
 .text.HAL_GetUIDw2
                0x0800094c        0xc ./Drivers/STM32F4xx_HAL_Driver/Src/stm32f4xx_hal.o
                0x0800094c                HAL_GetUIDw2
 .text.__NVIC_DisableIRQ
                0x08000958       0x24 ./Drivers/STM32F4xx_HAL_Driver/Src/stm32f4xx_hal_cortex.o
 .text.__NVIC_SetPriority
                0x0800097c       0x28 ./Drivers/STM32F4xx_HAL_Driver/Src/stm32f4xx_hal_cortex.o
 .text.__NVIC_GetPriority
                0x080009a4       0x24 ./Drivers/STM32F4xx_HAL_Driver/Src/stm32f4xx_hal_cortex.o
 .text.NVIC_EncodePriority
                0x080009c8       0x3e ./Drivers/STM32F4xx_HAL_Driver/Src/stm32f4xx_hal_cortex.o
 .text.NVIC_DecodePriority
                0x08000a06       0x3e ./Drivers/STM32F4xx_HAL_Driver/Src/stm32f4xx_hal_cortex.o
 .text.__NVIC_SystemReset
                0x08000a44       0x24 ./Drivers/STM32F4xx_HAL_Driver/Src/stm32f4xx_hal_cortex.o
 .text.HAL_NVIC_SetPriorityGrouping
                0x08000a68       0x24 ./Drivers/STM32F4xx_HAL_Driver/Src/stm32f4xx_hal_cortex.o
                0x08000a68                HAL_NVIC_SetPriorityGrouping
 .text.HAL_NVIC_SetPriority
                0x08000a8c       0x20 ./Drivers/STM32F4xx_HAL_Driver/Src/stm32f4xx_hal_cortex.o
                0x08000a8c                HAL_NVIC_SetPriority
 .text.HAL_NVIC_EnableIRQ
                0x08000aac       0x1c ./Drivers/STM32F4xx_HAL_Driver/Src/stm32f4xx_hal_cortex.o
                0x08000aac                HAL_NVIC_EnableIRQ
 .text.HAL_NVIC_DisableIRQ
                0x08000ac8        0x8 ./Drivers/STM32F4xx_HAL_Driver/Src/stm32f4xx_hal_cortex.o
                0x08000ac8                HAL_NVIC_DisableIRQ
 .text.HAL_NVIC_SystemReset
                0x08000ad0        0x6 ./Drivers/STM32F4xx_HAL_Driver/Src/stm32f4xx_hal_cortex.o
                0x08000ad0                HAL_NVIC_SystemReset
 *fill*         0x08000ad6        0x2 
 .text.HAL_SYSTICK_Config
                0x08000ad8       0x28 ./Drivers/STM32F4xx_HAL_Driver/Src/stm32f4xx_hal_cortex.o
                0x08000ad8                HAL_SYSTICK_Config
 .text.HAL_MPU_Disable
                0x08000b00       0x1c ./Drivers/STM32F4xx_HAL_Driver/Src/stm32f4xx_hal_cortex.o
                0x08000b00                HAL_MPU_Disable
 .text.HAL_MPU_Enable
                0x08000b1c       0x20 ./Drivers/STM32F4xx_HAL_Driver/Src/stm32f4xx_hal_cortex.o
                0x08000b1c                HAL_MPU_Enable
 .text.HAL_MPU_ConfigRegion
                0x08000b3c       0x60 ./Drivers/STM32F4xx_HAL_Driver/Src/stm32f4xx_hal_cortex.o
                0x08000b3c                HAL_MPU_ConfigRegion
 .text.HAL_NVIC_GetPriorityGrouping
                0x08000b9c       0x10 ./Drivers/STM32F4xx_HAL_Driver/Src/stm32f4xx_hal_cortex.o
                0x08000b9c                HAL_NVIC_GetPriorityGrouping
 .text.HAL_NVIC_GetPriority
                0x08000bac       0x18 ./Drivers/STM32F4xx_HAL_Driver/Src/stm32f4xx_hal_cortex.o
                0x08000bac                HAL_NVIC_GetPriority
 .text.HAL_NVIC_SetPendingIRQ
                0x08000bc4       0x1c ./Drivers/STM32F4xx_HAL_Driver/Src/stm32f4xx_hal_cortex.o
                0x08000bc4                HAL_NVIC_SetPendingIRQ
 .text.HAL_NVIC_GetPendingIRQ
                0x08000be0       0x24 ./Drivers/STM32F4xx_HAL_Driver/Src/stm32f4xx_hal_cortex.o
                0x08000be0                HAL_NVIC_GetPendingIRQ
 .text.HAL_NVIC_ClearPendingIRQ
                0x08000c04       0x1c ./Drivers/STM32F4xx_HAL_Driver/Src/stm32f4xx_hal_cortex.o
                0x08000c04                HAL_NVIC_ClearPendingIRQ
 .text.HAL_NVIC_GetActive
                0x08000c20       0x24 ./Drivers/STM32F4xx_HAL_Driver/Src/stm32f4xx_hal_cortex.o
                0x08000c20                HAL_NVIC_GetActive
 .text.HAL_SYSTICK_CLKSourceConfig
                0x08000c44       0x20 ./Drivers/STM32F4xx_HAL_Driver/Src/stm32f4xx_hal_cortex.o
                0x08000c44                HAL_SYSTICK_CLKSourceConfig
 .text.HAL_SYSTICK_Callback
                0x08000c64        0x2 ./Drivers/STM32F4xx_HAL_Driver/Src/stm32f4xx_hal_cortex.o
                0x08000c64                HAL_SYSTICK_Callback
 .text.HAL_SYSTICK_IRQHandler
                0x08000c66        0x8 ./Drivers/STM32F4xx_HAL_Driver/Src/stm32f4xx_hal_cortex.o
                0x08000c66                HAL_SYSTICK_IRQHandler
 .text.DMA_SetConfig
                0x08000c6e       0x2c ./Drivers/STM32F4xx_HAL_Driver/Src/stm32f4xx_hal_dma.o
 *fill*         0x08000c9a        0x2 
 .text.DMA_CalcBaseAndBitshift
                0x08000c9c       0x44 ./Drivers/STM32F4xx_HAL_Driver/Src/stm32f4xx_hal_dma.o
 .text.DMA_CheckFifoParam
                0x08000ce0       0x8e ./Drivers/STM32F4xx_HAL_Driver/Src/stm32f4xx_hal_dma.o
 *fill*         0x08000d6e        0x2 
 .text.HAL_DMA_Init
                0x08000d70       0xcc ./Drivers/STM32F4xx_HAL_Driver/Src/stm32f4xx_hal_dma.o
                0x08000d70                HAL_DMA_Init
 .text.HAL_DMA_DeInit
                0x08000e3c       0x64 ./Drivers/STM32F4xx_HAL_Driver/Src/stm32f4xx_hal_dma.o
                0x08000e3c                HAL_DMA_DeInit
 .text.HAL_DMA_Start
                0x08000ea0       0x48 ./Drivers/STM32F4xx_HAL_Driver/Src/stm32f4xx_hal_dma.o
                0x08000ea0                HAL_DMA_Start
 .text.HAL_DMA_Start_IT
                0x08000ee8       0x6a ./Drivers/STM32F4xx_HAL_Driver/Src/stm32f4xx_hal_dma.o
                0x08000ee8                HAL_DMA_Start_IT
 .text.HAL_DMA_Abort
                0x08000f52       0x94 ./Drivers/STM32F4xx_HAL_Driver/Src/stm32f4xx_hal_dma.o
                0x08000f52                HAL_DMA_Abort
 .text.HAL_DMA_Abort_IT
                0x08000fe6       0x26 ./Drivers/STM32F4xx_HAL_Driver/Src/stm32f4xx_hal_dma.o
                0x08000fe6                HAL_DMA_Abort_IT
 .text.HAL_DMA_PollForTransfer
                0x0800100c      0x128 ./Drivers/STM32F4xx_HAL_Driver/Src/stm32f4xx_hal_dma.o
                0x0800100c                HAL_DMA_PollForTransfer
 .text.HAL_DMA_IRQHandler
                0x08001134      0x1dc ./Drivers/STM32F4xx_HAL_Driver/Src/stm32f4xx_hal_dma.o
                0x08001134                HAL_DMA_IRQHandler
 .text.HAL_DMA_RegisterCallback
                0x08001310       0x5a ./Drivers/STM32F4xx_HAL_Driver/Src/stm32f4xx_hal_dma.o
                0x08001310                HAL_DMA_RegisterCallback
 .text.HAL_DMA_UnRegisterCallback
                0x0800136a       0x6e ./Drivers/STM32F4xx_HAL_Driver/Src/stm32f4xx_hal_dma.o
                0x0800136a                HAL_DMA_UnRegisterCallback
 .text.HAL_DMA_GetState
                0x080013d8        0x6 ./Drivers/STM32F4xx_HAL_Driver/Src/stm32f4xx_hal_dma.o
                0x080013d8                HAL_DMA_GetState
 .text.HAL_DMA_GetError
                0x080013de        0x4 ./Drivers/STM32F4xx_HAL_Driver/Src/stm32f4xx_hal_dma.o
                0x080013de                HAL_DMA_GetError
 .text.DMA_MultiBufferSetConfig
                0x080013e2       0x24 ./Drivers/STM32F4xx_HAL_Driver/Src/stm32f4xx_hal_dma_ex.o
 .text.HAL_DMAEx_MultiBufferStart
                0x08001406       0x5e ./Drivers/STM32F4xx_HAL_Driver/Src/stm32f4xx_hal_dma_ex.o
                0x08001406                HAL_DMAEx_MultiBufferStart
 .text.HAL_DMAEx_MultiBufferStart_IT
                0x08001464      0xf00 ./Drivers/STM32F4xx_HAL_Driver/Src/stm32f4xx_hal_dma_ex.o
                0x08001464                HAL_DMAEx_MultiBufferStart_IT
 .text.HAL_DMAEx_ChangeMemory
                0x08002364       0x10 ./Drivers/STM32F4xx_HAL_Driver/Src/stm32f4xx_hal_dma_ex.o
                0x08002364                HAL_DMAEx_ChangeMemory
 .text.HAL_EXTI_SetConfigLine
                0x08002374       0xd8 ./Drivers/STM32F4xx_HAL_Driver/Src/stm32f4xx_hal_exti.o
                0x08002374                HAL_EXTI_SetConfigLine
 .text.HAL_EXTI_GetConfigLine
                0x0800244c       0xa8 ./Drivers/STM32F4xx_HAL_Driver/Src/stm32f4xx_hal_exti.o
                0x0800244c                HAL_EXTI_GetConfigLine
 .text.HAL_EXTI_ClearConfigLine
                0x080024f4       0x84 ./Drivers/STM32F4xx_HAL_Driver/Src/stm32f4xx_hal_exti.o
                0x080024f4                HAL_EXTI_ClearConfigLine
 .text.HAL_EXTI_RegisterCallback
                0x08002578        0xe ./Drivers/STM32F4xx_HAL_Driver/Src/stm32f4xx_hal_exti.o
                0x08002578                HAL_EXTI_RegisterCallback
 .text.HAL_EXTI_GetHandle
                0x08002586        0xc ./Drivers/STM32F4xx_HAL_Driver/Src/stm32f4xx_hal_exti.o
                0x08002586                HAL_EXTI_GetHandle
 *fill*         0x08002592        0x2 
 .text.HAL_EXTI_IRQHandler
                0x08002594       0x24 ./Drivers/STM32F4xx_HAL_Driver/Src/stm32f4xx_hal_exti.o
                0x08002594                HAL_EXTI_IRQHandler
 .text.HAL_EXTI_GetPending
                0x080025b8       0x18 ./Drivers/STM32F4xx_HAL_Driver/Src/stm32f4xx_hal_exti.o
                0x080025b8                HAL_EXTI_GetPending
 .text.HAL_EXTI_ClearPending
                0x080025d0       0x14 ./Drivers/STM32F4xx_HAL_Driver/Src/stm32f4xx_hal_exti.o
                0x080025d0                HAL_EXTI_ClearPending
 .text.HAL_EXTI_GenerateSWI
                0x080025e4       0x14 ./Drivers/STM32F4xx_HAL_Driver/Src/stm32f4xx_hal_exti.o
                0x080025e4                HAL_EXTI_GenerateSWI
 .text.HAL_GPIO_Init
                0x080025f8      0x1ec ./Drivers/STM32F4xx_HAL_Driver/Src/stm32f4xx_hal_gpio.o
                0x080025f8                HAL_GPIO_Init
 .text.HAL_GPIO_DeInit
                0x080027e4      0x134 ./Drivers/STM32F4xx_HAL_Driver/Src/stm32f4xx_hal_gpio.o
                0x080027e4                HAL_GPIO_DeInit
 .text.HAL_GPIO_ReadPin
                0x08002918        0xe ./Drivers/STM32F4xx_HAL_Driver/Src/stm32f4xx_hal_gpio.o
                0x08002918                HAL_GPIO_ReadPin
 .text.HAL_GPIO_WritePin
                0x08002926        0xc ./Drivers/STM32F4xx_HAL_Driver/Src/stm32f4xx_hal_gpio.o
                0x08002926                HAL_GPIO_WritePin
 .text.HAL_GPIO_TogglePin
                0x08002932       0x12 ./Drivers/STM32F4xx_HAL_Driver/Src/stm32f4xx_hal_gpio.o
                0x08002932                HAL_GPIO_TogglePin
 .text.HAL_GPIO_LockPin
                0x08002944       0x2e ./Drivers/STM32F4xx_HAL_Driver/Src/stm32f4xx_hal_gpio.o
                0x08002944                HAL_GPIO_LockPin
 .text.HAL_GPIO_EXTI_Callback
                0x08002972        0x2 ./Drivers/STM32F4xx_HAL_Driver/Src/stm32f4xx_hal_gpio.o
                0x08002972                HAL_GPIO_EXTI_Callback
 .text.HAL_GPIO_EXTI_IRQHandler
                0x08002974       0x1c ./Drivers/STM32F4xx_HAL_Driver/Src/stm32f4xx_hal_gpio.o
                0x08002974                HAL_GPIO_EXTI_IRQHandler
 .text.HAL_PWR_DeInit
                0x08002990       0x18 ./Drivers/STM32F4xx_HAL_Driver/Src/stm32f4xx_hal_pwr.o
                0x08002990                HAL_PWR_DeInit
 .text.HAL_PWR_EnableBkUpAccess
                0x080029a8       0x1c ./Drivers/STM32F4xx_HAL_Driver/Src/stm32f4xx_hal_pwr.o
                0x080029a8                HAL_PWR_EnableBkUpAccess
 .text.HAL_PWR_DisableBkUpAccess
                0x080029c4       0x1c ./Drivers/STM32F4xx_HAL_Driver/Src/stm32f4xx_hal_pwr.o
                0x080029c4                HAL_PWR_DisableBkUpAccess
 .text.HAL_PWR_ConfigPVD
                0x080029e0       0x84 ./Drivers/STM32F4xx_HAL_Driver/Src/stm32f4xx_hal_pwr.o
                0x080029e0                HAL_PWR_ConfigPVD
 .text.HAL_PWR_EnablePVD
                0x08002a64        0xc ./Drivers/STM32F4xx_HAL_Driver/Src/stm32f4xx_hal_pwr.o
                0x08002a64                HAL_PWR_EnablePVD
 .text.HAL_PWR_DisablePVD
                0x08002a70        0xc ./Drivers/STM32F4xx_HAL_Driver/Src/stm32f4xx_hal_pwr.o
                0x08002a70                HAL_PWR_DisablePVD
 .text.HAL_PWR_EnableWakeUpPin
                0x08002a7c       0x10 ./Drivers/STM32F4xx_HAL_Driver/Src/stm32f4xx_hal_pwr.o
                0x08002a7c                HAL_PWR_EnableWakeUpPin
 .text.HAL_PWR_DisableWakeUpPin
                0x08002a8c       0x10 ./Drivers/STM32F4xx_HAL_Driver/Src/stm32f4xx_hal_pwr.o
                0x08002a8c                HAL_PWR_DisableWakeUpPin
 .text.HAL_PWR_EnterSLEEPMode
                0x08002a9c       0x20 ./Drivers/STM32F4xx_HAL_Driver/Src/stm32f4xx_hal_pwr.o
                0x08002a9c                HAL_PWR_EnterSLEEPMode
 .text.HAL_PWR_EnterSTOPMode
                0x08002abc       0x38 ./Drivers/STM32F4xx_HAL_Driver/Src/stm32f4xx_hal_pwr.o
                0x08002abc                HAL_PWR_EnterSTOPMode
 .text.HAL_PWR_EnterSTANDBYMode
                0x08002af4       0x20 ./Drivers/STM32F4xx_HAL_Driver/Src/stm32f4xx_hal_pwr.o
                0x08002af4                HAL_PWR_EnterSTANDBYMode
 .text.HAL_PWR_PVDCallback
                0x08002b14        0x2 ./Drivers/STM32F4xx_HAL_Driver/Src/stm32f4xx_hal_pwr.o
                0x08002b14                HAL_PWR_PVDCallback
 *fill*         0x08002b16        0x2 
 .text.HAL_PWR_PVD_IRQHandler
                0x08002b18       0x20 ./Drivers/STM32F4xx_HAL_Driver/Src/stm32f4xx_hal_pwr.o
                0x08002b18                HAL_PWR_PVD_IRQHandler
 .text.HAL_PWR_EnableSleepOnExit
                0x08002b38       0x10 ./Drivers/STM32F4xx_HAL_Driver/Src/stm32f4xx_hal_pwr.o
                0x08002b38                HAL_PWR_EnableSleepOnExit
 .text.HAL_PWR_DisableSleepOnExit
                0x08002b48       0x10 ./Drivers/STM32F4xx_HAL_Driver/Src/stm32f4xx_hal_pwr.o
                0x08002b48                HAL_PWR_DisableSleepOnExit
 .text.HAL_PWR_EnableSEVOnPend
                0x08002b58       0x10 ./Drivers/STM32F4xx_HAL_Driver/Src/stm32f4xx_hal_pwr.o
                0x08002b58                HAL_PWR_EnableSEVOnPend
 .text.HAL_PWR_DisableSEVOnPend
                0x08002b68       0x10 ./Drivers/STM32F4xx_HAL_Driver/Src/stm32f4xx_hal_pwr.o
                0x08002b68                HAL_PWR_DisableSEVOnPend
 .text.HAL_PWREx_EnableBkUpReg
                0x08002b78       0x38 ./Drivers/STM32F4xx_HAL_Driver/Src/stm32f4xx_hal_pwr_ex.o
                0x08002b78                HAL_PWREx_EnableBkUpReg
 .text.HAL_PWREx_DisableBkUpReg
                0x08002bb0       0x38 ./Drivers/STM32F4xx_HAL_Driver/Src/stm32f4xx_hal_pwr_ex.o
                0x08002bb0                HAL_PWREx_DisableBkUpReg
 .text.HAL_PWREx_EnableFlashPowerDown
                0x08002be8        0xc ./Drivers/STM32F4xx_HAL_Driver/Src/stm32f4xx_hal_pwr_ex.o
                0x08002be8                HAL_PWREx_EnableFlashPowerDown
 .text.HAL_PWREx_DisableFlashPowerDown
                0x08002bf4        0xc ./Drivers/STM32F4xx_HAL_Driver/Src/stm32f4xx_hal_pwr_ex.o
                0x08002bf4                HAL_PWREx_DisableFlashPowerDown
 .text.HAL_PWREx_GetVoltageRange
                0x08002c00       0x10 ./Drivers/STM32F4xx_HAL_Driver/Src/stm32f4xx_hal_pwr_ex.o
                0x08002c00                HAL_PWREx_GetVoltageRange
 .text.HAL_PWREx_ControlVoltageScaling
                0x08002c10       0x64 ./Drivers/STM32F4xx_HAL_Driver/Src/stm32f4xx_hal_pwr_ex.o
                0x08002c10                HAL_PWREx_ControlVoltageScaling
 .text.HAL_RCC_DeInit
                0x08002c74        0x4 ./Drivers/STM32F4xx_HAL_Driver/Src/stm32f4xx_hal_rcc.o
 .text.HAL_RCC_OscConfig
                0x08002c78      0x3f8 ./Drivers/STM32F4xx_HAL_Driver/Src/stm32f4xx_hal_rcc.o
                0x08002c78                HAL_RCC_OscConfig
 .text.HAL_RCC_MCOConfig
                0x08003070       0x9c ./Drivers/STM32F4xx_HAL_Driver/Src/stm32f4xx_hal_rcc.o
                0x08003070                HAL_RCC_MCOConfig
 .text.HAL_RCC_EnableCSS
                0x0800310c        0xc ./Drivers/STM32F4xx_HAL_Driver/Src/stm32f4xx_hal_rcc.o
                0x0800310c                HAL_RCC_EnableCSS
 .text.HAL_RCC_DisableCSS
                0x08003118        0xc ./Drivers/STM32F4xx_HAL_Driver/Src/stm32f4xx_hal_rcc.o
                0x08003118                HAL_RCC_DisableCSS
 .text.HAL_RCC_GetSysClockFreq
                0x08003124       0xdc ./Drivers/STM32F4xx_HAL_Driver/Src/stm32f4xx_hal_rcc.o
                0x08003124                HAL_RCC_GetSysClockFreq
 .text.HAL_RCC_ClockConfig
                0x08003200      0x160 ./Drivers/STM32F4xx_HAL_Driver/Src/stm32f4xx_hal_rcc.o
                0x08003200                HAL_RCC_ClockConfig
 .text.HAL_RCC_GetHCLKFreq
                0x08003360        0xc ./Drivers/STM32F4xx_HAL_Driver/Src/stm32f4xx_hal_rcc.o
                0x08003360                HAL_RCC_GetHCLKFreq
 .text.HAL_RCC_GetPCLK1Freq
                0x0800336c       0x20 ./Drivers/STM32F4xx_HAL_Driver/Src/stm32f4xx_hal_rcc.o
                0x0800336c                HAL_RCC_GetPCLK1Freq
 .text.HAL_RCC_GetPCLK2Freq
                0x0800338c       0x20 ./Drivers/STM32F4xx_HAL_Driver/Src/stm32f4xx_hal_rcc.o
                0x0800338c                HAL_RCC_GetPCLK2Freq
 .text.HAL_RCC_GetOscConfig
                0x080033ac       0xcc ./Drivers/STM32F4xx_HAL_Driver/Src/stm32f4xx_hal_rcc.o
                0x080033ac                HAL_RCC_GetOscConfig
 .text.HAL_RCC_GetClockConfig
                0x08003478       0x3c ./Drivers/STM32F4xx_HAL_Driver/Src/stm32f4xx_hal_rcc.o
                0x08003478                HAL_RCC_GetClockConfig
 .text.HAL_RCC_CSSCallback
                0x080034b4        0x2 ./Drivers/STM32F4xx_HAL_Driver/Src/stm32f4xx_hal_rcc.o
                0x080034b4                HAL_RCC_CSSCallback
 *fill*         0x080034b6        0x2 
 .text.HAL_RCC_NMI_IRQHandler
                0x080034b8       0x20 ./Drivers/STM32F4xx_HAL_Driver/Src/stm32f4xx_hal_rcc.o
                0x080034b8                HAL_RCC_NMI_IRQHandler
 .text.HAL_RCCEx_PeriphCLKConfig
                0x080034d8      0x154 ./Drivers/STM32F4xx_HAL_Driver/Src/stm32f4xx_hal_rcc_ex.o
                0x080034d8                HAL_RCCEx_PeriphCLKConfig
 .text.HAL_RCCEx_GetPeriphCLKConfig
                0x0800362c       0x30 ./Drivers/STM32F4xx_HAL_Driver/Src/stm32f4xx_hal_rcc_ex.o
                0x0800362c                HAL_RCCEx_GetPeriphCLKConfig
 .text.HAL_RCCEx_GetPeriphCLKFreq
                0x0800365c       0x74 ./Drivers/STM32F4xx_HAL_Driver/Src/stm32f4xx_hal_rcc_ex.o
                0x0800365c                HAL_RCCEx_GetPeriphCLKFreq
 .text.HAL_RCCEx_EnablePLLI2S
                0x080036d0       0x68 ./Drivers/STM32F4xx_HAL_Driver/Src/stm32f4xx_hal_rcc_ex.o
                0x080036d0                HAL_RCCEx_EnablePLLI2S
 .text.HAL_RCCEx_DisablePLLI2S
                0x08003738       0x34 ./Drivers/STM32F4xx_HAL_Driver/Src/stm32f4xx_hal_rcc_ex.o
                0x08003738                HAL_RCCEx_DisablePLLI2S
 .text.HAL_RCC_DeInit
                0x0800376c      0x13c ./Drivers/STM32F4xx_HAL_Driver/Src/stm32f4xx_hal_rcc_ex.o
                0x0800376c                HAL_RCC_DeInit
 .text.SPI_AbortRx_ISR
                0x080038a8       0x68 ./Drivers/STM32F4xx_HAL_Driver/Src/stm32f4xx_hal_spi.o
 .text.SPI_AbortTx_ISR
                0x08003910       0x1c ./Drivers/STM32F4xx_HAL_Driver/Src/stm32f4xx_hal_spi.o
 .text.SPI_WaitFlagStateUntilTimeout
                0x0800392c       0xc8 ./Drivers/STM32F4xx_HAL_Driver/Src/stm32f4xx_hal_spi.o
 .text.SPI_EndRxTxTransaction
                0x080039f4       0x68 ./Drivers/STM32F4xx_HAL_Driver/Src/stm32f4xx_hal_spi.o
 .text.SPI_EndRxTransaction
                0x08003a5c       0x8c ./Drivers/STM32F4xx_HAL_Driver/Src/stm32f4xx_hal_spi.o
 .text.HAL_SPI_MspInit
                0x08003ae8        0x2 ./Drivers/STM32F4xx_HAL_Driver/Src/stm32f4xx_hal_spi.o
 .text.HAL_SPI_Init
                0x08003aea       0xbe ./Drivers/STM32F4xx_HAL_Driver/Src/stm32f4xx_hal_spi.o
                0x08003aea                HAL_SPI_Init
 .text.HAL_SPI_MspDeInit
                0x08003ba8        0x2 ./Drivers/STM32F4xx_HAL_Driver/Src/stm32f4xx_hal_spi.o
 .text.HAL_SPI_DeInit
                0x08003baa       0x2c ./Drivers/STM32F4xx_HAL_Driver/Src/stm32f4xx_hal_spi.o
                0x08003baa                HAL_SPI_DeInit
 .text.HAL_SPI_Transmit
                0x08003bd6      0x1b8 ./Drivers/STM32F4xx_HAL_Driver/Src/stm32f4xx_hal_spi.o
                0x08003bd6                HAL_SPI_Transmit
 .text.HAL_SPI_TransmitReceive
                0x08003d8e      0x238 ./Drivers/STM32F4xx_HAL_Driver/Src/stm32f4xx_hal_spi.o
                0x08003d8e                HAL_SPI_TransmitReceive
 .text.HAL_SPI_Receive
                0x08003fc6      0x180 ./Drivers/STM32F4xx_HAL_Driver/Src/stm32f4xx_hal_spi.o
                0x08003fc6                HAL_SPI_Receive
 *fill*         0x08004146        0x2 
 .text.HAL_SPI_Transmit_IT
                0x08004148       0xa8 ./Drivers/STM32F4xx_HAL_Driver/Src/stm32f4xx_hal_spi.o
                0x08004148                HAL_SPI_Transmit_IT
 .text.HAL_SPI_TransmitReceive_IT
                0x080041f0       0xec ./Drivers/STM32F4xx_HAL_Driver/Src/stm32f4xx_hal_spi.o
                0x080041f0                HAL_SPI_TransmitReceive_IT
 .text.HAL_SPI_Receive_IT
                0x080042dc       0xdc ./Drivers/STM32F4xx_HAL_Driver/Src/stm32f4xx_hal_spi.o
                0x080042dc                HAL_SPI_Receive_IT
 .text.HAL_SPI_Transmit_DMA
                0x080043b8       0xe0 ./Drivers/STM32F4xx_HAL_Driver/Src/stm32f4xx_hal_spi.o
                0x080043b8                HAL_SPI_Transmit_DMA
 .text.HAL_SPI_TransmitReceive_DMA
                0x08004498      0x150 ./Drivers/STM32F4xx_HAL_Driver/Src/stm32f4xx_hal_spi.o
                0x08004498                HAL_SPI_TransmitReceive_DMA
 .text.HAL_SPI_Receive_DMA
                0x080045e8       0xfc ./Drivers/STM32F4xx_HAL_Driver/Src/stm32f4xx_hal_spi.o
                0x080045e8                HAL_SPI_Receive_DMA
 .text.HAL_SPI_Abort
                0x080046e4      0x144 ./Drivers/STM32F4xx_HAL_Driver/Src/stm32f4xx_hal_spi.o
                0x080046e4                HAL_SPI_Abort
 .text.HAL_SPI_DMAPause
                0x08004828       0x26 ./Drivers/STM32F4xx_HAL_Driver/Src/stm32f4xx_hal_spi.o
                0x08004828                HAL_SPI_DMAPause
 .text.HAL_SPI_DMAResume
                0x0800484e       0x26 ./Drivers/STM32F4xx_HAL_Driver/Src/stm32f4xx_hal_spi.o
                0x0800484e                HAL_SPI_DMAResume
 .text.HAL_SPI_DMAStop
                0x08004874       0x46 ./Drivers/STM32F4xx_HAL_Driver/Src/stm32f4xx_hal_spi.o
                0x08004874                HAL_SPI_DMAStop
 .text.HAL_SPI_TxCpltCallback
                0x080048ba        0x2 ./Drivers/STM32F4xx_HAL_Driver/Src/stm32f4xx_hal_spi.o
                0x080048ba                HAL_SPI_TxCpltCallback
 .text.HAL_SPI_RxCpltCallback
                0x080048bc        0x2 ./Drivers/STM32F4xx_HAL_Driver/Src/stm32f4xx_hal_spi.o
                0x080048bc                HAL_SPI_RxCpltCallback
 .text.HAL_SPI_TxRxCpltCallback
                0x080048be        0x2 ./Drivers/STM32F4xx_HAL_Driver/Src/stm32f4xx_hal_spi.o
                0x080048be                HAL_SPI_TxRxCpltCallback
 .text.HAL_SPI_TxHalfCpltCallback
                0x080048c0        0x2 ./Drivers/STM32F4xx_HAL_Driver/Src/stm32f4xx_hal_spi.o
                0x080048c0                HAL_SPI_TxHalfCpltCallback
 .text.SPI_DMAHalfTransmitCplt
                0x080048c2        0xa ./Drivers/STM32F4xx_HAL_Driver/Src/stm32f4xx_hal_spi.o
 .text.HAL_SPI_RxHalfCpltCallback
                0x080048cc        0x2 ./Drivers/STM32F4xx_HAL_Driver/Src/stm32f4xx_hal_spi.o
                0x080048cc                HAL_SPI_RxHalfCpltCallback
 .text.SPI_DMAHalfReceiveCplt
                0x080048ce        0xa ./Drivers/STM32F4xx_HAL_Driver/Src/stm32f4xx_hal_spi.o
 .text.HAL_SPI_TxRxHalfCpltCallback
                0x080048d8        0x2 ./Drivers/STM32F4xx_HAL_Driver/Src/stm32f4xx_hal_spi.o
                0x080048d8                HAL_SPI_TxRxHalfCpltCallback
 .text.SPI_DMAHalfTransmitReceiveCplt
                0x080048da        0xa ./Drivers/STM32F4xx_HAL_Driver/Src/stm32f4xx_hal_spi.o
 .text.HAL_SPI_ErrorCallback
                0x080048e4        0x2 ./Drivers/STM32F4xx_HAL_Driver/Src/stm32f4xx_hal_spi.o
                0x080048e4                HAL_SPI_ErrorCallback
 *fill*         0x080048e6        0x2 
 .text.SPI_CloseTx_ISR
                0x080048e8       0x90 ./Drivers/STM32F4xx_HAL_Driver/Src/stm32f4xx_hal_spi.o
 .text.SPI_TxISR_8BIT
                0x08004978       0x28 ./Drivers/STM32F4xx_HAL_Driver/Src/stm32f4xx_hal_spi.o
 .text.SPI_TxISR_16BIT
                0x080049a0       0x28 ./Drivers/STM32F4xx_HAL_Driver/Src/stm32f4xx_hal_spi.o
 .text.SPI_CloseRx_ISR
                0x080049c8       0x56 ./Drivers/STM32F4xx_HAL_Driver/Src/stm32f4xx_hal_spi.o
 .text.SPI_RxISR_8BIT
                0x08004a1e       0x28 ./Drivers/STM32F4xx_HAL_Driver/Src/stm32f4xx_hal_spi.o
 .text.SPI_RxISR_16BIT
                0x08004a46       0x28 ./Drivers/STM32F4xx_HAL_Driver/Src/stm32f4xx_hal_spi.o
 *fill*         0x08004a6e        0x2 
 .text.SPI_CloseRxTx_ISR
                0x08004a70       0xb0 ./Drivers/STM32F4xx_HAL_Driver/Src/stm32f4xx_hal_spi.o
 .text.SPI_2linesTxISR_8BIT
                0x08004b20       0x38 ./Drivers/STM32F4xx_HAL_Driver/Src/stm32f4xx_hal_spi.o
 .text.SPI_2linesRxISR_8BIT
                0x08004b58       0x38 ./Drivers/STM32F4xx_HAL_Driver/Src/stm32f4xx_hal_spi.o
 .text.SPI_2linesTxISR_16BIT
                0x08004b90       0x38 ./Drivers/STM32F4xx_HAL_Driver/Src/stm32f4xx_hal_spi.o
 .text.SPI_2linesRxISR_16BIT
                0x08004bc8       0x38 ./Drivers/STM32F4xx_HAL_Driver/Src/stm32f4xx_hal_spi.o
 .text.SPI_DMAError
                0x08004c00       0x22 ./Drivers/STM32F4xx_HAL_Driver/Src/stm32f4xx_hal_spi.o
 .text.SPI_DMATransmitCplt
                0x08004c22       0x70 ./Drivers/STM32F4xx_HAL_Driver/Src/stm32f4xx_hal_spi.o
 .text.SPI_DMAReceiveCplt
                0x08004c92       0x6e ./Drivers/STM32F4xx_HAL_Driver/Src/stm32f4xx_hal_spi.o
 .text.SPI_DMATransmitReceiveCplt
                0x08004d00       0x5c ./Drivers/STM32F4xx_HAL_Driver/Src/stm32f4xx_hal_spi.o
 .text.HAL_SPI_IRQHandler
                0x08004d5c      0x118 ./Drivers/STM32F4xx_HAL_Driver/Src/stm32f4xx_hal_spi.o
                0x08004d5c                HAL_SPI_IRQHandler
 .text.SPI_DMAAbortOnError
                0x08004e74       0x10 ./Drivers/STM32F4xx_HAL_Driver/Src/stm32f4xx_hal_spi.o
 .text.HAL_SPI_AbortCpltCallback
                0x08004e84        0x2 ./Drivers/STM32F4xx_HAL_Driver/Src/stm32f4xx_hal_spi.o
                0x08004e84                HAL_SPI_AbortCpltCallback
 *fill*         0x08004e86        0x2 
 .text.HAL_SPI_Abort_IT
                0x08004e88      0x15c ./Drivers/STM32F4xx_HAL_Driver/Src/stm32f4xx_hal_spi.o
                0x08004e88                HAL_SPI_Abort_IT
 .text.SPI_DMARxAbortCallback
                0x08004fe4       0x78 ./Drivers/STM32F4xx_HAL_Driver/Src/stm32f4xx_hal_spi.o
 .text.SPI_DMATxAbortCallback
                0x0800505c       0x90 ./Drivers/STM32F4xx_HAL_Driver/Src/stm32f4xx_hal_spi.o
 .text.HAL_SPI_GetState
                0x080050ec        0x6 ./Drivers/STM32F4xx_HAL_Driver/Src/stm32f4xx_hal_spi.o
                0x080050ec                HAL_SPI_GetState
 .text.HAL_SPI_GetError
                0x080050f2        0x4 ./Drivers/STM32F4xx_HAL_Driver/Src/stm32f4xx_hal_spi.o
                0x080050f2                HAL_SPI_GetError
 .text.UTILS_GetPLLOutputFrequency
                0x080050f6       0x20 ./Drivers/STM32F4xx_HAL_Driver/Src/stm32f4xx_ll_utils.o
 *fill*         0x08005116        0x2 
 .text.UTILS_PLL_IsBusy
                0x08005118       0x24 ./Drivers/STM32F4xx_HAL_Driver/Src/stm32f4xx_ll_utils.o
 .text.LL_Init1msTick
                0x0800513c       0x20 ./Drivers/STM32F4xx_HAL_Driver/Src/stm32f4xx_ll_utils.o
                0x0800513c                LL_Init1msTick
 .text.LL_mDelay
                0x0800515c       0x2a ./Drivers/STM32F4xx_HAL_Driver/Src/stm32f4xx_ll_utils.o
                0x0800515c                LL_mDelay
 *fill*         0x08005186        0x2 
 .text.LL_SetSystemCoreClock
                0x08005188        0xc ./Drivers/STM32F4xx_HAL_Driver/Src/stm32f4xx_ll_utils.o
                0x08005188                LL_SetSystemCoreClock
 .text.LL_SetFlashLatency
                0x08005194       0xd0 ./Drivers/STM32F4xx_HAL_Driver/Src/stm32f4xx_ll_utils.o
                0x08005194                LL_SetFlashLatency
 .text.UTILS_EnablePLLAndSwitchSystem
                0x08005264       0xac ./Drivers/STM32F4xx_HAL_Driver/Src/stm32f4xx_ll_utils.o
 .text.LL_PLL_ConfigSystemClock_HSI
                0x08005310       0x6c ./Drivers/STM32F4xx_HAL_Driver/Src/stm32f4xx_ll_utils.o
                0x08005310                LL_PLL_ConfigSystemClock_HSI
 .text.LL_PLL_ConfigSystemClock_HSE
                0x0800537c       0x8c ./Drivers/STM32F4xx_HAL_Driver/Src/stm32f4xx_ll_utils.o
                0x0800537c                LL_PLL_ConfigSystemClock_HSE
 .text.MX_GPIO_Init
                0x08005408       0xf8 ./Core/Src/main.o
 .text.init     0x08005500        0xc ./Core/Src/main.o
                0x08005500                init
 .text.loop     0x0800550c      0x280 ./Core/Src/main.o
                0x0800550c                loop
 .text.Error_Handler
                0x0800578c        0x4 ./Core/Src/main.o
                0x0800578c                Error_Handler
 .text.MX_SPI1_Init
                0x08005790       0x40 ./Core/Src/main.o
 .text.SystemClock_Config
                0x080057d0       0xa8 ./Core/Src/main.o
                0x080057d0                SystemClock_Config
 .text.main     0x08005878       0x1c ./Core/Src/main.o
                0x08005878                main
 .text.HAL_MspInit
                0x08005894       0x38 ./Core/Src/stm32f4xx_hal_msp.o
                0x08005894                HAL_MspInit
 .text.HAL_SPI_MspInit
                0x080058cc       0x70 ./Core/Src/stm32f4xx_hal_msp.o
                0x080058cc                HAL_SPI_MspInit
 .text.HAL_SPI_MspDeInit
                0x0800593c       0x2c ./Core/Src/stm32f4xx_hal_msp.o
                0x0800593c                HAL_SPI_MspDeInit
 .text.NMI_Handler
                0x08005968        0x2 ./Core/Src/stm32f4xx_it.o
                0x08005968                NMI_Handler
 .text.HardFault_Handler
                0x0800596a        0x2 ./Core/Src/stm32f4xx_it.o
                0x0800596a                HardFault_Handler
 .text.MemManage_Handler
                0x0800596c        0x2 ./Core/Src/stm32f4xx_it.o
                0x0800596c                MemManage_Handler
 .text.BusFault_Handler
                0x0800596e        0x2 ./Core/Src/stm32f4xx_it.o
                0x0800596e                BusFault_Handler
 .text.UsageFault_Handler
                0x08005970        0x2 ./Core/Src/stm32f4xx_it.o
                0x08005970                UsageFault_Handler
 .text.SVC_Handler
                0x08005972        0x2 ./Core/Src/stm32f4xx_it.o
                0x08005972                SVC_Handler
 .text.DebugMon_Handler
                0x08005974        0x2 ./Core/Src/stm32f4xx_it.o
                0x08005974                DebugMon_Handler
 .text.PendSV_Handler
                0x08005976        0x2 ./Core/Src/stm32f4xx_it.o
                0x08005976                PendSV_Handler
 .text.SysTick_Handler
                0x08005978        0x8 ./Core/Src/stm32f4xx_it.o
                0x08005978                SysTick_Handler
 .text.SystemInit
                0x08005980       0x14 ./Core/Src/system_stm32f4xx.o
                0x08005980                SystemInit
 .text.SystemCoreClockUpdate
                0x08005994       0xa0 ./Core/Src/system_stm32f4xx.o
                0x08005994                SystemCoreClockUpdate
 .text.__udivmoddi4
                0x08005a34      0x2bc e:/programms/gnu mcu eclipse/toolchain/arm-gnu-toolchain-12.2.mpacbti-bet1-mingw-w64-i686-arm-none-eabi/bin/../lib/gcc/arm-none-eabi/12.2.0/thumb/v7e-m+fp/hard\libgcc.a(_udivmoddi4.o)
                0x08005a34                __udivmoddi4
 .text.memset   0x08005cf0       0x10 e:/programms/gnu mcu eclipse/toolchain/arm-gnu-toolchain-12.2.mpacbti-bet1-mingw-w64-i686-arm-none-eabi/bin/../lib/gcc/arm-none-eabi/12.2.0/thumb/v7e-m+fp/hard\libg_nano.a(libc_a-memset.o)
                0x08005cf0                memset
 *(.glue_7)
 .glue_7        0x08005d00        0x0 linker stubs
 *(.glue_7t)
 .glue_7t       0x08005d00        0x0 linker stubs
 *(.eh_frame)
 *(.init)
 *(.fini)
                0x08005d00                        . = ALIGN (0x4)
                0x08005d00                        _etext = .

.vfp11_veneer   0x08005d00        0x0
 .vfp11_veneer  0x08005d00        0x0 linker stubs

.v4_bx          0x08005d00        0x0
 .v4_bx         0x08005d00        0x0 linker stubs

.iplt           0x08005d00        0x0
 .iplt          0x08005d00        0x0 ./Lib/ili9341/fonts.o

.rodata         0x08005d00    0x1eb44
                0x08005d00                        . = ALIGN (0x4)
 *(.rodata)
 .rodata        0x08005d00       0x1f ./Lib/ili9341/ili9341.o
 *(.rodata*)
 *fill*         0x08005d1f        0x1 
 .rodata.Font16x26
                0x08005d20     0x134c ./Lib/ili9341/fonts.o
 .rodata.Font11x18
                0x0800706c      0xd5c ./Lib/ili9341/fonts.o
 .rodata.Font7x10
                0x08007dc8      0x76c ./Lib/ili9341/fonts.o
 .rodata.ILI9341_Init.str1.4
                0x08008534       0x13 ./Lib/ili9341/ili9341.o
 *fill*         0x08008547        0x1 
 .rodata.cmd_read_x.0
                0x08008548        0x1 ./Lib/ili9341/ili9341_touch.o
 *fill*         0x08008549        0x3 
 .rodata.zeroes_tx.1
                0x0800854c        0x2 ./Lib/ili9341/ili9341_touch.o
 *fill*         0x0800854e        0x2 
 .rodata.cmd_read_y.2
                0x08008550        0x1 ./Lib/ili9341/ili9341_touch.o
 *fill*         0x08008551        0x3 
 .rodata.flagBitshiftOffset.0
                0x08008554        0x8 ./Drivers/STM32F4xx_HAL_Driver/Src/stm32f4xx_hal_dma.o
 .rodata.loop.str1.4
                0x0800855c       0xce ./Core/Src/main.o
 *fill*         0x0800862a        0x2 
 .rodata.test_img_240x240
                0x0800862c    0x1c200 ./Core/Src/main.o
                0x0800862c                test_img_240x240
 .rodata.APBPrescTable
                0x0802482c        0x8 ./Core/Src/system_stm32f4xx.o
                0x0802482c                APBPrescTable
 .rodata.AHBPrescTable
                0x08024834       0x10 ./Core/Src/system_stm32f4xx.o
                0x08024834                AHBPrescTable
                0x08024844                        . = ALIGN (0x4)

.ARM.extab      0x08024844        0x0
 *(.ARM.extab* .gnu.linkonce.armextab.*)
 .ARM.extab.text.__udivmoddi4
                0x08024844        0x0 e:/programms/gnu mcu eclipse/toolchain/arm-gnu-toolchain-12.2.mpacbti-bet1-mingw-w64-i686-arm-none-eabi/bin/../lib/gcc/arm-none-eabi/12.2.0/thumb/v7e-m+fp/hard\libgcc.a(_udivmoddi4.o)

.ARM            0x08024844        0x8
                0x08024844                        __exidx_start = .
 *(.ARM.exidx*)
 .ARM.exidx.text.__udivmoddi4
                0x08024844        0x8 e:/programms/gnu mcu eclipse/toolchain/arm-gnu-toolchain-12.2.mpacbti-bet1-mingw-w64-i686-arm-none-eabi/bin/../lib/gcc/arm-none-eabi/12.2.0/thumb/v7e-m+fp/hard\libgcc.a(_udivmoddi4.o)
                0x0802484c                        __exidx_end = .

.rel.dyn        0x0802484c        0x0
 .rel.iplt      0x0802484c        0x0 ./Lib/ili9341/fonts.o

.preinit_array  0x0802484c        0x0
                [!provide]                        PROVIDE (__preinit_array_start = .)
 *(.preinit_array*)
                [!provide]                        PROVIDE (__preinit_array_end = .)

.init_array     0x0802484c        0x0
                [!provide]                        PROVIDE (__init_array_start = .)
 *(SORT_BY_NAME(.init_array.*))
 *(.init_array*)
                [!provide]                        PROVIDE (__init_array_end = .)

.fini_array     0x0802484c        0x0
                [!provide]                        PROVIDE (__fini_array_start = .)
 *(SORT_BY_NAME(.fini_array.*))
 *(.fini_array*)
                [!provide]                        PROVIDE (__fini_array_end = .)
                0x0802484c                        _sidata = LOADADDR (.data)

.data           0x20000000       0x24 load address 0x0802484c
                0x20000000                        . = ALIGN (0x4)
                0x20000000                        _sdata = .
 *(.data)
 .data          0x20000000        0x0 ./Lib/ili9341/fonts.o
 .data          0x20000000        0x0 ./Lib/ili9341/ili9341.o
 .data          0x20000000        0x0 ./Lib/ili9341/ili9341_touch.o
 .data          0x20000000        0x0 ./Drivers/STM32F4xx_HAL_Driver/Src/stm32f4xx_hal.o
 .data          0x20000000        0x0 ./Drivers/STM32F4xx_HAL_Driver/Src/stm32f4xx_hal_adc.o
 .data          0x20000000        0x0 ./Drivers/STM32F4xx_HAL_Driver/Src/stm32f4xx_hal_adc_ex.o
 .data          0x20000000        0x0 ./Drivers/STM32F4xx_HAL_Driver/Src/stm32f4xx_hal_can.o
 .data          0x20000000        0x0 ./Drivers/STM32F4xx_HAL_Driver/Src/stm32f4xx_hal_cortex.o
 .data          0x20000000        0x0 ./Drivers/STM32F4xx_HAL_Driver/Src/stm32f4xx_hal_dac.o
 .data          0x20000000        0x0 ./Drivers/STM32F4xx_HAL_Driver/Src/stm32f4xx_hal_dac_ex.o
 .data          0x20000000        0x0 ./Drivers/STM32F4xx_HAL_Driver/Src/stm32f4xx_hal_dcmi.o
 .data          0x20000000        0x0 ./Drivers/STM32F4xx_HAL_Driver/Src/stm32f4xx_hal_dcmi_ex.o
 .data          0x20000000        0x0 ./Drivers/STM32F4xx_HAL_Driver/Src/stm32f4xx_hal_dfsdm.o
 .data          0x20000000        0x0 ./Drivers/STM32F4xx_HAL_Driver/Src/stm32f4xx_hal_dma.o
 .data          0x20000000        0x0 ./Drivers/STM32F4xx_HAL_Driver/Src/stm32f4xx_hal_dma2d.o
 .data          0x20000000        0x0 ./Drivers/STM32F4xx_HAL_Driver/Src/stm32f4xx_hal_dma_ex.o
 .data          0x20000000        0x0 ./Drivers/STM32F4xx_HAL_Driver/Src/stm32f4xx_hal_exti.o
 .data          0x20000000        0x0 ./Drivers/STM32F4xx_HAL_Driver/Src/stm32f4xx_hal_gpio.o
 .data          0x20000000        0x0 ./Drivers/STM32F4xx_HAL_Driver/Src/stm32f4xx_hal_hash.o
 .data          0x20000000        0x0 ./Drivers/STM32F4xx_HAL_Driver/Src/stm32f4xx_hal_hash_ex.o
 .data          0x20000000        0x0 ./Drivers/STM32F4xx_HAL_Driver/Src/stm32f4xx_hal_iwdg.o
 .data          0x20000000        0x0 ./Drivers/STM32F4xx_HAL_Driver/Src/stm32f4xx_hal_mmc.o
 .data          0x20000000        0x0 ./Drivers/STM32F4xx_HAL_Driver/Src/stm32f4xx_hal_nand.o
 .data          0x20000000        0x0 ./Drivers/STM32F4xx_HAL_Driver/Src/stm32f4xx_hal_nor.o
 .data          0x20000000        0x0 ./Drivers/STM32F4xx_HAL_Driver/Src/stm32f4xx_hal_pcd.o
 .data          0x20000000        0x0 ./Drivers/STM32F4xx_HAL_Driver/Src/stm32f4xx_hal_pcd_ex.o
 .data          0x20000000        0x0 ./Drivers/STM32F4xx_HAL_Driver/Src/stm32f4xx_hal_pwr.o
 .data          0x20000000        0x0 ./Drivers/STM32F4xx_HAL_Driver/Src/stm32f4xx_hal_pwr_ex.o
 .data          0x20000000        0x0 ./Drivers/STM32F4xx_HAL_Driver/Src/stm32f4xx_hal_rcc.o
 .data          0x20000000        0x0 ./Drivers/STM32F4xx_HAL_Driver/Src/stm32f4xx_hal_rcc_ex.o
 .data          0x20000000        0x0 ./Drivers/STM32F4xx_HAL_Driver/Src/stm32f4xx_hal_rng.o
 .data          0x20000000        0x0 ./Drivers/STM32F4xx_HAL_Driver/Src/stm32f4xx_hal_rtc.o
 .data          0x20000000        0x0 ./Drivers/STM32F4xx_HAL_Driver/Src/stm32f4xx_hal_rtc_ex.o
 .data          0x20000000        0x0 ./Drivers/STM32F4xx_HAL_Driver/Src/stm32f4xx_hal_sai.o
 .data          0x20000000        0x0 ./Drivers/STM32F4xx_HAL_Driver/Src/stm32f4xx_hal_sd.o
 .data          0x20000000        0x0 ./Drivers/STM32F4xx_HAL_Driver/Src/stm32f4xx_hal_sdram.o
 .data          0x20000000        0x0 ./Drivers/STM32F4xx_HAL_Driver/Src/stm32f4xx_hal_smartcard.o
 .data          0x20000000        0x0 ./Drivers/STM32F4xx_HAL_Driver/Src/stm32f4xx_hal_smbus.o
 .data          0x20000000        0x0 ./Drivers/STM32F4xx_HAL_Driver/Src/stm32f4xx_hal_spdifrx.o
 .data          0x20000000        0x0 ./Drivers/STM32F4xx_HAL_Driver/Src/stm32f4xx_hal_spi.o
 .data          0x20000000        0x0 ./Drivers/STM32F4xx_HAL_Driver/Src/stm32f4xx_hal_sram.o
 .data          0x20000000        0x0 ./Drivers/STM32F4xx_HAL_Driver/Src/stm32f4xx_hal_tim.o
 .data          0x20000000        0x0 ./Drivers/STM32F4xx_HAL_Driver/Src/stm32f4xx_hal_tim_ex.o
 .data          0x20000000        0x0 ./Drivers/STM32F4xx_HAL_Driver/Src/stm32f4xx_hal_uart.o
 .data          0x20000000        0x0 ./Drivers/STM32F4xx_HAL_Driver/Src/stm32f4xx_hal_usart.o
 .data          0x20000000        0x0 ./Drivers/STM32F4xx_HAL_Driver/Src/stm32f4xx_hal_wwdg.o
 .data          0x20000000        0x0 ./Drivers/STM32F4xx_HAL_Driver/Src/stm32f4xx_ll_adc.o
 .data          0x20000000        0x0 ./Drivers/STM32F4xx_HAL_Driver/Src/stm32f4xx_ll_crc.o
 .data          0x20000000        0x0 ./Drivers/STM32F4xx_HAL_Driver/Src/stm32f4xx_ll_dac.o
 .data          0x20000000        0x0 ./Drivers/STM32F4xx_HAL_Driver/Src/stm32f4xx_ll_dma.o
 .data          0x20000000        0x0 ./Drivers/STM32F4xx_HAL_Driver/Src/stm32f4xx_ll_dma2d.o
 .data          0x20000000        0x0 ./Drivers/STM32F4xx_HAL_Driver/Src/stm32f4xx_ll_exti.o
 .data          0x20000000        0x0 ./Drivers/STM32F4xx_HAL_Driver/Src/stm32f4xx_ll_fmc.o
 .data          0x20000000        0x0 ./Drivers/STM32F4xx_HAL_Driver/Src/stm32f4xx_ll_fmpi2c.o
 .data          0x20000000        0x0 ./Drivers/STM32F4xx_HAL_Driver/Src/stm32f4xx_ll_fsmc.o
 .data          0x20000000        0x0 ./Drivers/STM32F4xx_HAL_Driver/Src/stm32f4xx_ll_gpio.o
 .data          0x20000000        0x0 ./Drivers/STM32F4xx_HAL_Driver/Src/stm32f4xx_ll_i2c.o
 .data          0x20000000        0x0 ./Drivers/STM32F4xx_HAL_Driver/Src/stm32f4xx_ll_lptim.o
 .data          0x20000000        0x0 ./Drivers/STM32F4xx_HAL_Driver/Src/stm32f4xx_ll_pwr.o
 .data          0x20000000        0x0 ./Drivers/STM32F4xx_HAL_Driver/Src/stm32f4xx_ll_rcc.o
 .data          0x20000000        0x0 ./Drivers/STM32F4xx_HAL_Driver/Src/stm32f4xx_ll_rng.o
 .data          0x20000000        0x0 ./Drivers/STM32F4xx_HAL_Driver/Src/stm32f4xx_ll_rtc.o
 .data          0x20000000        0x0 ./Drivers/STM32F4xx_HAL_Driver/Src/stm32f4xx_ll_sdmmc.o
 .data          0x20000000        0x0 ./Drivers/STM32F4xx_HAL_Driver/Src/stm32f4xx_ll_spi.o
 .data          0x20000000        0x0 ./Drivers/STM32F4xx_HAL_Driver/Src/stm32f4xx_ll_tim.o
 .data          0x20000000        0x0 ./Drivers/STM32F4xx_HAL_Driver/Src/stm32f4xx_ll_usart.o
 .data          0x20000000        0x0 ./Drivers/STM32F4xx_HAL_Driver/Src/stm32f4xx_ll_usb.o
 .data          0x20000000        0x0 ./Drivers/STM32F4xx_HAL_Driver/Src/stm32f4xx_ll_utils.o
 .data          0x20000000        0x0 ./Core/Src/main.o
 .data          0x20000000        0x0 ./Core/Src/stm32f4xx_hal_msp.o
 .data          0x20000000        0x0 ./Core/Src/stm32f4xx_it.o
 .data          0x20000000        0x0 ./Core/Src/system_stm32f4xx.o
 .data          0x20000000        0x0 e:/programms/gnu mcu eclipse/toolchain/arm-gnu-toolchain-12.2.mpacbti-bet1-mingw-w64-i686-arm-none-eabi/bin/../lib/gcc/arm-none-eabi/12.2.0/thumb/v7e-m+fp/hard\libgcc.a(_aeabi_uldivmod.o)
 .data          0x20000000        0x0 e:/programms/gnu mcu eclipse/toolchain/arm-gnu-toolchain-12.2.mpacbti-bet1-mingw-w64-i686-arm-none-eabi/bin/../lib/gcc/arm-none-eabi/12.2.0/thumb/v7e-m+fp/hard\libgcc.a(_udivmoddi4.o)
 .data          0x20000000        0x0 e:/programms/gnu mcu eclipse/toolchain/arm-gnu-toolchain-12.2.mpacbti-bet1-mingw-w64-i686-arm-none-eabi/bin/../lib/gcc/arm-none-eabi/12.2.0/thumb/v7e-m+fp/hard\libgcc.a(_dvmd_tls.o)
 .data          0x20000000        0x0 e:/programms/gnu mcu eclipse/toolchain/arm-gnu-toolchain-12.2.mpacbti-bet1-mingw-w64-i686-arm-none-eabi/bin/../lib/gcc/arm-none-eabi/12.2.0/thumb/v7e-m+fp/hard\libg_nano.a(libc_a-memset.o)
 *(.data*)
 .data.Font_16x26
                0x20000000        0x8 ./Lib/ili9341/fonts.o
                0x20000000                Font_16x26
 .data.Font_11x18
                0x20000008        0x8 ./Lib/ili9341/fonts.o
                0x20000008                Font_11x18
 .data.Font_7x10
                0x20000010        0x8 ./Lib/ili9341/fonts.o
                0x20000010                Font_7x10
 .data.uwTickFreq
                0x20000018        0x1 ./Drivers/STM32F4xx_HAL_Driver/Src/stm32f4xx_hal.o
                0x20000018                uwTickFreq
 *fill*         0x20000019        0x3 
 .data.uwTickPrio
                0x2000001c        0x4 ./Drivers/STM32F4xx_HAL_Driver/Src/stm32f4xx_hal.o
                0x2000001c                uwTickPrio
 .data.SystemCoreClock
                0x20000020        0x4 ./Core/Src/system_stm32f4xx.o
                0x20000020                SystemCoreClock
                0x20000024                        . = ALIGN (0x4)
                0x20000024                        _edata = .
                0x08024870                        _siccmram = LOADADDR (.ccmram)

.igot.plt       0x20000024        0x0 load address 0x08024870
 .igot.plt      0x20000024        0x0 ./Lib/ili9341/fonts.o

.ccmram         0x10000000        0x0 load address 0x08024870
                0x10000000                        . = ALIGN (0x4)
                0x10000000                        _sccmram = .
 *(.ccmram)
 *(.ccmram*)
                0x10000000                        . = ALIGN (0x4)
                0x10000000                        _eccmram = .
                0x10000000                        . = ALIGN (0x4)

.bss            0x20000024       0x5c
                0x20000024                        _sbss = .
                0x20000024                        __bss_start__ = _sbss
 *(.bss)
 .bss           0x20000024        0x0 ./Lib/ili9341/fonts.o
 .bss           0x20000024        0x0 ./Lib/ili9341/ili9341.o
 .bss           0x20000024        0x0 ./Lib/ili9341/ili9341_touch.o
 .bss           0x20000024        0x0 ./Drivers/STM32F4xx_HAL_Driver/Src/stm32f4xx_hal.o
 .bss           0x20000024        0x0 ./Drivers/STM32F4xx_HAL_Driver/Src/stm32f4xx_hal_adc.o
 .bss           0x20000024        0x0 ./Drivers/STM32F4xx_HAL_Driver/Src/stm32f4xx_hal_adc_ex.o
 .bss           0x20000024        0x0 ./Drivers/STM32F4xx_HAL_Driver/Src/stm32f4xx_hal_can.o
 .bss           0x20000024        0x0 ./Drivers/STM32F4xx_HAL_Driver/Src/stm32f4xx_hal_cortex.o
 .bss           0x20000024        0x0 ./Drivers/STM32F4xx_HAL_Driver/Src/stm32f4xx_hal_dac.o
 .bss           0x20000024        0x0 ./Drivers/STM32F4xx_HAL_Driver/Src/stm32f4xx_hal_dac_ex.o
 .bss           0x20000024        0x0 ./Drivers/STM32F4xx_HAL_Driver/Src/stm32f4xx_hal_dcmi.o
 .bss           0x20000024        0x0 ./Drivers/STM32F4xx_HAL_Driver/Src/stm32f4xx_hal_dcmi_ex.o
 .bss           0x20000024        0x0 ./Drivers/STM32F4xx_HAL_Driver/Src/stm32f4xx_hal_dfsdm.o
 .bss           0x20000024        0x0 ./Drivers/STM32F4xx_HAL_Driver/Src/stm32f4xx_hal_dma.o
 .bss           0x20000024        0x0 ./Drivers/STM32F4xx_HAL_Driver/Src/stm32f4xx_hal_dma2d.o
 .bss           0x20000024        0x0 ./Drivers/STM32F4xx_HAL_Driver/Src/stm32f4xx_hal_dma_ex.o
 .bss           0x20000024        0x0 ./Drivers/STM32F4xx_HAL_Driver/Src/stm32f4xx_hal_exti.o
 .bss           0x20000024        0x0 ./Drivers/STM32F4xx_HAL_Driver/Src/stm32f4xx_hal_gpio.o
 .bss           0x20000024        0x0 ./Drivers/STM32F4xx_HAL_Driver/Src/stm32f4xx_hal_hash.o
 .bss           0x20000024        0x0 ./Drivers/STM32F4xx_HAL_Driver/Src/stm32f4xx_hal_hash_ex.o
 .bss           0x20000024        0x0 ./Drivers/STM32F4xx_HAL_Driver/Src/stm32f4xx_hal_iwdg.o
 .bss           0x20000024        0x0 ./Drivers/STM32F4xx_HAL_Driver/Src/stm32f4xx_hal_mmc.o
 .bss           0x20000024        0x0 ./Drivers/STM32F4xx_HAL_Driver/Src/stm32f4xx_hal_nand.o
 .bss           0x20000024        0x0 ./Drivers/STM32F4xx_HAL_Driver/Src/stm32f4xx_hal_nor.o
 .bss           0x20000024        0x0 ./Drivers/STM32F4xx_HAL_Driver/Src/stm32f4xx_hal_pcd.o
 .bss           0x20000024        0x0 ./Drivers/STM32F4xx_HAL_Driver/Src/stm32f4xx_hal_pcd_ex.o
 .bss           0x20000024        0x0 ./Drivers/STM32F4xx_HAL_Driver/Src/stm32f4xx_hal_pwr.o
 .bss           0x20000024        0x0 ./Drivers/STM32F4xx_HAL_Driver/Src/stm32f4xx_hal_pwr_ex.o
 .bss           0x20000024        0x0 ./Drivers/STM32F4xx_HAL_Driver/Src/stm32f4xx_hal_rcc.o
 .bss           0x20000024        0x0 ./Drivers/STM32F4xx_HAL_Driver/Src/stm32f4xx_hal_rcc_ex.o
 .bss           0x20000024        0x0 ./Drivers/STM32F4xx_HAL_Driver/Src/stm32f4xx_hal_rng.o
 .bss           0x20000024        0x0 ./Drivers/STM32F4xx_HAL_Driver/Src/stm32f4xx_hal_rtc.o
 .bss           0x20000024        0x0 ./Drivers/STM32F4xx_HAL_Driver/Src/stm32f4xx_hal_rtc_ex.o
 .bss           0x20000024        0x0 ./Drivers/STM32F4xx_HAL_Driver/Src/stm32f4xx_hal_sai.o
 .bss           0x20000024        0x0 ./Drivers/STM32F4xx_HAL_Driver/Src/stm32f4xx_hal_sd.o
 .bss           0x20000024        0x0 ./Drivers/STM32F4xx_HAL_Driver/Src/stm32f4xx_hal_sdram.o
 .bss           0x20000024        0x0 ./Drivers/STM32F4xx_HAL_Driver/Src/stm32f4xx_hal_smartcard.o
 .bss           0x20000024        0x0 ./Drivers/STM32F4xx_HAL_Driver/Src/stm32f4xx_hal_smbus.o
 .bss           0x20000024        0x0 ./Drivers/STM32F4xx_HAL_Driver/Src/stm32f4xx_hal_spdifrx.o
 .bss           0x20000024        0x0 ./Drivers/STM32F4xx_HAL_Driver/Src/stm32f4xx_hal_spi.o
 .bss           0x20000024        0x0 ./Drivers/STM32F4xx_HAL_Driver/Src/stm32f4xx_hal_sram.o
 .bss           0x20000024        0x0 ./Drivers/STM32F4xx_HAL_Driver/Src/stm32f4xx_hal_tim.o
 .bss           0x20000024        0x0 ./Drivers/STM32F4xx_HAL_Driver/Src/stm32f4xx_hal_tim_ex.o
 .bss           0x20000024        0x0 ./Drivers/STM32F4xx_HAL_Driver/Src/stm32f4xx_hal_uart.o
 .bss           0x20000024        0x0 ./Drivers/STM32F4xx_HAL_Driver/Src/stm32f4xx_hal_usart.o
 .bss           0x20000024        0x0 ./Drivers/STM32F4xx_HAL_Driver/Src/stm32f4xx_hal_wwdg.o
 .bss           0x20000024        0x0 ./Drivers/STM32F4xx_HAL_Driver/Src/stm32f4xx_ll_adc.o
 .bss           0x20000024        0x0 ./Drivers/STM32F4xx_HAL_Driver/Src/stm32f4xx_ll_crc.o
 .bss           0x20000024        0x0 ./Drivers/STM32F4xx_HAL_Driver/Src/stm32f4xx_ll_dac.o
 .bss           0x20000024        0x0 ./Drivers/STM32F4xx_HAL_Driver/Src/stm32f4xx_ll_dma.o
 .bss           0x20000024        0x0 ./Drivers/STM32F4xx_HAL_Driver/Src/stm32f4xx_ll_dma2d.o
 .bss           0x20000024        0x0 ./Drivers/STM32F4xx_HAL_Driver/Src/stm32f4xx_ll_exti.o
 .bss           0x20000024        0x0 ./Drivers/STM32F4xx_HAL_Driver/Src/stm32f4xx_ll_fmc.o
 .bss           0x20000024        0x0 ./Drivers/STM32F4xx_HAL_Driver/Src/stm32f4xx_ll_fmpi2c.o
 .bss           0x20000024        0x0 ./Drivers/STM32F4xx_HAL_Driver/Src/stm32f4xx_ll_fsmc.o
 .bss           0x20000024        0x0 ./Drivers/STM32F4xx_HAL_Driver/Src/stm32f4xx_ll_gpio.o
 .bss           0x20000024        0x0 ./Drivers/STM32F4xx_HAL_Driver/Src/stm32f4xx_ll_i2c.o
 .bss           0x20000024        0x0 ./Drivers/STM32F4xx_HAL_Driver/Src/stm32f4xx_ll_lptim.o
 .bss           0x20000024        0x0 ./Drivers/STM32F4xx_HAL_Driver/Src/stm32f4xx_ll_pwr.o
 .bss           0x20000024        0x0 ./Drivers/STM32F4xx_HAL_Driver/Src/stm32f4xx_ll_rcc.o
 .bss           0x20000024        0x0 ./Drivers/STM32F4xx_HAL_Driver/Src/stm32f4xx_ll_rng.o
 .bss           0x20000024        0x0 ./Drivers/STM32F4xx_HAL_Driver/Src/stm32f4xx_ll_rtc.o
 .bss           0x20000024        0x0 ./Drivers/STM32F4xx_HAL_Driver/Src/stm32f4xx_ll_sdmmc.o
 .bss           0x20000024        0x0 ./Drivers/STM32F4xx_HAL_Driver/Src/stm32f4xx_ll_spi.o
 .bss           0x20000024        0x0 ./Drivers/STM32F4xx_HAL_Driver/Src/stm32f4xx_ll_tim.o
 .bss           0x20000024        0x0 ./Drivers/STM32F4xx_HAL_Driver/Src/stm32f4xx_ll_usart.o
 .bss           0x20000024        0x0 ./Drivers/STM32F4xx_HAL_Driver/Src/stm32f4xx_ll_usb.o
 .bss           0x20000024        0x0 ./Drivers/STM32F4xx_HAL_Driver/Src/stm32f4xx_ll_utils.o
 .bss           0x20000024        0x0 ./Core/Src/main.o
 .bss           0x20000024        0x0 ./Core/Src/stm32f4xx_hal_msp.o
 .bss           0x20000024        0x0 ./Core/Src/stm32f4xx_it.o
 .bss           0x20000024        0x0 ./Core/Src/system_stm32f4xx.o
 .bss           0x20000024        0x0 e:/programms/gnu mcu eclipse/toolchain/arm-gnu-toolchain-12.2.mpacbti-bet1-mingw-w64-i686-arm-none-eabi/bin/../lib/gcc/arm-none-eabi/12.2.0/thumb/v7e-m+fp/hard\libgcc.a(_aeabi_uldivmod.o)
 .bss           0x20000024        0x0 e:/programms/gnu mcu eclipse/toolchain/arm-gnu-toolchain-12.2.mpacbti-bet1-mingw-w64-i686-arm-none-eabi/bin/../lib/gcc/arm-none-eabi/12.2.0/thumb/v7e-m+fp/hard\libgcc.a(_udivmoddi4.o)
 .bss           0x20000024        0x0 e:/programms/gnu mcu eclipse/toolchain/arm-gnu-toolchain-12.2.mpacbti-bet1-mingw-w64-i686-arm-none-eabi/bin/../lib/gcc/arm-none-eabi/12.2.0/thumb/v7e-m+fp/hard\libgcc.a(_dvmd_tls.o)
 .bss           0x20000024        0x0 e:/programms/gnu mcu eclipse/toolchain/arm-gnu-toolchain-12.2.mpacbti-bet1-mingw-w64-i686-arm-none-eabi/bin/../lib/gcc/arm-none-eabi/12.2.0/thumb/v7e-m+fp/hard\libg_nano.a(libc_a-memset.o)
 *(.bss*)
 .bss.uwTick    0x20000024        0x4 ./Drivers/STM32F4xx_HAL_Driver/Src/stm32f4xx_hal.o
                0x20000024                uwTick
 .bss.hspi1     0x20000028       0x58 ./Core/Src/main.o
                0x20000028                hspi1
 *(COMMON)
                0x20000080                        . = ALIGN (0x4)
                0x20000080                        _ebss = .
                0x20000080                        __bss_end__ = _ebss

._user_heap_stack
                0x20000080      0x600
                0x20000080                        . = ALIGN (0x8)
                [!provide]                        PROVIDE (end = .)
                [!provide]                        PROVIDE (_end = .)
                0x20000280                        . = (. + _Min_Heap_Size)
 *fill*         0x20000080      0x200 
                0x20000680                        . = (. + _Min_Stack_Size)
 *fill*         0x20000280      0x400 
                0x20000680                        . = ALIGN (0x8)

/DISCARD/
 libc.a(*)
 libm.a(*)
 libgcc.a(*)

.ARM.attributes
                0x00000000       0x34
 *(.ARM.attributes)
 .ARM.attributes
                0x00000000       0x34 ./Lib/ili9341/fonts.o
 .ARM.attributes
                0x00000034       0x34 ./Lib/ili9341/ili9341.o
 .ARM.attributes
                0x00000068       0x34 ./Lib/ili9341/ili9341_touch.o
 .ARM.attributes
                0x0000009c       0x34 ./Drivers/STM32F4xx_HAL_Driver/Src/stm32f4xx_hal.o
 .ARM.attributes
                0x000000d0       0x34 ./Drivers/STM32F4xx_HAL_Driver/Src/stm32f4xx_hal_adc.o
 .ARM.attributes
                0x00000104       0x34 ./Drivers/STM32F4xx_HAL_Driver/Src/stm32f4xx_hal_adc_ex.o
 .ARM.attributes
                0x00000138       0x34 ./Drivers/STM32F4xx_HAL_Driver/Src/stm32f4xx_hal_can.o
 .ARM.attributes
                0x0000016c       0x34 ./Drivers/STM32F4xx_HAL_Driver/Src/stm32f4xx_hal_cortex.o
 .ARM.attributes
                0x000001a0       0x34 ./Drivers/STM32F4xx_HAL_Driver/Src/stm32f4xx_hal_dac.o
 .ARM.attributes
                0x000001d4       0x34 ./Drivers/STM32F4xx_HAL_Driver/Src/stm32f4xx_hal_dac_ex.o
 .ARM.attributes
                0x00000208       0x34 ./Drivers/STM32F4xx_HAL_Driver/Src/stm32f4xx_hal_dcmi.o
 .ARM.attributes
                0x0000023c       0x34 ./Drivers/STM32F4xx_HAL_Driver/Src/stm32f4xx_hal_dcmi_ex.o
 .ARM.attributes
                0x00000270       0x34 ./Drivers/STM32F4xx_HAL_Driver/Src/stm32f4xx_hal_dfsdm.o
 .ARM.attributes
                0x000002a4       0x34 ./Drivers/STM32F4xx_HAL_Driver/Src/stm32f4xx_hal_dma.o
 .ARM.attributes
                0x000002d8       0x34 ./Drivers/STM32F4xx_HAL_Driver/Src/stm32f4xx_hal_dma2d.o
 .ARM.attributes
                0x0000030c       0x34 ./Drivers/STM32F4xx_HAL_Driver/Src/stm32f4xx_hal_dma_ex.o
 .ARM.attributes
                0x00000340       0x34 ./Drivers/STM32F4xx_HAL_Driver/Src/stm32f4xx_hal_exti.o
 .ARM.attributes
                0x00000374       0x34 ./Drivers/STM32F4xx_HAL_Driver/Src/stm32f4xx_hal_gpio.o
 .ARM.attributes
                0x000003a8       0x34 ./Drivers/STM32F4xx_HAL_Driver/Src/stm32f4xx_hal_hash.o
 .ARM.attributes
                0x000003dc       0x34 ./Drivers/STM32F4xx_HAL_Driver/Src/stm32f4xx_hal_hash_ex.o
 .ARM.attributes
                0x00000410       0x34 ./Drivers/STM32F4xx_HAL_Driver/Src/stm32f4xx_hal_iwdg.o
 .ARM.attributes
                0x00000444       0x34 ./Drivers/STM32F4xx_HAL_Driver/Src/stm32f4xx_hal_mmc.o
 .ARM.attributes
                0x00000478       0x34 ./Drivers/STM32F4xx_HAL_Driver/Src/stm32f4xx_hal_nand.o
 .ARM.attributes
                0x000004ac       0x34 ./Drivers/STM32F4xx_HAL_Driver/Src/stm32f4xx_hal_nor.o
 .ARM.attributes
                0x000004e0       0x34 ./Drivers/STM32F4xx_HAL_Driver/Src/stm32f4xx_hal_pcd.o
 .ARM.attributes
                0x00000514       0x34 ./Drivers/STM32F4xx_HAL_Driver/Src/stm32f4xx_hal_pcd_ex.o
 .ARM.attributes
                0x00000548       0x34 ./Drivers/STM32F4xx_HAL_Driver/Src/stm32f4xx_hal_pwr.o
 .ARM.attributes
                0x0000057c       0x34 ./Drivers/STM32F4xx_HAL_Driver/Src/stm32f4xx_hal_pwr_ex.o
 .ARM.attributes
                0x000005b0       0x34 ./Drivers/STM32F4xx_HAL_Driver/Src/stm32f4xx_hal_rcc.o
 .ARM.attributes
                0x000005e4       0x34 ./Drivers/STM32F4xx_HAL_Driver/Src/stm32f4xx_hal_rcc_ex.o
 .ARM.attributes
                0x00000618       0x34 ./Drivers/STM32F4xx_HAL_Driver/Src/stm32f4xx_hal_rng.o
 .ARM.attributes
                0x0000064c       0x34 ./Drivers/STM32F4xx_HAL_Driver/Src/stm32f4xx_hal_rtc.o
 .ARM.attributes
                0x00000680       0x34 ./Drivers/STM32F4xx_HAL_Driver/Src/stm32f4xx_hal_rtc_ex.o
 .ARM.attributes
                0x000006b4       0x34 ./Drivers/STM32F4xx_HAL_Driver/Src/stm32f4xx_hal_sai.o
 .ARM.attributes
                0x000006e8       0x34 ./Drivers/STM32F4xx_HAL_Driver/Src/stm32f4xx_hal_sd.o
 .ARM.attributes
                0x0000071c       0x34 ./Drivers/STM32F4xx_HAL_Driver/Src/stm32f4xx_hal_sdram.o
 .ARM.attributes
                0x00000750       0x34 ./Drivers/STM32F4xx_HAL_Driver/Src/stm32f4xx_hal_smartcard.o
 .ARM.attributes
                0x00000784       0x34 ./Drivers/STM32F4xx_HAL_Driver/Src/stm32f4xx_hal_smbus.o
 .ARM.attributes
                0x000007b8       0x34 ./Drivers/STM32F4xx_HAL_Driver/Src/stm32f4xx_hal_spdifrx.o
 .ARM.attributes
                0x000007ec       0x34 ./Drivers/STM32F4xx_HAL_Driver/Src/stm32f4xx_hal_spi.o
 .ARM.attributes
                0x00000820       0x34 ./Drivers/STM32F4xx_HAL_Driver/Src/stm32f4xx_hal_sram.o
 .ARM.attributes
                0x00000854       0x34 ./Drivers/STM32F4xx_HAL_Driver/Src/stm32f4xx_hal_tim.o
 .ARM.attributes
                0x00000888       0x34 ./Drivers/STM32F4xx_HAL_Driver/Src/stm32f4xx_hal_tim_ex.o
 .ARM.attributes
                0x000008bc       0x34 ./Drivers/STM32F4xx_HAL_Driver/Src/stm32f4xx_hal_uart.o
 .ARM.attributes
                0x000008f0       0x34 ./Drivers/STM32F4xx_HAL_Driver/Src/stm32f4xx_hal_usart.o
 .ARM.attributes
                0x00000924       0x34 ./Drivers/STM32F4xx_HAL_Driver/Src/stm32f4xx_hal_wwdg.o
 .ARM.attributes
                0x00000958       0x34 ./Drivers/STM32F4xx_HAL_Driver/Src/stm32f4xx_ll_adc.o
 .ARM.attributes
                0x0000098c       0x34 ./Drivers/STM32F4xx_HAL_Driver/Src/stm32f4xx_ll_crc.o
 .ARM.attributes
                0x000009c0       0x34 ./Drivers/STM32F4xx_HAL_Driver/Src/stm32f4xx_ll_dac.o
 .ARM.attributes
                0x000009f4       0x34 ./Drivers/STM32F4xx_HAL_Driver/Src/stm32f4xx_ll_dma.o
 .ARM.attributes
                0x00000a28       0x34 ./Drivers/STM32F4xx_HAL_Driver/Src/stm32f4xx_ll_dma2d.o
 .ARM.attributes
                0x00000a5c       0x34 ./Drivers/STM32F4xx_HAL_Driver/Src/stm32f4xx_ll_exti.o
 .ARM.attributes
                0x00000a90       0x34 ./Drivers/STM32F4xx_HAL_Driver/Src/stm32f4xx_ll_fmc.o
 .ARM.attributes
                0x00000ac4       0x34 ./Drivers/STM32F4xx_HAL_Driver/Src/stm32f4xx_ll_fmpi2c.o
 .ARM.attributes
                0x00000af8       0x34 ./Drivers/STM32F4xx_HAL_Driver/Src/stm32f4xx_ll_fsmc.o
 .ARM.attributes
                0x00000b2c       0x34 ./Drivers/STM32F4xx_HAL_Driver/Src/stm32f4xx_ll_gpio.o
 .ARM.attributes
                0x00000b60       0x34 ./Drivers/STM32F4xx_HAL_Driver/Src/stm32f4xx_ll_i2c.o
 .ARM.attributes
                0x00000b94       0x34 ./Drivers/STM32F4xx_HAL_Driver/Src/stm32f4xx_ll_lptim.o
 .ARM.attributes
                0x00000bc8       0x34 ./Drivers/STM32F4xx_HAL_Driver/Src/stm32f4xx_ll_pwr.o
 .ARM.attributes
                0x00000bfc       0x34 ./Drivers/STM32F4xx_HAL_Driver/Src/stm32f4xx_ll_rcc.o
 .ARM.attributes
                0x00000c30       0x34 ./Drivers/STM32F4xx_HAL_Driver/Src/stm32f4xx_ll_rng.o
 .ARM.attributes
                0x00000c64       0x34 ./Drivers/STM32F4xx_HAL_Driver/Src/stm32f4xx_ll_rtc.o
 .ARM.attributes
                0x00000c98       0x34 ./Drivers/STM32F4xx_HAL_Driver/Src/stm32f4xx_ll_sdmmc.o
 .ARM.attributes
                0x00000ccc       0x34 ./Drivers/STM32F4xx_HAL_Driver/Src/stm32f4xx_ll_spi.o
 .ARM.attributes
                0x00000d00       0x34 ./Drivers/STM32F4xx_HAL_Driver/Src/stm32f4xx_ll_tim.o
 .ARM.attributes
                0x00000d34       0x34 ./Drivers/STM32F4xx_HAL_Driver/Src/stm32f4xx_ll_usart.o
 .ARM.attributes
                0x00000d68       0x34 ./Drivers/STM32F4xx_HAL_Driver/Src/stm32f4xx_ll_usb.o
 .ARM.attributes
                0x00000d9c       0x34 ./Drivers/STM32F4xx_HAL_Driver/Src/stm32f4xx_ll_utils.o
 .ARM.attributes
                0x00000dd0       0x34 ./Core/Src/main.o
 .ARM.attributes
                0x00000e04       0x34 ./Core/Src/stm32f4xx_hal_msp.o
 .ARM.attributes
                0x00000e38       0x34 ./Core/Src/stm32f4xx_it.o
 .ARM.attributes
                0x00000e6c       0x34 ./Core/Src/system_stm32f4xx.o
 .ARM.attributes
                0x00000ea0       0x22 e:/programms/gnu mcu eclipse/toolchain/arm-gnu-toolchain-12.2.mpacbti-bet1-mingw-w64-i686-arm-none-eabi/bin/../lib/gcc/arm-none-eabi/12.2.0/thumb/v7e-m+fp/hard\libgcc.a(_aeabi_uldivmod.o)
 .ARM.attributes
                0x00000ec2       0x34 e:/programms/gnu mcu eclipse/toolchain/arm-gnu-toolchain-12.2.mpacbti-bet1-mingw-w64-i686-arm-none-eabi/bin/../lib/gcc/arm-none-eabi/12.2.0/thumb/v7e-m+fp/hard\libgcc.a(_udivmoddi4.o)
 .ARM.attributes
                0x00000ef6       0x22 e:/programms/gnu mcu eclipse/toolchain/arm-gnu-toolchain-12.2.mpacbti-bet1-mingw-w64-i686-arm-none-eabi/bin/../lib/gcc/arm-none-eabi/12.2.0/thumb/v7e-m+fp/hard\libgcc.a(_dvmd_tls.o)
 .ARM.attributes
                0x00000f18       0x34 e:/programms/gnu mcu eclipse/toolchain/arm-gnu-toolchain-12.2.mpacbti-bet1-mingw-w64-i686-arm-none-eabi/bin/../lib/gcc/arm-none-eabi/12.2.0/thumb/v7e-m+fp/hard\libg_nano.a(libc_a-memset.o)
OUTPUT(LVGS_Test.elf elf32-littlearm)
LOAD linker stubs
LOAD e:/programms/gnu mcu eclipse/toolchain/arm-gnu-toolchain-12.2.mpacbti-bet1-mingw-w64-i686-arm-none-eabi/bin/../lib/gcc/arm-none-eabi/12.2.0/thumb/v7e-m+fp/hard\libc.a
LOAD e:/programms/gnu mcu eclipse/toolchain/arm-gnu-toolchain-12.2.mpacbti-bet1-mingw-w64-i686-arm-none-eabi/bin/../lib/gcc/arm-none-eabi/12.2.0/thumb/v7e-m+fp/hard\libm.a
LOAD e:/programms/gnu mcu eclipse/toolchain/arm-gnu-toolchain-12.2.mpacbti-bet1-mingw-w64-i686-arm-none-eabi/bin/../lib/gcc/arm-none-eabi/12.2.0/thumb/v7e-m+fp/hard\libgcc.a

.debug_info     0x00000000     0xd6ab
 .debug_info    0x00000000      0x196 ./Lib/ili9341/fonts.o
 .debug_info    0x00000196     0x1505 ./Lib/ili9341/ili9341.o
 .debug_info    0x0000169b      0x9c8 ./Lib/ili9341/ili9341_touch.o
 .debug_info    0x00002063      0x9e6 ./Drivers/STM32F4xx_HAL_Driver/Src/stm32f4xx_hal.o
 .debug_info    0x00002a49       0x6c ./Drivers/STM32F4xx_HAL_Driver/Src/stm32f4xx_hal_adc.o
 .debug_info    0x00002ab5       0x6c ./Drivers/STM32F4xx_HAL_Driver/Src/stm32f4xx_hal_adc_ex.o
 .debug_info    0x00002b21       0x6c ./Drivers/STM32F4xx_HAL_Driver/Src/stm32f4xx_hal_can.o
 .debug_info    0x00002b8d      0xf7d ./Drivers/STM32F4xx_HAL_Driver/Src/stm32f4xx_hal_cortex.o
 .debug_info    0x00003b0a       0x6c ./Drivers/STM32F4xx_HAL_Driver/Src/stm32f4xx_hal_dac.o
 .debug_info    0x00003b76       0x6c ./Drivers/STM32F4xx_HAL_Driver/Src/stm32f4xx_hal_dac_ex.o
 .debug_info    0x00003be2       0x6c ./Drivers/STM32F4xx_HAL_Driver/Src/stm32f4xx_hal_dcmi.o
 .debug_info    0x00003c4e       0x6c ./Drivers/STM32F4xx_HAL_Driver/Src/stm32f4xx_hal_dcmi_ex.o
 .debug_info    0x00003cba       0x6c ./Drivers/STM32F4xx_HAL_Driver/Src/stm32f4xx_hal_dfsdm.o
 .debug_info    0x00003d26      0xad9 ./Drivers/STM32F4xx_HAL_Driver/Src/stm32f4xx_hal_dma.o
 .debug_info    0x000047ff       0x6c ./Drivers/STM32F4xx_HAL_Driver/Src/stm32f4xx_hal_dma2d.o
 .debug_info    0x0000486b      0x549 ./Drivers/STM32F4xx_HAL_Driver/Src/stm32f4xx_hal_dma_ex.o
 .debug_info    0x00004db4      0x563 ./Drivers/STM32F4xx_HAL_Driver/Src/stm32f4xx_hal_exti.o
 .debug_info    0x00005317      0x704 ./Drivers/STM32F4xx_HAL_Driver/Src/stm32f4xx_hal_gpio.o
 .debug_info    0x00005a1b       0x6c ./Drivers/STM32F4xx_HAL_Driver/Src/stm32f4xx_hal_hash.o
 .debug_info    0x00005a87       0x6c ./Drivers/STM32F4xx_HAL_Driver/Src/stm32f4xx_hal_hash_ex.o
 .debug_info    0x00005af3       0x6c ./Drivers/STM32F4xx_HAL_Driver/Src/stm32f4xx_hal_iwdg.o
 .debug_info    0x00005b5f       0x6c ./Drivers/STM32F4xx_HAL_Driver/Src/stm32f4xx_hal_mmc.o
 .debug_info    0x00005bcb       0x6c ./Drivers/STM32F4xx_HAL_Driver/Src/stm32f4xx_hal_nand.o
 .debug_info    0x00005c37       0x6c ./Drivers/STM32F4xx_HAL_Driver/Src/stm32f4xx_hal_nor.o
 .debug_info    0x00005ca3       0x6c ./Drivers/STM32F4xx_HAL_Driver/Src/stm32f4xx_hal_pcd.o
 .debug_info    0x00005d0f       0x6c ./Drivers/STM32F4xx_HAL_Driver/Src/stm32f4xx_hal_pcd_ex.o
 .debug_info    0x00005d7b      0x6fa ./Drivers/STM32F4xx_HAL_Driver/Src/stm32f4xx_hal_pwr.o
 .debug_info    0x00006475      0x3e8 ./Drivers/STM32F4xx_HAL_Driver/Src/stm32f4xx_hal_pwr_ex.o
 .debug_info    0x0000685d      0xa6f ./Drivers/STM32F4xx_HAL_Driver/Src/stm32f4xx_hal_rcc.o
 .debug_info    0x000072cc      0x655 ./Drivers/STM32F4xx_HAL_Driver/Src/stm32f4xx_hal_rcc_ex.o
 .debug_info    0x00007921       0x6c ./Drivers/STM32F4xx_HAL_Driver/Src/stm32f4xx_hal_rng.o
 .debug_info    0x0000798d       0x6c ./Drivers/STM32F4xx_HAL_Driver/Src/stm32f4xx_hal_rtc.o
 .debug_info    0x000079f9       0x6c ./Drivers/STM32F4xx_HAL_Driver/Src/stm32f4xx_hal_rtc_ex.o
 .debug_info    0x00007a65       0x6c ./Drivers/STM32F4xx_HAL_Driver/Src/stm32f4xx_hal_sai.o
 .debug_info    0x00007ad1       0x6c ./Drivers/STM32F4xx_HAL_Driver/Src/stm32f4xx_hal_sd.o
 .debug_info    0x00007b3d       0x6c ./Drivers/STM32F4xx_HAL_Driver/Src/stm32f4xx_hal_sdram.o
 .debug_info    0x00007ba9       0x6c ./Drivers/STM32F4xx_HAL_Driver/Src/stm32f4xx_hal_smartcard.o
 .debug_info    0x00007c15       0x6c ./Drivers/STM32F4xx_HAL_Driver/Src/stm32f4xx_hal_smbus.o
 .debug_info    0x00007c81       0x6c ./Drivers/STM32F4xx_HAL_Driver/Src/stm32f4xx_hal_spdifrx.o
 .debug_info    0x00007ced     0x1d76 ./Drivers/STM32F4xx_HAL_Driver/Src/stm32f4xx_hal_spi.o
 .debug_info    0x00009a63       0x6c ./Drivers/STM32F4xx_HAL_Driver/Src/stm32f4xx_hal_sram.o
 .debug_info    0x00009acf       0x6c ./Drivers/STM32F4xx_HAL_Driver/Src/stm32f4xx_hal_tim.o
 .debug_info    0x00009b3b       0x6c ./Drivers/STM32F4xx_HAL_Driver/Src/stm32f4xx_hal_tim_ex.o
 .debug_info    0x00009ba7       0x6c ./Drivers/STM32F4xx_HAL_Driver/Src/stm32f4xx_hal_uart.o
 .debug_info    0x00009c13       0x6c ./Drivers/STM32F4xx_HAL_Driver/Src/stm32f4xx_hal_usart.o
 .debug_info    0x00009c7f       0x6c ./Drivers/STM32F4xx_HAL_Driver/Src/stm32f4xx_hal_wwdg.o
 .debug_info    0x00009ceb       0x6c ./Drivers/STM32F4xx_HAL_Driver/Src/stm32f4xx_ll_fmc.o
 .debug_info    0x00009d57       0x6c ./Drivers/STM32F4xx_HAL_Driver/Src/stm32f4xx_ll_fsmc.o
 .debug_info    0x00009dc3       0x6c ./Drivers/STM32F4xx_HAL_Driver/Src/stm32f4xx_ll_sdmmc.o
 .debug_info    0x00009e2f       0x6c ./Drivers/STM32F4xx_HAL_Driver/Src/stm32f4xx_ll_usb.o
 .debug_info    0x00009e9b      0xbf5 ./Drivers/STM32F4xx_HAL_Driver/Src/stm32f4xx_ll_utils.o
 .debug_info    0x0000aa90     0x145b ./Core/Src/main.o
 .debug_info    0x0000beeb      0x94b ./Core/Src/stm32f4xx_hal_msp.o
 .debug_info    0x0000c836      0x11c ./Core/Src/stm32f4xx_it.o
 .debug_info    0x0000c952      0x527 ./Core/Src/system_stm32f4xx.o
 .debug_info    0x0000ce79       0x24 e:/programms/gnu mcu eclipse/toolchain/arm-gnu-toolchain-12.2.mpacbti-bet1-mingw-w64-i686-arm-none-eabi/bin/../lib/gcc/arm-none-eabi/12.2.0/thumb/v7e-m+fp/hard\libgcc.a(_aeabi_uldivmod.o)
 .debug_info    0x0000ce9d      0x6f5 e:/programms/gnu mcu eclipse/toolchain/arm-gnu-toolchain-12.2.mpacbti-bet1-mingw-w64-i686-arm-none-eabi/bin/../lib/gcc/arm-none-eabi/12.2.0/thumb/v7e-m+fp/hard\libgcc.a(_udivmoddi4.o)
 .debug_info    0x0000d592       0x39 e:/programms/gnu mcu eclipse/toolchain/arm-gnu-toolchain-12.2.mpacbti-bet1-mingw-w64-i686-arm-none-eabi/bin/../lib/gcc/arm-none-eabi/12.2.0/thumb/v7e-m+fp/hard\libgcc.a(_dvmd_tls.o)
 .debug_info    0x0000d5cb       0xe0 e:/programms/gnu mcu eclipse/toolchain/arm-gnu-toolchain-12.2.mpacbti-bet1-mingw-w64-i686-arm-none-eabi/bin/../lib/gcc/arm-none-eabi/12.2.0/thumb/v7e-m+fp/hard\libg_nano.a(libc_a-memset.o)

.debug_abbrev   0x00000000     0x2ee4
 .debug_abbrev  0x00000000       0xb1 ./Lib/ili9341/fonts.o
 .debug_abbrev  0x000000b1      0x2e4 ./Lib/ili9341/ili9341.o
 .debug_abbrev  0x00000395      0x26c ./Lib/ili9341/ili9341_touch.o
 .debug_abbrev  0x00000601      0x23f ./Drivers/STM32F4xx_HAL_Driver/Src/stm32f4xx_hal.o
 .debug_abbrev  0x00000840       0x26 ./Drivers/STM32F4xx_HAL_Driver/Src/stm32f4xx_hal_adc.o
 .debug_abbrev  0x00000866       0x26 ./Drivers/STM32F4xx_HAL_Driver/Src/stm32f4xx_hal_adc_ex.o
 .debug_abbrev  0x0000088c       0x26 ./Drivers/STM32F4xx_HAL_Driver/Src/stm32f4xx_hal_can.o
 .debug_abbrev  0x000008b2      0x39b ./Drivers/STM32F4xx_HAL_Driver/Src/stm32f4xx_hal_cortex.o
 .debug_abbrev  0x00000c4d       0x26 ./Drivers/STM32F4xx_HAL_Driver/Src/stm32f4xx_hal_dac.o
 .debug_abbrev  0x00000c73       0x26 ./Drivers/STM32F4xx_HAL_Driver/Src/stm32f4xx_hal_dac_ex.o
 .debug_abbrev  0x00000c99       0x26 ./Drivers/STM32F4xx_HAL_Driver/Src/stm32f4xx_hal_dcmi.o
 .debug_abbrev  0x00000cbf       0x26 ./Drivers/STM32F4xx_HAL_Driver/Src/stm32f4xx_hal_dcmi_ex.o
 .debug_abbrev  0x00000ce5       0x26 ./Drivers/STM32F4xx_HAL_Driver/Src/stm32f4xx_hal_dfsdm.o
 .debug_abbrev  0x00000d0b      0x2c0 ./Drivers/STM32F4xx_HAL_Driver/Src/stm32f4xx_hal_dma.o
 .debug_abbrev  0x00000fcb       0x26 ./Drivers/STM32F4xx_HAL_Driver/Src/stm32f4xx_hal_dma2d.o
 .debug_abbrev  0x00000ff1      0x1c4 ./Drivers/STM32F4xx_HAL_Driver/Src/stm32f4xx_hal_dma_ex.o
 .debug_abbrev  0x000011b5      0x1f5 ./Drivers/STM32F4xx_HAL_Driver/Src/stm32f4xx_hal_exti.o
 .debug_abbrev  0x000013aa      0x202 ./Drivers/STM32F4xx_HAL_Driver/Src/stm32f4xx_hal_gpio.o
 .debug_abbrev  0x000015ac       0x26 ./Drivers/STM32F4xx_HAL_Driver/Src/stm32f4xx_hal_hash.o
 .debug_abbrev  0x000015d2       0x26 ./Drivers/STM32F4xx_HAL_Driver/Src/stm32f4xx_hal_hash_ex.o
 .debug_abbrev  0x000015f8       0x26 ./Drivers/STM32F4xx_HAL_Driver/Src/stm32f4xx_hal_iwdg.o
 .debug_abbrev  0x0000161e       0x26 ./Drivers/STM32F4xx_HAL_Driver/Src/stm32f4xx_hal_mmc.o
 .debug_abbrev  0x00001644       0x26 ./Drivers/STM32F4xx_HAL_Driver/Src/stm32f4xx_hal_nand.o
 .debug_abbrev  0x0000166a       0x26 ./Drivers/STM32F4xx_HAL_Driver/Src/stm32f4xx_hal_nor.o
 .debug_abbrev  0x00001690       0x26 ./Drivers/STM32F4xx_HAL_Driver/Src/stm32f4xx_hal_pcd.o
 .debug_abbrev  0x000016b6       0x26 ./Drivers/STM32F4xx_HAL_Driver/Src/stm32f4xx_hal_pcd_ex.o
 .debug_abbrev  0x000016dc      0x18a ./Drivers/STM32F4xx_HAL_Driver/Src/stm32f4xx_hal_pwr.o
 .debug_abbrev  0x00001866      0x198 ./Drivers/STM32F4xx_HAL_Driver/Src/stm32f4xx_hal_pwr_ex.o
 .debug_abbrev  0x000019fe      0x2c6 ./Drivers/STM32F4xx_HAL_Driver/Src/stm32f4xx_hal_rcc.o
 .debug_abbrev  0x00001cc4      0x1c3 ./Drivers/STM32F4xx_HAL_Driver/Src/stm32f4xx_hal_rcc_ex.o
 .debug_abbrev  0x00001e87       0x26 ./Drivers/STM32F4xx_HAL_Driver/Src/stm32f4xx_hal_rng.o
 .debug_abbrev  0x00001ead       0x26 ./Drivers/STM32F4xx_HAL_Driver/Src/stm32f4xx_hal_rtc.o
 .debug_abbrev  0x00001ed3       0x26 ./Drivers/STM32F4xx_HAL_Driver/Src/stm32f4xx_hal_rtc_ex.o
 .debug_abbrev  0x00001ef9       0x26 ./Drivers/STM32F4xx_HAL_Driver/Src/stm32f4xx_hal_sai.o
 .debug_abbrev  0x00001f1f       0x26 ./Drivers/STM32F4xx_HAL_Driver/Src/stm32f4xx_hal_sd.o
 .debug_abbrev  0x00001f45       0x26 ./Drivers/STM32F4xx_HAL_Driver/Src/stm32f4xx_hal_sdram.o
 .debug_abbrev  0x00001f6b       0x26 ./Drivers/STM32F4xx_HAL_Driver/Src/stm32f4xx_hal_smartcard.o
 .debug_abbrev  0x00001f91       0x26 ./Drivers/STM32F4xx_HAL_Driver/Src/stm32f4xx_hal_smbus.o
 .debug_abbrev  0x00001fb7       0x26 ./Drivers/STM32F4xx_HAL_Driver/Src/stm32f4xx_hal_spdifrx.o
 .debug_abbrev  0x00001fdd      0x27c ./Drivers/STM32F4xx_HAL_Driver/Src/stm32f4xx_hal_spi.o
 .debug_abbrev  0x00002259       0x26 ./Drivers/STM32F4xx_HAL_Driver/Src/stm32f4xx_hal_sram.o
 .debug_abbrev  0x0000227f       0x26 ./Drivers/STM32F4xx_HAL_Driver/Src/stm32f4xx_hal_tim.o
 .debug_abbrev  0x000022a5       0x26 ./Drivers/STM32F4xx_HAL_Driver/Src/stm32f4xx_hal_tim_ex.o
 .debug_abbrev  0x000022cb       0x26 ./Drivers/STM32F4xx_HAL_Driver/Src/stm32f4xx_hal_uart.o
 .debug_abbrev  0x000022f1       0x26 ./Drivers/STM32F4xx_HAL_Driver/Src/stm32f4xx_hal_usart.o
 .debug_abbrev  0x00002317       0x26 ./Drivers/STM32F4xx_HAL_Driver/Src/stm32f4xx_hal_wwdg.o
 .debug_abbrev  0x0000233d       0x26 ./Drivers/STM32F4xx_HAL_Driver/Src/stm32f4xx_ll_fmc.o
 .debug_abbrev  0x00002363       0x26 ./Drivers/STM32F4xx_HAL_Driver/Src/stm32f4xx_ll_fsmc.o
 .debug_abbrev  0x00002389       0x26 ./Drivers/STM32F4xx_HAL_Driver/Src/stm32f4xx_ll_sdmmc.o
 .debug_abbrev  0x000023af       0x26 ./Drivers/STM32F4xx_HAL_Driver/Src/stm32f4xx_ll_usb.o
 .debug_abbrev  0x000023d5      0x276 ./Drivers/STM32F4xx_HAL_Driver/Src/stm32f4xx_ll_utils.o
 .debug_abbrev  0x0000264b      0x30a ./Core/Src/main.o
 .debug_abbrev  0x00002955      0x1ba ./Core/Src/stm32f4xx_hal_msp.o
 .debug_abbrev  0x00002b0f       0x7c ./Core/Src/stm32f4xx_it.o
 .debug_abbrev  0x00002b8b      0x11e ./Core/Src/system_stm32f4xx.o
 .debug_abbrev  0x00002ca9       0x14 e:/programms/gnu mcu eclipse/toolchain/arm-gnu-toolchain-12.2.mpacbti-bet1-mingw-w64-i686-arm-none-eabi/bin/../lib/gcc/arm-none-eabi/12.2.0/thumb/v7e-m+fp/hard\libgcc.a(_aeabi_uldivmod.o)
 .debug_abbrev  0x00002cbd      0x16a e:/programms/gnu mcu eclipse/toolchain/arm-gnu-toolchain-12.2.mpacbti-bet1-mingw-w64-i686-arm-none-eabi/bin/../lib/gcc/arm-none-eabi/12.2.0/thumb/v7e-m+fp/hard\libgcc.a(_udivmoddi4.o)
 .debug_abbrev  0x00002e27       0x1f e:/programms/gnu mcu eclipse/toolchain/arm-gnu-toolchain-12.2.mpacbti-bet1-mingw-w64-i686-arm-none-eabi/bin/../lib/gcc/arm-none-eabi/12.2.0/thumb/v7e-m+fp/hard\libgcc.a(_dvmd_tls.o)
 .debug_abbrev  0x00002e46       0x9e e:/programms/gnu mcu eclipse/toolchain/arm-gnu-toolchain-12.2.mpacbti-bet1-mingw-w64-i686-arm-none-eabi/bin/../lib/gcc/arm-none-eabi/12.2.0/thumb/v7e-m+fp/hard\libg_nano.a(libc_a-memset.o)

.debug_aranges  0x00000000      0xcf0
 .debug_aranges
                0x00000000       0x18 ./Lib/ili9341/fonts.o
 .debug_aranges
                0x00000018       0x88 ./Lib/ili9341/ili9341.o
 .debug_aranges
                0x000000a0       0x38 ./Lib/ili9341/ili9341_touch.o
 .debug_aranges
                0x000000d8       0xf0 ./Drivers/STM32F4xx_HAL_Driver/Src/stm32f4xx_hal.o
 .debug_aranges
                0x000001c8       0x18 ./Drivers/STM32F4xx_HAL_Driver/Src/stm32f4xx_hal_adc.o
 .debug_aranges
                0x000001e0       0x18 ./Drivers/STM32F4xx_HAL_Driver/Src/stm32f4xx_hal_adc_ex.o
 .debug_aranges
                0x000001f8       0x18 ./Drivers/STM32F4xx_HAL_Driver/Src/stm32f4xx_hal_can.o
 .debug_aranges
                0x00000210       0xd8 ./Drivers/STM32F4xx_HAL_Driver/Src/stm32f4xx_hal_cortex.o
 .debug_aranges
                0x000002e8       0x18 ./Drivers/STM32F4xx_HAL_Driver/Src/stm32f4xx_hal_dac.o
 .debug_aranges
                0x00000300       0x18 ./Drivers/STM32F4xx_HAL_Driver/Src/stm32f4xx_hal_dac_ex.o
 .debug_aranges
                0x00000318       0x18 ./Drivers/STM32F4xx_HAL_Driver/Src/stm32f4xx_hal_dcmi.o
 .debug_aranges
                0x00000330       0x18 ./Drivers/STM32F4xx_HAL_Driver/Src/stm32f4xx_hal_dcmi_ex.o
 .debug_aranges
                0x00000348       0x18 ./Drivers/STM32F4xx_HAL_Driver/Src/stm32f4xx_hal_dfsdm.o
 .debug_aranges
                0x00000360       0x90 ./Drivers/STM32F4xx_HAL_Driver/Src/stm32f4xx_hal_dma.o
 .debug_aranges
                0x000003f0       0x18 ./Drivers/STM32F4xx_HAL_Driver/Src/stm32f4xx_hal_dma2d.o
 .debug_aranges
                0x00000408       0x38 ./Drivers/STM32F4xx_HAL_Driver/Src/stm32f4xx_hal_dma_ex.o
 .debug_aranges
                0x00000440       0x60 ./Drivers/STM32F4xx_HAL_Driver/Src/stm32f4xx_hal_exti.o
 .debug_aranges
                0x000004a0       0x58 ./Drivers/STM32F4xx_HAL_Driver/Src/stm32f4xx_hal_gpio.o
 .debug_aranges
                0x000004f8       0x18 ./Drivers/STM32F4xx_HAL_Driver/Src/stm32f4xx_hal_hash.o
 .debug_aranges
                0x00000510       0x18 ./Drivers/STM32F4xx_HAL_Driver/Src/stm32f4xx_hal_hash_ex.o
 .debug_aranges
                0x00000528       0x18 ./Drivers/STM32F4xx_HAL_Driver/Src/stm32f4xx_hal_iwdg.o
 .debug_aranges
                0x00000540       0x18 ./Drivers/STM32F4xx_HAL_Driver/Src/stm32f4xx_hal_mmc.o
 .debug_aranges
                0x00000558       0x18 ./Drivers/STM32F4xx_HAL_Driver/Src/stm32f4xx_hal_nand.o
 .debug_aranges
                0x00000570       0x18 ./Drivers/STM32F4xx_HAL_Driver/Src/stm32f4xx_hal_nor.o
 .debug_aranges
                0x00000588       0x18 ./Drivers/STM32F4xx_HAL_Driver/Src/stm32f4xx_hal_pcd.o
 .debug_aranges
                0x000005a0       0x18 ./Drivers/STM32F4xx_HAL_Driver/Src/stm32f4xx_hal_pcd_ex.o
 .debug_aranges
                0x000005b8       0xa0 ./Drivers/STM32F4xx_HAL_Driver/Src/stm32f4xx_hal_pwr.o
 .debug_aranges
                0x00000658       0x48 ./Drivers/STM32F4xx_HAL_Driver/Src/stm32f4xx_hal_pwr_ex.o
 .debug_aranges
                0x000006a0       0x88 ./Drivers/STM32F4xx_HAL_Driver/Src/stm32f4xx_hal_rcc.o
 .debug_aranges
                0x00000728       0x48 ./Drivers/STM32F4xx_HAL_Driver/Src/stm32f4xx_hal_rcc_ex.o
 .debug_aranges
                0x00000770       0x18 ./Drivers/STM32F4xx_HAL_Driver/Src/stm32f4xx_hal_rng.o
 .debug_aranges
                0x00000788       0x18 ./Drivers/STM32F4xx_HAL_Driver/Src/stm32f4xx_hal_rtc.o
 .debug_aranges
                0x000007a0       0x18 ./Drivers/STM32F4xx_HAL_Driver/Src/stm32f4xx_hal_rtc_ex.o
 .debug_aranges
                0x000007b8       0x18 ./Drivers/STM32F4xx_HAL_Driver/Src/stm32f4xx_hal_sai.o
 .debug_aranges
                0x000007d0       0x18 ./Drivers/STM32F4xx_HAL_Driver/Src/stm32f4xx_hal_sd.o
 .debug_aranges
                0x000007e8       0x18 ./Drivers/STM32F4xx_HAL_Driver/Src/stm32f4xx_hal_sdram.o
 .debug_aranges
                0x00000800       0x18 ./Drivers/STM32F4xx_HAL_Driver/Src/stm32f4xx_hal_smartcard.o
 .debug_aranges
                0x00000818       0x18 ./Drivers/STM32F4xx_HAL_Driver/Src/stm32f4xx_hal_smbus.o
 .debug_aranges
                0x00000830       0x18 ./Drivers/STM32F4xx_HAL_Driver/Src/stm32f4xx_hal_spdifrx.o
 .debug_aranges
                0x00000848      0x1d0 ./Drivers/STM32F4xx_HAL_Driver/Src/stm32f4xx_hal_spi.o
 .debug_aranges
                0x00000a18       0x18 ./Drivers/STM32F4xx_HAL_Driver/Src/stm32f4xx_hal_sram.o
 .debug_aranges
                0x00000a30       0x18 ./Drivers/STM32F4xx_HAL_Driver/Src/stm32f4xx_hal_tim.o
 .debug_aranges
                0x00000a48       0x18 ./Drivers/STM32F4xx_HAL_Driver/Src/stm32f4xx_hal_tim_ex.o
 .debug_aranges
                0x00000a60       0x18 ./Drivers/STM32F4xx_HAL_Driver/Src/stm32f4xx_hal_uart.o
 .debug_aranges
                0x00000a78       0x18 ./Drivers/STM32F4xx_HAL_Driver/Src/stm32f4xx_hal_usart.o
 .debug_aranges
                0x00000a90       0x18 ./Drivers/STM32F4xx_HAL_Driver/Src/stm32f4xx_hal_wwdg.o
 .debug_aranges
                0x00000aa8       0x18 ./Drivers/STM32F4xx_HAL_Driver/Src/stm32f4xx_ll_fmc.o
 .debug_aranges
                0x00000ac0       0x18 ./Drivers/STM32F4xx_HAL_Driver/Src/stm32f4xx_ll_fsmc.o
 .debug_aranges
                0x00000ad8       0x18 ./Drivers/STM32F4xx_HAL_Driver/Src/stm32f4xx_ll_sdmmc.o
 .debug_aranges
                0x00000af0       0x18 ./Drivers/STM32F4xx_HAL_Driver/Src/stm32f4xx_ll_usb.o
 .debug_aranges
                0x00000b08       0x60 ./Drivers/STM32F4xx_HAL_Driver/Src/stm32f4xx_ll_utils.o
 .debug_aranges
                0x00000b68       0x50 ./Core/Src/main.o
 .debug_aranges
                0x00000bb8       0x30 ./Core/Src/stm32f4xx_hal_msp.o
 .debug_aranges
                0x00000be8       0x60 ./Core/Src/stm32f4xx_it.o
 .debug_aranges
                0x00000c48       0x28 ./Core/Src/system_stm32f4xx.o
 .debug_aranges
                0x00000c70       0x20 e:/programms/gnu mcu eclipse/toolchain/arm-gnu-toolchain-12.2.mpacbti-bet1-mingw-w64-i686-arm-none-eabi/bin/../lib/gcc/arm-none-eabi/12.2.0/thumb/v7e-m+fp/hard\libgcc.a(_aeabi_uldivmod.o)
 .debug_aranges
                0x00000c90       0x20 e:/programms/gnu mcu eclipse/toolchain/arm-gnu-toolchain-12.2.mpacbti-bet1-mingw-w64-i686-arm-none-eabi/bin/../lib/gcc/arm-none-eabi/12.2.0/thumb/v7e-m+fp/hard\libgcc.a(_udivmoddi4.o)
 .debug_aranges
                0x00000cb0       0x20 e:/programms/gnu mcu eclipse/toolchain/arm-gnu-toolchain-12.2.mpacbti-bet1-mingw-w64-i686-arm-none-eabi/bin/../lib/gcc/arm-none-eabi/12.2.0/thumb/v7e-m+fp/hard\libgcc.a(_dvmd_tls.o)
 .debug_aranges
                0x00000cd0       0x20 e:/programms/gnu mcu eclipse/toolchain/arm-gnu-toolchain-12.2.mpacbti-bet1-mingw-w64-i686-arm-none-eabi/bin/../lib/gcc/arm-none-eabi/12.2.0/thumb/v7e-m+fp/hard\libg_nano.a(libc_a-memset.o)

.debug_line     0x00000000     0xb0e4
 .debug_line    0x00000000      0x16b ./Lib/ili9341/fonts.o
 .debug_line    0x0000016b      0x80d ./Lib/ili9341/ili9341.o
 .debug_line    0x00000978      0x3bf ./Lib/ili9341/ili9341_touch.o
 .debug_line    0x00000d37      0x656 ./Drivers/STM32F4xx_HAL_Driver/Src/stm32f4xx_hal.o
 .debug_line    0x0000138d       0x58 ./Drivers/STM32F4xx_HAL_Driver/Src/stm32f4xx_hal_adc.o
 .debug_line    0x000013e5       0x5b ./Drivers/STM32F4xx_HAL_Driver/Src/stm32f4xx_hal_adc_ex.o
 .debug_line    0x00001440       0x58 ./Drivers/STM32F4xx_HAL_Driver/Src/stm32f4xx_hal_can.o
 .debug_line    0x00001498      0x901 ./Drivers/STM32F4xx_HAL_Driver/Src/stm32f4xx_hal_cortex.o
 .debug_line    0x00001d99       0x58 ./Drivers/STM32F4xx_HAL_Driver/Src/stm32f4xx_hal_dac.o
 .debug_line    0x00001df1       0x5b ./Drivers/STM32F4xx_HAL_Driver/Src/stm32f4xx_hal_dac_ex.o
 .debug_line    0x00001e4c       0x59 ./Drivers/STM32F4xx_HAL_Driver/Src/stm32f4xx_hal_dcmi.o
 .debug_line    0x00001ea5       0x5c ./Drivers/STM32F4xx_HAL_Driver/Src/stm32f4xx_hal_dcmi_ex.o
 .debug_line    0x00001f01       0x5a ./Drivers/STM32F4xx_HAL_Driver/Src/stm32f4xx_hal_dfsdm.o
 .debug_line    0x00001f5b      0xf20 ./Drivers/STM32F4xx_HAL_Driver/Src/stm32f4xx_hal_dma.o
 .debug_line    0x00002e7b       0x5a ./Drivers/STM32F4xx_HAL_Driver/Src/stm32f4xx_hal_dma2d.o
 .debug_line    0x00002ed5      0xab2 ./Drivers/STM32F4xx_HAL_Driver/Src/stm32f4xx_hal_dma_ex.o
 .debug_line    0x00003987      0x6ac ./Drivers/STM32F4xx_HAL_Driver/Src/stm32f4xx_hal_exti.o
 .debug_line    0x00004033      0x783 ./Drivers/STM32F4xx_HAL_Driver/Src/stm32f4xx_hal_gpio.o
 .debug_line    0x000047b6       0x59 ./Drivers/STM32F4xx_HAL_Driver/Src/stm32f4xx_hal_hash.o
 .debug_line    0x0000480f       0x5c ./Drivers/STM32F4xx_HAL_Driver/Src/stm32f4xx_hal_hash_ex.o
 .debug_line    0x0000486b       0x59 ./Drivers/STM32F4xx_HAL_Driver/Src/stm32f4xx_hal_iwdg.o
 .debug_line    0x000048c4       0x58 ./Drivers/STM32F4xx_HAL_Driver/Src/stm32f4xx_hal_mmc.o
 .debug_line    0x0000491c       0x59 ./Drivers/STM32F4xx_HAL_Driver/Src/stm32f4xx_hal_nand.o
 .debug_line    0x00004975       0x58 ./Drivers/STM32F4xx_HAL_Driver/Src/stm32f4xx_hal_nor.o
 .debug_line    0x000049cd       0x58 ./Drivers/STM32F4xx_HAL_Driver/Src/stm32f4xx_hal_pcd.o
 .debug_line    0x00004a25       0x5b ./Drivers/STM32F4xx_HAL_Driver/Src/stm32f4xx_hal_pcd_ex.o
 .debug_line    0x00004a80      0x4e4 ./Drivers/STM32F4xx_HAL_Driver/Src/stm32f4xx_hal_pwr.o
 .debug_line    0x00004f64      0x3a2 ./Drivers/STM32F4xx_HAL_Driver/Src/stm32f4xx_hal_pwr_ex.o
 .debug_line    0x00005306      0xbc9 ./Drivers/STM32F4xx_HAL_Driver/Src/stm32f4xx_hal_rcc.o
 .debug_line    0x00005ecf      0x6a7 ./Drivers/STM32F4xx_HAL_Driver/Src/stm32f4xx_hal_rcc_ex.o
 .debug_line    0x00006576       0x58 ./Drivers/STM32F4xx_HAL_Driver/Src/stm32f4xx_hal_rng.o
 .debug_line    0x000065ce       0x58 ./Drivers/STM32F4xx_HAL_Driver/Src/stm32f4xx_hal_rtc.o
 .debug_line    0x00006626       0x5b ./Drivers/STM32F4xx_HAL_Driver/Src/stm32f4xx_hal_rtc_ex.o
 .debug_line    0x00006681       0x58 ./Drivers/STM32F4xx_HAL_Driver/Src/stm32f4xx_hal_sai.o
 .debug_line    0x000066d9       0x57 ./Drivers/STM32F4xx_HAL_Driver/Src/stm32f4xx_hal_sd.o
 .debug_line    0x00006730       0x5a ./Drivers/STM32F4xx_HAL_Driver/Src/stm32f4xx_hal_sdram.o
 .debug_line    0x0000678a       0x5e ./Drivers/STM32F4xx_HAL_Driver/Src/stm32f4xx_hal_smartcard.o
 .debug_line    0x000067e8       0x5a ./Drivers/STM32F4xx_HAL_Driver/Src/stm32f4xx_hal_smbus.o
 .debug_line    0x00006842       0x5c ./Drivers/STM32F4xx_HAL_Driver/Src/stm32f4xx_hal_spdifrx.o
 .debug_line    0x0000689e     0x25b7 ./Drivers/STM32F4xx_HAL_Driver/Src/stm32f4xx_hal_spi.o
 .debug_line    0x00008e55       0x59 ./Drivers/STM32F4xx_HAL_Driver/Src/stm32f4xx_hal_sram.o
 .debug_line    0x00008eae       0x58 ./Drivers/STM32F4xx_HAL_Driver/Src/stm32f4xx_hal_tim.o
 .debug_line    0x00008f06       0x5b ./Drivers/STM32F4xx_HAL_Driver/Src/stm32f4xx_hal_tim_ex.o
 .debug_line    0x00008f61       0x59 ./Drivers/STM32F4xx_HAL_Driver/Src/stm32f4xx_hal_uart.o
 .debug_line    0x00008fba       0x5a ./Drivers/STM32F4xx_HAL_Driver/Src/stm32f4xx_hal_usart.o
 .debug_line    0x00009014       0x59 ./Drivers/STM32F4xx_HAL_Driver/Src/stm32f4xx_hal_wwdg.o
 .debug_line    0x0000906d        0x0 ./Drivers/STM32F4xx_HAL_Driver/Src/stm32f4xx_ll_adc.o
 .debug_line    0x0000906d        0x0 ./Drivers/STM32F4xx_HAL_Driver/Src/stm32f4xx_ll_crc.o
 .debug_line    0x0000906d        0x0 ./Drivers/STM32F4xx_HAL_Driver/Src/stm32f4xx_ll_dac.o
 .debug_line    0x0000906d        0x0 ./Drivers/STM32F4xx_HAL_Driver/Src/stm32f4xx_ll_dma.o
 .debug_line    0x0000906d        0x0 ./Drivers/STM32F4xx_HAL_Driver/Src/stm32f4xx_ll_dma2d.o
 .debug_line    0x0000906d        0x0 ./Drivers/STM32F4xx_HAL_Driver/Src/stm32f4xx_ll_exti.o
 .debug_line    0x0000906d       0x57 ./Drivers/STM32F4xx_HAL_Driver/Src/stm32f4xx_ll_fmc.o
 .debug_line    0x000090c4        0x0 ./Drivers/STM32F4xx_HAL_Driver/Src/stm32f4xx_ll_fmpi2c.o
 .debug_line    0x000090c4       0x58 ./Drivers/STM32F4xx_HAL_Driver/Src/stm32f4xx_ll_fsmc.o
 .debug_line    0x0000911c        0x0 ./Drivers/STM32F4xx_HAL_Driver/Src/stm32f4xx_ll_gpio.o
 .debug_line    0x0000911c        0x0 ./Drivers/STM32F4xx_HAL_Driver/Src/stm32f4xx_ll_i2c.o
 .debug_line    0x0000911c        0x0 ./Drivers/STM32F4xx_HAL_Driver/Src/stm32f4xx_ll_lptim.o
 .debug_line    0x0000911c        0x0 ./Drivers/STM32F4xx_HAL_Driver/Src/stm32f4xx_ll_pwr.o
 .debug_line    0x0000911c        0x0 ./Drivers/STM32F4xx_HAL_Driver/Src/stm32f4xx_ll_rcc.o
 .debug_line    0x0000911c        0x0 ./Drivers/STM32F4xx_HAL_Driver/Src/stm32f4xx_ll_rng.o
 .debug_line    0x0000911c        0x0 ./Drivers/STM32F4xx_HAL_Driver/Src/stm32f4xx_ll_rtc.o
 .debug_line    0x0000911c       0x59 ./Drivers/STM32F4xx_HAL_Driver/Src/stm32f4xx_ll_sdmmc.o
 .debug_line    0x00009175        0x0 ./Drivers/STM32F4xx_HAL_Driver/Src/stm32f4xx_ll_spi.o
 .debug_line    0x00009175        0x0 ./Drivers/STM32F4xx_HAL_Driver/Src/stm32f4xx_ll_tim.o
 .debug_line    0x00009175        0x0 ./Drivers/STM32F4xx_HAL_Driver/Src/stm32f4xx_ll_usart.o
 .debug_line    0x00009175       0x57 ./Drivers/STM32F4xx_HAL_Driver/Src/stm32f4xx_ll_usb.o
 .debug_line    0x000091cc      0x8d9 ./Drivers/STM32F4xx_HAL_Driver/Src/stm32f4xx_ll_utils.o
 .debug_line    0x00009aa5      0x693 ./Core/Src/main.o
 .debug_line    0x0000a138      0x32d ./Core/Src/stm32f4xx_hal_msp.o
 .debug_line    0x0000a465      0x1a4 ./Core/Src/stm32f4xx_it.o
 .debug_line    0x0000a609      0x314 ./Core/Src/system_stm32f4xx.o
 .debug_line    0x0000a91d       0x4e e:/programms/gnu mcu eclipse/toolchain/arm-gnu-toolchain-12.2.mpacbti-bet1-mingw-w64-i686-arm-none-eabi/bin/../lib/gcc/arm-none-eabi/12.2.0/thumb/v7e-m+fp/hard\libgcc.a(_aeabi_uldivmod.o)
 .debug_line    0x0000a96b      0x5a1 e:/programms/gnu mcu eclipse/toolchain/arm-gnu-toolchain-12.2.mpacbti-bet1-mingw-w64-i686-arm-none-eabi/bin/../lib/gcc/arm-none-eabi/12.2.0/thumb/v7e-m+fp/hard\libgcc.a(_udivmoddi4.o)
 .debug_line    0x0000af0c       0x4a e:/programms/gnu mcu eclipse/toolchain/arm-gnu-toolchain-12.2.mpacbti-bet1-mingw-w64-i686-arm-none-eabi/bin/../lib/gcc/arm-none-eabi/12.2.0/thumb/v7e-m+fp/hard\libgcc.a(_dvmd_tls.o)
 .debug_line    0x0000af56      0x18e e:/programms/gnu mcu eclipse/toolchain/arm-gnu-toolchain-12.2.mpacbti-bet1-mingw-w64-i686-arm-none-eabi/bin/../lib/gcc/arm-none-eabi/12.2.0/thumb/v7e-m+fp/hard\libg_nano.a(libc_a-memset.o)

.debug_str      0x00000000     0x442f
 .debug_str     0x00000000      0x1d1 ./Lib/ili9341/fonts.o
                                0x216 (size before relaxing)
 .debug_str     0x000001d1      0x60c ./Lib/ili9341/ili9341.o
                                0x833 (size before relaxing)
 .debug_str     0x000007dd       0xf0 ./Lib/ili9341/ili9341_touch.o
                                0x7a3 (size before relaxing)
 .debug_str     0x000008cd      0x960 ./Drivers/STM32F4xx_HAL_Driver/Src/stm32f4xx_hal.o
                                0xb7a (size before relaxing)
 .debug_str     0x0000122d       0x38 ./Drivers/STM32F4xx_HAL_Driver/Src/stm32f4xx_hal_adc.o
                                0x1c6 (size before relaxing)
 .debug_str     0x00001265       0x3b ./Drivers/STM32F4xx_HAL_Driver/Src/stm32f4xx_hal_adc_ex.o
                                0x1c9 (size before relaxing)
 .debug_str     0x000012a0       0x38 ./Drivers/STM32F4xx_HAL_Driver/Src/stm32f4xx_hal_can.o
                                0x1c6 (size before relaxing)
 .debug_str     0x000012d8      0x4a8 ./Drivers/STM32F4xx_HAL_Driver/Src/stm32f4xx_hal_cortex.o
                                0xc42 (size before relaxing)
 .debug_str     0x00001780       0x38 ./Drivers/STM32F4xx_HAL_Driver/Src/stm32f4xx_hal_dac.o
                                0x1c6 (size before relaxing)
 .debug_str     0x000017b8       0x3b ./Drivers/STM32F4xx_HAL_Driver/Src/stm32f4xx_hal_dac_ex.o
                                0x1c9 (size before relaxing)
 .debug_str     0x000017f3       0x39 ./Drivers/STM32F4xx_HAL_Driver/Src/stm32f4xx_hal_dcmi.o
                                0x1c7 (size before relaxing)
 .debug_str     0x0000182c       0x3c ./Drivers/STM32F4xx_HAL_Driver/Src/stm32f4xx_hal_dcmi_ex.o
                                0x1ca (size before relaxing)
 .debug_str     0x00001868       0x3a ./Drivers/STM32F4xx_HAL_Driver/Src/stm32f4xx_hal_dfsdm.o
                                0x1c8 (size before relaxing)
 .debug_str     0x000018a2      0x306 ./Drivers/STM32F4xx_HAL_Driver/Src/stm32f4xx_hal_dma.o
                                0x78c (size before relaxing)
 .debug_str     0x00001ba8       0x3a ./Drivers/STM32F4xx_HAL_Driver/Src/stm32f4xx_hal_dma2d.o
                                0x1c8 (size before relaxing)
 .debug_str     0x00001be2      0x104 ./Drivers/STM32F4xx_HAL_Driver/Src/stm32f4xx_hal_dma_ex.o
                                0x55f (size before relaxing)
 .debug_str     0x00001ce6      0x201 ./Drivers/STM32F4xx_HAL_Driver/Src/stm32f4xx_hal_exti.o
                                0x3f7 (size before relaxing)
 .debug_str     0x00001ee7      0x10b ./Drivers/STM32F4xx_HAL_Driver/Src/stm32f4xx_hal_gpio.o
                                0x4f6 (size before relaxing)
 .debug_str     0x00001ff2       0x39 ./Drivers/STM32F4xx_HAL_Driver/Src/stm32f4xx_hal_hash.o
                                0x1c7 (size before relaxing)
 .debug_str     0x0000202b       0x3c ./Drivers/STM32F4xx_HAL_Driver/Src/stm32f4xx_hal_hash_ex.o
                                0x1ca (size before relaxing)
 .debug_str     0x00002067       0x39 ./Drivers/STM32F4xx_HAL_Driver/Src/stm32f4xx_hal_iwdg.o
                                0x1c7 (size before relaxing)
 .debug_str     0x000020a0       0x38 ./Drivers/STM32F4xx_HAL_Driver/Src/stm32f4xx_hal_mmc.o
                                0x1c6 (size before relaxing)
 .debug_str     0x000020d8       0x39 ./Drivers/STM32F4xx_HAL_Driver/Src/stm32f4xx_hal_nand.o
                                0x1c7 (size before relaxing)
 .debug_str     0x00002111       0x38 ./Drivers/STM32F4xx_HAL_Driver/Src/stm32f4xx_hal_nor.o
                                0x1c6 (size before relaxing)
 .debug_str     0x00002149       0x38 ./Drivers/STM32F4xx_HAL_Driver/Src/stm32f4xx_hal_pcd.o
                                0x1c6 (size before relaxing)
 .debug_str     0x00002181       0x3b ./Drivers/STM32F4xx_HAL_Driver/Src/stm32f4xx_hal_pcd_ex.o
                                0x1c9 (size before relaxing)
 .debug_str     0x000021bc      0x21c ./Drivers/STM32F4xx_HAL_Driver/Src/stm32f4xx_hal_pwr.o
                                0x557 (size before relaxing)
 .debug_str     0x000023d8       0xe5 ./Drivers/STM32F4xx_HAL_Driver/Src/stm32f4xx_hal_pwr_ex.o
                                0x408 (size before relaxing)
 .debug_str     0x000024bd      0x315 ./Drivers/STM32F4xx_HAL_Driver/Src/stm32f4xx_hal_rcc.o
                                0x71c (size before relaxing)
 .debug_str     0x000027d2      0x16f ./Drivers/STM32F4xx_HAL_Driver/Src/stm32f4xx_hal_rcc_ex.o
                                0x4dd (size before relaxing)
 .debug_str     0x00002941       0x38 ./Drivers/STM32F4xx_HAL_Driver/Src/stm32f4xx_hal_rng.o
                                0x1c6 (size before relaxing)
 .debug_str     0x00002979       0x38 ./Drivers/STM32F4xx_HAL_Driver/Src/stm32f4xx_hal_rtc.o
                                0x1c6 (size before relaxing)
 .debug_str     0x000029b1       0x3b ./Drivers/STM32F4xx_HAL_Driver/Src/stm32f4xx_hal_rtc_ex.o
                                0x1c9 (size before relaxing)
 .debug_str     0x000029ec       0x38 ./Drivers/STM32F4xx_HAL_Driver/Src/stm32f4xx_hal_sai.o
                                0x1c6 (size before relaxing)
 .debug_str     0x00002a24       0x37 ./Drivers/STM32F4xx_HAL_Driver/Src/stm32f4xx_hal_sd.o
                                0x1c5 (size before relaxing)
 .debug_str     0x00002a5b       0x3a ./Drivers/STM32F4xx_HAL_Driver/Src/stm32f4xx_hal_sdram.o
                                0x1c8 (size before relaxing)
 .debug_str     0x00002a95       0x3e ./Drivers/STM32F4xx_HAL_Driver/Src/stm32f4xx_hal_smartcard.o
                                0x1cc (size before relaxing)
 .debug_str     0x00002ad3       0x3a ./Drivers/STM32F4xx_HAL_Driver/Src/stm32f4xx_hal_smbus.o
                                0x1c8 (size before relaxing)
 .debug_str     0x00002b0d       0x3c ./Drivers/STM32F4xx_HAL_Driver/Src/stm32f4xx_hal_spdifrx.o
                                0x1ca (size before relaxing)
 .debug_str     0x00002b49      0x539 ./Drivers/STM32F4xx_HAL_Driver/Src/stm32f4xx_hal_spi.o
                                0xc10 (size before relaxing)
 .debug_str     0x00003082       0x39 ./Drivers/STM32F4xx_HAL_Driver/Src/stm32f4xx_hal_sram.o
                                0x1c7 (size before relaxing)
 .debug_str     0x000030bb       0x38 ./Drivers/STM32F4xx_HAL_Driver/Src/stm32f4xx_hal_tim.o
                                0x1c6 (size before relaxing)
 .debug_str     0x000030f3       0x3b ./Drivers/STM32F4xx_HAL_Driver/Src/stm32f4xx_hal_tim_ex.o
                                0x1c9 (size before relaxing)
 .debug_str     0x0000312e       0x39 ./Drivers/STM32F4xx_HAL_Driver/Src/stm32f4xx_hal_uart.o
                                0x1c7 (size before relaxing)
 .debug_str     0x00003167       0x3a ./Drivers/STM32F4xx_HAL_Driver/Src/stm32f4xx_hal_usart.o
                                0x1c8 (size before relaxing)
 .debug_str     0x000031a1       0x39 ./Drivers/STM32F4xx_HAL_Driver/Src/stm32f4xx_hal_wwdg.o
                                0x1c7 (size before relaxing)
 .debug_str     0x000031da       0x37 ./Drivers/STM32F4xx_HAL_Driver/Src/stm32f4xx_ll_adc.o
                                0x135 (size before relaxing)
 .debug_str     0x00003211       0x37 ./Drivers/STM32F4xx_HAL_Driver/Src/stm32f4xx_ll_crc.o
                                0x135 (size before relaxing)
 .debug_str     0x00003248       0x37 ./Drivers/STM32F4xx_HAL_Driver/Src/stm32f4xx_ll_dac.o
                                0x135 (size before relaxing)
 .debug_str     0x0000327f       0x37 ./Drivers/STM32F4xx_HAL_Driver/Src/stm32f4xx_ll_dma.o
                                0x135 (size before relaxing)
 .debug_str     0x000032b6       0x39 ./Drivers/STM32F4xx_HAL_Driver/Src/stm32f4xx_ll_dma2d.o
                                0x137 (size before relaxing)
 .debug_str     0x000032ef       0x38 ./Drivers/STM32F4xx_HAL_Driver/Src/stm32f4xx_ll_exti.o
                                0x136 (size before relaxing)
 .debug_str     0x00003327       0x37 ./Drivers/STM32F4xx_HAL_Driver/Src/stm32f4xx_ll_fmc.o
                                0x1c5 (size before relaxing)
 .debug_str     0x0000335e       0x3a ./Drivers/STM32F4xx_HAL_Driver/Src/stm32f4xx_ll_fmpi2c.o
                                0x138 (size before relaxing)
 .debug_str     0x00003398       0x38 ./Drivers/STM32F4xx_HAL_Driver/Src/stm32f4xx_ll_fsmc.o
                                0x1c6 (size before relaxing)
 .debug_str     0x000033d0       0x38 ./Drivers/STM32F4xx_HAL_Driver/Src/stm32f4xx_ll_gpio.o
                                0x136 (size before relaxing)
 .debug_str     0x00003408       0x37 ./Drivers/STM32F4xx_HAL_Driver/Src/stm32f4xx_ll_i2c.o
                                0x135 (size before relaxing)
 .debug_str     0x0000343f       0x39 ./Drivers/STM32F4xx_HAL_Driver/Src/stm32f4xx_ll_lptim.o
                                0x137 (size before relaxing)
 .debug_str     0x00003478       0x37 ./Drivers/STM32F4xx_HAL_Driver/Src/stm32f4xx_ll_pwr.o
                                0x135 (size before relaxing)
 .debug_str     0x000034af       0x37 ./Drivers/STM32F4xx_HAL_Driver/Src/stm32f4xx_ll_rcc.o
                                0x135 (size before relaxing)
 .debug_str     0x000034e6       0x37 ./Drivers/STM32F4xx_HAL_Driver/Src/stm32f4xx_ll_rng.o
                                0x135 (size before relaxing)
 .debug_str     0x0000351d       0x37 ./Drivers/STM32F4xx_HAL_Driver/Src/stm32f4xx_ll_rtc.o
                                0x135 (size before relaxing)
 .debug_str     0x00003554       0x39 ./Drivers/STM32F4xx_HAL_Driver/Src/stm32f4xx_ll_sdmmc.o
                                0x1c7 (size before relaxing)
 .debug_str     0x0000358d       0x37 ./Drivers/STM32F4xx_HAL_Driver/Src/stm32f4xx_ll_spi.o
                                0x135 (size before relaxing)
 .debug_str     0x000035c4       0x37 ./Drivers/STM32F4xx_HAL_Driver/Src/stm32f4xx_ll_tim.o
                                0x135 (size before relaxing)
 .debug_str     0x000035fb       0x39 ./Drivers/STM32F4xx_HAL_Driver/Src/stm32f4xx_ll_usart.o
                                0x137 (size before relaxing)
 .debug_str     0x00003634       0x37 ./Drivers/STM32F4xx_HAL_Driver/Src/stm32f4xx_ll_usb.o
                                0x1c5 (size before relaxing)
 .debug_str     0x0000366b      0x38d ./Drivers/STM32F4xx_HAL_Driver/Src/stm32f4xx_ll_utils.o
                                0x723 (size before relaxing)
 .debug_str     0x000039f8       0x88 ./Core/Src/main.o
                                0xaa9 (size before relaxing)
 .debug_str     0x00003a80       0x20 ./Core/Src/stm32f4xx_hal_msp.o
                                0x7cc (size before relaxing)
 .debug_str     0x00003aa0       0xab ./Core/Src/stm32f4xx_it.o
                                0x245 (size before relaxing)
 .debug_str     0x00003b4b       0x4a ./Core/Src/system_stm32f4xx.o
                                0x38b (size before relaxing)
 .debug_str     0x00003b95       0xe8 e:/programms/gnu mcu eclipse/toolchain/arm-gnu-toolchain-12.2.mpacbti-bet1-mingw-w64-i686-arm-none-eabi/bin/../lib/gcc/arm-none-eabi/12.2.0/thumb/v7e-m+fp/hard\libgcc.a(_aeabi_uldivmod.o)
 .debug_str     0x00003c7d      0x5cb e:/programms/gnu mcu eclipse/toolchain/arm-gnu-toolchain-12.2.mpacbti-bet1-mingw-w64-i686-arm-none-eabi/bin/../lib/gcc/arm-none-eabi/12.2.0/thumb/v7e-m+fp/hard\libgcc.a(_udivmoddi4.o)
                                0x6e2 (size before relaxing)
 .debug_str     0x00004248       0x77 e:/programms/gnu mcu eclipse/toolchain/arm-gnu-toolchain-12.2.mpacbti-bet1-mingw-w64-i686-arm-none-eabi/bin/../lib/gcc/arm-none-eabi/12.2.0/thumb/v7e-m+fp/hard\libgcc.a(_dvmd_tls.o)
                                0x108 (size before relaxing)
 .debug_str     0x000042bf      0x170 e:/programms/gnu mcu eclipse/toolchain/arm-gnu-toolchain-12.2.mpacbti-bet1-mingw-w64-i686-arm-none-eabi/bin/../lib/gcc/arm-none-eabi/12.2.0/thumb/v7e-m+fp/hard\libg_nano.a(libc_a-memset.o)
                                0x213 (size before relaxing)

.comment        0x00000000       0x4c
 .comment       0x00000000       0x4c ./Lib/ili9341/fonts.o
                                 0x4d (size before relaxing)
 .comment       0x0000004c       0x4d ./Lib/ili9341/ili9341.o
 .comment       0x0000004c       0x4d ./Lib/ili9341/ili9341_touch.o
 .comment       0x0000004c       0x4d ./Drivers/STM32F4xx_HAL_Driver/Src/stm32f4xx_hal.o
 .comment       0x0000004c       0x4d ./Drivers/STM32F4xx_HAL_Driver/Src/stm32f4xx_hal_adc.o
 .comment       0x0000004c       0x4d ./Drivers/STM32F4xx_HAL_Driver/Src/stm32f4xx_hal_adc_ex.o
 .comment       0x0000004c       0x4d ./Drivers/STM32F4xx_HAL_Driver/Src/stm32f4xx_hal_can.o
 .comment       0x0000004c       0x4d ./Drivers/STM32F4xx_HAL_Driver/Src/stm32f4xx_hal_cortex.o
 .comment       0x0000004c       0x4d ./Drivers/STM32F4xx_HAL_Driver/Src/stm32f4xx_hal_dac.o
 .comment       0x0000004c       0x4d ./Drivers/STM32F4xx_HAL_Driver/Src/stm32f4xx_hal_dac_ex.o
 .comment       0x0000004c       0x4d ./Drivers/STM32F4xx_HAL_Driver/Src/stm32f4xx_hal_dcmi.o
 .comment       0x0000004c       0x4d ./Drivers/STM32F4xx_HAL_Driver/Src/stm32f4xx_hal_dcmi_ex.o
 .comment       0x0000004c       0x4d ./Drivers/STM32F4xx_HAL_Driver/Src/stm32f4xx_hal_dfsdm.o
 .comment       0x0000004c       0x4d ./Drivers/STM32F4xx_HAL_Driver/Src/stm32f4xx_hal_dma.o
 .comment       0x0000004c       0x4d ./Drivers/STM32F4xx_HAL_Driver/Src/stm32f4xx_hal_dma2d.o
 .comment       0x0000004c       0x4d ./Drivers/STM32F4xx_HAL_Driver/Src/stm32f4xx_hal_dma_ex.o
 .comment       0x0000004c       0x4d ./Drivers/STM32F4xx_HAL_Driver/Src/stm32f4xx_hal_exti.o
 .comment       0x0000004c       0x4d ./Drivers/STM32F4xx_HAL_Driver/Src/stm32f4xx_hal_gpio.o
 .comment       0x0000004c       0x4d ./Drivers/STM32F4xx_HAL_Driver/Src/stm32f4xx_hal_hash.o
 .comment       0x0000004c       0x4d ./Drivers/STM32F4xx_HAL_Driver/Src/stm32f4xx_hal_hash_ex.o
 .comment       0x0000004c       0x4d ./Drivers/STM32F4xx_HAL_Driver/Src/stm32f4xx_hal_iwdg.o
 .comment       0x0000004c       0x4d ./Drivers/STM32F4xx_HAL_Driver/Src/stm32f4xx_hal_mmc.o
 .comment       0x0000004c       0x4d ./Drivers/STM32F4xx_HAL_Driver/Src/stm32f4xx_hal_nand.o
 .comment       0x0000004c       0x4d ./Drivers/STM32F4xx_HAL_Driver/Src/stm32f4xx_hal_nor.o
 .comment       0x0000004c       0x4d ./Drivers/STM32F4xx_HAL_Driver/Src/stm32f4xx_hal_pcd.o
 .comment       0x0000004c       0x4d ./Drivers/STM32F4xx_HAL_Driver/Src/stm32f4xx_hal_pcd_ex.o
 .comment       0x0000004c       0x4d ./Drivers/STM32F4xx_HAL_Driver/Src/stm32f4xx_hal_pwr.o
 .comment       0x0000004c       0x4d ./Drivers/STM32F4xx_HAL_Driver/Src/stm32f4xx_hal_pwr_ex.o
 .comment       0x0000004c       0x4d ./Drivers/STM32F4xx_HAL_Driver/Src/stm32f4xx_hal_rcc.o
 .comment       0x0000004c       0x4d ./Drivers/STM32F4xx_HAL_Driver/Src/stm32f4xx_hal_rcc_ex.o
 .comment       0x0000004c       0x4d ./Drivers/STM32F4xx_HAL_Driver/Src/stm32f4xx_hal_rng.o
 .comment       0x0000004c       0x4d ./Drivers/STM32F4xx_HAL_Driver/Src/stm32f4xx_hal_rtc.o
 .comment       0x0000004c       0x4d ./Drivers/STM32F4xx_HAL_Driver/Src/stm32f4xx_hal_rtc_ex.o
 .comment       0x0000004c       0x4d ./Drivers/STM32F4xx_HAL_Driver/Src/stm32f4xx_hal_sai.o
 .comment       0x0000004c       0x4d ./Drivers/STM32F4xx_HAL_Driver/Src/stm32f4xx_hal_sd.o
 .comment       0x0000004c       0x4d ./Drivers/STM32F4xx_HAL_Driver/Src/stm32f4xx_hal_sdram.o
 .comment       0x0000004c       0x4d ./Drivers/STM32F4xx_HAL_Driver/Src/stm32f4xx_hal_smartcard.o
 .comment       0x0000004c       0x4d ./Drivers/STM32F4xx_HAL_Driver/Src/stm32f4xx_hal_smbus.o
 .comment       0x0000004c       0x4d ./Drivers/STM32F4xx_HAL_Driver/Src/stm32f4xx_hal_spdifrx.o
 .comment       0x0000004c       0x4d ./Drivers/STM32F4xx_HAL_Driver/Src/stm32f4xx_hal_spi.o
 .comment       0x0000004c       0x4d ./Drivers/STM32F4xx_HAL_Driver/Src/stm32f4xx_hal_sram.o
 .comment       0x0000004c       0x4d ./Drivers/STM32F4xx_HAL_Driver/Src/stm32f4xx_hal_tim.o
 .comment       0x0000004c       0x4d ./Drivers/STM32F4xx_HAL_Driver/Src/stm32f4xx_hal_tim_ex.o
 .comment       0x0000004c       0x4d ./Drivers/STM32F4xx_HAL_Driver/Src/stm32f4xx_hal_uart.o
 .comment       0x0000004c       0x4d ./Drivers/STM32F4xx_HAL_Driver/Src/stm32f4xx_hal_usart.o
 .comment       0x0000004c       0x4d ./Drivers/STM32F4xx_HAL_Driver/Src/stm32f4xx_hal_wwdg.o
 .comment       0x0000004c       0x4d ./Drivers/STM32F4xx_HAL_Driver/Src/stm32f4xx_ll_adc.o
 .comment       0x0000004c       0x4d ./Drivers/STM32F4xx_HAL_Driver/Src/stm32f4xx_ll_crc.o
 .comment       0x0000004c       0x4d ./Drivers/STM32F4xx_HAL_Driver/Src/stm32f4xx_ll_dac.o
 .comment       0x0000004c       0x4d ./Drivers/STM32F4xx_HAL_Driver/Src/stm32f4xx_ll_dma.o
 .comment       0x0000004c       0x4d ./Drivers/STM32F4xx_HAL_Driver/Src/stm32f4xx_ll_dma2d.o
 .comment       0x0000004c       0x4d ./Drivers/STM32F4xx_HAL_Driver/Src/stm32f4xx_ll_exti.o
 .comment       0x0000004c       0x4d ./Drivers/STM32F4xx_HAL_Driver/Src/stm32f4xx_ll_fmc.o
 .comment       0x0000004c       0x4d ./Drivers/STM32F4xx_HAL_Driver/Src/stm32f4xx_ll_fmpi2c.o
 .comment       0x0000004c       0x4d ./Drivers/STM32F4xx_HAL_Driver/Src/stm32f4xx_ll_fsmc.o
 .comment       0x0000004c       0x4d ./Drivers/STM32F4xx_HAL_Driver/Src/stm32f4xx_ll_gpio.o
 .comment       0x0000004c       0x4d ./Drivers/STM32F4xx_HAL_Driver/Src/stm32f4xx_ll_i2c.o
 .comment       0x0000004c       0x4d ./Drivers/STM32F4xx_HAL_Driver/Src/stm32f4xx_ll_lptim.o
 .comment       0x0000004c       0x4d ./Drivers/STM32F4xx_HAL_Driver/Src/stm32f4xx_ll_pwr.o
 .comment       0x0000004c       0x4d ./Drivers/STM32F4xx_HAL_Driver/Src/stm32f4xx_ll_rcc.o
 .comment       0x0000004c       0x4d ./Drivers/STM32F4xx_HAL_Driver/Src/stm32f4xx_ll_rng.o
 .comment       0x0000004c       0x4d ./Drivers/STM32F4xx_HAL_Driver/Src/stm32f4xx_ll_rtc.o
 .comment       0x0000004c       0x4d ./Drivers/STM32F4xx_HAL_Driver/Src/stm32f4xx_ll_sdmmc.o
 .comment       0x0000004c       0x4d ./Drivers/STM32F4xx_HAL_Driver/Src/stm32f4xx_ll_spi.o
 .comment       0x0000004c       0x4d ./Drivers/STM32F4xx_HAL_Driver/Src/stm32f4xx_ll_tim.o
 .comment       0x0000004c       0x4d ./Drivers/STM32F4xx_HAL_Driver/Src/stm32f4xx_ll_usart.o
 .comment       0x0000004c       0x4d ./Drivers/STM32F4xx_HAL_Driver/Src/stm32f4xx_ll_usb.o
 .comment       0x0000004c       0x4d ./Drivers/STM32F4xx_HAL_Driver/Src/stm32f4xx_ll_utils.o
 .comment       0x0000004c       0x4d ./Core/Src/main.o
 .comment       0x0000004c       0x4d ./Core/Src/stm32f4xx_hal_msp.o
 .comment       0x0000004c       0x4d ./Core/Src/stm32f4xx_it.o
 .comment       0x0000004c       0x4d ./Core/Src/system_stm32f4xx.o
 .comment       0x0000004c       0x4d e:/programms/gnu mcu eclipse/toolchain/arm-gnu-toolchain-12.2.mpacbti-bet1-mingw-w64-i686-arm-none-eabi/bin/../lib/gcc/arm-none-eabi/12.2.0/thumb/v7e-m+fp/hard\libgcc.a(_udivmoddi4.o)
 .comment       0x0000004c       0x4d e:/programms/gnu mcu eclipse/toolchain/arm-gnu-toolchain-12.2.mpacbti-bet1-mingw-w64-i686-arm-none-eabi/bin/../lib/gcc/arm-none-eabi/12.2.0/thumb/v7e-m+fp/hard\libg_nano.a(libc_a-memset.o)

.debug_loclists
                0x00000000     0x4304
 .debug_loclists
                0x00000000      0x3b3 ./Lib/ili9341/ili9341.o
 .debug_loclists
                0x000003b3       0xe2 ./Lib/ili9341/ili9341_touch.o
 .debug_loclists
                0x00000495       0xc9 ./Drivers/STM32F4xx_HAL_Driver/Src/stm32f4xx_hal.o
 .debug_loclists
                0x0000055e      0x439 ./Drivers/STM32F4xx_HAL_Driver/Src/stm32f4xx_hal_cortex.o
 .debug_loclists
                0x00000997      0x763 ./Drivers/STM32F4xx_HAL_Driver/Src/stm32f4xx_hal_dma.o
 .debug_loclists
                0x000010fa      0x296 ./Drivers/STM32F4xx_HAL_Driver/Src/stm32f4xx_hal_dma_ex.o
 .debug_loclists
                0x00001390      0x2b8 ./Drivers/STM32F4xx_HAL_Driver/Src/stm32f4xx_hal_exti.o
 .debug_loclists
                0x00001648      0x356 ./Drivers/STM32F4xx_HAL_Driver/Src/stm32f4xx_hal_gpio.o
 .debug_loclists
                0x0000199e       0x77 ./Drivers/STM32F4xx_HAL_Driver/Src/stm32f4xx_hal_pwr_ex.o
 .debug_loclists
                0x00001a15      0x3a9 ./Drivers/STM32F4xx_HAL_Driver/Src/stm32f4xx_hal_rcc.o
 .debug_loclists
                0x00001dbe      0x249 ./Drivers/STM32F4xx_HAL_Driver/Src/stm32f4xx_hal_rcc_ex.o
 .debug_loclists
                0x00002007     0x13a3 ./Drivers/STM32F4xx_HAL_Driver/Src/stm32f4xx_hal_spi.o
 .debug_loclists
                0x000033aa      0x3f3 ./Drivers/STM32F4xx_HAL_Driver/Src/stm32f4xx_ll_utils.o
 .debug_loclists
                0x0000379d       0x2c ./Core/Src/main.o
 .debug_loclists
                0x000037c9       0x5c ./Core/Src/stm32f4xx_hal_msp.o
 .debug_loclists
                0x00003825       0xdb ./Core/Src/system_stm32f4xx.o
 .debug_loclists
                0x00003900      0x9bd e:/programms/gnu mcu eclipse/toolchain/arm-gnu-toolchain-12.2.mpacbti-bet1-mingw-w64-i686-arm-none-eabi/bin/../lib/gcc/arm-none-eabi/12.2.0/thumb/v7e-m+fp/hard\libgcc.a(_udivmoddi4.o)
 .debug_loclists
                0x000042bd       0x47 e:/programms/gnu mcu eclipse/toolchain/arm-gnu-toolchain-12.2.mpacbti-bet1-mingw-w64-i686-arm-none-eabi/bin/../lib/gcc/arm-none-eabi/12.2.0/thumb/v7e-m+fp/hard\libg_nano.a(libc_a-memset.o)

.debug_rnglists
                0x00000000      0x759
 .debug_rnglists
                0x00000000       0x64 ./Lib/ili9341/ili9341.o
 .debug_rnglists
                0x00000064       0x32 ./Lib/ili9341/ili9341_touch.o
 .debug_rnglists
                0x00000096       0xaf ./Drivers/STM32F4xx_HAL_Driver/Src/stm32f4xx_hal.o
 .debug_rnglists
                0x00000145       0x9d ./Drivers/STM32F4xx_HAL_Driver/Src/stm32f4xx_hal_cortex.o
 .debug_rnglists
                0x000001e2       0x6c ./Drivers/STM32F4xx_HAL_Driver/Src/stm32f4xx_hal_dma.o
 .debug_rnglists
                0x0000024e       0x26 ./Drivers/STM32F4xx_HAL_Driver/Src/stm32f4xx_hal_dma_ex.o
 .debug_rnglists
                0x00000274       0x46 ./Drivers/STM32F4xx_HAL_Driver/Src/stm32f4xx_hal_exti.o
 .debug_rnglists
                0x000002ba       0x3f ./Drivers/STM32F4xx_HAL_Driver/Src/stm32f4xx_hal_gpio.o
 .debug_rnglists
                0x000002f9       0x74 ./Drivers/STM32F4xx_HAL_Driver/Src/stm32f4xx_hal_pwr.o
 .debug_rnglists
                0x0000036d       0x31 ./Drivers/STM32F4xx_HAL_Driver/Src/stm32f4xx_hal_pwr_ex.o
 .debug_rnglists
                0x0000039e       0x75 ./Drivers/STM32F4xx_HAL_Driver/Src/stm32f4xx_hal_rcc.o
 .debug_rnglists
                0x00000413       0x33 ./Drivers/STM32F4xx_HAL_Driver/Src/stm32f4xx_hal_rcc_ex.o
 .debug_rnglists
                0x00000446      0x169 ./Drivers/STM32F4xx_HAL_Driver/Src/stm32f4xx_hal_spi.o
 .debug_rnglists
                0x000005af       0x46 ./Drivers/STM32F4xx_HAL_Driver/Src/stm32f4xx_ll_utils.o
 .debug_rnglists
                0x000005f5       0x3a ./Core/Src/main.o
 .debug_rnglists
                0x0000062f       0x1f ./Core/Src/stm32f4xx_hal_msp.o
 .debug_rnglists
                0x0000064e       0x43 ./Core/Src/stm32f4xx_it.o
 .debug_rnglists
                0x00000691       0x1a ./Core/Src/system_stm32f4xx.o
 .debug_rnglists
                0x000006ab       0x9b e:/programms/gnu mcu eclipse/toolchain/arm-gnu-toolchain-12.2.mpacbti-bet1-mingw-w64-i686-arm-none-eabi/bin/../lib/gcc/arm-none-eabi/12.2.0/thumb/v7e-m+fp/hard\libgcc.a(_udivmoddi4.o)
 .debug_rnglists
                0x00000746       0x13 e:/programms/gnu mcu eclipse/toolchain/arm-gnu-toolchain-12.2.mpacbti-bet1-mingw-w64-i686-arm-none-eabi/bin/../lib/gcc/arm-none-eabi/12.2.0/thumb/v7e-m+fp/hard\libg_nano.a(libc_a-memset.o)

.debug_frame    0x00000000     0x16cc
 .debug_frame   0x00000000      0x200 ./Lib/ili9341/ili9341.o
 .debug_frame   0x00000200       0x88 ./Lib/ili9341/ili9341_touch.o
 .debug_frame   0x00000288      0x1ec ./Drivers/STM32F4xx_HAL_Driver/Src/stm32f4xx_hal.o
 .debug_frame   0x00000474      0x1cc ./Drivers/STM32F4xx_HAL_Driver/Src/stm32f4xx_hal_cortex.o
 .debug_frame   0x00000640      0x188 ./Drivers/STM32F4xx_HAL_Driver/Src/stm32f4xx_hal_dma.o
 .debug_frame   0x000007c8       0x74 ./Drivers/STM32F4xx_HAL_Driver/Src/stm32f4xx_hal_dma_ex.o
 .debug_frame   0x0000083c       0xd4 ./Drivers/STM32F4xx_HAL_Driver/Src/stm32f4xx_hal_exti.o
 .debug_frame   0x00000910       0xd8 ./Drivers/STM32F4xx_HAL_Driver/Src/stm32f4xx_hal_gpio.o
 .debug_frame   0x000009e8      0x138 ./Drivers/STM32F4xx_HAL_Driver/Src/stm32f4xx_hal_pwr.o
 .debug_frame   0x00000b20       0x90 ./Drivers/STM32F4xx_HAL_Driver/Src/stm32f4xx_hal_pwr_ex.o
 .debug_frame   0x00000bb0      0x16c ./Drivers/STM32F4xx_HAL_Driver/Src/stm32f4xx_hal_rcc.o
 .debug_frame   0x00000d1c       0xa4 ./Drivers/STM32F4xx_HAL_Driver/Src/stm32f4xx_hal_rcc_ex.o
 .debug_frame   0x00000dc0      0x5a4 ./Drivers/STM32F4xx_HAL_Driver/Src/stm32f4xx_hal_spi.o
 .debug_frame   0x00001364       0xd4 ./Drivers/STM32F4xx_HAL_Driver/Src/stm32f4xx_ll_utils.o
 .debug_frame   0x00001438       0xdc ./Core/Src/main.o
 .debug_frame   0x00001514       0x60 ./Core/Src/stm32f4xx_hal_msp.o
 .debug_frame   0x00001574       0xa8 ./Core/Src/stm32f4xx_it.o
 .debug_frame   0x0000161c       0x30 ./Core/Src/system_stm32f4xx.o
 .debug_frame   0x0000164c       0x2c e:/programms/gnu mcu eclipse/toolchain/arm-gnu-toolchain-12.2.mpacbti-bet1-mingw-w64-i686-arm-none-eabi/bin/../lib/gcc/arm-none-eabi/12.2.0/thumb/v7e-m+fp/hard\libgcc.a(_aeabi_uldivmod.o)
 .debug_frame   0x00001678       0x34 e:/programms/gnu mcu eclipse/toolchain/arm-gnu-toolchain-12.2.mpacbti-bet1-mingw-w64-i686-arm-none-eabi/bin/../lib/gcc/arm-none-eabi/12.2.0/thumb/v7e-m+fp/hard\libgcc.a(_udivmoddi4.o)
 .debug_frame   0x000016ac       0x20 e:/programms/gnu mcu eclipse/toolchain/arm-gnu-toolchain-12.2.mpacbti-bet1-mingw-w64-i686-arm-none-eabi/bin/../lib/gcc/arm-none-eabi/12.2.0/thumb/v7e-m+fp/hard\libg_nano.a(libc_a-memset.o)

.debug_line_str
                0x00000000       0xe5
 .debug_line_str
                0x00000000       0xd9 e:/programms/gnu mcu eclipse/toolchain/arm-gnu-toolchain-12.2.mpacbti-bet1-mingw-w64-i686-arm-none-eabi/bin/../lib/gcc/arm-none-eabi/12.2.0/thumb/v7e-m+fp/hard\libgcc.a(_aeabi_uldivmod.o)
 .debug_line_str
                0x000000d9        0xc e:/programms/gnu mcu eclipse/toolchain/arm-gnu-toolchain-12.2.mpacbti-bet1-mingw-w64-i686-arm-none-eabi/bin/../lib/gcc/arm-none-eabi/12.2.0/thumb/v7e-m+fp/hard\libgcc.a(_dvmd_tls.o)
                                 0xdd (size before relaxing)
