ARM GAS  C:\Users\Alex\AppData\Local\Temp\ccTAhA5q.s 			page 1


   1              		.cpu cortex-m4
   2              		.arch armv7e-m
   3              		.fpu fpv4-sp-d16
   4              		.eabi_attribute 27, 1
   5              		.eabi_attribute 28, 1
   6              		.eabi_attribute 20, 1
   7              		.eabi_attribute 21, 1
   8              		.eabi_attribute 23, 3
   9              		.eabi_attribute 24, 1
  10              		.eabi_attribute 25, 1
  11              		.eabi_attribute 26, 1
  12              		.eabi_attribute 30, 1
  13              		.eabi_attribute 34, 1
  14              		.eabi_attribute 18, 4
  15              		.file	"lv_array.c"
  16              		.text
  17              	.Ltext0:
  18              		.cfi_sections	.debug_frame
  19              		.file 1 "Lib/lvgl/src/misc/lv_array.c"
  20              		.section	.text.lv_array_init,"ax",%progbits
  21              		.align	1
  22              		.global	lv_array_init
  23              		.syntax unified
  24              		.thumb
  25              		.thumb_func
  27              	lv_array_init:
  28              	.LVL0:
  29              	.LFB8:
   1:Lib/lvgl/src/misc/lv_array.c **** /**
   2:Lib/lvgl/src/misc/lv_array.c ****  * @file lv_array.c
   3:Lib/lvgl/src/misc/lv_array.c ****  * Array.
   4:Lib/lvgl/src/misc/lv_array.c ****  * The nodes are dynamically allocated by the 'lv_mem' module,
   5:Lib/lvgl/src/misc/lv_array.c ****  */
   6:Lib/lvgl/src/misc/lv_array.c **** 
   7:Lib/lvgl/src/misc/lv_array.c **** /*********************
   8:Lib/lvgl/src/misc/lv_array.c ****  *      INCLUDES
   9:Lib/lvgl/src/misc/lv_array.c ****  *********************/
  10:Lib/lvgl/src/misc/lv_array.c **** #include "lv_array.h"
  11:Lib/lvgl/src/misc/lv_array.c **** #include "../stdlib/lv_mem.h"
  12:Lib/lvgl/src/misc/lv_array.c **** #include "../stdlib/lv_string.h"
  13:Lib/lvgl/src/misc/lv_array.c **** 
  14:Lib/lvgl/src/misc/lv_array.c **** #include "lv_assert.h"
  15:Lib/lvgl/src/misc/lv_array.c **** /*********************
  16:Lib/lvgl/src/misc/lv_array.c ****  *      DEFINES
  17:Lib/lvgl/src/misc/lv_array.c ****  *********************/
  18:Lib/lvgl/src/misc/lv_array.c **** 
  19:Lib/lvgl/src/misc/lv_array.c **** /**********************
  20:Lib/lvgl/src/misc/lv_array.c ****  *      TYPEDEFS
  21:Lib/lvgl/src/misc/lv_array.c ****  **********************/
  22:Lib/lvgl/src/misc/lv_array.c **** 
  23:Lib/lvgl/src/misc/lv_array.c **** /**********************
  24:Lib/lvgl/src/misc/lv_array.c ****  *  STATIC PROTOTYPES
  25:Lib/lvgl/src/misc/lv_array.c ****  **********************/
  26:Lib/lvgl/src/misc/lv_array.c **** 
  27:Lib/lvgl/src/misc/lv_array.c **** /**********************
  28:Lib/lvgl/src/misc/lv_array.c ****  *  STATIC VARIABLES
  29:Lib/lvgl/src/misc/lv_array.c ****  **********************/
ARM GAS  C:\Users\Alex\AppData\Local\Temp\ccTAhA5q.s 			page 2


  30:Lib/lvgl/src/misc/lv_array.c **** 
  31:Lib/lvgl/src/misc/lv_array.c **** /**********************
  32:Lib/lvgl/src/misc/lv_array.c ****  *      MACROS
  33:Lib/lvgl/src/misc/lv_array.c ****  **********************/
  34:Lib/lvgl/src/misc/lv_array.c **** 
  35:Lib/lvgl/src/misc/lv_array.c **** /**********************
  36:Lib/lvgl/src/misc/lv_array.c ****  *   GLOBAL FUNCTIONS
  37:Lib/lvgl/src/misc/lv_array.c ****  **********************/
  38:Lib/lvgl/src/misc/lv_array.c **** void lv_array_init(lv_array_t * array, uint32_t capacity, uint32_t element_size)
  39:Lib/lvgl/src/misc/lv_array.c **** {
  30              		.loc 1 39 1 view -0
  31              		.cfi_startproc
  32              		@ args = 0, pretend = 0, frame = 0
  33              		@ frame_needed = 0, uses_anonymous_args = 0
  34              		.loc 1 39 1 is_stmt 0 view .LVU1
  35 0000 10B5     		push	{r4, lr}
  36              	.LCFI0:
  37              		.cfi_def_cfa_offset 8
  38              		.cfi_offset 4, -8
  39              		.cfi_offset 14, -4
  40 0002 0446     		mov	r4, r0
  40:Lib/lvgl/src/misc/lv_array.c ****     array->size = 0;
  41              		.loc 1 40 5 is_stmt 1 view .LVU2
  42              		.loc 1 40 17 is_stmt 0 view .LVU3
  43 0004 0023     		movs	r3, #0
  44 0006 4360     		str	r3, [r0, #4]
  41:Lib/lvgl/src/misc/lv_array.c ****     array->capacity = capacity;
  45              		.loc 1 41 5 is_stmt 1 view .LVU4
  46              		.loc 1 41 21 is_stmt 0 view .LVU5
  47 0008 8160     		str	r1, [r0, #8]
  42:Lib/lvgl/src/misc/lv_array.c ****     array->element_size = element_size;
  48              		.loc 1 42 5 is_stmt 1 view .LVU6
  49              		.loc 1 42 25 is_stmt 0 view .LVU7
  50 000a C260     		str	r2, [r0, #12]
  43:Lib/lvgl/src/misc/lv_array.c **** 
  44:Lib/lvgl/src/misc/lv_array.c ****     array->data = lv_malloc(capacity * element_size);
  51              		.loc 1 44 5 is_stmt 1 view .LVU8
  52              		.loc 1 44 19 is_stmt 0 view .LVU9
  53 000c 02FB01F0 		mul	r0, r2, r1
  54              	.LVL1:
  55              		.loc 1 44 19 view .LVU10
  56 0010 FFF7FEFF 		bl	lv_malloc
  57              	.LVL2:
  58              		.loc 1 44 17 view .LVU11
  59 0014 2060     		str	r0, [r4]
  45:Lib/lvgl/src/misc/lv_array.c ****     LV_ASSERT_MALLOC(array->data);
  60              		.loc 1 45 5 is_stmt 1 view .LVU12
  61              		.loc 1 45 5 view .LVU13
  62 0016 00B1     		cbz	r0, .L3
  46:Lib/lvgl/src/misc/lv_array.c **** }
  63              		.loc 1 46 1 is_stmt 0 view .LVU14
  64 0018 10BD     		pop	{r4, pc}
  65              	.LVL3:
  66              	.L3:
  45:Lib/lvgl/src/misc/lv_array.c ****     LV_ASSERT_MALLOC(array->data);
  67              		.loc 1 45 5 is_stmt 1 discriminator 1 view .LVU15
  45:Lib/lvgl/src/misc/lv_array.c ****     LV_ASSERT_MALLOC(array->data);
ARM GAS  C:\Users\Alex\AppData\Local\Temp\ccTAhA5q.s 			page 3


  68              		.loc 1 45 5 discriminator 1 view .LVU16
  45:Lib/lvgl/src/misc/lv_array.c ****     LV_ASSERT_MALLOC(array->data);
  69              		.loc 1 45 5 discriminator 1 view .LVU17
  45:Lib/lvgl/src/misc/lv_array.c ****     LV_ASSERT_MALLOC(array->data);
  70              		.loc 1 45 5 discriminator 1 view .LVU18
  45:Lib/lvgl/src/misc/lv_array.c ****     LV_ASSERT_MALLOC(array->data);
  71              		.loc 1 45 5 discriminator 1 view .LVU19
  72 001a FEE7     		b	.L3
  73              		.cfi_endproc
  74              	.LFE8:
  76              		.section	.text.lv_array_deinit,"ax",%progbits
  77              		.align	1
  78              		.global	lv_array_deinit
  79              		.syntax unified
  80              		.thumb
  81              		.thumb_func
  83              	lv_array_deinit:
  84              	.LVL4:
  85              	.LFB9:
  47:Lib/lvgl/src/misc/lv_array.c **** 
  48:Lib/lvgl/src/misc/lv_array.c **** void lv_array_deinit(lv_array_t * array)
  49:Lib/lvgl/src/misc/lv_array.c **** {
  86              		.loc 1 49 1 view -0
  87              		.cfi_startproc
  88              		@ args = 0, pretend = 0, frame = 0
  89              		@ frame_needed = 0, uses_anonymous_args = 0
  90              		.loc 1 49 1 is_stmt 0 view .LVU21
  91 0000 10B5     		push	{r4, lr}
  92              	.LCFI1:
  93              		.cfi_def_cfa_offset 8
  94              		.cfi_offset 4, -8
  95              		.cfi_offset 14, -4
  96 0002 0446     		mov	r4, r0
  50:Lib/lvgl/src/misc/lv_array.c ****     if(array->data) {
  97              		.loc 1 50 5 is_stmt 1 view .LVU22
  98              		.loc 1 50 13 is_stmt 0 view .LVU23
  99 0004 0068     		ldr	r0, [r0]
 100              	.LVL5:
 101              		.loc 1 50 7 view .LVU24
 102 0006 18B1     		cbz	r0, .L6
  51:Lib/lvgl/src/misc/lv_array.c ****         lv_free(array->data);
 103              		.loc 1 51 9 is_stmt 1 view .LVU25
 104 0008 FFF7FEFF 		bl	lv_free
 105              	.LVL6:
  52:Lib/lvgl/src/misc/lv_array.c ****         array->data = NULL;
 106              		.loc 1 52 9 view .LVU26
 107              		.loc 1 52 21 is_stmt 0 view .LVU27
 108 000c 0023     		movs	r3, #0
 109 000e 2360     		str	r3, [r4]
 110              	.L6:
  53:Lib/lvgl/src/misc/lv_array.c ****     }
  54:Lib/lvgl/src/misc/lv_array.c **** 
  55:Lib/lvgl/src/misc/lv_array.c ****     array->size = 0;
 111              		.loc 1 55 5 is_stmt 1 view .LVU28
 112              		.loc 1 55 17 is_stmt 0 view .LVU29
 113 0010 0023     		movs	r3, #0
 114 0012 6360     		str	r3, [r4, #4]
ARM GAS  C:\Users\Alex\AppData\Local\Temp\ccTAhA5q.s 			page 4


  56:Lib/lvgl/src/misc/lv_array.c ****     array->capacity = 0;
 115              		.loc 1 56 5 is_stmt 1 view .LVU30
 116              		.loc 1 56 21 is_stmt 0 view .LVU31
 117 0014 A360     		str	r3, [r4, #8]
  57:Lib/lvgl/src/misc/lv_array.c **** }
 118              		.loc 1 57 1 view .LVU32
 119 0016 10BD     		pop	{r4, pc}
 120              		.loc 1 57 1 view .LVU33
 121              		.cfi_endproc
 122              	.LFE9:
 124              		.section	.text.lv_array_copy,"ax",%progbits
 125              		.align	1
 126              		.global	lv_array_copy
 127              		.syntax unified
 128              		.thumb
 129              		.thumb_func
 131              	lv_array_copy:
 132              	.LVL7:
 133              	.LFB10:
  58:Lib/lvgl/src/misc/lv_array.c **** 
  59:Lib/lvgl/src/misc/lv_array.c **** void lv_array_copy(lv_array_t * target, const lv_array_t * source)
  60:Lib/lvgl/src/misc/lv_array.c **** {
 134              		.loc 1 60 1 is_stmt 1 view -0
 135              		.cfi_startproc
 136              		@ args = 0, pretend = 0, frame = 0
 137              		@ frame_needed = 0, uses_anonymous_args = 0
 138              		.loc 1 60 1 is_stmt 0 view .LVU35
 139 0000 38B5     		push	{r3, r4, r5, lr}
 140              	.LCFI2:
 141              		.cfi_def_cfa_offset 16
 142              		.cfi_offset 3, -16
 143              		.cfi_offset 4, -12
 144              		.cfi_offset 5, -8
 145              		.cfi_offset 14, -4
  61:Lib/lvgl/src/misc/lv_array.c ****     if(lv_array_is_empty(source)) {
 146              		.loc 1 61 5 is_stmt 1 view .LVU36
 147              	.LVL8:
 148              	.LBB4:
 149              	.LBI4:
 150              		.file 2 "Lib/lvgl/src/misc/lv_array.h"
   1:Lib/lvgl/src/misc/lv_array.h **** /**
   2:Lib/lvgl/src/misc/lv_array.h ****  * @file lv_array.h
   3:Lib/lvgl/src/misc/lv_array.h ****  * Array. The elements are dynamically allocated by the 'lv_mem' module.
   4:Lib/lvgl/src/misc/lv_array.h ****  */
   5:Lib/lvgl/src/misc/lv_array.h **** 
   6:Lib/lvgl/src/misc/lv_array.h **** #ifndef LV_ARRAY_H
   7:Lib/lvgl/src/misc/lv_array.h **** #define LV_ARRAY_H
   8:Lib/lvgl/src/misc/lv_array.h **** 
   9:Lib/lvgl/src/misc/lv_array.h **** #ifdef __cplusplus
  10:Lib/lvgl/src/misc/lv_array.h **** extern "C" {
  11:Lib/lvgl/src/misc/lv_array.h **** #endif
  12:Lib/lvgl/src/misc/lv_array.h **** 
  13:Lib/lvgl/src/misc/lv_array.h **** /*********************
  14:Lib/lvgl/src/misc/lv_array.h ****  *      INCLUDES
  15:Lib/lvgl/src/misc/lv_array.h ****  *********************/
  16:Lib/lvgl/src/misc/lv_array.h **** #include <stdint.h>
  17:Lib/lvgl/src/misc/lv_array.h **** #include <stddef.h>
ARM GAS  C:\Users\Alex\AppData\Local\Temp\ccTAhA5q.s 			page 5


  18:Lib/lvgl/src/misc/lv_array.h **** #include <stdbool.h>
  19:Lib/lvgl/src/misc/lv_array.h **** 
  20:Lib/lvgl/src/misc/lv_array.h **** #include "lv_types.h"
  21:Lib/lvgl/src/misc/lv_array.h **** 
  22:Lib/lvgl/src/misc/lv_array.h **** /*********************
  23:Lib/lvgl/src/misc/lv_array.h ****  *      DEFINES
  24:Lib/lvgl/src/misc/lv_array.h ****  *********************/
  25:Lib/lvgl/src/misc/lv_array.h **** #define LV_ARRAY_DEFAULT_CAPACITY 8
  26:Lib/lvgl/src/misc/lv_array.h **** 
  27:Lib/lvgl/src/misc/lv_array.h **** /**********************
  28:Lib/lvgl/src/misc/lv_array.h ****  *      TYPEDEFS
  29:Lib/lvgl/src/misc/lv_array.h ****  **********************/
  30:Lib/lvgl/src/misc/lv_array.h **** 
  31:Lib/lvgl/src/misc/lv_array.h **** /** Description of a array*/
  32:Lib/lvgl/src/misc/lv_array.h **** typedef struct {
  33:Lib/lvgl/src/misc/lv_array.h ****     uint8_t * data;
  34:Lib/lvgl/src/misc/lv_array.h ****     uint32_t size;
  35:Lib/lvgl/src/misc/lv_array.h ****     uint32_t capacity;
  36:Lib/lvgl/src/misc/lv_array.h ****     uint32_t element_size;
  37:Lib/lvgl/src/misc/lv_array.h **** } lv_array_t;
  38:Lib/lvgl/src/misc/lv_array.h **** 
  39:Lib/lvgl/src/misc/lv_array.h **** /**********************
  40:Lib/lvgl/src/misc/lv_array.h ****  * GLOBAL PROTOTYPES
  41:Lib/lvgl/src/misc/lv_array.h ****  **********************/
  42:Lib/lvgl/src/misc/lv_array.h **** 
  43:Lib/lvgl/src/misc/lv_array.h **** /**
  44:Lib/lvgl/src/misc/lv_array.h ****  * Init an array.
  45:Lib/lvgl/src/misc/lv_array.h ****  * @param array pointer to an `lv_array_t` variable to initialize
  46:Lib/lvgl/src/misc/lv_array.h ****  * @param capacity the initial capacity of the array
  47:Lib/lvgl/src/misc/lv_array.h ****  * @param element_size the size of an element in bytes
  48:Lib/lvgl/src/misc/lv_array.h ****  */
  49:Lib/lvgl/src/misc/lv_array.h **** void lv_array_init(lv_array_t * array, uint32_t capacity, uint32_t element_size);
  50:Lib/lvgl/src/misc/lv_array.h **** 
  51:Lib/lvgl/src/misc/lv_array.h **** /**
  52:Lib/lvgl/src/misc/lv_array.h ****  * Resize the array to the given capacity.
  53:Lib/lvgl/src/misc/lv_array.h ****  * @note if the new capacity is smaller than the current size, the array will be truncated.
  54:Lib/lvgl/src/misc/lv_array.h ****  * @param array pointer to an `lv_array_t` variable
  55:Lib/lvgl/src/misc/lv_array.h ****  * @param new_capacity the new capacity of the array
  56:Lib/lvgl/src/misc/lv_array.h ****  */
  57:Lib/lvgl/src/misc/lv_array.h **** void lv_array_resize(lv_array_t * array, uint32_t new_capacity);
  58:Lib/lvgl/src/misc/lv_array.h **** 
  59:Lib/lvgl/src/misc/lv_array.h **** /**
  60:Lib/lvgl/src/misc/lv_array.h ****  * Deinit the array, and free the allocated memory
  61:Lib/lvgl/src/misc/lv_array.h ****  * @param array pointer to an `lv_array_t` variable to deinitialize
  62:Lib/lvgl/src/misc/lv_array.h ****  */
  63:Lib/lvgl/src/misc/lv_array.h **** void lv_array_deinit(lv_array_t * array);
  64:Lib/lvgl/src/misc/lv_array.h **** 
  65:Lib/lvgl/src/misc/lv_array.h **** /**
  66:Lib/lvgl/src/misc/lv_array.h ****  * Return how many elements are stored in the array.
  67:Lib/lvgl/src/misc/lv_array.h ****  * @param array pointer to an `lv_array_t` variable
  68:Lib/lvgl/src/misc/lv_array.h ****  * @return the number of elements stored in the array
  69:Lib/lvgl/src/misc/lv_array.h ****  */
  70:Lib/lvgl/src/misc/lv_array.h **** static inline uint32_t lv_array_size(const lv_array_t * array)
  71:Lib/lvgl/src/misc/lv_array.h **** {
  72:Lib/lvgl/src/misc/lv_array.h ****     return array->size;
  73:Lib/lvgl/src/misc/lv_array.h **** }
  74:Lib/lvgl/src/misc/lv_array.h **** 
ARM GAS  C:\Users\Alex\AppData\Local\Temp\ccTAhA5q.s 			page 6


  75:Lib/lvgl/src/misc/lv_array.h **** /**
  76:Lib/lvgl/src/misc/lv_array.h ****  * Return the capacity of the array, i.e. how many elements can be stored.
  77:Lib/lvgl/src/misc/lv_array.h ****  * @param array pointer to an `lv_array_t` variable
  78:Lib/lvgl/src/misc/lv_array.h ****  * @return the capacity of the array
  79:Lib/lvgl/src/misc/lv_array.h ****  */
  80:Lib/lvgl/src/misc/lv_array.h **** static inline uint32_t lv_array_capacity(const lv_array_t * array)
  81:Lib/lvgl/src/misc/lv_array.h **** {
  82:Lib/lvgl/src/misc/lv_array.h ****     return array->capacity;
  83:Lib/lvgl/src/misc/lv_array.h **** }
  84:Lib/lvgl/src/misc/lv_array.h **** 
  85:Lib/lvgl/src/misc/lv_array.h **** /**
  86:Lib/lvgl/src/misc/lv_array.h ****  * Return if the array is empty
  87:Lib/lvgl/src/misc/lv_array.h ****  * @param array pointer to an `lv_array_t` variable
  88:Lib/lvgl/src/misc/lv_array.h ****  * @return true: array is empty; false: array is not empty
  89:Lib/lvgl/src/misc/lv_array.h ****  */
  90:Lib/lvgl/src/misc/lv_array.h **** static inline bool lv_array_is_empty(const lv_array_t * array)
 151              		.loc 2 90 20 view .LVU37
 152              	.LBB5:
  91:Lib/lvgl/src/misc/lv_array.h **** {
  92:Lib/lvgl/src/misc/lv_array.h ****     return array->size == 0;
 153              		.loc 2 92 5 view .LVU38
 154              		.loc 2 92 17 is_stmt 0 view .LVU39
 155 0002 4B68     		ldr	r3, [r1, #4]
 156              	.LVL9:
 157              		.loc 2 92 17 view .LVU40
 158              	.LBE5:
 159              	.LBE4:
 160              		.loc 1 61 7 view .LVU41
 161 0004 03B9     		cbnz	r3, .L11
 162              	.LVL10:
 163              	.L8:
  62:Lib/lvgl/src/misc/lv_array.c ****         return;
  63:Lib/lvgl/src/misc/lv_array.c ****     }
  64:Lib/lvgl/src/misc/lv_array.c ****     lv_array_deinit(target);
  65:Lib/lvgl/src/misc/lv_array.c ****     lv_array_init(target, source->capacity, source->element_size);
  66:Lib/lvgl/src/misc/lv_array.c ****     lv_memcpy(target->data, source->data, source->size * source->element_size);
  67:Lib/lvgl/src/misc/lv_array.c ****     target->size = source->size;
  68:Lib/lvgl/src/misc/lv_array.c **** }
 164              		.loc 1 68 1 view .LVU42
 165 0006 38BD     		pop	{r3, r4, r5, pc}
 166              	.LVL11:
 167              	.L11:
 168              		.loc 1 68 1 view .LVU43
 169 0008 0546     		mov	r5, r0
 170 000a 0C46     		mov	r4, r1
  64:Lib/lvgl/src/misc/lv_array.c ****     lv_array_init(target, source->capacity, source->element_size);
 171              		.loc 1 64 5 is_stmt 1 view .LVU44
 172 000c FFF7FEFF 		bl	lv_array_deinit
 173              	.LVL12:
  65:Lib/lvgl/src/misc/lv_array.c ****     lv_memcpy(target->data, source->data, source->size * source->element_size);
 174              		.loc 1 65 5 view .LVU45
 175 0010 E268     		ldr	r2, [r4, #12]
 176 0012 A168     		ldr	r1, [r4, #8]
 177 0014 2846     		mov	r0, r5
 178 0016 FFF7FEFF 		bl	lv_array_init
 179              	.LVL13:
  66:Lib/lvgl/src/misc/lv_array.c ****     target->size = source->size;
ARM GAS  C:\Users\Alex\AppData\Local\Temp\ccTAhA5q.s 			page 7


 180              		.loc 1 66 5 view .LVU46
  66:Lib/lvgl/src/misc/lv_array.c ****     target->size = source->size;
 181              		.loc 1 66 49 is_stmt 0 view .LVU47
 182 001a 6368     		ldr	r3, [r4, #4]
  66:Lib/lvgl/src/misc/lv_array.c ****     target->size = source->size;
 183              		.loc 1 66 64 view .LVU48
 184 001c E268     		ldr	r2, [r4, #12]
  66:Lib/lvgl/src/misc/lv_array.c ****     target->size = source->size;
 185              		.loc 1 66 5 view .LVU49
 186 001e 03FB02F2 		mul	r2, r3, r2
 187 0022 2168     		ldr	r1, [r4]
 188 0024 2868     		ldr	r0, [r5]
 189 0026 FFF7FEFF 		bl	lv_memcpy
 190              	.LVL14:
  67:Lib/lvgl/src/misc/lv_array.c **** }
 191              		.loc 1 67 5 is_stmt 1 view .LVU50
  67:Lib/lvgl/src/misc/lv_array.c **** }
 192              		.loc 1 67 26 is_stmt 0 view .LVU51
 193 002a 6368     		ldr	r3, [r4, #4]
  67:Lib/lvgl/src/misc/lv_array.c **** }
 194              		.loc 1 67 18 view .LVU52
 195 002c 6B60     		str	r3, [r5, #4]
 196 002e EAE7     		b	.L8
 197              		.cfi_endproc
 198              	.LFE10:
 200              		.section	.text.lv_array_resize,"ax",%progbits
 201              		.align	1
 202              		.global	lv_array_resize
 203              		.syntax unified
 204              		.thumb
 205              		.thumb_func
 207              	lv_array_resize:
 208              	.LVL15:
 209              	.LFB13:
  69:Lib/lvgl/src/misc/lv_array.c **** 
  70:Lib/lvgl/src/misc/lv_array.c **** lv_result_t lv_array_remove(lv_array_t * array, uint32_t index)
  71:Lib/lvgl/src/misc/lv_array.c **** {
  72:Lib/lvgl/src/misc/lv_array.c ****     if(index >= array->size) {
  73:Lib/lvgl/src/misc/lv_array.c ****         return LV_RESULT_INVALID;
  74:Lib/lvgl/src/misc/lv_array.c ****     }
  75:Lib/lvgl/src/misc/lv_array.c **** 
  76:Lib/lvgl/src/misc/lv_array.c ****     /*Shortcut*/
  77:Lib/lvgl/src/misc/lv_array.c ****     if(index == array->size - 1) {
  78:Lib/lvgl/src/misc/lv_array.c ****         lv_array_resize(array, array->size - 1);
  79:Lib/lvgl/src/misc/lv_array.c ****         return LV_RESULT_OK;
  80:Lib/lvgl/src/misc/lv_array.c ****     }
  81:Lib/lvgl/src/misc/lv_array.c **** 
  82:Lib/lvgl/src/misc/lv_array.c ****     uint8_t * start = lv_array_at(array, index);
  83:Lib/lvgl/src/misc/lv_array.c ****     uint8_t * remaining = start + array->element_size;
  84:Lib/lvgl/src/misc/lv_array.c ****     uint32_t remaining_size = (array->size - index - 1) * array->element_size;
  85:Lib/lvgl/src/misc/lv_array.c ****     lv_memcpy(start, remaining, remaining_size);
  86:Lib/lvgl/src/misc/lv_array.c ****     lv_array_resize(array, array->size - 1);
  87:Lib/lvgl/src/misc/lv_array.c ****     return LV_RESULT_OK;
  88:Lib/lvgl/src/misc/lv_array.c **** }
  89:Lib/lvgl/src/misc/lv_array.c **** 
  90:Lib/lvgl/src/misc/lv_array.c **** lv_result_t lv_array_erase(lv_array_t * array, uint32_t start, uint32_t end)
  91:Lib/lvgl/src/misc/lv_array.c **** {
ARM GAS  C:\Users\Alex\AppData\Local\Temp\ccTAhA5q.s 			page 8


  92:Lib/lvgl/src/misc/lv_array.c ****     if(end > array->size) {
  93:Lib/lvgl/src/misc/lv_array.c ****         end = array->size;
  94:Lib/lvgl/src/misc/lv_array.c ****     }
  95:Lib/lvgl/src/misc/lv_array.c **** 
  96:Lib/lvgl/src/misc/lv_array.c ****     if(start >= end) {
  97:Lib/lvgl/src/misc/lv_array.c ****         return LV_RESULT_INVALID;
  98:Lib/lvgl/src/misc/lv_array.c ****     }
  99:Lib/lvgl/src/misc/lv_array.c **** 
 100:Lib/lvgl/src/misc/lv_array.c ****     /*Shortcut*/
 101:Lib/lvgl/src/misc/lv_array.c ****     if(end == array->size) {
 102:Lib/lvgl/src/misc/lv_array.c ****         lv_array_resize(array, start);
 103:Lib/lvgl/src/misc/lv_array.c ****         return LV_RESULT_OK;
 104:Lib/lvgl/src/misc/lv_array.c ****     }
 105:Lib/lvgl/src/misc/lv_array.c **** 
 106:Lib/lvgl/src/misc/lv_array.c ****     uint8_t * start_p = lv_array_at(array, start);
 107:Lib/lvgl/src/misc/lv_array.c ****     uint8_t * remaining = start_p + (end - start) * array->element_size;
 108:Lib/lvgl/src/misc/lv_array.c ****     uint32_t remaining_size = (array->size - end) * array->element_size;
 109:Lib/lvgl/src/misc/lv_array.c ****     lv_memcpy(start_p, remaining, remaining_size);
 110:Lib/lvgl/src/misc/lv_array.c ****     lv_array_resize(array, array->size - (end - start));
 111:Lib/lvgl/src/misc/lv_array.c ****     return LV_RESULT_OK;
 112:Lib/lvgl/src/misc/lv_array.c **** }
 113:Lib/lvgl/src/misc/lv_array.c **** 
 114:Lib/lvgl/src/misc/lv_array.c **** void lv_array_resize(lv_array_t * array, uint32_t new_capacity)
 115:Lib/lvgl/src/misc/lv_array.c **** {
 210              		.loc 1 115 1 is_stmt 1 view -0
 211              		.cfi_startproc
 212              		@ args = 0, pretend = 0, frame = 0
 213              		@ frame_needed = 0, uses_anonymous_args = 0
 214              		.loc 1 115 1 is_stmt 0 view .LVU54
 215 0000 38B5     		push	{r3, r4, r5, lr}
 216              	.LCFI3:
 217              		.cfi_def_cfa_offset 16
 218              		.cfi_offset 3, -16
 219              		.cfi_offset 4, -12
 220              		.cfi_offset 5, -8
 221              		.cfi_offset 14, -4
 222 0002 0446     		mov	r4, r0
 223 0004 0D46     		mov	r5, r1
 116:Lib/lvgl/src/misc/lv_array.c ****     uint8_t * data = lv_realloc(array->data, new_capacity * array->element_size);
 224              		.loc 1 116 5 is_stmt 1 view .LVU55
 225              		.loc 1 116 66 is_stmt 0 view .LVU56
 226 0006 C168     		ldr	r1, [r0, #12]
 227              	.LVL16:
 228              		.loc 1 116 22 view .LVU57
 229 0008 05FB01F1 		mul	r1, r5, r1
 230 000c 0068     		ldr	r0, [r0]
 231              	.LVL17:
 232              		.loc 1 116 22 view .LVU58
 233 000e FFF7FEFF 		bl	lv_realloc
 234              	.LVL18:
 117:Lib/lvgl/src/misc/lv_array.c ****     LV_ASSERT_NULL(data);
 235              		.loc 1 117 5 is_stmt 1 view .LVU59
 236              		.loc 1 117 5 view .LVU60
 237 0012 30B1     		cbz	r0, .L14
 238              		.loc 1 117 5 discriminator 2 view .LVU61
 239              		.loc 1 117 25 discriminator 2 view .LVU62
 118:Lib/lvgl/src/misc/lv_array.c ****     array->data = data;
ARM GAS  C:\Users\Alex\AppData\Local\Temp\ccTAhA5q.s 			page 9


 240              		.loc 1 118 5 discriminator 2 view .LVU63
 241              		.loc 1 118 17 is_stmt 0 discriminator 2 view .LVU64
 242 0014 2060     		str	r0, [r4]
 119:Lib/lvgl/src/misc/lv_array.c ****     array->capacity = new_capacity;
 243              		.loc 1 119 5 is_stmt 1 discriminator 2 view .LVU65
 244              		.loc 1 119 21 is_stmt 0 discriminator 2 view .LVU66
 245 0016 A560     		str	r5, [r4, #8]
 120:Lib/lvgl/src/misc/lv_array.c ****     if(array->size > new_capacity) {
 246              		.loc 1 120 5 is_stmt 1 discriminator 2 view .LVU67
 247              		.loc 1 120 13 is_stmt 0 discriminator 2 view .LVU68
 248 0018 6368     		ldr	r3, [r4, #4]
 249              		.loc 1 120 7 discriminator 2 view .LVU69
 250 001a AB42     		cmp	r3, r5
 251 001c 00D9     		bls	.L12
 121:Lib/lvgl/src/misc/lv_array.c ****         array->size = new_capacity;
 252              		.loc 1 121 9 is_stmt 1 view .LVU70
 253              		.loc 1 121 21 is_stmt 0 view .LVU71
 254 001e 6560     		str	r5, [r4, #4]
 255              	.L12:
 122:Lib/lvgl/src/misc/lv_array.c ****     }
 123:Lib/lvgl/src/misc/lv_array.c **** }
 256              		.loc 1 123 1 view .LVU72
 257 0020 38BD     		pop	{r3, r4, r5, pc}
 258              	.LVL19:
 259              	.L14:
 117:Lib/lvgl/src/misc/lv_array.c ****     array->data = data;
 260              		.loc 1 117 5 is_stmt 1 discriminator 1 view .LVU73
 117:Lib/lvgl/src/misc/lv_array.c ****     array->data = data;
 261              		.loc 1 117 5 discriminator 1 view .LVU74
 117:Lib/lvgl/src/misc/lv_array.c ****     array->data = data;
 262              		.loc 1 117 5 discriminator 1 view .LVU75
 117:Lib/lvgl/src/misc/lv_array.c ****     array->data = data;
 263              		.loc 1 117 5 discriminator 1 view .LVU76
 117:Lib/lvgl/src/misc/lv_array.c ****     array->data = data;
 264              		.loc 1 117 5 discriminator 1 view .LVU77
 265 0022 FEE7     		b	.L14
 266              		.cfi_endproc
 267              	.LFE13:
 269              		.section	.text.lv_array_concat,"ax",%progbits
 270              		.align	1
 271              		.global	lv_array_concat
 272              		.syntax unified
 273              		.thumb
 274              		.thumb_func
 276              	lv_array_concat:
 277              	.LVL20:
 278              	.LFB14:
 124:Lib/lvgl/src/misc/lv_array.c **** 
 125:Lib/lvgl/src/misc/lv_array.c **** lv_result_t lv_array_concat(lv_array_t * array, const lv_array_t * other)
 126:Lib/lvgl/src/misc/lv_array.c **** {
 279              		.loc 1 126 1 view -0
 280              		.cfi_startproc
 281              		@ args = 0, pretend = 0, frame = 0
 282              		@ frame_needed = 0, uses_anonymous_args = 0
 127:Lib/lvgl/src/misc/lv_array.c ****     LV_ASSERT_NULL(array->data);
 283              		.loc 1 127 5 view .LVU79
 284              		.loc 1 127 5 view .LVU80
ARM GAS  C:\Users\Alex\AppData\Local\Temp\ccTAhA5q.s 			page 10


 285 0000 0368     		ldr	r3, [r0]
 286 0002 BBB1     		cbz	r3, .L19
 126:Lib/lvgl/src/misc/lv_array.c ****     LV_ASSERT_NULL(array->data);
 287              		.loc 1 126 1 is_stmt 0 discriminator 2 view .LVU81
 288 0004 70B5     		push	{r4, r5, r6, lr}
 289              	.LCFI4:
 290              		.cfi_def_cfa_offset 16
 291              		.cfi_offset 4, -16
 292              		.cfi_offset 5, -12
 293              		.cfi_offset 6, -8
 294              		.cfi_offset 14, -4
 295 0006 0446     		mov	r4, r0
 296 0008 0D46     		mov	r5, r1
 297              		.loc 1 127 5 is_stmt 1 discriminator 2 view .LVU82
 298              		.loc 1 127 32 discriminator 2 view .LVU83
 128:Lib/lvgl/src/misc/lv_array.c ****     uint32_t size = other->size;
 299              		.loc 1 128 5 discriminator 2 view .LVU84
 300              		.loc 1 128 14 is_stmt 0 discriminator 2 view .LVU85
 301 000a 4E68     		ldr	r6, [r1, #4]
 302              	.LVL21:
 129:Lib/lvgl/src/misc/lv_array.c ****     if(array->size + size > array->capacity) {
 303              		.loc 1 129 5 is_stmt 1 discriminator 2 view .LVU86
 304              		.loc 1 129 13 is_stmt 0 discriminator 2 view .LVU87
 305 000c 4168     		ldr	r1, [r0, #4]
 306              	.LVL22:
 307              		.loc 1 129 20 discriminator 2 view .LVU88
 308 000e 3144     		add	r1, r1, r6
 309              		.loc 1 129 34 discriminator 2 view .LVU89
 310 0010 8368     		ldr	r3, [r0, #8]
 311              		.loc 1 129 7 discriminator 2 view .LVU90
 312 0012 9942     		cmp	r1, r3
 313 0014 0FD8     		bhi	.L23
 314              	.LVL23:
 315              	.L20:
 130:Lib/lvgl/src/misc/lv_array.c ****         /*array is full*/
 131:Lib/lvgl/src/misc/lv_array.c ****         lv_array_resize(array, array->size + size);
 132:Lib/lvgl/src/misc/lv_array.c ****     }
 133:Lib/lvgl/src/misc/lv_array.c **** 
 134:Lib/lvgl/src/misc/lv_array.c ****     uint8_t * data = array->data + array->size * array->element_size;
 316              		.loc 1 134 5 is_stmt 1 view .LVU91
 317              		.loc 1 134 27 is_stmt 0 view .LVU92
 318 0016 2068     		ldr	r0, [r4]
 319              		.loc 1 134 55 view .LVU93
 320 0018 E368     		ldr	r3, [r4, #12]
 321              	.LVL24:
 135:Lib/lvgl/src/misc/lv_array.c ****     lv_memcpy(data, other->data, array->element_size * size);
 322              		.loc 1 135 5 is_stmt 1 view .LVU94
 323 001a 06FB03F2 		mul	r2, r6, r3
 324 001e 2968     		ldr	r1, [r5]
 325 0020 6568     		ldr	r5, [r4, #4]
 326              	.LVL25:
 327              		.loc 1 135 5 is_stmt 0 view .LVU95
 328 0022 03FB0500 		mla	r0, r3, r5, r0
 329              	.LVL26:
 330              		.loc 1 135 5 view .LVU96
 331 0026 FFF7FEFF 		bl	lv_memcpy
 332              	.LVL27:
ARM GAS  C:\Users\Alex\AppData\Local\Temp\ccTAhA5q.s 			page 11


 136:Lib/lvgl/src/misc/lv_array.c ****     array->size += size;
 333              		.loc 1 136 5 is_stmt 1 view .LVU97
 334              		.loc 1 136 10 is_stmt 0 view .LVU98
 335 002a 6368     		ldr	r3, [r4, #4]
 336              		.loc 1 136 17 view .LVU99
 337 002c 3344     		add	r3, r3, r6
 338 002e 6360     		str	r3, [r4, #4]
 137:Lib/lvgl/src/misc/lv_array.c ****     return LV_RESULT_OK;
 339              		.loc 1 137 5 is_stmt 1 view .LVU100
 138:Lib/lvgl/src/misc/lv_array.c **** }
 340              		.loc 1 138 1 is_stmt 0 view .LVU101
 341 0030 0120     		movs	r0, #1
 342 0032 70BD     		pop	{r4, r5, r6, pc}
 343              	.LVL28:
 344              	.L19:
 345              	.LCFI5:
 346              		.cfi_def_cfa_offset 0
 347              		.cfi_restore 4
 348              		.cfi_restore 5
 349              		.cfi_restore 6
 350              		.cfi_restore 14
 127:Lib/lvgl/src/misc/lv_array.c ****     uint32_t size = other->size;
 351              		.loc 1 127 5 is_stmt 1 discriminator 1 view .LVU102
 127:Lib/lvgl/src/misc/lv_array.c ****     uint32_t size = other->size;
 352              		.loc 1 127 5 discriminator 1 view .LVU103
 127:Lib/lvgl/src/misc/lv_array.c ****     uint32_t size = other->size;
 353              		.loc 1 127 5 discriminator 1 view .LVU104
 127:Lib/lvgl/src/misc/lv_array.c ****     uint32_t size = other->size;
 354              		.loc 1 127 5 discriminator 1 view .LVU105
 127:Lib/lvgl/src/misc/lv_array.c ****     uint32_t size = other->size;
 355              		.loc 1 127 5 discriminator 1 view .LVU106
 356 0034 FEE7     		b	.L19
 357              	.LVL29:
 358              	.L23:
 359              	.LCFI6:
 360              		.cfi_def_cfa_offset 16
 361              		.cfi_offset 4, -16
 362              		.cfi_offset 5, -12
 363              		.cfi_offset 6, -8
 364              		.cfi_offset 14, -4
 131:Lib/lvgl/src/misc/lv_array.c ****     }
 365              		.loc 1 131 9 view .LVU107
 366 0036 FFF7FEFF 		bl	lv_array_resize
 367              	.LVL30:
 131:Lib/lvgl/src/misc/lv_array.c ****     }
 368              		.loc 1 131 9 is_stmt 0 view .LVU108
 369 003a ECE7     		b	.L20
 370              		.cfi_endproc
 371              	.LFE14:
 373              		.section	.text.lv_array_push_back,"ax",%progbits
 374              		.align	1
 375              		.global	lv_array_push_back
 376              		.syntax unified
 377              		.thumb
 378              		.thumb_func
 380              	lv_array_push_back:
 381              	.LVL31:
ARM GAS  C:\Users\Alex\AppData\Local\Temp\ccTAhA5q.s 			page 12


 382              	.LFB15:
 139:Lib/lvgl/src/misc/lv_array.c **** 
 140:Lib/lvgl/src/misc/lv_array.c **** lv_result_t lv_array_push_back(lv_array_t * array, const void * element)
 141:Lib/lvgl/src/misc/lv_array.c **** {
 383              		.loc 1 141 1 is_stmt 1 view -0
 384              		.cfi_startproc
 385              		@ args = 0, pretend = 0, frame = 0
 386              		@ frame_needed = 0, uses_anonymous_args = 0
 387              		.loc 1 141 1 is_stmt 0 view .LVU110
 388 0000 38B5     		push	{r3, r4, r5, lr}
 389              	.LCFI7:
 390              		.cfi_def_cfa_offset 16
 391              		.cfi_offset 3, -16
 392              		.cfi_offset 4, -12
 393              		.cfi_offset 5, -8
 394              		.cfi_offset 14, -4
 142:Lib/lvgl/src/misc/lv_array.c ****     LV_ASSERT_NULL(array->data);
 395              		.loc 1 142 5 is_stmt 1 view .LVU111
 396              		.loc 1 142 5 view .LVU112
 397 0002 0368     		ldr	r3, [r0]
 398 0004 93B1     		cbz	r3, .L26
 399 0006 0446     		mov	r4, r0
 400 0008 0D46     		mov	r5, r1
 401              		.loc 1 142 5 discriminator 2 view .LVU113
 402              		.loc 1 142 32 discriminator 2 view .LVU114
 143:Lib/lvgl/src/misc/lv_array.c **** 
 144:Lib/lvgl/src/misc/lv_array.c ****     if(array->size == array->capacity) {
 403              		.loc 1 144 5 discriminator 2 view .LVU115
 404              		.loc 1 144 13 is_stmt 0 discriminator 2 view .LVU116
 405 000a 4368     		ldr	r3, [r0, #4]
 406              		.loc 1 144 28 discriminator 2 view .LVU117
 407 000c 8168     		ldr	r1, [r0, #8]
 408              	.LVL32:
 409              		.loc 1 144 7 discriminator 2 view .LVU118
 410 000e 8B42     		cmp	r3, r1
 411 0010 0DD0     		beq	.L29
 412              	.LVL33:
 413              	.L27:
 145:Lib/lvgl/src/misc/lv_array.c ****         /*array is full*/
 146:Lib/lvgl/src/misc/lv_array.c ****         lv_array_resize(array, array->capacity + 1);
 147:Lib/lvgl/src/misc/lv_array.c ****     }
 148:Lib/lvgl/src/misc/lv_array.c **** 
 149:Lib/lvgl/src/misc/lv_array.c ****     uint8_t * data = array->data + array->size * array->element_size;
 414              		.loc 1 149 5 is_stmt 1 view .LVU119
 415              		.loc 1 149 27 is_stmt 0 view .LVU120
 416 0012 2368     		ldr	r3, [r4]
 417              		.loc 1 149 41 view .LVU121
 418 0014 6068     		ldr	r0, [r4, #4]
 419              		.loc 1 149 55 view .LVU122
 420 0016 E268     		ldr	r2, [r4, #12]
 421              	.LVL34:
 150:Lib/lvgl/src/misc/lv_array.c ****     lv_memcpy(data, element, array->element_size);
 422              		.loc 1 150 5 is_stmt 1 view .LVU123
 423 0018 2946     		mov	r1, r5
 424 001a 02FB0030 		mla	r0, r2, r0, r3
 425              	.LVL35:
 426              		.loc 1 150 5 is_stmt 0 view .LVU124
ARM GAS  C:\Users\Alex\AppData\Local\Temp\ccTAhA5q.s 			page 13


 427 001e FFF7FEFF 		bl	lv_memcpy
 428              	.LVL36:
 151:Lib/lvgl/src/misc/lv_array.c ****     array->size++;
 429              		.loc 1 151 5 is_stmt 1 view .LVU125
 430              		.loc 1 151 10 is_stmt 0 view .LVU126
 431 0022 6368     		ldr	r3, [r4, #4]
 432              		.loc 1 151 16 view .LVU127
 433 0024 0133     		adds	r3, r3, #1
 434 0026 6360     		str	r3, [r4, #4]
 152:Lib/lvgl/src/misc/lv_array.c ****     return LV_RESULT_OK;
 435              		.loc 1 152 5 is_stmt 1 view .LVU128
 153:Lib/lvgl/src/misc/lv_array.c **** }
 436              		.loc 1 153 1 is_stmt 0 view .LVU129
 437 0028 0120     		movs	r0, #1
 438 002a 38BD     		pop	{r3, r4, r5, pc}
 439              	.LVL37:
 440              	.L26:
 142:Lib/lvgl/src/misc/lv_array.c **** 
 441              		.loc 1 142 5 is_stmt 1 discriminator 1 view .LVU130
 142:Lib/lvgl/src/misc/lv_array.c **** 
 442              		.loc 1 142 5 discriminator 1 view .LVU131
 142:Lib/lvgl/src/misc/lv_array.c **** 
 443              		.loc 1 142 5 discriminator 1 view .LVU132
 142:Lib/lvgl/src/misc/lv_array.c **** 
 444              		.loc 1 142 5 discriminator 1 view .LVU133
 142:Lib/lvgl/src/misc/lv_array.c **** 
 445              		.loc 1 142 5 discriminator 1 view .LVU134
 446 002c FEE7     		b	.L26
 447              	.LVL38:
 448              	.L29:
 146:Lib/lvgl/src/misc/lv_array.c ****     }
 449              		.loc 1 146 9 view .LVU135
 450 002e 0131     		adds	r1, r1, #1
 451 0030 FFF7FEFF 		bl	lv_array_resize
 452              	.LVL39:
 146:Lib/lvgl/src/misc/lv_array.c ****     }
 453              		.loc 1 146 9 is_stmt 0 view .LVU136
 454 0034 EDE7     		b	.L27
 455              		.cfi_endproc
 456              	.LFE15:
 458              		.section	.text.lv_array_at,"ax",%progbits
 459              		.align	1
 460              		.global	lv_array_at
 461              		.syntax unified
 462              		.thumb
 463              		.thumb_func
 465              	lv_array_at:
 466              	.LVL40:
 467              	.LFB16:
 154:Lib/lvgl/src/misc/lv_array.c **** 
 155:Lib/lvgl/src/misc/lv_array.c **** void * lv_array_at(const lv_array_t * array, uint32_t index)
 156:Lib/lvgl/src/misc/lv_array.c **** {
 468              		.loc 1 156 1 is_stmt 1 view -0
 469              		.cfi_startproc
 470              		@ args = 0, pretend = 0, frame = 0
 471              		@ frame_needed = 0, uses_anonymous_args = 0
 472              		@ link register save eliminated.
ARM GAS  C:\Users\Alex\AppData\Local\Temp\ccTAhA5q.s 			page 14


 157:Lib/lvgl/src/misc/lv_array.c ****     if(index >= array->size) {
 473              		.loc 1 157 5 view .LVU138
 474              		.loc 1 157 22 is_stmt 0 view .LVU139
 475 0000 4368     		ldr	r3, [r0, #4]
 476              		.loc 1 157 7 view .LVU140
 477 0002 8B42     		cmp	r3, r1
 478 0004 06D9     		bls	.L34
 158:Lib/lvgl/src/misc/lv_array.c ****         return NULL;
 159:Lib/lvgl/src/misc/lv_array.c ****     }
 160:Lib/lvgl/src/misc/lv_array.c **** 
 161:Lib/lvgl/src/misc/lv_array.c ****     LV_ASSERT_NULL(array->data);
 479              		.loc 1 161 5 is_stmt 1 view .LVU141
 480              		.loc 1 161 5 view .LVU142
 481 0006 0368     		ldr	r3, [r0]
 482 0008 1BB1     		cbz	r3, .L33
 483              		.loc 1 161 5 discriminator 2 view .LVU143
 484              		.loc 1 161 32 discriminator 2 view .LVU144
 162:Lib/lvgl/src/misc/lv_array.c ****     return array->data + index * array->element_size;
 485              		.loc 1 162 5 discriminator 2 view .LVU145
 486              		.loc 1 162 39 is_stmt 0 discriminator 2 view .LVU146
 487 000a C068     		ldr	r0, [r0, #12]
 488              	.LVL41:
 489              		.loc 1 162 24 discriminator 2 view .LVU147
 490 000c 01FB0030 		mla	r0, r1, r0, r3
 491 0010 7047     		bx	lr
 492              	.LVL42:
 493              	.L33:
 161:Lib/lvgl/src/misc/lv_array.c ****     return array->data + index * array->element_size;
 494              		.loc 1 161 5 is_stmt 1 discriminator 1 view .LVU148
 161:Lib/lvgl/src/misc/lv_array.c ****     return array->data + index * array->element_size;
 495              		.loc 1 161 5 discriminator 1 view .LVU149
 161:Lib/lvgl/src/misc/lv_array.c ****     return array->data + index * array->element_size;
 496              		.loc 1 161 5 discriminator 1 view .LVU150
 161:Lib/lvgl/src/misc/lv_array.c ****     return array->data + index * array->element_size;
 497              		.loc 1 161 5 discriminator 1 view .LVU151
 161:Lib/lvgl/src/misc/lv_array.c ****     return array->data + index * array->element_size;
 498              		.loc 1 161 5 discriminator 1 view .LVU152
 499 0012 FEE7     		b	.L33
 500              	.L34:
 158:Lib/lvgl/src/misc/lv_array.c ****         return NULL;
 501              		.loc 1 158 16 is_stmt 0 view .LVU153
 502 0014 0020     		movs	r0, #0
 503              	.LVL43:
 163:Lib/lvgl/src/misc/lv_array.c **** }
 504              		.loc 1 163 1 view .LVU154
 505 0016 7047     		bx	lr
 506              		.cfi_endproc
 507              	.LFE16:
 509              		.section	.text.lv_array_remove,"ax",%progbits
 510              		.align	1
 511              		.global	lv_array_remove
 512              		.syntax unified
 513              		.thumb
 514              		.thumb_func
 516              	lv_array_remove:
 517              	.LVL44:
 518              	.LFB11:
ARM GAS  C:\Users\Alex\AppData\Local\Temp\ccTAhA5q.s 			page 15


  71:Lib/lvgl/src/misc/lv_array.c ****     if(index >= array->size) {
 519              		.loc 1 71 1 is_stmt 1 view -0
 520              		.cfi_startproc
 521              		@ args = 0, pretend = 0, frame = 0
 522              		@ frame_needed = 0, uses_anonymous_args = 0
  71:Lib/lvgl/src/misc/lv_array.c ****     if(index >= array->size) {
 523              		.loc 1 71 1 is_stmt 0 view .LVU156
 524 0000 70B5     		push	{r4, r5, r6, lr}
 525              	.LCFI8:
 526              		.cfi_def_cfa_offset 16
 527              		.cfi_offset 4, -16
 528              		.cfi_offset 5, -12
 529              		.cfi_offset 6, -8
 530              		.cfi_offset 14, -4
  72:Lib/lvgl/src/misc/lv_array.c ****         return LV_RESULT_INVALID;
 531              		.loc 1 72 5 is_stmt 1 view .LVU157
  72:Lib/lvgl/src/misc/lv_array.c ****         return LV_RESULT_INVALID;
 532              		.loc 1 72 22 is_stmt 0 view .LVU158
 533 0002 4668     		ldr	r6, [r0, #4]
  72:Lib/lvgl/src/misc/lv_array.c ****         return LV_RESULT_INVALID;
 534              		.loc 1 72 7 view .LVU159
 535 0004 8E42     		cmp	r6, r1
 536 0006 1AD9     		bls	.L38
 537 0008 0446     		mov	r4, r0
 538 000a 0D46     		mov	r5, r1
  77:Lib/lvgl/src/misc/lv_array.c ****         lv_array_resize(array, array->size - 1);
 539              		.loc 1 77 5 is_stmt 1 view .LVU160
  77:Lib/lvgl/src/misc/lv_array.c ****         lv_array_resize(array, array->size - 1);
 540              		.loc 1 77 29 is_stmt 0 view .LVU161
 541 000c 711E     		subs	r1, r6, #1
 542              	.LVL45:
  77:Lib/lvgl/src/misc/lv_array.c ****         lv_array_resize(array, array->size - 1);
 543              		.loc 1 77 7 view .LVU162
 544 000e A942     		cmp	r1, r5
 545 0010 11D0     		beq	.L40
  82:Lib/lvgl/src/misc/lv_array.c ****     uint8_t * remaining = start + array->element_size;
 546              		.loc 1 82 5 is_stmt 1 view .LVU163
  82:Lib/lvgl/src/misc/lv_array.c ****     uint8_t * remaining = start + array->element_size;
 547              		.loc 1 82 23 is_stmt 0 view .LVU164
 548 0012 2946     		mov	r1, r5
 549 0014 FFF7FEFF 		bl	lv_array_at
 550              	.LVL46:
  83:Lib/lvgl/src/misc/lv_array.c ****     uint32_t remaining_size = (array->size - index - 1) * array->element_size;
 551              		.loc 1 83 5 is_stmt 1 view .LVU165
  83:Lib/lvgl/src/misc/lv_array.c ****     uint32_t remaining_size = (array->size - index - 1) * array->element_size;
 552              		.loc 1 83 40 is_stmt 0 view .LVU166
 553 0018 E168     		ldr	r1, [r4, #12]
 554              	.LVL47:
  84:Lib/lvgl/src/misc/lv_array.c ****     lv_memcpy(start, remaining, remaining_size);
 555              		.loc 1 84 5 is_stmt 1 view .LVU167
  84:Lib/lvgl/src/misc/lv_array.c ****     lv_memcpy(start, remaining, remaining_size);
 556              		.loc 1 84 44 is_stmt 0 view .LVU168
 557 001a 721B     		subs	r2, r6, r5
  84:Lib/lvgl/src/misc/lv_array.c ****     lv_memcpy(start, remaining, remaining_size);
 558              		.loc 1 84 52 view .LVU169
 559 001c 013A     		subs	r2, r2, #1
 560              	.LVL48:
ARM GAS  C:\Users\Alex\AppData\Local\Temp\ccTAhA5q.s 			page 16


  85:Lib/lvgl/src/misc/lv_array.c ****     lv_array_resize(array, array->size - 1);
 561              		.loc 1 85 5 is_stmt 1 view .LVU170
 562 001e 01FB02F2 		mul	r2, r1, r2
 563              	.LVL49:
  85:Lib/lvgl/src/misc/lv_array.c ****     lv_array_resize(array, array->size - 1);
 564              		.loc 1 85 5 is_stmt 0 view .LVU171
 565 0022 0144     		add	r1, r1, r0
 566              	.LVL50:
  85:Lib/lvgl/src/misc/lv_array.c ****     lv_array_resize(array, array->size - 1);
 567              		.loc 1 85 5 view .LVU172
 568 0024 FFF7FEFF 		bl	lv_memcpy
 569              	.LVL51:
  86:Lib/lvgl/src/misc/lv_array.c ****     return LV_RESULT_OK;
 570              		.loc 1 86 5 is_stmt 1 view .LVU173
  86:Lib/lvgl/src/misc/lv_array.c ****     return LV_RESULT_OK;
 571              		.loc 1 86 33 is_stmt 0 view .LVU174
 572 0028 6168     		ldr	r1, [r4, #4]
  86:Lib/lvgl/src/misc/lv_array.c ****     return LV_RESULT_OK;
 573              		.loc 1 86 5 view .LVU175
 574 002a 0139     		subs	r1, r1, #1
 575 002c 2046     		mov	r0, r4
 576 002e FFF7FEFF 		bl	lv_array_resize
 577              	.LVL52:
  87:Lib/lvgl/src/misc/lv_array.c **** }
 578              		.loc 1 87 5 is_stmt 1 view .LVU176
  87:Lib/lvgl/src/misc/lv_array.c **** }
 579              		.loc 1 87 12 is_stmt 0 view .LVU177
 580 0032 0120     		movs	r0, #1
 581              	.LVL53:
 582              	.L36:
  88:Lib/lvgl/src/misc/lv_array.c **** 
 583              		.loc 1 88 1 view .LVU178
 584 0034 70BD     		pop	{r4, r5, r6, pc}
 585              	.LVL54:
 586              	.L40:
  78:Lib/lvgl/src/misc/lv_array.c ****         return LV_RESULT_OK;
 587              		.loc 1 78 9 is_stmt 1 view .LVU179
 588 0036 FFF7FEFF 		bl	lv_array_resize
 589              	.LVL55:
  79:Lib/lvgl/src/misc/lv_array.c ****     }
 590              		.loc 1 79 9 view .LVU180
  79:Lib/lvgl/src/misc/lv_array.c ****     }
 591              		.loc 1 79 16 is_stmt 0 view .LVU181
 592 003a 0120     		movs	r0, #1
 593 003c FAE7     		b	.L36
 594              	.LVL56:
 595              	.L38:
  73:Lib/lvgl/src/misc/lv_array.c ****     }
 596              		.loc 1 73 16 view .LVU182
 597 003e 0020     		movs	r0, #0
 598              	.LVL57:
  73:Lib/lvgl/src/misc/lv_array.c ****     }
 599              		.loc 1 73 16 view .LVU183
 600 0040 F8E7     		b	.L36
 601              		.cfi_endproc
 602              	.LFE11:
 604              		.section	.text.lv_array_erase,"ax",%progbits
ARM GAS  C:\Users\Alex\AppData\Local\Temp\ccTAhA5q.s 			page 17


 605              		.align	1
 606              		.global	lv_array_erase
 607              		.syntax unified
 608              		.thumb
 609              		.thumb_func
 611              	lv_array_erase:
 612              	.LVL58:
 613              	.LFB12:
  91:Lib/lvgl/src/misc/lv_array.c ****     if(end > array->size) {
 614              		.loc 1 91 1 is_stmt 1 view -0
 615              		.cfi_startproc
 616              		@ args = 0, pretend = 0, frame = 0
 617              		@ frame_needed = 0, uses_anonymous_args = 0
  91:Lib/lvgl/src/misc/lv_array.c ****     if(end > array->size) {
 618              		.loc 1 91 1 is_stmt 0 view .LVU185
 619 0000 F8B5     		push	{r3, r4, r5, r6, r7, lr}
 620              	.LCFI9:
 621              		.cfi_def_cfa_offset 24
 622              		.cfi_offset 3, -24
 623              		.cfi_offset 4, -20
 624              		.cfi_offset 5, -16
 625              		.cfi_offset 6, -12
 626              		.cfi_offset 7, -8
 627              		.cfi_offset 14, -4
 628 0002 0746     		mov	r7, r0
 629 0004 0E46     		mov	r6, r1
 630 0006 1446     		mov	r4, r2
  92:Lib/lvgl/src/misc/lv_array.c ****         end = array->size;
 631              		.loc 1 92 5 is_stmt 1 view .LVU186
  92:Lib/lvgl/src/misc/lv_array.c ****         end = array->size;
 632              		.loc 1 92 19 is_stmt 0 view .LVU187
 633 0008 4568     		ldr	r5, [r0, #4]
  92:Lib/lvgl/src/misc/lv_array.c ****         end = array->size;
 634              		.loc 1 92 7 view .LVU188
 635 000a 9542     		cmp	r5, r2
 636 000c 00D2     		bcs	.L42
  93:Lib/lvgl/src/misc/lv_array.c ****     }
 637              		.loc 1 93 13 view .LVU189
 638 000e 2C46     		mov	r4, r5
 639              	.L42:
 640              	.LVL59:
  96:Lib/lvgl/src/misc/lv_array.c ****         return LV_RESULT_INVALID;
 641              		.loc 1 96 5 is_stmt 1 view .LVU190
  96:Lib/lvgl/src/misc/lv_array.c ****         return LV_RESULT_INVALID;
 642              		.loc 1 96 7 is_stmt 0 view .LVU191
 643 0010 B442     		cmp	r4, r6
 644 0012 1CD9     		bls	.L46
 101:Lib/lvgl/src/misc/lv_array.c ****         lv_array_resize(array, start);
 645              		.loc 1 101 5 is_stmt 1 view .LVU192
 101:Lib/lvgl/src/misc/lv_array.c ****         lv_array_resize(array, start);
 646              		.loc 1 101 7 is_stmt 0 view .LVU193
 647 0014 A542     		cmp	r5, r4
 648 0016 14D0     		beq	.L48
 106:Lib/lvgl/src/misc/lv_array.c ****     uint8_t * remaining = start_p + (end - start) * array->element_size;
 649              		.loc 1 106 5 is_stmt 1 view .LVU194
 106:Lib/lvgl/src/misc/lv_array.c ****     uint8_t * remaining = start_p + (end - start) * array->element_size;
 650              		.loc 1 106 25 is_stmt 0 view .LVU195
ARM GAS  C:\Users\Alex\AppData\Local\Temp\ccTAhA5q.s 			page 18


 651 0018 3146     		mov	r1, r6
 652              	.LVL60:
 106:Lib/lvgl/src/misc/lv_array.c ****     uint8_t * remaining = start_p + (end - start) * array->element_size;
 653              		.loc 1 106 25 view .LVU196
 654 001a 3846     		mov	r0, r7
 655              	.LVL61:
 106:Lib/lvgl/src/misc/lv_array.c ****     uint8_t * remaining = start_p + (end - start) * array->element_size;
 656              		.loc 1 106 25 view .LVU197
 657 001c FFF7FEFF 		bl	lv_array_at
 658              	.LVL62:
 107:Lib/lvgl/src/misc/lv_array.c ****     uint32_t remaining_size = (array->size - end) * array->element_size;
 659              		.loc 1 107 5 is_stmt 1 view .LVU198
 107:Lib/lvgl/src/misc/lv_array.c ****     uint32_t remaining_size = (array->size - end) * array->element_size;
 660              		.loc 1 107 42 is_stmt 0 view .LVU199
 661 0020 A11B     		subs	r1, r4, r6
 107:Lib/lvgl/src/misc/lv_array.c ****     uint32_t remaining_size = (array->size - end) * array->element_size;
 662              		.loc 1 107 58 view .LVU200
 663 0022 FB68     		ldr	r3, [r7, #12]
 664              	.LVL63:
 108:Lib/lvgl/src/misc/lv_array.c ****     lv_memcpy(start_p, remaining, remaining_size);
 665              		.loc 1 108 5 is_stmt 1 view .LVU201
 108:Lib/lvgl/src/misc/lv_array.c ****     lv_memcpy(start_p, remaining, remaining_size);
 666              		.loc 1 108 44 is_stmt 0 view .LVU202
 667 0024 2A1B     		subs	r2, r5, r4
 668              	.LVL64:
 109:Lib/lvgl/src/misc/lv_array.c ****     lv_array_resize(array, array->size - (end - start));
 669              		.loc 1 109 5 is_stmt 1 view .LVU203
 670 0026 03FB02F2 		mul	r2, r3, r2
 671              	.LVL65:
 109:Lib/lvgl/src/misc/lv_array.c ****     lv_array_resize(array, array->size - (end - start));
 672              		.loc 1 109 5 is_stmt 0 view .LVU204
 673 002a 03FB0101 		mla	r1, r3, r1, r0
 674              	.LVL66:
 109:Lib/lvgl/src/misc/lv_array.c ****     lv_array_resize(array, array->size - (end - start));
 675              		.loc 1 109 5 view .LVU205
 676 002e FFF7FEFF 		bl	lv_memcpy
 677              	.LVL67:
 110:Lib/lvgl/src/misc/lv_array.c ****     return LV_RESULT_OK;
 678              		.loc 1 110 5 is_stmt 1 view .LVU206
 110:Lib/lvgl/src/misc/lv_array.c ****     return LV_RESULT_OK;
 679              		.loc 1 110 33 is_stmt 0 view .LVU207
 680 0032 7B68     		ldr	r3, [r7, #4]
 110:Lib/lvgl/src/misc/lv_array.c ****     return LV_RESULT_OK;
 681              		.loc 1 110 40 view .LVU208
 682 0034 311B     		subs	r1, r6, r4
 110:Lib/lvgl/src/misc/lv_array.c ****     return LV_RESULT_OK;
 683              		.loc 1 110 5 view .LVU209
 684 0036 1944     		add	r1, r1, r3
 685 0038 3846     		mov	r0, r7
 686 003a FFF7FEFF 		bl	lv_array_resize
 687              	.LVL68:
 111:Lib/lvgl/src/misc/lv_array.c **** }
 688              		.loc 1 111 5 is_stmt 1 view .LVU210
 111:Lib/lvgl/src/misc/lv_array.c **** }
 689              		.loc 1 111 12 is_stmt 0 view .LVU211
 690 003e 0120     		movs	r0, #1
 691              	.LVL69:
ARM GAS  C:\Users\Alex\AppData\Local\Temp\ccTAhA5q.s 			page 19


 692              	.L43:
 112:Lib/lvgl/src/misc/lv_array.c **** 
 693              		.loc 1 112 1 view .LVU212
 694 0040 F8BD     		pop	{r3, r4, r5, r6, r7, pc}
 695              	.LVL70:
 696              	.L48:
 102:Lib/lvgl/src/misc/lv_array.c ****         return LV_RESULT_OK;
 697              		.loc 1 102 9 is_stmt 1 view .LVU213
 698 0042 3146     		mov	r1, r6
 699              	.LVL71:
 102:Lib/lvgl/src/misc/lv_array.c ****         return LV_RESULT_OK;
 700              		.loc 1 102 9 is_stmt 0 view .LVU214
 701 0044 3846     		mov	r0, r7
 702              	.LVL72:
 102:Lib/lvgl/src/misc/lv_array.c ****         return LV_RESULT_OK;
 703              		.loc 1 102 9 view .LVU215
 704 0046 FFF7FEFF 		bl	lv_array_resize
 705              	.LVL73:
 103:Lib/lvgl/src/misc/lv_array.c ****     }
 706              		.loc 1 103 9 is_stmt 1 view .LVU216
 103:Lib/lvgl/src/misc/lv_array.c ****     }
 707              		.loc 1 103 16 is_stmt 0 view .LVU217
 708 004a 0120     		movs	r0, #1
 709 004c F8E7     		b	.L43
 710              	.LVL74:
 711              	.L46:
  97:Lib/lvgl/src/misc/lv_array.c ****     }
 712              		.loc 1 97 16 view .LVU218
 713 004e 0020     		movs	r0, #0
 714              	.LVL75:
  97:Lib/lvgl/src/misc/lv_array.c ****     }
 715              		.loc 1 97 16 view .LVU219
 716 0050 F6E7     		b	.L43
 717              		.cfi_endproc
 718              	.LFE12:
 720              		.section	.text.lv_array_assign,"ax",%progbits
 721              		.align	1
 722              		.global	lv_array_assign
 723              		.syntax unified
 724              		.thumb
 725              		.thumb_func
 727              	lv_array_assign:
 728              	.LVL76:
 729              	.LFB17:
 164:Lib/lvgl/src/misc/lv_array.c **** 
 165:Lib/lvgl/src/misc/lv_array.c **** lv_result_t lv_array_assign(lv_array_t * array, uint32_t index, const void * value)
 166:Lib/lvgl/src/misc/lv_array.c **** {
 730              		.loc 1 166 1 is_stmt 1 view -0
 731              		.cfi_startproc
 732              		@ args = 0, pretend = 0, frame = 0
 733              		@ frame_needed = 0, uses_anonymous_args = 0
 734              		.loc 1 166 1 is_stmt 0 view .LVU221
 735 0000 38B5     		push	{r3, r4, r5, lr}
 736              	.LCFI10:
 737              		.cfi_def_cfa_offset 16
 738              		.cfi_offset 3, -16
 739              		.cfi_offset 4, -12
ARM GAS  C:\Users\Alex\AppData\Local\Temp\ccTAhA5q.s 			page 20


 740              		.cfi_offset 5, -8
 741              		.cfi_offset 14, -4
 742 0002 0546     		mov	r5, r0
 743 0004 1446     		mov	r4, r2
 167:Lib/lvgl/src/misc/lv_array.c ****     uint8_t * data = lv_array_at(array, index);
 744              		.loc 1 167 5 is_stmt 1 view .LVU222
 745              		.loc 1 167 22 is_stmt 0 view .LVU223
 746 0006 FFF7FEFF 		bl	lv_array_at
 747              	.LVL77:
 168:Lib/lvgl/src/misc/lv_array.c ****     if(data == NULL) return LV_RESULT_INVALID;
 748              		.loc 1 168 5 is_stmt 1 view .LVU224
 749              		.loc 1 168 7 is_stmt 0 view .LVU225
 750 000a 28B1     		cbz	r0, .L51
 169:Lib/lvgl/src/misc/lv_array.c **** 
 170:Lib/lvgl/src/misc/lv_array.c ****     lv_memcpy(data, value, array->element_size);
 751              		.loc 1 170 5 is_stmt 1 view .LVU226
 752 000c EA68     		ldr	r2, [r5, #12]
 753 000e 2146     		mov	r1, r4
 754 0010 FFF7FEFF 		bl	lv_memcpy
 755              	.LVL78:
 171:Lib/lvgl/src/misc/lv_array.c ****     return LV_RESULT_OK;
 756              		.loc 1 171 5 view .LVU227
 757              		.loc 1 171 12 is_stmt 0 view .LVU228
 758 0014 0120     		movs	r0, #1
 759              	.L50:
 172:Lib/lvgl/src/misc/lv_array.c **** }
 760              		.loc 1 172 1 view .LVU229
 761 0016 38BD     		pop	{r3, r4, r5, pc}
 762              	.LVL79:
 763              	.L51:
 168:Lib/lvgl/src/misc/lv_array.c **** 
 764              		.loc 1 168 29 view .LVU230
 765 0018 0020     		movs	r0, #0
 766              	.LVL80:
 168:Lib/lvgl/src/misc/lv_array.c **** 
 767              		.loc 1 168 29 view .LVU231
 768 001a FCE7     		b	.L50
 769              		.cfi_endproc
 770              	.LFE17:
 772              		.text
 773              	.Letext0:
 774              		.file 3 "e:\\programms\\gnu_mcu_eclipse\\toolchain\\arm-gnu-toolchain-12.2.mpacbti-bet1-mingw-w64-
 775              		.file 4 "e:\\programms\\gnu_mcu_eclipse\\toolchain\\arm-gnu-toolchain-12.2.mpacbti-bet1-mingw-w64-
 776              		.file 5 "e:\\programms\\gnu_mcu_eclipse\\toolchain\\arm-gnu-toolchain-12.2.mpacbti-bet1-mingw-w64-
 777              		.file 6 "Lib/lvgl/src/misc/lv_types.h"
 778              		.file 7 "Lib/lvgl/src/misc/../stdlib/lv_mem.h"
 779              		.file 8 "Lib/lvgl/src/misc/../stdlib/lv_string.h"
ARM GAS  C:\Users\Alex\AppData\Local\Temp\ccTAhA5q.s 			page 21

