ARM GAS  C:\Users\Alex\AppData\Local\Temp\ccbB2tth.s 			page 1


   1              		.cpu cortex-m4
   2              		.arch armv7e-m
   3              		.fpu fpv4-sp-d16
   4              		.eabi_attribute 27, 1
   5              		.eabi_attribute 28, 1
   6              		.eabi_attribute 20, 1
   7              		.eabi_attribute 21, 1
   8              		.eabi_attribute 23, 3
   9              		.eabi_attribute 24, 1
  10              		.eabi_attribute 25, 1
  11              		.eabi_attribute 26, 1
  12              		.eabi_attribute 30, 1
  13              		.eabi_attribute 34, 1
  14              		.eabi_attribute 18, 4
  15              		.file	"lv_anim.c"
  16              		.text
  17              	.Ltext0:
  18              		.cfi_sections	.debug_frame
  19              		.file 1 "Lib/lvgl/src/misc/lv_anim.c"
  20              		.section	.text.convert_speed_to_time,"ax",%progbits
  21              		.align	1
  22              		.syntax unified
  23              		.thumb
  24              		.thumb_func
  26              	convert_speed_to_time:
  27              	.LVL0:
  28              	.LFB259:
   1:Lib/lvgl/src/misc/lv_anim.c **** /**
   2:Lib/lvgl/src/misc/lv_anim.c ****  * @file lv_anim.c
   3:Lib/lvgl/src/misc/lv_anim.c ****  *
   4:Lib/lvgl/src/misc/lv_anim.c ****  */
   5:Lib/lvgl/src/misc/lv_anim.c **** 
   6:Lib/lvgl/src/misc/lv_anim.c **** /*********************
   7:Lib/lvgl/src/misc/lv_anim.c ****  *      INCLUDES
   8:Lib/lvgl/src/misc/lv_anim.c ****  *********************/
   9:Lib/lvgl/src/misc/lv_anim.c **** #include "lv_anim.h"
  10:Lib/lvgl/src/misc/lv_anim.c **** 
  11:Lib/lvgl/src/misc/lv_anim.c **** #include "../core/lv_global.h"
  12:Lib/lvgl/src/misc/lv_anim.c **** #include "../tick/lv_tick.h"
  13:Lib/lvgl/src/misc/lv_anim.c **** #include "lv_assert.h"
  14:Lib/lvgl/src/misc/lv_anim.c **** #include "lv_timer.h"
  15:Lib/lvgl/src/misc/lv_anim.c **** #include "lv_math.h"
  16:Lib/lvgl/src/misc/lv_anim.c **** #include "../stdlib/lv_mem.h"
  17:Lib/lvgl/src/misc/lv_anim.c **** #include "../stdlib/lv_string.h"
  18:Lib/lvgl/src/misc/lv_anim.c **** 
  19:Lib/lvgl/src/misc/lv_anim.c **** /*********************
  20:Lib/lvgl/src/misc/lv_anim.c ****  *      DEFINES
  21:Lib/lvgl/src/misc/lv_anim.c ****  *********************/
  22:Lib/lvgl/src/misc/lv_anim.c **** #define LV_ANIM_RESOLUTION 1024
  23:Lib/lvgl/src/misc/lv_anim.c **** #define LV_ANIM_RES_SHIFT 10
  24:Lib/lvgl/src/misc/lv_anim.c **** #define state LV_GLOBAL_DEFAULT()->anim_state
  25:Lib/lvgl/src/misc/lv_anim.c **** #define anim_ll_p &(state.anim_ll)
  26:Lib/lvgl/src/misc/lv_anim.c **** 
  27:Lib/lvgl/src/misc/lv_anim.c **** /**********************
  28:Lib/lvgl/src/misc/lv_anim.c ****  *      TYPEDEFS
  29:Lib/lvgl/src/misc/lv_anim.c ****  **********************/
  30:Lib/lvgl/src/misc/lv_anim.c **** 
ARM GAS  C:\Users\Alex\AppData\Local\Temp\ccbB2tth.s 			page 2


  31:Lib/lvgl/src/misc/lv_anim.c **** /**********************
  32:Lib/lvgl/src/misc/lv_anim.c ****  *  STATIC PROTOTYPES
  33:Lib/lvgl/src/misc/lv_anim.c ****  **********************/
  34:Lib/lvgl/src/misc/lv_anim.c **** static void anim_timer(lv_timer_t * param);
  35:Lib/lvgl/src/misc/lv_anim.c **** static void anim_mark_list_change(void);
  36:Lib/lvgl/src/misc/lv_anim.c **** static void anim_completed_handler(lv_anim_t * a);
  37:Lib/lvgl/src/misc/lv_anim.c **** static int32_t lv_anim_path_cubic_bezier(const lv_anim_t * a, int32_t x1,
  38:Lib/lvgl/src/misc/lv_anim.c ****                                          int32_t y1, int32_t x2, int32_t y2);
  39:Lib/lvgl/src/misc/lv_anim.c **** static uint32_t convert_speed_to_time(uint32_t speed, int32_t start, int32_t end);
  40:Lib/lvgl/src/misc/lv_anim.c **** static void resolve_time(lv_anim_t * a);
  41:Lib/lvgl/src/misc/lv_anim.c **** static bool remove_concurrent_anims(lv_anim_t * a_current);
  42:Lib/lvgl/src/misc/lv_anim.c **** static bool delete_core(void * var, void * cb, bool custom_exec_cb);
  43:Lib/lvgl/src/misc/lv_anim.c **** 
  44:Lib/lvgl/src/misc/lv_anim.c **** /**********************
  45:Lib/lvgl/src/misc/lv_anim.c ****  *  STATIC VARIABLES
  46:Lib/lvgl/src/misc/lv_anim.c ****  **********************/
  47:Lib/lvgl/src/misc/lv_anim.c **** 
  48:Lib/lvgl/src/misc/lv_anim.c **** /**********************
  49:Lib/lvgl/src/misc/lv_anim.c ****  *      MACROS
  50:Lib/lvgl/src/misc/lv_anim.c ****  **********************/
  51:Lib/lvgl/src/misc/lv_anim.c **** #if LV_USE_LOG && LV_LOG_TRACE_ANIM
  52:Lib/lvgl/src/misc/lv_anim.c ****     #define LV_TRACE_ANIM(...) LV_LOG_TRACE(__VA_ARGS__)
  53:Lib/lvgl/src/misc/lv_anim.c **** #else
  54:Lib/lvgl/src/misc/lv_anim.c ****     #define LV_TRACE_ANIM(...)
  55:Lib/lvgl/src/misc/lv_anim.c **** #endif
  56:Lib/lvgl/src/misc/lv_anim.c **** 
  57:Lib/lvgl/src/misc/lv_anim.c **** /**********************
  58:Lib/lvgl/src/misc/lv_anim.c ****  *   GLOBAL FUNCTIONS
  59:Lib/lvgl/src/misc/lv_anim.c ****  **********************/
  60:Lib/lvgl/src/misc/lv_anim.c **** 
  61:Lib/lvgl/src/misc/lv_anim.c **** void _lv_anim_core_init(void)
  62:Lib/lvgl/src/misc/lv_anim.c **** {
  63:Lib/lvgl/src/misc/lv_anim.c ****     _lv_ll_init(anim_ll_p, sizeof(lv_anim_t));
  64:Lib/lvgl/src/misc/lv_anim.c ****     state.timer = lv_timer_create(anim_timer, LV_DEF_REFR_PERIOD, NULL);
  65:Lib/lvgl/src/misc/lv_anim.c ****     anim_mark_list_change(); /*Turn off the animation timer*/
  66:Lib/lvgl/src/misc/lv_anim.c ****     state.anim_list_changed = false;
  67:Lib/lvgl/src/misc/lv_anim.c ****     state.anim_run_round = false;
  68:Lib/lvgl/src/misc/lv_anim.c **** }
  69:Lib/lvgl/src/misc/lv_anim.c **** 
  70:Lib/lvgl/src/misc/lv_anim.c **** void _lv_anim_core_deinit(void)
  71:Lib/lvgl/src/misc/lv_anim.c **** {
  72:Lib/lvgl/src/misc/lv_anim.c ****     lv_anim_delete_all();
  73:Lib/lvgl/src/misc/lv_anim.c **** }
  74:Lib/lvgl/src/misc/lv_anim.c **** 
  75:Lib/lvgl/src/misc/lv_anim.c **** void lv_anim_init(lv_anim_t * a)
  76:Lib/lvgl/src/misc/lv_anim.c **** {
  77:Lib/lvgl/src/misc/lv_anim.c ****     lv_memzero(a, sizeof(lv_anim_t));
  78:Lib/lvgl/src/misc/lv_anim.c ****     a->duration = 500;
  79:Lib/lvgl/src/misc/lv_anim.c ****     a->start_value = 0;
  80:Lib/lvgl/src/misc/lv_anim.c ****     a->end_value = 100;
  81:Lib/lvgl/src/misc/lv_anim.c ****     a->repeat_cnt = 1;
  82:Lib/lvgl/src/misc/lv_anim.c ****     a->path_cb = lv_anim_path_linear;
  83:Lib/lvgl/src/misc/lv_anim.c ****     a->early_apply = 1;
  84:Lib/lvgl/src/misc/lv_anim.c **** }
  85:Lib/lvgl/src/misc/lv_anim.c **** 
  86:Lib/lvgl/src/misc/lv_anim.c **** lv_anim_t * lv_anim_start(const lv_anim_t * a)
  87:Lib/lvgl/src/misc/lv_anim.c **** {
ARM GAS  C:\Users\Alex\AppData\Local\Temp\ccbB2tth.s 			page 3


  88:Lib/lvgl/src/misc/lv_anim.c ****     LV_TRACE_ANIM("begin");
  89:Lib/lvgl/src/misc/lv_anim.c **** 
  90:Lib/lvgl/src/misc/lv_anim.c ****     /*Add the new animation to the animation linked list*/
  91:Lib/lvgl/src/misc/lv_anim.c ****     lv_anim_t * new_anim = _lv_ll_ins_head(anim_ll_p);
  92:Lib/lvgl/src/misc/lv_anim.c ****     LV_ASSERT_MALLOC(new_anim);
  93:Lib/lvgl/src/misc/lv_anim.c ****     if(new_anim == NULL) return NULL;
  94:Lib/lvgl/src/misc/lv_anim.c **** 
  95:Lib/lvgl/src/misc/lv_anim.c ****     /*Initialize the animation descriptor*/
  96:Lib/lvgl/src/misc/lv_anim.c ****     lv_memcpy(new_anim, a, sizeof(lv_anim_t));
  97:Lib/lvgl/src/misc/lv_anim.c ****     if(a->var == a) new_anim->var = new_anim;
  98:Lib/lvgl/src/misc/lv_anim.c ****     new_anim->run_round = state.anim_run_round;
  99:Lib/lvgl/src/misc/lv_anim.c ****     new_anim->last_timer_run = lv_tick_get();
 100:Lib/lvgl/src/misc/lv_anim.c **** 
 101:Lib/lvgl/src/misc/lv_anim.c ****     /*Set the start value*/
 102:Lib/lvgl/src/misc/lv_anim.c ****     if(new_anim->early_apply) {
 103:Lib/lvgl/src/misc/lv_anim.c ****         if(new_anim->get_value_cb) {
 104:Lib/lvgl/src/misc/lv_anim.c ****             int32_t v_ofs = new_anim->get_value_cb(new_anim);
 105:Lib/lvgl/src/misc/lv_anim.c ****             new_anim->start_value += v_ofs;
 106:Lib/lvgl/src/misc/lv_anim.c ****             new_anim->end_value += v_ofs;
 107:Lib/lvgl/src/misc/lv_anim.c **** 
 108:Lib/lvgl/src/misc/lv_anim.c ****         }
 109:Lib/lvgl/src/misc/lv_anim.c **** 
 110:Lib/lvgl/src/misc/lv_anim.c ****         resolve_time(new_anim);
 111:Lib/lvgl/src/misc/lv_anim.c **** 
 112:Lib/lvgl/src/misc/lv_anim.c ****         /*Do not let two animations for the same 'var' with the same 'exec_cb'*/
 113:Lib/lvgl/src/misc/lv_anim.c ****         if(a->exec_cb || a->custom_exec_cb) remove_concurrent_anims(new_anim);
 114:Lib/lvgl/src/misc/lv_anim.c **** 
 115:Lib/lvgl/src/misc/lv_anim.c ****         if(new_anim->exec_cb) {
 116:Lib/lvgl/src/misc/lv_anim.c ****             new_anim->exec_cb(new_anim->var, new_anim->start_value);
 117:Lib/lvgl/src/misc/lv_anim.c ****         }
 118:Lib/lvgl/src/misc/lv_anim.c ****         if(new_anim->custom_exec_cb) {
 119:Lib/lvgl/src/misc/lv_anim.c ****             new_anim->custom_exec_cb(new_anim, new_anim->start_value);
 120:Lib/lvgl/src/misc/lv_anim.c ****         }
 121:Lib/lvgl/src/misc/lv_anim.c ****     }
 122:Lib/lvgl/src/misc/lv_anim.c **** 
 123:Lib/lvgl/src/misc/lv_anim.c ****     /*Creating an animation changed the linked list.
 124:Lib/lvgl/src/misc/lv_anim.c ****      *It's important if it happens in a ready callback. (see `anim_timer`)*/
 125:Lib/lvgl/src/misc/lv_anim.c ****     anim_mark_list_change();
 126:Lib/lvgl/src/misc/lv_anim.c **** 
 127:Lib/lvgl/src/misc/lv_anim.c ****     LV_TRACE_ANIM("finished");
 128:Lib/lvgl/src/misc/lv_anim.c ****     return new_anim;
 129:Lib/lvgl/src/misc/lv_anim.c **** }
 130:Lib/lvgl/src/misc/lv_anim.c **** 
 131:Lib/lvgl/src/misc/lv_anim.c **** uint32_t lv_anim_get_playtime(const lv_anim_t * a)
 132:Lib/lvgl/src/misc/lv_anim.c **** {
 133:Lib/lvgl/src/misc/lv_anim.c ****     if(a->repeat_cnt == LV_ANIM_REPEAT_INFINITE) {
 134:Lib/lvgl/src/misc/lv_anim.c ****         return LV_ANIM_PLAYTIME_INFINITE;
 135:Lib/lvgl/src/misc/lv_anim.c ****     }
 136:Lib/lvgl/src/misc/lv_anim.c **** 
 137:Lib/lvgl/src/misc/lv_anim.c ****     uint32_t repeate_cnt = a->repeat_cnt;
 138:Lib/lvgl/src/misc/lv_anim.c ****     if(repeate_cnt < 1) repeate_cnt = 1;
 139:Lib/lvgl/src/misc/lv_anim.c **** 
 140:Lib/lvgl/src/misc/lv_anim.c ****     uint32_t playtime = a->repeat_delay + a->duration + a->playback_delay + a->playback_duration;
 141:Lib/lvgl/src/misc/lv_anim.c ****     playtime = playtime * a->repeat_cnt;
 142:Lib/lvgl/src/misc/lv_anim.c ****     return playtime;
 143:Lib/lvgl/src/misc/lv_anim.c **** }
 144:Lib/lvgl/src/misc/lv_anim.c **** 
ARM GAS  C:\Users\Alex\AppData\Local\Temp\ccbB2tth.s 			page 4


 145:Lib/lvgl/src/misc/lv_anim.c **** bool lv_anim_delete(void * var, lv_anim_exec_xcb_t exec_cb)
 146:Lib/lvgl/src/misc/lv_anim.c **** {
 147:Lib/lvgl/src/misc/lv_anim.c ****     return delete_core(var, exec_cb, false);
 148:Lib/lvgl/src/misc/lv_anim.c **** }
 149:Lib/lvgl/src/misc/lv_anim.c **** 
 150:Lib/lvgl/src/misc/lv_anim.c **** void lv_anim_delete_all(void)
 151:Lib/lvgl/src/misc/lv_anim.c **** {
 152:Lib/lvgl/src/misc/lv_anim.c ****     _lv_ll_clear(anim_ll_p);
 153:Lib/lvgl/src/misc/lv_anim.c ****     anim_mark_list_change();
 154:Lib/lvgl/src/misc/lv_anim.c **** }
 155:Lib/lvgl/src/misc/lv_anim.c **** 
 156:Lib/lvgl/src/misc/lv_anim.c **** lv_anim_t * lv_anim_get(void * var, lv_anim_exec_xcb_t exec_cb)
 157:Lib/lvgl/src/misc/lv_anim.c **** {
 158:Lib/lvgl/src/misc/lv_anim.c ****     lv_anim_t * a;
 159:Lib/lvgl/src/misc/lv_anim.c ****     _LV_LL_READ(anim_ll_p, a) {
 160:Lib/lvgl/src/misc/lv_anim.c ****         if(a->var == var && (a->exec_cb == exec_cb || exec_cb == NULL)) {
 161:Lib/lvgl/src/misc/lv_anim.c ****             return a;
 162:Lib/lvgl/src/misc/lv_anim.c ****         }
 163:Lib/lvgl/src/misc/lv_anim.c ****     }
 164:Lib/lvgl/src/misc/lv_anim.c **** 
 165:Lib/lvgl/src/misc/lv_anim.c ****     return NULL;
 166:Lib/lvgl/src/misc/lv_anim.c **** }
 167:Lib/lvgl/src/misc/lv_anim.c **** 
 168:Lib/lvgl/src/misc/lv_anim.c **** lv_timer_t * lv_anim_get_timer(void)
 169:Lib/lvgl/src/misc/lv_anim.c **** {
 170:Lib/lvgl/src/misc/lv_anim.c ****     return state.timer;
 171:Lib/lvgl/src/misc/lv_anim.c **** }
 172:Lib/lvgl/src/misc/lv_anim.c **** 
 173:Lib/lvgl/src/misc/lv_anim.c **** uint16_t lv_anim_count_running(void)
 174:Lib/lvgl/src/misc/lv_anim.c **** {
 175:Lib/lvgl/src/misc/lv_anim.c ****     uint16_t cnt = 0;
 176:Lib/lvgl/src/misc/lv_anim.c ****     lv_anim_t * a;
 177:Lib/lvgl/src/misc/lv_anim.c ****     _LV_LL_READ(anim_ll_p, a) cnt++;
 178:Lib/lvgl/src/misc/lv_anim.c **** 
 179:Lib/lvgl/src/misc/lv_anim.c ****     return cnt;
 180:Lib/lvgl/src/misc/lv_anim.c **** }
 181:Lib/lvgl/src/misc/lv_anim.c **** 
 182:Lib/lvgl/src/misc/lv_anim.c **** uint32_t lv_anim_speed_clamped(uint32_t speed, uint32_t min_time, uint32_t max_time)
 183:Lib/lvgl/src/misc/lv_anim.c **** {
 184:Lib/lvgl/src/misc/lv_anim.c **** 
 185:Lib/lvgl/src/misc/lv_anim.c ****     if(speed > 10000) {
 186:Lib/lvgl/src/misc/lv_anim.c ****         LV_LOG_WARN("speed is truncated to 10000 (was %"LV_PRIu32")", speed);
 187:Lib/lvgl/src/misc/lv_anim.c ****         speed = 10230;
 188:Lib/lvgl/src/misc/lv_anim.c ****     }
 189:Lib/lvgl/src/misc/lv_anim.c ****     if(min_time > 10000) {
 190:Lib/lvgl/src/misc/lv_anim.c ****         LV_LOG_WARN("min_time is truncated to 10000 (was %"LV_PRIu32")", min_time);
 191:Lib/lvgl/src/misc/lv_anim.c ****         min_time = 10230;
 192:Lib/lvgl/src/misc/lv_anim.c ****     }
 193:Lib/lvgl/src/misc/lv_anim.c ****     if(max_time > 10000) {
 194:Lib/lvgl/src/misc/lv_anim.c ****         LV_LOG_WARN("max_time is truncated to 10000 (was %"LV_PRIu32")", max_time);
 195:Lib/lvgl/src/misc/lv_anim.c ****         max_time = 10230;
 196:Lib/lvgl/src/misc/lv_anim.c ****     }
 197:Lib/lvgl/src/misc/lv_anim.c **** 
 198:Lib/lvgl/src/misc/lv_anim.c ****     /*Lower the resolution to fit the 0.1023 range*/
 199:Lib/lvgl/src/misc/lv_anim.c ****     speed = (speed + 5) / 10;
 200:Lib/lvgl/src/misc/lv_anim.c ****     min_time = (min_time + 5) / 10;
 201:Lib/lvgl/src/misc/lv_anim.c ****     max_time = (max_time + 5) / 10;
ARM GAS  C:\Users\Alex\AppData\Local\Temp\ccbB2tth.s 			page 5


 202:Lib/lvgl/src/misc/lv_anim.c **** 
 203:Lib/lvgl/src/misc/lv_anim.c ****     return 0x80000000 + (max_time << 20) + (min_time << 10) + speed;
 204:Lib/lvgl/src/misc/lv_anim.c **** 
 205:Lib/lvgl/src/misc/lv_anim.c **** }
 206:Lib/lvgl/src/misc/lv_anim.c **** 
 207:Lib/lvgl/src/misc/lv_anim.c **** uint32_t lv_anim_speed(uint32_t speed)
 208:Lib/lvgl/src/misc/lv_anim.c **** {
 209:Lib/lvgl/src/misc/lv_anim.c ****     return lv_anim_speed_clamped(speed, 0, 10000);
 210:Lib/lvgl/src/misc/lv_anim.c **** }
 211:Lib/lvgl/src/misc/lv_anim.c **** 
 212:Lib/lvgl/src/misc/lv_anim.c **** void lv_anim_refr_now(void)
 213:Lib/lvgl/src/misc/lv_anim.c **** {
 214:Lib/lvgl/src/misc/lv_anim.c ****     anim_timer(NULL);
 215:Lib/lvgl/src/misc/lv_anim.c **** }
 216:Lib/lvgl/src/misc/lv_anim.c **** 
 217:Lib/lvgl/src/misc/lv_anim.c **** int32_t lv_anim_path_linear(const lv_anim_t * a)
 218:Lib/lvgl/src/misc/lv_anim.c **** {
 219:Lib/lvgl/src/misc/lv_anim.c ****     /*Calculate the current step*/
 220:Lib/lvgl/src/misc/lv_anim.c ****     int32_t step = lv_map(a->act_time, 0, a->duration, 0, LV_ANIM_RESOLUTION);
 221:Lib/lvgl/src/misc/lv_anim.c **** 
 222:Lib/lvgl/src/misc/lv_anim.c ****     /*Get the new value which will be proportional to `step`
 223:Lib/lvgl/src/misc/lv_anim.c ****      *and the `start` and `end` values*/
 224:Lib/lvgl/src/misc/lv_anim.c ****     int32_t new_value;
 225:Lib/lvgl/src/misc/lv_anim.c ****     new_value = step * (a->end_value - a->start_value);
 226:Lib/lvgl/src/misc/lv_anim.c ****     new_value = new_value >> LV_ANIM_RES_SHIFT;
 227:Lib/lvgl/src/misc/lv_anim.c ****     new_value += a->start_value;
 228:Lib/lvgl/src/misc/lv_anim.c **** 
 229:Lib/lvgl/src/misc/lv_anim.c ****     return new_value;
 230:Lib/lvgl/src/misc/lv_anim.c **** }
 231:Lib/lvgl/src/misc/lv_anim.c **** 
 232:Lib/lvgl/src/misc/lv_anim.c **** int32_t lv_anim_path_ease_in(const lv_anim_t * a)
 233:Lib/lvgl/src/misc/lv_anim.c **** {
 234:Lib/lvgl/src/misc/lv_anim.c ****     return lv_anim_path_cubic_bezier(a, LV_BEZIER_VAL_FLOAT(0.42), LV_BEZIER_VAL_FLOAT(0),
 235:Lib/lvgl/src/misc/lv_anim.c ****                                      LV_BEZIER_VAL_FLOAT(1), LV_BEZIER_VAL_FLOAT(1));
 236:Lib/lvgl/src/misc/lv_anim.c **** }
 237:Lib/lvgl/src/misc/lv_anim.c **** 
 238:Lib/lvgl/src/misc/lv_anim.c **** int32_t lv_anim_path_ease_out(const lv_anim_t * a)
 239:Lib/lvgl/src/misc/lv_anim.c **** {
 240:Lib/lvgl/src/misc/lv_anim.c ****     return lv_anim_path_cubic_bezier(a, LV_BEZIER_VAL_FLOAT(0), LV_BEZIER_VAL_FLOAT(0),
 241:Lib/lvgl/src/misc/lv_anim.c ****                                      LV_BEZIER_VAL_FLOAT(0.58), LV_BEZIER_VAL_FLOAT(1));
 242:Lib/lvgl/src/misc/lv_anim.c **** }
 243:Lib/lvgl/src/misc/lv_anim.c **** 
 244:Lib/lvgl/src/misc/lv_anim.c **** int32_t lv_anim_path_ease_in_out(const lv_anim_t * a)
 245:Lib/lvgl/src/misc/lv_anim.c **** {
 246:Lib/lvgl/src/misc/lv_anim.c ****     return lv_anim_path_cubic_bezier(a, LV_BEZIER_VAL_FLOAT(0.42), LV_BEZIER_VAL_FLOAT(0),
 247:Lib/lvgl/src/misc/lv_anim.c ****                                      LV_BEZIER_VAL_FLOAT(0.58), LV_BEZIER_VAL_FLOAT(1));
 248:Lib/lvgl/src/misc/lv_anim.c **** }
 249:Lib/lvgl/src/misc/lv_anim.c **** 
 250:Lib/lvgl/src/misc/lv_anim.c **** int32_t lv_anim_path_overshoot(const lv_anim_t * a)
 251:Lib/lvgl/src/misc/lv_anim.c **** {
 252:Lib/lvgl/src/misc/lv_anim.c ****     return lv_anim_path_cubic_bezier(a, 341, 0, 683, 1300);
 253:Lib/lvgl/src/misc/lv_anim.c **** }
 254:Lib/lvgl/src/misc/lv_anim.c **** 
 255:Lib/lvgl/src/misc/lv_anim.c **** int32_t lv_anim_path_bounce(const lv_anim_t * a)
 256:Lib/lvgl/src/misc/lv_anim.c **** {
 257:Lib/lvgl/src/misc/lv_anim.c ****     /*Calculate the current step*/
 258:Lib/lvgl/src/misc/lv_anim.c ****     int32_t t = lv_map(a->act_time, 0, a->duration, 0, LV_BEZIER_VAL_MAX);
ARM GAS  C:\Users\Alex\AppData\Local\Temp\ccbB2tth.s 			page 6


 259:Lib/lvgl/src/misc/lv_anim.c ****     int32_t diff = (a->end_value - a->start_value);
 260:Lib/lvgl/src/misc/lv_anim.c **** 
 261:Lib/lvgl/src/misc/lv_anim.c ****     /*3 bounces has 5 parts: 3 down and 2 up. One part is t / 5 long*/
 262:Lib/lvgl/src/misc/lv_anim.c **** 
 263:Lib/lvgl/src/misc/lv_anim.c ****     if(t < 408) {
 264:Lib/lvgl/src/misc/lv_anim.c ****         /*Go down*/
 265:Lib/lvgl/src/misc/lv_anim.c ****         t = (t * 2500) >> LV_BEZIER_VAL_SHIFT; /*[0..1024] range*/
 266:Lib/lvgl/src/misc/lv_anim.c ****     }
 267:Lib/lvgl/src/misc/lv_anim.c ****     else if(t >= 408 && t < 614) {
 268:Lib/lvgl/src/misc/lv_anim.c ****         /*First bounce back*/
 269:Lib/lvgl/src/misc/lv_anim.c ****         t -= 408;
 270:Lib/lvgl/src/misc/lv_anim.c ****         t    = t * 5; /*to [0..1024] range*/
 271:Lib/lvgl/src/misc/lv_anim.c ****         t    = LV_BEZIER_VAL_MAX - t;
 272:Lib/lvgl/src/misc/lv_anim.c ****         diff = diff / 20;
 273:Lib/lvgl/src/misc/lv_anim.c ****     }
 274:Lib/lvgl/src/misc/lv_anim.c ****     else if(t >= 614 && t < 819) {
 275:Lib/lvgl/src/misc/lv_anim.c ****         /*Fall back*/
 276:Lib/lvgl/src/misc/lv_anim.c ****         t -= 614;
 277:Lib/lvgl/src/misc/lv_anim.c ****         t    = t * 5; /*to [0..1024] range*/
 278:Lib/lvgl/src/misc/lv_anim.c ****         diff = diff / 20;
 279:Lib/lvgl/src/misc/lv_anim.c ****     }
 280:Lib/lvgl/src/misc/lv_anim.c ****     else if(t >= 819 && t < 921) {
 281:Lib/lvgl/src/misc/lv_anim.c ****         /*Second bounce back*/
 282:Lib/lvgl/src/misc/lv_anim.c ****         t -= 819;
 283:Lib/lvgl/src/misc/lv_anim.c ****         t    = t * 10; /*to [0..1024] range*/
 284:Lib/lvgl/src/misc/lv_anim.c ****         t    = LV_BEZIER_VAL_MAX - t;
 285:Lib/lvgl/src/misc/lv_anim.c ****         diff = diff / 40;
 286:Lib/lvgl/src/misc/lv_anim.c ****     }
 287:Lib/lvgl/src/misc/lv_anim.c ****     else if(t >= 921 && t <= LV_BEZIER_VAL_MAX) {
 288:Lib/lvgl/src/misc/lv_anim.c ****         /*Fall back*/
 289:Lib/lvgl/src/misc/lv_anim.c ****         t -= 921;
 290:Lib/lvgl/src/misc/lv_anim.c ****         t    = t * 10; /*to [0..1024] range*/
 291:Lib/lvgl/src/misc/lv_anim.c ****         diff = diff / 40;
 292:Lib/lvgl/src/misc/lv_anim.c ****     }
 293:Lib/lvgl/src/misc/lv_anim.c **** 
 294:Lib/lvgl/src/misc/lv_anim.c ****     if(t > LV_BEZIER_VAL_MAX) t = LV_BEZIER_VAL_MAX;
 295:Lib/lvgl/src/misc/lv_anim.c ****     if(t < 0) t = 0;
 296:Lib/lvgl/src/misc/lv_anim.c ****     int32_t step = lv_bezier3(t, LV_BEZIER_VAL_MAX, 800, 500, 0);
 297:Lib/lvgl/src/misc/lv_anim.c **** 
 298:Lib/lvgl/src/misc/lv_anim.c ****     int32_t new_value;
 299:Lib/lvgl/src/misc/lv_anim.c ****     new_value = step * diff;
 300:Lib/lvgl/src/misc/lv_anim.c ****     new_value = new_value >> LV_BEZIER_VAL_SHIFT;
 301:Lib/lvgl/src/misc/lv_anim.c ****     new_value = a->end_value - new_value;
 302:Lib/lvgl/src/misc/lv_anim.c **** 
 303:Lib/lvgl/src/misc/lv_anim.c ****     return new_value;
 304:Lib/lvgl/src/misc/lv_anim.c **** }
 305:Lib/lvgl/src/misc/lv_anim.c **** 
 306:Lib/lvgl/src/misc/lv_anim.c **** int32_t lv_anim_path_step(const lv_anim_t * a)
 307:Lib/lvgl/src/misc/lv_anim.c **** {
 308:Lib/lvgl/src/misc/lv_anim.c ****     if(a->act_time >= a->duration)
 309:Lib/lvgl/src/misc/lv_anim.c ****         return a->end_value;
 310:Lib/lvgl/src/misc/lv_anim.c ****     else
 311:Lib/lvgl/src/misc/lv_anim.c ****         return a->start_value;
 312:Lib/lvgl/src/misc/lv_anim.c **** }
 313:Lib/lvgl/src/misc/lv_anim.c **** 
 314:Lib/lvgl/src/misc/lv_anim.c **** int32_t lv_anim_path_custom_bezier3(const lv_anim_t * a)
 315:Lib/lvgl/src/misc/lv_anim.c **** {
ARM GAS  C:\Users\Alex\AppData\Local\Temp\ccbB2tth.s 			page 7


 316:Lib/lvgl/src/misc/lv_anim.c ****     const struct _lv_anim_bezier3_para_t * para = &a->parameter.bezier3;
 317:Lib/lvgl/src/misc/lv_anim.c ****     return lv_anim_path_cubic_bezier(a, para->x1, para->y1, para->x2, para->y2);
 318:Lib/lvgl/src/misc/lv_anim.c **** }
 319:Lib/lvgl/src/misc/lv_anim.c **** 
 320:Lib/lvgl/src/misc/lv_anim.c **** /**********************
 321:Lib/lvgl/src/misc/lv_anim.c ****  *   STATIC FUNCTIONS
 322:Lib/lvgl/src/misc/lv_anim.c ****  **********************/
 323:Lib/lvgl/src/misc/lv_anim.c **** /**
 324:Lib/lvgl/src/misc/lv_anim.c ****  * Periodically handle the animations.
 325:Lib/lvgl/src/misc/lv_anim.c ****  * @param param unused
 326:Lib/lvgl/src/misc/lv_anim.c ****  */
 327:Lib/lvgl/src/misc/lv_anim.c **** static void anim_timer(lv_timer_t * param)
 328:Lib/lvgl/src/misc/lv_anim.c **** {
 329:Lib/lvgl/src/misc/lv_anim.c ****     LV_UNUSED(param);
 330:Lib/lvgl/src/misc/lv_anim.c **** 
 331:Lib/lvgl/src/misc/lv_anim.c ****     /*Flip the run round*/
 332:Lib/lvgl/src/misc/lv_anim.c ****     state.anim_run_round = state.anim_run_round ? false : true;
 333:Lib/lvgl/src/misc/lv_anim.c **** 
 334:Lib/lvgl/src/misc/lv_anim.c ****     lv_anim_t * a = _lv_ll_get_head(anim_ll_p);
 335:Lib/lvgl/src/misc/lv_anim.c **** 
 336:Lib/lvgl/src/misc/lv_anim.c ****     while(a != NULL) {
 337:Lib/lvgl/src/misc/lv_anim.c **** 
 338:Lib/lvgl/src/misc/lv_anim.c ****         //        printf("%p, %d\n", a, a->start_value);
 339:Lib/lvgl/src/misc/lv_anim.c **** 
 340:Lib/lvgl/src/misc/lv_anim.c ****         uint32_t elaps = lv_tick_elaps(a->last_timer_run);
 341:Lib/lvgl/src/misc/lv_anim.c ****         a->act_time += elaps;
 342:Lib/lvgl/src/misc/lv_anim.c **** 
 343:Lib/lvgl/src/misc/lv_anim.c ****         a->last_timer_run = lv_tick_get();
 344:Lib/lvgl/src/misc/lv_anim.c **** 
 345:Lib/lvgl/src/misc/lv_anim.c ****         /*It can be set by `lv_anim_delete()` typically in `end_cb`. If set then an animation delet
 346:Lib/lvgl/src/misc/lv_anim.c ****          * happened in `anim_completed_handler` which could make this linked list reading corrupt
 347:Lib/lvgl/src/misc/lv_anim.c ****          * because the list is changed meanwhile
 348:Lib/lvgl/src/misc/lv_anim.c ****          */
 349:Lib/lvgl/src/misc/lv_anim.c ****         state.anim_list_changed = false;
 350:Lib/lvgl/src/misc/lv_anim.c **** 
 351:Lib/lvgl/src/misc/lv_anim.c ****         if(a->run_round != state.anim_run_round) {
 352:Lib/lvgl/src/misc/lv_anim.c ****             a->run_round = state.anim_run_round; /*The list readying might be reset so need to know
 353:Lib/lvgl/src/misc/lv_anim.c **** 
 354:Lib/lvgl/src/misc/lv_anim.c ****             /*The animation will run now for the first time. Call `start_cb`*/
 355:Lib/lvgl/src/misc/lv_anim.c ****             if(!a->start_cb_called && a->act_time >= 0) {
 356:Lib/lvgl/src/misc/lv_anim.c **** 
 357:Lib/lvgl/src/misc/lv_anim.c ****                 if(a->early_apply == 0 && a->get_value_cb) {
 358:Lib/lvgl/src/misc/lv_anim.c ****                     int32_t v_ofs = a->get_value_cb(a);
 359:Lib/lvgl/src/misc/lv_anim.c ****                     a->start_value += v_ofs;
 360:Lib/lvgl/src/misc/lv_anim.c ****                     a->end_value += v_ofs;
 361:Lib/lvgl/src/misc/lv_anim.c ****                 }
 362:Lib/lvgl/src/misc/lv_anim.c **** 
 363:Lib/lvgl/src/misc/lv_anim.c ****                 resolve_time(a);
 364:Lib/lvgl/src/misc/lv_anim.c **** 
 365:Lib/lvgl/src/misc/lv_anim.c ****                 if(a->start_cb) a->start_cb(a);
 366:Lib/lvgl/src/misc/lv_anim.c ****                 a->start_cb_called = 1;
 367:Lib/lvgl/src/misc/lv_anim.c **** 
 368:Lib/lvgl/src/misc/lv_anim.c ****                 /*Do not let two animations for the same 'var' with the same 'exec_cb'*/
 369:Lib/lvgl/src/misc/lv_anim.c ****                 remove_concurrent_anims(a);
 370:Lib/lvgl/src/misc/lv_anim.c ****             }
 371:Lib/lvgl/src/misc/lv_anim.c **** 
 372:Lib/lvgl/src/misc/lv_anim.c ****             if(a->act_time >= 0) {
ARM GAS  C:\Users\Alex\AppData\Local\Temp\ccbB2tth.s 			page 8


 373:Lib/lvgl/src/misc/lv_anim.c ****                 if(a->act_time > a->duration) a->act_time = a->duration;
 374:Lib/lvgl/src/misc/lv_anim.c **** 
 375:Lib/lvgl/src/misc/lv_anim.c ****                 int32_t new_value;
 376:Lib/lvgl/src/misc/lv_anim.c ****                 new_value = a->path_cb(a);
 377:Lib/lvgl/src/misc/lv_anim.c **** 
 378:Lib/lvgl/src/misc/lv_anim.c ****                 if(new_value != a->current_value) {
 379:Lib/lvgl/src/misc/lv_anim.c ****                     a->current_value = new_value;
 380:Lib/lvgl/src/misc/lv_anim.c ****                     /*Apply the calculated value*/
 381:Lib/lvgl/src/misc/lv_anim.c ****                     if(a->exec_cb) a->exec_cb(a->var, new_value);
 382:Lib/lvgl/src/misc/lv_anim.c ****                     if(!state.anim_list_changed && a->custom_exec_cb) a->custom_exec_cb(a, new_valu
 383:Lib/lvgl/src/misc/lv_anim.c ****                 }
 384:Lib/lvgl/src/misc/lv_anim.c **** 
 385:Lib/lvgl/src/misc/lv_anim.c ****                 /*If the time is elapsed the animation is ready*/
 386:Lib/lvgl/src/misc/lv_anim.c ****                 if(!state.anim_list_changed && a->act_time >= a->duration) {
 387:Lib/lvgl/src/misc/lv_anim.c ****                     anim_completed_handler(a);
 388:Lib/lvgl/src/misc/lv_anim.c ****                 }
 389:Lib/lvgl/src/misc/lv_anim.c ****             }
 390:Lib/lvgl/src/misc/lv_anim.c ****         }
 391:Lib/lvgl/src/misc/lv_anim.c **** 
 392:Lib/lvgl/src/misc/lv_anim.c ****         /*If the linked list changed due to anim. delete then it's not safe to continue
 393:Lib/lvgl/src/misc/lv_anim.c ****          *the reading of the list from here -> start from the head*/
 394:Lib/lvgl/src/misc/lv_anim.c ****         if(state.anim_list_changed)
 395:Lib/lvgl/src/misc/lv_anim.c ****             a = _lv_ll_get_head(anim_ll_p);
 396:Lib/lvgl/src/misc/lv_anim.c ****         else
 397:Lib/lvgl/src/misc/lv_anim.c ****             a = _lv_ll_get_next(anim_ll_p, a);
 398:Lib/lvgl/src/misc/lv_anim.c ****     }
 399:Lib/lvgl/src/misc/lv_anim.c **** 
 400:Lib/lvgl/src/misc/lv_anim.c **** }
 401:Lib/lvgl/src/misc/lv_anim.c **** 
 402:Lib/lvgl/src/misc/lv_anim.c **** /**
 403:Lib/lvgl/src/misc/lv_anim.c ****  * Called when an animation is completed to do the necessary things
 404:Lib/lvgl/src/misc/lv_anim.c ****  * e.g. repeat, play back, delete etc.
 405:Lib/lvgl/src/misc/lv_anim.c ****  * @param a pointer to an animation descriptor
 406:Lib/lvgl/src/misc/lv_anim.c ****  */
 407:Lib/lvgl/src/misc/lv_anim.c **** static void anim_completed_handler(lv_anim_t * a)
 408:Lib/lvgl/src/misc/lv_anim.c **** {
 409:Lib/lvgl/src/misc/lv_anim.c ****     /*In the end of a forward anim decrement repeat cnt.*/
 410:Lib/lvgl/src/misc/lv_anim.c ****     if(a->playback_now == 0 && a->repeat_cnt > 0 && a->repeat_cnt != LV_ANIM_REPEAT_INFINITE) {
 411:Lib/lvgl/src/misc/lv_anim.c ****         a->repeat_cnt--;
 412:Lib/lvgl/src/misc/lv_anim.c ****     }
 413:Lib/lvgl/src/misc/lv_anim.c **** 
 414:Lib/lvgl/src/misc/lv_anim.c ****     /*Delete the animation if
 415:Lib/lvgl/src/misc/lv_anim.c ****      * - no repeat left and no play back (simple one shot animation)
 416:Lib/lvgl/src/misc/lv_anim.c ****      * - no repeat, play back is enabled and play back is ready*/
 417:Lib/lvgl/src/misc/lv_anim.c ****     if(a->repeat_cnt == 0 && (a->playback_duration == 0 || a->playback_now == 1)) {
 418:Lib/lvgl/src/misc/lv_anim.c **** 
 419:Lib/lvgl/src/misc/lv_anim.c ****         /*Delete the animation from the list.
 420:Lib/lvgl/src/misc/lv_anim.c ****          * This way the `completed_cb` will see the animations like it's animation is already delet
 421:Lib/lvgl/src/misc/lv_anim.c ****         _lv_ll_remove(anim_ll_p, a);
 422:Lib/lvgl/src/misc/lv_anim.c ****         /*Flag that the list has changed*/
 423:Lib/lvgl/src/misc/lv_anim.c ****         anim_mark_list_change();
 424:Lib/lvgl/src/misc/lv_anim.c **** 
 425:Lib/lvgl/src/misc/lv_anim.c ****         /*Call the callback function at the end*/
 426:Lib/lvgl/src/misc/lv_anim.c ****         if(a->completed_cb != NULL) a->completed_cb(a);
 427:Lib/lvgl/src/misc/lv_anim.c ****         if(a->deleted_cb != NULL) a->deleted_cb(a);
 428:Lib/lvgl/src/misc/lv_anim.c ****         lv_free(a);
 429:Lib/lvgl/src/misc/lv_anim.c ****     }
ARM GAS  C:\Users\Alex\AppData\Local\Temp\ccbB2tth.s 			page 9


 430:Lib/lvgl/src/misc/lv_anim.c ****     /*If the animation is not deleted then restart it*/
 431:Lib/lvgl/src/misc/lv_anim.c ****     else {
 432:Lib/lvgl/src/misc/lv_anim.c ****         a->act_time = -(int32_t)(a->repeat_delay); /*Restart the animation*/
 433:Lib/lvgl/src/misc/lv_anim.c ****         /*Swap the start and end values in play back mode*/
 434:Lib/lvgl/src/misc/lv_anim.c ****         if(a->playback_duration != 0) {
 435:Lib/lvgl/src/misc/lv_anim.c ****             /*If now turning back use the 'playback_pause*/
 436:Lib/lvgl/src/misc/lv_anim.c ****             if(a->playback_now == 0) a->act_time = -(int32_t)(a->playback_delay);
 437:Lib/lvgl/src/misc/lv_anim.c **** 
 438:Lib/lvgl/src/misc/lv_anim.c ****             /*Toggle the play back state*/
 439:Lib/lvgl/src/misc/lv_anim.c ****             a->playback_now = a->playback_now == 0 ? 1 : 0;
 440:Lib/lvgl/src/misc/lv_anim.c ****             /*Swap the start and end values*/
 441:Lib/lvgl/src/misc/lv_anim.c ****             int32_t tmp    = a->start_value;
 442:Lib/lvgl/src/misc/lv_anim.c ****             a->start_value = a->end_value;
 443:Lib/lvgl/src/misc/lv_anim.c ****             a->end_value   = tmp;
 444:Lib/lvgl/src/misc/lv_anim.c ****             /*Swap the time and playback_duration*/
 445:Lib/lvgl/src/misc/lv_anim.c ****             tmp = a->duration;
 446:Lib/lvgl/src/misc/lv_anim.c ****             a->duration = a->playback_duration;
 447:Lib/lvgl/src/misc/lv_anim.c ****             a->playback_duration = tmp;
 448:Lib/lvgl/src/misc/lv_anim.c ****         }
 449:Lib/lvgl/src/misc/lv_anim.c ****     }
 450:Lib/lvgl/src/misc/lv_anim.c **** }
 451:Lib/lvgl/src/misc/lv_anim.c **** 
 452:Lib/lvgl/src/misc/lv_anim.c **** static void anim_mark_list_change(void)
 453:Lib/lvgl/src/misc/lv_anim.c **** {
 454:Lib/lvgl/src/misc/lv_anim.c ****     state.anim_list_changed = true;
 455:Lib/lvgl/src/misc/lv_anim.c ****     if(_lv_ll_get_head(anim_ll_p) == NULL)
 456:Lib/lvgl/src/misc/lv_anim.c ****         lv_timer_pause(state.timer);
 457:Lib/lvgl/src/misc/lv_anim.c ****     else
 458:Lib/lvgl/src/misc/lv_anim.c ****         lv_timer_resume(state.timer);
 459:Lib/lvgl/src/misc/lv_anim.c **** }
 460:Lib/lvgl/src/misc/lv_anim.c **** 
 461:Lib/lvgl/src/misc/lv_anim.c **** static int32_t lv_anim_path_cubic_bezier(const lv_anim_t * a, int32_t x1, int32_t y1, int32_t x2, i
 462:Lib/lvgl/src/misc/lv_anim.c **** {
 463:Lib/lvgl/src/misc/lv_anim.c ****     /*Calculate the current step*/
 464:Lib/lvgl/src/misc/lv_anim.c ****     uint32_t t = lv_map(a->act_time, 0, a->duration, 0, LV_BEZIER_VAL_MAX);
 465:Lib/lvgl/src/misc/lv_anim.c ****     int32_t step = lv_cubic_bezier(t, x1, y1, x2, y2);
 466:Lib/lvgl/src/misc/lv_anim.c **** 
 467:Lib/lvgl/src/misc/lv_anim.c ****     int32_t new_value;
 468:Lib/lvgl/src/misc/lv_anim.c ****     new_value = step * (a->end_value - a->start_value);
 469:Lib/lvgl/src/misc/lv_anim.c ****     new_value = new_value >> LV_BEZIER_VAL_SHIFT;
 470:Lib/lvgl/src/misc/lv_anim.c ****     new_value += a->start_value;
 471:Lib/lvgl/src/misc/lv_anim.c **** 
 472:Lib/lvgl/src/misc/lv_anim.c ****     return new_value;
 473:Lib/lvgl/src/misc/lv_anim.c **** }
 474:Lib/lvgl/src/misc/lv_anim.c **** 
 475:Lib/lvgl/src/misc/lv_anim.c **** static uint32_t convert_speed_to_time(uint32_t speed_or_time, int32_t start, int32_t end)
 476:Lib/lvgl/src/misc/lv_anim.c **** {
  29              		.loc 1 476 1 view -0
  30              		.cfi_startproc
  31              		@ args = 0, pretend = 0, frame = 0
  32              		@ frame_needed = 0, uses_anonymous_args = 0
  33              		@ link register save eliminated.
 477:Lib/lvgl/src/misc/lv_anim.c ****     /*It was a simple time*/
 478:Lib/lvgl/src/misc/lv_anim.c ****     if((speed_or_time & 0x80000000) == 0) return speed_or_time;
  34              		.loc 1 478 5 view .LVU1
  35              		.loc 1 478 7 is_stmt 0 view .LVU2
  36 0000 0028     		cmp	r0, #0
ARM GAS  C:\Users\Alex\AppData\Local\Temp\ccbB2tth.s 			page 10


  37              		.loc 1 478 7 view .LVU3
  38 0002 1ADA     		bge	.L1
 479:Lib/lvgl/src/misc/lv_anim.c **** 
 480:Lib/lvgl/src/misc/lv_anim.c ****     uint32_t d    = LV_ABS(start - end);
  39              		.loc 1 480 5 is_stmt 1 view .LVU4
  40              		.loc 1 480 21 is_stmt 0 view .LVU5
  41 0004 891A     		subs	r1, r1, r2
  42              	.LVL1:
  43              		.loc 1 480 21 view .LVU6
  44 0006 0029     		cmp	r1, #0
  45 0008 B8BF     		it	lt
  46 000a 4942     		rsblt	r1, r1, #0
  47              	.LVL2:
 481:Lib/lvgl/src/misc/lv_anim.c ****     uint32_t speed = speed_or_time & 0x3FF;
  48              		.loc 1 481 5 is_stmt 1 view .LVU7
  49              		.loc 1 481 14 is_stmt 0 view .LVU8
  50 000c C0F30903 		ubfx	r3, r0, #0, #10
  51              	.LVL3:
 482:Lib/lvgl/src/misc/lv_anim.c ****     uint32_t time = (d * 100) / speed; /*Speed is in 10 units per sec*/
  52              		.loc 1 482 5 is_stmt 1 view .LVU9
  53              		.loc 1 482 24 is_stmt 0 view .LVU10
  54 0010 6422     		movs	r2, #100
  55              	.LVL4:
  56              		.loc 1 482 24 view .LVU11
  57 0012 02FB01F1 		mul	r1, r2, r1
  58              	.LVL5:
  59              		.loc 1 482 14 view .LVU12
  60 0016 B1FBF3F1 		udiv	r1, r1, r3
  61              	.LVL6:
 483:Lib/lvgl/src/misc/lv_anim.c ****     uint32_t max_time = (speed_or_time >> 20) & 0x3FF;
  62              		.loc 1 483 5 is_stmt 1 view .LVU13
  63              		.loc 1 483 14 is_stmt 0 view .LVU14
  64 001a C0F30952 		ubfx	r2, r0, #20, #10
  65              	.LVL7:
 484:Lib/lvgl/src/misc/lv_anim.c ****     uint32_t min_time = (speed_or_time >> 10) & 0x3FF;
  66              		.loc 1 484 5 is_stmt 1 view .LVU15
  67              		.loc 1 484 14 is_stmt 0 view .LVU16
  68 001e C0F38923 		ubfx	r3, r0, #10, #10
  69              	.LVL8:
 485:Lib/lvgl/src/misc/lv_anim.c **** 
 486:Lib/lvgl/src/misc/lv_anim.c ****     return LV_CLAMP(min_time * 10, time, max_time * 10);
  70              		.loc 1 486 5 is_stmt 1 view .LVU17
  71              		.loc 1 486 12 is_stmt 0 view .LVU18
  72 0022 02EB8202 		add	r2, r2, r2, lsl #2
  73              	.LVL9:
  74              		.loc 1 486 12 view .LVU19
  75 0026 5000     		lsls	r0, r2, #1
  76              	.LVL10:
  77              		.loc 1 486 12 view .LVU20
  78 0028 8842     		cmp	r0, r1
  79              	.LVL11:
  80              		.loc 1 486 12 view .LVU21
  81 002a 28BF     		it	cs
  82 002c 0846     		movcs	r0, r1
  83 002e 03EB8303 		add	r3, r3, r3, lsl #2
  84              	.LVL12:
  85              		.loc 1 486 12 view .LVU22
ARM GAS  C:\Users\Alex\AppData\Local\Temp\ccbB2tth.s 			page 11


  86 0032 5B00     		lsls	r3, r3, #1
  87 0034 9842     		cmp	r0, r3
  88 0036 38BF     		it	cc
  89 0038 1846     		movcc	r0, r3
  90              	.LVL13:
  91              	.L1:
 487:Lib/lvgl/src/misc/lv_anim.c **** }
  92              		.loc 1 487 1 view .LVU23
  93 003a 7047     		bx	lr
  94              		.cfi_endproc
  95              	.LFE259:
  97              		.section	.text.resolve_time,"ax",%progbits
  98              		.align	1
  99              		.syntax unified
 100              		.thumb
 101              		.thumb_func
 103              	resolve_time:
 104              	.LVL14:
 105              	.LFB260:
 488:Lib/lvgl/src/misc/lv_anim.c **** 
 489:Lib/lvgl/src/misc/lv_anim.c **** static void resolve_time(lv_anim_t * a)
 490:Lib/lvgl/src/misc/lv_anim.c **** {
 106              		.loc 1 490 1 is_stmt 1 view -0
 107              		.cfi_startproc
 108              		@ args = 0, pretend = 0, frame = 0
 109              		@ frame_needed = 0, uses_anonymous_args = 0
 110              		.loc 1 490 1 is_stmt 0 view .LVU25
 111 0000 70B5     		push	{r4, r5, r6, lr}
 112              	.LCFI0:
 113              		.cfi_def_cfa_offset 16
 114              		.cfi_offset 4, -16
 115              		.cfi_offset 5, -12
 116              		.cfi_offset 6, -8
 117              		.cfi_offset 14, -4
 118 0002 0446     		mov	r4, r0
 491:Lib/lvgl/src/misc/lv_anim.c ****     a->duration = convert_speed_to_time(a->duration, a->start_value, a->end_value);
 119              		.loc 1 491 5 is_stmt 1 view .LVU26
 120              		.loc 1 491 19 is_stmt 0 view .LVU27
 121 0004 456A     		ldr	r5, [r0, #36]
 122 0006 C66A     		ldr	r6, [r0, #44]
 123 0008 3246     		mov	r2, r6
 124 000a 2946     		mov	r1, r5
 125 000c 006B     		ldr	r0, [r0, #48]
 126              	.LVL15:
 127              		.loc 1 491 19 view .LVU28
 128 000e FFF7FEFF 		bl	convert_speed_to_time
 129              	.LVL16:
 130              		.loc 1 491 17 view .LVU29
 131 0012 2063     		str	r0, [r4, #48]
 492:Lib/lvgl/src/misc/lv_anim.c ****     a->playback_duration = convert_speed_to_time(a->playback_duration, a->start_value, a->end_value
 132              		.loc 1 492 5 is_stmt 1 view .LVU30
 133              		.loc 1 492 28 is_stmt 0 view .LVU31
 134 0014 3246     		mov	r2, r6
 135 0016 2946     		mov	r1, r5
 136 0018 E06B     		ldr	r0, [r4, #60]
 137 001a FFF7FEFF 		bl	convert_speed_to_time
 138              	.LVL17:
ARM GAS  C:\Users\Alex\AppData\Local\Temp\ccbB2tth.s 			page 12


 139              		.loc 1 492 26 view .LVU32
 140 001e E063     		str	r0, [r4, #60]
 493:Lib/lvgl/src/misc/lv_anim.c ****     a->playback_delay = convert_speed_to_time(a->playback_delay, a->start_value, a->end_value);
 141              		.loc 1 493 5 is_stmt 1 view .LVU33
 142              		.loc 1 493 25 is_stmt 0 view .LVU34
 143 0020 3246     		mov	r2, r6
 144 0022 2946     		mov	r1, r5
 145 0024 A06B     		ldr	r0, [r4, #56]
 146 0026 FFF7FEFF 		bl	convert_speed_to_time
 147              	.LVL18:
 148              		.loc 1 493 23 view .LVU35
 149 002a A063     		str	r0, [r4, #56]
 494:Lib/lvgl/src/misc/lv_anim.c ****     a->repeat_delay = convert_speed_to_time(a->repeat_delay, a->start_value, a->end_value);
 150              		.loc 1 494 5 is_stmt 1 view .LVU36
 151              		.loc 1 494 23 is_stmt 0 view .LVU37
 152 002c 3246     		mov	r2, r6
 153 002e 2946     		mov	r1, r5
 154 0030 206C     		ldr	r0, [r4, #64]
 155 0032 FFF7FEFF 		bl	convert_speed_to_time
 156              	.LVL19:
 157              		.loc 1 494 21 view .LVU38
 158 0036 2064     		str	r0, [r4, #64]
 495:Lib/lvgl/src/misc/lv_anim.c **** }
 159              		.loc 1 495 1 view .LVU39
 160 0038 70BD     		pop	{r4, r5, r6, pc}
 161              		.loc 1 495 1 view .LVU40
 162              		.cfi_endproc
 163              	.LFE260:
 165              		.section	.text.anim_mark_list_change,"ax",%progbits
 166              		.align	1
 167              		.syntax unified
 168              		.thumb
 169              		.thumb_func
 171              	anim_mark_list_change:
 172              	.LFB257:
 453:Lib/lvgl/src/misc/lv_anim.c ****     state.anim_list_changed = true;
 173              		.loc 1 453 1 is_stmt 1 view -0
 174              		.cfi_startproc
 175              		@ args = 0, pretend = 0, frame = 0
 176              		@ frame_needed = 0, uses_anonymous_args = 0
 177 0000 08B5     		push	{r3, lr}
 178              	.LCFI1:
 179              		.cfi_def_cfa_offset 8
 180              		.cfi_offset 3, -8
 181              		.cfi_offset 14, -4
 454:Lib/lvgl/src/misc/lv_anim.c ****     if(_lv_ll_get_head(anim_ll_p) == NULL)
 182              		.loc 1 454 5 view .LVU42
 454:Lib/lvgl/src/misc/lv_anim.c ****     if(_lv_ll_get_head(anim_ll_p) == NULL)
 183              		.loc 1 454 29 is_stmt 0 view .LVU43
 184 0002 0A48     		ldr	r0, .L11
 185 0004 0123     		movs	r3, #1
 186 0006 80F8B030 		strb	r3, [r0, #176]
 455:Lib/lvgl/src/misc/lv_anim.c ****         lv_timer_pause(state.timer);
 187              		.loc 1 455 5 is_stmt 1 view .LVU44
 455:Lib/lvgl/src/misc/lv_anim.c ****         lv_timer_pause(state.timer);
 188              		.loc 1 455 8 is_stmt 0 view .LVU45
 189 000a B830     		adds	r0, r0, #184
ARM GAS  C:\Users\Alex\AppData\Local\Temp\ccbB2tth.s 			page 13


 190 000c FFF7FEFF 		bl	_lv_ll_get_head
 191              	.LVL20:
 455:Lib/lvgl/src/misc/lv_anim.c ****         lv_timer_pause(state.timer);
 192              		.loc 1 455 7 view .LVU46
 193 0010 28B1     		cbz	r0, .L10
 458:Lib/lvgl/src/misc/lv_anim.c **** }
 194              		.loc 1 458 9 is_stmt 1 view .LVU47
 195 0012 064B     		ldr	r3, .L11
 196 0014 D3F8B400 		ldr	r0, [r3, #180]
 197 0018 FFF7FEFF 		bl	lv_timer_resume
 198              	.LVL21:
 199              	.L6:
 459:Lib/lvgl/src/misc/lv_anim.c **** 
 200              		.loc 1 459 1 is_stmt 0 view .LVU48
 201 001c 08BD     		pop	{r3, pc}
 202              	.L10:
 456:Lib/lvgl/src/misc/lv_anim.c ****     else
 203              		.loc 1 456 9 is_stmt 1 view .LVU49
 204 001e 034B     		ldr	r3, .L11
 205 0020 D3F8B400 		ldr	r0, [r3, #180]
 206 0024 FFF7FEFF 		bl	lv_timer_pause
 207              	.LVL22:
 208 0028 F8E7     		b	.L6
 209              	.L12:
 210 002a 00BF     		.align	2
 211              	.L11:
 212 002c 00000000 		.word	lv_global
 213              		.cfi_endproc
 214              	.LFE257:
 216              		.section	.text.remove_concurrent_anims,"ax",%progbits
 217              		.align	1
 218              		.syntax unified
 219              		.thumb
 220              		.thumb_func
 222              	remove_concurrent_anims:
 223              	.LVL23:
 224              	.LFB261:
 496:Lib/lvgl/src/misc/lv_anim.c **** 
 497:Lib/lvgl/src/misc/lv_anim.c **** /**
 498:Lib/lvgl/src/misc/lv_anim.c ****  * Remove animations which are animating the same var with the same exec_cb
 499:Lib/lvgl/src/misc/lv_anim.c ****  * and they are already running or they have early_apply
 500:Lib/lvgl/src/misc/lv_anim.c ****  * @param a_current     the current animation, use its var and exec_cb as reference to know what to
 501:Lib/lvgl/src/misc/lv_anim.c ****  * @return              true: at least one animation was delete
 502:Lib/lvgl/src/misc/lv_anim.c ****  */
 503:Lib/lvgl/src/misc/lv_anim.c **** static bool remove_concurrent_anims(lv_anim_t * a_current)
 504:Lib/lvgl/src/misc/lv_anim.c **** {
 225              		.loc 1 504 1 view -0
 226              		.cfi_startproc
 227              		@ args = 0, pretend = 0, frame = 0
 228              		@ frame_needed = 0, uses_anonymous_args = 0
 229              		.loc 1 504 1 is_stmt 0 view .LVU51
 230 0000 70B5     		push	{r4, r5, r6, lr}
 231              	.LCFI2:
 232              		.cfi_def_cfa_offset 16
 233              		.cfi_offset 4, -16
 234              		.cfi_offset 5, -12
 235              		.cfi_offset 6, -8
ARM GAS  C:\Users\Alex\AppData\Local\Temp\ccbB2tth.s 			page 14


 236              		.cfi_offset 14, -4
 237 0002 0546     		mov	r5, r0
 505:Lib/lvgl/src/misc/lv_anim.c ****     if(a_current->exec_cb == NULL && a_current->custom_exec_cb == NULL) return false;
 238              		.loc 1 505 5 is_stmt 1 view .LVU52
 239              		.loc 1 505 17 is_stmt 0 view .LVU53
 240 0004 4368     		ldr	r3, [r0, #4]
 241              		.loc 1 505 7 view .LVU54
 242 0006 2BB1     		cbz	r3, .L24
 243              	.L14:
 506:Lib/lvgl/src/misc/lv_anim.c **** 
 507:Lib/lvgl/src/misc/lv_anim.c ****     lv_anim_t * a;
 244              		.loc 1 507 5 is_stmt 1 view .LVU55
 508:Lib/lvgl/src/misc/lv_anim.c ****     bool del_any = false;
 245              		.loc 1 508 5 view .LVU56
 246              	.LVL24:
 509:Lib/lvgl/src/misc/lv_anim.c ****     a = _lv_ll_get_head(anim_ll_p);
 247              		.loc 1 509 5 view .LVU57
 248              		.loc 1 509 9 is_stmt 0 view .LVU58
 249 0008 1C48     		ldr	r0, .L26
 250              	.LVL25:
 251              		.loc 1 509 9 view .LVU59
 252 000a FFF7FEFF 		bl	_lv_ll_get_head
 253              	.LVL26:
 254 000e 0446     		mov	r4, r0
 255              	.LVL27:
 510:Lib/lvgl/src/misc/lv_anim.c ****     while(a != NULL) {
 256              		.loc 1 510 5 is_stmt 1 view .LVU60
 508:Lib/lvgl/src/misc/lv_anim.c ****     bool del_any = false;
 257              		.loc 1 508 10 is_stmt 0 view .LVU61
 258 0010 0026     		movs	r6, #0
 259              		.loc 1 510 10 view .LVU62
 260 0012 0FE0     		b	.L16
 261              	.LVL28:
 262              	.L24:
 505:Lib/lvgl/src/misc/lv_anim.c **** 
 263              		.loc 1 505 47 discriminator 1 view .LVU63
 264 0014 8368     		ldr	r3, [r0, #8]
 505:Lib/lvgl/src/misc/lv_anim.c **** 
 265              		.loc 1 505 35 discriminator 1 view .LVU64
 266 0016 002B     		cmp	r3, #0
 267 0018 F6D1     		bne	.L14
 505:Lib/lvgl/src/misc/lv_anim.c **** 
 268              		.loc 1 505 80 view .LVU65
 269 001a 0026     		movs	r6, #0
 270              	.LVL29:
 271              	.L15:
 511:Lib/lvgl/src/misc/lv_anim.c ****         bool del = false;
 512:Lib/lvgl/src/misc/lv_anim.c ****         /*We can't test for custom_exec_cb equality because in the MicroPython binding
 513:Lib/lvgl/src/misc/lv_anim.c ****          *a wrapper callback is used here an the real callback data is stored in the `user_data`.
 514:Lib/lvgl/src/misc/lv_anim.c ****          *Therefore equality check would remove all animations.*/
 515:Lib/lvgl/src/misc/lv_anim.c ****         if(a != a_current &&
 516:Lib/lvgl/src/misc/lv_anim.c ****            (a->act_time >= 0 || a->early_apply) &&
 517:Lib/lvgl/src/misc/lv_anim.c ****            (a->var == a_current->var) &&
 518:Lib/lvgl/src/misc/lv_anim.c ****            ((a->exec_cb && a->exec_cb == a_current->exec_cb)
 519:Lib/lvgl/src/misc/lv_anim.c ****             /*|| (a->custom_exec_cb && a->custom_exec_cb == a_current->custom_exec_cb)*/)) {
 520:Lib/lvgl/src/misc/lv_anim.c ****             _lv_ll_remove(anim_ll_p, a);
 521:Lib/lvgl/src/misc/lv_anim.c ****             if(a->deleted_cb != NULL) a->deleted_cb(a);
ARM GAS  C:\Users\Alex\AppData\Local\Temp\ccbB2tth.s 			page 15


 522:Lib/lvgl/src/misc/lv_anim.c ****             lv_free(a);
 523:Lib/lvgl/src/misc/lv_anim.c ****             /*Read by `anim_timer`. It need to know if a delete occurred in the linked list*/
 524:Lib/lvgl/src/misc/lv_anim.c ****             anim_mark_list_change();
 525:Lib/lvgl/src/misc/lv_anim.c **** 
 526:Lib/lvgl/src/misc/lv_anim.c ****             del_any = true;
 527:Lib/lvgl/src/misc/lv_anim.c ****             del = true;
 528:Lib/lvgl/src/misc/lv_anim.c ****         }
 529:Lib/lvgl/src/misc/lv_anim.c **** 
 530:Lib/lvgl/src/misc/lv_anim.c ****         /*Always start from the head on delete, because we don't know
 531:Lib/lvgl/src/misc/lv_anim.c ****          *how `anim_ll_p` was changes in `a->deleted_cb` */
 532:Lib/lvgl/src/misc/lv_anim.c ****         a = del ? _lv_ll_get_head(anim_ll_p) : _lv_ll_get_next(anim_ll_p, a);
 533:Lib/lvgl/src/misc/lv_anim.c ****     }
 534:Lib/lvgl/src/misc/lv_anim.c **** 
 535:Lib/lvgl/src/misc/lv_anim.c ****     return del_any;
 536:Lib/lvgl/src/misc/lv_anim.c **** }
 272              		.loc 1 536 1 view .LVU66
 273 001c 3046     		mov	r0, r6
 274 001e 70BD     		pop	{r4, r5, r6, pc}
 275              	.LVL30:
 276              	.L25:
 277              	.LBB8:
 516:Lib/lvgl/src/misc/lv_anim.c ****            (a->var == a_current->var) &&
 278              		.loc 1 516 30 view .LVU67
 279 0020 94F84E30 		ldrb	r3, [r4, #78]	@ zero_extendqisi2
 280 0024 13F0010F 		tst	r3, #1
 281 0028 0BD1     		bne	.L18
 282              	.L17:
 283              	.LVL31:
 532:Lib/lvgl/src/misc/lv_anim.c ****     }
 284              		.loc 1 532 48 discriminator 2 view .LVU68
 285 002a 2146     		mov	r1, r4
 286 002c 1348     		ldr	r0, .L26
 287 002e FFF7FEFF 		bl	_lv_ll_get_next
 288              	.LVL32:
 289 0032 0446     		mov	r4, r0
 290              	.LVL33:
 291              	.L16:
 532:Lib/lvgl/src/misc/lv_anim.c ****     }
 292              		.loc 1 532 48 discriminator 2 view .LVU69
 293              	.LBE8:
 510:Lib/lvgl/src/misc/lv_anim.c ****         bool del = false;
 294              		.loc 1 510 13 is_stmt 1 view .LVU70
 295 0034 002C     		cmp	r4, #0
 296 0036 F1D0     		beq	.L15
 297              	.LBB9:
 511:Lib/lvgl/src/misc/lv_anim.c ****         /*We can't test for custom_exec_cb equality because in the MicroPython binding
 298              		.loc 1 511 9 view .LVU71
 299              	.LVL34:
 515:Lib/lvgl/src/misc/lv_anim.c ****            (a->act_time >= 0 || a->early_apply) &&
 300              		.loc 1 515 9 view .LVU72
 515:Lib/lvgl/src/misc/lv_anim.c ****            (a->act_time >= 0 || a->early_apply) &&
 301              		.loc 1 515 11 is_stmt 0 view .LVU73
 302 0038 AC42     		cmp	r4, r5
 303 003a F6D0     		beq	.L17
 516:Lib/lvgl/src/misc/lv_anim.c ****            (a->var == a_current->var) &&
 304              		.loc 1 516 14 discriminator 1 view .LVU74
 305 003c 636B     		ldr	r3, [r4, #52]
ARM GAS  C:\Users\Alex\AppData\Local\Temp\ccbB2tth.s 			page 16


 515:Lib/lvgl/src/misc/lv_anim.c ****            (a->act_time >= 0 || a->early_apply) &&
 306              		.loc 1 515 27 discriminator 1 view .LVU75
 307 003e 002B     		cmp	r3, #0
 308 0040 EEDB     		blt	.L25
 309              	.L18:
 517:Lib/lvgl/src/misc/lv_anim.c ****            ((a->exec_cb && a->exec_cb == a_current->exec_cb)
 310              		.loc 1 517 14 discriminator 1 view .LVU76
 311 0042 2268     		ldr	r2, [r4]
 517:Lib/lvgl/src/misc/lv_anim.c ****            ((a->exec_cb && a->exec_cb == a_current->exec_cb)
 312              		.loc 1 517 32 discriminator 1 view .LVU77
 313 0044 2B68     		ldr	r3, [r5]
 516:Lib/lvgl/src/misc/lv_anim.c ****            (a->var == a_current->var) &&
 314              		.loc 1 516 49 discriminator 1 view .LVU78
 315 0046 9A42     		cmp	r2, r3
 316 0048 EFD1     		bne	.L17
 518:Lib/lvgl/src/misc/lv_anim.c ****             /*|| (a->custom_exec_cb && a->custom_exec_cb == a_current->custom_exec_cb)*/)) {
 317              		.loc 1 518 15 view .LVU79
 318 004a 6368     		ldr	r3, [r4, #4]
 517:Lib/lvgl/src/misc/lv_anim.c ****            ((a->exec_cb && a->exec_cb == a_current->exec_cb)
 319              		.loc 1 517 39 view .LVU80
 320 004c 002B     		cmp	r3, #0
 321 004e ECD0     		beq	.L17
 518:Lib/lvgl/src/misc/lv_anim.c ****             /*|| (a->custom_exec_cb && a->custom_exec_cb == a_current->custom_exec_cb)*/)) {
 322              		.loc 1 518 51 view .LVU81
 323 0050 6A68     		ldr	r2, [r5, #4]
 518:Lib/lvgl/src/misc/lv_anim.c ****             /*|| (a->custom_exec_cb && a->custom_exec_cb == a_current->custom_exec_cb)*/)) {
 324              		.loc 1 518 25 view .LVU82
 325 0052 9342     		cmp	r3, r2
 326 0054 E9D1     		bne	.L17
 520:Lib/lvgl/src/misc/lv_anim.c ****             if(a->deleted_cb != NULL) a->deleted_cb(a);
 327              		.loc 1 520 13 is_stmt 1 view .LVU83
 328 0056 2146     		mov	r1, r4
 329 0058 0848     		ldr	r0, .L26
 330 005a FFF7FEFF 		bl	_lv_ll_remove
 331              	.LVL35:
 521:Lib/lvgl/src/misc/lv_anim.c ****             lv_free(a);
 332              		.loc 1 521 13 view .LVU84
 521:Lib/lvgl/src/misc/lv_anim.c ****             lv_free(a);
 333              		.loc 1 521 17 is_stmt 0 view .LVU85
 334 005e 6369     		ldr	r3, [r4, #20]
 521:Lib/lvgl/src/misc/lv_anim.c ****             lv_free(a);
 335              		.loc 1 521 15 view .LVU86
 336 0060 0BB1     		cbz	r3, .L19
 521:Lib/lvgl/src/misc/lv_anim.c ****             lv_free(a);
 337              		.loc 1 521 39 is_stmt 1 discriminator 1 view .LVU87
 338 0062 2046     		mov	r0, r4
 339 0064 9847     		blx	r3
 340              	.LVL36:
 341              	.L19:
 522:Lib/lvgl/src/misc/lv_anim.c ****             /*Read by `anim_timer`. It need to know if a delete occurred in the linked list*/
 342              		.loc 1 522 13 view .LVU88
 343 0066 2046     		mov	r0, r4
 344 0068 FFF7FEFF 		bl	lv_free
 345              	.LVL37:
 524:Lib/lvgl/src/misc/lv_anim.c **** 
 346              		.loc 1 524 13 view .LVU89
 347 006c FFF7FEFF 		bl	anim_mark_list_change
ARM GAS  C:\Users\Alex\AppData\Local\Temp\ccbB2tth.s 			page 17


 348              	.LVL38:
 526:Lib/lvgl/src/misc/lv_anim.c ****             del = true;
 349              		.loc 1 526 13 view .LVU90
 527:Lib/lvgl/src/misc/lv_anim.c ****         }
 350              		.loc 1 527 13 view .LVU91
 532:Lib/lvgl/src/misc/lv_anim.c ****     }
 351              		.loc 1 532 9 view .LVU92
 532:Lib/lvgl/src/misc/lv_anim.c ****     }
 352              		.loc 1 532 19 is_stmt 0 view .LVU93
 353 0070 0248     		ldr	r0, .L26
 354 0072 FFF7FEFF 		bl	_lv_ll_get_head
 355              	.LVL39:
 356 0076 0446     		mov	r4, r0
 357              	.LVL40:
 526:Lib/lvgl/src/misc/lv_anim.c ****             del = true;
 358              		.loc 1 526 21 view .LVU94
 359 0078 0126     		movs	r6, #1
 360 007a DBE7     		b	.L16
 361              	.L27:
 362              		.align	2
 363              	.L26:
 364 007c B8000000 		.word	lv_global+184
 365              	.LBE9:
 366              		.cfi_endproc
 367              	.LFE261:
 369              		.section	.text.anim_completed_handler,"ax",%progbits
 370              		.align	1
 371              		.syntax unified
 372              		.thumb
 373              		.thumb_func
 375              	anim_completed_handler:
 376              	.LVL41:
 377              	.LFB256:
 408:Lib/lvgl/src/misc/lv_anim.c ****     /*In the end of a forward anim decrement repeat cnt.*/
 378              		.loc 1 408 1 is_stmt 1 view -0
 379              		.cfi_startproc
 380              		@ args = 0, pretend = 0, frame = 0
 381              		@ frame_needed = 0, uses_anonymous_args = 0
 408:Lib/lvgl/src/misc/lv_anim.c ****     /*In the end of a forward anim decrement repeat cnt.*/
 382              		.loc 1 408 1 is_stmt 0 view .LVU96
 383 0000 10B5     		push	{r4, lr}
 384              	.LCFI3:
 385              		.cfi_def_cfa_offset 8
 386              		.cfi_offset 4, -8
 387              		.cfi_offset 14, -4
 388 0002 0446     		mov	r4, r0
 410:Lib/lvgl/src/misc/lv_anim.c ****         a->repeat_cnt--;
 389              		.loc 1 410 5 is_stmt 1 view .LVU97
 410:Lib/lvgl/src/misc/lv_anim.c ****         a->repeat_cnt--;
 390              		.loc 1 410 24 is_stmt 0 view .LVU98
 391 0004 90F85430 		ldrb	r3, [r0, #84]	@ zero_extendqisi2
 410:Lib/lvgl/src/misc/lv_anim.c ****         a->repeat_cnt--;
 392              		.loc 1 410 7 view .LVU99
 393 0008 13F00103 		ands	r3, r3, #1
 394 000c 09D1     		bne	.L29
 410:Lib/lvgl/src/misc/lv_anim.c ****         a->repeat_cnt--;
 395              		.loc 1 410 33 discriminator 1 view .LVU100
ARM GAS  C:\Users\Alex\AppData\Local\Temp\ccbB2tth.s 			page 18


 396 000e B0F84420 		ldrh	r2, [r0, #68]
 410:Lib/lvgl/src/misc/lv_anim.c ****         a->repeat_cnt--;
 397              		.loc 1 410 29 discriminator 1 view .LVU101
 398 0012 32B1     		cbz	r2, .L29
 410:Lib/lvgl/src/misc/lv_anim.c ****         a->repeat_cnt--;
 399              		.loc 1 410 50 discriminator 2 view .LVU102
 400 0014 4FF6FF71 		movw	r1, #65535
 401 0018 8A42     		cmp	r2, r1
 402 001a 02D0     		beq	.L29
 411:Lib/lvgl/src/misc/lv_anim.c ****     }
 403              		.loc 1 411 9 is_stmt 1 view .LVU103
 411:Lib/lvgl/src/misc/lv_anim.c ****     }
 404              		.loc 1 411 22 is_stmt 0 view .LVU104
 405 001c 013A     		subs	r2, r2, #1
 406 001e A0F84420 		strh	r2, [r0, #68]	@ movhi
 407              	.L29:
 417:Lib/lvgl/src/misc/lv_anim.c **** 
 408              		.loc 1 417 5 is_stmt 1 view .LVU105
 417:Lib/lvgl/src/misc/lv_anim.c **** 
 409              		.loc 1 417 9 is_stmt 0 view .LVU106
 410 0022 B4F84420 		ldrh	r2, [r4, #68]
 417:Lib/lvgl/src/misc/lv_anim.c **** 
 411              		.loc 1 417 7 view .LVU107
 412 0026 A2B9     		cbnz	r2, .L30
 417:Lib/lvgl/src/misc/lv_anim.c **** 
 413              		.loc 1 417 32 discriminator 1 view .LVU108
 414 0028 E26B     		ldr	r2, [r4, #60]
 417:Lib/lvgl/src/misc/lv_anim.c **** 
 415              		.loc 1 417 27 discriminator 1 view .LVU109
 416 002a 02B1     		cbz	r2, .L31
 417:Lib/lvgl/src/misc/lv_anim.c **** 
 417              		.loc 1 417 57 discriminator 2 view .LVU110
 418 002c 8BB1     		cbz	r3, .L30
 419              	.L31:
 421:Lib/lvgl/src/misc/lv_anim.c ****         /*Flag that the list has changed*/
 420              		.loc 1 421 9 is_stmt 1 view .LVU111
 421 002e 2146     		mov	r1, r4
 422 0030 1448     		ldr	r0, .L37
 423              	.LVL42:
 421:Lib/lvgl/src/misc/lv_anim.c ****         /*Flag that the list has changed*/
 424              		.loc 1 421 9 is_stmt 0 view .LVU112
 425 0032 FFF7FEFF 		bl	_lv_ll_remove
 426              	.LVL43:
 423:Lib/lvgl/src/misc/lv_anim.c **** 
 427              		.loc 1 423 9 is_stmt 1 view .LVU113
 428 0036 FFF7FEFF 		bl	anim_mark_list_change
 429              	.LVL44:
 426:Lib/lvgl/src/misc/lv_anim.c ****         if(a->deleted_cb != NULL) a->deleted_cb(a);
 430              		.loc 1 426 9 view .LVU114
 426:Lib/lvgl/src/misc/lv_anim.c ****         if(a->deleted_cb != NULL) a->deleted_cb(a);
 431              		.loc 1 426 13 is_stmt 0 view .LVU115
 432 003a 2369     		ldr	r3, [r4, #16]
 426:Lib/lvgl/src/misc/lv_anim.c ****         if(a->deleted_cb != NULL) a->deleted_cb(a);
 433              		.loc 1 426 11 view .LVU116
 434 003c 0BB1     		cbz	r3, .L32
 426:Lib/lvgl/src/misc/lv_anim.c ****         if(a->deleted_cb != NULL) a->deleted_cb(a);
 435              		.loc 1 426 37 is_stmt 1 discriminator 1 view .LVU117
ARM GAS  C:\Users\Alex\AppData\Local\Temp\ccbB2tth.s 			page 19


 436 003e 2046     		mov	r0, r4
 437 0040 9847     		blx	r3
 438              	.LVL45:
 439              	.L32:
 427:Lib/lvgl/src/misc/lv_anim.c ****         lv_free(a);
 440              		.loc 1 427 9 view .LVU118
 427:Lib/lvgl/src/misc/lv_anim.c ****         lv_free(a);
 441              		.loc 1 427 13 is_stmt 0 view .LVU119
 442 0042 6369     		ldr	r3, [r4, #20]
 427:Lib/lvgl/src/misc/lv_anim.c ****         lv_free(a);
 443              		.loc 1 427 11 view .LVU120
 444 0044 0BB1     		cbz	r3, .L33
 427:Lib/lvgl/src/misc/lv_anim.c ****         lv_free(a);
 445              		.loc 1 427 35 is_stmt 1 discriminator 1 view .LVU121
 446 0046 2046     		mov	r0, r4
 447 0048 9847     		blx	r3
 448              	.LVL46:
 449              	.L33:
 428:Lib/lvgl/src/misc/lv_anim.c ****     }
 450              		.loc 1 428 9 view .LVU122
 451 004a 2046     		mov	r0, r4
 452 004c FFF7FEFF 		bl	lv_free
 453              	.LVL47:
 454 0050 17E0     		b	.L28
 455              	.LVL48:
 456              	.L30:
 432:Lib/lvgl/src/misc/lv_anim.c ****         /*Swap the start and end values in play back mode*/
 457              		.loc 1 432 9 view .LVU123
 432:Lib/lvgl/src/misc/lv_anim.c ****         /*Swap the start and end values in play back mode*/
 458              		.loc 1 432 35 is_stmt 0 view .LVU124
 459 0052 226C     		ldr	r2, [r4, #64]
 432:Lib/lvgl/src/misc/lv_anim.c ****         /*Swap the start and end values in play back mode*/
 460              		.loc 1 432 23 view .LVU125
 461 0054 5242     		rsbs	r2, r2, #0
 432:Lib/lvgl/src/misc/lv_anim.c ****         /*Swap the start and end values in play back mode*/
 462              		.loc 1 432 21 view .LVU126
 463 0056 6263     		str	r2, [r4, #52]
 434:Lib/lvgl/src/misc/lv_anim.c ****             /*If now turning back use the 'playback_pause*/
 464              		.loc 1 434 9 is_stmt 1 view .LVU127
 434:Lib/lvgl/src/misc/lv_anim.c ****             /*If now turning back use the 'playback_pause*/
 465              		.loc 1 434 13 is_stmt 0 view .LVU128
 466 0058 E26B     		ldr	r2, [r4, #60]
 434:Lib/lvgl/src/misc/lv_anim.c ****             /*If now turning back use the 'playback_pause*/
 467              		.loc 1 434 11 view .LVU129
 468 005a 92B1     		cbz	r2, .L28
 469              	.LBB10:
 436:Lib/lvgl/src/misc/lv_anim.c **** 
 470              		.loc 1 436 13 is_stmt 1 view .LVU130
 436:Lib/lvgl/src/misc/lv_anim.c **** 
 471              		.loc 1 436 15 is_stmt 0 view .LVU131
 472 005c 13B9     		cbnz	r3, .L35
 436:Lib/lvgl/src/misc/lv_anim.c **** 
 473              		.loc 1 436 38 is_stmt 1 discriminator 1 view .LVU132
 436:Lib/lvgl/src/misc/lv_anim.c **** 
 474              		.loc 1 436 64 is_stmt 0 discriminator 1 view .LVU133
 475 005e A16B     		ldr	r1, [r4, #56]
 436:Lib/lvgl/src/misc/lv_anim.c **** 
ARM GAS  C:\Users\Alex\AppData\Local\Temp\ccbB2tth.s 			page 20


 476              		.loc 1 436 52 discriminator 1 view .LVU134
 477 0060 4942     		rsbs	r1, r1, #0
 436:Lib/lvgl/src/misc/lv_anim.c **** 
 478              		.loc 1 436 50 discriminator 1 view .LVU135
 479 0062 6163     		str	r1, [r4, #52]
 480              	.L35:
 439:Lib/lvgl/src/misc/lv_anim.c ****             /*Swap the start and end values*/
 481              		.loc 1 439 13 is_stmt 1 view .LVU136
 439:Lib/lvgl/src/misc/lv_anim.c ****             /*Swap the start and end values*/
 482              		.loc 1 439 56 is_stmt 0 view .LVU137
 483 0064 83F00103 		eor	r3, r3, #1
 439:Lib/lvgl/src/misc/lv_anim.c ****             /*Swap the start and end values*/
 484              		.loc 1 439 29 view .LVU138
 485 0068 94F85410 		ldrb	r1, [r4, #84]	@ zero_extendqisi2
 486 006c 63F30001 		bfi	r1, r3, #0, #1
 487 0070 84F85410 		strb	r1, [r4, #84]
 441:Lib/lvgl/src/misc/lv_anim.c ****             a->start_value = a->end_value;
 488              		.loc 1 441 13 is_stmt 1 view .LVU139
 441:Lib/lvgl/src/misc/lv_anim.c ****             a->start_value = a->end_value;
 489              		.loc 1 441 21 is_stmt 0 view .LVU140
 490 0074 636A     		ldr	r3, [r4, #36]
 491              	.LVL49:
 442:Lib/lvgl/src/misc/lv_anim.c ****             a->end_value   = tmp;
 492              		.loc 1 442 13 is_stmt 1 view .LVU141
 442:Lib/lvgl/src/misc/lv_anim.c ****             a->end_value   = tmp;
 493              		.loc 1 442 31 is_stmt 0 view .LVU142
 494 0076 E16A     		ldr	r1, [r4, #44]
 442:Lib/lvgl/src/misc/lv_anim.c ****             a->end_value   = tmp;
 495              		.loc 1 442 28 view .LVU143
 496 0078 6162     		str	r1, [r4, #36]
 443:Lib/lvgl/src/misc/lv_anim.c ****             /*Swap the time and playback_duration*/
 497              		.loc 1 443 13 is_stmt 1 view .LVU144
 443:Lib/lvgl/src/misc/lv_anim.c ****             /*Swap the time and playback_duration*/
 498              		.loc 1 443 28 is_stmt 0 view .LVU145
 499 007a E362     		str	r3, [r4, #44]
 445:Lib/lvgl/src/misc/lv_anim.c ****             a->duration = a->playback_duration;
 500              		.loc 1 445 13 is_stmt 1 view .LVU146
 445:Lib/lvgl/src/misc/lv_anim.c ****             a->duration = a->playback_duration;
 501              		.loc 1 445 17 is_stmt 0 view .LVU147
 502 007c 236B     		ldr	r3, [r4, #48]
 503              	.LVL50:
 446:Lib/lvgl/src/misc/lv_anim.c ****             a->playback_duration = tmp;
 504              		.loc 1 446 13 is_stmt 1 view .LVU148
 446:Lib/lvgl/src/misc/lv_anim.c ****             a->playback_duration = tmp;
 505              		.loc 1 446 25 is_stmt 0 view .LVU149
 506 007e 2263     		str	r2, [r4, #48]
 447:Lib/lvgl/src/misc/lv_anim.c ****         }
 507              		.loc 1 447 13 is_stmt 1 view .LVU150
 447:Lib/lvgl/src/misc/lv_anim.c ****         }
 508              		.loc 1 447 34 is_stmt 0 view .LVU151
 509 0080 E363     		str	r3, [r4, #60]
 510              	.LVL51:
 511              	.L28:
 447:Lib/lvgl/src/misc/lv_anim.c ****         }
 512              		.loc 1 447 34 view .LVU152
 513              	.LBE10:
 450:Lib/lvgl/src/misc/lv_anim.c **** 
ARM GAS  C:\Users\Alex\AppData\Local\Temp\ccbB2tth.s 			page 21


 514              		.loc 1 450 1 view .LVU153
 515 0082 10BD     		pop	{r4, pc}
 516              	.LVL52:
 517              	.L38:
 450:Lib/lvgl/src/misc/lv_anim.c **** 
 518              		.loc 1 450 1 view .LVU154
 519              		.align	2
 520              	.L37:
 521 0084 B8000000 		.word	lv_global+184
 522              		.cfi_endproc
 523              	.LFE256:
 525              		.section	.text.anim_timer,"ax",%progbits
 526              		.align	1
 527              		.syntax unified
 528              		.thumb
 529              		.thumb_func
 531              	anim_timer:
 532              	.LVL53:
 533              	.LFB255:
 328:Lib/lvgl/src/misc/lv_anim.c ****     LV_UNUSED(param);
 534              		.loc 1 328 1 is_stmt 1 view -0
 535              		.cfi_startproc
 536              		@ args = 0, pretend = 0, frame = 0
 537              		@ frame_needed = 0, uses_anonymous_args = 0
 328:Lib/lvgl/src/misc/lv_anim.c ****     LV_UNUSED(param);
 538              		.loc 1 328 1 is_stmt 0 view .LVU156
 539 0000 38B5     		push	{r3, r4, r5, lr}
 540              	.LCFI4:
 541              		.cfi_def_cfa_offset 16
 542              		.cfi_offset 3, -16
 543              		.cfi_offset 4, -12
 544              		.cfi_offset 5, -8
 545              		.cfi_offset 14, -4
 329:Lib/lvgl/src/misc/lv_anim.c **** 
 546              		.loc 1 329 5 is_stmt 1 view .LVU157
 332:Lib/lvgl/src/misc/lv_anim.c **** 
 547              		.loc 1 332 5 view .LVU158
 332:Lib/lvgl/src/misc/lv_anim.c **** 
 548              		.loc 1 332 33 is_stmt 0 view .LVU159
 549 0002 4548     		ldr	r0, .L54
 550              	.LVL54:
 332:Lib/lvgl/src/misc/lv_anim.c **** 
 551              		.loc 1 332 33 view .LVU160
 552 0004 90F8B130 		ldrb	r3, [r0, #177]	@ zero_extendqisi2
 332:Lib/lvgl/src/misc/lv_anim.c **** 
 553              		.loc 1 332 57 view .LVU161
 554 0008 83F00103 		eor	r3, r3, #1
 332:Lib/lvgl/src/misc/lv_anim.c **** 
 555              		.loc 1 332 26 view .LVU162
 556 000c 80F8B130 		strb	r3, [r0, #177]
 334:Lib/lvgl/src/misc/lv_anim.c **** 
 557              		.loc 1 334 5 is_stmt 1 view .LVU163
 334:Lib/lvgl/src/misc/lv_anim.c **** 
 558              		.loc 1 334 21 is_stmt 0 view .LVU164
 559 0010 B830     		adds	r0, r0, #184
 560 0012 FFF7FEFF 		bl	_lv_ll_get_head
 561              	.LVL55:
ARM GAS  C:\Users\Alex\AppData\Local\Temp\ccbB2tth.s 			page 22


 562 0016 0446     		mov	r4, r0
 563              	.LVL56:
 336:Lib/lvgl/src/misc/lv_anim.c **** 
 564              		.loc 1 336 5 is_stmt 1 view .LVU165
 336:Lib/lvgl/src/misc/lv_anim.c **** 
 565              		.loc 1 336 10 is_stmt 0 view .LVU166
 566 0018 3DE0     		b	.L40
 567              	.LVL57:
 568              	.L43:
 569              	.LBB11:
 363:Lib/lvgl/src/misc/lv_anim.c **** 
 570              		.loc 1 363 17 is_stmt 1 view .LVU167
 571 001a 2046     		mov	r0, r4
 572 001c FFF7FEFF 		bl	resolve_time
 573              	.LVL58:
 365:Lib/lvgl/src/misc/lv_anim.c ****                 a->start_cb_called = 1;
 574              		.loc 1 365 17 view .LVU168
 365:Lib/lvgl/src/misc/lv_anim.c ****                 a->start_cb_called = 1;
 575              		.loc 1 365 21 is_stmt 0 view .LVU169
 576 0020 E368     		ldr	r3, [r4, #12]
 365:Lib/lvgl/src/misc/lv_anim.c ****                 a->start_cb_called = 1;
 577              		.loc 1 365 19 view .LVU170
 578 0022 0BB1     		cbz	r3, .L44
 365:Lib/lvgl/src/misc/lv_anim.c ****                 a->start_cb_called = 1;
 579              		.loc 1 365 33 is_stmt 1 discriminator 1 view .LVU171
 580 0024 2046     		mov	r0, r4
 581 0026 9847     		blx	r3
 582              	.LVL59:
 583              	.L44:
 366:Lib/lvgl/src/misc/lv_anim.c **** 
 584              		.loc 1 366 17 view .LVU172
 366:Lib/lvgl/src/misc/lv_anim.c **** 
 585              		.loc 1 366 36 is_stmt 0 view .LVU173
 586 0028 94F85430 		ldrb	r3, [r4, #84]	@ zero_extendqisi2
 587 002c 43F00403 		orr	r3, r3, #4
 588 0030 84F85430 		strb	r3, [r4, #84]
 369:Lib/lvgl/src/misc/lv_anim.c ****             }
 589              		.loc 1 369 17 is_stmt 1 view .LVU174
 590 0034 2046     		mov	r0, r4
 591 0036 FFF7FEFF 		bl	remove_concurrent_anims
 592              	.LVL60:
 593              	.L42:
 372:Lib/lvgl/src/misc/lv_anim.c ****                 if(a->act_time > a->duration) a->act_time = a->duration;
 594              		.loc 1 372 13 view .LVU175
 372:Lib/lvgl/src/misc/lv_anim.c ****                 if(a->act_time > a->duration) a->act_time = a->duration;
 595              		.loc 1 372 17 is_stmt 0 view .LVU176
 596 003a 636B     		ldr	r3, [r4, #52]
 372:Lib/lvgl/src/misc/lv_anim.c ****                 if(a->act_time > a->duration) a->act_time = a->duration;
 597              		.loc 1 372 15 view .LVU177
 598 003c 002B     		cmp	r3, #0
 599 003e 21DB     		blt	.L41
 600              	.LBB12:
 373:Lib/lvgl/src/misc/lv_anim.c **** 
 601              		.loc 1 373 17 is_stmt 1 view .LVU178
 373:Lib/lvgl/src/misc/lv_anim.c **** 
 602              		.loc 1 373 35 is_stmt 0 view .LVU179
 603 0040 226B     		ldr	r2, [r4, #48]
ARM GAS  C:\Users\Alex\AppData\Local\Temp\ccbB2tth.s 			page 23


 373:Lib/lvgl/src/misc/lv_anim.c **** 
 604              		.loc 1 373 19 view .LVU180
 605 0042 9342     		cmp	r3, r2
 606 0044 00DD     		ble	.L45
 373:Lib/lvgl/src/misc/lv_anim.c **** 
 607              		.loc 1 373 47 is_stmt 1 discriminator 1 view .LVU181
 373:Lib/lvgl/src/misc/lv_anim.c **** 
 608              		.loc 1 373 59 is_stmt 0 discriminator 1 view .LVU182
 609 0046 6263     		str	r2, [r4, #52]
 610              	.L45:
 375:Lib/lvgl/src/misc/lv_anim.c ****                 new_value = a->path_cb(a);
 611              		.loc 1 375 17 is_stmt 1 view .LVU183
 376:Lib/lvgl/src/misc/lv_anim.c **** 
 612              		.loc 1 376 17 view .LVU184
 376:Lib/lvgl/src/misc/lv_anim.c **** 
 613              		.loc 1 376 30 is_stmt 0 view .LVU185
 614 0048 236A     		ldr	r3, [r4, #32]
 376:Lib/lvgl/src/misc/lv_anim.c **** 
 615              		.loc 1 376 29 view .LVU186
 616 004a 2046     		mov	r0, r4
 617 004c 9847     		blx	r3
 618              	.LVL61:
 619 004e 0546     		mov	r5, r0
 620              	.LVL62:
 378:Lib/lvgl/src/misc/lv_anim.c ****                     a->current_value = new_value;
 621              		.loc 1 378 17 is_stmt 1 view .LVU187
 378:Lib/lvgl/src/misc/lv_anim.c ****                     a->current_value = new_value;
 622              		.loc 1 378 34 is_stmt 0 view .LVU188
 623 0050 A36A     		ldr	r3, [r4, #40]
 378:Lib/lvgl/src/misc/lv_anim.c ****                     a->current_value = new_value;
 624              		.loc 1 378 19 view .LVU189
 625 0052 8342     		cmp	r3, r0
 626 0054 0ED0     		beq	.L46
 379:Lib/lvgl/src/misc/lv_anim.c ****                     /*Apply the calculated value*/
 627              		.loc 1 379 21 is_stmt 1 view .LVU190
 379:Lib/lvgl/src/misc/lv_anim.c ****                     /*Apply the calculated value*/
 628              		.loc 1 379 38 is_stmt 0 view .LVU191
 629 0056 A062     		str	r0, [r4, #40]
 381:Lib/lvgl/src/misc/lv_anim.c ****                     if(!state.anim_list_changed && a->custom_exec_cb) a->custom_exec_cb(a, new_valu
 630              		.loc 1 381 21 is_stmt 1 view .LVU192
 381:Lib/lvgl/src/misc/lv_anim.c ****                     if(!state.anim_list_changed && a->custom_exec_cb) a->custom_exec_cb(a, new_valu
 631              		.loc 1 381 25 is_stmt 0 view .LVU193
 632 0058 6368     		ldr	r3, [r4, #4]
 381:Lib/lvgl/src/misc/lv_anim.c ****                     if(!state.anim_list_changed && a->custom_exec_cb) a->custom_exec_cb(a, new_valu
 633              		.loc 1 381 23 view .LVU194
 634 005a 13B1     		cbz	r3, .L47
 381:Lib/lvgl/src/misc/lv_anim.c ****                     if(!state.anim_list_changed && a->custom_exec_cb) a->custom_exec_cb(a, new_valu
 635              		.loc 1 381 36 is_stmt 1 discriminator 1 view .LVU195
 636 005c 0146     		mov	r1, r0
 637 005e 2068     		ldr	r0, [r4]
 638              	.LVL63:
 381:Lib/lvgl/src/misc/lv_anim.c ****                     if(!state.anim_list_changed && a->custom_exec_cb) a->custom_exec_cb(a, new_valu
 639              		.loc 1 381 36 is_stmt 0 discriminator 1 view .LVU196
 640 0060 9847     		blx	r3
 641              	.LVL64:
 642              	.L47:
 382:Lib/lvgl/src/misc/lv_anim.c ****                 }
ARM GAS  C:\Users\Alex\AppData\Local\Temp\ccbB2tth.s 			page 24


 643              		.loc 1 382 21 is_stmt 1 view .LVU197
 382:Lib/lvgl/src/misc/lv_anim.c ****                 }
 644              		.loc 1 382 30 is_stmt 0 view .LVU198
 645 0062 2D4B     		ldr	r3, .L54
 646 0064 93F8B030 		ldrb	r3, [r3, #176]	@ zero_extendqisi2
 382:Lib/lvgl/src/misc/lv_anim.c ****                 }
 647              		.loc 1 382 23 view .LVU199
 648 0068 23B9     		cbnz	r3, .L46
 382:Lib/lvgl/src/misc/lv_anim.c ****                 }
 649              		.loc 1 382 53 discriminator 1 view .LVU200
 650 006a A368     		ldr	r3, [r4, #8]
 382:Lib/lvgl/src/misc/lv_anim.c ****                 }
 651              		.loc 1 382 49 discriminator 1 view .LVU201
 652 006c 13B1     		cbz	r3, .L46
 382:Lib/lvgl/src/misc/lv_anim.c ****                 }
 653              		.loc 1 382 71 is_stmt 1 discriminator 2 view .LVU202
 654 006e 2946     		mov	r1, r5
 655 0070 2046     		mov	r0, r4
 656 0072 9847     		blx	r3
 657              	.LVL65:
 658              	.L46:
 386:Lib/lvgl/src/misc/lv_anim.c ****                     anim_completed_handler(a);
 659              		.loc 1 386 17 view .LVU203
 386:Lib/lvgl/src/misc/lv_anim.c ****                     anim_completed_handler(a);
 660              		.loc 1 386 26 is_stmt 0 view .LVU204
 661 0074 284B     		ldr	r3, .L54
 662 0076 93F8B030 		ldrb	r3, [r3, #176]	@ zero_extendqisi2
 386:Lib/lvgl/src/misc/lv_anim.c ****                     anim_completed_handler(a);
 663              		.loc 1 386 19 view .LVU205
 664 007a 1BB9     		cbnz	r3, .L41
 386:Lib/lvgl/src/misc/lv_anim.c ****                     anim_completed_handler(a);
 665              		.loc 1 386 49 discriminator 1 view .LVU206
 666 007c 626B     		ldr	r2, [r4, #52]
 386:Lib/lvgl/src/misc/lv_anim.c ****                     anim_completed_handler(a);
 667              		.loc 1 386 64 discriminator 1 view .LVU207
 668 007e 236B     		ldr	r3, [r4, #48]
 386:Lib/lvgl/src/misc/lv_anim.c ****                     anim_completed_handler(a);
 669              		.loc 1 386 45 discriminator 1 view .LVU208
 670 0080 9A42     		cmp	r2, r3
 671 0082 3DDA     		bge	.L52
 672              	.LVL66:
 673              	.L41:
 386:Lib/lvgl/src/misc/lv_anim.c ****                     anim_completed_handler(a);
 674              		.loc 1 386 45 discriminator 1 view .LVU209
 675              	.LBE12:
 394:Lib/lvgl/src/misc/lv_anim.c ****             a = _lv_ll_get_head(anim_ll_p);
 676              		.loc 1 394 9 is_stmt 1 view .LVU210
 394:Lib/lvgl/src/misc/lv_anim.c ****             a = _lv_ll_get_head(anim_ll_p);
 677              		.loc 1 394 17 is_stmt 0 view .LVU211
 678 0084 244B     		ldr	r3, .L54
 679 0086 93F8B030 		ldrb	r3, [r3, #176]	@ zero_extendqisi2
 394:Lib/lvgl/src/misc/lv_anim.c ****             a = _lv_ll_get_head(anim_ll_p);
 680              		.loc 1 394 11 view .LVU212
 681 008a 002B     		cmp	r3, #0
 682 008c 3CD0     		beq	.L48
 395:Lib/lvgl/src/misc/lv_anim.c ****         else
 683              		.loc 1 395 13 is_stmt 1 view .LVU213
ARM GAS  C:\Users\Alex\AppData\Local\Temp\ccbB2tth.s 			page 25


 395:Lib/lvgl/src/misc/lv_anim.c ****         else
 684              		.loc 1 395 17 is_stmt 0 view .LVU214
 685 008e 2348     		ldr	r0, .L54+4
 686 0090 FFF7FEFF 		bl	_lv_ll_get_head
 687              	.LVL67:
 688 0094 0446     		mov	r4, r0
 689              	.LVL68:
 690              	.L40:
 395:Lib/lvgl/src/misc/lv_anim.c ****         else
 691              		.loc 1 395 17 view .LVU215
 692              	.LBE11:
 336:Lib/lvgl/src/misc/lv_anim.c **** 
 693              		.loc 1 336 13 is_stmt 1 view .LVU216
 694 0096 002C     		cmp	r4, #0
 695 0098 3CD0     		beq	.L53
 696              	.LBB15:
 340:Lib/lvgl/src/misc/lv_anim.c ****         a->act_time += elaps;
 697              		.loc 1 340 9 view .LVU217
 340:Lib/lvgl/src/misc/lv_anim.c ****         a->act_time += elaps;
 698              		.loc 1 340 26 is_stmt 0 view .LVU218
 699 009a 206D     		ldr	r0, [r4, #80]
 700              	.LVL69:
 340:Lib/lvgl/src/misc/lv_anim.c ****         a->act_time += elaps;
 701              		.loc 1 340 26 view .LVU219
 702 009c FFF7FEFF 		bl	lv_tick_elaps
 703              	.LVL70:
 341:Lib/lvgl/src/misc/lv_anim.c **** 
 704              		.loc 1 341 9 is_stmt 1 view .LVU220
 341:Lib/lvgl/src/misc/lv_anim.c **** 
 705              		.loc 1 341 10 is_stmt 0 view .LVU221
 706 00a0 636B     		ldr	r3, [r4, #52]
 341:Lib/lvgl/src/misc/lv_anim.c **** 
 707              		.loc 1 341 21 view .LVU222
 708 00a2 0344     		add	r3, r3, r0
 709 00a4 6363     		str	r3, [r4, #52]
 343:Lib/lvgl/src/misc/lv_anim.c **** 
 710              		.loc 1 343 9 is_stmt 1 view .LVU223
 343:Lib/lvgl/src/misc/lv_anim.c **** 
 711              		.loc 1 343 29 is_stmt 0 view .LVU224
 712 00a6 FFF7FEFF 		bl	lv_tick_get
 713              	.LVL71:
 343:Lib/lvgl/src/misc/lv_anim.c **** 
 714              		.loc 1 343 27 view .LVU225
 715 00aa 2065     		str	r0, [r4, #80]
 349:Lib/lvgl/src/misc/lv_anim.c **** 
 716              		.loc 1 349 9 is_stmt 1 view .LVU226
 349:Lib/lvgl/src/misc/lv_anim.c **** 
 717              		.loc 1 349 33 is_stmt 0 view .LVU227
 718 00ac 1A4A     		ldr	r2, .L54
 719 00ae 0023     		movs	r3, #0
 720 00b0 82F8B030 		strb	r3, [r2, #176]
 351:Lib/lvgl/src/misc/lv_anim.c ****             a->run_round = state.anim_run_round; /*The list readying might be reset so need to know
 721              		.loc 1 351 9 is_stmt 1 view .LVU228
 351:Lib/lvgl/src/misc/lv_anim.c ****             a->run_round = state.anim_run_round; /*The list readying might be reset so need to know
 722              		.loc 1 351 13 is_stmt 0 view .LVU229
 723 00b4 94F85430 		ldrb	r3, [r4, #84]	@ zero_extendqisi2
 724 00b8 C3F34003 		ubfx	r3, r3, #1, #1
ARM GAS  C:\Users\Alex\AppData\Local\Temp\ccbB2tth.s 			page 26


 351:Lib/lvgl/src/misc/lv_anim.c ****             a->run_round = state.anim_run_round; /*The list readying might be reset so need to know
 725              		.loc 1 351 33 view .LVU230
 726 00bc 92F8B120 		ldrb	r2, [r2, #177]	@ zero_extendqisi2
 351:Lib/lvgl/src/misc/lv_anim.c ****             a->run_round = state.anim_run_round; /*The list readying might be reset so need to know
 727              		.loc 1 351 11 view .LVU231
 728 00c0 9342     		cmp	r3, r2
 729 00c2 DFD0     		beq	.L41
 352:Lib/lvgl/src/misc/lv_anim.c **** 
 730              		.loc 1 352 13 is_stmt 1 view .LVU232
 352:Lib/lvgl/src/misc/lv_anim.c **** 
 731              		.loc 1 352 26 is_stmt 0 view .LVU233
 732 00c4 94F85430 		ldrb	r3, [r4, #84]	@ zero_extendqisi2
 733 00c8 62F34103 		bfi	r3, r2, #1, #1
 734 00cc 84F85430 		strb	r3, [r4, #84]
 355:Lib/lvgl/src/misc/lv_anim.c **** 
 735              		.loc 1 355 13 is_stmt 1 view .LVU234
 355:Lib/lvgl/src/misc/lv_anim.c **** 
 736              		.loc 1 355 16 is_stmt 0 view .LVU235
 737 00d0 DBB2     		uxtb	r3, r3
 355:Lib/lvgl/src/misc/lv_anim.c **** 
 738              		.loc 1 355 15 view .LVU236
 739 00d2 13F0040F 		tst	r3, #4
 740 00d6 B0D1     		bne	.L42
 355:Lib/lvgl/src/misc/lv_anim.c **** 
 741              		.loc 1 355 40 discriminator 1 view .LVU237
 742 00d8 636B     		ldr	r3, [r4, #52]
 355:Lib/lvgl/src/misc/lv_anim.c **** 
 743              		.loc 1 355 36 discriminator 1 view .LVU238
 744 00da 002B     		cmp	r3, #0
 745 00dc ADDB     		blt	.L42
 357:Lib/lvgl/src/misc/lv_anim.c ****                     int32_t v_ofs = a->get_value_cb(a);
 746              		.loc 1 357 17 is_stmt 1 view .LVU239
 357:Lib/lvgl/src/misc/lv_anim.c ****                     int32_t v_ofs = a->get_value_cb(a);
 747              		.loc 1 357 35 is_stmt 0 view .LVU240
 748 00de 94F84E30 		ldrb	r3, [r4, #78]	@ zero_extendqisi2
 357:Lib/lvgl/src/misc/lv_anim.c ****                     int32_t v_ofs = a->get_value_cb(a);
 749              		.loc 1 357 19 view .LVU241
 750 00e2 13F0010F 		tst	r3, #1
 751 00e6 98D1     		bne	.L43
 357:Lib/lvgl/src/misc/lv_anim.c ****                     int32_t v_ofs = a->get_value_cb(a);
 752              		.loc 1 357 44 discriminator 1 view .LVU242
 753 00e8 A369     		ldr	r3, [r4, #24]
 357:Lib/lvgl/src/misc/lv_anim.c ****                     int32_t v_ofs = a->get_value_cb(a);
 754              		.loc 1 357 40 discriminator 1 view .LVU243
 755 00ea 002B     		cmp	r3, #0
 756 00ec 95D0     		beq	.L43
 757              	.LBB13:
 358:Lib/lvgl/src/misc/lv_anim.c ****                     a->start_value += v_ofs;
 758              		.loc 1 358 21 is_stmt 1 view .LVU244
 358:Lib/lvgl/src/misc/lv_anim.c ****                     a->start_value += v_ofs;
 759              		.loc 1 358 37 is_stmt 0 view .LVU245
 760 00ee 2046     		mov	r0, r4
 761 00f0 9847     		blx	r3
 762              	.LVL72:
 359:Lib/lvgl/src/misc/lv_anim.c ****                     a->end_value += v_ofs;
 763              		.loc 1 359 21 is_stmt 1 view .LVU246
 359:Lib/lvgl/src/misc/lv_anim.c ****                     a->end_value += v_ofs;
ARM GAS  C:\Users\Alex\AppData\Local\Temp\ccbB2tth.s 			page 27


 764              		.loc 1 359 22 is_stmt 0 view .LVU247
 765 00f2 636A     		ldr	r3, [r4, #36]
 359:Lib/lvgl/src/misc/lv_anim.c ****                     a->end_value += v_ofs;
 766              		.loc 1 359 36 view .LVU248
 767 00f4 0344     		add	r3, r3, r0
 768 00f6 6362     		str	r3, [r4, #36]
 360:Lib/lvgl/src/misc/lv_anim.c ****                 }
 769              		.loc 1 360 21 is_stmt 1 view .LVU249
 360:Lib/lvgl/src/misc/lv_anim.c ****                 }
 770              		.loc 1 360 22 is_stmt 0 view .LVU250
 771 00f8 E36A     		ldr	r3, [r4, #44]
 360:Lib/lvgl/src/misc/lv_anim.c ****                 }
 772              		.loc 1 360 34 view .LVU251
 773 00fa 0344     		add	r3, r3, r0
 774 00fc E362     		str	r3, [r4, #44]
 775 00fe 8CE7     		b	.L43
 776              	.LVL73:
 777              	.L52:
 360:Lib/lvgl/src/misc/lv_anim.c ****                 }
 778              		.loc 1 360 34 view .LVU252
 779              	.LBE13:
 780              	.LBB14:
 387:Lib/lvgl/src/misc/lv_anim.c ****                 }
 781              		.loc 1 387 21 is_stmt 1 view .LVU253
 782 0100 2046     		mov	r0, r4
 783 0102 FFF7FEFF 		bl	anim_completed_handler
 784              	.LVL74:
 785 0106 BDE7     		b	.L41
 786              	.LVL75:
 787              	.L48:
 387:Lib/lvgl/src/misc/lv_anim.c ****                 }
 788              		.loc 1 387 21 is_stmt 0 view .LVU254
 789              	.LBE14:
 397:Lib/lvgl/src/misc/lv_anim.c ****     }
 790              		.loc 1 397 13 is_stmt 1 view .LVU255
 397:Lib/lvgl/src/misc/lv_anim.c ****     }
 791              		.loc 1 397 17 is_stmt 0 view .LVU256
 792 0108 2146     		mov	r1, r4
 793 010a 0448     		ldr	r0, .L54+4
 794 010c FFF7FEFF 		bl	_lv_ll_get_next
 795              	.LVL76:
 796 0110 0446     		mov	r4, r0
 797              	.LVL77:
 397:Lib/lvgl/src/misc/lv_anim.c ****     }
 798              		.loc 1 397 17 view .LVU257
 799 0112 C0E7     		b	.L40
 800              	.LVL78:
 801              	.L53:
 397:Lib/lvgl/src/misc/lv_anim.c ****     }
 802              		.loc 1 397 17 view .LVU258
 803              	.LBE15:
 400:Lib/lvgl/src/misc/lv_anim.c **** 
 804              		.loc 1 400 1 view .LVU259
 805 0114 38BD     		pop	{r3, r4, r5, pc}
 806              	.L55:
 807 0116 00BF     		.align	2
 808              	.L54:
ARM GAS  C:\Users\Alex\AppData\Local\Temp\ccbB2tth.s 			page 28


 809 0118 00000000 		.word	lv_global
 810 011c B8000000 		.word	lv_global+184
 811              		.cfi_endproc
 812              	.LFE255:
 814              		.section	.text.delete_core,"ax",%progbits
 815              		.align	1
 816              		.syntax unified
 817              		.thumb
 818              		.thumb_func
 820              	delete_core:
 821              	.LVL79:
 822              	.LFB262:
 537:Lib/lvgl/src/misc/lv_anim.c **** 
 538:Lib/lvgl/src/misc/lv_anim.c **** static bool delete_core(void * var, void * cb, bool custom_exec_cb)
 539:Lib/lvgl/src/misc/lv_anim.c **** {
 823              		.loc 1 539 1 is_stmt 1 view -0
 824              		.cfi_startproc
 825              		@ args = 0, pretend = 0, frame = 0
 826              		@ frame_needed = 0, uses_anonymous_args = 0
 827              		.loc 1 539 1 is_stmt 0 view .LVU261
 828 0000 2DE9F041 		push	{r4, r5, r6, r7, r8, lr}
 829              	.LCFI5:
 830              		.cfi_def_cfa_offset 24
 831              		.cfi_offset 4, -24
 832              		.cfi_offset 5, -20
 833              		.cfi_offset 6, -16
 834              		.cfi_offset 7, -12
 835              		.cfi_offset 8, -8
 836              		.cfi_offset 14, -4
 837 0004 0546     		mov	r5, r0
 838 0006 0F46     		mov	r7, r1
 839 0008 1646     		mov	r6, r2
 540:Lib/lvgl/src/misc/lv_anim.c ****     lv_anim_t * a;
 840              		.loc 1 540 5 is_stmt 1 view .LVU262
 541:Lib/lvgl/src/misc/lv_anim.c ****     bool del_any = false;
 841              		.loc 1 541 5 view .LVU263
 842              	.LVL80:
 542:Lib/lvgl/src/misc/lv_anim.c ****     a        = _lv_ll_get_head(anim_ll_p);
 843              		.loc 1 542 5 view .LVU264
 844              		.loc 1 542 16 is_stmt 0 view .LVU265
 845 000a 1948     		ldr	r0, .L68
 846              	.LVL81:
 847              		.loc 1 542 16 view .LVU266
 848 000c FFF7FEFF 		bl	_lv_ll_get_head
 849              	.LVL82:
 850              		.loc 1 542 16 view .LVU267
 851 0010 0446     		mov	r4, r0
 852              	.LVL83:
 543:Lib/lvgl/src/misc/lv_anim.c ****     while(a != NULL) {
 853              		.loc 1 543 5 is_stmt 1 view .LVU268
 541:Lib/lvgl/src/misc/lv_anim.c ****     bool del_any = false;
 854              		.loc 1 541 10 is_stmt 0 view .LVU269
 855 0012 4FF00008 		mov	r8, #0
 856              		.loc 1 543 10 view .LVU270
 857 0016 09E0     		b	.L57
 858              	.LVL84:
 859              	.L58:
ARM GAS  C:\Users\Alex\AppData\Local\Temp\ccbB2tth.s 			page 29


 860              	.LBB16:
 544:Lib/lvgl/src/misc/lv_anim.c ****         bool del = false;
 545:Lib/lvgl/src/misc/lv_anim.c ****         void * a_cb = custom_exec_cb ? (void *)a->custom_exec_cb : (void *)a->exec_cb;
 861              		.loc 1 545 66 discriminator 2 view .LVU271
 862 0018 6268     		ldr	r2, [r4, #4]
 863 001a 0BE0     		b	.L59
 864              	.LVL85:
 865              	.L60:
 546:Lib/lvgl/src/misc/lv_anim.c ****         if((a->var == var || var == NULL) && (a_cb == cb || cb == NULL)) {
 866              		.loc 1 546 43 discriminator 3 view .LVU272
 867 001c BA42     		cmp	r2, r7
 868 001e 0FD0     		beq	.L62
 869              		.loc 1 546 58 discriminator 4 view .LVU273
 870 0020 77B1     		cbz	r7, .L62
 871              	.L61:
 872              	.LVL86:
 547:Lib/lvgl/src/misc/lv_anim.c ****             _lv_ll_remove(anim_ll_p, a);
 548:Lib/lvgl/src/misc/lv_anim.c ****             if(a->deleted_cb != NULL) a->deleted_cb(a);
 549:Lib/lvgl/src/misc/lv_anim.c ****             lv_free(a);
 550:Lib/lvgl/src/misc/lv_anim.c ****             anim_mark_list_change(); /*Read by `anim_timer`. It need to know if a delete occurred i
 551:Lib/lvgl/src/misc/lv_anim.c ****                                        the linked list*/
 552:Lib/lvgl/src/misc/lv_anim.c ****             del_any = true;
 553:Lib/lvgl/src/misc/lv_anim.c ****             del = true;
 554:Lib/lvgl/src/misc/lv_anim.c ****         }
 555:Lib/lvgl/src/misc/lv_anim.c **** 
 556:Lib/lvgl/src/misc/lv_anim.c ****         /*Always start from the head on delete, because we don't know
 557:Lib/lvgl/src/misc/lv_anim.c ****          *how `anim_ll_p` was changes in `a->deleted_cb` */
 558:Lib/lvgl/src/misc/lv_anim.c ****         a = del ? _lv_ll_get_head(anim_ll_p) : _lv_ll_get_next(anim_ll_p, a);
 873              		.loc 1 558 48 discriminator 2 view .LVU274
 874 0022 2146     		mov	r1, r4
 875 0024 1248     		ldr	r0, .L68
 876 0026 FFF7FEFF 		bl	_lv_ll_get_next
 877              	.LVL87:
 878              		.loc 1 558 48 discriminator 2 view .LVU275
 879 002a 0446     		mov	r4, r0
 880              	.LVL88:
 881              	.L57:
 882              		.loc 1 558 48 discriminator 2 view .LVU276
 883              	.LBE16:
 543:Lib/lvgl/src/misc/lv_anim.c ****         bool del = false;
 884              		.loc 1 543 13 is_stmt 1 view .LVU277
 885 002c E4B1     		cbz	r4, .L67
 886              	.LBB17:
 544:Lib/lvgl/src/misc/lv_anim.c ****         void * a_cb = custom_exec_cb ? (void *)a->custom_exec_cb : (void *)a->exec_cb;
 887              		.loc 1 544 9 view .LVU278
 888              	.LVL89:
 545:Lib/lvgl/src/misc/lv_anim.c ****         if((a->var == var || var == NULL) && (a_cb == cb || cb == NULL)) {
 889              		.loc 1 545 9 view .LVU279
 545:Lib/lvgl/src/misc/lv_anim.c ****         if((a->var == var || var == NULL) && (a_cb == cb || cb == NULL)) {
 890              		.loc 1 545 66 is_stmt 0 view .LVU280
 891 002e 002E     		cmp	r6, #0
 892 0030 F2D0     		beq	.L58
 545:Lib/lvgl/src/misc/lv_anim.c ****         if((a->var == var || var == NULL) && (a_cb == cb || cb == NULL)) {
 893              		.loc 1 545 66 discriminator 1 view .LVU281
 894 0032 A268     		ldr	r2, [r4, #8]
 895              	.L59:
 896              	.LVL90:
ARM GAS  C:\Users\Alex\AppData\Local\Temp\ccbB2tth.s 			page 30


 546:Lib/lvgl/src/misc/lv_anim.c ****             _lv_ll_remove(anim_ll_p, a);
 897              		.loc 1 546 9 is_stmt 1 discriminator 4 view .LVU282
 546:Lib/lvgl/src/misc/lv_anim.c ****             _lv_ll_remove(anim_ll_p, a);
 898              		.loc 1 546 14 is_stmt 0 discriminator 4 view .LVU283
 899 0034 2368     		ldr	r3, [r4]
 546:Lib/lvgl/src/misc/lv_anim.c ****             _lv_ll_remove(anim_ll_p, a);
 900              		.loc 1 546 11 discriminator 4 view .LVU284
 901 0036 AB42     		cmp	r3, r5
 902 0038 F0D0     		beq	.L60
 546:Lib/lvgl/src/misc/lv_anim.c ****             _lv_ll_remove(anim_ll_p, a);
 903              		.loc 1 546 27 discriminator 2 view .LVU285
 904 003a 002D     		cmp	r5, #0
 905 003c F1D1     		bne	.L61
 906 003e EDE7     		b	.L60
 907              	.L62:
 547:Lib/lvgl/src/misc/lv_anim.c ****             if(a->deleted_cb != NULL) a->deleted_cb(a);
 908              		.loc 1 547 13 is_stmt 1 view .LVU286
 909 0040 2146     		mov	r1, r4
 910 0042 0B48     		ldr	r0, .L68
 911 0044 FFF7FEFF 		bl	_lv_ll_remove
 912              	.LVL91:
 548:Lib/lvgl/src/misc/lv_anim.c ****             lv_free(a);
 913              		.loc 1 548 13 view .LVU287
 548:Lib/lvgl/src/misc/lv_anim.c ****             lv_free(a);
 914              		.loc 1 548 17 is_stmt 0 view .LVU288
 915 0048 6369     		ldr	r3, [r4, #20]
 548:Lib/lvgl/src/misc/lv_anim.c ****             lv_free(a);
 916              		.loc 1 548 15 view .LVU289
 917 004a 0BB1     		cbz	r3, .L63
 548:Lib/lvgl/src/misc/lv_anim.c ****             lv_free(a);
 918              		.loc 1 548 39 is_stmt 1 discriminator 1 view .LVU290
 919 004c 2046     		mov	r0, r4
 920 004e 9847     		blx	r3
 921              	.LVL92:
 922              	.L63:
 549:Lib/lvgl/src/misc/lv_anim.c ****             anim_mark_list_change(); /*Read by `anim_timer`. It need to know if a delete occurred i
 923              		.loc 1 549 13 view .LVU291
 924 0050 2046     		mov	r0, r4
 925 0052 FFF7FEFF 		bl	lv_free
 926              	.LVL93:
 550:Lib/lvgl/src/misc/lv_anim.c ****                                        the linked list*/
 927              		.loc 1 550 13 view .LVU292
 928 0056 FFF7FEFF 		bl	anim_mark_list_change
 929              	.LVL94:
 552:Lib/lvgl/src/misc/lv_anim.c ****             del = true;
 930              		.loc 1 552 13 view .LVU293
 553:Lib/lvgl/src/misc/lv_anim.c ****         }
 931              		.loc 1 553 13 view .LVU294
 932              		.loc 1 558 9 view .LVU295
 933              		.loc 1 558 19 is_stmt 0 view .LVU296
 934 005a 0548     		ldr	r0, .L68
 935 005c FFF7FEFF 		bl	_lv_ll_get_head
 936              	.LVL95:
 937 0060 0446     		mov	r4, r0
 938              	.LVL96:
 552:Lib/lvgl/src/misc/lv_anim.c ****             del = true;
 939              		.loc 1 552 21 view .LVU297
ARM GAS  C:\Users\Alex\AppData\Local\Temp\ccbB2tth.s 			page 31


 940 0062 4FF00108 		mov	r8, #1
 941 0066 E1E7     		b	.L57
 942              	.LVL97:
 943              	.L67:
 552:Lib/lvgl/src/misc/lv_anim.c ****             del = true;
 944              		.loc 1 552 21 view .LVU298
 945              	.LBE17:
 559:Lib/lvgl/src/misc/lv_anim.c ****     }
 560:Lib/lvgl/src/misc/lv_anim.c **** 
 561:Lib/lvgl/src/misc/lv_anim.c ****     return del_any;
 946              		.loc 1 561 5 is_stmt 1 view .LVU299
 562:Lib/lvgl/src/misc/lv_anim.c **** }
 947              		.loc 1 562 1 is_stmt 0 view .LVU300
 948 0068 4046     		mov	r0, r8
 949 006a BDE8F081 		pop	{r4, r5, r6, r7, r8, pc}
 950              	.LVL98:
 951              	.L69:
 952              		.loc 1 562 1 view .LVU301
 953 006e 00BF     		.align	2
 954              	.L68:
 955 0070 B8000000 		.word	lv_global+184
 956              		.cfi_endproc
 957              	.LFE262:
 959              		.section	.text.lv_anim_path_linear,"ax",%progbits
 960              		.align	1
 961              		.global	lv_anim_path_linear
 962              		.syntax unified
 963              		.thumb
 964              		.thumb_func
 966              	lv_anim_path_linear:
 967              	.LVL99:
 968              	.LFB247:
 218:Lib/lvgl/src/misc/lv_anim.c ****     /*Calculate the current step*/
 969              		.loc 1 218 1 is_stmt 1 view -0
 970              		.cfi_startproc
 971              		@ args = 0, pretend = 0, frame = 0
 972              		@ frame_needed = 0, uses_anonymous_args = 0
 218:Lib/lvgl/src/misc/lv_anim.c ****     /*Calculate the current step*/
 973              		.loc 1 218 1 is_stmt 0 view .LVU303
 974 0000 10B5     		push	{r4, lr}
 975              	.LCFI6:
 976              		.cfi_def_cfa_offset 8
 977              		.cfi_offset 4, -8
 978              		.cfi_offset 14, -4
 979 0002 82B0     		sub	sp, sp, #8
 980              	.LCFI7:
 981              		.cfi_def_cfa_offset 16
 982 0004 0446     		mov	r4, r0
 220:Lib/lvgl/src/misc/lv_anim.c **** 
 983              		.loc 1 220 5 is_stmt 1 view .LVU304
 220:Lib/lvgl/src/misc/lv_anim.c **** 
 984              		.loc 1 220 20 is_stmt 0 view .LVU305
 985 0006 4FF48063 		mov	r3, #1024
 986 000a 0093     		str	r3, [sp]
 987 000c 0023     		movs	r3, #0
 988 000e 026B     		ldr	r2, [r0, #48]
 989 0010 1946     		mov	r1, r3
ARM GAS  C:\Users\Alex\AppData\Local\Temp\ccbB2tth.s 			page 32


 990 0012 406B     		ldr	r0, [r0, #52]
 991              	.LVL100:
 220:Lib/lvgl/src/misc/lv_anim.c **** 
 992              		.loc 1 220 20 view .LVU306
 993 0014 FFF7FEFF 		bl	lv_map
 994              	.LVL101:
 224:Lib/lvgl/src/misc/lv_anim.c ****     new_value = step * (a->end_value - a->start_value);
 995              		.loc 1 224 5 is_stmt 1 view .LVU307
 225:Lib/lvgl/src/misc/lv_anim.c ****     new_value = new_value >> LV_ANIM_RES_SHIFT;
 996              		.loc 1 225 5 view .LVU308
 225:Lib/lvgl/src/misc/lv_anim.c ****     new_value = new_value >> LV_ANIM_RES_SHIFT;
 997              		.loc 1 225 26 is_stmt 0 view .LVU309
 998 0018 E36A     		ldr	r3, [r4, #44]
 225:Lib/lvgl/src/misc/lv_anim.c ****     new_value = new_value >> LV_ANIM_RES_SHIFT;
 999              		.loc 1 225 41 view .LVU310
 1000 001a 626A     		ldr	r2, [r4, #36]
 225:Lib/lvgl/src/misc/lv_anim.c ****     new_value = new_value >> LV_ANIM_RES_SHIFT;
 1001              		.loc 1 225 38 view .LVU311
 1002 001c 9B1A     		subs	r3, r3, r2
 225:Lib/lvgl/src/misc/lv_anim.c ****     new_value = new_value >> LV_ANIM_RES_SHIFT;
 1003              		.loc 1 225 15 view .LVU312
 1004 001e 03FB00F0 		mul	r0, r3, r0
 1005              	.LVL102:
 226:Lib/lvgl/src/misc/lv_anim.c ****     new_value += a->start_value;
 1006              		.loc 1 226 5 is_stmt 1 view .LVU313
 227:Lib/lvgl/src/misc/lv_anim.c **** 
 1007              		.loc 1 227 5 view .LVU314
 229:Lib/lvgl/src/misc/lv_anim.c **** }
 1008              		.loc 1 229 5 view .LVU315
 230:Lib/lvgl/src/misc/lv_anim.c **** 
 1009              		.loc 1 230 1 is_stmt 0 view .LVU316
 1010 0022 02EBA020 		add	r0, r2, r0, asr #10
 1011              	.LVL103:
 230:Lib/lvgl/src/misc/lv_anim.c **** 
 1012              		.loc 1 230 1 view .LVU317
 1013 0026 02B0     		add	sp, sp, #8
 1014              	.LCFI8:
 1015              		.cfi_def_cfa_offset 8
 1016              		@ sp needed
 1017 0028 10BD     		pop	{r4, pc}
 230:Lib/lvgl/src/misc/lv_anim.c **** 
 1018              		.loc 1 230 1 view .LVU318
 1019              		.cfi_endproc
 1020              	.LFE247:
 1022              		.section	.text.lv_anim_path_cubic_bezier,"ax",%progbits
 1023              		.align	1
 1024              		.syntax unified
 1025              		.thumb
 1026              		.thumb_func
 1028              	lv_anim_path_cubic_bezier:
 1029              	.LVL104:
 1030              	.LFB258:
 462:Lib/lvgl/src/misc/lv_anim.c ****     /*Calculate the current step*/
 1031              		.loc 1 462 1 is_stmt 1 view -0
 1032              		.cfi_startproc
 1033              		@ args = 4, pretend = 0, frame = 0
 1034              		@ frame_needed = 0, uses_anonymous_args = 0
ARM GAS  C:\Users\Alex\AppData\Local\Temp\ccbB2tth.s 			page 33


 462:Lib/lvgl/src/misc/lv_anim.c ****     /*Calculate the current step*/
 1035              		.loc 1 462 1 is_stmt 0 view .LVU320
 1036 0000 F0B5     		push	{r4, r5, r6, r7, lr}
 1037              	.LCFI9:
 1038              		.cfi_def_cfa_offset 20
 1039              		.cfi_offset 4, -20
 1040              		.cfi_offset 5, -16
 1041              		.cfi_offset 6, -12
 1042              		.cfi_offset 7, -8
 1043              		.cfi_offset 14, -4
 1044 0002 83B0     		sub	sp, sp, #12
 1045              	.LCFI10:
 1046              		.cfi_def_cfa_offset 32
 1047 0004 0446     		mov	r4, r0
 1048 0006 0D46     		mov	r5, r1
 1049 0008 1646     		mov	r6, r2
 1050 000a 1F46     		mov	r7, r3
 464:Lib/lvgl/src/misc/lv_anim.c ****     int32_t step = lv_cubic_bezier(t, x1, y1, x2, y2);
 1051              		.loc 1 464 5 is_stmt 1 view .LVU321
 464:Lib/lvgl/src/misc/lv_anim.c ****     int32_t step = lv_cubic_bezier(t, x1, y1, x2, y2);
 1052              		.loc 1 464 18 is_stmt 0 view .LVU322
 1053 000c 4FF48063 		mov	r3, #1024
 1054              	.LVL105:
 464:Lib/lvgl/src/misc/lv_anim.c ****     int32_t step = lv_cubic_bezier(t, x1, y1, x2, y2);
 1055              		.loc 1 464 18 view .LVU323
 1056 0010 0093     		str	r3, [sp]
 1057 0012 0023     		movs	r3, #0
 1058 0014 026B     		ldr	r2, [r0, #48]
 1059              	.LVL106:
 464:Lib/lvgl/src/misc/lv_anim.c ****     int32_t step = lv_cubic_bezier(t, x1, y1, x2, y2);
 1060              		.loc 1 464 18 view .LVU324
 1061 0016 1946     		mov	r1, r3
 1062              	.LVL107:
 464:Lib/lvgl/src/misc/lv_anim.c ****     int32_t step = lv_cubic_bezier(t, x1, y1, x2, y2);
 1063              		.loc 1 464 18 view .LVU325
 1064 0018 406B     		ldr	r0, [r0, #52]
 1065              	.LVL108:
 464:Lib/lvgl/src/misc/lv_anim.c ****     int32_t step = lv_cubic_bezier(t, x1, y1, x2, y2);
 1066              		.loc 1 464 18 view .LVU326
 1067 001a FFF7FEFF 		bl	lv_map
 1068              	.LVL109:
 465:Lib/lvgl/src/misc/lv_anim.c **** 
 1069              		.loc 1 465 5 is_stmt 1 view .LVU327
 465:Lib/lvgl/src/misc/lv_anim.c **** 
 1070              		.loc 1 465 20 is_stmt 0 view .LVU328
 1071 001e 089B     		ldr	r3, [sp, #32]
 1072 0020 0093     		str	r3, [sp]
 1073 0022 3B46     		mov	r3, r7
 1074 0024 3246     		mov	r2, r6
 1075 0026 2946     		mov	r1, r5
 1076 0028 FFF7FEFF 		bl	lv_cubic_bezier
 1077              	.LVL110:
 467:Lib/lvgl/src/misc/lv_anim.c ****     new_value = step * (a->end_value - a->start_value);
 1078              		.loc 1 467 5 is_stmt 1 view .LVU329
 468:Lib/lvgl/src/misc/lv_anim.c ****     new_value = new_value >> LV_BEZIER_VAL_SHIFT;
 1079              		.loc 1 468 5 view .LVU330
 468:Lib/lvgl/src/misc/lv_anim.c ****     new_value = new_value >> LV_BEZIER_VAL_SHIFT;
ARM GAS  C:\Users\Alex\AppData\Local\Temp\ccbB2tth.s 			page 34


 1080              		.loc 1 468 26 is_stmt 0 view .LVU331
 1081 002c E36A     		ldr	r3, [r4, #44]
 468:Lib/lvgl/src/misc/lv_anim.c ****     new_value = new_value >> LV_BEZIER_VAL_SHIFT;
 1082              		.loc 1 468 41 view .LVU332
 1083 002e 626A     		ldr	r2, [r4, #36]
 468:Lib/lvgl/src/misc/lv_anim.c ****     new_value = new_value >> LV_BEZIER_VAL_SHIFT;
 1084              		.loc 1 468 38 view .LVU333
 1085 0030 9B1A     		subs	r3, r3, r2
 468:Lib/lvgl/src/misc/lv_anim.c ****     new_value = new_value >> LV_BEZIER_VAL_SHIFT;
 1086              		.loc 1 468 15 view .LVU334
 1087 0032 03FB00F0 		mul	r0, r3, r0
 1088              	.LVL111:
 469:Lib/lvgl/src/misc/lv_anim.c ****     new_value += a->start_value;
 1089              		.loc 1 469 5 is_stmt 1 view .LVU335
 470:Lib/lvgl/src/misc/lv_anim.c **** 
 1090              		.loc 1 470 5 view .LVU336
 472:Lib/lvgl/src/misc/lv_anim.c **** }
 1091              		.loc 1 472 5 view .LVU337
 473:Lib/lvgl/src/misc/lv_anim.c **** 
 1092              		.loc 1 473 1 is_stmt 0 view .LVU338
 1093 0036 02EBA020 		add	r0, r2, r0, asr #10
 1094              	.LVL112:
 473:Lib/lvgl/src/misc/lv_anim.c **** 
 1095              		.loc 1 473 1 view .LVU339
 1096 003a 03B0     		add	sp, sp, #12
 1097              	.LCFI11:
 1098              		.cfi_def_cfa_offset 20
 1099              		@ sp needed
 1100 003c F0BD     		pop	{r4, r5, r6, r7, pc}
 473:Lib/lvgl/src/misc/lv_anim.c **** 
 1101              		.loc 1 473 1 view .LVU340
 1102              		.cfi_endproc
 1103              	.LFE258:
 1105              		.section	.text._lv_anim_core_init,"ax",%progbits
 1106              		.align	1
 1107              		.global	_lv_anim_core_init
 1108              		.syntax unified
 1109              		.thumb
 1110              		.thumb_func
 1112              	_lv_anim_core_init:
 1113              	.LFB234:
  62:Lib/lvgl/src/misc/lv_anim.c ****     _lv_ll_init(anim_ll_p, sizeof(lv_anim_t));
 1114              		.loc 1 62 1 is_stmt 1 view -0
 1115              		.cfi_startproc
 1116              		@ args = 0, pretend = 0, frame = 0
 1117              		@ frame_needed = 0, uses_anonymous_args = 0
 1118 0000 10B5     		push	{r4, lr}
 1119              	.LCFI12:
 1120              		.cfi_def_cfa_offset 8
 1121              		.cfi_offset 4, -8
 1122              		.cfi_offset 14, -4
  63:Lib/lvgl/src/misc/lv_anim.c ****     state.timer = lv_timer_create(anim_timer, LV_DEF_REFR_PERIOD, NULL);
 1123              		.loc 1 63 5 view .LVU342
 1124 0002 0A4C     		ldr	r4, .L76
 1125 0004 5821     		movs	r1, #88
 1126 0006 2046     		mov	r0, r4
 1127 0008 FFF7FEFF 		bl	_lv_ll_init
ARM GAS  C:\Users\Alex\AppData\Local\Temp\ccbB2tth.s 			page 35


 1128              	.LVL113:
  64:Lib/lvgl/src/misc/lv_anim.c ****     anim_mark_list_change(); /*Turn off the animation timer*/
 1129              		.loc 1 64 5 view .LVU343
  64:Lib/lvgl/src/misc/lv_anim.c ****     anim_mark_list_change(); /*Turn off the animation timer*/
 1130              		.loc 1 64 19 is_stmt 0 view .LVU344
 1131 000c 0022     		movs	r2, #0
 1132 000e 2121     		movs	r1, #33
 1133 0010 0748     		ldr	r0, .L76+4
 1134 0012 FFF7FEFF 		bl	lv_timer_create
 1135              	.LVL114:
  64:Lib/lvgl/src/misc/lv_anim.c ****     anim_mark_list_change(); /*Turn off the animation timer*/
 1136              		.loc 1 64 17 view .LVU345
 1137 0016 44F8040C 		str	r0, [r4, #-4]
  65:Lib/lvgl/src/misc/lv_anim.c ****     state.anim_list_changed = false;
 1138              		.loc 1 65 5 is_stmt 1 view .LVU346
 1139 001a FFF7FEFF 		bl	anim_mark_list_change
 1140              	.LVL115:
  66:Lib/lvgl/src/misc/lv_anim.c ****     state.anim_run_round = false;
 1141              		.loc 1 66 5 view .LVU347
  66:Lib/lvgl/src/misc/lv_anim.c ****     state.anim_run_round = false;
 1142              		.loc 1 66 29 is_stmt 0 view .LVU348
 1143 001e 0023     		movs	r3, #0
 1144 0020 04F8083C 		strb	r3, [r4, #-8]
  67:Lib/lvgl/src/misc/lv_anim.c **** }
 1145              		.loc 1 67 5 is_stmt 1 view .LVU349
  67:Lib/lvgl/src/misc/lv_anim.c **** }
 1146              		.loc 1 67 26 is_stmt 0 view .LVU350
 1147 0024 04F8073C 		strb	r3, [r4, #-7]
  68:Lib/lvgl/src/misc/lv_anim.c **** 
 1148              		.loc 1 68 1 view .LVU351
 1149 0028 10BD     		pop	{r4, pc}
 1150              	.L77:
 1151 002a 00BF     		.align	2
 1152              	.L76:
 1153 002c B8000000 		.word	lv_global+184
 1154 0030 00000000 		.word	anim_timer
 1155              		.cfi_endproc
 1156              	.LFE234:
 1158              		.section	.text.lv_anim_init,"ax",%progbits
 1159              		.align	1
 1160              		.global	lv_anim_init
 1161              		.syntax unified
 1162              		.thumb
 1163              		.thumb_func
 1165              	lv_anim_init:
 1166              	.LVL116:
 1167              	.LFB236:
  76:Lib/lvgl/src/misc/lv_anim.c ****     lv_memzero(a, sizeof(lv_anim_t));
 1168              		.loc 1 76 1 is_stmt 1 view -0
 1169              		.cfi_startproc
 1170              		@ args = 0, pretend = 0, frame = 0
 1171              		@ frame_needed = 0, uses_anonymous_args = 0
  76:Lib/lvgl/src/misc/lv_anim.c ****     lv_memzero(a, sizeof(lv_anim_t));
 1172              		.loc 1 76 1 is_stmt 0 view .LVU353
 1173 0000 10B5     		push	{r4, lr}
 1174              	.LCFI13:
 1175              		.cfi_def_cfa_offset 8
ARM GAS  C:\Users\Alex\AppData\Local\Temp\ccbB2tth.s 			page 36


 1176              		.cfi_offset 4, -8
 1177              		.cfi_offset 14, -4
 1178 0002 0446     		mov	r4, r0
  77:Lib/lvgl/src/misc/lv_anim.c ****     a->duration = 500;
 1179              		.loc 1 77 5 is_stmt 1 view .LVU354
 1180              	.LVL117:
 1181              	.LBB18:
 1182              	.LBI18:
 1183              		.file 2 "c:\\users\\alex\\eclipse-workspace\\lvgs_test\\lib\\lvgl\\src\\stdlib\\lv_string.h"
   1:c:\users\alex\eclipse-workspace\lvgs_test\lib\lvgl\src\stdlib\lv_string.h **** /**
   2:c:\users\alex\eclipse-workspace\lvgs_test\lib\lvgl\src\stdlib\lv_string.h ****  * @file lv_stringn.h
   3:c:\users\alex\eclipse-workspace\lvgs_test\lib\lvgl\src\stdlib\lv_string.h ****  *
   4:c:\users\alex\eclipse-workspace\lvgs_test\lib\lvgl\src\stdlib\lv_string.h ****  */
   5:c:\users\alex\eclipse-workspace\lvgs_test\lib\lvgl\src\stdlib\lv_string.h **** 
   6:c:\users\alex\eclipse-workspace\lvgs_test\lib\lvgl\src\stdlib\lv_string.h **** #ifndef LV_STRING_H
   7:c:\users\alex\eclipse-workspace\lvgs_test\lib\lvgl\src\stdlib\lv_string.h **** #define LV_STRING_H
   8:c:\users\alex\eclipse-workspace\lvgs_test\lib\lvgl\src\stdlib\lv_string.h **** 
   9:c:\users\alex\eclipse-workspace\lvgs_test\lib\lvgl\src\stdlib\lv_string.h **** #ifdef __cplusplus
  10:c:\users\alex\eclipse-workspace\lvgs_test\lib\lvgl\src\stdlib\lv_string.h **** extern "C" {
  11:c:\users\alex\eclipse-workspace\lvgs_test\lib\lvgl\src\stdlib\lv_string.h **** #endif
  12:c:\users\alex\eclipse-workspace\lvgs_test\lib\lvgl\src\stdlib\lv_string.h **** 
  13:c:\users\alex\eclipse-workspace\lvgs_test\lib\lvgl\src\stdlib\lv_string.h **** /*********************
  14:c:\users\alex\eclipse-workspace\lvgs_test\lib\lvgl\src\stdlib\lv_string.h ****  *      INCLUDES
  15:c:\users\alex\eclipse-workspace\lvgs_test\lib\lvgl\src\stdlib\lv_string.h ****  *********************/
  16:c:\users\alex\eclipse-workspace\lvgs_test\lib\lvgl\src\stdlib\lv_string.h **** #include "../lv_conf_internal.h"
  17:c:\users\alex\eclipse-workspace\lvgs_test\lib\lvgl\src\stdlib\lv_string.h **** #include <stdint.h>
  18:c:\users\alex\eclipse-workspace\lvgs_test\lib\lvgl\src\stdlib\lv_string.h **** #include <stddef.h>
  19:c:\users\alex\eclipse-workspace\lvgs_test\lib\lvgl\src\stdlib\lv_string.h **** 
  20:c:\users\alex\eclipse-workspace\lvgs_test\lib\lvgl\src\stdlib\lv_string.h **** /*********************
  21:c:\users\alex\eclipse-workspace\lvgs_test\lib\lvgl\src\stdlib\lv_string.h ****  *      DEFINES
  22:c:\users\alex\eclipse-workspace\lvgs_test\lib\lvgl\src\stdlib\lv_string.h ****  *********************/
  23:c:\users\alex\eclipse-workspace\lvgs_test\lib\lvgl\src\stdlib\lv_string.h **** 
  24:c:\users\alex\eclipse-workspace\lvgs_test\lib\lvgl\src\stdlib\lv_string.h **** /**********************
  25:c:\users\alex\eclipse-workspace\lvgs_test\lib\lvgl\src\stdlib\lv_string.h ****  *      TYPEDEFS
  26:c:\users\alex\eclipse-workspace\lvgs_test\lib\lvgl\src\stdlib\lv_string.h ****  **********************/
  27:c:\users\alex\eclipse-workspace\lvgs_test\lib\lvgl\src\stdlib\lv_string.h **** 
  28:c:\users\alex\eclipse-workspace\lvgs_test\lib\lvgl\src\stdlib\lv_string.h **** /**********************
  29:c:\users\alex\eclipse-workspace\lvgs_test\lib\lvgl\src\stdlib\lv_string.h ****  * GLOBAL PROTOTYPES
  30:c:\users\alex\eclipse-workspace\lvgs_test\lib\lvgl\src\stdlib\lv_string.h ****  **********************/
  31:c:\users\alex\eclipse-workspace\lvgs_test\lib\lvgl\src\stdlib\lv_string.h **** 
  32:c:\users\alex\eclipse-workspace\lvgs_test\lib\lvgl\src\stdlib\lv_string.h **** /**
  33:c:\users\alex\eclipse-workspace\lvgs_test\lib\lvgl\src\stdlib\lv_string.h ****  * @brief Copies a block of memory from a source address to a destination address.
  34:c:\users\alex\eclipse-workspace\lvgs_test\lib\lvgl\src\stdlib\lv_string.h ****  * @param dst Pointer to the destination array where the content is to be copied.
  35:c:\users\alex\eclipse-workspace\lvgs_test\lib\lvgl\src\stdlib\lv_string.h ****  * @param src Pointer to the source of data to be copied.
  36:c:\users\alex\eclipse-workspace\lvgs_test\lib\lvgl\src\stdlib\lv_string.h ****  * @param len Number of bytes to copy.
  37:c:\users\alex\eclipse-workspace\lvgs_test\lib\lvgl\src\stdlib\lv_string.h ****  * @return Pointer to the destination array.
  38:c:\users\alex\eclipse-workspace\lvgs_test\lib\lvgl\src\stdlib\lv_string.h ****  * @note The function does not check for any overlapping of the source and destination memory block
  39:c:\users\alex\eclipse-workspace\lvgs_test\lib\lvgl\src\stdlib\lv_string.h ****  */
  40:c:\users\alex\eclipse-workspace\lvgs_test\lib\lvgl\src\stdlib\lv_string.h **** void * lv_memcpy(void * dst, const void * src, size_t len);
  41:c:\users\alex\eclipse-workspace\lvgs_test\lib\lvgl\src\stdlib\lv_string.h **** 
  42:c:\users\alex\eclipse-workspace\lvgs_test\lib\lvgl\src\stdlib\lv_string.h **** /**
  43:c:\users\alex\eclipse-workspace\lvgs_test\lib\lvgl\src\stdlib\lv_string.h ****  * @brief Fills a block of memory with a specified value.
  44:c:\users\alex\eclipse-workspace\lvgs_test\lib\lvgl\src\stdlib\lv_string.h ****  * @param dst Pointer to the destination array to fill with the specified value.
  45:c:\users\alex\eclipse-workspace\lvgs_test\lib\lvgl\src\stdlib\lv_string.h ****  * @param v Value to be set. The value is passed as an int, but the function fills
  46:c:\users\alex\eclipse-workspace\lvgs_test\lib\lvgl\src\stdlib\lv_string.h ****  *          the block of memory using the unsigned char conversion of this value.
  47:c:\users\alex\eclipse-workspace\lvgs_test\lib\lvgl\src\stdlib\lv_string.h ****  * @param len Number of bytes to be set to the value.
  48:c:\users\alex\eclipse-workspace\lvgs_test\lib\lvgl\src\stdlib\lv_string.h ****  */
ARM GAS  C:\Users\Alex\AppData\Local\Temp\ccbB2tth.s 			page 37


  49:c:\users\alex\eclipse-workspace\lvgs_test\lib\lvgl\src\stdlib\lv_string.h **** void lv_memset(void * dst, uint8_t v, size_t len);
  50:c:\users\alex\eclipse-workspace\lvgs_test\lib\lvgl\src\stdlib\lv_string.h **** 
  51:c:\users\alex\eclipse-workspace\lvgs_test\lib\lvgl\src\stdlib\lv_string.h **** /**
  52:c:\users\alex\eclipse-workspace\lvgs_test\lib\lvgl\src\stdlib\lv_string.h ****  * @brief Move a block of memory from source to destination
  53:c:\users\alex\eclipse-workspace\lvgs_test\lib\lvgl\src\stdlib\lv_string.h ****  * @param dst Pointer to the destination array where the content is to be copied.
  54:c:\users\alex\eclipse-workspace\lvgs_test\lib\lvgl\src\stdlib\lv_string.h ****  * @param src Pointer to the source of data to be copied.
  55:c:\users\alex\eclipse-workspace\lvgs_test\lib\lvgl\src\stdlib\lv_string.h ****  * @param len Number of bytes to copy
  56:c:\users\alex\eclipse-workspace\lvgs_test\lib\lvgl\src\stdlib\lv_string.h ****  * @return Pointer to the destination array.
  57:c:\users\alex\eclipse-workspace\lvgs_test\lib\lvgl\src\stdlib\lv_string.h ****  */
  58:c:\users\alex\eclipse-workspace\lvgs_test\lib\lvgl\src\stdlib\lv_string.h **** void * lv_memmove(void * dst, const void * src, size_t len);
  59:c:\users\alex\eclipse-workspace\lvgs_test\lib\lvgl\src\stdlib\lv_string.h **** 
  60:c:\users\alex\eclipse-workspace\lvgs_test\lib\lvgl\src\stdlib\lv_string.h **** /**
  61:c:\users\alex\eclipse-workspace\lvgs_test\lib\lvgl\src\stdlib\lv_string.h ****  * Same as `memset(dst, 0x00, len)`.
  62:c:\users\alex\eclipse-workspace\lvgs_test\lib\lvgl\src\stdlib\lv_string.h ****  * @param dst pointer to the destination buffer
  63:c:\users\alex\eclipse-workspace\lvgs_test\lib\lvgl\src\stdlib\lv_string.h ****  * @param len number of byte to set
  64:c:\users\alex\eclipse-workspace\lvgs_test\lib\lvgl\src\stdlib\lv_string.h ****  */
  65:c:\users\alex\eclipse-workspace\lvgs_test\lib\lvgl\src\stdlib\lv_string.h **** static inline void lv_memzero(void * dst, size_t len)
 1184              		.loc 2 65 20 view .LVU355
 1185              	.LBB19:
  66:c:\users\alex\eclipse-workspace\lvgs_test\lib\lvgl\src\stdlib\lv_string.h **** {
  67:c:\users\alex\eclipse-workspace\lvgs_test\lib\lvgl\src\stdlib\lv_string.h ****     lv_memset(dst, 0x00, len);
 1186              		.loc 2 67 5 view .LVU356
 1187 0004 5822     		movs	r2, #88
 1188 0006 0021     		movs	r1, #0
 1189 0008 FFF7FEFF 		bl	lv_memset
 1190              	.LVL118:
 1191              		.loc 2 67 5 is_stmt 0 view .LVU357
 1192              	.LBE19:
 1193              	.LBE18:
  78:Lib/lvgl/src/misc/lv_anim.c ****     a->start_value = 0;
 1194              		.loc 1 78 5 is_stmt 1 view .LVU358
  78:Lib/lvgl/src/misc/lv_anim.c ****     a->start_value = 0;
 1195              		.loc 1 78 17 is_stmt 0 view .LVU359
 1196 000c 4FF4FA73 		mov	r3, #500
 1197 0010 2363     		str	r3, [r4, #48]
  79:Lib/lvgl/src/misc/lv_anim.c ****     a->end_value = 100;
 1198              		.loc 1 79 5 is_stmt 1 view .LVU360
  79:Lib/lvgl/src/misc/lv_anim.c ****     a->end_value = 100;
 1199              		.loc 1 79 20 is_stmt 0 view .LVU361
 1200 0012 0023     		movs	r3, #0
 1201 0014 6362     		str	r3, [r4, #36]
  80:Lib/lvgl/src/misc/lv_anim.c ****     a->repeat_cnt = 1;
 1202              		.loc 1 80 5 is_stmt 1 view .LVU362
  80:Lib/lvgl/src/misc/lv_anim.c ****     a->repeat_cnt = 1;
 1203              		.loc 1 80 18 is_stmt 0 view .LVU363
 1204 0016 6423     		movs	r3, #100
 1205 0018 E362     		str	r3, [r4, #44]
  81:Lib/lvgl/src/misc/lv_anim.c ****     a->path_cb = lv_anim_path_linear;
 1206              		.loc 1 81 5 is_stmt 1 view .LVU364
  81:Lib/lvgl/src/misc/lv_anim.c ****     a->path_cb = lv_anim_path_linear;
 1207              		.loc 1 81 19 is_stmt 0 view .LVU365
 1208 001a 0123     		movs	r3, #1
 1209 001c A4F84430 		strh	r3, [r4, #68]	@ movhi
  82:Lib/lvgl/src/misc/lv_anim.c ****     a->early_apply = 1;
 1210              		.loc 1 82 5 is_stmt 1 view .LVU366
  82:Lib/lvgl/src/misc/lv_anim.c ****     a->early_apply = 1;
 1211              		.loc 1 82 16 is_stmt 0 view .LVU367
ARM GAS  C:\Users\Alex\AppData\Local\Temp\ccbB2tth.s 			page 38


 1212 0020 044B     		ldr	r3, .L80
 1213 0022 2362     		str	r3, [r4, #32]
  83:Lib/lvgl/src/misc/lv_anim.c **** }
 1214              		.loc 1 83 5 is_stmt 1 view .LVU368
  83:Lib/lvgl/src/misc/lv_anim.c **** }
 1215              		.loc 1 83 20 is_stmt 0 view .LVU369
 1216 0024 94F84E30 		ldrb	r3, [r4, #78]	@ zero_extendqisi2
 1217 0028 43F00103 		orr	r3, r3, #1
 1218 002c 84F84E30 		strb	r3, [r4, #78]
  84:Lib/lvgl/src/misc/lv_anim.c **** 
 1219              		.loc 1 84 1 view .LVU370
 1220 0030 10BD     		pop	{r4, pc}
 1221              	.LVL119:
 1222              	.L81:
  84:Lib/lvgl/src/misc/lv_anim.c **** 
 1223              		.loc 1 84 1 view .LVU371
 1224 0032 00BF     		.align	2
 1225              	.L80:
 1226 0034 00000000 		.word	lv_anim_path_linear
 1227              		.cfi_endproc
 1228              	.LFE236:
 1230              		.section	.text.lv_anim_start,"ax",%progbits
 1231              		.align	1
 1232              		.global	lv_anim_start
 1233              		.syntax unified
 1234              		.thumb
 1235              		.thumb_func
 1237              	lv_anim_start:
 1238              	.LVL120:
 1239              	.LFB237:
  87:Lib/lvgl/src/misc/lv_anim.c ****     LV_TRACE_ANIM("begin");
 1240              		.loc 1 87 1 is_stmt 1 view -0
 1241              		.cfi_startproc
 1242              		@ args = 0, pretend = 0, frame = 0
 1243              		@ frame_needed = 0, uses_anonymous_args = 0
  87:Lib/lvgl/src/misc/lv_anim.c ****     LV_TRACE_ANIM("begin");
 1244              		.loc 1 87 1 is_stmt 0 view .LVU373
 1245 0000 38B5     		push	{r3, r4, r5, lr}
 1246              	.LCFI14:
 1247              		.cfi_def_cfa_offset 16
 1248              		.cfi_offset 3, -16
 1249              		.cfi_offset 4, -12
 1250              		.cfi_offset 5, -8
 1251              		.cfi_offset 14, -4
 1252 0002 0546     		mov	r5, r0
  88:Lib/lvgl/src/misc/lv_anim.c **** 
 1253              		.loc 1 88 27 is_stmt 1 view .LVU374
  91:Lib/lvgl/src/misc/lv_anim.c ****     LV_ASSERT_MALLOC(new_anim);
 1254              		.loc 1 91 5 view .LVU375
  91:Lib/lvgl/src/misc/lv_anim.c ****     LV_ASSERT_MALLOC(new_anim);
 1255              		.loc 1 91 28 is_stmt 0 view .LVU376
 1256 0004 2248     		ldr	r0, .L94
 1257              	.LVL121:
  91:Lib/lvgl/src/misc/lv_anim.c ****     LV_ASSERT_MALLOC(new_anim);
 1258              		.loc 1 91 28 view .LVU377
 1259 0006 FFF7FEFF 		bl	_lv_ll_ins_head
 1260              	.LVL122:
ARM GAS  C:\Users\Alex\AppData\Local\Temp\ccbB2tth.s 			page 39


  92:Lib/lvgl/src/misc/lv_anim.c ****     if(new_anim == NULL) return NULL;
 1261              		.loc 1 92 5 is_stmt 1 view .LVU378
  92:Lib/lvgl/src/misc/lv_anim.c ****     if(new_anim == NULL) return NULL;
 1262              		.loc 1 92 5 view .LVU379
 1263 000a 0028     		cmp	r0, #0
 1264 000c 38D0     		beq	.L84
 1265 000e 0446     		mov	r4, r0
  92:Lib/lvgl/src/misc/lv_anim.c ****     if(new_anim == NULL) return NULL;
 1266              		.loc 1 92 5 view .LVU380
  92:Lib/lvgl/src/misc/lv_anim.c ****     if(new_anim == NULL) return NULL;
 1267              		.loc 1 92 31 view .LVU381
  93:Lib/lvgl/src/misc/lv_anim.c **** 
 1268              		.loc 1 93 5 view .LVU382
  96:Lib/lvgl/src/misc/lv_anim.c ****     if(a->var == a) new_anim->var = new_anim;
 1269              		.loc 1 96 5 view .LVU383
 1270 0010 5822     		movs	r2, #88
 1271 0012 2946     		mov	r1, r5
 1272 0014 FFF7FEFF 		bl	lv_memcpy
 1273              	.LVL123:
  97:Lib/lvgl/src/misc/lv_anim.c ****     new_anim->run_round = state.anim_run_round;
 1274              		.loc 1 97 5 view .LVU384
  97:Lib/lvgl/src/misc/lv_anim.c ****     new_anim->run_round = state.anim_run_round;
 1275              		.loc 1 97 9 is_stmt 0 view .LVU385
 1276 0018 2B68     		ldr	r3, [r5]
  97:Lib/lvgl/src/misc/lv_anim.c ****     new_anim->run_round = state.anim_run_round;
 1277              		.loc 1 97 7 view .LVU386
 1278 001a AB42     		cmp	r3, r5
 1279 001c 31D0     		beq	.L92
 1280              	.L85:
  98:Lib/lvgl/src/misc/lv_anim.c ****     new_anim->last_timer_run = lv_tick_get();
 1281              		.loc 1 98 5 is_stmt 1 view .LVU387
  98:Lib/lvgl/src/misc/lv_anim.c ****     new_anim->last_timer_run = lv_tick_get();
 1282              		.loc 1 98 32 is_stmt 0 view .LVU388
 1283 001e 1D4B     		ldr	r3, .L94+4
 1284 0020 93F8B120 		ldrb	r2, [r3, #177]	@ zero_extendqisi2
  98:Lib/lvgl/src/misc/lv_anim.c ****     new_anim->last_timer_run = lv_tick_get();
 1285              		.loc 1 98 25 view .LVU389
 1286 0024 94F85430 		ldrb	r3, [r4, #84]	@ zero_extendqisi2
 1287 0028 62F34103 		bfi	r3, r2, #1, #1
 1288 002c 84F85430 		strb	r3, [r4, #84]
  99:Lib/lvgl/src/misc/lv_anim.c **** 
 1289              		.loc 1 99 5 is_stmt 1 view .LVU390
  99:Lib/lvgl/src/misc/lv_anim.c **** 
 1290              		.loc 1 99 32 is_stmt 0 view .LVU391
 1291 0030 FFF7FEFF 		bl	lv_tick_get
 1292              	.LVL124:
  99:Lib/lvgl/src/misc/lv_anim.c **** 
 1293              		.loc 1 99 30 view .LVU392
 1294 0034 2065     		str	r0, [r4, #80]
 102:Lib/lvgl/src/misc/lv_anim.c ****         if(new_anim->get_value_cb) {
 1295              		.loc 1 102 5 is_stmt 1 view .LVU393
 102:Lib/lvgl/src/misc/lv_anim.c ****         if(new_anim->get_value_cb) {
 1296              		.loc 1 102 8 is_stmt 0 view .LVU394
 1297 0036 94F84E30 		ldrb	r3, [r4, #78]	@ zero_extendqisi2
 102:Lib/lvgl/src/misc/lv_anim.c ****         if(new_anim->get_value_cb) {
 1298              		.loc 1 102 7 view .LVU395
 1299 003a 13F0010F 		tst	r3, #1
ARM GAS  C:\Users\Alex\AppData\Local\Temp\ccbB2tth.s 			page 40


 1300 003e 1BD0     		beq	.L86
 103:Lib/lvgl/src/misc/lv_anim.c ****             int32_t v_ofs = new_anim->get_value_cb(new_anim);
 1301              		.loc 1 103 9 is_stmt 1 view .LVU396
 103:Lib/lvgl/src/misc/lv_anim.c ****             int32_t v_ofs = new_anim->get_value_cb(new_anim);
 1302              		.loc 1 103 20 is_stmt 0 view .LVU397
 1303 0040 A369     		ldr	r3, [r4, #24]
 103:Lib/lvgl/src/misc/lv_anim.c ****             int32_t v_ofs = new_anim->get_value_cb(new_anim);
 1304              		.loc 1 103 11 view .LVU398
 1305 0042 3BB1     		cbz	r3, .L87
 1306              	.LBB20:
 104:Lib/lvgl/src/misc/lv_anim.c ****             new_anim->start_value += v_ofs;
 1307              		.loc 1 104 13 is_stmt 1 view .LVU399
 104:Lib/lvgl/src/misc/lv_anim.c ****             new_anim->start_value += v_ofs;
 1308              		.loc 1 104 29 is_stmt 0 view .LVU400
 1309 0044 2046     		mov	r0, r4
 1310 0046 9847     		blx	r3
 1311              	.LVL125:
 105:Lib/lvgl/src/misc/lv_anim.c ****             new_anim->end_value += v_ofs;
 1312              		.loc 1 105 13 is_stmt 1 view .LVU401
 105:Lib/lvgl/src/misc/lv_anim.c ****             new_anim->end_value += v_ofs;
 1313              		.loc 1 105 21 is_stmt 0 view .LVU402
 1314 0048 636A     		ldr	r3, [r4, #36]
 105:Lib/lvgl/src/misc/lv_anim.c ****             new_anim->end_value += v_ofs;
 1315              		.loc 1 105 35 view .LVU403
 1316 004a 0344     		add	r3, r3, r0
 1317 004c 6362     		str	r3, [r4, #36]
 106:Lib/lvgl/src/misc/lv_anim.c **** 
 1318              		.loc 1 106 13 is_stmt 1 view .LVU404
 106:Lib/lvgl/src/misc/lv_anim.c **** 
 1319              		.loc 1 106 21 is_stmt 0 view .LVU405
 1320 004e E36A     		ldr	r3, [r4, #44]
 106:Lib/lvgl/src/misc/lv_anim.c **** 
 1321              		.loc 1 106 33 view .LVU406
 1322 0050 0344     		add	r3, r3, r0
 1323 0052 E362     		str	r3, [r4, #44]
 1324              	.LVL126:
 1325              	.L87:
 106:Lib/lvgl/src/misc/lv_anim.c **** 
 1326              		.loc 1 106 33 view .LVU407
 1327              	.LBE20:
 110:Lib/lvgl/src/misc/lv_anim.c **** 
 1328              		.loc 1 110 9 is_stmt 1 view .LVU408
 1329 0054 2046     		mov	r0, r4
 1330 0056 FFF7FEFF 		bl	resolve_time
 1331              	.LVL127:
 113:Lib/lvgl/src/misc/lv_anim.c **** 
 1332              		.loc 1 113 9 view .LVU409
 113:Lib/lvgl/src/misc/lv_anim.c **** 
 1333              		.loc 1 113 13 is_stmt 0 view .LVU410
 1334 005a 6B68     		ldr	r3, [r5, #4]
 113:Lib/lvgl/src/misc/lv_anim.c **** 
 1335              		.loc 1 113 11 view .LVU411
 1336 005c 9BB1     		cbz	r3, .L93
 1337              	.L88:
 113:Lib/lvgl/src/misc/lv_anim.c **** 
 1338              		.loc 1 113 45 is_stmt 1 discriminator 3 view .LVU412
 1339 005e 2046     		mov	r0, r4
ARM GAS  C:\Users\Alex\AppData\Local\Temp\ccbB2tth.s 			page 41


 1340 0060 FFF7FEFF 		bl	remove_concurrent_anims
 1341              	.LVL128:
 1342              	.L89:
 115:Lib/lvgl/src/misc/lv_anim.c ****             new_anim->exec_cb(new_anim->var, new_anim->start_value);
 1343              		.loc 1 115 9 view .LVU413
 115:Lib/lvgl/src/misc/lv_anim.c ****             new_anim->exec_cb(new_anim->var, new_anim->start_value);
 1344              		.loc 1 115 20 is_stmt 0 view .LVU414
 1345 0064 6368     		ldr	r3, [r4, #4]
 115:Lib/lvgl/src/misc/lv_anim.c ****             new_anim->exec_cb(new_anim->var, new_anim->start_value);
 1346              		.loc 1 115 11 view .LVU415
 1347 0066 13B1     		cbz	r3, .L90
 116:Lib/lvgl/src/misc/lv_anim.c ****         }
 1348              		.loc 1 116 13 is_stmt 1 view .LVU416
 1349 0068 616A     		ldr	r1, [r4, #36]
 1350 006a 2068     		ldr	r0, [r4]
 1351 006c 9847     		blx	r3
 1352              	.LVL129:
 1353              	.L90:
 118:Lib/lvgl/src/misc/lv_anim.c ****             new_anim->custom_exec_cb(new_anim, new_anim->start_value);
 1354              		.loc 1 118 9 view .LVU417
 118:Lib/lvgl/src/misc/lv_anim.c ****             new_anim->custom_exec_cb(new_anim, new_anim->start_value);
 1355              		.loc 1 118 20 is_stmt 0 view .LVU418
 1356 006e A368     		ldr	r3, [r4, #8]
 118:Lib/lvgl/src/misc/lv_anim.c ****             new_anim->custom_exec_cb(new_anim, new_anim->start_value);
 1357              		.loc 1 118 11 view .LVU419
 1358 0070 13B1     		cbz	r3, .L86
 119:Lib/lvgl/src/misc/lv_anim.c ****         }
 1359              		.loc 1 119 13 is_stmt 1 view .LVU420
 1360 0072 616A     		ldr	r1, [r4, #36]
 1361 0074 2046     		mov	r0, r4
 1362 0076 9847     		blx	r3
 1363              	.LVL130:
 1364              	.L86:
 125:Lib/lvgl/src/misc/lv_anim.c **** 
 1365              		.loc 1 125 5 view .LVU421
 1366 0078 FFF7FEFF 		bl	anim_mark_list_change
 1367              	.LVL131:
 127:Lib/lvgl/src/misc/lv_anim.c ****     return new_anim;
 1368              		.loc 1 127 30 view .LVU422
 128:Lib/lvgl/src/misc/lv_anim.c **** }
 1369              		.loc 1 128 5 view .LVU423
 129:Lib/lvgl/src/misc/lv_anim.c **** 
 1370              		.loc 1 129 1 is_stmt 0 view .LVU424
 1371 007c 2046     		mov	r0, r4
 1372 007e 38BD     		pop	{r3, r4, r5, pc}
 1373              	.LVL132:
 1374              	.L84:
  92:Lib/lvgl/src/misc/lv_anim.c ****     if(new_anim == NULL) return NULL;
 1375              		.loc 1 92 5 is_stmt 1 discriminator 1 view .LVU425
  92:Lib/lvgl/src/misc/lv_anim.c ****     if(new_anim == NULL) return NULL;
 1376              		.loc 1 92 5 discriminator 1 view .LVU426
  92:Lib/lvgl/src/misc/lv_anim.c ****     if(new_anim == NULL) return NULL;
 1377              		.loc 1 92 5 discriminator 1 view .LVU427
  92:Lib/lvgl/src/misc/lv_anim.c ****     if(new_anim == NULL) return NULL;
 1378              		.loc 1 92 5 discriminator 1 view .LVU428
  92:Lib/lvgl/src/misc/lv_anim.c ****     if(new_anim == NULL) return NULL;
 1379              		.loc 1 92 5 discriminator 1 view .LVU429
ARM GAS  C:\Users\Alex\AppData\Local\Temp\ccbB2tth.s 			page 42


 1380 0080 FEE7     		b	.L84
 1381              	.LVL133:
 1382              	.L92:
  97:Lib/lvgl/src/misc/lv_anim.c ****     new_anim->run_round = state.anim_run_round;
 1383              		.loc 1 97 21 discriminator 1 view .LVU430
  97:Lib/lvgl/src/misc/lv_anim.c ****     new_anim->run_round = state.anim_run_round;
 1384              		.loc 1 97 35 is_stmt 0 discriminator 1 view .LVU431
 1385 0082 2460     		str	r4, [r4]
 1386 0084 CBE7     		b	.L85
 1387              	.L93:
 113:Lib/lvgl/src/misc/lv_anim.c **** 
 1388              		.loc 1 113 27 discriminator 2 view .LVU432
 1389 0086 AB68     		ldr	r3, [r5, #8]
 113:Lib/lvgl/src/misc/lv_anim.c **** 
 1390              		.loc 1 113 23 discriminator 2 view .LVU433
 1391 0088 002B     		cmp	r3, #0
 1392 008a E8D1     		bne	.L88
 1393 008c EAE7     		b	.L89
 1394              	.L95:
 1395 008e 00BF     		.align	2
 1396              	.L94:
 1397 0090 B8000000 		.word	lv_global+184
 1398 0094 00000000 		.word	lv_global
 1399              		.cfi_endproc
 1400              	.LFE237:
 1402              		.section	.text.lv_anim_get_playtime,"ax",%progbits
 1403              		.align	1
 1404              		.global	lv_anim_get_playtime
 1405              		.syntax unified
 1406              		.thumb
 1407              		.thumb_func
 1409              	lv_anim_get_playtime:
 1410              	.LVL134:
 1411              	.LFB238:
 132:Lib/lvgl/src/misc/lv_anim.c ****     if(a->repeat_cnt == LV_ANIM_REPEAT_INFINITE) {
 1412              		.loc 1 132 1 is_stmt 1 view -0
 1413              		.cfi_startproc
 1414              		@ args = 0, pretend = 0, frame = 0
 1415              		@ frame_needed = 0, uses_anonymous_args = 0
 1416              		@ link register save eliminated.
 133:Lib/lvgl/src/misc/lv_anim.c ****         return LV_ANIM_PLAYTIME_INFINITE;
 1417              		.loc 1 133 5 view .LVU435
 133:Lib/lvgl/src/misc/lv_anim.c ****         return LV_ANIM_PLAYTIME_INFINITE;
 1418              		.loc 1 133 9 is_stmt 0 view .LVU436
 1419 0000 B0F84420 		ldrh	r2, [r0, #68]
 133:Lib/lvgl/src/misc/lv_anim.c ****         return LV_ANIM_PLAYTIME_INFINITE;
 1420              		.loc 1 133 7 view .LVU437
 1421 0004 4FF6FF73 		movw	r3, #65535
 1422 0008 9A42     		cmp	r2, r3
 1423 000a 09D0     		beq	.L98
 137:Lib/lvgl/src/misc/lv_anim.c ****     if(repeate_cnt < 1) repeate_cnt = 1;
 1424              		.loc 1 137 5 is_stmt 1 view .LVU438
 1425              	.LVL135:
 138:Lib/lvgl/src/misc/lv_anim.c **** 
 1426              		.loc 1 138 5 view .LVU439
 140:Lib/lvgl/src/misc/lv_anim.c ****     playtime = playtime * a->repeat_cnt;
 1427              		.loc 1 140 5 view .LVU440
ARM GAS  C:\Users\Alex\AppData\Local\Temp\ccbB2tth.s 			page 43


 140:Lib/lvgl/src/misc/lv_anim.c ****     playtime = playtime * a->repeat_cnt;
 1428              		.loc 1 140 26 is_stmt 0 view .LVU441
 1429 000c 036C     		ldr	r3, [r0, #64]
 140:Lib/lvgl/src/misc/lv_anim.c ****     playtime = playtime * a->repeat_cnt;
 1430              		.loc 1 140 44 view .LVU442
 1431 000e 016B     		ldr	r1, [r0, #48]
 140:Lib/lvgl/src/misc/lv_anim.c ****     playtime = playtime * a->repeat_cnt;
 1432              		.loc 1 140 41 view .LVU443
 1433 0010 0B44     		add	r3, r3, r1
 140:Lib/lvgl/src/misc/lv_anim.c ****     playtime = playtime * a->repeat_cnt;
 1434              		.loc 1 140 58 view .LVU444
 1435 0012 816B     		ldr	r1, [r0, #56]
 140:Lib/lvgl/src/misc/lv_anim.c ****     playtime = playtime * a->repeat_cnt;
 1436              		.loc 1 140 55 view .LVU445
 1437 0014 0B44     		add	r3, r3, r1
 140:Lib/lvgl/src/misc/lv_anim.c ****     playtime = playtime * a->repeat_cnt;
 1438              		.loc 1 140 78 view .LVU446
 1439 0016 C16B     		ldr	r1, [r0, #60]
 140:Lib/lvgl/src/misc/lv_anim.c ****     playtime = playtime * a->repeat_cnt;
 1440              		.loc 1 140 14 view .LVU447
 1441 0018 0B44     		add	r3, r3, r1
 1442              	.LVL136:
 141:Lib/lvgl/src/misc/lv_anim.c ****     return playtime;
 1443              		.loc 1 141 5 is_stmt 1 view .LVU448
 141:Lib/lvgl/src/misc/lv_anim.c ****     return playtime;
 1444              		.loc 1 141 14 is_stmt 0 view .LVU449
 1445 001a 03FB02F0 		mul	r0, r3, r2
 1446              	.LVL137:
 142:Lib/lvgl/src/misc/lv_anim.c **** }
 1447              		.loc 1 142 5 is_stmt 1 view .LVU450
 142:Lib/lvgl/src/misc/lv_anim.c **** }
 1448              		.loc 1 142 12 is_stmt 0 view .LVU451
 1449 001e 7047     		bx	lr
 1450              	.LVL138:
 1451              	.L98:
 134:Lib/lvgl/src/misc/lv_anim.c ****     }
 1452              		.loc 1 134 16 view .LVU452
 1453 0020 4FF0FF30 		mov	r0, #-1
 1454              	.LVL139:
 143:Lib/lvgl/src/misc/lv_anim.c **** 
 1455              		.loc 1 143 1 view .LVU453
 1456 0024 7047     		bx	lr
 1457              		.cfi_endproc
 1458              	.LFE238:
 1460              		.section	.text.lv_anim_delete,"ax",%progbits
 1461              		.align	1
 1462              		.global	lv_anim_delete
 1463              		.syntax unified
 1464              		.thumb
 1465              		.thumb_func
 1467              	lv_anim_delete:
 1468              	.LVL140:
 1469              	.LFB239:
 146:Lib/lvgl/src/misc/lv_anim.c ****     return delete_core(var, exec_cb, false);
 1470              		.loc 1 146 1 is_stmt 1 view -0
 1471              		.cfi_startproc
 1472              		@ args = 0, pretend = 0, frame = 0
ARM GAS  C:\Users\Alex\AppData\Local\Temp\ccbB2tth.s 			page 44


 1473              		@ frame_needed = 0, uses_anonymous_args = 0
 146:Lib/lvgl/src/misc/lv_anim.c ****     return delete_core(var, exec_cb, false);
 1474              		.loc 1 146 1 is_stmt 0 view .LVU455
 1475 0000 08B5     		push	{r3, lr}
 1476              	.LCFI15:
 1477              		.cfi_def_cfa_offset 8
 1478              		.cfi_offset 3, -8
 1479              		.cfi_offset 14, -4
 147:Lib/lvgl/src/misc/lv_anim.c **** }
 1480              		.loc 1 147 5 is_stmt 1 view .LVU456
 147:Lib/lvgl/src/misc/lv_anim.c **** }
 1481              		.loc 1 147 12 is_stmt 0 view .LVU457
 1482 0002 0022     		movs	r2, #0
 1483 0004 FFF7FEFF 		bl	delete_core
 1484              	.LVL141:
 148:Lib/lvgl/src/misc/lv_anim.c **** 
 1485              		.loc 1 148 1 view .LVU458
 1486 0008 08BD     		pop	{r3, pc}
 1487              		.cfi_endproc
 1488              	.LFE239:
 1490              		.section	.text.lv_anim_delete_all,"ax",%progbits
 1491              		.align	1
 1492              		.global	lv_anim_delete_all
 1493              		.syntax unified
 1494              		.thumb
 1495              		.thumb_func
 1497              	lv_anim_delete_all:
 1498              	.LFB240:
 151:Lib/lvgl/src/misc/lv_anim.c ****     _lv_ll_clear(anim_ll_p);
 1499              		.loc 1 151 1 is_stmt 1 view -0
 1500              		.cfi_startproc
 1501              		@ args = 0, pretend = 0, frame = 0
 1502              		@ frame_needed = 0, uses_anonymous_args = 0
 1503 0000 08B5     		push	{r3, lr}
 1504              	.LCFI16:
 1505              		.cfi_def_cfa_offset 8
 1506              		.cfi_offset 3, -8
 1507              		.cfi_offset 14, -4
 152:Lib/lvgl/src/misc/lv_anim.c ****     anim_mark_list_change();
 1508              		.loc 1 152 5 view .LVU460
 1509              	.LVL142:
 1510              	.LBB21:
 1511              	.LBI21:
 1512              		.file 3 "Lib/lvgl/src/misc/lv_ll.h"
   1:Lib/lvgl/src/misc/lv_ll.h **** /**
   2:Lib/lvgl/src/misc/lv_ll.h ****  * @file lv_ll.h
   3:Lib/lvgl/src/misc/lv_ll.h ****  * Handle linked lists. The nodes are dynamically allocated by the 'lv_mem' module.
   4:Lib/lvgl/src/misc/lv_ll.h ****  */
   5:Lib/lvgl/src/misc/lv_ll.h **** 
   6:Lib/lvgl/src/misc/lv_ll.h **** #ifndef LV_LL_H
   7:Lib/lvgl/src/misc/lv_ll.h **** #define LV_LL_H
   8:Lib/lvgl/src/misc/lv_ll.h **** 
   9:Lib/lvgl/src/misc/lv_ll.h **** #ifdef __cplusplus
  10:Lib/lvgl/src/misc/lv_ll.h **** extern "C" {
  11:Lib/lvgl/src/misc/lv_ll.h **** #endif
  12:Lib/lvgl/src/misc/lv_ll.h **** 
  13:Lib/lvgl/src/misc/lv_ll.h **** /*********************
ARM GAS  C:\Users\Alex\AppData\Local\Temp\ccbB2tth.s 			page 45


  14:Lib/lvgl/src/misc/lv_ll.h ****  *      INCLUDES
  15:Lib/lvgl/src/misc/lv_ll.h ****  *********************/
  16:Lib/lvgl/src/misc/lv_ll.h **** #include <stdint.h>
  17:Lib/lvgl/src/misc/lv_ll.h **** #include <stddef.h>
  18:Lib/lvgl/src/misc/lv_ll.h **** #include <stdbool.h>
  19:Lib/lvgl/src/misc/lv_ll.h **** 
  20:Lib/lvgl/src/misc/lv_ll.h **** /*********************
  21:Lib/lvgl/src/misc/lv_ll.h ****  *      DEFINES
  22:Lib/lvgl/src/misc/lv_ll.h ****  *********************/
  23:Lib/lvgl/src/misc/lv_ll.h **** 
  24:Lib/lvgl/src/misc/lv_ll.h **** /**********************
  25:Lib/lvgl/src/misc/lv_ll.h ****  *      TYPEDEFS
  26:Lib/lvgl/src/misc/lv_ll.h ****  **********************/
  27:Lib/lvgl/src/misc/lv_ll.h **** 
  28:Lib/lvgl/src/misc/lv_ll.h **** /** Dummy type to make handling easier*/
  29:Lib/lvgl/src/misc/lv_ll.h **** typedef uint8_t lv_ll_node_t;
  30:Lib/lvgl/src/misc/lv_ll.h **** 
  31:Lib/lvgl/src/misc/lv_ll.h **** /** Description of a linked list*/
  32:Lib/lvgl/src/misc/lv_ll.h **** typedef struct {
  33:Lib/lvgl/src/misc/lv_ll.h ****     uint32_t n_size;
  34:Lib/lvgl/src/misc/lv_ll.h ****     lv_ll_node_t * head;
  35:Lib/lvgl/src/misc/lv_ll.h ****     lv_ll_node_t * tail;
  36:Lib/lvgl/src/misc/lv_ll.h **** } lv_ll_t;
  37:Lib/lvgl/src/misc/lv_ll.h **** 
  38:Lib/lvgl/src/misc/lv_ll.h **** /**********************
  39:Lib/lvgl/src/misc/lv_ll.h ****  * GLOBAL PROTOTYPES
  40:Lib/lvgl/src/misc/lv_ll.h ****  **********************/
  41:Lib/lvgl/src/misc/lv_ll.h **** 
  42:Lib/lvgl/src/misc/lv_ll.h **** /**
  43:Lib/lvgl/src/misc/lv_ll.h ****  * Initialize linked list
  44:Lib/lvgl/src/misc/lv_ll.h ****  * @param ll_p pointer to lv_ll_t variable
  45:Lib/lvgl/src/misc/lv_ll.h ****  * @param node_size the size of 1 node in bytes
  46:Lib/lvgl/src/misc/lv_ll.h ****  */
  47:Lib/lvgl/src/misc/lv_ll.h **** void _lv_ll_init(lv_ll_t * ll_p, uint32_t node_size);
  48:Lib/lvgl/src/misc/lv_ll.h **** 
  49:Lib/lvgl/src/misc/lv_ll.h **** /**
  50:Lib/lvgl/src/misc/lv_ll.h ****  * Add a new head to a linked list
  51:Lib/lvgl/src/misc/lv_ll.h ****  * @param ll_p pointer to linked list
  52:Lib/lvgl/src/misc/lv_ll.h ****  * @return pointer to the new head
  53:Lib/lvgl/src/misc/lv_ll.h ****  */
  54:Lib/lvgl/src/misc/lv_ll.h **** void * _lv_ll_ins_head(lv_ll_t * ll_p);
  55:Lib/lvgl/src/misc/lv_ll.h **** 
  56:Lib/lvgl/src/misc/lv_ll.h **** /**
  57:Lib/lvgl/src/misc/lv_ll.h ****  * Insert a new node in front of the n_act node
  58:Lib/lvgl/src/misc/lv_ll.h ****  * @param ll_p pointer to linked list
  59:Lib/lvgl/src/misc/lv_ll.h ****  * @param n_act pointer a node
  60:Lib/lvgl/src/misc/lv_ll.h ****  * @return pointer to the new node
  61:Lib/lvgl/src/misc/lv_ll.h ****  */
  62:Lib/lvgl/src/misc/lv_ll.h **** void * _lv_ll_ins_prev(lv_ll_t * ll_p, void * n_act);
  63:Lib/lvgl/src/misc/lv_ll.h **** 
  64:Lib/lvgl/src/misc/lv_ll.h **** /**
  65:Lib/lvgl/src/misc/lv_ll.h ****  * Add a new tail to a linked list
  66:Lib/lvgl/src/misc/lv_ll.h ****  * @param ll_p pointer to linked list
  67:Lib/lvgl/src/misc/lv_ll.h ****  * @return pointer to the new tail
  68:Lib/lvgl/src/misc/lv_ll.h ****  */
  69:Lib/lvgl/src/misc/lv_ll.h **** void * _lv_ll_ins_tail(lv_ll_t * ll_p);
  70:Lib/lvgl/src/misc/lv_ll.h **** 
ARM GAS  C:\Users\Alex\AppData\Local\Temp\ccbB2tth.s 			page 46


  71:Lib/lvgl/src/misc/lv_ll.h **** /**
  72:Lib/lvgl/src/misc/lv_ll.h ****  * Remove the node 'node_p' from 'll_p' linked list.
  73:Lib/lvgl/src/misc/lv_ll.h ****  * It does not free the memory of node.
  74:Lib/lvgl/src/misc/lv_ll.h ****  * @param ll_p pointer to the linked list of 'node_p'
  75:Lib/lvgl/src/misc/lv_ll.h ****  * @param node_p pointer to node in 'll_p' linked list
  76:Lib/lvgl/src/misc/lv_ll.h ****  */
  77:Lib/lvgl/src/misc/lv_ll.h **** void _lv_ll_remove(lv_ll_t * ll_p, void * node_p);
  78:Lib/lvgl/src/misc/lv_ll.h **** 
  79:Lib/lvgl/src/misc/lv_ll.h **** void _lv_ll_clear_custom(lv_ll_t * ll_p, void(*cleanup)(void *));
  80:Lib/lvgl/src/misc/lv_ll.h **** 
  81:Lib/lvgl/src/misc/lv_ll.h **** /**
  82:Lib/lvgl/src/misc/lv_ll.h ****  * Remove and free all elements from a linked list. The list remain valid but become empty.
  83:Lib/lvgl/src/misc/lv_ll.h ****  * @param ll_p pointer to linked list
  84:Lib/lvgl/src/misc/lv_ll.h ****  */
  85:Lib/lvgl/src/misc/lv_ll.h **** static inline void _lv_ll_clear(lv_ll_t * ll_p)
 1513              		.loc 3 85 20 view .LVU461
 1514              	.LBB22:
  86:Lib/lvgl/src/misc/lv_ll.h **** {
  87:Lib/lvgl/src/misc/lv_ll.h ****     _lv_ll_clear_custom(ll_p, NULL);
 1515              		.loc 3 87 5 view .LVU462
 1516 0002 0021     		movs	r1, #0
 1517 0004 0248     		ldr	r0, .L103
 1518              	.LVL143:
 1519              		.loc 3 87 5 is_stmt 0 view .LVU463
 1520 0006 FFF7FEFF 		bl	_lv_ll_clear_custom
 1521              	.LVL144:
 1522              		.loc 3 87 5 view .LVU464
 1523              	.LBE22:
 1524              	.LBE21:
 153:Lib/lvgl/src/misc/lv_anim.c **** }
 1525              		.loc 1 153 5 is_stmt 1 view .LVU465
 1526 000a FFF7FEFF 		bl	anim_mark_list_change
 1527              	.LVL145:
 154:Lib/lvgl/src/misc/lv_anim.c **** 
 1528              		.loc 1 154 1 is_stmt 0 view .LVU466
 1529 000e 08BD     		pop	{r3, pc}
 1530              	.L104:
 1531              		.align	2
 1532              	.L103:
 1533 0010 B8000000 		.word	lv_global+184
 1534              		.cfi_endproc
 1535              	.LFE240:
 1537              		.section	.text._lv_anim_core_deinit,"ax",%progbits
 1538              		.align	1
 1539              		.global	_lv_anim_core_deinit
 1540              		.syntax unified
 1541              		.thumb
 1542              		.thumb_func
 1544              	_lv_anim_core_deinit:
 1545              	.LFB235:
  71:Lib/lvgl/src/misc/lv_anim.c ****     lv_anim_delete_all();
 1546              		.loc 1 71 1 is_stmt 1 view -0
 1547              		.cfi_startproc
 1548              		@ args = 0, pretend = 0, frame = 0
 1549              		@ frame_needed = 0, uses_anonymous_args = 0
 1550 0000 08B5     		push	{r3, lr}
 1551              	.LCFI17:
ARM GAS  C:\Users\Alex\AppData\Local\Temp\ccbB2tth.s 			page 47


 1552              		.cfi_def_cfa_offset 8
 1553              		.cfi_offset 3, -8
 1554              		.cfi_offset 14, -4
  72:Lib/lvgl/src/misc/lv_anim.c **** }
 1555              		.loc 1 72 5 view .LVU468
 1556 0002 FFF7FEFF 		bl	lv_anim_delete_all
 1557              	.LVL146:
  73:Lib/lvgl/src/misc/lv_anim.c **** 
 1558              		.loc 1 73 1 is_stmt 0 view .LVU469
 1559 0006 08BD     		pop	{r3, pc}
 1560              		.cfi_endproc
 1561              	.LFE235:
 1563              		.section	.text.lv_anim_get,"ax",%progbits
 1564              		.align	1
 1565              		.global	lv_anim_get
 1566              		.syntax unified
 1567              		.thumb
 1568              		.thumb_func
 1570              	lv_anim_get:
 1571              	.LVL147:
 1572              	.LFB241:
 157:Lib/lvgl/src/misc/lv_anim.c ****     lv_anim_t * a;
 1573              		.loc 1 157 1 is_stmt 1 view -0
 1574              		.cfi_startproc
 1575              		@ args = 0, pretend = 0, frame = 0
 1576              		@ frame_needed = 0, uses_anonymous_args = 0
 157:Lib/lvgl/src/misc/lv_anim.c ****     lv_anim_t * a;
 1577              		.loc 1 157 1 is_stmt 0 view .LVU471
 1578 0000 38B5     		push	{r3, r4, r5, lr}
 1579              	.LCFI18:
 1580              		.cfi_def_cfa_offset 16
 1581              		.cfi_offset 3, -16
 1582              		.cfi_offset 4, -12
 1583              		.cfi_offset 5, -8
 1584              		.cfi_offset 14, -4
 1585 0002 0446     		mov	r4, r0
 1586 0004 0D46     		mov	r5, r1
 158:Lib/lvgl/src/misc/lv_anim.c ****     _LV_LL_READ(anim_ll_p, a) {
 1587              		.loc 1 158 5 is_stmt 1 view .LVU472
 159:Lib/lvgl/src/misc/lv_anim.c ****         if(a->var == var && (a->exec_cb == exec_cb || exec_cb == NULL)) {
 1588              		.loc 1 159 5 view .LVU473
 1589 0006 0A48     		ldr	r0, .L113
 1590              	.LVL148:
 159:Lib/lvgl/src/misc/lv_anim.c ****         if(a->var == var && (a->exec_cb == exec_cb || exec_cb == NULL)) {
 1591              		.loc 1 159 5 is_stmt 0 view .LVU474
 1592 0008 FFF7FEFF 		bl	_lv_ll_get_head
 1593              	.LVL149:
 159:Lib/lvgl/src/misc/lv_anim.c ****         if(a->var == var && (a->exec_cb == exec_cb || exec_cb == NULL)) {
 1594              		.loc 1 159 5 view .LVU475
 1595 000c 0146     		mov	r1, r0
 1596              	.LVL150:
 159:Lib/lvgl/src/misc/lv_anim.c ****         if(a->var == var && (a->exec_cb == exec_cb || exec_cb == NULL)) {
 1597              		.loc 1 159 5 view .LVU476
 1598 000e 03E0     		b	.L108
 1599              	.L109:
 159:Lib/lvgl/src/misc/lv_anim.c ****         if(a->var == var && (a->exec_cb == exec_cb || exec_cb == NULL)) {
 1600              		.loc 1 159 5 is_stmt 1 discriminator 2 view .LVU477
ARM GAS  C:\Users\Alex\AppData\Local\Temp\ccbB2tth.s 			page 48


 1601 0010 0748     		ldr	r0, .L113
 1602              	.LVL151:
 159:Lib/lvgl/src/misc/lv_anim.c ****         if(a->var == var && (a->exec_cb == exec_cb || exec_cb == NULL)) {
 1603              		.loc 1 159 5 is_stmt 0 discriminator 2 view .LVU478
 1604 0012 FFF7FEFF 		bl	_lv_ll_get_next
 1605              	.LVL152:
 159:Lib/lvgl/src/misc/lv_anim.c ****         if(a->var == var && (a->exec_cb == exec_cb || exec_cb == NULL)) {
 1606              		.loc 1 159 5 discriminator 2 view .LVU479
 1607 0016 0146     		mov	r1, r0
 1608              	.LVL153:
 1609              	.L108:
 159:Lib/lvgl/src/misc/lv_anim.c ****         if(a->var == var && (a->exec_cb == exec_cb || exec_cb == NULL)) {
 1610              		.loc 1 159 5 is_stmt 1 discriminator 1 view .LVU480
 1611 0018 39B1     		cbz	r1, .L107
 160:Lib/lvgl/src/misc/lv_anim.c ****             return a;
 1612              		.loc 1 160 9 view .LVU481
 160:Lib/lvgl/src/misc/lv_anim.c ****             return a;
 1613              		.loc 1 160 13 is_stmt 0 view .LVU482
 1614 001a 0B68     		ldr	r3, [r1]
 160:Lib/lvgl/src/misc/lv_anim.c ****             return a;
 1615              		.loc 1 160 11 view .LVU483
 1616 001c A342     		cmp	r3, r4
 1617 001e F7D1     		bne	.L109
 160:Lib/lvgl/src/misc/lv_anim.c ****             return a;
 1618              		.loc 1 160 31 discriminator 1 view .LVU484
 1619 0020 4B68     		ldr	r3, [r1, #4]
 160:Lib/lvgl/src/misc/lv_anim.c ****             return a;
 1620              		.loc 1 160 26 discriminator 1 view .LVU485
 1621 0022 AB42     		cmp	r3, r5
 1622 0024 01D0     		beq	.L107
 160:Lib/lvgl/src/misc/lv_anim.c ****             return a;
 1623              		.loc 1 160 52 discriminator 2 view .LVU486
 1624 0026 002D     		cmp	r5, #0
 1625 0028 F2D1     		bne	.L109
 1626              	.L107:
 166:Lib/lvgl/src/misc/lv_anim.c **** 
 1627              		.loc 1 166 1 view .LVU487
 1628 002a 0846     		mov	r0, r1
 1629              	.LVL154:
 166:Lib/lvgl/src/misc/lv_anim.c **** 
 1630              		.loc 1 166 1 view .LVU488
 1631 002c 38BD     		pop	{r3, r4, r5, pc}
 1632              	.LVL155:
 1633              	.L114:
 166:Lib/lvgl/src/misc/lv_anim.c **** 
 1634              		.loc 1 166 1 view .LVU489
 1635 002e 00BF     		.align	2
 1636              	.L113:
 1637 0030 B8000000 		.word	lv_global+184
 1638              		.cfi_endproc
 1639              	.LFE241:
 1641              		.section	.text.lv_anim_get_timer,"ax",%progbits
 1642              		.align	1
 1643              		.global	lv_anim_get_timer
 1644              		.syntax unified
 1645              		.thumb
 1646              		.thumb_func
ARM GAS  C:\Users\Alex\AppData\Local\Temp\ccbB2tth.s 			page 49


 1648              	lv_anim_get_timer:
 1649              	.LFB242:
 169:Lib/lvgl/src/misc/lv_anim.c ****     return state.timer;
 1650              		.loc 1 169 1 is_stmt 1 view -0
 1651              		.cfi_startproc
 1652              		@ args = 0, pretend = 0, frame = 0
 1653              		@ frame_needed = 0, uses_anonymous_args = 0
 1654              		@ link register save eliminated.
 170:Lib/lvgl/src/misc/lv_anim.c **** }
 1655              		.loc 1 170 5 view .LVU491
 171:Lib/lvgl/src/misc/lv_anim.c **** 
 1656              		.loc 1 171 1 is_stmt 0 view .LVU492
 1657 0000 014B     		ldr	r3, .L116
 1658 0002 D3F8B400 		ldr	r0, [r3, #180]
 1659 0006 7047     		bx	lr
 1660              	.L117:
 1661              		.align	2
 1662              	.L116:
 1663 0008 00000000 		.word	lv_global
 1664              		.cfi_endproc
 1665              	.LFE242:
 1667              		.section	.text.lv_anim_count_running,"ax",%progbits
 1668              		.align	1
 1669              		.global	lv_anim_count_running
 1670              		.syntax unified
 1671              		.thumb
 1672              		.thumb_func
 1674              	lv_anim_count_running:
 1675              	.LFB243:
 174:Lib/lvgl/src/misc/lv_anim.c ****     uint16_t cnt = 0;
 1676              		.loc 1 174 1 is_stmt 1 view -0
 1677              		.cfi_startproc
 1678              		@ args = 0, pretend = 0, frame = 0
 1679              		@ frame_needed = 0, uses_anonymous_args = 0
 1680 0000 10B5     		push	{r4, lr}
 1681              	.LCFI19:
 1682              		.cfi_def_cfa_offset 8
 1683              		.cfi_offset 4, -8
 1684              		.cfi_offset 14, -4
 175:Lib/lvgl/src/misc/lv_anim.c ****     lv_anim_t * a;
 1685              		.loc 1 175 5 view .LVU494
 1686              	.LVL156:
 176:Lib/lvgl/src/misc/lv_anim.c ****     _LV_LL_READ(anim_ll_p, a) cnt++;
 1687              		.loc 1 176 5 view .LVU495
 177:Lib/lvgl/src/misc/lv_anim.c **** 
 1688              		.loc 1 177 5 view .LVU496
 1689 0002 0848     		ldr	r0, .L122
 1690 0004 FFF7FEFF 		bl	_lv_ll_get_head
 1691              	.LVL157:
 1692 0008 0146     		mov	r1, r0
 1693              	.LVL158:
 175:Lib/lvgl/src/misc/lv_anim.c ****     lv_anim_t * a;
 1694              		.loc 1 175 14 is_stmt 0 view .LVU497
 1695 000a 0024     		movs	r4, #0
 177:Lib/lvgl/src/misc/lv_anim.c **** 
 1696              		.loc 1 177 5 view .LVU498
 1697 000c 05E0     		b	.L119
ARM GAS  C:\Users\Alex\AppData\Local\Temp\ccbB2tth.s 			page 50


 1698              	.LVL159:
 1699              	.L120:
 177:Lib/lvgl/src/misc/lv_anim.c **** 
 1700              		.loc 1 177 31 is_stmt 1 discriminator 3 view .LVU499
 177:Lib/lvgl/src/misc/lv_anim.c **** 
 1701              		.loc 1 177 34 is_stmt 0 discriminator 3 view .LVU500
 1702 000e 0134     		adds	r4, r4, #1
 1703              	.LVL160:
 177:Lib/lvgl/src/misc/lv_anim.c **** 
 1704              		.loc 1 177 34 discriminator 3 view .LVU501
 1705 0010 A4B2     		uxth	r4, r4
 1706              	.LVL161:
 177:Lib/lvgl/src/misc/lv_anim.c **** 
 1707              		.loc 1 177 5 is_stmt 1 discriminator 3 view .LVU502
 1708 0012 0448     		ldr	r0, .L122
 1709              	.LVL162:
 177:Lib/lvgl/src/misc/lv_anim.c **** 
 1710              		.loc 1 177 5 is_stmt 0 discriminator 3 view .LVU503
 1711 0014 FFF7FEFF 		bl	_lv_ll_get_next
 1712              	.LVL163:
 177:Lib/lvgl/src/misc/lv_anim.c **** 
 1713              		.loc 1 177 5 discriminator 3 view .LVU504
 1714 0018 0146     		mov	r1, r0
 1715              	.LVL164:
 1716              	.L119:
 177:Lib/lvgl/src/misc/lv_anim.c **** 
 1717              		.loc 1 177 5 is_stmt 1 discriminator 1 view .LVU505
 1718 001a 0029     		cmp	r1, #0
 1719 001c F7D1     		bne	.L120
 179:Lib/lvgl/src/misc/lv_anim.c **** }
 1720              		.loc 1 179 5 view .LVU506
 180:Lib/lvgl/src/misc/lv_anim.c **** 
 1721              		.loc 1 180 1 is_stmt 0 view .LVU507
 1722 001e 2046     		mov	r0, r4
 1723              	.LVL165:
 180:Lib/lvgl/src/misc/lv_anim.c **** 
 1724              		.loc 1 180 1 view .LVU508
 1725 0020 10BD     		pop	{r4, pc}
 1726              	.LVL166:
 1727              	.L123:
 180:Lib/lvgl/src/misc/lv_anim.c **** 
 1728              		.loc 1 180 1 view .LVU509
 1729 0022 00BF     		.align	2
 1730              	.L122:
 1731 0024 B8000000 		.word	lv_global+184
 1732              		.cfi_endproc
 1733              	.LFE243:
 1735              		.section	.text.lv_anim_speed_clamped,"ax",%progbits
 1736              		.align	1
 1737              		.global	lv_anim_speed_clamped
 1738              		.syntax unified
 1739              		.thumb
 1740              		.thumb_func
 1742              	lv_anim_speed_clamped:
 1743              	.LVL167:
 1744              	.LFB244:
 183:Lib/lvgl/src/misc/lv_anim.c **** 
ARM GAS  C:\Users\Alex\AppData\Local\Temp\ccbB2tth.s 			page 51


 1745              		.loc 1 183 1 is_stmt 1 view -0
 1746              		.cfi_startproc
 1747              		@ args = 0, pretend = 0, frame = 0
 1748              		@ frame_needed = 0, uses_anonymous_args = 0
 1749              		@ link register save eliminated.
 185:Lib/lvgl/src/misc/lv_anim.c ****         LV_LOG_WARN("speed is truncated to 10000 (was %"LV_PRIu32")", speed);
 1750              		.loc 1 185 5 view .LVU511
 185:Lib/lvgl/src/misc/lv_anim.c ****         LV_LOG_WARN("speed is truncated to 10000 (was %"LV_PRIu32")", speed);
 1751              		.loc 1 185 7 is_stmt 0 view .LVU512
 1752 0000 42F21073 		movw	r3, #10000
 1753 0004 9842     		cmp	r0, r3
 1754 0006 01D9     		bls	.L125
 187:Lib/lvgl/src/misc/lv_anim.c ****     }
 1755              		.loc 1 187 15 view .LVU513
 1756 0008 42F2F670 		movw	r0, #10230
 1757              	.LVL168:
 1758              	.L125:
 189:Lib/lvgl/src/misc/lv_anim.c ****         LV_LOG_WARN("min_time is truncated to 10000 (was %"LV_PRIu32")", min_time);
 1759              		.loc 1 189 5 is_stmt 1 view .LVU514
 189:Lib/lvgl/src/misc/lv_anim.c ****         LV_LOG_WARN("min_time is truncated to 10000 (was %"LV_PRIu32")", min_time);
 1760              		.loc 1 189 7 is_stmt 0 view .LVU515
 1761 000c 42F21073 		movw	r3, #10000
 1762 0010 9942     		cmp	r1, r3
 1763 0012 01D9     		bls	.L126
 191:Lib/lvgl/src/misc/lv_anim.c ****     }
 1764              		.loc 1 191 18 view .LVU516
 1765 0014 42F2F671 		movw	r1, #10230
 1766              	.LVL169:
 1767              	.L126:
 193:Lib/lvgl/src/misc/lv_anim.c ****         LV_LOG_WARN("max_time is truncated to 10000 (was %"LV_PRIu32")", max_time);
 1768              		.loc 1 193 5 is_stmt 1 view .LVU517
 193:Lib/lvgl/src/misc/lv_anim.c ****         LV_LOG_WARN("max_time is truncated to 10000 (was %"LV_PRIu32")", max_time);
 1769              		.loc 1 193 7 is_stmt 0 view .LVU518
 1770 0018 42F21073 		movw	r3, #10000
 1771 001c 9A42     		cmp	r2, r3
 1772 001e 01D9     		bls	.L127
 195:Lib/lvgl/src/misc/lv_anim.c ****     }
 1773              		.loc 1 195 18 view .LVU519
 1774 0020 42F2F672 		movw	r2, #10230
 1775              	.LVL170:
 1776              	.L127:
 199:Lib/lvgl/src/misc/lv_anim.c ****     min_time = (min_time + 5) / 10;
 1777              		.loc 1 199 5 is_stmt 1 view .LVU520
 199:Lib/lvgl/src/misc/lv_anim.c ****     min_time = (min_time + 5) / 10;
 1778              		.loc 1 199 20 is_stmt 0 view .LVU521
 1779 0024 0530     		adds	r0, r0, #5
 1780              	.LVL171:
 199:Lib/lvgl/src/misc/lv_anim.c ****     min_time = (min_time + 5) / 10;
 1781              		.loc 1 199 11 view .LVU522
 1782 0026 094B     		ldr	r3, .L131
 1783 0028 A3FB000C 		umull	r0, ip, r3, r0
 1784              	.LVL172:
 200:Lib/lvgl/src/misc/lv_anim.c ****     max_time = (max_time + 5) / 10;
 1785              		.loc 1 200 5 is_stmt 1 view .LVU523
 200:Lib/lvgl/src/misc/lv_anim.c ****     max_time = (max_time + 5) / 10;
 1786              		.loc 1 200 26 is_stmt 0 view .LVU524
 1787 002c 481D     		adds	r0, r1, #5
ARM GAS  C:\Users\Alex\AppData\Local\Temp\ccbB2tth.s 			page 52


 200:Lib/lvgl/src/misc/lv_anim.c ****     max_time = (max_time + 5) / 10;
 1788              		.loc 1 200 14 view .LVU525
 1789 002e A3FB0010 		umull	r1, r0, r3, r0
 1790              	.LVL173:
 200:Lib/lvgl/src/misc/lv_anim.c ****     max_time = (max_time + 5) / 10;
 1791              		.loc 1 200 14 view .LVU526
 1792 0032 C008     		lsrs	r0, r0, #3
 1793              	.LVL174:
 201:Lib/lvgl/src/misc/lv_anim.c **** 
 1794              		.loc 1 201 5 is_stmt 1 view .LVU527
 201:Lib/lvgl/src/misc/lv_anim.c **** 
 1795              		.loc 1 201 26 is_stmt 0 view .LVU528
 1796 0034 0532     		adds	r2, r2, #5
 1797              	.LVL175:
 201:Lib/lvgl/src/misc/lv_anim.c **** 
 1798              		.loc 1 201 14 view .LVU529
 1799 0036 A3FB0232 		umull	r3, r2, r3, r2
 1800              	.LVL176:
 201:Lib/lvgl/src/misc/lv_anim.c **** 
 1801              		.loc 1 201 14 view .LVU530
 1802 003a D208     		lsrs	r2, r2, #3
 1803              	.LVL177:
 203:Lib/lvgl/src/misc/lv_anim.c **** 
 1804              		.loc 1 203 5 is_stmt 1 view .LVU531
 203:Lib/lvgl/src/misc/lv_anim.c **** 
 1805              		.loc 1 203 54 is_stmt 0 view .LVU532
 1806 003c 8002     		lsls	r0, r0, #10
 1807              	.LVL178:
 203:Lib/lvgl/src/misc/lv_anim.c **** 
 1808              		.loc 1 203 42 view .LVU533
 1809 003e 00EB0250 		add	r0, r0, r2, lsl #20
 203:Lib/lvgl/src/misc/lv_anim.c **** 
 1810              		.loc 1 203 61 view .LVU534
 1811 0042 00EBDC00 		add	r0, r0, ip, lsr #3
 205:Lib/lvgl/src/misc/lv_anim.c **** 
 1812              		.loc 1 205 1 view .LVU535
 1813 0046 00F10040 		add	r0, r0, #-2147483648
 1814 004a 7047     		bx	lr
 1815              	.L132:
 1816              		.align	2
 1817              	.L131:
 1818 004c CDCCCCCC 		.word	-858993459
 1819              		.cfi_endproc
 1820              	.LFE244:
 1822              		.section	.text.lv_anim_speed,"ax",%progbits
 1823              		.align	1
 1824              		.global	lv_anim_speed
 1825              		.syntax unified
 1826              		.thumb
 1827              		.thumb_func
 1829              	lv_anim_speed:
 1830              	.LVL179:
 1831              	.LFB245:
 208:Lib/lvgl/src/misc/lv_anim.c ****     return lv_anim_speed_clamped(speed, 0, 10000);
 1832              		.loc 1 208 1 is_stmt 1 view -0
 1833              		.cfi_startproc
 1834              		@ args = 0, pretend = 0, frame = 0
ARM GAS  C:\Users\Alex\AppData\Local\Temp\ccbB2tth.s 			page 53


 1835              		@ frame_needed = 0, uses_anonymous_args = 0
 208:Lib/lvgl/src/misc/lv_anim.c ****     return lv_anim_speed_clamped(speed, 0, 10000);
 1836              		.loc 1 208 1 is_stmt 0 view .LVU537
 1837 0000 08B5     		push	{r3, lr}
 1838              	.LCFI20:
 1839              		.cfi_def_cfa_offset 8
 1840              		.cfi_offset 3, -8
 1841              		.cfi_offset 14, -4
 209:Lib/lvgl/src/misc/lv_anim.c **** }
 1842              		.loc 1 209 5 is_stmt 1 view .LVU538
 209:Lib/lvgl/src/misc/lv_anim.c **** }
 1843              		.loc 1 209 12 is_stmt 0 view .LVU539
 1844 0002 42F21072 		movw	r2, #10000
 1845 0006 0021     		movs	r1, #0
 1846 0008 FFF7FEFF 		bl	lv_anim_speed_clamped
 1847              	.LVL180:
 210:Lib/lvgl/src/misc/lv_anim.c **** 
 1848              		.loc 1 210 1 view .LVU540
 1849 000c 08BD     		pop	{r3, pc}
 1850              		.cfi_endproc
 1851              	.LFE245:
 1853              		.section	.text.lv_anim_refr_now,"ax",%progbits
 1854              		.align	1
 1855              		.global	lv_anim_refr_now
 1856              		.syntax unified
 1857              		.thumb
 1858              		.thumb_func
 1860              	lv_anim_refr_now:
 1861              	.LFB246:
 213:Lib/lvgl/src/misc/lv_anim.c ****     anim_timer(NULL);
 1862              		.loc 1 213 1 is_stmt 1 view -0
 1863              		.cfi_startproc
 1864              		@ args = 0, pretend = 0, frame = 0
 1865              		@ frame_needed = 0, uses_anonymous_args = 0
 1866 0000 08B5     		push	{r3, lr}
 1867              	.LCFI21:
 1868              		.cfi_def_cfa_offset 8
 1869              		.cfi_offset 3, -8
 1870              		.cfi_offset 14, -4
 214:Lib/lvgl/src/misc/lv_anim.c **** }
 1871              		.loc 1 214 5 view .LVU542
 1872 0002 0020     		movs	r0, #0
 1873 0004 FFF7FEFF 		bl	anim_timer
 1874              	.LVL181:
 215:Lib/lvgl/src/misc/lv_anim.c **** 
 1875              		.loc 1 215 1 is_stmt 0 view .LVU543
 1876 0008 08BD     		pop	{r3, pc}
 1877              		.cfi_endproc
 1878              	.LFE246:
 1880              		.section	.text.lv_anim_path_ease_in,"ax",%progbits
 1881              		.align	1
 1882              		.global	lv_anim_path_ease_in
 1883              		.syntax unified
 1884              		.thumb
 1885              		.thumb_func
 1887              	lv_anim_path_ease_in:
 1888              	.LVL182:
ARM GAS  C:\Users\Alex\AppData\Local\Temp\ccbB2tth.s 			page 54


 1889              	.LFB248:
 233:Lib/lvgl/src/misc/lv_anim.c ****     return lv_anim_path_cubic_bezier(a, LV_BEZIER_VAL_FLOAT(0.42), LV_BEZIER_VAL_FLOAT(0),
 1890              		.loc 1 233 1 is_stmt 1 view -0
 1891              		.cfi_startproc
 1892              		@ args = 0, pretend = 0, frame = 0
 1893              		@ frame_needed = 0, uses_anonymous_args = 0
 233:Lib/lvgl/src/misc/lv_anim.c ****     return lv_anim_path_cubic_bezier(a, LV_BEZIER_VAL_FLOAT(0.42), LV_BEZIER_VAL_FLOAT(0),
 1894              		.loc 1 233 1 is_stmt 0 view .LVU545
 1895 0000 00B5     		push	{lr}
 1896              	.LCFI22:
 1897              		.cfi_def_cfa_offset 4
 1898              		.cfi_offset 14, -4
 1899 0002 83B0     		sub	sp, sp, #12
 1900              	.LCFI23:
 1901              		.cfi_def_cfa_offset 16
 234:Lib/lvgl/src/misc/lv_anim.c ****                                      LV_BEZIER_VAL_FLOAT(1), LV_BEZIER_VAL_FLOAT(1));
 1902              		.loc 1 234 5 is_stmt 1 view .LVU546
 234:Lib/lvgl/src/misc/lv_anim.c ****                                      LV_BEZIER_VAL_FLOAT(1), LV_BEZIER_VAL_FLOAT(1));
 1903              		.loc 1 234 12 is_stmt 0 view .LVU547
 1904 0004 4FF48063 		mov	r3, #1024
 1905 0008 0093     		str	r3, [sp]
 1906 000a 0022     		movs	r2, #0
 1907 000c 4FF4D771 		mov	r1, #430
 1908 0010 FFF7FEFF 		bl	lv_anim_path_cubic_bezier
 1909              	.LVL183:
 236:Lib/lvgl/src/misc/lv_anim.c **** 
 1910              		.loc 1 236 1 view .LVU548
 1911 0014 03B0     		add	sp, sp, #12
 1912              	.LCFI24:
 1913              		.cfi_def_cfa_offset 4
 1914              		@ sp needed
 1915 0016 5DF804FB 		ldr	pc, [sp], #4
 1916              		.cfi_endproc
 1917              	.LFE248:
 1919              		.section	.text.lv_anim_path_ease_out,"ax",%progbits
 1920              		.align	1
 1921              		.global	lv_anim_path_ease_out
 1922              		.syntax unified
 1923              		.thumb
 1924              		.thumb_func
 1926              	lv_anim_path_ease_out:
 1927              	.LVL184:
 1928              	.LFB249:
 239:Lib/lvgl/src/misc/lv_anim.c ****     return lv_anim_path_cubic_bezier(a, LV_BEZIER_VAL_FLOAT(0), LV_BEZIER_VAL_FLOAT(0),
 1929              		.loc 1 239 1 is_stmt 1 view -0
 1930              		.cfi_startproc
 1931              		@ args = 0, pretend = 0, frame = 0
 1932              		@ frame_needed = 0, uses_anonymous_args = 0
 239:Lib/lvgl/src/misc/lv_anim.c ****     return lv_anim_path_cubic_bezier(a, LV_BEZIER_VAL_FLOAT(0), LV_BEZIER_VAL_FLOAT(0),
 1933              		.loc 1 239 1 is_stmt 0 view .LVU550
 1934 0000 00B5     		push	{lr}
 1935              	.LCFI25:
 1936              		.cfi_def_cfa_offset 4
 1937              		.cfi_offset 14, -4
 1938 0002 83B0     		sub	sp, sp, #12
 1939              	.LCFI26:
 1940              		.cfi_def_cfa_offset 16
ARM GAS  C:\Users\Alex\AppData\Local\Temp\ccbB2tth.s 			page 55


 240:Lib/lvgl/src/misc/lv_anim.c ****                                      LV_BEZIER_VAL_FLOAT(0.58), LV_BEZIER_VAL_FLOAT(1));
 1941              		.loc 1 240 5 is_stmt 1 view .LVU551
 240:Lib/lvgl/src/misc/lv_anim.c ****                                      LV_BEZIER_VAL_FLOAT(0.58), LV_BEZIER_VAL_FLOAT(1));
 1942              		.loc 1 240 12 is_stmt 0 view .LVU552
 1943 0004 4FF48063 		mov	r3, #1024
 1944 0008 0093     		str	r3, [sp]
 1945 000a 40F25123 		movw	r3, #593
 1946 000e 0022     		movs	r2, #0
 1947 0010 1146     		mov	r1, r2
 1948 0012 FFF7FEFF 		bl	lv_anim_path_cubic_bezier
 1949              	.LVL185:
 242:Lib/lvgl/src/misc/lv_anim.c **** 
 1950              		.loc 1 242 1 view .LVU553
 1951 0016 03B0     		add	sp, sp, #12
 1952              	.LCFI27:
 1953              		.cfi_def_cfa_offset 4
 1954              		@ sp needed
 1955 0018 5DF804FB 		ldr	pc, [sp], #4
 1956              		.cfi_endproc
 1957              	.LFE249:
 1959              		.section	.text.lv_anim_path_ease_in_out,"ax",%progbits
 1960              		.align	1
 1961              		.global	lv_anim_path_ease_in_out
 1962              		.syntax unified
 1963              		.thumb
 1964              		.thumb_func
 1966              	lv_anim_path_ease_in_out:
 1967              	.LVL186:
 1968              	.LFB250:
 245:Lib/lvgl/src/misc/lv_anim.c ****     return lv_anim_path_cubic_bezier(a, LV_BEZIER_VAL_FLOAT(0.42), LV_BEZIER_VAL_FLOAT(0),
 1969              		.loc 1 245 1 is_stmt 1 view -0
 1970              		.cfi_startproc
 1971              		@ args = 0, pretend = 0, frame = 0
 1972              		@ frame_needed = 0, uses_anonymous_args = 0
 245:Lib/lvgl/src/misc/lv_anim.c ****     return lv_anim_path_cubic_bezier(a, LV_BEZIER_VAL_FLOAT(0.42), LV_BEZIER_VAL_FLOAT(0),
 1973              		.loc 1 245 1 is_stmt 0 view .LVU555
 1974 0000 00B5     		push	{lr}
 1975              	.LCFI28:
 1976              		.cfi_def_cfa_offset 4
 1977              		.cfi_offset 14, -4
 1978 0002 83B0     		sub	sp, sp, #12
 1979              	.LCFI29:
 1980              		.cfi_def_cfa_offset 16
 246:Lib/lvgl/src/misc/lv_anim.c ****                                      LV_BEZIER_VAL_FLOAT(0.58), LV_BEZIER_VAL_FLOAT(1));
 1981              		.loc 1 246 5 is_stmt 1 view .LVU556
 246:Lib/lvgl/src/misc/lv_anim.c ****                                      LV_BEZIER_VAL_FLOAT(0.58), LV_BEZIER_VAL_FLOAT(1));
 1982              		.loc 1 246 12 is_stmt 0 view .LVU557
 1983 0004 4FF48063 		mov	r3, #1024
 1984 0008 0093     		str	r3, [sp]
 1985 000a 40F25123 		movw	r3, #593
 1986 000e 0022     		movs	r2, #0
 1987 0010 4FF4D771 		mov	r1, #430
 1988 0014 FFF7FEFF 		bl	lv_anim_path_cubic_bezier
 1989              	.LVL187:
 248:Lib/lvgl/src/misc/lv_anim.c **** 
 1990              		.loc 1 248 1 view .LVU558
 1991 0018 03B0     		add	sp, sp, #12
ARM GAS  C:\Users\Alex\AppData\Local\Temp\ccbB2tth.s 			page 56


 1992              	.LCFI30:
 1993              		.cfi_def_cfa_offset 4
 1994              		@ sp needed
 1995 001a 5DF804FB 		ldr	pc, [sp], #4
 1996              		.cfi_endproc
 1997              	.LFE250:
 1999              		.section	.text.lv_anim_path_overshoot,"ax",%progbits
 2000              		.align	1
 2001              		.global	lv_anim_path_overshoot
 2002              		.syntax unified
 2003              		.thumb
 2004              		.thumb_func
 2006              	lv_anim_path_overshoot:
 2007              	.LVL188:
 2008              	.LFB251:
 251:Lib/lvgl/src/misc/lv_anim.c ****     return lv_anim_path_cubic_bezier(a, 341, 0, 683, 1300);
 2009              		.loc 1 251 1 is_stmt 1 view -0
 2010              		.cfi_startproc
 2011              		@ args = 0, pretend = 0, frame = 0
 2012              		@ frame_needed = 0, uses_anonymous_args = 0
 251:Lib/lvgl/src/misc/lv_anim.c ****     return lv_anim_path_cubic_bezier(a, 341, 0, 683, 1300);
 2013              		.loc 1 251 1 is_stmt 0 view .LVU560
 2014 0000 00B5     		push	{lr}
 2015              	.LCFI31:
 2016              		.cfi_def_cfa_offset 4
 2017              		.cfi_offset 14, -4
 2018 0002 83B0     		sub	sp, sp, #12
 2019              	.LCFI32:
 2020              		.cfi_def_cfa_offset 16
 252:Lib/lvgl/src/misc/lv_anim.c **** }
 2021              		.loc 1 252 5 is_stmt 1 view .LVU561
 252:Lib/lvgl/src/misc/lv_anim.c **** }
 2022              		.loc 1 252 12 is_stmt 0 view .LVU562
 2023 0004 40F21453 		movw	r3, #1300
 2024 0008 0093     		str	r3, [sp]
 2025 000a 40F2AB23 		movw	r3, #683
 2026 000e 0022     		movs	r2, #0
 2027 0010 40F25511 		movw	r1, #341
 2028 0014 FFF7FEFF 		bl	lv_anim_path_cubic_bezier
 2029              	.LVL189:
 253:Lib/lvgl/src/misc/lv_anim.c **** 
 2030              		.loc 1 253 1 view .LVU563
 2031 0018 03B0     		add	sp, sp, #12
 2032              	.LCFI33:
 2033              		.cfi_def_cfa_offset 4
 2034              		@ sp needed
 2035 001a 5DF804FB 		ldr	pc, [sp], #4
 2036              		.cfi_endproc
 2037              	.LFE251:
 2039              		.section	.text.lv_anim_path_bounce,"ax",%progbits
 2040              		.align	1
 2041              		.global	lv_anim_path_bounce
 2042              		.syntax unified
 2043              		.thumb
 2044              		.thumb_func
 2046              	lv_anim_path_bounce:
 2047              	.LVL190:
ARM GAS  C:\Users\Alex\AppData\Local\Temp\ccbB2tth.s 			page 57


 2048              	.LFB252:
 256:Lib/lvgl/src/misc/lv_anim.c ****     /*Calculate the current step*/
 2049              		.loc 1 256 1 is_stmt 1 view -0
 2050              		.cfi_startproc
 2051              		@ args = 0, pretend = 0, frame = 0
 2052              		@ frame_needed = 0, uses_anonymous_args = 0
 256:Lib/lvgl/src/misc/lv_anim.c ****     /*Calculate the current step*/
 2053              		.loc 1 256 1 is_stmt 0 view .LVU565
 2054 0000 30B5     		push	{r4, r5, lr}
 2055              	.LCFI34:
 2056              		.cfi_def_cfa_offset 12
 2057              		.cfi_offset 4, -12
 2058              		.cfi_offset 5, -8
 2059              		.cfi_offset 14, -4
 2060 0002 83B0     		sub	sp, sp, #12
 2061              	.LCFI35:
 2062              		.cfi_def_cfa_offset 24
 2063 0004 0446     		mov	r4, r0
 258:Lib/lvgl/src/misc/lv_anim.c ****     int32_t diff = (a->end_value - a->start_value);
 2064              		.loc 1 258 5 is_stmt 1 view .LVU566
 258:Lib/lvgl/src/misc/lv_anim.c ****     int32_t diff = (a->end_value - a->start_value);
 2065              		.loc 1 258 17 is_stmt 0 view .LVU567
 2066 0006 4FF48063 		mov	r3, #1024
 2067 000a 0093     		str	r3, [sp]
 2068 000c 0023     		movs	r3, #0
 2069 000e 026B     		ldr	r2, [r0, #48]
 2070 0010 1946     		mov	r1, r3
 2071 0012 406B     		ldr	r0, [r0, #52]
 2072              	.LVL191:
 258:Lib/lvgl/src/misc/lv_anim.c ****     int32_t diff = (a->end_value - a->start_value);
 2073              		.loc 1 258 17 view .LVU568
 2074 0014 FFF7FEFF 		bl	lv_map
 2075              	.LVL192:
 259:Lib/lvgl/src/misc/lv_anim.c **** 
 2076              		.loc 1 259 5 is_stmt 1 view .LVU569
 259:Lib/lvgl/src/misc/lv_anim.c **** 
 2077              		.loc 1 259 22 is_stmt 0 view .LVU570
 2078 0018 E36A     		ldr	r3, [r4, #44]
 259:Lib/lvgl/src/misc/lv_anim.c **** 
 2079              		.loc 1 259 37 view .LVU571
 2080 001a 626A     		ldr	r2, [r4, #36]
 259:Lib/lvgl/src/misc/lv_anim.c **** 
 2081              		.loc 1 259 13 view .LVU572
 2082 001c 9D1A     		subs	r5, r3, r2
 2083              	.LVL193:
 263:Lib/lvgl/src/misc/lv_anim.c ****         /*Go down*/
 2084              		.loc 1 263 5 is_stmt 1 view .LVU573
 263:Lib/lvgl/src/misc/lv_anim.c ****         /*Go down*/
 2085              		.loc 1 263 7 is_stmt 0 view .LVU574
 2086 001e B0F5CC7F 		cmp	r0, #408
 2087 0022 0BDA     		bge	.L146
 265:Lib/lvgl/src/misc/lv_anim.c ****     }
 2088              		.loc 1 265 9 is_stmt 1 view .LVU575
 265:Lib/lvgl/src/misc/lv_anim.c ****     }
 2089              		.loc 1 265 16 is_stmt 0 view .LVU576
 2090 0024 40F6C413 		movw	r3, #2500
 2091 0028 00FB03F3 		mul	r3, r0, r3
ARM GAS  C:\Users\Alex\AppData\Local\Temp\ccbB2tth.s 			page 58


 265:Lib/lvgl/src/misc/lv_anim.c ****     }
 2092              		.loc 1 265 11 view .LVU577
 2093 002c 9812     		asrs	r0, r3, #10
 2094              	.LVL194:
 2095              	.L147:
 294:Lib/lvgl/src/misc/lv_anim.c ****     if(t < 0) t = 0;
 2096              		.loc 1 294 5 is_stmt 1 view .LVU578
 294:Lib/lvgl/src/misc/lv_anim.c ****     if(t < 0) t = 0;
 2097              		.loc 1 294 7 is_stmt 0 view .LVU579
 2098 002e B0F5806F 		cmp	r0, #1024
 2099 0032 41DC     		bgt	.L152
 295:Lib/lvgl/src/misc/lv_anim.c ****     int32_t step = lv_bezier3(t, LV_BEZIER_VAL_MAX, 800, 500, 0);
 2100              		.loc 1 295 5 is_stmt 1 view .LVU580
 295:Lib/lvgl/src/misc/lv_anim.c ****     int32_t step = lv_bezier3(t, LV_BEZIER_VAL_MAX, 800, 500, 0);
 2101              		.loc 1 295 7 is_stmt 0 view .LVU581
 2102 0034 0028     		cmp	r0, #0
 2103 0036 41DA     		bge	.L151
 295:Lib/lvgl/src/misc/lv_anim.c ****     int32_t step = lv_bezier3(t, LV_BEZIER_VAL_MAX, 800, 500, 0);
 2104              		.loc 1 295 17 view .LVU582
 2105 0038 0020     		movs	r0, #0
 2106              	.LVL195:
 295:Lib/lvgl/src/misc/lv_anim.c ****     int32_t step = lv_bezier3(t, LV_BEZIER_VAL_MAX, 800, 500, 0);
 2107              		.loc 1 295 17 view .LVU583
 2108 003a 3FE0     		b	.L151
 2109              	.LVL196:
 2110              	.L146:
 267:Lib/lvgl/src/misc/lv_anim.c ****         /*First bounce back*/
 2111              		.loc 1 267 10 is_stmt 1 view .LVU584
 267:Lib/lvgl/src/misc/lv_anim.c ****         /*First bounce back*/
 2112              		.loc 1 267 22 is_stmt 0 view .LVU585
 2113 003c A0F5CC73 		sub	r3, r0, #408
 267:Lib/lvgl/src/misc/lv_anim.c ****         /*First bounce back*/
 2114              		.loc 1 267 12 view .LVU586
 2115 0040 CD2B     		cmp	r3, #205
 2116 0042 0AD8     		bhi	.L148
 269:Lib/lvgl/src/misc/lv_anim.c ****         t    = t * 5; /*to [0..1024] range*/
 2117              		.loc 1 269 9 is_stmt 1 view .LVU587
 2118              	.LVL197:
 270:Lib/lvgl/src/misc/lv_anim.c ****         t    = LV_BEZIER_VAL_MAX - t;
 2119              		.loc 1 270 9 view .LVU588
 270:Lib/lvgl/src/misc/lv_anim.c ****         t    = LV_BEZIER_VAL_MAX - t;
 2120              		.loc 1 270 14 is_stmt 0 view .LVU589
 2121 0044 03EB8300 		add	r0, r3, r3, lsl #2
 2122              	.LVL198:
 271:Lib/lvgl/src/misc/lv_anim.c ****         diff = diff / 20;
 2123              		.loc 1 271 9 is_stmt 1 view .LVU590
 271:Lib/lvgl/src/misc/lv_anim.c ****         diff = diff / 20;
 2124              		.loc 1 271 14 is_stmt 0 view .LVU591
 2125 0048 C0F58060 		rsb	r0, r0, #1024
 2126              	.LVL199:
 272:Lib/lvgl/src/misc/lv_anim.c ****     }
 2127              		.loc 1 272 9 is_stmt 1 view .LVU592
 272:Lib/lvgl/src/misc/lv_anim.c ****     }
 2128              		.loc 1 272 14 is_stmt 0 view .LVU593
 2129 004c 244A     		ldr	r2, .L155
 2130 004e 82FB0532 		smull	r3, r2, r2, r5
 2131 0052 EB17     		asrs	r3, r5, #31
ARM GAS  C:\Users\Alex\AppData\Local\Temp\ccbB2tth.s 			page 59


 2132 0054 C3EBE205 		rsb	r5, r3, r2, asr #3
 2133              	.LVL200:
 272:Lib/lvgl/src/misc/lv_anim.c ****     }
 2134              		.loc 1 272 14 view .LVU594
 2135 0058 E9E7     		b	.L147
 2136              	.L148:
 274:Lib/lvgl/src/misc/lv_anim.c ****         /*Fall back*/
 2137              		.loc 1 274 10 is_stmt 1 view .LVU595
 274:Lib/lvgl/src/misc/lv_anim.c ****         /*Fall back*/
 2138              		.loc 1 274 22 is_stmt 0 view .LVU596
 2139 005a A0F26623 		subw	r3, r0, #614
 274:Lib/lvgl/src/misc/lv_anim.c ****         /*Fall back*/
 2140              		.loc 1 274 12 view .LVU597
 2141 005e CC2B     		cmp	r3, #204
 2142 0060 08D8     		bhi	.L149
 276:Lib/lvgl/src/misc/lv_anim.c ****         t    = t * 5; /*to [0..1024] range*/
 2143              		.loc 1 276 9 is_stmt 1 view .LVU598
 2144              	.LVL201:
 277:Lib/lvgl/src/misc/lv_anim.c ****         diff = diff / 20;
 2145              		.loc 1 277 9 view .LVU599
 277:Lib/lvgl/src/misc/lv_anim.c ****         diff = diff / 20;
 2146              		.loc 1 277 14 is_stmt 0 view .LVU600
 2147 0062 03EB8300 		add	r0, r3, r3, lsl #2
 2148              	.LVL202:
 278:Lib/lvgl/src/misc/lv_anim.c ****     }
 2149              		.loc 1 278 9 is_stmt 1 view .LVU601
 278:Lib/lvgl/src/misc/lv_anim.c ****     }
 2150              		.loc 1 278 14 is_stmt 0 view .LVU602
 2151 0066 1E4A     		ldr	r2, .L155
 2152 0068 82FB0532 		smull	r3, r2, r2, r5
 2153 006c EB17     		asrs	r3, r5, #31
 2154 006e C3EBE205 		rsb	r5, r3, r2, asr #3
 2155              	.LVL203:
 278:Lib/lvgl/src/misc/lv_anim.c ****     }
 2156              		.loc 1 278 14 view .LVU603
 2157 0072 DCE7     		b	.L147
 2158              	.L149:
 280:Lib/lvgl/src/misc/lv_anim.c ****         /*Second bounce back*/
 2159              		.loc 1 280 10 is_stmt 1 view .LVU604
 280:Lib/lvgl/src/misc/lv_anim.c ****         /*Second bounce back*/
 2160              		.loc 1 280 22 is_stmt 0 view .LVU605
 2161 0074 A0F23333 		subw	r3, r0, #819
 280:Lib/lvgl/src/misc/lv_anim.c ****         /*Second bounce back*/
 2162              		.loc 1 280 12 view .LVU606
 2163 0078 652B     		cmp	r3, #101
 2164 007a 0DD8     		bhi	.L150
 282:Lib/lvgl/src/misc/lv_anim.c ****         t    = t * 10; /*to [0..1024] range*/
 2165              		.loc 1 282 9 is_stmt 1 view .LVU607
 282:Lib/lvgl/src/misc/lv_anim.c ****         t    = t * 10; /*to [0..1024] range*/
 2166              		.loc 1 282 11 is_stmt 0 view .LVU608
 2167 007c A0F23330 		subw	r0, r0, #819
 2168              	.LVL204:
 283:Lib/lvgl/src/misc/lv_anim.c ****         t    = LV_BEZIER_VAL_MAX - t;
 2169              		.loc 1 283 9 is_stmt 1 view .LVU609
 283:Lib/lvgl/src/misc/lv_anim.c ****         t    = LV_BEZIER_VAL_MAX - t;
 2170              		.loc 1 283 14 is_stmt 0 view .LVU610
 2171 0080 00EB8000 		add	r0, r0, r0, lsl #2
ARM GAS  C:\Users\Alex\AppData\Local\Temp\ccbB2tth.s 			page 60


 2172              	.LVL205:
 283:Lib/lvgl/src/misc/lv_anim.c ****         t    = LV_BEZIER_VAL_MAX - t;
 2173              		.loc 1 283 14 view .LVU611
 2174 0084 4000     		lsls	r0, r0, #1
 2175              	.LVL206:
 284:Lib/lvgl/src/misc/lv_anim.c ****         diff = diff / 40;
 2176              		.loc 1 284 9 is_stmt 1 view .LVU612
 284:Lib/lvgl/src/misc/lv_anim.c ****         diff = diff / 40;
 2177              		.loc 1 284 14 is_stmt 0 view .LVU613
 2178 0086 C0F58060 		rsb	r0, r0, #1024
 2179              	.LVL207:
 285:Lib/lvgl/src/misc/lv_anim.c ****     }
 2180              		.loc 1 285 9 is_stmt 1 view .LVU614
 285:Lib/lvgl/src/misc/lv_anim.c ****     }
 2181              		.loc 1 285 14 is_stmt 0 view .LVU615
 2182 008a 154A     		ldr	r2, .L155
 2183 008c 82FB0532 		smull	r3, r2, r2, r5
 2184 0090 EB17     		asrs	r3, r5, #31
 2185 0092 C3EB2215 		rsb	r5, r3, r2, asr #4
 2186              	.LVL208:
 285:Lib/lvgl/src/misc/lv_anim.c ****     }
 2187              		.loc 1 285 14 view .LVU616
 2188 0096 CAE7     		b	.L147
 2189              	.L150:
 287:Lib/lvgl/src/misc/lv_anim.c ****         /*Fall back*/
 2190              		.loc 1 287 10 is_stmt 1 view .LVU617
 287:Lib/lvgl/src/misc/lv_anim.c ****         /*Fall back*/
 2191              		.loc 1 287 22 is_stmt 0 view .LVU618
 2192 0098 A0F29932 		subw	r2, r0, #921
 287:Lib/lvgl/src/misc/lv_anim.c ****         /*Fall back*/
 2193              		.loc 1 287 12 view .LVU619
 2194 009c 672A     		cmp	r2, #103
 2195 009e C6D8     		bhi	.L147
 289:Lib/lvgl/src/misc/lv_anim.c ****         t    = t * 10; /*to [0..1024] range*/
 2196              		.loc 1 289 9 is_stmt 1 view .LVU620
 289:Lib/lvgl/src/misc/lv_anim.c ****         t    = t * 10; /*to [0..1024] range*/
 2197              		.loc 1 289 11 is_stmt 0 view .LVU621
 2198 00a0 A0F29930 		subw	r0, r0, #921
 2199              	.LVL209:
 290:Lib/lvgl/src/misc/lv_anim.c ****         diff = diff / 40;
 2200              		.loc 1 290 9 is_stmt 1 view .LVU622
 290:Lib/lvgl/src/misc/lv_anim.c ****         diff = diff / 40;
 2201              		.loc 1 290 14 is_stmt 0 view .LVU623
 2202 00a4 00EB8000 		add	r0, r0, r0, lsl #2
 2203              	.LVL210:
 290:Lib/lvgl/src/misc/lv_anim.c ****         diff = diff / 40;
 2204              		.loc 1 290 14 view .LVU624
 2205 00a8 4000     		lsls	r0, r0, #1
 2206              	.LVL211:
 291:Lib/lvgl/src/misc/lv_anim.c ****     }
 2207              		.loc 1 291 9 is_stmt 1 view .LVU625
 291:Lib/lvgl/src/misc/lv_anim.c ****     }
 2208              		.loc 1 291 14 is_stmt 0 view .LVU626
 2209 00aa 0D4A     		ldr	r2, .L155
 2210 00ac 82FB0532 		smull	r3, r2, r2, r5
 2211 00b0 EB17     		asrs	r3, r5, #31
 2212 00b2 C3EB2215 		rsb	r5, r3, r2, asr #4
ARM GAS  C:\Users\Alex\AppData\Local\Temp\ccbB2tth.s 			page 61


 2213              	.LVL212:
 291:Lib/lvgl/src/misc/lv_anim.c ****     }
 2214              		.loc 1 291 14 view .LVU627
 2215 00b6 BAE7     		b	.L147
 2216              	.L152:
 294:Lib/lvgl/src/misc/lv_anim.c ****     if(t < 0) t = 0;
 2217              		.loc 1 294 33 view .LVU628
 2218 00b8 4FF48060 		mov	r0, #1024
 2219              	.LVL213:
 2220              	.L151:
 296:Lib/lvgl/src/misc/lv_anim.c **** 
 2221              		.loc 1 296 5 is_stmt 1 view .LVU629
 2222              	.LBB23:
 2223              	.LBI23:
 2224              		.file 4 "Lib/lvgl/src/misc/lv_math.h"
   1:Lib/lvgl/src/misc/lv_math.h **** /**
   2:Lib/lvgl/src/misc/lv_math.h ****  * @file lv_math.h
   3:Lib/lvgl/src/misc/lv_math.h ****  *
   4:Lib/lvgl/src/misc/lv_math.h ****  */
   5:Lib/lvgl/src/misc/lv_math.h **** 
   6:Lib/lvgl/src/misc/lv_math.h **** #ifndef LV_MATH_H
   7:Lib/lvgl/src/misc/lv_math.h **** #define LV_MATH_H
   8:Lib/lvgl/src/misc/lv_math.h **** 
   9:Lib/lvgl/src/misc/lv_math.h **** #ifdef __cplusplus
  10:Lib/lvgl/src/misc/lv_math.h **** extern "C" {
  11:Lib/lvgl/src/misc/lv_math.h **** #endif
  12:Lib/lvgl/src/misc/lv_math.h **** 
  13:Lib/lvgl/src/misc/lv_math.h **** /*********************
  14:Lib/lvgl/src/misc/lv_math.h ****  *      INCLUDES
  15:Lib/lvgl/src/misc/lv_math.h ****  *********************/
  16:Lib/lvgl/src/misc/lv_math.h **** #include "../lv_conf_internal.h"
  17:Lib/lvgl/src/misc/lv_math.h **** #include <stdint.h>
  18:Lib/lvgl/src/misc/lv_math.h **** #include "lv_types.h"
  19:Lib/lvgl/src/misc/lv_math.h **** 
  20:Lib/lvgl/src/misc/lv_math.h **** /*********************
  21:Lib/lvgl/src/misc/lv_math.h ****  *      DEFINES
  22:Lib/lvgl/src/misc/lv_math.h ****  *********************/
  23:Lib/lvgl/src/misc/lv_math.h **** #define LV_TRIGO_SIN_MAX 32768
  24:Lib/lvgl/src/misc/lv_math.h **** #define LV_TRIGO_SHIFT 15 /**<  >> LV_TRIGO_SHIFT to normalize*/
  25:Lib/lvgl/src/misc/lv_math.h **** 
  26:Lib/lvgl/src/misc/lv_math.h **** #define LV_BEZIER_VAL_SHIFT 10 /**< log2(LV_BEZIER_VAL_MAX): used to normalize up scaled values*/
  27:Lib/lvgl/src/misc/lv_math.h **** #define LV_BEZIER_VAL_MAX (1L << LV_BEZIER_VAL_SHIFT) /**< Max time in Bezier functions (not [0..1]
  28:Lib/lvgl/src/misc/lv_math.h **** #define LV_BEZIER_VAL_FLOAT(f) ((int32_t)((f) * LV_BEZIER_VAL_MAX)) /**< Convert const float number
  29:Lib/lvgl/src/misc/lv_math.h **** 
  30:Lib/lvgl/src/misc/lv_math.h **** /*Align up value x to align, align must be a power of two*/
  31:Lib/lvgl/src/misc/lv_math.h **** #define LV_ALIGN_UP(x, align) (((x) + ((align) - 1)) & ~((align) - 1))
  32:Lib/lvgl/src/misc/lv_math.h **** 
  33:Lib/lvgl/src/misc/lv_math.h **** /**********************
  34:Lib/lvgl/src/misc/lv_math.h ****  *      TYPEDEFS
  35:Lib/lvgl/src/misc/lv_math.h ****  **********************/
  36:Lib/lvgl/src/misc/lv_math.h **** 
  37:Lib/lvgl/src/misc/lv_math.h **** typedef struct {
  38:Lib/lvgl/src/misc/lv_math.h ****     uint16_t i;
  39:Lib/lvgl/src/misc/lv_math.h ****     uint16_t f;
  40:Lib/lvgl/src/misc/lv_math.h **** } lv_sqrt_res_t;
  41:Lib/lvgl/src/misc/lv_math.h **** 
  42:Lib/lvgl/src/misc/lv_math.h **** /**********************
ARM GAS  C:\Users\Alex\AppData\Local\Temp\ccbB2tth.s 			page 62


  43:Lib/lvgl/src/misc/lv_math.h ****  * GLOBAL PROTOTYPES
  44:Lib/lvgl/src/misc/lv_math.h ****  **********************/
  45:Lib/lvgl/src/misc/lv_math.h **** 
  46:Lib/lvgl/src/misc/lv_math.h **** //! @cond Doxygen_Suppress
  47:Lib/lvgl/src/misc/lv_math.h **** /**
  48:Lib/lvgl/src/misc/lv_math.h ****  * Return with sinus of an angle
  49:Lib/lvgl/src/misc/lv_math.h ****  * @param angle
  50:Lib/lvgl/src/misc/lv_math.h ****  * @return sinus of 'angle'. sin(-90) = -32767, sin(90) = 32767
  51:Lib/lvgl/src/misc/lv_math.h ****  */
  52:Lib/lvgl/src/misc/lv_math.h **** LV_ATTRIBUTE_FAST_MEM int32_t lv_trigo_sin(int16_t angle);
  53:Lib/lvgl/src/misc/lv_math.h **** 
  54:Lib/lvgl/src/misc/lv_math.h **** static inline LV_ATTRIBUTE_FAST_MEM int32_t lv_trigo_cos(int16_t angle)
  55:Lib/lvgl/src/misc/lv_math.h **** {
  56:Lib/lvgl/src/misc/lv_math.h ****     return lv_trigo_sin(angle + 90);
  57:Lib/lvgl/src/misc/lv_math.h **** }
  58:Lib/lvgl/src/misc/lv_math.h **** 
  59:Lib/lvgl/src/misc/lv_math.h **** //! @endcond
  60:Lib/lvgl/src/misc/lv_math.h **** 
  61:Lib/lvgl/src/misc/lv_math.h **** /**
  62:Lib/lvgl/src/misc/lv_math.h ****  * Calculate the y value of cubic-bezier(x1, y1, x2, y2) function as specified x.
  63:Lib/lvgl/src/misc/lv_math.h ****  * @param x time in range of [0..LV_BEZIER_VAL_MAX]
  64:Lib/lvgl/src/misc/lv_math.h ****  * @param x1 x of control point 1 in range of [0..LV_BEZIER_VAL_MAX]
  65:Lib/lvgl/src/misc/lv_math.h ****  * @param y1 y of control point 1 in range of [0..LV_BEZIER_VAL_MAX]
  66:Lib/lvgl/src/misc/lv_math.h ****  * @param x2 x of control point 2 in range of [0..LV_BEZIER_VAL_MAX]
  67:Lib/lvgl/src/misc/lv_math.h ****  * @param y2 y of control point 2 in range of [0..LV_BEZIER_VAL_MAX]
  68:Lib/lvgl/src/misc/lv_math.h ****  * @return the value calculated
  69:Lib/lvgl/src/misc/lv_math.h ****  */
  70:Lib/lvgl/src/misc/lv_math.h **** int32_t lv_cubic_bezier(int32_t x, int32_t x1, int32_t y1, int32_t x2, int32_t y2);
  71:Lib/lvgl/src/misc/lv_math.h **** 
  72:Lib/lvgl/src/misc/lv_math.h **** /**
  73:Lib/lvgl/src/misc/lv_math.h ****  * Calculate a value of a Cubic Bezier function.
  74:Lib/lvgl/src/misc/lv_math.h ****  * @param t time in range of [0..LV_BEZIER_VAL_MAX]
  75:Lib/lvgl/src/misc/lv_math.h ****  * @param u0 must be 0
  76:Lib/lvgl/src/misc/lv_math.h ****  * @param u1 control value 1 values in range of [0..LV_BEZIER_VAL_MAX]
  77:Lib/lvgl/src/misc/lv_math.h ****  * @param u2 control value 2 in range of [0..LV_BEZIER_VAL_MAX]
  78:Lib/lvgl/src/misc/lv_math.h ****  * @param u3 must be LV_BEZIER_VAL_MAX
  79:Lib/lvgl/src/misc/lv_math.h ****  * @return the value calculated from the given parameters in range of [0..LV_BEZIER_VAL_MAX]
  80:Lib/lvgl/src/misc/lv_math.h ****  */
  81:Lib/lvgl/src/misc/lv_math.h **** static inline int32_t lv_bezier3(int32_t t, int32_t u0, uint32_t u1, int32_t u2, int32_t u3)
 2225              		.loc 4 81 23 view .LVU630
 2226              	.LBB24:
  82:Lib/lvgl/src/misc/lv_math.h **** {
  83:Lib/lvgl/src/misc/lv_math.h ****     LV_UNUSED(u0);
 2227              		.loc 4 83 5 view .LVU631
  84:Lib/lvgl/src/misc/lv_math.h ****     LV_UNUSED(u3);
 2228              		.loc 4 84 5 view .LVU632
  85:Lib/lvgl/src/misc/lv_math.h ****     return lv_cubic_bezier(t, 341, u1, 683, u2);
 2229              		.loc 4 85 5 view .LVU633
 2230              		.loc 4 85 12 is_stmt 0 view .LVU634
 2231 00bc 4FF4FA73 		mov	r3, #500
 2232 00c0 0093     		str	r3, [sp]
 2233 00c2 40F2AB23 		movw	r3, #683
 2234 00c6 4FF44872 		mov	r2, #800
 2235 00ca 40F25511 		movw	r1, #341
 2236 00ce FFF7FEFF 		bl	lv_cubic_bezier
 2237              	.LVL214:
 2238              		.loc 4 85 12 view .LVU635
ARM GAS  C:\Users\Alex\AppData\Local\Temp\ccbB2tth.s 			page 63


 2239              	.LBE24:
 2240              	.LBE23:
 298:Lib/lvgl/src/misc/lv_anim.c ****     new_value = step * diff;
 2241              		.loc 1 298 5 is_stmt 1 view .LVU636
 299:Lib/lvgl/src/misc/lv_anim.c ****     new_value = new_value >> LV_BEZIER_VAL_SHIFT;
 2242              		.loc 1 299 5 view .LVU637
 299:Lib/lvgl/src/misc/lv_anim.c ****     new_value = new_value >> LV_BEZIER_VAL_SHIFT;
 2243              		.loc 1 299 15 is_stmt 0 view .LVU638
 2244 00d2 00FB05F5 		mul	r5, r0, r5
 2245              	.LVL215:
 300:Lib/lvgl/src/misc/lv_anim.c ****     new_value = a->end_value - new_value;
 2246              		.loc 1 300 5 is_stmt 1 view .LVU639
 301:Lib/lvgl/src/misc/lv_anim.c **** 
 2247              		.loc 1 301 5 view .LVU640
 301:Lib/lvgl/src/misc/lv_anim.c **** 
 2248              		.loc 1 301 18 is_stmt 0 view .LVU641
 2249 00d6 E06A     		ldr	r0, [r4, #44]
 2250              	.LVL216:
 303:Lib/lvgl/src/misc/lv_anim.c **** }
 2251              		.loc 1 303 5 is_stmt 1 view .LVU642
 304:Lib/lvgl/src/misc/lv_anim.c **** 
 2252              		.loc 1 304 1 is_stmt 0 view .LVU643
 2253 00d8 A0EBA520 		sub	r0, r0, r5, asr #10
 2254              	.LVL217:
 304:Lib/lvgl/src/misc/lv_anim.c **** 
 2255              		.loc 1 304 1 view .LVU644
 2256 00dc 03B0     		add	sp, sp, #12
 2257              	.LCFI36:
 2258              		.cfi_def_cfa_offset 12
 2259              		@ sp needed
 2260 00de 30BD     		pop	{r4, r5, pc}
 2261              	.LVL218:
 2262              	.L156:
 304:Lib/lvgl/src/misc/lv_anim.c **** 
 2263              		.loc 1 304 1 view .LVU645
 2264              		.align	2
 2265              	.L155:
 2266 00e0 67666666 		.word	1717986919
 2267              		.cfi_endproc
 2268              	.LFE252:
 2270              		.section	.text.lv_anim_path_step,"ax",%progbits
 2271              		.align	1
 2272              		.global	lv_anim_path_step
 2273              		.syntax unified
 2274              		.thumb
 2275              		.thumb_func
 2277              	lv_anim_path_step:
 2278              	.LVL219:
 2279              	.LFB253:
 307:Lib/lvgl/src/misc/lv_anim.c ****     if(a->act_time >= a->duration)
 2280              		.loc 1 307 1 is_stmt 1 view -0
 2281              		.cfi_startproc
 2282              		@ args = 0, pretend = 0, frame = 0
 2283              		@ frame_needed = 0, uses_anonymous_args = 0
 2284              		@ link register save eliminated.
 308:Lib/lvgl/src/misc/lv_anim.c ****         return a->end_value;
 2285              		.loc 1 308 5 view .LVU647
ARM GAS  C:\Users\Alex\AppData\Local\Temp\ccbB2tth.s 			page 64


 308:Lib/lvgl/src/misc/lv_anim.c ****         return a->end_value;
 2286              		.loc 1 308 9 is_stmt 0 view .LVU648
 2287 0000 426B     		ldr	r2, [r0, #52]
 308:Lib/lvgl/src/misc/lv_anim.c ****         return a->end_value;
 2288              		.loc 1 308 24 view .LVU649
 2289 0002 036B     		ldr	r3, [r0, #48]
 308:Lib/lvgl/src/misc/lv_anim.c ****         return a->end_value;
 2290              		.loc 1 308 7 view .LVU650
 2291 0004 9A42     		cmp	r2, r3
 2292 0006 01DB     		blt	.L158
 309:Lib/lvgl/src/misc/lv_anim.c ****     else
 2293              		.loc 1 309 9 is_stmt 1 view .LVU651
 309:Lib/lvgl/src/misc/lv_anim.c ****     else
 2294              		.loc 1 309 17 is_stmt 0 view .LVU652
 2295 0008 C06A     		ldr	r0, [r0, #44]
 2296              	.LVL220:
 309:Lib/lvgl/src/misc/lv_anim.c ****     else
 2297              		.loc 1 309 17 view .LVU653
 2298 000a 7047     		bx	lr
 2299              	.LVL221:
 2300              	.L158:
 311:Lib/lvgl/src/misc/lv_anim.c **** }
 2301              		.loc 1 311 9 is_stmt 1 view .LVU654
 311:Lib/lvgl/src/misc/lv_anim.c **** }
 2302              		.loc 1 311 17 is_stmt 0 view .LVU655
 2303 000c 406A     		ldr	r0, [r0, #36]
 2304              	.LVL222:
 312:Lib/lvgl/src/misc/lv_anim.c **** 
 2305              		.loc 1 312 1 view .LVU656
 2306 000e 7047     		bx	lr
 2307              		.cfi_endproc
 2308              	.LFE253:
 2310              		.section	.text.lv_anim_path_custom_bezier3,"ax",%progbits
 2311              		.align	1
 2312              		.global	lv_anim_path_custom_bezier3
 2313              		.syntax unified
 2314              		.thumb
 2315              		.thumb_func
 2317              	lv_anim_path_custom_bezier3:
 2318              	.LVL223:
 2319              	.LFB254:
 315:Lib/lvgl/src/misc/lv_anim.c ****     const struct _lv_anim_bezier3_para_t * para = &a->parameter.bezier3;
 2320              		.loc 1 315 1 is_stmt 1 view -0
 2321              		.cfi_startproc
 2322              		@ args = 0, pretend = 0, frame = 0
 2323              		@ frame_needed = 0, uses_anonymous_args = 0
 315:Lib/lvgl/src/misc/lv_anim.c ****     const struct _lv_anim_bezier3_para_t * para = &a->parameter.bezier3;
 2324              		.loc 1 315 1 is_stmt 0 view .LVU658
 2325 0000 00B5     		push	{lr}
 2326              	.LCFI37:
 2327              		.cfi_def_cfa_offset 4
 2328              		.cfi_offset 14, -4
 2329 0002 83B0     		sub	sp, sp, #12
 2330              	.LCFI38:
 2331              		.cfi_def_cfa_offset 16
 316:Lib/lvgl/src/misc/lv_anim.c ****     return lv_anim_path_cubic_bezier(a, para->x1, para->y1, para->x2, para->y2);
 2332              		.loc 1 316 5 is_stmt 1 view .LVU659
ARM GAS  C:\Users\Alex\AppData\Local\Temp\ccbB2tth.s 			page 65


 2333              	.LVL224:
 317:Lib/lvgl/src/misc/lv_anim.c **** }
 2334              		.loc 1 317 5 view .LVU660
 317:Lib/lvgl/src/misc/lv_anim.c **** }
 2335              		.loc 1 317 75 is_stmt 0 view .LVU661
 2336 0004 B0F94C30 		ldrsh	r3, [r0, #76]
 317:Lib/lvgl/src/misc/lv_anim.c **** }
 2337              		.loc 1 317 12 view .LVU662
 2338 0008 0093     		str	r3, [sp]
 2339 000a B0F94A30 		ldrsh	r3, [r0, #74]
 2340 000e B0F94820 		ldrsh	r2, [r0, #72]
 2341 0012 B0F94610 		ldrsh	r1, [r0, #70]
 2342 0016 FFF7FEFF 		bl	lv_anim_path_cubic_bezier
 2343              	.LVL225:
 318:Lib/lvgl/src/misc/lv_anim.c **** 
 2344              		.loc 1 318 1 view .LVU663
 2345 001a 03B0     		add	sp, sp, #12
 2346              	.LCFI39:
 2347              		.cfi_def_cfa_offset 4
 2348              		@ sp needed
 2349 001c 5DF804FB 		ldr	pc, [sp], #4
 2350              		.cfi_endproc
 2351              	.LFE254:
 2353              		.text
 2354              	.Letext0:
 2355              		.file 5 "e:\\programms\\gnu_mcu_eclipse\\toolchain\\arm-gnu-toolchain-12.2.mpacbti-bet1-mingw-w64-
 2356              		.file 6 "e:\\programms\\gnu_mcu_eclipse\\toolchain\\arm-gnu-toolchain-12.2.mpacbti-bet1-mingw-w64-
 2357              		.file 7 "Lib/lvgl/src/misc/lv_types.h"
 2358              		.file 8 "c:\\users\\alex\\eclipse-workspace\\lvgs_test\\lib\\lvgl\\src\\core\\lv_obj.h"
 2359              		.file 9 "c:\\users\\alex\\eclipse-workspace\\lvgs_test\\lib\\lvgl\\src\\core\\lv_obj_class.h"
 2360              		.file 10 "c:\\users\\alex\\eclipse-workspace\\lvgs_test\\lib\\lvgl\\src\\core\\lv_group.h"
 2361              		.file 11 "Lib/lvgl/src/misc/../core/../draw/lv_draw.h"
 2362              		.file 12 "Lib/lvgl/src/misc/../core/../draw/sw/../../display/../misc/lv_event.h"
 2363              		.file 13 "Lib/lvgl/src/misc/lv_timer.h"
 2364              		.file 14 "Lib/lvgl/src/misc/lv_anim.h"
 2365              		.file 15 "Lib/lvgl/src/misc/../tick/lv_tick.h"
 2366              		.file 16 "e:\\programms\\gnu_mcu_eclipse\\toolchain\\arm-gnu-toolchain-12.2.mpacbti-bet1-mingw-w64
 2367              		.file 17 "c:\\users\\alex\\eclipse-workspace\\lvgs_test\\lib\\lvgl\\src\\misc\\lv_area.h"
 2368              		.file 18 "c:\\users\\alex\\eclipse-workspace\\lvgs_test\\lib\\lvgl\\src\\misc\\lv_color.h"
 2369              		.file 19 "Lib/lvgl/src/misc/../core/../draw/../misc/../font/../draw/lv_image_buf.h"
 2370              		.file 20 "Lib/lvgl/src/misc/../core/../draw/../misc/../font/../draw/lv_draw_buf.h"
 2371              		.file 21 "c:\\users\\alex\\eclipse-workspace\\lvgs_test\\lib\\lvgl\\src\\osal\\lv_os_none.h"
 2372              		.file 22 "Lib/lvgl/src/misc/../core/../draw/../misc/../layouts/lv_layout.h"
 2373              		.file 23 "Lib/lvgl/src/misc/../core/../draw/../misc/lv_style.h"
 2374              		.file 24 "Lib/lvgl/src/misc/../core/../draw/sw/../../display/../misc/lv_array.h"
 2375              		.file 25 "Lib/lvgl/src/misc/../core/../draw/sw/blend/../lv_draw_sw_mask.h"
 2376              		.file 26 "c:\\users\\alex\\eclipse-workspace\\lvgs_test\\lib\\lvgl\\src\\core\\lv_obj_style.h"
 2377              		.file 27 "Lib/lvgl/src/misc/../core/../stdlib/builtin/lv_tlsf.h"
 2378              		.file 28 "Lib/lvgl/src/misc/../core/lv_global.h"
 2379              		.file 29 "c:\\users\\alex\\eclipse-workspace\\lvgs_test\\lib\\lvgl\\src\\stdlib\\lv_mem.h"
ARM GAS  C:\Users\Alex\AppData\Local\Temp\ccbB2tth.s 			page 66

