ARM GAS  C:\Users\Alex\AppData\Local\Temp\cce04MdY.s 			page 1


   1              		.cpu cortex-m4
   2              		.arch armv7e-m
   3              		.fpu fpv4-sp-d16
   4              		.eabi_attribute 27, 1
   5              		.eabi_attribute 28, 1
   6              		.eabi_attribute 20, 1
   7              		.eabi_attribute 21, 1
   8              		.eabi_attribute 23, 3
   9              		.eabi_attribute 24, 1
  10              		.eabi_attribute 25, 1
  11              		.eabi_attribute 26, 1
  12              		.eabi_attribute 30, 1
  13              		.eabi_attribute 34, 1
  14              		.eabi_attribute 18, 4
  15              		.file	"lv_async.c"
  16              		.text
  17              	.Ltext0:
  18              		.cfi_sections	.debug_frame
  19              		.file 1 "Lib/lvgl/src/misc/lv_async.c"
  20              		.section	.text.lv_async_timer_cb,"ax",%progbits
  21              		.align	1
  22              		.syntax unified
  23              		.thumb
  24              		.thumb_func
  26              	lv_async_timer_cb:
  27              	.LVL0:
  28              	.LFB6:
   1:Lib/lvgl/src/misc/lv_async.c **** /**
   2:Lib/lvgl/src/misc/lv_async.c ****  * @file lv_async.c
   3:Lib/lvgl/src/misc/lv_async.c ****  *
   4:Lib/lvgl/src/misc/lv_async.c ****  */
   5:Lib/lvgl/src/misc/lv_async.c **** 
   6:Lib/lvgl/src/misc/lv_async.c **** /*********************
   7:Lib/lvgl/src/misc/lv_async.c ****  *      INCLUDES
   8:Lib/lvgl/src/misc/lv_async.c ****  *********************/
   9:Lib/lvgl/src/misc/lv_async.c **** 
  10:Lib/lvgl/src/misc/lv_async.c **** #include "lv_async.h"
  11:Lib/lvgl/src/misc/lv_async.c **** #include "lv_timer.h"
  12:Lib/lvgl/src/misc/lv_async.c **** #include "../stdlib/lv_mem.h"
  13:Lib/lvgl/src/misc/lv_async.c **** 
  14:Lib/lvgl/src/misc/lv_async.c **** /*********************
  15:Lib/lvgl/src/misc/lv_async.c ****  *      DEFINES
  16:Lib/lvgl/src/misc/lv_async.c ****  *********************/
  17:Lib/lvgl/src/misc/lv_async.c **** 
  18:Lib/lvgl/src/misc/lv_async.c **** /**********************
  19:Lib/lvgl/src/misc/lv_async.c ****  *      TYPEDEFS
  20:Lib/lvgl/src/misc/lv_async.c ****  **********************/
  21:Lib/lvgl/src/misc/lv_async.c **** 
  22:Lib/lvgl/src/misc/lv_async.c **** typedef struct _lv_async_info_t {
  23:Lib/lvgl/src/misc/lv_async.c ****     lv_async_cb_t cb;
  24:Lib/lvgl/src/misc/lv_async.c ****     void * user_data;
  25:Lib/lvgl/src/misc/lv_async.c **** } lv_async_info_t;
  26:Lib/lvgl/src/misc/lv_async.c **** 
  27:Lib/lvgl/src/misc/lv_async.c **** /**********************
  28:Lib/lvgl/src/misc/lv_async.c ****  *  STATIC PROTOTYPES
  29:Lib/lvgl/src/misc/lv_async.c ****  **********************/
  30:Lib/lvgl/src/misc/lv_async.c **** 
ARM GAS  C:\Users\Alex\AppData\Local\Temp\cce04MdY.s 			page 2


  31:Lib/lvgl/src/misc/lv_async.c **** static void lv_async_timer_cb(lv_timer_t * timer);
  32:Lib/lvgl/src/misc/lv_async.c **** 
  33:Lib/lvgl/src/misc/lv_async.c **** /**********************
  34:Lib/lvgl/src/misc/lv_async.c ****  *  STATIC VARIABLES
  35:Lib/lvgl/src/misc/lv_async.c ****  **********************/
  36:Lib/lvgl/src/misc/lv_async.c **** 
  37:Lib/lvgl/src/misc/lv_async.c **** /**********************
  38:Lib/lvgl/src/misc/lv_async.c ****  *      MACROS
  39:Lib/lvgl/src/misc/lv_async.c ****  **********************/
  40:Lib/lvgl/src/misc/lv_async.c **** 
  41:Lib/lvgl/src/misc/lv_async.c **** /**********************
  42:Lib/lvgl/src/misc/lv_async.c ****  *   GLOBAL FUNCTIONS
  43:Lib/lvgl/src/misc/lv_async.c ****  **********************/
  44:Lib/lvgl/src/misc/lv_async.c **** 
  45:Lib/lvgl/src/misc/lv_async.c **** lv_result_t lv_async_call(lv_async_cb_t async_xcb, void * user_data)
  46:Lib/lvgl/src/misc/lv_async.c **** {
  47:Lib/lvgl/src/misc/lv_async.c ****     /*Allocate an info structure*/
  48:Lib/lvgl/src/misc/lv_async.c ****     lv_async_info_t * info = lv_malloc(sizeof(lv_async_info_t));
  49:Lib/lvgl/src/misc/lv_async.c **** 
  50:Lib/lvgl/src/misc/lv_async.c ****     if(info == NULL)
  51:Lib/lvgl/src/misc/lv_async.c ****         return LV_RESULT_INVALID;
  52:Lib/lvgl/src/misc/lv_async.c **** 
  53:Lib/lvgl/src/misc/lv_async.c ****     /*Create a new timer*/
  54:Lib/lvgl/src/misc/lv_async.c ****     lv_timer_t * timer = lv_timer_create(lv_async_timer_cb, 0, info);
  55:Lib/lvgl/src/misc/lv_async.c **** 
  56:Lib/lvgl/src/misc/lv_async.c ****     if(timer == NULL) {
  57:Lib/lvgl/src/misc/lv_async.c ****         lv_free(info);
  58:Lib/lvgl/src/misc/lv_async.c ****         return LV_RESULT_INVALID;
  59:Lib/lvgl/src/misc/lv_async.c ****     }
  60:Lib/lvgl/src/misc/lv_async.c **** 
  61:Lib/lvgl/src/misc/lv_async.c ****     info->cb = async_xcb;
  62:Lib/lvgl/src/misc/lv_async.c ****     info->user_data = user_data;
  63:Lib/lvgl/src/misc/lv_async.c **** 
  64:Lib/lvgl/src/misc/lv_async.c ****     lv_timer_set_repeat_count(timer, 1);
  65:Lib/lvgl/src/misc/lv_async.c ****     return LV_RESULT_OK;
  66:Lib/lvgl/src/misc/lv_async.c **** }
  67:Lib/lvgl/src/misc/lv_async.c **** 
  68:Lib/lvgl/src/misc/lv_async.c **** lv_result_t lv_async_call_cancel(lv_async_cb_t async_xcb, void * user_data)
  69:Lib/lvgl/src/misc/lv_async.c **** {
  70:Lib/lvgl/src/misc/lv_async.c ****     lv_timer_t * timer = lv_timer_get_next(NULL);
  71:Lib/lvgl/src/misc/lv_async.c ****     lv_result_t res = LV_RESULT_INVALID;
  72:Lib/lvgl/src/misc/lv_async.c **** 
  73:Lib/lvgl/src/misc/lv_async.c ****     while(timer != NULL) {
  74:Lib/lvgl/src/misc/lv_async.c ****         /*Find the next timer node*/
  75:Lib/lvgl/src/misc/lv_async.c ****         lv_timer_t * timer_next = lv_timer_get_next(timer);
  76:Lib/lvgl/src/misc/lv_async.c **** 
  77:Lib/lvgl/src/misc/lv_async.c ****         /*Find async timer callback*/
  78:Lib/lvgl/src/misc/lv_async.c ****         if(timer->timer_cb == lv_async_timer_cb) {
  79:Lib/lvgl/src/misc/lv_async.c ****             lv_async_info_t * info = (lv_async_info_t *)timer->user_data;
  80:Lib/lvgl/src/misc/lv_async.c **** 
  81:Lib/lvgl/src/misc/lv_async.c ****             /*Match user function callback and user data*/
  82:Lib/lvgl/src/misc/lv_async.c ****             if(info->cb == async_xcb && info->user_data == user_data) {
  83:Lib/lvgl/src/misc/lv_async.c ****                 lv_timer_delete(timer);
  84:Lib/lvgl/src/misc/lv_async.c ****                 lv_free(info);
  85:Lib/lvgl/src/misc/lv_async.c ****                 res = LV_RESULT_OK;
  86:Lib/lvgl/src/misc/lv_async.c ****             }
  87:Lib/lvgl/src/misc/lv_async.c ****         }
ARM GAS  C:\Users\Alex\AppData\Local\Temp\cce04MdY.s 			page 3


  88:Lib/lvgl/src/misc/lv_async.c **** 
  89:Lib/lvgl/src/misc/lv_async.c ****         timer = timer_next;
  90:Lib/lvgl/src/misc/lv_async.c ****     }
  91:Lib/lvgl/src/misc/lv_async.c **** 
  92:Lib/lvgl/src/misc/lv_async.c ****     return res;
  93:Lib/lvgl/src/misc/lv_async.c **** }
  94:Lib/lvgl/src/misc/lv_async.c **** 
  95:Lib/lvgl/src/misc/lv_async.c **** /**********************
  96:Lib/lvgl/src/misc/lv_async.c ****  *   STATIC FUNCTIONS
  97:Lib/lvgl/src/misc/lv_async.c ****  **********************/
  98:Lib/lvgl/src/misc/lv_async.c **** 
  99:Lib/lvgl/src/misc/lv_async.c **** static void lv_async_timer_cb(lv_timer_t * timer)
 100:Lib/lvgl/src/misc/lv_async.c **** {
  29              		.loc 1 100 1 view -0
  30              		.cfi_startproc
  31              		@ args = 0, pretend = 0, frame = 8
  32              		@ frame_needed = 0, uses_anonymous_args = 0
  33              		.loc 1 100 1 is_stmt 0 view .LVU1
  34 0000 10B5     		push	{r4, lr}
  35              	.LCFI0:
  36              		.cfi_def_cfa_offset 8
  37              		.cfi_offset 4, -8
  38              		.cfi_offset 14, -4
  39 0002 82B0     		sub	sp, sp, #8
  40              	.LCFI1:
  41              		.cfi_def_cfa_offset 16
  42 0004 0346     		mov	r3, r0
 101:Lib/lvgl/src/misc/lv_async.c ****     /*Save the info because an lv_async_call_cancel might delete it in the callback*/
 102:Lib/lvgl/src/misc/lv_async.c ****     lv_async_info_t * info = (lv_async_info_t *)timer->user_data;
  43              		.loc 1 102 5 is_stmt 1 view .LVU2
  44              		.loc 1 102 23 is_stmt 0 view .LVU3
  45 0006 C468     		ldr	r4, [r0, #12]
  46              	.LVL1:
 103:Lib/lvgl/src/misc/lv_async.c ****     lv_async_info_t info_save = *info;
  47              		.loc 1 103 5 is_stmt 1 view .LVU4
  48              		.loc 1 103 21 is_stmt 0 view .LVU5
  49 0008 94E80300 		ldm	r4, {r0, r1}
  50              	.LVL2:
  51              		.loc 1 103 21 view .LVU6
  52 000c 02AA     		add	r2, sp, #8
  53 000e 02E90300 		stmdb	r2, {r0, r1}
 104:Lib/lvgl/src/misc/lv_async.c ****     lv_timer_delete(timer);
  54              		.loc 1 104 5 is_stmt 1 view .LVU7
  55 0012 1846     		mov	r0, r3
  56 0014 FFF7FEFF 		bl	lv_timer_delete
  57              	.LVL3:
 105:Lib/lvgl/src/misc/lv_async.c ****     lv_free(info);
  58              		.loc 1 105 5 view .LVU8
  59 0018 2046     		mov	r0, r4
  60 001a FFF7FEFF 		bl	lv_free
  61              	.LVL4:
 106:Lib/lvgl/src/misc/lv_async.c **** 
 107:Lib/lvgl/src/misc/lv_async.c ****     info_save.cb(info_save.user_data);
  62              		.loc 1 107 5 view .LVU9
  63 001e 0198     		ldr	r0, [sp, #4]
  64 0020 009B     		ldr	r3, [sp]
  65 0022 9847     		blx	r3
ARM GAS  C:\Users\Alex\AppData\Local\Temp\cce04MdY.s 			page 4


  66              	.LVL5:
 108:Lib/lvgl/src/misc/lv_async.c **** }
  67              		.loc 1 108 1 is_stmt 0 view .LVU10
  68 0024 02B0     		add	sp, sp, #8
  69              	.LCFI2:
  70              		.cfi_def_cfa_offset 8
  71              		@ sp needed
  72 0026 10BD     		pop	{r4, pc}
  73              		.loc 1 108 1 view .LVU11
  74              		.cfi_endproc
  75              	.LFE6:
  77              		.section	.text.lv_async_call,"ax",%progbits
  78              		.align	1
  79              		.global	lv_async_call
  80              		.syntax unified
  81              		.thumb
  82              		.thumb_func
  84              	lv_async_call:
  85              	.LVL6:
  86              	.LFB4:
  46:Lib/lvgl/src/misc/lv_async.c ****     /*Allocate an info structure*/
  87              		.loc 1 46 1 is_stmt 1 view -0
  88              		.cfi_startproc
  89              		@ args = 0, pretend = 0, frame = 0
  90              		@ frame_needed = 0, uses_anonymous_args = 0
  46:Lib/lvgl/src/misc/lv_async.c ****     /*Allocate an info structure*/
  91              		.loc 1 46 1 is_stmt 0 view .LVU13
  92 0000 70B5     		push	{r4, r5, r6, lr}
  93              	.LCFI3:
  94              		.cfi_def_cfa_offset 16
  95              		.cfi_offset 4, -16
  96              		.cfi_offset 5, -12
  97              		.cfi_offset 6, -8
  98              		.cfi_offset 14, -4
  99 0002 0546     		mov	r5, r0
 100 0004 0C46     		mov	r4, r1
  48:Lib/lvgl/src/misc/lv_async.c **** 
 101              		.loc 1 48 5 is_stmt 1 view .LVU14
  48:Lib/lvgl/src/misc/lv_async.c **** 
 102              		.loc 1 48 30 is_stmt 0 view .LVU15
 103 0006 0820     		movs	r0, #8
 104              	.LVL7:
  48:Lib/lvgl/src/misc/lv_async.c **** 
 105              		.loc 1 48 30 view .LVU16
 106 0008 FFF7FEFF 		bl	lv_malloc
 107              	.LVL8:
  50:Lib/lvgl/src/misc/lv_async.c ****         return LV_RESULT_INVALID;
 108              		.loc 1 50 5 is_stmt 1 view .LVU17
  50:Lib/lvgl/src/misc/lv_async.c ****         return LV_RESULT_INVALID;
 109              		.loc 1 50 7 is_stmt 0 view .LVU18
 110 000c 90B1     		cbz	r0, .L6
 111 000e 0646     		mov	r6, r0
  54:Lib/lvgl/src/misc/lv_async.c **** 
 112              		.loc 1 54 5 is_stmt 1 view .LVU19
  54:Lib/lvgl/src/misc/lv_async.c **** 
 113              		.loc 1 54 26 is_stmt 0 view .LVU20
 114 0010 0246     		mov	r2, r0
ARM GAS  C:\Users\Alex\AppData\Local\Temp\cce04MdY.s 			page 5


 115 0012 0021     		movs	r1, #0
 116 0014 0848     		ldr	r0, .L9
 117              	.LVL9:
  54:Lib/lvgl/src/misc/lv_async.c **** 
 118              		.loc 1 54 26 view .LVU21
 119 0016 FFF7FEFF 		bl	lv_timer_create
 120              	.LVL10:
  56:Lib/lvgl/src/misc/lv_async.c ****         lv_free(info);
 121              		.loc 1 56 5 is_stmt 1 view .LVU22
  56:Lib/lvgl/src/misc/lv_async.c ****         lv_free(info);
 122              		.loc 1 56 7 is_stmt 0 view .LVU23
 123 001a 30B1     		cbz	r0, .L8
  61:Lib/lvgl/src/misc/lv_async.c ****     info->user_data = user_data;
 124              		.loc 1 61 5 is_stmt 1 view .LVU24
  61:Lib/lvgl/src/misc/lv_async.c ****     info->user_data = user_data;
 125              		.loc 1 61 14 is_stmt 0 view .LVU25
 126 001c 3560     		str	r5, [r6]
  62:Lib/lvgl/src/misc/lv_async.c **** 
 127              		.loc 1 62 5 is_stmt 1 view .LVU26
  62:Lib/lvgl/src/misc/lv_async.c **** 
 128              		.loc 1 62 21 is_stmt 0 view .LVU27
 129 001e 7460     		str	r4, [r6, #4]
  64:Lib/lvgl/src/misc/lv_async.c ****     return LV_RESULT_OK;
 130              		.loc 1 64 5 is_stmt 1 view .LVU28
 131 0020 0121     		movs	r1, #1
 132 0022 FFF7FEFF 		bl	lv_timer_set_repeat_count
 133              	.LVL11:
  65:Lib/lvgl/src/misc/lv_async.c **** }
 134              		.loc 1 65 5 view .LVU29
  65:Lib/lvgl/src/misc/lv_async.c **** }
 135              		.loc 1 65 12 is_stmt 0 view .LVU30
 136 0026 0120     		movs	r0, #1
 137              	.LVL12:
 138              	.L4:
  66:Lib/lvgl/src/misc/lv_async.c **** 
 139              		.loc 1 66 1 view .LVU31
 140 0028 70BD     		pop	{r4, r5, r6, pc}
 141              	.LVL13:
 142              	.L8:
  57:Lib/lvgl/src/misc/lv_async.c ****         return LV_RESULT_INVALID;
 143              		.loc 1 57 9 is_stmt 1 view .LVU32
 144 002a 3046     		mov	r0, r6
 145              	.LVL14:
  57:Lib/lvgl/src/misc/lv_async.c ****         return LV_RESULT_INVALID;
 146              		.loc 1 57 9 is_stmt 0 view .LVU33
 147 002c FFF7FEFF 		bl	lv_free
 148              	.LVL15:
  58:Lib/lvgl/src/misc/lv_async.c ****     }
 149              		.loc 1 58 9 is_stmt 1 view .LVU34
  58:Lib/lvgl/src/misc/lv_async.c ****     }
 150              		.loc 1 58 16 is_stmt 0 view .LVU35
 151 0030 0020     		movs	r0, #0
 152 0032 F9E7     		b	.L4
 153              	.LVL16:
 154              	.L6:
  51:Lib/lvgl/src/misc/lv_async.c **** 
 155              		.loc 1 51 16 view .LVU36
ARM GAS  C:\Users\Alex\AppData\Local\Temp\cce04MdY.s 			page 6


 156 0034 0020     		movs	r0, #0
 157              	.LVL17:
  51:Lib/lvgl/src/misc/lv_async.c **** 
 158              		.loc 1 51 16 view .LVU37
 159 0036 F7E7     		b	.L4
 160              	.L10:
 161              		.align	2
 162              	.L9:
 163 0038 00000000 		.word	lv_async_timer_cb
 164              		.cfi_endproc
 165              	.LFE4:
 167              		.section	.text.lv_async_call_cancel,"ax",%progbits
 168              		.align	1
 169              		.global	lv_async_call_cancel
 170              		.syntax unified
 171              		.thumb
 172              		.thumb_func
 174              	lv_async_call_cancel:
 175              	.LVL18:
 176              	.LFB5:
  69:Lib/lvgl/src/misc/lv_async.c ****     lv_timer_t * timer = lv_timer_get_next(NULL);
 177              		.loc 1 69 1 is_stmt 1 view -0
 178              		.cfi_startproc
 179              		@ args = 0, pretend = 0, frame = 0
 180              		@ frame_needed = 0, uses_anonymous_args = 0
  69:Lib/lvgl/src/misc/lv_async.c ****     lv_timer_t * timer = lv_timer_get_next(NULL);
 181              		.loc 1 69 1 is_stmt 0 view .LVU39
 182 0000 2DE9F843 		push	{r3, r4, r5, r6, r7, r8, r9, lr}
 183              	.LCFI4:
 184              		.cfi_def_cfa_offset 32
 185              		.cfi_offset 3, -32
 186              		.cfi_offset 4, -28
 187              		.cfi_offset 5, -24
 188              		.cfi_offset 6, -20
 189              		.cfi_offset 7, -16
 190              		.cfi_offset 8, -12
 191              		.cfi_offset 9, -8
 192              		.cfi_offset 14, -4
 193 0004 0646     		mov	r6, r0
 194 0006 0F46     		mov	r7, r1
  70:Lib/lvgl/src/misc/lv_async.c ****     lv_result_t res = LV_RESULT_INVALID;
 195              		.loc 1 70 5 is_stmt 1 view .LVU40
  70:Lib/lvgl/src/misc/lv_async.c ****     lv_result_t res = LV_RESULT_INVALID;
 196              		.loc 1 70 26 is_stmt 0 view .LVU41
 197 0008 0020     		movs	r0, #0
 198              	.LVL19:
  70:Lib/lvgl/src/misc/lv_async.c ****     lv_result_t res = LV_RESULT_INVALID;
 199              		.loc 1 70 26 view .LVU42
 200 000a FFF7FEFF 		bl	lv_timer_get_next
 201              	.LVL20:
  70:Lib/lvgl/src/misc/lv_async.c ****     lv_result_t res = LV_RESULT_INVALID;
 202              		.loc 1 70 26 view .LVU43
 203 000e 0446     		mov	r4, r0
 204              	.LVL21:
  71:Lib/lvgl/src/misc/lv_async.c **** 
 205              		.loc 1 71 5 is_stmt 1 view .LVU44
  73:Lib/lvgl/src/misc/lv_async.c ****         /*Find the next timer node*/
ARM GAS  C:\Users\Alex\AppData\Local\Temp\cce04MdY.s 			page 7


 206              		.loc 1 73 5 view .LVU45
  71:Lib/lvgl/src/misc/lv_async.c **** 
 207              		.loc 1 71 17 is_stmt 0 view .LVU46
 208 0010 4FF00008 		mov	r8, #0
  73:Lib/lvgl/src/misc/lv_async.c ****         /*Find the next timer node*/
 209              		.loc 1 73 10 view .LVU47
 210 0014 00E0     		b	.L12
 211              	.LVL22:
 212              	.L13:
 213              	.LBB2:
 214              	.LBB3:
  85:Lib/lvgl/src/misc/lv_async.c ****             }
 215              		.loc 1 85 21 view .LVU48
 216 0016 2C46     		mov	r4, r5
 217              	.LVL23:
 218              	.L12:
  85:Lib/lvgl/src/misc/lv_async.c ****             }
 219              		.loc 1 85 21 view .LVU49
 220              	.LBE3:
 221              	.LBE2:
  73:Lib/lvgl/src/misc/lv_async.c ****         /*Find the next timer node*/
 222              		.loc 1 73 17 is_stmt 1 view .LVU50
 223 0018 D4B1     		cbz	r4, .L16
 224              	.LBB5:
  75:Lib/lvgl/src/misc/lv_async.c **** 
 225              		.loc 1 75 9 view .LVU51
  75:Lib/lvgl/src/misc/lv_async.c **** 
 226              		.loc 1 75 35 is_stmt 0 view .LVU52
 227 001a 2046     		mov	r0, r4
 228 001c FFF7FEFF 		bl	lv_timer_get_next
 229              	.LVL24:
 230 0020 0546     		mov	r5, r0
 231              	.LVL25:
  78:Lib/lvgl/src/misc/lv_async.c ****             lv_async_info_t * info = (lv_async_info_t *)timer->user_data;
 232              		.loc 1 78 9 is_stmt 1 view .LVU53
  78:Lib/lvgl/src/misc/lv_async.c ****             lv_async_info_t * info = (lv_async_info_t *)timer->user_data;
 233              		.loc 1 78 17 is_stmt 0 view .LVU54
 234 0022 A268     		ldr	r2, [r4, #8]
  78:Lib/lvgl/src/misc/lv_async.c ****             lv_async_info_t * info = (lv_async_info_t *)timer->user_data;
 235              		.loc 1 78 11 view .LVU55
 236 0024 0C4B     		ldr	r3, .L17
 237 0026 9A42     		cmp	r2, r3
 238 0028 F5D1     		bne	.L13
 239              	.LBB4:
  79:Lib/lvgl/src/misc/lv_async.c **** 
 240              		.loc 1 79 13 is_stmt 1 view .LVU56
  79:Lib/lvgl/src/misc/lv_async.c **** 
 241              		.loc 1 79 31 is_stmt 0 view .LVU57
 242 002a D4F80C90 		ldr	r9, [r4, #12]
 243              	.LVL26:
  82:Lib/lvgl/src/misc/lv_async.c ****                 lv_timer_delete(timer);
 244              		.loc 1 82 13 is_stmt 1 view .LVU58
  82:Lib/lvgl/src/misc/lv_async.c ****                 lv_timer_delete(timer);
 245              		.loc 1 82 20 is_stmt 0 view .LVU59
 246 002e D9F80030 		ldr	r3, [r9]
  82:Lib/lvgl/src/misc/lv_async.c ****                 lv_timer_delete(timer);
 247              		.loc 1 82 15 view .LVU60
ARM GAS  C:\Users\Alex\AppData\Local\Temp\cce04MdY.s 			page 8


 248 0032 B342     		cmp	r3, r6
 249 0034 EFD1     		bne	.L13
  82:Lib/lvgl/src/misc/lv_async.c ****                 lv_timer_delete(timer);
 250              		.loc 1 82 45 discriminator 1 view .LVU61
 251 0036 D9F80430 		ldr	r3, [r9, #4]
  82:Lib/lvgl/src/misc/lv_async.c ****                 lv_timer_delete(timer);
 252              		.loc 1 82 38 discriminator 1 view .LVU62
 253 003a BB42     		cmp	r3, r7
 254 003c EBD1     		bne	.L13
  83:Lib/lvgl/src/misc/lv_async.c ****                 lv_free(info);
 255              		.loc 1 83 17 is_stmt 1 view .LVU63
 256 003e 2046     		mov	r0, r4
 257              	.LVL27:
  83:Lib/lvgl/src/misc/lv_async.c ****                 lv_free(info);
 258              		.loc 1 83 17 is_stmt 0 view .LVU64
 259 0040 FFF7FEFF 		bl	lv_timer_delete
 260              	.LVL28:
  84:Lib/lvgl/src/misc/lv_async.c ****                 res = LV_RESULT_OK;
 261              		.loc 1 84 17 is_stmt 1 view .LVU65
 262 0044 4846     		mov	r0, r9
 263 0046 FFF7FEFF 		bl	lv_free
 264              	.LVL29:
  85:Lib/lvgl/src/misc/lv_async.c ****             }
 265              		.loc 1 85 17 view .LVU66
  85:Lib/lvgl/src/misc/lv_async.c ****             }
 266              		.loc 1 85 21 is_stmt 0 view .LVU67
 267 004a 4FF00108 		mov	r8, #1
 268 004e E2E7     		b	.L13
 269              	.LVL30:
 270              	.L16:
  85:Lib/lvgl/src/misc/lv_async.c ****             }
 271              		.loc 1 85 21 view .LVU68
 272              	.LBE4:
 273              	.LBE5:
  92:Lib/lvgl/src/misc/lv_async.c **** }
 274              		.loc 1 92 5 is_stmt 1 view .LVU69
  93:Lib/lvgl/src/misc/lv_async.c **** 
 275              		.loc 1 93 1 is_stmt 0 view .LVU70
 276 0050 4046     		mov	r0, r8
 277 0052 BDE8F883 		pop	{r3, r4, r5, r6, r7, r8, r9, pc}
 278              	.LVL31:
 279              	.L18:
  93:Lib/lvgl/src/misc/lv_async.c **** 
 280              		.loc 1 93 1 view .LVU71
 281 0056 00BF     		.align	2
 282              	.L17:
 283 0058 00000000 		.word	lv_async_timer_cb
 284              		.cfi_endproc
 285              	.LFE5:
 287              		.text
 288              	.Letext0:
 289              		.file 2 "e:\\programms\\gnu_mcu_eclipse\\toolchain\\arm-gnu-toolchain-12.2.mpacbti-bet1-mingw-w64-
 290              		.file 3 "e:\\programms\\gnu_mcu_eclipse\\toolchain\\arm-gnu-toolchain-12.2.mpacbti-bet1-mingw-w64-
 291              		.file 4 "Lib/lvgl/src/misc/lv_types.h"
 292              		.file 5 "Lib/lvgl/src/misc/lv_timer.h"
 293              		.file 6 "Lib/lvgl/src/misc/lv_async.h"
 294              		.file 7 "e:\\programms\\gnu_mcu_eclipse\\toolchain\\arm-gnu-toolchain-12.2.mpacbti-bet1-mingw-w64-
ARM GAS  C:\Users\Alex\AppData\Local\Temp\cce04MdY.s 			page 9


 295              		.file 8 "Lib/lvgl/src/misc/../stdlib/lv_mem.h"
ARM GAS  C:\Users\Alex\AppData\Local\Temp\cce04MdY.s 			page 10

