ARM GAS  C:\Users\Alex\AppData\Local\Temp\cczgZ6vp.s 			page 1


   1              		.cpu cortex-m4
   2              		.arch armv7e-m
   3              		.fpu fpv4-sp-d16
   4              		.eabi_attribute 27, 1
   5              		.eabi_attribute 28, 1
   6              		.eabi_attribute 20, 1
   7              		.eabi_attribute 21, 1
   8              		.eabi_attribute 23, 3
   9              		.eabi_attribute 24, 1
  10              		.eabi_attribute 25, 1
  11              		.eabi_attribute 26, 1
  12              		.eabi_attribute 30, 1
  13              		.eabi_attribute 34, 1
  14              		.eabi_attribute 18, 4
  15              		.file	"lv_arc.c"
  16              		.text
  17              	.Ltext0:
  18              		.cfi_sections	.debug_frame
  19              		.file 1 "Lib/lvgl/src/widgets/arc/lv_arc.c"
  20              		.section	.text.get_angle,"ax",%progbits
  21              		.align	1
  22              		.syntax unified
  23              		.thumb
  24              		.thumb_func
  26              	get_angle:
  27              	.LVL0:
  28              	.LFB264:
   1:Lib/lvgl/src/widgets/arc/lv_arc.c **** /**
   2:Lib/lvgl/src/widgets/arc/lv_arc.c ****  * @file lv_arc.c
   3:Lib/lvgl/src/widgets/arc/lv_arc.c ****  *
   4:Lib/lvgl/src/widgets/arc/lv_arc.c ****  */
   5:Lib/lvgl/src/widgets/arc/lv_arc.c **** 
   6:Lib/lvgl/src/widgets/arc/lv_arc.c **** /*********************
   7:Lib/lvgl/src/widgets/arc/lv_arc.c ****  *      INCLUDES
   8:Lib/lvgl/src/widgets/arc/lv_arc.c ****  *********************/
   9:Lib/lvgl/src/widgets/arc/lv_arc.c **** #include "lv_arc.h"
  10:Lib/lvgl/src/widgets/arc/lv_arc.c **** #if LV_USE_ARC != 0
  11:Lib/lvgl/src/widgets/arc/lv_arc.c **** 
  12:Lib/lvgl/src/widgets/arc/lv_arc.c **** #include "../../core/lv_group.h"
  13:Lib/lvgl/src/widgets/arc/lv_arc.c **** #include "../../indev/lv_indev.h"
  14:Lib/lvgl/src/widgets/arc/lv_arc.c **** #include "../../misc/lv_assert.h"
  15:Lib/lvgl/src/widgets/arc/lv_arc.c **** #include "../../misc/lv_math.h"
  16:Lib/lvgl/src/widgets/arc/lv_arc.c **** #include "../../draw/lv_draw_arc.h"
  17:Lib/lvgl/src/widgets/arc/lv_arc.c **** 
  18:Lib/lvgl/src/widgets/arc/lv_arc.c **** /*********************
  19:Lib/lvgl/src/widgets/arc/lv_arc.c ****  *      DEFINES
  20:Lib/lvgl/src/widgets/arc/lv_arc.c ****  *********************/
  21:Lib/lvgl/src/widgets/arc/lv_arc.c **** #define MY_CLASS &lv_arc_class
  22:Lib/lvgl/src/widgets/arc/lv_arc.c **** 
  23:Lib/lvgl/src/widgets/arc/lv_arc.c **** #define VALUE_UNSET INT16_MIN
  24:Lib/lvgl/src/widgets/arc/lv_arc.c **** #define CLICK_OUTSIDE_BG_ANGLES ((uint32_t) 0x00U)
  25:Lib/lvgl/src/widgets/arc/lv_arc.c **** #define CLICK_INSIDE_BG_ANGLES  ((uint32_t) 0x01U)
  26:Lib/lvgl/src/widgets/arc/lv_arc.c **** #define CLICK_CLOSER_TO_MAX_END ((uint32_t) 0x00U)
  27:Lib/lvgl/src/widgets/arc/lv_arc.c **** #define CLICK_CLOSER_TO_MIN_END ((uint32_t) 0x01U)
  28:Lib/lvgl/src/widgets/arc/lv_arc.c **** 
  29:Lib/lvgl/src/widgets/arc/lv_arc.c **** /**********************
  30:Lib/lvgl/src/widgets/arc/lv_arc.c ****  *      TYPEDEFS
ARM GAS  C:\Users\Alex\AppData\Local\Temp\cczgZ6vp.s 			page 2


  31:Lib/lvgl/src/widgets/arc/lv_arc.c ****  **********************/
  32:Lib/lvgl/src/widgets/arc/lv_arc.c **** 
  33:Lib/lvgl/src/widgets/arc/lv_arc.c **** /**********************
  34:Lib/lvgl/src/widgets/arc/lv_arc.c ****  *  STATIC PROTOTYPES
  35:Lib/lvgl/src/widgets/arc/lv_arc.c ****  **********************/
  36:Lib/lvgl/src/widgets/arc/lv_arc.c **** 
  37:Lib/lvgl/src/widgets/arc/lv_arc.c **** static void lv_arc_constructor(const lv_obj_class_t * class_p, lv_obj_t * obj);
  38:Lib/lvgl/src/widgets/arc/lv_arc.c **** static void lv_arc_draw(lv_event_t * e);
  39:Lib/lvgl/src/widgets/arc/lv_arc.c **** static void lv_arc_event(const lv_obj_class_t * class_p, lv_event_t * e);
  40:Lib/lvgl/src/widgets/arc/lv_arc.c **** static void inv_arc_area(lv_obj_t * arc, lv_value_precise_t start_angle, lv_value_precise_t end_ang
  41:Lib/lvgl/src/widgets/arc/lv_arc.c **** static void inv_knob_area(lv_obj_t * obj);
  42:Lib/lvgl/src/widgets/arc/lv_arc.c **** static void get_center(const lv_obj_t * obj, lv_point_t * center, int32_t * arc_r);
  43:Lib/lvgl/src/widgets/arc/lv_arc.c **** static lv_value_precise_t get_angle(const lv_obj_t * obj);
  44:Lib/lvgl/src/widgets/arc/lv_arc.c **** static void get_knob_area(lv_obj_t * arc, const lv_point_t * center, int32_t r, lv_area_t * knob_ar
  45:Lib/lvgl/src/widgets/arc/lv_arc.c **** static void value_update(lv_obj_t * arc);
  46:Lib/lvgl/src/widgets/arc/lv_arc.c **** static int32_t knob_get_extra_size(lv_obj_t * obj);
  47:Lib/lvgl/src/widgets/arc/lv_arc.c **** static bool lv_arc_angle_within_bg_bounds(lv_obj_t * obj, const lv_value_precise_t angle,
  48:Lib/lvgl/src/widgets/arc/lv_arc.c ****                                           const lv_value_precise_t tolerance_deg);
  49:Lib/lvgl/src/widgets/arc/lv_arc.c **** 
  50:Lib/lvgl/src/widgets/arc/lv_arc.c **** /**********************
  51:Lib/lvgl/src/widgets/arc/lv_arc.c ****  *  STATIC VARIABLES
  52:Lib/lvgl/src/widgets/arc/lv_arc.c ****  **********************/
  53:Lib/lvgl/src/widgets/arc/lv_arc.c **** const lv_obj_class_t lv_arc_class  = {
  54:Lib/lvgl/src/widgets/arc/lv_arc.c ****     .constructor_cb = lv_arc_constructor,
  55:Lib/lvgl/src/widgets/arc/lv_arc.c ****     .event_cb = lv_arc_event,
  56:Lib/lvgl/src/widgets/arc/lv_arc.c ****     .instance_size = sizeof(lv_arc_t),
  57:Lib/lvgl/src/widgets/arc/lv_arc.c ****     .editable = LV_OBJ_CLASS_EDITABLE_TRUE,
  58:Lib/lvgl/src/widgets/arc/lv_arc.c ****     .base_class = &lv_obj_class,
  59:Lib/lvgl/src/widgets/arc/lv_arc.c ****     .name = "arc",
  60:Lib/lvgl/src/widgets/arc/lv_arc.c **** };
  61:Lib/lvgl/src/widgets/arc/lv_arc.c **** 
  62:Lib/lvgl/src/widgets/arc/lv_arc.c **** /**********************
  63:Lib/lvgl/src/widgets/arc/lv_arc.c ****  *      MACROS
  64:Lib/lvgl/src/widgets/arc/lv_arc.c ****  **********************/
  65:Lib/lvgl/src/widgets/arc/lv_arc.c **** 
  66:Lib/lvgl/src/widgets/arc/lv_arc.c **** /**********************
  67:Lib/lvgl/src/widgets/arc/lv_arc.c ****  *   GLOBAL FUNCTIONS
  68:Lib/lvgl/src/widgets/arc/lv_arc.c ****  **********************/
  69:Lib/lvgl/src/widgets/arc/lv_arc.c **** 
  70:Lib/lvgl/src/widgets/arc/lv_arc.c **** lv_obj_t * lv_arc_create(lv_obj_t * parent)
  71:Lib/lvgl/src/widgets/arc/lv_arc.c **** {
  72:Lib/lvgl/src/widgets/arc/lv_arc.c ****     LV_LOG_INFO("begin");
  73:Lib/lvgl/src/widgets/arc/lv_arc.c ****     lv_obj_t * obj = lv_obj_class_create_obj(MY_CLASS, parent);
  74:Lib/lvgl/src/widgets/arc/lv_arc.c ****     lv_obj_class_init_obj(obj);
  75:Lib/lvgl/src/widgets/arc/lv_arc.c ****     return obj;
  76:Lib/lvgl/src/widgets/arc/lv_arc.c **** }
  77:Lib/lvgl/src/widgets/arc/lv_arc.c **** 
  78:Lib/lvgl/src/widgets/arc/lv_arc.c **** /*======================
  79:Lib/lvgl/src/widgets/arc/lv_arc.c ****  * Add/remove functions
  80:Lib/lvgl/src/widgets/arc/lv_arc.c ****  *=====================*/
  81:Lib/lvgl/src/widgets/arc/lv_arc.c **** 
  82:Lib/lvgl/src/widgets/arc/lv_arc.c **** /*
  83:Lib/lvgl/src/widgets/arc/lv_arc.c ****  * New object specific "add" or "remove" functions come here
  84:Lib/lvgl/src/widgets/arc/lv_arc.c ****  */
  85:Lib/lvgl/src/widgets/arc/lv_arc.c **** 
  86:Lib/lvgl/src/widgets/arc/lv_arc.c **** /*=====================
  87:Lib/lvgl/src/widgets/arc/lv_arc.c ****  * Setter functions
ARM GAS  C:\Users\Alex\AppData\Local\Temp\cczgZ6vp.s 			page 3


  88:Lib/lvgl/src/widgets/arc/lv_arc.c ****  *====================*/
  89:Lib/lvgl/src/widgets/arc/lv_arc.c **** 
  90:Lib/lvgl/src/widgets/arc/lv_arc.c **** void lv_arc_set_start_angle(lv_obj_t * obj, lv_value_precise_t start)
  91:Lib/lvgl/src/widgets/arc/lv_arc.c **** {
  92:Lib/lvgl/src/widgets/arc/lv_arc.c ****     LV_ASSERT_OBJ(obj, MY_CLASS);
  93:Lib/lvgl/src/widgets/arc/lv_arc.c ****     lv_arc_t * arc = (lv_arc_t *)obj;
  94:Lib/lvgl/src/widgets/arc/lv_arc.c **** 
  95:Lib/lvgl/src/widgets/arc/lv_arc.c ****     if(start > 360) start -= 360;
  96:Lib/lvgl/src/widgets/arc/lv_arc.c **** 
  97:Lib/lvgl/src/widgets/arc/lv_arc.c ****     lv_value_precise_t old_delta = arc->indic_angle_end - arc->indic_angle_start;
  98:Lib/lvgl/src/widgets/arc/lv_arc.c ****     lv_value_precise_t new_delta = arc->indic_angle_end - start;
  99:Lib/lvgl/src/widgets/arc/lv_arc.c **** 
 100:Lib/lvgl/src/widgets/arc/lv_arc.c ****     if(old_delta < 0) old_delta = 360 + old_delta;
 101:Lib/lvgl/src/widgets/arc/lv_arc.c ****     if(new_delta < 0) new_delta = 360 + new_delta;
 102:Lib/lvgl/src/widgets/arc/lv_arc.c **** 
 103:Lib/lvgl/src/widgets/arc/lv_arc.c ****     if(LV_ABS(new_delta - old_delta) > 180)  lv_obj_invalidate(obj);
 104:Lib/lvgl/src/widgets/arc/lv_arc.c ****     else if(new_delta < old_delta) inv_arc_area(obj, arc->indic_angle_start, start, LV_PART_INDICAT
 105:Lib/lvgl/src/widgets/arc/lv_arc.c ****     else if(old_delta < new_delta) inv_arc_area(obj, start, arc->indic_angle_start, LV_PART_INDICAT
 106:Lib/lvgl/src/widgets/arc/lv_arc.c **** 
 107:Lib/lvgl/src/widgets/arc/lv_arc.c ****     inv_knob_area(obj);
 108:Lib/lvgl/src/widgets/arc/lv_arc.c **** 
 109:Lib/lvgl/src/widgets/arc/lv_arc.c ****     arc->indic_angle_start = start;
 110:Lib/lvgl/src/widgets/arc/lv_arc.c **** 
 111:Lib/lvgl/src/widgets/arc/lv_arc.c ****     inv_knob_area(obj);
 112:Lib/lvgl/src/widgets/arc/lv_arc.c **** }
 113:Lib/lvgl/src/widgets/arc/lv_arc.c **** 
 114:Lib/lvgl/src/widgets/arc/lv_arc.c **** void lv_arc_set_end_angle(lv_obj_t * obj, lv_value_precise_t end)
 115:Lib/lvgl/src/widgets/arc/lv_arc.c **** {
 116:Lib/lvgl/src/widgets/arc/lv_arc.c ****     LV_ASSERT_OBJ(obj, MY_CLASS);
 117:Lib/lvgl/src/widgets/arc/lv_arc.c ****     lv_arc_t * arc = (lv_arc_t *)obj;
 118:Lib/lvgl/src/widgets/arc/lv_arc.c ****     if(end > 360) end -= 360;
 119:Lib/lvgl/src/widgets/arc/lv_arc.c **** 
 120:Lib/lvgl/src/widgets/arc/lv_arc.c ****     lv_value_precise_t old_delta = arc->indic_angle_end - arc->indic_angle_start;
 121:Lib/lvgl/src/widgets/arc/lv_arc.c ****     lv_value_precise_t new_delta = end - arc->indic_angle_start;
 122:Lib/lvgl/src/widgets/arc/lv_arc.c **** 
 123:Lib/lvgl/src/widgets/arc/lv_arc.c ****     if(old_delta < 0) old_delta = 360 + old_delta;
 124:Lib/lvgl/src/widgets/arc/lv_arc.c ****     if(new_delta < 0) new_delta = 360 + new_delta;
 125:Lib/lvgl/src/widgets/arc/lv_arc.c **** 
 126:Lib/lvgl/src/widgets/arc/lv_arc.c ****     if(LV_ABS(new_delta - old_delta) > 180)  lv_obj_invalidate(obj);
 127:Lib/lvgl/src/widgets/arc/lv_arc.c ****     else if(new_delta < old_delta) inv_arc_area(obj, end, arc->indic_angle_end, LV_PART_INDICATOR);
 128:Lib/lvgl/src/widgets/arc/lv_arc.c ****     else if(old_delta < new_delta) inv_arc_area(obj, arc->indic_angle_end, end, LV_PART_INDICATOR);
 129:Lib/lvgl/src/widgets/arc/lv_arc.c **** 
 130:Lib/lvgl/src/widgets/arc/lv_arc.c ****     inv_knob_area(obj);
 131:Lib/lvgl/src/widgets/arc/lv_arc.c **** 
 132:Lib/lvgl/src/widgets/arc/lv_arc.c ****     arc->indic_angle_end = end;
 133:Lib/lvgl/src/widgets/arc/lv_arc.c **** 
 134:Lib/lvgl/src/widgets/arc/lv_arc.c ****     inv_knob_area(obj);
 135:Lib/lvgl/src/widgets/arc/lv_arc.c **** }
 136:Lib/lvgl/src/widgets/arc/lv_arc.c **** 
 137:Lib/lvgl/src/widgets/arc/lv_arc.c **** void lv_arc_set_angles(lv_obj_t * obj, lv_value_precise_t start, lv_value_precise_t end)
 138:Lib/lvgl/src/widgets/arc/lv_arc.c **** {
 139:Lib/lvgl/src/widgets/arc/lv_arc.c ****     lv_arc_set_end_angle(obj, end);
 140:Lib/lvgl/src/widgets/arc/lv_arc.c ****     lv_arc_set_start_angle(obj, start);
 141:Lib/lvgl/src/widgets/arc/lv_arc.c **** }
 142:Lib/lvgl/src/widgets/arc/lv_arc.c **** 
 143:Lib/lvgl/src/widgets/arc/lv_arc.c **** void lv_arc_set_bg_start_angle(lv_obj_t * obj, lv_value_precise_t start)
 144:Lib/lvgl/src/widgets/arc/lv_arc.c **** {
ARM GAS  C:\Users\Alex\AppData\Local\Temp\cczgZ6vp.s 			page 4


 145:Lib/lvgl/src/widgets/arc/lv_arc.c ****     LV_ASSERT_OBJ(obj, MY_CLASS);
 146:Lib/lvgl/src/widgets/arc/lv_arc.c ****     lv_arc_t * arc = (lv_arc_t *)obj;
 147:Lib/lvgl/src/widgets/arc/lv_arc.c **** 
 148:Lib/lvgl/src/widgets/arc/lv_arc.c ****     if(start > 360) start -= 360;
 149:Lib/lvgl/src/widgets/arc/lv_arc.c **** 
 150:Lib/lvgl/src/widgets/arc/lv_arc.c ****     lv_value_precise_t old_delta = arc->bg_angle_end - arc->bg_angle_start;
 151:Lib/lvgl/src/widgets/arc/lv_arc.c ****     lv_value_precise_t new_delta = arc->bg_angle_end - start;
 152:Lib/lvgl/src/widgets/arc/lv_arc.c **** 
 153:Lib/lvgl/src/widgets/arc/lv_arc.c ****     if(old_delta < 0) old_delta = 360 + old_delta;
 154:Lib/lvgl/src/widgets/arc/lv_arc.c ****     if(new_delta < 0) new_delta = 360 + new_delta;
 155:Lib/lvgl/src/widgets/arc/lv_arc.c **** 
 156:Lib/lvgl/src/widgets/arc/lv_arc.c ****     if(LV_ABS(new_delta - old_delta) > 180)  lv_obj_invalidate(obj);
 157:Lib/lvgl/src/widgets/arc/lv_arc.c ****     else if(new_delta < old_delta) inv_arc_area(obj, arc->bg_angle_start, start, LV_PART_MAIN);
 158:Lib/lvgl/src/widgets/arc/lv_arc.c ****     else if(old_delta < new_delta) inv_arc_area(obj, start, arc->bg_angle_start, LV_PART_MAIN);
 159:Lib/lvgl/src/widgets/arc/lv_arc.c **** 
 160:Lib/lvgl/src/widgets/arc/lv_arc.c ****     arc->bg_angle_start = start;
 161:Lib/lvgl/src/widgets/arc/lv_arc.c **** 
 162:Lib/lvgl/src/widgets/arc/lv_arc.c ****     value_update(obj);
 163:Lib/lvgl/src/widgets/arc/lv_arc.c **** }
 164:Lib/lvgl/src/widgets/arc/lv_arc.c **** 
 165:Lib/lvgl/src/widgets/arc/lv_arc.c **** void lv_arc_set_bg_end_angle(lv_obj_t * obj, lv_value_precise_t end)
 166:Lib/lvgl/src/widgets/arc/lv_arc.c **** {
 167:Lib/lvgl/src/widgets/arc/lv_arc.c ****     LV_ASSERT_OBJ(obj, MY_CLASS);
 168:Lib/lvgl/src/widgets/arc/lv_arc.c ****     lv_arc_t * arc = (lv_arc_t *)obj;
 169:Lib/lvgl/src/widgets/arc/lv_arc.c **** 
 170:Lib/lvgl/src/widgets/arc/lv_arc.c ****     if(end > 360) end -= 360;
 171:Lib/lvgl/src/widgets/arc/lv_arc.c **** 
 172:Lib/lvgl/src/widgets/arc/lv_arc.c ****     lv_value_precise_t old_delta = arc->bg_angle_end - arc->bg_angle_start;
 173:Lib/lvgl/src/widgets/arc/lv_arc.c ****     lv_value_precise_t new_delta = end - arc->bg_angle_start;
 174:Lib/lvgl/src/widgets/arc/lv_arc.c **** 
 175:Lib/lvgl/src/widgets/arc/lv_arc.c ****     if(old_delta < 0) old_delta = 360 + old_delta;
 176:Lib/lvgl/src/widgets/arc/lv_arc.c ****     if(new_delta < 0) new_delta = 360 + new_delta;
 177:Lib/lvgl/src/widgets/arc/lv_arc.c **** 
 178:Lib/lvgl/src/widgets/arc/lv_arc.c ****     if(LV_ABS(new_delta - old_delta) > 180)  lv_obj_invalidate(obj);
 179:Lib/lvgl/src/widgets/arc/lv_arc.c ****     else if(new_delta < old_delta) inv_arc_area(obj, end, arc->bg_angle_end, LV_PART_MAIN);
 180:Lib/lvgl/src/widgets/arc/lv_arc.c ****     else if(old_delta < new_delta) inv_arc_area(obj, arc->bg_angle_end, end, LV_PART_MAIN);
 181:Lib/lvgl/src/widgets/arc/lv_arc.c **** 
 182:Lib/lvgl/src/widgets/arc/lv_arc.c ****     arc->bg_angle_end = end;
 183:Lib/lvgl/src/widgets/arc/lv_arc.c **** 
 184:Lib/lvgl/src/widgets/arc/lv_arc.c ****     value_update(obj);
 185:Lib/lvgl/src/widgets/arc/lv_arc.c **** }
 186:Lib/lvgl/src/widgets/arc/lv_arc.c **** 
 187:Lib/lvgl/src/widgets/arc/lv_arc.c **** void lv_arc_set_bg_angles(lv_obj_t * obj, lv_value_precise_t start, lv_value_precise_t end)
 188:Lib/lvgl/src/widgets/arc/lv_arc.c **** {
 189:Lib/lvgl/src/widgets/arc/lv_arc.c ****     lv_arc_set_bg_end_angle(obj, end);
 190:Lib/lvgl/src/widgets/arc/lv_arc.c ****     lv_arc_set_bg_start_angle(obj, start);
 191:Lib/lvgl/src/widgets/arc/lv_arc.c **** }
 192:Lib/lvgl/src/widgets/arc/lv_arc.c **** 
 193:Lib/lvgl/src/widgets/arc/lv_arc.c **** void lv_arc_set_rotation(lv_obj_t * obj, int32_t rotation)
 194:Lib/lvgl/src/widgets/arc/lv_arc.c **** {
 195:Lib/lvgl/src/widgets/arc/lv_arc.c ****     LV_ASSERT_OBJ(obj, MY_CLASS);
 196:Lib/lvgl/src/widgets/arc/lv_arc.c ****     lv_arc_t * arc = (lv_arc_t *)obj;
 197:Lib/lvgl/src/widgets/arc/lv_arc.c **** 
 198:Lib/lvgl/src/widgets/arc/lv_arc.c ****     arc->rotation = rotation;
 199:Lib/lvgl/src/widgets/arc/lv_arc.c **** 
 200:Lib/lvgl/src/widgets/arc/lv_arc.c ****     lv_obj_invalidate(obj);
 201:Lib/lvgl/src/widgets/arc/lv_arc.c **** }
ARM GAS  C:\Users\Alex\AppData\Local\Temp\cczgZ6vp.s 			page 5


 202:Lib/lvgl/src/widgets/arc/lv_arc.c **** 
 203:Lib/lvgl/src/widgets/arc/lv_arc.c **** void lv_arc_set_mode(lv_obj_t * obj, lv_arc_mode_t type)
 204:Lib/lvgl/src/widgets/arc/lv_arc.c **** {
 205:Lib/lvgl/src/widgets/arc/lv_arc.c ****     LV_ASSERT_OBJ(obj, MY_CLASS);
 206:Lib/lvgl/src/widgets/arc/lv_arc.c ****     lv_arc_t * arc = (lv_arc_t *)obj;
 207:Lib/lvgl/src/widgets/arc/lv_arc.c **** 
 208:Lib/lvgl/src/widgets/arc/lv_arc.c ****     int32_t val = arc->value;
 209:Lib/lvgl/src/widgets/arc/lv_arc.c **** 
 210:Lib/lvgl/src/widgets/arc/lv_arc.c ****     arc->type = type;
 211:Lib/lvgl/src/widgets/arc/lv_arc.c ****     arc->value = -1; /** Force set_value handling*/
 212:Lib/lvgl/src/widgets/arc/lv_arc.c **** 
 213:Lib/lvgl/src/widgets/arc/lv_arc.c ****     lv_value_precise_t bg_midpoint, bg_end = arc->bg_angle_end;
 214:Lib/lvgl/src/widgets/arc/lv_arc.c ****     if(arc->bg_angle_end < arc->bg_angle_start) bg_end = arc->bg_angle_end + 360;
 215:Lib/lvgl/src/widgets/arc/lv_arc.c **** 
 216:Lib/lvgl/src/widgets/arc/lv_arc.c ****     switch(arc->type) {
 217:Lib/lvgl/src/widgets/arc/lv_arc.c ****         case LV_ARC_MODE_SYMMETRICAL:
 218:Lib/lvgl/src/widgets/arc/lv_arc.c ****             bg_midpoint = (arc->bg_angle_start + bg_end) / 2;
 219:Lib/lvgl/src/widgets/arc/lv_arc.c ****             lv_arc_set_start_angle(obj, bg_midpoint);
 220:Lib/lvgl/src/widgets/arc/lv_arc.c ****             lv_arc_set_end_angle(obj, bg_midpoint);
 221:Lib/lvgl/src/widgets/arc/lv_arc.c ****             break;
 222:Lib/lvgl/src/widgets/arc/lv_arc.c ****         case LV_ARC_MODE_REVERSE:
 223:Lib/lvgl/src/widgets/arc/lv_arc.c ****             lv_arc_set_end_angle(obj, arc->bg_angle_end);
 224:Lib/lvgl/src/widgets/arc/lv_arc.c ****             break;
 225:Lib/lvgl/src/widgets/arc/lv_arc.c ****         default: /** LV_ARC_TYPE_NORMAL*/
 226:Lib/lvgl/src/widgets/arc/lv_arc.c ****             lv_arc_set_start_angle(obj, arc->bg_angle_start);
 227:Lib/lvgl/src/widgets/arc/lv_arc.c ****     }
 228:Lib/lvgl/src/widgets/arc/lv_arc.c **** 
 229:Lib/lvgl/src/widgets/arc/lv_arc.c ****     lv_arc_set_value(obj, val);
 230:Lib/lvgl/src/widgets/arc/lv_arc.c **** }
 231:Lib/lvgl/src/widgets/arc/lv_arc.c **** 
 232:Lib/lvgl/src/widgets/arc/lv_arc.c **** void lv_arc_set_value(lv_obj_t * obj, int32_t value)
 233:Lib/lvgl/src/widgets/arc/lv_arc.c **** {
 234:Lib/lvgl/src/widgets/arc/lv_arc.c ****     LV_ASSERT_OBJ(obj, MY_CLASS);
 235:Lib/lvgl/src/widgets/arc/lv_arc.c ****     lv_arc_t * arc = (lv_arc_t *)obj;
 236:Lib/lvgl/src/widgets/arc/lv_arc.c **** 
 237:Lib/lvgl/src/widgets/arc/lv_arc.c ****     if(arc->value == value) return;
 238:Lib/lvgl/src/widgets/arc/lv_arc.c **** 
 239:Lib/lvgl/src/widgets/arc/lv_arc.c ****     int32_t new_value;
 240:Lib/lvgl/src/widgets/arc/lv_arc.c ****     new_value = value > arc->max_value ? arc->max_value : value;
 241:Lib/lvgl/src/widgets/arc/lv_arc.c ****     new_value = new_value < arc->min_value ? arc->min_value : new_value;
 242:Lib/lvgl/src/widgets/arc/lv_arc.c **** 
 243:Lib/lvgl/src/widgets/arc/lv_arc.c ****     if(arc->value == new_value) return;
 244:Lib/lvgl/src/widgets/arc/lv_arc.c ****     arc->value = new_value;
 245:Lib/lvgl/src/widgets/arc/lv_arc.c **** 
 246:Lib/lvgl/src/widgets/arc/lv_arc.c ****     value_update(obj);
 247:Lib/lvgl/src/widgets/arc/lv_arc.c **** }
 248:Lib/lvgl/src/widgets/arc/lv_arc.c **** 
 249:Lib/lvgl/src/widgets/arc/lv_arc.c **** void lv_arc_set_range(lv_obj_t * obj, int32_t min, int32_t max)
 250:Lib/lvgl/src/widgets/arc/lv_arc.c **** {
 251:Lib/lvgl/src/widgets/arc/lv_arc.c ****     LV_ASSERT_OBJ(obj, MY_CLASS);
 252:Lib/lvgl/src/widgets/arc/lv_arc.c ****     lv_arc_t * arc = (lv_arc_t *)obj;
 253:Lib/lvgl/src/widgets/arc/lv_arc.c **** 
 254:Lib/lvgl/src/widgets/arc/lv_arc.c ****     if(arc->min_value == min && arc->max_value == max) return;
 255:Lib/lvgl/src/widgets/arc/lv_arc.c **** 
 256:Lib/lvgl/src/widgets/arc/lv_arc.c ****     arc->min_value = min;
 257:Lib/lvgl/src/widgets/arc/lv_arc.c ****     arc->max_value = max;
 258:Lib/lvgl/src/widgets/arc/lv_arc.c **** 
ARM GAS  C:\Users\Alex\AppData\Local\Temp\cczgZ6vp.s 			page 6


 259:Lib/lvgl/src/widgets/arc/lv_arc.c ****     if(arc->value < min) {
 260:Lib/lvgl/src/widgets/arc/lv_arc.c ****         arc->value = min;
 261:Lib/lvgl/src/widgets/arc/lv_arc.c ****     }
 262:Lib/lvgl/src/widgets/arc/lv_arc.c ****     if(arc->value > max) {
 263:Lib/lvgl/src/widgets/arc/lv_arc.c ****         arc->value = max;
 264:Lib/lvgl/src/widgets/arc/lv_arc.c ****     }
 265:Lib/lvgl/src/widgets/arc/lv_arc.c **** 
 266:Lib/lvgl/src/widgets/arc/lv_arc.c ****     value_update(obj); /*value has changed relative to the new range*/
 267:Lib/lvgl/src/widgets/arc/lv_arc.c **** }
 268:Lib/lvgl/src/widgets/arc/lv_arc.c **** 
 269:Lib/lvgl/src/widgets/arc/lv_arc.c **** void lv_arc_set_change_rate(lv_obj_t * obj, uint32_t rate)
 270:Lib/lvgl/src/widgets/arc/lv_arc.c **** {
 271:Lib/lvgl/src/widgets/arc/lv_arc.c ****     LV_ASSERT_OBJ(obj, MY_CLASS);
 272:Lib/lvgl/src/widgets/arc/lv_arc.c ****     lv_arc_t * arc = (lv_arc_t *)obj;
 273:Lib/lvgl/src/widgets/arc/lv_arc.c **** 
 274:Lib/lvgl/src/widgets/arc/lv_arc.c ****     arc->chg_rate = rate;
 275:Lib/lvgl/src/widgets/arc/lv_arc.c **** }
 276:Lib/lvgl/src/widgets/arc/lv_arc.c **** 
 277:Lib/lvgl/src/widgets/arc/lv_arc.c **** void lv_arc_set_knob_offset(lv_obj_t * obj, int32_t offset)
 278:Lib/lvgl/src/widgets/arc/lv_arc.c **** {
 279:Lib/lvgl/src/widgets/arc/lv_arc.c ****     LV_ASSERT_OBJ(obj, MY_CLASS);
 280:Lib/lvgl/src/widgets/arc/lv_arc.c ****     lv_arc_t * arc = (lv_arc_t *)obj;
 281:Lib/lvgl/src/widgets/arc/lv_arc.c **** 
 282:Lib/lvgl/src/widgets/arc/lv_arc.c ****     arc->knob_offset = offset;
 283:Lib/lvgl/src/widgets/arc/lv_arc.c **** }
 284:Lib/lvgl/src/widgets/arc/lv_arc.c **** 
 285:Lib/lvgl/src/widgets/arc/lv_arc.c **** /*=====================
 286:Lib/lvgl/src/widgets/arc/lv_arc.c ****  * Getter functions
 287:Lib/lvgl/src/widgets/arc/lv_arc.c ****  *====================*/
 288:Lib/lvgl/src/widgets/arc/lv_arc.c **** 
 289:Lib/lvgl/src/widgets/arc/lv_arc.c **** lv_value_precise_t lv_arc_get_angle_start(lv_obj_t * obj)
 290:Lib/lvgl/src/widgets/arc/lv_arc.c **** {
 291:Lib/lvgl/src/widgets/arc/lv_arc.c ****     LV_ASSERT_OBJ(obj, MY_CLASS);
 292:Lib/lvgl/src/widgets/arc/lv_arc.c ****     return ((lv_arc_t *) obj)->indic_angle_start;
 293:Lib/lvgl/src/widgets/arc/lv_arc.c **** }
 294:Lib/lvgl/src/widgets/arc/lv_arc.c **** 
 295:Lib/lvgl/src/widgets/arc/lv_arc.c **** lv_value_precise_t lv_arc_get_angle_end(lv_obj_t * obj)
 296:Lib/lvgl/src/widgets/arc/lv_arc.c **** {
 297:Lib/lvgl/src/widgets/arc/lv_arc.c ****     LV_ASSERT_OBJ(obj, MY_CLASS);
 298:Lib/lvgl/src/widgets/arc/lv_arc.c ****     return ((lv_arc_t *) obj)->indic_angle_end;
 299:Lib/lvgl/src/widgets/arc/lv_arc.c **** }
 300:Lib/lvgl/src/widgets/arc/lv_arc.c **** 
 301:Lib/lvgl/src/widgets/arc/lv_arc.c **** lv_value_precise_t lv_arc_get_bg_angle_start(lv_obj_t * obj)
 302:Lib/lvgl/src/widgets/arc/lv_arc.c **** {
 303:Lib/lvgl/src/widgets/arc/lv_arc.c ****     LV_ASSERT_OBJ(obj, MY_CLASS);
 304:Lib/lvgl/src/widgets/arc/lv_arc.c ****     return ((lv_arc_t *) obj)->bg_angle_start;
 305:Lib/lvgl/src/widgets/arc/lv_arc.c **** }
 306:Lib/lvgl/src/widgets/arc/lv_arc.c **** 
 307:Lib/lvgl/src/widgets/arc/lv_arc.c **** lv_value_precise_t lv_arc_get_bg_angle_end(lv_obj_t * obj)
 308:Lib/lvgl/src/widgets/arc/lv_arc.c **** {
 309:Lib/lvgl/src/widgets/arc/lv_arc.c ****     LV_ASSERT_OBJ(obj, MY_CLASS);
 310:Lib/lvgl/src/widgets/arc/lv_arc.c ****     return ((lv_arc_t *) obj)->bg_angle_end;
 311:Lib/lvgl/src/widgets/arc/lv_arc.c **** }
 312:Lib/lvgl/src/widgets/arc/lv_arc.c **** 
 313:Lib/lvgl/src/widgets/arc/lv_arc.c **** int32_t lv_arc_get_value(const lv_obj_t * obj)
 314:Lib/lvgl/src/widgets/arc/lv_arc.c **** {
 315:Lib/lvgl/src/widgets/arc/lv_arc.c ****     LV_ASSERT_OBJ(obj, MY_CLASS);
ARM GAS  C:\Users\Alex\AppData\Local\Temp\cczgZ6vp.s 			page 7


 316:Lib/lvgl/src/widgets/arc/lv_arc.c ****     return ((lv_arc_t *) obj)->value;
 317:Lib/lvgl/src/widgets/arc/lv_arc.c **** }
 318:Lib/lvgl/src/widgets/arc/lv_arc.c **** 
 319:Lib/lvgl/src/widgets/arc/lv_arc.c **** int32_t lv_arc_get_min_value(const lv_obj_t * obj)
 320:Lib/lvgl/src/widgets/arc/lv_arc.c **** {
 321:Lib/lvgl/src/widgets/arc/lv_arc.c ****     LV_ASSERT_OBJ(obj, MY_CLASS);
 322:Lib/lvgl/src/widgets/arc/lv_arc.c ****     return ((lv_arc_t *) obj)->min_value;
 323:Lib/lvgl/src/widgets/arc/lv_arc.c **** }
 324:Lib/lvgl/src/widgets/arc/lv_arc.c **** 
 325:Lib/lvgl/src/widgets/arc/lv_arc.c **** int32_t lv_arc_get_max_value(const lv_obj_t * obj)
 326:Lib/lvgl/src/widgets/arc/lv_arc.c **** {
 327:Lib/lvgl/src/widgets/arc/lv_arc.c ****     LV_ASSERT_OBJ(obj, MY_CLASS);
 328:Lib/lvgl/src/widgets/arc/lv_arc.c ****     return ((lv_arc_t *) obj)->max_value;
 329:Lib/lvgl/src/widgets/arc/lv_arc.c **** }
 330:Lib/lvgl/src/widgets/arc/lv_arc.c **** 
 331:Lib/lvgl/src/widgets/arc/lv_arc.c **** lv_arc_mode_t lv_arc_get_mode(const lv_obj_t * obj)
 332:Lib/lvgl/src/widgets/arc/lv_arc.c **** {
 333:Lib/lvgl/src/widgets/arc/lv_arc.c ****     LV_ASSERT_OBJ(obj, MY_CLASS);
 334:Lib/lvgl/src/widgets/arc/lv_arc.c ****     return ((lv_arc_t *) obj)->type;
 335:Lib/lvgl/src/widgets/arc/lv_arc.c **** }
 336:Lib/lvgl/src/widgets/arc/lv_arc.c **** 
 337:Lib/lvgl/src/widgets/arc/lv_arc.c **** int32_t lv_arc_get_rotation(const lv_obj_t * obj)
 338:Lib/lvgl/src/widgets/arc/lv_arc.c **** {
 339:Lib/lvgl/src/widgets/arc/lv_arc.c ****     LV_ASSERT_OBJ(obj, MY_CLASS);
 340:Lib/lvgl/src/widgets/arc/lv_arc.c ****     return ((lv_arc_t *)obj)->rotation;
 341:Lib/lvgl/src/widgets/arc/lv_arc.c **** }
 342:Lib/lvgl/src/widgets/arc/lv_arc.c **** 
 343:Lib/lvgl/src/widgets/arc/lv_arc.c **** int32_t lv_arc_get_knob_offset(const lv_obj_t * obj)
 344:Lib/lvgl/src/widgets/arc/lv_arc.c **** {
 345:Lib/lvgl/src/widgets/arc/lv_arc.c ****     LV_ASSERT_OBJ(obj, MY_CLASS);
 346:Lib/lvgl/src/widgets/arc/lv_arc.c ****     return ((lv_arc_t *)obj)->knob_offset;
 347:Lib/lvgl/src/widgets/arc/lv_arc.c **** }
 348:Lib/lvgl/src/widgets/arc/lv_arc.c **** 
 349:Lib/lvgl/src/widgets/arc/lv_arc.c **** /*=====================
 350:Lib/lvgl/src/widgets/arc/lv_arc.c ****  * Other functions
 351:Lib/lvgl/src/widgets/arc/lv_arc.c ****  *====================*/
 352:Lib/lvgl/src/widgets/arc/lv_arc.c **** 
 353:Lib/lvgl/src/widgets/arc/lv_arc.c **** void lv_arc_align_obj_to_angle(const lv_obj_t * obj, lv_obj_t * obj_to_align, int32_t r_offset)
 354:Lib/lvgl/src/widgets/arc/lv_arc.c **** {
 355:Lib/lvgl/src/widgets/arc/lv_arc.c ****     LV_ASSERT_OBJ(obj, MY_CLASS);
 356:Lib/lvgl/src/widgets/arc/lv_arc.c ****     LV_ASSERT_NULL(obj_to_align);
 357:Lib/lvgl/src/widgets/arc/lv_arc.c **** 
 358:Lib/lvgl/src/widgets/arc/lv_arc.c ****     lv_obj_update_layout(obj);
 359:Lib/lvgl/src/widgets/arc/lv_arc.c **** 
 360:Lib/lvgl/src/widgets/arc/lv_arc.c ****     lv_point_t center;
 361:Lib/lvgl/src/widgets/arc/lv_arc.c ****     int32_t arc_r;
 362:Lib/lvgl/src/widgets/arc/lv_arc.c ****     get_center(obj, &center, &arc_r);
 363:Lib/lvgl/src/widgets/arc/lv_arc.c ****     int32_t indic_width = lv_obj_get_style_arc_width(obj, LV_PART_INDICATOR);
 364:Lib/lvgl/src/widgets/arc/lv_arc.c ****     int32_t indic_width_half = indic_width / 2;
 365:Lib/lvgl/src/widgets/arc/lv_arc.c ****     arc_r -= indic_width_half;
 366:Lib/lvgl/src/widgets/arc/lv_arc.c ****     arc_r += r_offset;
 367:Lib/lvgl/src/widgets/arc/lv_arc.c **** 
 368:Lib/lvgl/src/widgets/arc/lv_arc.c ****     int32_t angle = (int32_t)get_angle(obj);
 369:Lib/lvgl/src/widgets/arc/lv_arc.c ****     int32_t knob_x = (arc_r * lv_trigo_sin(angle + 90)) >> LV_TRIGO_SHIFT;
 370:Lib/lvgl/src/widgets/arc/lv_arc.c ****     int32_t knob_y = (arc_r * lv_trigo_sin(angle)) >> LV_TRIGO_SHIFT;
 371:Lib/lvgl/src/widgets/arc/lv_arc.c ****     lv_obj_align_to(obj_to_align, obj, LV_ALIGN_CENTER, knob_x, knob_y);
 372:Lib/lvgl/src/widgets/arc/lv_arc.c **** }
ARM GAS  C:\Users\Alex\AppData\Local\Temp\cczgZ6vp.s 			page 8


 373:Lib/lvgl/src/widgets/arc/lv_arc.c **** 
 374:Lib/lvgl/src/widgets/arc/lv_arc.c **** void lv_arc_rotate_obj_to_angle(const lv_obj_t * obj, lv_obj_t * obj_to_rotate, int32_t r_offset)
 375:Lib/lvgl/src/widgets/arc/lv_arc.c **** {
 376:Lib/lvgl/src/widgets/arc/lv_arc.c ****     LV_ASSERT_OBJ(obj, MY_CLASS);
 377:Lib/lvgl/src/widgets/arc/lv_arc.c ****     LV_ASSERT_NULL(obj_to_rotate);
 378:Lib/lvgl/src/widgets/arc/lv_arc.c **** 
 379:Lib/lvgl/src/widgets/arc/lv_arc.c ****     lv_obj_update_layout(obj);
 380:Lib/lvgl/src/widgets/arc/lv_arc.c **** 
 381:Lib/lvgl/src/widgets/arc/lv_arc.c ****     lv_point_t center;
 382:Lib/lvgl/src/widgets/arc/lv_arc.c ****     int32_t arc_r;
 383:Lib/lvgl/src/widgets/arc/lv_arc.c ****     get_center(obj, &center, &arc_r);
 384:Lib/lvgl/src/widgets/arc/lv_arc.c ****     int32_t indic_width = lv_obj_get_style_arc_width(obj, LV_PART_INDICATOR);
 385:Lib/lvgl/src/widgets/arc/lv_arc.c ****     int32_t indic_width_half = indic_width / 2;
 386:Lib/lvgl/src/widgets/arc/lv_arc.c ****     arc_r -= indic_width_half;
 387:Lib/lvgl/src/widgets/arc/lv_arc.c **** 
 388:Lib/lvgl/src/widgets/arc/lv_arc.c ****     arc_r += r_offset;
 389:Lib/lvgl/src/widgets/arc/lv_arc.c ****     lv_obj_align_to(obj_to_rotate, obj, LV_ALIGN_CENTER, 0, -arc_r);
 390:Lib/lvgl/src/widgets/arc/lv_arc.c **** 
 391:Lib/lvgl/src/widgets/arc/lv_arc.c ****     lv_obj_update_layout(obj);
 392:Lib/lvgl/src/widgets/arc/lv_arc.c **** 
 393:Lib/lvgl/src/widgets/arc/lv_arc.c ****     int32_t angle = (int32_t)get_angle(obj);
 394:Lib/lvgl/src/widgets/arc/lv_arc.c ****     int32_t pivot_x = obj_to_rotate->coords.x1 - center.x;
 395:Lib/lvgl/src/widgets/arc/lv_arc.c ****     int32_t pivot_y = obj_to_rotate->coords.y1 - center.y;
 396:Lib/lvgl/src/widgets/arc/lv_arc.c ****     lv_obj_set_style_transform_pivot_x(obj_to_rotate, -pivot_x, 0);
 397:Lib/lvgl/src/widgets/arc/lv_arc.c ****     lv_obj_set_style_transform_pivot_y(obj_to_rotate, -pivot_y, 0);
 398:Lib/lvgl/src/widgets/arc/lv_arc.c ****     lv_obj_set_style_transform_rotation(obj_to_rotate, angle * 10 + 900, 0);
 399:Lib/lvgl/src/widgets/arc/lv_arc.c **** }
 400:Lib/lvgl/src/widgets/arc/lv_arc.c **** 
 401:Lib/lvgl/src/widgets/arc/lv_arc.c **** /**********************
 402:Lib/lvgl/src/widgets/arc/lv_arc.c ****  *   STATIC FUNCTIONS
 403:Lib/lvgl/src/widgets/arc/lv_arc.c ****  **********************/
 404:Lib/lvgl/src/widgets/arc/lv_arc.c **** 
 405:Lib/lvgl/src/widgets/arc/lv_arc.c **** static void lv_arc_constructor(const lv_obj_class_t * class_p, lv_obj_t * obj)
 406:Lib/lvgl/src/widgets/arc/lv_arc.c **** {
 407:Lib/lvgl/src/widgets/arc/lv_arc.c ****     LV_UNUSED(class_p);
 408:Lib/lvgl/src/widgets/arc/lv_arc.c ****     LV_TRACE_OBJ_CREATE("begin");
 409:Lib/lvgl/src/widgets/arc/lv_arc.c **** 
 410:Lib/lvgl/src/widgets/arc/lv_arc.c ****     lv_arc_t * arc = (lv_arc_t *)obj;
 411:Lib/lvgl/src/widgets/arc/lv_arc.c **** 
 412:Lib/lvgl/src/widgets/arc/lv_arc.c ****     /*Initialize the allocated 'ext'*/
 413:Lib/lvgl/src/widgets/arc/lv_arc.c ****     arc->rotation = 0;
 414:Lib/lvgl/src/widgets/arc/lv_arc.c ****     arc->bg_angle_start = 135;
 415:Lib/lvgl/src/widgets/arc/lv_arc.c ****     arc->bg_angle_end   = 45;
 416:Lib/lvgl/src/widgets/arc/lv_arc.c ****     arc->indic_angle_start = 135;
 417:Lib/lvgl/src/widgets/arc/lv_arc.c ****     arc->indic_angle_end   = 270;
 418:Lib/lvgl/src/widgets/arc/lv_arc.c ****     arc->type = LV_ARC_MODE_NORMAL;
 419:Lib/lvgl/src/widgets/arc/lv_arc.c ****     arc->value = VALUE_UNSET;
 420:Lib/lvgl/src/widgets/arc/lv_arc.c ****     arc->min_close = 1;
 421:Lib/lvgl/src/widgets/arc/lv_arc.c ****     arc->min_value = 0;
 422:Lib/lvgl/src/widgets/arc/lv_arc.c ****     arc->max_value = 100;
 423:Lib/lvgl/src/widgets/arc/lv_arc.c ****     arc->dragging = false;
 424:Lib/lvgl/src/widgets/arc/lv_arc.c ****     arc->chg_rate = 720;
 425:Lib/lvgl/src/widgets/arc/lv_arc.c ****     arc->last_tick = lv_tick_get();
 426:Lib/lvgl/src/widgets/arc/lv_arc.c ****     arc->last_angle = arc->indic_angle_end;
 427:Lib/lvgl/src/widgets/arc/lv_arc.c ****     arc->in_out = CLICK_OUTSIDE_BG_ANGLES;
 428:Lib/lvgl/src/widgets/arc/lv_arc.c **** 
 429:Lib/lvgl/src/widgets/arc/lv_arc.c ****     lv_obj_add_flag(obj, LV_OBJ_FLAG_CLICKABLE);
ARM GAS  C:\Users\Alex\AppData\Local\Temp\cczgZ6vp.s 			page 9


 430:Lib/lvgl/src/widgets/arc/lv_arc.c ****     lv_obj_remove_flag(obj, LV_OBJ_FLAG_SCROLL_CHAIN | LV_OBJ_FLAG_SCROLLABLE);
 431:Lib/lvgl/src/widgets/arc/lv_arc.c ****     lv_obj_set_ext_click_area(obj, LV_DPI_DEF / 10);
 432:Lib/lvgl/src/widgets/arc/lv_arc.c **** 
 433:Lib/lvgl/src/widgets/arc/lv_arc.c ****     LV_TRACE_OBJ_CREATE("finished");
 434:Lib/lvgl/src/widgets/arc/lv_arc.c **** }
 435:Lib/lvgl/src/widgets/arc/lv_arc.c **** 
 436:Lib/lvgl/src/widgets/arc/lv_arc.c **** static void lv_arc_event(const lv_obj_class_t * class_p, lv_event_t * e)
 437:Lib/lvgl/src/widgets/arc/lv_arc.c **** {
 438:Lib/lvgl/src/widgets/arc/lv_arc.c ****     LV_UNUSED(class_p);
 439:Lib/lvgl/src/widgets/arc/lv_arc.c **** 
 440:Lib/lvgl/src/widgets/arc/lv_arc.c ****     lv_result_t res;
 441:Lib/lvgl/src/widgets/arc/lv_arc.c **** 
 442:Lib/lvgl/src/widgets/arc/lv_arc.c ****     /*Call the ancestor's event handler*/
 443:Lib/lvgl/src/widgets/arc/lv_arc.c ****     res = lv_obj_event_base(MY_CLASS, e);
 444:Lib/lvgl/src/widgets/arc/lv_arc.c ****     if(res != LV_RESULT_OK) return;
 445:Lib/lvgl/src/widgets/arc/lv_arc.c **** 
 446:Lib/lvgl/src/widgets/arc/lv_arc.c ****     lv_event_code_t code = lv_event_get_code(e);
 447:Lib/lvgl/src/widgets/arc/lv_arc.c ****     lv_obj_t * obj = lv_event_get_current_target(e);
 448:Lib/lvgl/src/widgets/arc/lv_arc.c ****     lv_arc_t * arc = (lv_arc_t *)obj;
 449:Lib/lvgl/src/widgets/arc/lv_arc.c ****     if(code == LV_EVENT_PRESSING) {
 450:Lib/lvgl/src/widgets/arc/lv_arc.c ****         lv_indev_t * indev = lv_indev_active();
 451:Lib/lvgl/src/widgets/arc/lv_arc.c ****         if(indev == NULL) return;
 452:Lib/lvgl/src/widgets/arc/lv_arc.c **** 
 453:Lib/lvgl/src/widgets/arc/lv_arc.c ****         /*Handle only pointers here*/
 454:Lib/lvgl/src/widgets/arc/lv_arc.c ****         lv_indev_type_t indev_type = lv_indev_get_type(indev);
 455:Lib/lvgl/src/widgets/arc/lv_arc.c ****         if(indev_type != LV_INDEV_TYPE_POINTER) return;
 456:Lib/lvgl/src/widgets/arc/lv_arc.c **** 
 457:Lib/lvgl/src/widgets/arc/lv_arc.c ****         lv_point_t p;
 458:Lib/lvgl/src/widgets/arc/lv_arc.c ****         lv_indev_get_point(indev, &p);
 459:Lib/lvgl/src/widgets/arc/lv_arc.c **** 
 460:Lib/lvgl/src/widgets/arc/lv_arc.c ****         /*Make point relative to the arc's center*/
 461:Lib/lvgl/src/widgets/arc/lv_arc.c ****         lv_point_t center;
 462:Lib/lvgl/src/widgets/arc/lv_arc.c ****         int32_t r;
 463:Lib/lvgl/src/widgets/arc/lv_arc.c ****         get_center(obj, &center, &r);
 464:Lib/lvgl/src/widgets/arc/lv_arc.c **** 
 465:Lib/lvgl/src/widgets/arc/lv_arc.c ****         p.x -= center.x;
 466:Lib/lvgl/src/widgets/arc/lv_arc.c ****         p.y -= center.y;
 467:Lib/lvgl/src/widgets/arc/lv_arc.c **** 
 468:Lib/lvgl/src/widgets/arc/lv_arc.c ****         /*Enter dragging mode if pressed out of the knob*/
 469:Lib/lvgl/src/widgets/arc/lv_arc.c ****         if(arc->dragging == false) {
 470:Lib/lvgl/src/widgets/arc/lv_arc.c ****             int32_t indic_width = lv_obj_get_style_arc_width(obj, LV_PART_INDICATOR);
 471:Lib/lvgl/src/widgets/arc/lv_arc.c ****             r -= indic_width;
 472:Lib/lvgl/src/widgets/arc/lv_arc.c ****             /*Add some more sensitive area if there is no advanced git testing.
 473:Lib/lvgl/src/widgets/arc/lv_arc.c ****              * (Advanced hit testing is more precise)*/
 474:Lib/lvgl/src/widgets/arc/lv_arc.c ****             if(lv_obj_has_flag(obj, LV_OBJ_FLAG_ADV_HITTEST)) {
 475:Lib/lvgl/src/widgets/arc/lv_arc.c ****                 r -= indic_width;
 476:Lib/lvgl/src/widgets/arc/lv_arc.c **** 
 477:Lib/lvgl/src/widgets/arc/lv_arc.c ****             }
 478:Lib/lvgl/src/widgets/arc/lv_arc.c ****             else {
 479:Lib/lvgl/src/widgets/arc/lv_arc.c ****                 r -= LV_MAX(r / 4, indic_width);
 480:Lib/lvgl/src/widgets/arc/lv_arc.c ****             }
 481:Lib/lvgl/src/widgets/arc/lv_arc.c ****             if(r < 1) r = 1;
 482:Lib/lvgl/src/widgets/arc/lv_arc.c **** 
 483:Lib/lvgl/src/widgets/arc/lv_arc.c ****             if(p.x * p.x + p.y * p.y > r * r) {
 484:Lib/lvgl/src/widgets/arc/lv_arc.c ****                 arc->dragging = true;
 485:Lib/lvgl/src/widgets/arc/lv_arc.c ****                 arc->last_tick = lv_tick_get(); /*Capture timestamp at dragging start*/
 486:Lib/lvgl/src/widgets/arc/lv_arc.c ****             }
ARM GAS  C:\Users\Alex\AppData\Local\Temp\cczgZ6vp.s 			page 10


 487:Lib/lvgl/src/widgets/arc/lv_arc.c ****         }
 488:Lib/lvgl/src/widgets/arc/lv_arc.c **** 
 489:Lib/lvgl/src/widgets/arc/lv_arc.c ****         /*It must be in "dragging" mode to turn the arc*/
 490:Lib/lvgl/src/widgets/arc/lv_arc.c ****         if(arc->dragging == false) return;
 491:Lib/lvgl/src/widgets/arc/lv_arc.c **** 
 492:Lib/lvgl/src/widgets/arc/lv_arc.c ****         /*No angle can be determined if exactly the middle of the arc is being pressed*/
 493:Lib/lvgl/src/widgets/arc/lv_arc.c ****         if(p.x == 0 && p.y == 0) return;
 494:Lib/lvgl/src/widgets/arc/lv_arc.c **** 
 495:Lib/lvgl/src/widgets/arc/lv_arc.c ****         /*Calculate the angle of the pressed point*/
 496:Lib/lvgl/src/widgets/arc/lv_arc.c ****         lv_value_precise_t angle;
 497:Lib/lvgl/src/widgets/arc/lv_arc.c ****         lv_value_precise_t bg_end = arc->bg_angle_end;
 498:Lib/lvgl/src/widgets/arc/lv_arc.c ****         if(arc->bg_angle_end < arc->bg_angle_start) {
 499:Lib/lvgl/src/widgets/arc/lv_arc.c ****             bg_end = arc->bg_angle_end + 360;
 500:Lib/lvgl/src/widgets/arc/lv_arc.c ****         }
 501:Lib/lvgl/src/widgets/arc/lv_arc.c **** 
 502:Lib/lvgl/src/widgets/arc/lv_arc.c ****         angle = lv_atan2(p.y, p.x);
 503:Lib/lvgl/src/widgets/arc/lv_arc.c ****         angle -= arc->rotation;
 504:Lib/lvgl/src/widgets/arc/lv_arc.c ****         angle -= arc->bg_angle_start;  /*Make the angle relative to the start angle*/
 505:Lib/lvgl/src/widgets/arc/lv_arc.c **** 
 506:Lib/lvgl/src/widgets/arc/lv_arc.c ****         /* If we click near the bg_angle_start the angle will be close to 360° instead of an small
 507:Lib/lvgl/src/widgets/arc/lv_arc.c ****         if(angle < 0) angle += 360;
 508:Lib/lvgl/src/widgets/arc/lv_arc.c **** 
 509:Lib/lvgl/src/widgets/arc/lv_arc.c ****         const uint32_t circumference = (uint32_t)((2U * r * 314U) / 100U);  /* Equivalent to: 2r * 
 510:Lib/lvgl/src/widgets/arc/lv_arc.c ****         const lv_value_precise_t tolerance_deg = (360 * lv_dpx(50U)) / circumference;
 511:Lib/lvgl/src/widgets/arc/lv_arc.c ****         const uint32_t min_close_prev = (uint32_t) arc->min_close;
 512:Lib/lvgl/src/widgets/arc/lv_arc.c **** 
 513:Lib/lvgl/src/widgets/arc/lv_arc.c ****         const bool is_angle_within_bg_bounds = lv_arc_angle_within_bg_bounds(obj, angle, tolerance_
 514:Lib/lvgl/src/widgets/arc/lv_arc.c ****         if(!is_angle_within_bg_bounds) {
 515:Lib/lvgl/src/widgets/arc/lv_arc.c ****             return;
 516:Lib/lvgl/src/widgets/arc/lv_arc.c ****         }
 517:Lib/lvgl/src/widgets/arc/lv_arc.c **** 
 518:Lib/lvgl/src/widgets/arc/lv_arc.c ****         lv_value_precise_t deg_range = bg_end - arc->bg_angle_start;
 519:Lib/lvgl/src/widgets/arc/lv_arc.c ****         lv_value_precise_t last_angle_rel = arc->last_angle - arc->bg_angle_start;
 520:Lib/lvgl/src/widgets/arc/lv_arc.c ****         lv_value_precise_t delta_angle = angle - last_angle_rel;
 521:Lib/lvgl/src/widgets/arc/lv_arc.c **** 
 522:Lib/lvgl/src/widgets/arc/lv_arc.c ****         /*Do not allow big jumps (jumps bigger than 280°).
 523:Lib/lvgl/src/widgets/arc/lv_arc.c ****          *It's mainly to avoid jumping to the opposite end if the "dead" range between min. and max
 524:Lib/lvgl/src/widgets/arc/lv_arc.c ****          *Check which end was closer on the last valid press (arc->min_close) and prefer that end*/
 525:Lib/lvgl/src/widgets/arc/lv_arc.c ****         if(LV_ABS(delta_angle) > 280) {
 526:Lib/lvgl/src/widgets/arc/lv_arc.c ****             if(arc->min_close) angle = 0;
 527:Lib/lvgl/src/widgets/arc/lv_arc.c ****             else angle = deg_range;
 528:Lib/lvgl/src/widgets/arc/lv_arc.c ****         }
 529:Lib/lvgl/src/widgets/arc/lv_arc.c ****         /* Check if click was outside the background arc start and end angles */
 530:Lib/lvgl/src/widgets/arc/lv_arc.c ****         else if(CLICK_OUTSIDE_BG_ANGLES == arc->in_out) {
 531:Lib/lvgl/src/widgets/arc/lv_arc.c ****             if(arc->min_close) angle = -deg_range;
 532:Lib/lvgl/src/widgets/arc/lv_arc.c ****             else angle = deg_range;
 533:Lib/lvgl/src/widgets/arc/lv_arc.c ****         }
 534:Lib/lvgl/src/widgets/arc/lv_arc.c ****         else { /* Keep the angle value */ }
 535:Lib/lvgl/src/widgets/arc/lv_arc.c **** 
 536:Lib/lvgl/src/widgets/arc/lv_arc.c ****         /* Prevent big jumps when the click goes from start to end angle in the invisible
 537:Lib/lvgl/src/widgets/arc/lv_arc.c ****          * part of the background arc without being released */
 538:Lib/lvgl/src/widgets/arc/lv_arc.c ****         if(((min_close_prev == CLICK_CLOSER_TO_MIN_END) && (arc->min_close == CLICK_CLOSER_TO_MAX_E
 539:Lib/lvgl/src/widgets/arc/lv_arc.c ****            && ((CLICK_OUTSIDE_BG_ANGLES == arc->in_out) && (LV_ABS(delta_angle) > 280))) {
 540:Lib/lvgl/src/widgets/arc/lv_arc.c ****             angle = 0;
 541:Lib/lvgl/src/widgets/arc/lv_arc.c ****         }
 542:Lib/lvgl/src/widgets/arc/lv_arc.c ****         else if(((min_close_prev == CLICK_CLOSER_TO_MAX_END) && (arc->min_close == CLICK_CLOSER_TO_
 543:Lib/lvgl/src/widgets/arc/lv_arc.c ****                 && (CLICK_OUTSIDE_BG_ANGLES == arc->in_out)) {
ARM GAS  C:\Users\Alex\AppData\Local\Temp\cczgZ6vp.s 			page 11


 544:Lib/lvgl/src/widgets/arc/lv_arc.c ****             angle = deg_range;
 545:Lib/lvgl/src/widgets/arc/lv_arc.c ****         }
 546:Lib/lvgl/src/widgets/arc/lv_arc.c ****         else { /* Keep the angle value */ }
 547:Lib/lvgl/src/widgets/arc/lv_arc.c **** 
 548:Lib/lvgl/src/widgets/arc/lv_arc.c ****         /*Calculate the slew rate limited angle based on change rate (degrees/sec)*/
 549:Lib/lvgl/src/widgets/arc/lv_arc.c ****         delta_angle = angle - last_angle_rel;
 550:Lib/lvgl/src/widgets/arc/lv_arc.c **** 
 551:Lib/lvgl/src/widgets/arc/lv_arc.c ****         uint32_t delta_tick = lv_tick_elaps(arc->last_tick);
 552:Lib/lvgl/src/widgets/arc/lv_arc.c ****         /* delta_angle_max can never be signed. delta_tick is always signed, same for ch_rate */
 553:Lib/lvgl/src/widgets/arc/lv_arc.c ****         const lv_value_precise_t delta_angle_max = (arc->chg_rate * delta_tick) / 1000;
 554:Lib/lvgl/src/widgets/arc/lv_arc.c **** 
 555:Lib/lvgl/src/widgets/arc/lv_arc.c ****         if(delta_angle > delta_angle_max) {
 556:Lib/lvgl/src/widgets/arc/lv_arc.c ****             delta_angle = delta_angle_max;
 557:Lib/lvgl/src/widgets/arc/lv_arc.c ****         }
 558:Lib/lvgl/src/widgets/arc/lv_arc.c ****         else if(delta_angle < -delta_angle_max) {
 559:Lib/lvgl/src/widgets/arc/lv_arc.c ****             delta_angle = -delta_angle_max;
 560:Lib/lvgl/src/widgets/arc/lv_arc.c ****         }
 561:Lib/lvgl/src/widgets/arc/lv_arc.c ****         else { /* Nothing to do */ }
 562:Lib/lvgl/src/widgets/arc/lv_arc.c **** 
 563:Lib/lvgl/src/widgets/arc/lv_arc.c ****         angle = last_angle_rel + delta_angle; /*Apply the limited angle change*/
 564:Lib/lvgl/src/widgets/arc/lv_arc.c **** 
 565:Lib/lvgl/src/widgets/arc/lv_arc.c ****         /*Rounding for symmetry*/
 566:Lib/lvgl/src/widgets/arc/lv_arc.c ****         lv_value_precise_t round = ((bg_end - arc->bg_angle_start) * 8) / (arc->max_value - arc->mi
 567:Lib/lvgl/src/widgets/arc/lv_arc.c ****         round = (round + 4) / 16;
 568:Lib/lvgl/src/widgets/arc/lv_arc.c ****         angle += round;
 569:Lib/lvgl/src/widgets/arc/lv_arc.c **** 
 570:Lib/lvgl/src/widgets/arc/lv_arc.c ****         angle += arc->bg_angle_start;  /*Make the angle absolute again*/
 571:Lib/lvgl/src/widgets/arc/lv_arc.c **** 
 572:Lib/lvgl/src/widgets/arc/lv_arc.c ****         /*Set the new value*/
 573:Lib/lvgl/src/widgets/arc/lv_arc.c ****         int32_t old_value = arc->value;
 574:Lib/lvgl/src/widgets/arc/lv_arc.c ****         int32_t new_value = lv_map((int32_t)angle, (int32_t)arc->bg_angle_start, (int32_t)bg_end, a
 575:Lib/lvgl/src/widgets/arc/lv_arc.c ****                                    arc->max_value);
 576:Lib/lvgl/src/widgets/arc/lv_arc.c ****         if(arc->type == LV_ARC_MODE_REVERSE) {
 577:Lib/lvgl/src/widgets/arc/lv_arc.c ****             new_value = arc->max_value - new_value + arc->min_value;
 578:Lib/lvgl/src/widgets/arc/lv_arc.c ****         }
 579:Lib/lvgl/src/widgets/arc/lv_arc.c **** 
 580:Lib/lvgl/src/widgets/arc/lv_arc.c ****         if(new_value != lv_arc_get_value(obj)) {
 581:Lib/lvgl/src/widgets/arc/lv_arc.c ****             arc->last_tick = lv_tick_get(); /*Cache timestamp for the next iteration*/
 582:Lib/lvgl/src/widgets/arc/lv_arc.c ****             lv_arc_set_value(obj, new_value); /*set_value caches the last_angle for the next iterat
 583:Lib/lvgl/src/widgets/arc/lv_arc.c ****             if(new_value != old_value) {
 584:Lib/lvgl/src/widgets/arc/lv_arc.c ****                 res = lv_obj_send_event(obj, LV_EVENT_VALUE_CHANGED, NULL);
 585:Lib/lvgl/src/widgets/arc/lv_arc.c ****                 if(res != LV_RESULT_OK) return;
 586:Lib/lvgl/src/widgets/arc/lv_arc.c ****             }
 587:Lib/lvgl/src/widgets/arc/lv_arc.c ****         }
 588:Lib/lvgl/src/widgets/arc/lv_arc.c **** 
 589:Lib/lvgl/src/widgets/arc/lv_arc.c ****         /*Don't let the elapsed time become too big while sitting on an end point*/
 590:Lib/lvgl/src/widgets/arc/lv_arc.c ****         if(new_value == arc->min_value || new_value == arc->max_value) {
 591:Lib/lvgl/src/widgets/arc/lv_arc.c ****             arc->last_tick = lv_tick_get(); /*Cache timestamp for the next iteration*/
 592:Lib/lvgl/src/widgets/arc/lv_arc.c ****         }
 593:Lib/lvgl/src/widgets/arc/lv_arc.c ****     }
 594:Lib/lvgl/src/widgets/arc/lv_arc.c ****     else if(code == LV_EVENT_RELEASED || code == LV_EVENT_PRESS_LOST) {
 595:Lib/lvgl/src/widgets/arc/lv_arc.c ****         arc->dragging = false;
 596:Lib/lvgl/src/widgets/arc/lv_arc.c **** 
 597:Lib/lvgl/src/widgets/arc/lv_arc.c ****         /*Leave edit mode if released. (No need to wait for LONG_PRESS)*/
 598:Lib/lvgl/src/widgets/arc/lv_arc.c ****         lv_group_t * g             = lv_obj_get_group(obj);
 599:Lib/lvgl/src/widgets/arc/lv_arc.c ****         bool editing               = lv_group_get_editing(g);
 600:Lib/lvgl/src/widgets/arc/lv_arc.c ****         lv_indev_type_t indev_type = lv_indev_get_type(lv_indev_active());
ARM GAS  C:\Users\Alex\AppData\Local\Temp\cczgZ6vp.s 			page 12


 601:Lib/lvgl/src/widgets/arc/lv_arc.c ****         if(indev_type == LV_INDEV_TYPE_ENCODER) {
 602:Lib/lvgl/src/widgets/arc/lv_arc.c ****             if(editing) lv_group_set_editing(g, false);
 603:Lib/lvgl/src/widgets/arc/lv_arc.c ****         }
 604:Lib/lvgl/src/widgets/arc/lv_arc.c **** 
 605:Lib/lvgl/src/widgets/arc/lv_arc.c ****     }
 606:Lib/lvgl/src/widgets/arc/lv_arc.c ****     else if(code == LV_EVENT_KEY) {
 607:Lib/lvgl/src/widgets/arc/lv_arc.c ****         uint32_t c = lv_event_get_key(e);
 608:Lib/lvgl/src/widgets/arc/lv_arc.c **** 
 609:Lib/lvgl/src/widgets/arc/lv_arc.c ****         int16_t old_value = arc->value;
 610:Lib/lvgl/src/widgets/arc/lv_arc.c ****         if(c == LV_KEY_RIGHT || c == LV_KEY_UP) {
 611:Lib/lvgl/src/widgets/arc/lv_arc.c ****             lv_arc_set_value(obj, lv_arc_get_value(obj) + 1);
 612:Lib/lvgl/src/widgets/arc/lv_arc.c ****         }
 613:Lib/lvgl/src/widgets/arc/lv_arc.c ****         else if(c == LV_KEY_LEFT || c == LV_KEY_DOWN) {
 614:Lib/lvgl/src/widgets/arc/lv_arc.c ****             lv_arc_set_value(obj, lv_arc_get_value(obj) - 1);
 615:Lib/lvgl/src/widgets/arc/lv_arc.c ****         }
 616:Lib/lvgl/src/widgets/arc/lv_arc.c **** 
 617:Lib/lvgl/src/widgets/arc/lv_arc.c ****         if(old_value != arc->value) {
 618:Lib/lvgl/src/widgets/arc/lv_arc.c ****             res = lv_obj_send_event(obj, LV_EVENT_VALUE_CHANGED, NULL);
 619:Lib/lvgl/src/widgets/arc/lv_arc.c ****             if(res != LV_RESULT_OK) return;
 620:Lib/lvgl/src/widgets/arc/lv_arc.c ****         }
 621:Lib/lvgl/src/widgets/arc/lv_arc.c ****     }
 622:Lib/lvgl/src/widgets/arc/lv_arc.c ****     else if(code == LV_EVENT_HIT_TEST) {
 623:Lib/lvgl/src/widgets/arc/lv_arc.c ****         lv_hit_test_info_t * info = lv_event_get_param(e);
 624:Lib/lvgl/src/widgets/arc/lv_arc.c **** 
 625:Lib/lvgl/src/widgets/arc/lv_arc.c ****         lv_point_t p;
 626:Lib/lvgl/src/widgets/arc/lv_arc.c ****         int32_t r;
 627:Lib/lvgl/src/widgets/arc/lv_arc.c ****         get_center(obj, &p, &r);
 628:Lib/lvgl/src/widgets/arc/lv_arc.c **** 
 629:Lib/lvgl/src/widgets/arc/lv_arc.c ****         int32_t ext_click_area = 0;
 630:Lib/lvgl/src/widgets/arc/lv_arc.c ****         if(obj->spec_attr) ext_click_area = obj->spec_attr->ext_click_pad;
 631:Lib/lvgl/src/widgets/arc/lv_arc.c **** 
 632:Lib/lvgl/src/widgets/arc/lv_arc.c ****         int32_t w = lv_obj_get_style_arc_width(obj, LV_PART_MAIN);
 633:Lib/lvgl/src/widgets/arc/lv_arc.c ****         r -= w + ext_click_area;
 634:Lib/lvgl/src/widgets/arc/lv_arc.c **** 
 635:Lib/lvgl/src/widgets/arc/lv_arc.c ****         lv_area_t a;
 636:Lib/lvgl/src/widgets/arc/lv_arc.c ****         /*Invalid if clicked inside*/
 637:Lib/lvgl/src/widgets/arc/lv_arc.c ****         lv_area_set(&a, p.x - r, p.y - r, p.x + r, p.y + r);
 638:Lib/lvgl/src/widgets/arc/lv_arc.c ****         if(_lv_area_is_point_on(&a, info->point, LV_RADIUS_CIRCLE)) {
 639:Lib/lvgl/src/widgets/arc/lv_arc.c ****             info->res = false;
 640:Lib/lvgl/src/widgets/arc/lv_arc.c ****             return;
 641:Lib/lvgl/src/widgets/arc/lv_arc.c ****         }
 642:Lib/lvgl/src/widgets/arc/lv_arc.c **** 
 643:Lib/lvgl/src/widgets/arc/lv_arc.c ****         /*Valid if no clicked outside*/
 644:Lib/lvgl/src/widgets/arc/lv_arc.c ****         lv_area_increase(&a, w + ext_click_area * 2, w + ext_click_area * 2);
 645:Lib/lvgl/src/widgets/arc/lv_arc.c ****         info->res = _lv_area_is_point_on(&a, info->point, LV_RADIUS_CIRCLE);
 646:Lib/lvgl/src/widgets/arc/lv_arc.c ****     }
 647:Lib/lvgl/src/widgets/arc/lv_arc.c ****     else if(code == LV_EVENT_REFR_EXT_DRAW_SIZE) {
 648:Lib/lvgl/src/widgets/arc/lv_arc.c ****         int32_t bg_left = lv_obj_get_style_pad_left(obj, LV_PART_MAIN);
 649:Lib/lvgl/src/widgets/arc/lv_arc.c ****         int32_t bg_right = lv_obj_get_style_pad_right(obj, LV_PART_MAIN);
 650:Lib/lvgl/src/widgets/arc/lv_arc.c ****         int32_t bg_top = lv_obj_get_style_pad_top(obj, LV_PART_MAIN);
 651:Lib/lvgl/src/widgets/arc/lv_arc.c ****         int32_t bg_bottom = lv_obj_get_style_pad_bottom(obj, LV_PART_MAIN);
 652:Lib/lvgl/src/widgets/arc/lv_arc.c ****         int32_t bg_pad = LV_MAX4(bg_left, bg_right, bg_top, bg_bottom);
 653:Lib/lvgl/src/widgets/arc/lv_arc.c **** 
 654:Lib/lvgl/src/widgets/arc/lv_arc.c ****         int32_t knob_left = lv_obj_get_style_pad_left(obj, LV_PART_KNOB);
 655:Lib/lvgl/src/widgets/arc/lv_arc.c ****         int32_t knob_right = lv_obj_get_style_pad_right(obj, LV_PART_KNOB);
 656:Lib/lvgl/src/widgets/arc/lv_arc.c ****         int32_t knob_top = lv_obj_get_style_pad_top(obj, LV_PART_KNOB);
 657:Lib/lvgl/src/widgets/arc/lv_arc.c ****         int32_t knob_bottom = lv_obj_get_style_pad_bottom(obj, LV_PART_KNOB);
ARM GAS  C:\Users\Alex\AppData\Local\Temp\cczgZ6vp.s 			page 13


 658:Lib/lvgl/src/widgets/arc/lv_arc.c ****         int32_t knob_pad = LV_MAX4(knob_left, knob_right, knob_top, knob_bottom) + 2;
 659:Lib/lvgl/src/widgets/arc/lv_arc.c **** 
 660:Lib/lvgl/src/widgets/arc/lv_arc.c ****         int32_t knob_extra_size = knob_pad - bg_pad;
 661:Lib/lvgl/src/widgets/arc/lv_arc.c ****         knob_extra_size += knob_get_extra_size(obj);
 662:Lib/lvgl/src/widgets/arc/lv_arc.c **** 
 663:Lib/lvgl/src/widgets/arc/lv_arc.c ****         int32_t * s = lv_event_get_param(e);
 664:Lib/lvgl/src/widgets/arc/lv_arc.c ****         *s = LV_MAX(*s, knob_extra_size);
 665:Lib/lvgl/src/widgets/arc/lv_arc.c ****     }
 666:Lib/lvgl/src/widgets/arc/lv_arc.c ****     else if(code == LV_EVENT_DRAW_MAIN) {
 667:Lib/lvgl/src/widgets/arc/lv_arc.c ****         lv_arc_draw(e);
 668:Lib/lvgl/src/widgets/arc/lv_arc.c ****     }
 669:Lib/lvgl/src/widgets/arc/lv_arc.c **** }
 670:Lib/lvgl/src/widgets/arc/lv_arc.c **** 
 671:Lib/lvgl/src/widgets/arc/lv_arc.c **** static void lv_arc_draw(lv_event_t * e)
 672:Lib/lvgl/src/widgets/arc/lv_arc.c **** {
 673:Lib/lvgl/src/widgets/arc/lv_arc.c ****     lv_obj_t * obj = lv_event_get_current_target(e);
 674:Lib/lvgl/src/widgets/arc/lv_arc.c ****     lv_arc_t * arc = (lv_arc_t *)obj;
 675:Lib/lvgl/src/widgets/arc/lv_arc.c **** 
 676:Lib/lvgl/src/widgets/arc/lv_arc.c ****     lv_layer_t * layer = lv_event_get_layer(e);
 677:Lib/lvgl/src/widgets/arc/lv_arc.c **** 
 678:Lib/lvgl/src/widgets/arc/lv_arc.c ****     lv_point_t center;
 679:Lib/lvgl/src/widgets/arc/lv_arc.c ****     int32_t arc_r;
 680:Lib/lvgl/src/widgets/arc/lv_arc.c ****     get_center(obj, &center, &arc_r);
 681:Lib/lvgl/src/widgets/arc/lv_arc.c **** 
 682:Lib/lvgl/src/widgets/arc/lv_arc.c ****     /*Draw the background arc*/
 683:Lib/lvgl/src/widgets/arc/lv_arc.c ****     lv_draw_arc_dsc_t arc_dsc;
 684:Lib/lvgl/src/widgets/arc/lv_arc.c ****     if(arc_r > 0) {
 685:Lib/lvgl/src/widgets/arc/lv_arc.c ****         lv_draw_arc_dsc_init(&arc_dsc);
 686:Lib/lvgl/src/widgets/arc/lv_arc.c ****         lv_obj_init_draw_arc_dsc(obj, LV_PART_MAIN, &arc_dsc);
 687:Lib/lvgl/src/widgets/arc/lv_arc.c ****         arc_dsc.center = center;
 688:Lib/lvgl/src/widgets/arc/lv_arc.c ****         arc_dsc.start_angle = arc->bg_angle_start + arc->rotation;
 689:Lib/lvgl/src/widgets/arc/lv_arc.c ****         arc_dsc.end_angle = arc->bg_angle_end + arc->rotation;
 690:Lib/lvgl/src/widgets/arc/lv_arc.c ****         arc_dsc.radius = arc_r;
 691:Lib/lvgl/src/widgets/arc/lv_arc.c ****         lv_draw_arc(layer, &arc_dsc);
 692:Lib/lvgl/src/widgets/arc/lv_arc.c ****     }
 693:Lib/lvgl/src/widgets/arc/lv_arc.c **** 
 694:Lib/lvgl/src/widgets/arc/lv_arc.c ****     /*Make the indicator arc smaller or larger according to its greatest padding value*/
 695:Lib/lvgl/src/widgets/arc/lv_arc.c ****     int32_t left_indic = lv_obj_get_style_pad_left(obj, LV_PART_INDICATOR);
 696:Lib/lvgl/src/widgets/arc/lv_arc.c ****     int32_t right_indic = lv_obj_get_style_pad_right(obj, LV_PART_INDICATOR);
 697:Lib/lvgl/src/widgets/arc/lv_arc.c ****     int32_t top_indic = lv_obj_get_style_pad_top(obj, LV_PART_INDICATOR);
 698:Lib/lvgl/src/widgets/arc/lv_arc.c ****     int32_t bottom_indic = lv_obj_get_style_pad_bottom(obj, LV_PART_INDICATOR);
 699:Lib/lvgl/src/widgets/arc/lv_arc.c ****     int32_t indic_r = arc_r - LV_MAX4(left_indic, right_indic, top_indic, bottom_indic);
 700:Lib/lvgl/src/widgets/arc/lv_arc.c **** 
 701:Lib/lvgl/src/widgets/arc/lv_arc.c ****     if(indic_r > 0) {
 702:Lib/lvgl/src/widgets/arc/lv_arc.c ****         lv_draw_arc_dsc_init(&arc_dsc);
 703:Lib/lvgl/src/widgets/arc/lv_arc.c ****         lv_obj_init_draw_arc_dsc(obj, LV_PART_INDICATOR, &arc_dsc);
 704:Lib/lvgl/src/widgets/arc/lv_arc.c ****         arc_dsc.center = center;
 705:Lib/lvgl/src/widgets/arc/lv_arc.c ****         arc_dsc.start_angle = arc->indic_angle_start + arc->rotation;
 706:Lib/lvgl/src/widgets/arc/lv_arc.c ****         arc_dsc.end_angle = arc->indic_angle_end + arc->rotation;
 707:Lib/lvgl/src/widgets/arc/lv_arc.c **** 
 708:Lib/lvgl/src/widgets/arc/lv_arc.c ****         arc_dsc.radius = indic_r;
 709:Lib/lvgl/src/widgets/arc/lv_arc.c **** 
 710:Lib/lvgl/src/widgets/arc/lv_arc.c ****         lv_draw_arc(layer, &arc_dsc);
 711:Lib/lvgl/src/widgets/arc/lv_arc.c ****     }
 712:Lib/lvgl/src/widgets/arc/lv_arc.c **** 
 713:Lib/lvgl/src/widgets/arc/lv_arc.c ****     lv_area_t knob_area;
 714:Lib/lvgl/src/widgets/arc/lv_arc.c ****     get_knob_area(obj, &center, arc_r, &knob_area);
ARM GAS  C:\Users\Alex\AppData\Local\Temp\cczgZ6vp.s 			page 14


 715:Lib/lvgl/src/widgets/arc/lv_arc.c **** 
 716:Lib/lvgl/src/widgets/arc/lv_arc.c ****     lv_draw_rect_dsc_t knob_rect_dsc;
 717:Lib/lvgl/src/widgets/arc/lv_arc.c ****     lv_draw_rect_dsc_init(&knob_rect_dsc);
 718:Lib/lvgl/src/widgets/arc/lv_arc.c ****     lv_obj_init_draw_rect_dsc(obj, LV_PART_KNOB, &knob_rect_dsc);
 719:Lib/lvgl/src/widgets/arc/lv_arc.c ****     lv_draw_rect(layer, &knob_rect_dsc, &knob_area);
 720:Lib/lvgl/src/widgets/arc/lv_arc.c **** }
 721:Lib/lvgl/src/widgets/arc/lv_arc.c **** 
 722:Lib/lvgl/src/widgets/arc/lv_arc.c **** static void inv_arc_area(lv_obj_t * obj, lv_value_precise_t start_angle, lv_value_precise_t end_ang
 723:Lib/lvgl/src/widgets/arc/lv_arc.c **** {
 724:Lib/lvgl/src/widgets/arc/lv_arc.c ****     LV_ASSERT_OBJ(obj, MY_CLASS);
 725:Lib/lvgl/src/widgets/arc/lv_arc.c **** 
 726:Lib/lvgl/src/widgets/arc/lv_arc.c ****     /*Skip this complicated invalidation if the arc is not visible*/
 727:Lib/lvgl/src/widgets/arc/lv_arc.c ****     if(lv_obj_is_visible(obj) == false) return;
 728:Lib/lvgl/src/widgets/arc/lv_arc.c **** 
 729:Lib/lvgl/src/widgets/arc/lv_arc.c ****     lv_arc_t * arc = (lv_arc_t *)obj;
 730:Lib/lvgl/src/widgets/arc/lv_arc.c **** 
 731:Lib/lvgl/src/widgets/arc/lv_arc.c ****     if(start_angle == end_angle) return;
 732:Lib/lvgl/src/widgets/arc/lv_arc.c **** 
 733:Lib/lvgl/src/widgets/arc/lv_arc.c ****     if(start_angle > 360) start_angle -= 360;
 734:Lib/lvgl/src/widgets/arc/lv_arc.c ****     if(end_angle > 360) end_angle -= 360;
 735:Lib/lvgl/src/widgets/arc/lv_arc.c **** 
 736:Lib/lvgl/src/widgets/arc/lv_arc.c ****     start_angle += arc->rotation;
 737:Lib/lvgl/src/widgets/arc/lv_arc.c ****     end_angle += arc->rotation;
 738:Lib/lvgl/src/widgets/arc/lv_arc.c **** 
 739:Lib/lvgl/src/widgets/arc/lv_arc.c ****     if(start_angle > 360) start_angle -= 360;
 740:Lib/lvgl/src/widgets/arc/lv_arc.c ****     if(end_angle > 360) end_angle -= 360;
 741:Lib/lvgl/src/widgets/arc/lv_arc.c **** 
 742:Lib/lvgl/src/widgets/arc/lv_arc.c ****     int32_t r;
 743:Lib/lvgl/src/widgets/arc/lv_arc.c ****     lv_point_t c;
 744:Lib/lvgl/src/widgets/arc/lv_arc.c ****     get_center(obj, &c, &r);
 745:Lib/lvgl/src/widgets/arc/lv_arc.c **** 
 746:Lib/lvgl/src/widgets/arc/lv_arc.c ****     int32_t w = lv_obj_get_style_arc_width(obj, part);
 747:Lib/lvgl/src/widgets/arc/lv_arc.c ****     int32_t rounded = lv_obj_get_style_arc_rounded(obj, part);
 748:Lib/lvgl/src/widgets/arc/lv_arc.c **** 
 749:Lib/lvgl/src/widgets/arc/lv_arc.c ****     lv_area_t inv_area;
 750:Lib/lvgl/src/widgets/arc/lv_arc.c ****     lv_draw_arc_get_area(c.x, c.y, r, start_angle, end_angle, w, rounded, &inv_area);
 751:Lib/lvgl/src/widgets/arc/lv_arc.c **** 
 752:Lib/lvgl/src/widgets/arc/lv_arc.c ****     lv_obj_invalidate_area(obj, &inv_area);
 753:Lib/lvgl/src/widgets/arc/lv_arc.c **** }
 754:Lib/lvgl/src/widgets/arc/lv_arc.c **** 
 755:Lib/lvgl/src/widgets/arc/lv_arc.c **** static void inv_knob_area(lv_obj_t * obj)
 756:Lib/lvgl/src/widgets/arc/lv_arc.c **** {
 757:Lib/lvgl/src/widgets/arc/lv_arc.c ****     lv_point_t c;
 758:Lib/lvgl/src/widgets/arc/lv_arc.c ****     int32_t r;
 759:Lib/lvgl/src/widgets/arc/lv_arc.c ****     get_center(obj, &c, &r);
 760:Lib/lvgl/src/widgets/arc/lv_arc.c **** 
 761:Lib/lvgl/src/widgets/arc/lv_arc.c ****     lv_area_t a;
 762:Lib/lvgl/src/widgets/arc/lv_arc.c ****     get_knob_area(obj, &c, r, &a);
 763:Lib/lvgl/src/widgets/arc/lv_arc.c **** 
 764:Lib/lvgl/src/widgets/arc/lv_arc.c ****     int32_t knob_extra_size = knob_get_extra_size(obj);
 765:Lib/lvgl/src/widgets/arc/lv_arc.c **** 
 766:Lib/lvgl/src/widgets/arc/lv_arc.c ****     if(knob_extra_size > 0) {
 767:Lib/lvgl/src/widgets/arc/lv_arc.c ****         lv_area_increase(&a, knob_extra_size, knob_extra_size);
 768:Lib/lvgl/src/widgets/arc/lv_arc.c ****     }
 769:Lib/lvgl/src/widgets/arc/lv_arc.c **** 
 770:Lib/lvgl/src/widgets/arc/lv_arc.c ****     lv_obj_invalidate_area(obj, &a);
 771:Lib/lvgl/src/widgets/arc/lv_arc.c **** }
ARM GAS  C:\Users\Alex\AppData\Local\Temp\cczgZ6vp.s 			page 15


 772:Lib/lvgl/src/widgets/arc/lv_arc.c **** 
 773:Lib/lvgl/src/widgets/arc/lv_arc.c **** static void get_center(const lv_obj_t * obj, lv_point_t * center, int32_t * arc_r)
 774:Lib/lvgl/src/widgets/arc/lv_arc.c **** {
 775:Lib/lvgl/src/widgets/arc/lv_arc.c ****     int32_t left_bg = lv_obj_get_style_pad_left(obj, LV_PART_MAIN);
 776:Lib/lvgl/src/widgets/arc/lv_arc.c ****     int32_t right_bg = lv_obj_get_style_pad_right(obj, LV_PART_MAIN);
 777:Lib/lvgl/src/widgets/arc/lv_arc.c ****     int32_t top_bg = lv_obj_get_style_pad_top(obj, LV_PART_MAIN);
 778:Lib/lvgl/src/widgets/arc/lv_arc.c ****     int32_t bottom_bg = lv_obj_get_style_pad_bottom(obj, LV_PART_MAIN);
 779:Lib/lvgl/src/widgets/arc/lv_arc.c **** 
 780:Lib/lvgl/src/widgets/arc/lv_arc.c ****     int32_t r = (LV_MIN(lv_obj_get_width(obj) - left_bg - right_bg,
 781:Lib/lvgl/src/widgets/arc/lv_arc.c ****                         lv_obj_get_height(obj) - top_bg - bottom_bg)) / 2;
 782:Lib/lvgl/src/widgets/arc/lv_arc.c **** 
 783:Lib/lvgl/src/widgets/arc/lv_arc.c ****     center->x = obj->coords.x1 + r + left_bg;
 784:Lib/lvgl/src/widgets/arc/lv_arc.c ****     center->y = obj->coords.y1 + r + top_bg;
 785:Lib/lvgl/src/widgets/arc/lv_arc.c **** 
 786:Lib/lvgl/src/widgets/arc/lv_arc.c ****     if(arc_r) *arc_r = r;
 787:Lib/lvgl/src/widgets/arc/lv_arc.c **** }
 788:Lib/lvgl/src/widgets/arc/lv_arc.c **** 
 789:Lib/lvgl/src/widgets/arc/lv_arc.c **** static lv_value_precise_t get_angle(const lv_obj_t * obj)
 790:Lib/lvgl/src/widgets/arc/lv_arc.c **** {
  29              		.loc 1 790 1 view -0
  30              		.cfi_startproc
  31              		@ args = 0, pretend = 0, frame = 0
  32              		@ frame_needed = 0, uses_anonymous_args = 0
  33              		@ link register save eliminated.
  34              		.loc 1 790 1 is_stmt 0 view .LVU1
  35 0000 0346     		mov	r3, r0
 791:Lib/lvgl/src/widgets/arc/lv_arc.c ****     lv_arc_t * arc = (lv_arc_t *)obj;
  36              		.loc 1 791 5 is_stmt 1 view .LVU2
  37              	.LVL1:
 792:Lib/lvgl/src/widgets/arc/lv_arc.c ****     lv_value_precise_t angle = arc->rotation;
  38              		.loc 1 792 5 view .LVU3
  39              		.loc 1 792 24 is_stmt 0 view .LVU4
  40 0002 C06A     		ldr	r0, [r0, #44]
  41              	.LVL2:
 793:Lib/lvgl/src/widgets/arc/lv_arc.c ****     if(arc->type == LV_ARC_MODE_NORMAL) {
  42              		.loc 1 793 5 is_stmt 1 view .LVU5
  43              		.loc 1 793 18 is_stmt 0 view .LVU6
  44 0004 93F84C20 		ldrb	r2, [r3, #76]	@ zero_extendqisi2
  45              		.loc 1 793 7 view .LVU7
  46 0008 12F00602 		ands	r2, r2, #6
  47 000c 02D1     		bne	.L2
 794:Lib/lvgl/src/widgets/arc/lv_arc.c ****         angle += arc->indic_angle_end;
  48              		.loc 1 794 9 is_stmt 1 view .LVU8
  49              		.loc 1 794 21 is_stmt 0 view .LVU9
  50 000e 5B6B     		ldr	r3, [r3, #52]
  51              	.LVL3:
  52              		.loc 1 794 15 view .LVU10
  53 0010 1844     		add	r0, r0, r3
  54              	.LVL4:
  55              		.loc 1 794 15 view .LVU11
  56 0012 7047     		bx	lr
  57              	.LVL5:
  58              	.L2:
 795:Lib/lvgl/src/widgets/arc/lv_arc.c ****     }
 796:Lib/lvgl/src/widgets/arc/lv_arc.c ****     else if(arc->type == LV_ARC_MODE_REVERSE) {
  59              		.loc 1 796 10 is_stmt 1 view .LVU12
  60              		.loc 1 796 12 is_stmt 0 view .LVU13
ARM GAS  C:\Users\Alex\AppData\Local\Temp\cczgZ6vp.s 			page 16


  61 0014 042A     		cmp	r2, #4
  62 0016 02D0     		beq	.L14
 797:Lib/lvgl/src/widgets/arc/lv_arc.c ****         angle += arc->indic_angle_start;
 798:Lib/lvgl/src/widgets/arc/lv_arc.c ****     }
 799:Lib/lvgl/src/widgets/arc/lv_arc.c ****     else if(arc->type == LV_ARC_MODE_SYMMETRICAL) {
  63              		.loc 1 799 10 is_stmt 1 view .LVU14
  64              		.loc 1 799 12 is_stmt 0 view .LVU15
  65 0018 022A     		cmp	r2, #2
  66 001a 03D0     		beq	.L15
 800:Lib/lvgl/src/widgets/arc/lv_arc.c ****         lv_value_precise_t bg_end = arc->bg_angle_end;
 801:Lib/lvgl/src/widgets/arc/lv_arc.c ****         if(arc->bg_angle_end < arc->bg_angle_start) bg_end = arc->bg_angle_end + 360;
 802:Lib/lvgl/src/widgets/arc/lv_arc.c ****         lv_value_precise_t indic_end = arc->indic_angle_end;
 803:Lib/lvgl/src/widgets/arc/lv_arc.c ****         if(arc->indic_angle_end < arc->indic_angle_start) indic_end = arc->indic_angle_end + 360;
 804:Lib/lvgl/src/widgets/arc/lv_arc.c **** 
 805:Lib/lvgl/src/widgets/arc/lv_arc.c ****         lv_value_precise_t angle_midpoint = (int32_t)(arc->bg_angle_start + bg_end) / 2;
 806:Lib/lvgl/src/widgets/arc/lv_arc.c ****         if(arc->indic_angle_start < angle_midpoint) angle += arc->indic_angle_start;
 807:Lib/lvgl/src/widgets/arc/lv_arc.c ****         else if(indic_end > angle_midpoint) angle += arc->indic_angle_end;
 808:Lib/lvgl/src/widgets/arc/lv_arc.c ****         else angle += angle_midpoint;
 809:Lib/lvgl/src/widgets/arc/lv_arc.c ****     }
 810:Lib/lvgl/src/widgets/arc/lv_arc.c **** 
 811:Lib/lvgl/src/widgets/arc/lv_arc.c ****     return angle;
 812:Lib/lvgl/src/widgets/arc/lv_arc.c **** }
  67              		.loc 1 812 1 view .LVU16
  68 001c 7047     		bx	lr
  69              	.L14:
 797:Lib/lvgl/src/widgets/arc/lv_arc.c ****         angle += arc->indic_angle_start;
  70              		.loc 1 797 9 is_stmt 1 view .LVU17
 797:Lib/lvgl/src/widgets/arc/lv_arc.c ****         angle += arc->indic_angle_start;
  71              		.loc 1 797 21 is_stmt 0 view .LVU18
  72 001e 1B6B     		ldr	r3, [r3, #48]
  73              	.LVL6:
 797:Lib/lvgl/src/widgets/arc/lv_arc.c ****         angle += arc->indic_angle_start;
  74              		.loc 1 797 15 view .LVU19
  75 0020 1844     		add	r0, r0, r3
  76              	.LVL7:
 797:Lib/lvgl/src/widgets/arc/lv_arc.c ****         angle += arc->indic_angle_start;
  77              		.loc 1 797 15 view .LVU20
  78 0022 7047     		bx	lr
  79              	.LVL8:
  80              	.L15:
 790:Lib/lvgl/src/widgets/arc/lv_arc.c ****     lv_arc_t * arc = (lv_arc_t *)obj;
  81              		.loc 1 790 1 view .LVU21
  82 0024 30B4     		push	{r4, r5}
  83              	.LCFI0:
  84              		.cfi_def_cfa_offset 8
  85              		.cfi_offset 4, -8
  86              		.cfi_offset 5, -4
  87              	.LBB82:
 800:Lib/lvgl/src/widgets/arc/lv_arc.c ****         lv_value_precise_t bg_end = arc->bg_angle_end;
  88              		.loc 1 800 9 is_stmt 1 view .LVU22
 800:Lib/lvgl/src/widgets/arc/lv_arc.c ****         lv_value_precise_t bg_end = arc->bg_angle_end;
  89              		.loc 1 800 28 is_stmt 0 view .LVU23
  90 0026 D96B     		ldr	r1, [r3, #60]
  91              	.LVL9:
 801:Lib/lvgl/src/widgets/arc/lv_arc.c ****         lv_value_precise_t indic_end = arc->indic_angle_end;
  92              		.loc 1 801 9 is_stmt 1 view .LVU24
 801:Lib/lvgl/src/widgets/arc/lv_arc.c ****         lv_value_precise_t indic_end = arc->indic_angle_end;
ARM GAS  C:\Users\Alex\AppData\Local\Temp\cczgZ6vp.s 			page 17


  93              		.loc 1 801 35 is_stmt 0 view .LVU25
  94 0028 9A6B     		ldr	r2, [r3, #56]
 801:Lib/lvgl/src/widgets/arc/lv_arc.c ****         lv_value_precise_t indic_end = arc->indic_angle_end;
  95              		.loc 1 801 11 view .LVU26
  96 002a 8A42     		cmp	r2, r1
  97 002c 01DD     		ble	.L5
 801:Lib/lvgl/src/widgets/arc/lv_arc.c ****         lv_value_precise_t indic_end = arc->indic_angle_end;
  98              		.loc 1 801 53 is_stmt 1 discriminator 1 view .LVU27
 801:Lib/lvgl/src/widgets/arc/lv_arc.c ****         lv_value_precise_t indic_end = arc->indic_angle_end;
  99              		.loc 1 801 60 is_stmt 0 discriminator 1 view .LVU28
 100 002e 01F5B471 		add	r1, r1, #360
 101              	.LVL10:
 102              	.L5:
 802:Lib/lvgl/src/widgets/arc/lv_arc.c ****         if(arc->indic_angle_end < arc->indic_angle_start) indic_end = arc->indic_angle_end + 360;
 103              		.loc 1 802 9 is_stmt 1 view .LVU29
 802:Lib/lvgl/src/widgets/arc/lv_arc.c ****         if(arc->indic_angle_end < arc->indic_angle_start) indic_end = arc->indic_angle_end + 360;
 104              		.loc 1 802 28 is_stmt 0 view .LVU30
 105 0032 5D6B     		ldr	r5, [r3, #52]
 106              	.LVL11:
 803:Lib/lvgl/src/widgets/arc/lv_arc.c **** 
 107              		.loc 1 803 9 is_stmt 1 view .LVU31
 803:Lib/lvgl/src/widgets/arc/lv_arc.c **** 
 108              		.loc 1 803 38 is_stmt 0 view .LVU32
 109 0034 1C6B     		ldr	r4, [r3, #48]
 803:Lib/lvgl/src/widgets/arc/lv_arc.c **** 
 110              		.loc 1 803 11 view .LVU33
 111 0036 AC42     		cmp	r4, r5
 112 0038 0BDD     		ble	.L9
 803:Lib/lvgl/src/widgets/arc/lv_arc.c **** 
 113              		.loc 1 803 59 is_stmt 1 discriminator 1 view .LVU34
 803:Lib/lvgl/src/widgets/arc/lv_arc.c **** 
 114              		.loc 1 803 69 is_stmt 0 discriminator 1 view .LVU35
 115 003a 05F5B47C 		add	ip, r5, #360
 116              	.LVL12:
 117              	.L6:
 805:Lib/lvgl/src/widgets/arc/lv_arc.c ****         if(arc->indic_angle_start < angle_midpoint) angle += arc->indic_angle_start;
 118              		.loc 1 805 9 is_stmt 1 view .LVU36
 805:Lib/lvgl/src/widgets/arc/lv_arc.c ****         if(arc->indic_angle_start < angle_midpoint) angle += arc->indic_angle_start;
 119              		.loc 1 805 75 is_stmt 0 view .LVU37
 120 003e 5318     		adds	r3, r2, r1
 121              	.LVL13:
 805:Lib/lvgl/src/widgets/arc/lv_arc.c ****         if(arc->indic_angle_start < angle_midpoint) angle += arc->indic_angle_start;
 122              		.loc 1 805 28 view .LVU38
 123 0040 03EBD373 		add	r3, r3, r3, lsr #31
 124 0044 5A10     		asrs	r2, r3, #1
 125              	.LVL14:
 806:Lib/lvgl/src/widgets/arc/lv_arc.c ****         else if(indic_end > angle_midpoint) angle += arc->indic_angle_end;
 126              		.loc 1 806 9 is_stmt 1 view .LVU39
 806:Lib/lvgl/src/widgets/arc/lv_arc.c ****         else if(indic_end > angle_midpoint) angle += arc->indic_angle_end;
 127              		.loc 1 806 11 is_stmt 0 view .LVU40
 128 0046 B4EB630F 		cmp	r4, r3, asr #1
 129 004a 04DA     		bge	.L7
 806:Lib/lvgl/src/widgets/arc/lv_arc.c ****         else if(indic_end > angle_midpoint) angle += arc->indic_angle_end;
 130              		.loc 1 806 53 is_stmt 1 discriminator 1 view .LVU41
 806:Lib/lvgl/src/widgets/arc/lv_arc.c ****         else if(indic_end > angle_midpoint) angle += arc->indic_angle_end;
 131              		.loc 1 806 59 is_stmt 0 discriminator 1 view .LVU42
 132 004c 2044     		add	r0, r0, r4
ARM GAS  C:\Users\Alex\AppData\Local\Temp\cczgZ6vp.s 			page 18


 133              	.LVL15:
 134              	.L1:
 806:Lib/lvgl/src/widgets/arc/lv_arc.c ****         else if(indic_end > angle_midpoint) angle += arc->indic_angle_end;
 135              		.loc 1 806 59 discriminator 1 view .LVU43
 136              	.LBE82:
 137              		.loc 1 812 1 view .LVU44
 138 004e 30BC     		pop	{r4, r5}
 139              	.LCFI1:
 140              		.cfi_remember_state
 141              		.cfi_restore 5
 142              		.cfi_restore 4
 143              		.cfi_def_cfa_offset 0
 144 0050 7047     		bx	lr
 145              	.LVL16:
 146              	.L9:
 147              	.LCFI2:
 148              		.cfi_restore_state
 149              	.LBB83:
 802:Lib/lvgl/src/widgets/arc/lv_arc.c ****         if(arc->indic_angle_end < arc->indic_angle_start) indic_end = arc->indic_angle_end + 360;
 150              		.loc 1 802 28 view .LVU45
 151 0052 AC46     		mov	ip, r5
 152 0054 F3E7     		b	.L6
 153              	.LVL17:
 154              	.L7:
 807:Lib/lvgl/src/widgets/arc/lv_arc.c ****         else angle += angle_midpoint;
 155              		.loc 1 807 14 is_stmt 1 view .LVU46
 807:Lib/lvgl/src/widgets/arc/lv_arc.c ****         else angle += angle_midpoint;
 156              		.loc 1 807 16 is_stmt 0 view .LVU47
 157 0056 9445     		cmp	ip, r2
 158 0058 01DD     		ble	.L8
 807:Lib/lvgl/src/widgets/arc/lv_arc.c ****         else angle += angle_midpoint;
 159              		.loc 1 807 45 is_stmt 1 discriminator 1 view .LVU48
 807:Lib/lvgl/src/widgets/arc/lv_arc.c ****         else angle += angle_midpoint;
 160              		.loc 1 807 51 is_stmt 0 discriminator 1 view .LVU49
 161 005a 2844     		add	r0, r0, r5
 162              	.LVL18:
 807:Lib/lvgl/src/widgets/arc/lv_arc.c ****         else angle += angle_midpoint;
 163              		.loc 1 807 51 discriminator 1 view .LVU50
 164 005c F7E7     		b	.L1
 165              	.L8:
 808:Lib/lvgl/src/widgets/arc/lv_arc.c ****     }
 166              		.loc 1 808 14 is_stmt 1 view .LVU51
 808:Lib/lvgl/src/widgets/arc/lv_arc.c ****     }
 167              		.loc 1 808 20 is_stmt 0 view .LVU52
 168 005e 1044     		add	r0, r0, r2
 169              	.LVL19:
 808:Lib/lvgl/src/widgets/arc/lv_arc.c ****     }
 170              		.loc 1 808 20 view .LVU53
 171              	.LBE83:
 811:Lib/lvgl/src/widgets/arc/lv_arc.c **** }
 172              		.loc 1 811 5 is_stmt 1 view .LVU54
 811:Lib/lvgl/src/widgets/arc/lv_arc.c **** }
 173              		.loc 1 811 12 is_stmt 0 view .LVU55
 174 0060 F5E7     		b	.L1
 175              		.cfi_endproc
 176              	.LFE264:
 178              		.section	.text.lv_arc_angle_within_bg_bounds,"ax",%progbits
ARM GAS  C:\Users\Alex\AppData\Local\Temp\cczgZ6vp.s 			page 19


 179              		.align	1
 180              		.syntax unified
 181              		.thumb
 182              		.thumb_func
 184              	lv_arc_angle_within_bg_bounds:
 185              	.LVL20:
 186              	.LFB268:
 813:Lib/lvgl/src/widgets/arc/lv_arc.c **** 
 814:Lib/lvgl/src/widgets/arc/lv_arc.c **** static void get_knob_area(lv_obj_t * obj, const lv_point_t * center, int32_t r, lv_area_t * knob_ar
 815:Lib/lvgl/src/widgets/arc/lv_arc.c **** {
 816:Lib/lvgl/src/widgets/arc/lv_arc.c ****     int32_t indic_width = lv_obj_get_style_arc_width(obj, LV_PART_INDICATOR);
 817:Lib/lvgl/src/widgets/arc/lv_arc.c ****     int32_t indic_width_half = indic_width / 2;
 818:Lib/lvgl/src/widgets/arc/lv_arc.c ****     r -= indic_width_half;
 819:Lib/lvgl/src/widgets/arc/lv_arc.c **** 
 820:Lib/lvgl/src/widgets/arc/lv_arc.c ****     int32_t angle = (int32_t)get_angle(obj);
 821:Lib/lvgl/src/widgets/arc/lv_arc.c ****     int32_t knob_offset = lv_arc_get_knob_offset(obj);
 822:Lib/lvgl/src/widgets/arc/lv_arc.c ****     int32_t knob_x = (r * lv_trigo_sin(knob_offset + angle + 90)) >> LV_TRIGO_SHIFT;
 823:Lib/lvgl/src/widgets/arc/lv_arc.c ****     int32_t knob_y = (r * lv_trigo_sin(knob_offset + angle)) >> LV_TRIGO_SHIFT;
 824:Lib/lvgl/src/widgets/arc/lv_arc.c **** 
 825:Lib/lvgl/src/widgets/arc/lv_arc.c ****     int32_t left_knob = lv_obj_get_style_pad_left(obj, LV_PART_KNOB);
 826:Lib/lvgl/src/widgets/arc/lv_arc.c ****     int32_t right_knob = lv_obj_get_style_pad_right(obj, LV_PART_KNOB);
 827:Lib/lvgl/src/widgets/arc/lv_arc.c ****     int32_t top_knob = lv_obj_get_style_pad_top(obj, LV_PART_KNOB);
 828:Lib/lvgl/src/widgets/arc/lv_arc.c ****     int32_t bottom_knob = lv_obj_get_style_pad_bottom(obj, LV_PART_KNOB);
 829:Lib/lvgl/src/widgets/arc/lv_arc.c **** 
 830:Lib/lvgl/src/widgets/arc/lv_arc.c ****     knob_area->x1 = center->x + knob_x - left_knob - indic_width_half;
 831:Lib/lvgl/src/widgets/arc/lv_arc.c ****     knob_area->x2 = center->x + knob_x + right_knob + indic_width_half;
 832:Lib/lvgl/src/widgets/arc/lv_arc.c ****     knob_area->y1 = center->y + knob_y - top_knob - indic_width_half;
 833:Lib/lvgl/src/widgets/arc/lv_arc.c ****     knob_area->y2 = center->y + knob_y + bottom_knob + indic_width_half;
 834:Lib/lvgl/src/widgets/arc/lv_arc.c **** }
 835:Lib/lvgl/src/widgets/arc/lv_arc.c **** 
 836:Lib/lvgl/src/widgets/arc/lv_arc.c **** /**
 837:Lib/lvgl/src/widgets/arc/lv_arc.c ****  * Used internally to update arc angles after a value change
 838:Lib/lvgl/src/widgets/arc/lv_arc.c ****  * @param arc pointer to an arc object
 839:Lib/lvgl/src/widgets/arc/lv_arc.c ****  */
 840:Lib/lvgl/src/widgets/arc/lv_arc.c **** static void value_update(lv_obj_t * obj)
 841:Lib/lvgl/src/widgets/arc/lv_arc.c **** {
 842:Lib/lvgl/src/widgets/arc/lv_arc.c ****     LV_ASSERT_OBJ(obj, MY_CLASS);
 843:Lib/lvgl/src/widgets/arc/lv_arc.c ****     lv_arc_t * arc = (lv_arc_t *)obj;
 844:Lib/lvgl/src/widgets/arc/lv_arc.c **** 
 845:Lib/lvgl/src/widgets/arc/lv_arc.c ****     /*If the value is still not set to any value do not update*/
 846:Lib/lvgl/src/widgets/arc/lv_arc.c ****     if(arc->value == VALUE_UNSET) return;
 847:Lib/lvgl/src/widgets/arc/lv_arc.c **** 
 848:Lib/lvgl/src/widgets/arc/lv_arc.c ****     lv_value_precise_t bg_midpoint, bg_end = arc->bg_angle_end;
 849:Lib/lvgl/src/widgets/arc/lv_arc.c ****     int32_t range_midpoint;
 850:Lib/lvgl/src/widgets/arc/lv_arc.c ****     if(arc->bg_angle_end < arc->bg_angle_start) bg_end = arc->bg_angle_end + 360;
 851:Lib/lvgl/src/widgets/arc/lv_arc.c **** 
 852:Lib/lvgl/src/widgets/arc/lv_arc.c ****     int32_t angle;
 853:Lib/lvgl/src/widgets/arc/lv_arc.c ****     switch(arc->type) {
 854:Lib/lvgl/src/widgets/arc/lv_arc.c ****         case LV_ARC_MODE_SYMMETRICAL:
 855:Lib/lvgl/src/widgets/arc/lv_arc.c ****             bg_midpoint = (arc->bg_angle_start + bg_end) / 2;
 856:Lib/lvgl/src/widgets/arc/lv_arc.c ****             range_midpoint = (int32_t)(arc->min_value + arc->max_value) / 2;
 857:Lib/lvgl/src/widgets/arc/lv_arc.c **** 
 858:Lib/lvgl/src/widgets/arc/lv_arc.c ****             if(arc->value < range_midpoint) {
 859:Lib/lvgl/src/widgets/arc/lv_arc.c ****                 angle = lv_map(arc->value, arc->min_value, range_midpoint, (int32_t)arc->bg_angle_s
 860:Lib/lvgl/src/widgets/arc/lv_arc.c ****                 lv_arc_set_start_angle(obj, angle);
 861:Lib/lvgl/src/widgets/arc/lv_arc.c ****                 lv_arc_set_end_angle(obj, bg_midpoint);
 862:Lib/lvgl/src/widgets/arc/lv_arc.c ****             }
ARM GAS  C:\Users\Alex\AppData\Local\Temp\cczgZ6vp.s 			page 20


 863:Lib/lvgl/src/widgets/arc/lv_arc.c ****             else {
 864:Lib/lvgl/src/widgets/arc/lv_arc.c ****                 angle = lv_map(arc->value, range_midpoint, arc->max_value, (int32_t)bg_midpoint, (i
 865:Lib/lvgl/src/widgets/arc/lv_arc.c ****                 lv_arc_set_start_angle(obj, bg_midpoint);
 866:Lib/lvgl/src/widgets/arc/lv_arc.c ****                 lv_arc_set_end_angle(obj, angle);
 867:Lib/lvgl/src/widgets/arc/lv_arc.c ****             }
 868:Lib/lvgl/src/widgets/arc/lv_arc.c ****             break;
 869:Lib/lvgl/src/widgets/arc/lv_arc.c ****         case LV_ARC_MODE_REVERSE:
 870:Lib/lvgl/src/widgets/arc/lv_arc.c ****             angle = lv_map(arc->value, arc->min_value, arc->max_value, (int32_t)bg_end, (int32_t)ar
 871:Lib/lvgl/src/widgets/arc/lv_arc.c ****             lv_arc_set_angles(obj, angle, arc->bg_angle_end);
 872:Lib/lvgl/src/widgets/arc/lv_arc.c ****             break;
 873:Lib/lvgl/src/widgets/arc/lv_arc.c ****         case LV_ARC_MODE_NORMAL:
 874:Lib/lvgl/src/widgets/arc/lv_arc.c ****             angle = lv_map(arc->value, arc->min_value, arc->max_value, (int32_t)arc->bg_angle_start
 875:Lib/lvgl/src/widgets/arc/lv_arc.c ****             lv_arc_set_angles(obj, arc->bg_angle_start, angle);
 876:Lib/lvgl/src/widgets/arc/lv_arc.c **** 
 877:Lib/lvgl/src/widgets/arc/lv_arc.c ****             break;
 878:Lib/lvgl/src/widgets/arc/lv_arc.c ****         default:
 879:Lib/lvgl/src/widgets/arc/lv_arc.c ****             LV_LOG_WARN("Invalid mode: %d", arc->type);
 880:Lib/lvgl/src/widgets/arc/lv_arc.c ****             return;
 881:Lib/lvgl/src/widgets/arc/lv_arc.c ****     }
 882:Lib/lvgl/src/widgets/arc/lv_arc.c ****     arc->last_angle = angle; /*Cache angle for slew rate limiting*/
 883:Lib/lvgl/src/widgets/arc/lv_arc.c **** }
 884:Lib/lvgl/src/widgets/arc/lv_arc.c **** 
 885:Lib/lvgl/src/widgets/arc/lv_arc.c **** static int32_t knob_get_extra_size(lv_obj_t * obj)
 886:Lib/lvgl/src/widgets/arc/lv_arc.c **** {
 887:Lib/lvgl/src/widgets/arc/lv_arc.c ****     int32_t knob_shadow_size = 0;
 888:Lib/lvgl/src/widgets/arc/lv_arc.c ****     knob_shadow_size += lv_obj_get_style_shadow_width(obj, LV_PART_KNOB);
 889:Lib/lvgl/src/widgets/arc/lv_arc.c ****     knob_shadow_size += lv_obj_get_style_shadow_spread(obj, LV_PART_KNOB);
 890:Lib/lvgl/src/widgets/arc/lv_arc.c ****     knob_shadow_size += LV_ABS(lv_obj_get_style_shadow_offset_x(obj, LV_PART_KNOB));
 891:Lib/lvgl/src/widgets/arc/lv_arc.c ****     knob_shadow_size += LV_ABS(lv_obj_get_style_shadow_offset_y(obj, LV_PART_KNOB));
 892:Lib/lvgl/src/widgets/arc/lv_arc.c **** 
 893:Lib/lvgl/src/widgets/arc/lv_arc.c ****     int32_t knob_outline_size = 0;
 894:Lib/lvgl/src/widgets/arc/lv_arc.c ****     knob_outline_size += lv_obj_get_style_outline_width(obj, LV_PART_KNOB);
 895:Lib/lvgl/src/widgets/arc/lv_arc.c ****     knob_outline_size += lv_obj_get_style_outline_pad(obj, LV_PART_KNOB);
 896:Lib/lvgl/src/widgets/arc/lv_arc.c **** 
 897:Lib/lvgl/src/widgets/arc/lv_arc.c ****     return LV_MAX(knob_shadow_size, knob_outline_size);
 898:Lib/lvgl/src/widgets/arc/lv_arc.c **** }
 899:Lib/lvgl/src/widgets/arc/lv_arc.c **** 
 900:Lib/lvgl/src/widgets/arc/lv_arc.c **** /**
 901:Lib/lvgl/src/widgets/arc/lv_arc.c ****  * Check if angle is within arc background bounds
 902:Lib/lvgl/src/widgets/arc/lv_arc.c ****  *
 903:Lib/lvgl/src/widgets/arc/lv_arc.c ****  * In order to avoid unexpected value update of the arc value when the user clicks
 904:Lib/lvgl/src/widgets/arc/lv_arc.c ****  * outside of the arc background we need to check if the angle (of the clicked point)
 905:Lib/lvgl/src/widgets/arc/lv_arc.c ****  * is within the bounds of the background.
 906:Lib/lvgl/src/widgets/arc/lv_arc.c ****  *
 907:Lib/lvgl/src/widgets/arc/lv_arc.c ****  * A tolerance (extra room) also should be taken into consideration.
 908:Lib/lvgl/src/widgets/arc/lv_arc.c ****  *
 909:Lib/lvgl/src/widgets/arc/lv_arc.c ****  * E.g. Arc with start angle of 0° and end angle of 90°, the background is only visible in
 910:Lib/lvgl/src/widgets/arc/lv_arc.c ****  * that range, from 90° to 360° the background is invisible. Click in 150° should not update
 911:Lib/lvgl/src/widgets/arc/lv_arc.c ****  * the arc value, click within the arc angle range should.
 912:Lib/lvgl/src/widgets/arc/lv_arc.c ****  *
 913:Lib/lvgl/src/widgets/arc/lv_arc.c ****  * IMPORTANT NOTE: angle is always relative to bg_angle_start, e.g. if bg_angle_start is 30
 914:Lib/lvgl/src/widgets/arc/lv_arc.c ****  * and we click a bit to the left, angle is 10, not the expected 40.
 915:Lib/lvgl/src/widgets/arc/lv_arc.c ****  *
 916:Lib/lvgl/src/widgets/arc/lv_arc.c ****  * @param obj   Pointer to lv_arc
 917:Lib/lvgl/src/widgets/arc/lv_arc.c ****  * @param angle Angle to be checked
 918:Lib/lvgl/src/widgets/arc/lv_arc.c ****  * @param tolerance_deg Tolerance
 919:Lib/lvgl/src/widgets/arc/lv_arc.c ****  *
ARM GAS  C:\Users\Alex\AppData\Local\Temp\cczgZ6vp.s 			page 21


 920:Lib/lvgl/src/widgets/arc/lv_arc.c ****  * @return true if angle is within arc background bounds, false otherwise
 921:Lib/lvgl/src/widgets/arc/lv_arc.c ****  */
 922:Lib/lvgl/src/widgets/arc/lv_arc.c **** static bool lv_arc_angle_within_bg_bounds(lv_obj_t * obj, const lv_value_precise_t angle,
 923:Lib/lvgl/src/widgets/arc/lv_arc.c ****                                           const lv_value_precise_t tolerance_deg)
 924:Lib/lvgl/src/widgets/arc/lv_arc.c **** {
 187              		.loc 1 924 1 is_stmt 1 view -0
 188              		.cfi_startproc
 189              		@ args = 0, pretend = 0, frame = 0
 190              		@ frame_needed = 0, uses_anonymous_args = 0
 191              		@ link register save eliminated.
 192              		.loc 1 924 1 is_stmt 0 view .LVU57
 193 0000 10B4     		push	{r4}
 194              	.LCFI3:
 195              		.cfi_def_cfa_offset 4
 196              		.cfi_offset 4, -4
 925:Lib/lvgl/src/widgets/arc/lv_arc.c ****     LV_ASSERT_OBJ(obj, MY_CLASS);
 197              		.loc 1 925 5 is_stmt 1 view .LVU58
 198              		.loc 1 925 5 view .LVU59
 199              		.loc 1 925 5 view .LVU60
 926:Lib/lvgl/src/widgets/arc/lv_arc.c ****     lv_arc_t * arc = (lv_arc_t *)obj;
 200              		.loc 1 926 5 view .LVU61
 201              	.LVL21:
 927:Lib/lvgl/src/widgets/arc/lv_arc.c **** 
 928:Lib/lvgl/src/widgets/arc/lv_arc.c ****     lv_value_precise_t smaller_angle = 0;
 202              		.loc 1 928 5 view .LVU62
 929:Lib/lvgl/src/widgets/arc/lv_arc.c ****     lv_value_precise_t bigger_angle = 0;
 203              		.loc 1 929 5 view .LVU63
 930:Lib/lvgl/src/widgets/arc/lv_arc.c **** 
 931:Lib/lvgl/src/widgets/arc/lv_arc.c ****     /* Determine which background angle is smaller and bigger */
 932:Lib/lvgl/src/widgets/arc/lv_arc.c ****     if(arc->bg_angle_start < arc->bg_angle_end) {
 204              		.loc 1 932 5 view .LVU64
 205              		.loc 1 932 11 is_stmt 0 view .LVU65
 206 0002 836B     		ldr	r3, [r0, #56]
 207              		.loc 1 932 33 view .LVU66
 208 0004 C46B     		ldr	r4, [r0, #60]
 209              		.loc 1 932 7 view .LVU67
 210 0006 A342     		cmp	r3, r4
 211 0008 03DB     		blt	.L17
 933:Lib/lvgl/src/widgets/arc/lv_arc.c ****         bigger_angle = arc->bg_angle_end;
 934:Lib/lvgl/src/widgets/arc/lv_arc.c ****         smaller_angle = arc->bg_angle_start;
 935:Lib/lvgl/src/widgets/arc/lv_arc.c ****     }
 936:Lib/lvgl/src/widgets/arc/lv_arc.c ****     else {
 937:Lib/lvgl/src/widgets/arc/lv_arc.c ****         bigger_angle = (360 - arc->bg_angle_start) + arc->bg_angle_end;
 212              		.loc 1 937 9 is_stmt 1 view .LVU68
 213              		.loc 1 937 29 is_stmt 0 view .LVU69
 214 000a C3F5B473 		rsb	r3, r3, #360
 215              		.loc 1 937 22 view .LVU70
 216 000e 1C44     		add	r4, r4, r3
 217              	.LVL22:
 938:Lib/lvgl/src/widgets/arc/lv_arc.c ****         smaller_angle = 0;
 218              		.loc 1 938 9 is_stmt 1 view .LVU71
 219              		.loc 1 938 23 is_stmt 0 view .LVU72
 220 0010 0023     		movs	r3, #0
 221              	.LVL23:
 222              	.L17:
 939:Lib/lvgl/src/widgets/arc/lv_arc.c ****     }
 940:Lib/lvgl/src/widgets/arc/lv_arc.c **** 
ARM GAS  C:\Users\Alex\AppData\Local\Temp\cczgZ6vp.s 			page 22


 941:Lib/lvgl/src/widgets/arc/lv_arc.c ****     /* Angle is between both background angles */
 942:Lib/lvgl/src/widgets/arc/lv_arc.c ****     if((smaller_angle <= angle) && (angle <= bigger_angle)) {
 223              		.loc 1 942 5 is_stmt 1 view .LVU73
 224              		.loc 1 942 7 is_stmt 0 view .LVU74
 225 0012 8B42     		cmp	r3, r1
 226 0014 01DC     		bgt	.L18
 227              		.loc 1 942 33 discriminator 1 view .LVU75
 228 0016 8C42     		cmp	r4, r1
 229 0018 2CDA     		bge	.L30
 230              	.L18:
 943:Lib/lvgl/src/widgets/arc/lv_arc.c **** 
 944:Lib/lvgl/src/widgets/arc/lv_arc.c ****         if(((bigger_angle - smaller_angle) / 2) >= angle) {
 945:Lib/lvgl/src/widgets/arc/lv_arc.c ****             arc->min_close = 1;
 946:Lib/lvgl/src/widgets/arc/lv_arc.c ****         }
 947:Lib/lvgl/src/widgets/arc/lv_arc.c ****         else {
 948:Lib/lvgl/src/widgets/arc/lv_arc.c ****             arc->min_close = 0;
 949:Lib/lvgl/src/widgets/arc/lv_arc.c ****         }
 950:Lib/lvgl/src/widgets/arc/lv_arc.c **** 
 951:Lib/lvgl/src/widgets/arc/lv_arc.c ****         arc->in_out = CLICK_INSIDE_BG_ANGLES;
 952:Lib/lvgl/src/widgets/arc/lv_arc.c **** 
 953:Lib/lvgl/src/widgets/arc/lv_arc.c ****         return true;
 954:Lib/lvgl/src/widgets/arc/lv_arc.c ****     }
 955:Lib/lvgl/src/widgets/arc/lv_arc.c ****     /* Distance between background start and end angles is less than tolerance,
 956:Lib/lvgl/src/widgets/arc/lv_arc.c ****      * consider the click inside the arc */
 957:Lib/lvgl/src/widgets/arc/lv_arc.c ****     else if(((smaller_angle - tolerance_deg) <= 0) &&
 231              		.loc 1 957 10 is_stmt 1 view .LVU76
 232              		.loc 1 957 29 is_stmt 0 view .LVU77
 233 001a A3EB020C 		sub	ip, r3, r2
 234              		.loc 1 957 12 view .LVU78
 235 001e BCF1000F 		cmp	ip, #0
 236 0022 42DD     		ble	.L31
 237              	.L22:
 958:Lib/lvgl/src/widgets/arc/lv_arc.c ****             (360 - (bigger_angle + (smaller_angle - tolerance_deg))) != 0) {
 959:Lib/lvgl/src/widgets/arc/lv_arc.c **** 
 960:Lib/lvgl/src/widgets/arc/lv_arc.c ****         arc->min_close = 1;
 961:Lib/lvgl/src/widgets/arc/lv_arc.c ****         arc->in_out = CLICK_INSIDE_BG_ANGLES;
 962:Lib/lvgl/src/widgets/arc/lv_arc.c ****         return true;
 963:Lib/lvgl/src/widgets/arc/lv_arc.c ****     }
 964:Lib/lvgl/src/widgets/arc/lv_arc.c ****     else { /* Case handled below */ }
 238              		.loc 1 964 37 is_stmt 1 view .LVU79
 965:Lib/lvgl/src/widgets/arc/lv_arc.c **** 
 966:Lib/lvgl/src/widgets/arc/lv_arc.c ****     /* Legends:
 967:Lib/lvgl/src/widgets/arc/lv_arc.c ****      * 0° = angle 0
 968:Lib/lvgl/src/widgets/arc/lv_arc.c ****      * 360° = angle 360
 969:Lib/lvgl/src/widgets/arc/lv_arc.c ****      * T: Tolerance
 970:Lib/lvgl/src/widgets/arc/lv_arc.c ****      * A: Angle
 971:Lib/lvgl/src/widgets/arc/lv_arc.c ****      * S: Arc background start angle
 972:Lib/lvgl/src/widgets/arc/lv_arc.c ****      * E: Arc background end angle
 973:Lib/lvgl/src/widgets/arc/lv_arc.c ****      *
 974:Lib/lvgl/src/widgets/arc/lv_arc.c ****      * Start angle is bigger or equal to tolerance */
 975:Lib/lvgl/src/widgets/arc/lv_arc.c ****     if((smaller_angle >= tolerance_deg)
 239              		.loc 1 975 5 view .LVU80
 240              		.loc 1 975 7 is_stmt 0 view .LVU81
 241 0024 9342     		cmp	r3, r2
 242 0026 06DB     		blt	.L23
 976:Lib/lvgl/src/widgets/arc/lv_arc.c ****        /* (360° - T) --- A --- 360° */
 977:Lib/lvgl/src/widgets/arc/lv_arc.c ****        && ((angle >= (360 - tolerance_deg)) && (angle <= 360))) {
ARM GAS  C:\Users\Alex\AppData\Local\Temp\cczgZ6vp.s 			page 23


 243              		.loc 1 977 27 view .LVU82
 244 0028 C2F5B47C 		rsb	ip, r2, #360
 245              		.loc 1 977 8 view .LVU83
 246 002c 8C45     		cmp	ip, r1
 247 002e 02DC     		bgt	.L23
 248              		.loc 1 977 45 discriminator 1 view .LVU84
 249 0030 B1F5B47F 		cmp	r1, #360
 250 0034 4ADD     		ble	.L32
 251              	.L23:
 978:Lib/lvgl/src/widgets/arc/lv_arc.c **** 
 979:Lib/lvgl/src/widgets/arc/lv_arc.c ****         arc->min_close = 1;
 980:Lib/lvgl/src/widgets/arc/lv_arc.c ****         arc->in_out = CLICK_OUTSIDE_BG_ANGLES;
 981:Lib/lvgl/src/widgets/arc/lv_arc.c ****         return true;
 982:Lib/lvgl/src/widgets/arc/lv_arc.c ****     }
 983:Lib/lvgl/src/widgets/arc/lv_arc.c ****     /* Tolerance is bigger than bg start angle */
 984:Lib/lvgl/src/widgets/arc/lv_arc.c ****     else if((smaller_angle < tolerance_deg)
 252              		.loc 1 984 10 is_stmt 1 view .LVU85
 253              		.loc 1 984 12 is_stmt 0 view .LVU86
 254 0036 9342     		cmp	r3, r2
 255 0038 08DA     		bge	.L24
 985:Lib/lvgl/src/widgets/arc/lv_arc.c ****             /* (360° - (T - S)) --- A --- 360° */
 986:Lib/lvgl/src/widgets/arc/lv_arc.c ****             && (((360 - (tolerance_deg - smaller_angle)) <= angle)) && (angle <= 360)) {
 256              		.loc 1 986 40 view .LVU87
 257 003a A2EB030C 		sub	ip, r2, r3
 258              		.loc 1 986 23 view .LVU88
 259 003e CCF5B47C 		rsb	ip, ip, #360
 260              		.loc 1 986 13 view .LVU89
 261 0042 8C45     		cmp	ip, r1
 262 0044 02DC     		bgt	.L24
 263              		.loc 1 986 69 discriminator 1 view .LVU90
 264 0046 B1F5B47F 		cmp	r1, #360
 265 004a 4CDD     		ble	.L33
 266              	.L24:
 987:Lib/lvgl/src/widgets/arc/lv_arc.c **** 
 988:Lib/lvgl/src/widgets/arc/lv_arc.c ****         arc->min_close = 1;
 989:Lib/lvgl/src/widgets/arc/lv_arc.c ****         arc->in_out = CLICK_OUTSIDE_BG_ANGLES;
 990:Lib/lvgl/src/widgets/arc/lv_arc.c ****         return true;
 991:Lib/lvgl/src/widgets/arc/lv_arc.c ****     }
 992:Lib/lvgl/src/widgets/arc/lv_arc.c ****     /* 360° is bigger than background end angle + tolerance */
 993:Lib/lvgl/src/widgets/arc/lv_arc.c ****     else if((360 >= (bigger_angle + tolerance_deg))
 267              		.loc 1 993 10 is_stmt 1 view .LVU91
 268              		.loc 1 993 35 is_stmt 0 view .LVU92
 269 004c 2244     		add	r2, r2, r4
 270              	.LVL24:
 271              		.loc 1 993 12 view .LVU93
 272 004e B2F5B47F 		cmp	r2, #360
 273 0052 04DC     		bgt	.L25
 994:Lib/lvgl/src/widgets/arc/lv_arc.c ****             /* E --- A --- (E + T) */
 995:Lib/lvgl/src/widgets/arc/lv_arc.c ****             && ((bigger_angle <= (angle + smaller_angle)) &&
 274              		.loc 1 995 41 view .LVU94
 275 0054 0B44     		add	r3, r3, r1
 276              	.LVL25:
 277              		.loc 1 995 13 view .LVU95
 278 0056 A342     		cmp	r3, r4
 279 0058 01DB     		blt	.L25
 280              		.loc 1 995 59 discriminator 1 view .LVU96
 281 005a 9A42     		cmp	r2, r3
ARM GAS  C:\Users\Alex\AppData\Local\Temp\cczgZ6vp.s 			page 24


 282 005c 50DA     		bge	.L34
 283              	.L25:
 996:Lib/lvgl/src/widgets/arc/lv_arc.c ****                 ((angle + smaller_angle) <= (bigger_angle + tolerance_deg)))) {
 997:Lib/lvgl/src/widgets/arc/lv_arc.c **** 
 998:Lib/lvgl/src/widgets/arc/lv_arc.c ****         arc->min_close = 0;
 999:Lib/lvgl/src/widgets/arc/lv_arc.c ****         arc->in_out = CLICK_OUTSIDE_BG_ANGLES;
1000:Lib/lvgl/src/widgets/arc/lv_arc.c ****         return true;
1001:Lib/lvgl/src/widgets/arc/lv_arc.c ****     }
1002:Lib/lvgl/src/widgets/arc/lv_arc.c ****     /* Background end angle + tolerance is bigger than 360° and bg_start_angle + tolerance is not 
1003:Lib/lvgl/src/widgets/arc/lv_arc.c ****      * Here we can assume background is not near 0° because of the first two initial checks */
1004:Lib/lvgl/src/widgets/arc/lv_arc.c ****     else if((360 < (bigger_angle + tolerance_deg))
 284              		.loc 1 1004 10 is_stmt 1 view .LVU97
 285              		.loc 1 1004 12 is_stmt 0 view .LVU98
 286 005e B2F5B47F 		cmp	r2, #360
 287 0062 67DD     		ble	.L26
1005:Lib/lvgl/src/widgets/arc/lv_arc.c ****             && (angle <= 0 + ((bigger_angle + tolerance_deg) - 360)) && (angle > bigger_angle)) {
 288              		.loc 1 1005 23 view .LVU99
 289 0064 A2F26712 		subw	r2, r2, #359
 290              		.loc 1 1005 13 view .LVU100
 291 0068 8A42     		cmp	r2, r1
 292 006a 67DD     		ble	.L27
 293              		.loc 1 1005 70 discriminator 1 view .LVU101
 294 006c 8C42     		cmp	r4, r1
 295 006e 54DB     		blt	.L35
1006:Lib/lvgl/src/widgets/arc/lv_arc.c **** 
1007:Lib/lvgl/src/widgets/arc/lv_arc.c ****         arc->min_close = 0;
1008:Lib/lvgl/src/widgets/arc/lv_arc.c ****         arc->in_out = CLICK_OUTSIDE_BG_ANGLES;
1009:Lib/lvgl/src/widgets/arc/lv_arc.c ****         return true;
1010:Lib/lvgl/src/widgets/arc/lv_arc.c ****     }
1011:Lib/lvgl/src/widgets/arc/lv_arc.c ****     else {
1012:Lib/lvgl/src/widgets/arc/lv_arc.c ****         /* Nothing to do */
1013:Lib/lvgl/src/widgets/arc/lv_arc.c ****     }
1014:Lib/lvgl/src/widgets/arc/lv_arc.c **** 
1015:Lib/lvgl/src/widgets/arc/lv_arc.c ****     return false;
 296              		.loc 1 1015 12 view .LVU102
 297 0070 0020     		movs	r0, #0
 298              	.LVL26:
 299              		.loc 1 1015 12 view .LVU103
 300 0072 60E0     		b	.L21
 301              	.LVL27:
 302              	.L30:
 944:Lib/lvgl/src/widgets/arc/lv_arc.c ****             arc->min_close = 1;
 303              		.loc 1 944 9 is_stmt 1 view .LVU104
 944:Lib/lvgl/src/widgets/arc/lv_arc.c ****             arc->min_close = 1;
 304              		.loc 1 944 27 is_stmt 0 view .LVU105
 305 0074 E41A     		subs	r4, r4, r3
 306              	.LVL28:
 944:Lib/lvgl/src/widgets/arc/lv_arc.c ****             arc->min_close = 1;
 307              		.loc 1 944 44 view .LVU106
 308 0076 04EBD474 		add	r4, r4, r4, lsr #31
 944:Lib/lvgl/src/widgets/arc/lv_arc.c ****             arc->min_close = 1;
 309              		.loc 1 944 11 view .LVU107
 310 007a B1EB640F 		cmp	r1, r4, asr #1
 311 007e 0DDC     		bgt	.L19
 945:Lib/lvgl/src/widgets/arc/lv_arc.c ****         }
 312              		.loc 1 945 13 is_stmt 1 view .LVU108
 945:Lib/lvgl/src/widgets/arc/lv_arc.c ****         }
ARM GAS  C:\Users\Alex\AppData\Local\Temp\cczgZ6vp.s 			page 25


 313              		.loc 1 945 28 is_stmt 0 view .LVU109
 314 0080 90F84C30 		ldrb	r3, [r0, #76]	@ zero_extendqisi2
 315              	.LVL29:
 945:Lib/lvgl/src/widgets/arc/lv_arc.c ****         }
 316              		.loc 1 945 28 view .LVU110
 317 0084 43F00803 		orr	r3, r3, #8
 318 0088 80F84C30 		strb	r3, [r0, #76]
 319              	.L20:
 951:Lib/lvgl/src/widgets/arc/lv_arc.c **** 
 320              		.loc 1 951 9 is_stmt 1 view .LVU111
 951:Lib/lvgl/src/widgets/arc/lv_arc.c **** 
 321              		.loc 1 951 21 is_stmt 0 view .LVU112
 322 008c 90F84C30 		ldrb	r3, [r0, #76]	@ zero_extendqisi2
 323 0090 43F01003 		orr	r3, r3, #16
 324 0094 80F84C30 		strb	r3, [r0, #76]
 953:Lib/lvgl/src/widgets/arc/lv_arc.c ****     }
 325              		.loc 1 953 9 is_stmt 1 view .LVU113
 953:Lib/lvgl/src/widgets/arc/lv_arc.c ****     }
 326              		.loc 1 953 16 is_stmt 0 view .LVU114
 327 0098 0120     		movs	r0, #1
 328              	.LVL30:
 953:Lib/lvgl/src/widgets/arc/lv_arc.c ****     }
 329              		.loc 1 953 16 view .LVU115
 330 009a 4CE0     		b	.L21
 331              	.LVL31:
 332              	.L19:
 948:Lib/lvgl/src/widgets/arc/lv_arc.c ****         }
 333              		.loc 1 948 13 is_stmt 1 view .LVU116
 948:Lib/lvgl/src/widgets/arc/lv_arc.c ****         }
 334              		.loc 1 948 28 is_stmt 0 view .LVU117
 335 009c 90F84C30 		ldrb	r3, [r0, #76]	@ zero_extendqisi2
 336              	.LVL32:
 948:Lib/lvgl/src/widgets/arc/lv_arc.c ****         }
 337              		.loc 1 948 28 view .LVU118
 338 00a0 6FF3C303 		bfc	r3, #3, #1
 339 00a4 80F84C30 		strb	r3, [r0, #76]
 340 00a8 F0E7     		b	.L20
 341              	.LVL33:
 342              	.L31:
 958:Lib/lvgl/src/widgets/arc/lv_arc.c **** 
 343              		.loc 1 958 34 discriminator 1 view .LVU119
 344 00aa A444     		add	ip, ip, r4
 957:Lib/lvgl/src/widgets/arc/lv_arc.c ****             (360 - (bigger_angle + (smaller_angle - tolerance_deg))) != 0) {
 345              		.loc 1 957 52 discriminator 1 view .LVU120
 346 00ac BCF5B47F 		cmp	ip, #360
 347 00b0 B8D0     		beq	.L22
 960:Lib/lvgl/src/widgets/arc/lv_arc.c ****         arc->in_out = CLICK_INSIDE_BG_ANGLES;
 348              		.loc 1 960 9 is_stmt 1 view .LVU121
 960:Lib/lvgl/src/widgets/arc/lv_arc.c ****         arc->in_out = CLICK_INSIDE_BG_ANGLES;
 349              		.loc 1 960 24 is_stmt 0 view .LVU122
 350 00b2 90F84C30 		ldrb	r3, [r0, #76]	@ zero_extendqisi2
 351              	.LVL34:
 960:Lib/lvgl/src/widgets/arc/lv_arc.c ****         arc->in_out = CLICK_INSIDE_BG_ANGLES;
 352              		.loc 1 960 24 view .LVU123
 353 00b6 43F00803 		orr	r3, r3, #8
 354 00ba 80F84C30 		strb	r3, [r0, #76]
 961:Lib/lvgl/src/widgets/arc/lv_arc.c ****         return true;
ARM GAS  C:\Users\Alex\AppData\Local\Temp\cczgZ6vp.s 			page 26


 355              		.loc 1 961 9 is_stmt 1 view .LVU124
 961:Lib/lvgl/src/widgets/arc/lv_arc.c ****         return true;
 356              		.loc 1 961 21 is_stmt 0 view .LVU125
 357 00be DBB2     		uxtb	r3, r3
 358 00c0 43F01003 		orr	r3, r3, #16
 359 00c4 80F84C30 		strb	r3, [r0, #76]
 962:Lib/lvgl/src/widgets/arc/lv_arc.c ****     }
 360              		.loc 1 962 9 is_stmt 1 view .LVU126
 962:Lib/lvgl/src/widgets/arc/lv_arc.c ****     }
 361              		.loc 1 962 16 is_stmt 0 view .LVU127
 362 00c8 0120     		movs	r0, #1
 363              	.LVL35:
 962:Lib/lvgl/src/widgets/arc/lv_arc.c ****     }
 364              		.loc 1 962 16 view .LVU128
 365 00ca 34E0     		b	.L21
 366              	.LVL36:
 367              	.L32:
 979:Lib/lvgl/src/widgets/arc/lv_arc.c ****         arc->in_out = CLICK_OUTSIDE_BG_ANGLES;
 368              		.loc 1 979 9 is_stmt 1 view .LVU129
 979:Lib/lvgl/src/widgets/arc/lv_arc.c ****         arc->in_out = CLICK_OUTSIDE_BG_ANGLES;
 369              		.loc 1 979 24 is_stmt 0 view .LVU130
 370 00cc 90F84C30 		ldrb	r3, [r0, #76]	@ zero_extendqisi2
 371              	.LVL37:
 979:Lib/lvgl/src/widgets/arc/lv_arc.c ****         arc->in_out = CLICK_OUTSIDE_BG_ANGLES;
 372              		.loc 1 979 24 view .LVU131
 373 00d0 43F00803 		orr	r3, r3, #8
 374 00d4 80F84C30 		strb	r3, [r0, #76]
 980:Lib/lvgl/src/widgets/arc/lv_arc.c ****         return true;
 375              		.loc 1 980 9 is_stmt 1 view .LVU132
 980:Lib/lvgl/src/widgets/arc/lv_arc.c ****         return true;
 376              		.loc 1 980 21 is_stmt 0 view .LVU133
 377 00d8 DBB2     		uxtb	r3, r3
 378 00da 6FF30413 		bfc	r3, #4, #1
 379 00de 80F84C30 		strb	r3, [r0, #76]
 981:Lib/lvgl/src/widgets/arc/lv_arc.c ****     }
 380              		.loc 1 981 9 is_stmt 1 view .LVU134
 981:Lib/lvgl/src/widgets/arc/lv_arc.c ****     }
 381              		.loc 1 981 16 is_stmt 0 view .LVU135
 382 00e2 0120     		movs	r0, #1
 383              	.LVL38:
 981:Lib/lvgl/src/widgets/arc/lv_arc.c ****     }
 384              		.loc 1 981 16 view .LVU136
 385 00e4 27E0     		b	.L21
 386              	.LVL39:
 387              	.L33:
 988:Lib/lvgl/src/widgets/arc/lv_arc.c ****         arc->in_out = CLICK_OUTSIDE_BG_ANGLES;
 388              		.loc 1 988 9 is_stmt 1 view .LVU137
 988:Lib/lvgl/src/widgets/arc/lv_arc.c ****         arc->in_out = CLICK_OUTSIDE_BG_ANGLES;
 389              		.loc 1 988 24 is_stmt 0 view .LVU138
 390 00e6 90F84C30 		ldrb	r3, [r0, #76]	@ zero_extendqisi2
 391              	.LVL40:
 988:Lib/lvgl/src/widgets/arc/lv_arc.c ****         arc->in_out = CLICK_OUTSIDE_BG_ANGLES;
 392              		.loc 1 988 24 view .LVU139
 393 00ea 43F00803 		orr	r3, r3, #8
 394 00ee 80F84C30 		strb	r3, [r0, #76]
 989:Lib/lvgl/src/widgets/arc/lv_arc.c ****         return true;
 395              		.loc 1 989 9 is_stmt 1 view .LVU140
ARM GAS  C:\Users\Alex\AppData\Local\Temp\cczgZ6vp.s 			page 27


 989:Lib/lvgl/src/widgets/arc/lv_arc.c ****         return true;
 396              		.loc 1 989 21 is_stmt 0 view .LVU141
 397 00f2 DBB2     		uxtb	r3, r3
 398 00f4 6FF30413 		bfc	r3, #4, #1
 399 00f8 80F84C30 		strb	r3, [r0, #76]
 990:Lib/lvgl/src/widgets/arc/lv_arc.c ****     }
 400              		.loc 1 990 9 is_stmt 1 view .LVU142
 990:Lib/lvgl/src/widgets/arc/lv_arc.c ****     }
 401              		.loc 1 990 16 is_stmt 0 view .LVU143
 402 00fc 0120     		movs	r0, #1
 403              	.LVL41:
 990:Lib/lvgl/src/widgets/arc/lv_arc.c ****     }
 404              		.loc 1 990 16 view .LVU144
 405 00fe 1AE0     		b	.L21
 406              	.LVL42:
 407              	.L34:
 998:Lib/lvgl/src/widgets/arc/lv_arc.c ****         arc->in_out = CLICK_OUTSIDE_BG_ANGLES;
 408              		.loc 1 998 9 is_stmt 1 view .LVU145
 998:Lib/lvgl/src/widgets/arc/lv_arc.c ****         arc->in_out = CLICK_OUTSIDE_BG_ANGLES;
 409              		.loc 1 998 24 is_stmt 0 view .LVU146
 410 0100 90F84C30 		ldrb	r3, [r0, #76]	@ zero_extendqisi2
 411 0104 6FF3C303 		bfc	r3, #3, #1
 412 0108 80F84C30 		strb	r3, [r0, #76]
 999:Lib/lvgl/src/widgets/arc/lv_arc.c ****         return true;
 413              		.loc 1 999 9 is_stmt 1 view .LVU147
 999:Lib/lvgl/src/widgets/arc/lv_arc.c ****         return true;
 414              		.loc 1 999 21 is_stmt 0 view .LVU148
 415 010c DBB2     		uxtb	r3, r3
 416 010e 6FF30413 		bfc	r3, #4, #1
 417 0112 80F84C30 		strb	r3, [r0, #76]
1000:Lib/lvgl/src/widgets/arc/lv_arc.c ****     }
 418              		.loc 1 1000 9 is_stmt 1 view .LVU149
1000:Lib/lvgl/src/widgets/arc/lv_arc.c ****     }
 419              		.loc 1 1000 16 is_stmt 0 view .LVU150
 420 0116 0120     		movs	r0, #1
 421              	.LVL43:
1000:Lib/lvgl/src/widgets/arc/lv_arc.c ****     }
 422              		.loc 1 1000 16 view .LVU151
 423 0118 0DE0     		b	.L21
 424              	.LVL44:
 425              	.L35:
1007:Lib/lvgl/src/widgets/arc/lv_arc.c ****         arc->in_out = CLICK_OUTSIDE_BG_ANGLES;
 426              		.loc 1 1007 9 is_stmt 1 view .LVU152
1007:Lib/lvgl/src/widgets/arc/lv_arc.c ****         arc->in_out = CLICK_OUTSIDE_BG_ANGLES;
 427              		.loc 1 1007 24 is_stmt 0 view .LVU153
 428 011a 90F84C30 		ldrb	r3, [r0, #76]	@ zero_extendqisi2
 429 011e 6FF3C303 		bfc	r3, #3, #1
 430 0122 80F84C30 		strb	r3, [r0, #76]
1008:Lib/lvgl/src/widgets/arc/lv_arc.c ****         return true;
 431              		.loc 1 1008 9 is_stmt 1 view .LVU154
1008:Lib/lvgl/src/widgets/arc/lv_arc.c ****         return true;
 432              		.loc 1 1008 21 is_stmt 0 view .LVU155
 433 0126 DBB2     		uxtb	r3, r3
 434 0128 6FF30413 		bfc	r3, #4, #1
 435 012c 80F84C30 		strb	r3, [r0, #76]
1009:Lib/lvgl/src/widgets/arc/lv_arc.c ****     }
 436              		.loc 1 1009 9 is_stmt 1 view .LVU156
ARM GAS  C:\Users\Alex\AppData\Local\Temp\cczgZ6vp.s 			page 28


1009:Lib/lvgl/src/widgets/arc/lv_arc.c ****     }
 437              		.loc 1 1009 16 is_stmt 0 view .LVU157
 438 0130 0120     		movs	r0, #1
 439              	.LVL45:
1009:Lib/lvgl/src/widgets/arc/lv_arc.c ****     }
 440              		.loc 1 1009 16 view .LVU158
 441 0132 00E0     		b	.L21
 442              	.LVL46:
 443              	.L26:
 444              		.loc 1 1015 12 view .LVU159
 445 0134 0020     		movs	r0, #0
 446              	.LVL47:
 447              	.L21:
1016:Lib/lvgl/src/widgets/arc/lv_arc.c **** }
 448              		.loc 1 1016 1 view .LVU160
 449 0136 5DF8044B 		ldr	r4, [sp], #4
 450              	.LCFI4:
 451              		.cfi_remember_state
 452              		.cfi_restore 4
 453              		.cfi_def_cfa_offset 0
 454 013a 7047     		bx	lr
 455              	.LVL48:
 456              	.L27:
 457              	.LCFI5:
 458              		.cfi_restore_state
1015:Lib/lvgl/src/widgets/arc/lv_arc.c **** }
 459              		.loc 1 1015 12 view .LVU161
 460 013c 0020     		movs	r0, #0
 461              	.LVL49:
1015:Lib/lvgl/src/widgets/arc/lv_arc.c **** }
 462              		.loc 1 1015 12 view .LVU162
 463 013e FAE7     		b	.L21
 464              		.cfi_endproc
 465              	.LFE268:
 467              		.section	.text.lv_dpx,"ax",%progbits
 468              		.align	1
 469              		.syntax unified
 470              		.thumb
 471              		.thumb_func
 473              	lv_dpx:
 474              	.LVL50:
 475              	.LFB93:
 476              		.file 2 "Lib/lvgl/src/widgets/arc/../../core/../display/lv_display.h"
   1:Lib/lvgl/src/widgets/arc/../../core/../display/lv_display.h **** /**
   2:Lib/lvgl/src/widgets/arc/../../core/../display/lv_display.h ****  * @file lv_disp.h
   3:Lib/lvgl/src/widgets/arc/../../core/../display/lv_display.h ****  *
   4:Lib/lvgl/src/widgets/arc/../../core/../display/lv_display.h ****  */
   5:Lib/lvgl/src/widgets/arc/../../core/../display/lv_display.h **** 
   6:Lib/lvgl/src/widgets/arc/../../core/../display/lv_display.h **** #ifndef LV_DISPLAY_H
   7:Lib/lvgl/src/widgets/arc/../../core/../display/lv_display.h **** #define LV_DISPLAY_H
   8:Lib/lvgl/src/widgets/arc/../../core/../display/lv_display.h **** 
   9:Lib/lvgl/src/widgets/arc/../../core/../display/lv_display.h **** #ifdef __cplusplus
  10:Lib/lvgl/src/widgets/arc/../../core/../display/lv_display.h **** extern "C" {
  11:Lib/lvgl/src/widgets/arc/../../core/../display/lv_display.h **** #endif
  12:Lib/lvgl/src/widgets/arc/../../core/../display/lv_display.h **** 
  13:Lib/lvgl/src/widgets/arc/../../core/../display/lv_display.h **** /*********************
  14:Lib/lvgl/src/widgets/arc/../../core/../display/lv_display.h ****  *      INCLUDES
ARM GAS  C:\Users\Alex\AppData\Local\Temp\cczgZ6vp.s 			page 29


  15:Lib/lvgl/src/widgets/arc/../../core/../display/lv_display.h ****  *********************/
  16:Lib/lvgl/src/widgets/arc/../../core/../display/lv_display.h **** #include "../misc/lv_types.h"
  17:Lib/lvgl/src/widgets/arc/../../core/../display/lv_display.h **** #include "../misc/lv_timer.h"
  18:Lib/lvgl/src/widgets/arc/../../core/../display/lv_display.h **** #include "../misc/lv_event.h"
  19:Lib/lvgl/src/widgets/arc/../../core/../display/lv_display.h **** #include "../misc/lv_color.h"
  20:Lib/lvgl/src/widgets/arc/../../core/../display/lv_display.h **** #include "../draw/lv_draw.h"
  21:Lib/lvgl/src/widgets/arc/../../core/../display/lv_display.h **** 
  22:Lib/lvgl/src/widgets/arc/../../core/../display/lv_display.h **** /*********************
  23:Lib/lvgl/src/widgets/arc/../../core/../display/lv_display.h ****  *      DEFINES
  24:Lib/lvgl/src/widgets/arc/../../core/../display/lv_display.h ****  *********************/
  25:Lib/lvgl/src/widgets/arc/../../core/../display/lv_display.h **** 
  26:Lib/lvgl/src/widgets/arc/../../core/../display/lv_display.h **** #ifndef LV_ATTRIBUTE_FLUSH_READY
  27:Lib/lvgl/src/widgets/arc/../../core/../display/lv_display.h **** #define LV_ATTRIBUTE_FLUSH_READY
  28:Lib/lvgl/src/widgets/arc/../../core/../display/lv_display.h **** #endif
  29:Lib/lvgl/src/widgets/arc/../../core/../display/lv_display.h **** 
  30:Lib/lvgl/src/widgets/arc/../../core/../display/lv_display.h **** /**********************
  31:Lib/lvgl/src/widgets/arc/../../core/../display/lv_display.h ****  *      TYPEDEFS
  32:Lib/lvgl/src/widgets/arc/../../core/../display/lv_display.h ****  **********************/
  33:Lib/lvgl/src/widgets/arc/../../core/../display/lv_display.h **** 
  34:Lib/lvgl/src/widgets/arc/../../core/../display/lv_display.h **** typedef enum {
  35:Lib/lvgl/src/widgets/arc/../../core/../display/lv_display.h ****     LV_DISPLAY_ROTATION_0 = 0,
  36:Lib/lvgl/src/widgets/arc/../../core/../display/lv_display.h ****     LV_DISPLAY_ROTATION_90,
  37:Lib/lvgl/src/widgets/arc/../../core/../display/lv_display.h ****     LV_DISPLAY_ROTATION_180,
  38:Lib/lvgl/src/widgets/arc/../../core/../display/lv_display.h ****     LV_DISPLAY_ROTATION_270
  39:Lib/lvgl/src/widgets/arc/../../core/../display/lv_display.h **** } lv_display_rotation_t;
  40:Lib/lvgl/src/widgets/arc/../../core/../display/lv_display.h **** 
  41:Lib/lvgl/src/widgets/arc/../../core/../display/lv_display.h **** typedef enum {
  42:Lib/lvgl/src/widgets/arc/../../core/../display/lv_display.h ****     /**
  43:Lib/lvgl/src/widgets/arc/../../core/../display/lv_display.h ****      * Use the buffer(s) to render the screen is smaller parts.
  44:Lib/lvgl/src/widgets/arc/../../core/../display/lv_display.h ****      * This way the buffers can be smaller then the display to save RAM. At least 1/10 screen size 
  45:Lib/lvgl/src/widgets/arc/../../core/../display/lv_display.h ****      */
  46:Lib/lvgl/src/widgets/arc/../../core/../display/lv_display.h ****     LV_DISPLAY_RENDER_MODE_PARTIAL,
  47:Lib/lvgl/src/widgets/arc/../../core/../display/lv_display.h **** 
  48:Lib/lvgl/src/widgets/arc/../../core/../display/lv_display.h ****     /**
  49:Lib/lvgl/src/widgets/arc/../../core/../display/lv_display.h ****      * The buffer(s) has to be screen sized and LVGL will render into the correct location of the b
  50:Lib/lvgl/src/widgets/arc/../../core/../display/lv_display.h ****      * This way the buffer always contain the whole image. Only the changed ares will be updated.
  51:Lib/lvgl/src/widgets/arc/../../core/../display/lv_display.h ****      * With 2 buffers the buffers' content are kept in sync automatically and in flush_cb only addr
  52:Lib/lvgl/src/widgets/arc/../../core/../display/lv_display.h ****      */
  53:Lib/lvgl/src/widgets/arc/../../core/../display/lv_display.h ****     LV_DISPLAY_RENDER_MODE_DIRECT,
  54:Lib/lvgl/src/widgets/arc/../../core/../display/lv_display.h **** 
  55:Lib/lvgl/src/widgets/arc/../../core/../display/lv_display.h ****     /**
  56:Lib/lvgl/src/widgets/arc/../../core/../display/lv_display.h ****      * Always redraw the whole screen even if only one pixel has been changed.
  57:Lib/lvgl/src/widgets/arc/../../core/../display/lv_display.h ****      * With 2 buffers in flush_cb only and address change is required.
  58:Lib/lvgl/src/widgets/arc/../../core/../display/lv_display.h ****      */
  59:Lib/lvgl/src/widgets/arc/../../core/../display/lv_display.h ****     LV_DISPLAY_RENDER_MODE_FULL,
  60:Lib/lvgl/src/widgets/arc/../../core/../display/lv_display.h **** } lv_display_render_mode_t;
  61:Lib/lvgl/src/widgets/arc/../../core/../display/lv_display.h **** 
  62:Lib/lvgl/src/widgets/arc/../../core/../display/lv_display.h **** typedef enum {
  63:Lib/lvgl/src/widgets/arc/../../core/../display/lv_display.h ****     LV_SCR_LOAD_ANIM_NONE,
  64:Lib/lvgl/src/widgets/arc/../../core/../display/lv_display.h ****     LV_SCR_LOAD_ANIM_OVER_LEFT,
  65:Lib/lvgl/src/widgets/arc/../../core/../display/lv_display.h ****     LV_SCR_LOAD_ANIM_OVER_RIGHT,
  66:Lib/lvgl/src/widgets/arc/../../core/../display/lv_display.h ****     LV_SCR_LOAD_ANIM_OVER_TOP,
  67:Lib/lvgl/src/widgets/arc/../../core/../display/lv_display.h ****     LV_SCR_LOAD_ANIM_OVER_BOTTOM,
  68:Lib/lvgl/src/widgets/arc/../../core/../display/lv_display.h ****     LV_SCR_LOAD_ANIM_MOVE_LEFT,
  69:Lib/lvgl/src/widgets/arc/../../core/../display/lv_display.h ****     LV_SCR_LOAD_ANIM_MOVE_RIGHT,
  70:Lib/lvgl/src/widgets/arc/../../core/../display/lv_display.h ****     LV_SCR_LOAD_ANIM_MOVE_TOP,
  71:Lib/lvgl/src/widgets/arc/../../core/../display/lv_display.h ****     LV_SCR_LOAD_ANIM_MOVE_BOTTOM,
ARM GAS  C:\Users\Alex\AppData\Local\Temp\cczgZ6vp.s 			page 30


  72:Lib/lvgl/src/widgets/arc/../../core/../display/lv_display.h ****     LV_SCR_LOAD_ANIM_FADE_IN,
  73:Lib/lvgl/src/widgets/arc/../../core/../display/lv_display.h ****     LV_SCR_LOAD_ANIM_FADE_ON = LV_SCR_LOAD_ANIM_FADE_IN, /*For backward compatibility*/
  74:Lib/lvgl/src/widgets/arc/../../core/../display/lv_display.h ****     LV_SCR_LOAD_ANIM_FADE_OUT,
  75:Lib/lvgl/src/widgets/arc/../../core/../display/lv_display.h ****     LV_SCR_LOAD_ANIM_OUT_LEFT,
  76:Lib/lvgl/src/widgets/arc/../../core/../display/lv_display.h ****     LV_SCR_LOAD_ANIM_OUT_RIGHT,
  77:Lib/lvgl/src/widgets/arc/../../core/../display/lv_display.h ****     LV_SCR_LOAD_ANIM_OUT_TOP,
  78:Lib/lvgl/src/widgets/arc/../../core/../display/lv_display.h ****     LV_SCR_LOAD_ANIM_OUT_BOTTOM,
  79:Lib/lvgl/src/widgets/arc/../../core/../display/lv_display.h **** } lv_screen_load_anim_t;
  80:Lib/lvgl/src/widgets/arc/../../core/../display/lv_display.h **** 
  81:Lib/lvgl/src/widgets/arc/../../core/../display/lv_display.h **** typedef void (*lv_display_flush_cb_t)(lv_display_t * disp, const lv_area_t * area, uint8_t * px_map
  82:Lib/lvgl/src/widgets/arc/../../core/../display/lv_display.h **** typedef void (*lv_display_flush_wait_cb_t)(lv_display_t * disp);
  83:Lib/lvgl/src/widgets/arc/../../core/../display/lv_display.h **** 
  84:Lib/lvgl/src/widgets/arc/../../core/../display/lv_display.h **** /**********************
  85:Lib/lvgl/src/widgets/arc/../../core/../display/lv_display.h ****  * GLOBAL PROTOTYPES
  86:Lib/lvgl/src/widgets/arc/../../core/../display/lv_display.h ****  **********************/
  87:Lib/lvgl/src/widgets/arc/../../core/../display/lv_display.h **** 
  88:Lib/lvgl/src/widgets/arc/../../core/../display/lv_display.h **** /**
  89:Lib/lvgl/src/widgets/arc/../../core/../display/lv_display.h ****  * Create a new display with the given resolution
  90:Lib/lvgl/src/widgets/arc/../../core/../display/lv_display.h ****  * @param hor_res   horizontal resolution in pixels
  91:Lib/lvgl/src/widgets/arc/../../core/../display/lv_display.h ****  * @param ver_res   vertical resolution in pixels
  92:Lib/lvgl/src/widgets/arc/../../core/../display/lv_display.h ****  * @return          pointer to a display object or `NULL` on error
  93:Lib/lvgl/src/widgets/arc/../../core/../display/lv_display.h ****  */
  94:Lib/lvgl/src/widgets/arc/../../core/../display/lv_display.h **** lv_display_t * lv_display_create(int32_t hor_res, int32_t ver_res);
  95:Lib/lvgl/src/widgets/arc/../../core/../display/lv_display.h **** 
  96:Lib/lvgl/src/widgets/arc/../../core/../display/lv_display.h **** /**
  97:Lib/lvgl/src/widgets/arc/../../core/../display/lv_display.h ****  * Remove a display
  98:Lib/lvgl/src/widgets/arc/../../core/../display/lv_display.h ****  * @param disp      pointer to display
  99:Lib/lvgl/src/widgets/arc/../../core/../display/lv_display.h ****  */
 100:Lib/lvgl/src/widgets/arc/../../core/../display/lv_display.h **** void lv_display_delete(lv_display_t * disp);
 101:Lib/lvgl/src/widgets/arc/../../core/../display/lv_display.h **** 
 102:Lib/lvgl/src/widgets/arc/../../core/../display/lv_display.h **** /**
 103:Lib/lvgl/src/widgets/arc/../../core/../display/lv_display.h ****  * Set a default display. The new screens will be created on it by default.
 104:Lib/lvgl/src/widgets/arc/../../core/../display/lv_display.h ****  * @param disp      pointer to a display
 105:Lib/lvgl/src/widgets/arc/../../core/../display/lv_display.h ****  */
 106:Lib/lvgl/src/widgets/arc/../../core/../display/lv_display.h **** void lv_display_set_default(lv_display_t * disp);
 107:Lib/lvgl/src/widgets/arc/../../core/../display/lv_display.h **** 
 108:Lib/lvgl/src/widgets/arc/../../core/../display/lv_display.h **** /**
 109:Lib/lvgl/src/widgets/arc/../../core/../display/lv_display.h ****  * Get the default display
 110:Lib/lvgl/src/widgets/arc/../../core/../display/lv_display.h ****  * @return          pointer to the default display
 111:Lib/lvgl/src/widgets/arc/../../core/../display/lv_display.h ****  */
 112:Lib/lvgl/src/widgets/arc/../../core/../display/lv_display.h **** lv_display_t * lv_display_get_default(void);
 113:Lib/lvgl/src/widgets/arc/../../core/../display/lv_display.h **** 
 114:Lib/lvgl/src/widgets/arc/../../core/../display/lv_display.h **** /**
 115:Lib/lvgl/src/widgets/arc/../../core/../display/lv_display.h ****  * Get the next display.
 116:Lib/lvgl/src/widgets/arc/../../core/../display/lv_display.h ****  * @param disp      pointer to the current display. NULL to initialize.
 117:Lib/lvgl/src/widgets/arc/../../core/../display/lv_display.h ****  * @return          the next display or NULL if no more. Gives the first display when the parameter
 118:Lib/lvgl/src/widgets/arc/../../core/../display/lv_display.h ****  */
 119:Lib/lvgl/src/widgets/arc/../../core/../display/lv_display.h **** lv_display_t * lv_display_get_next(lv_display_t * disp);
 120:Lib/lvgl/src/widgets/arc/../../core/../display/lv_display.h **** 
 121:Lib/lvgl/src/widgets/arc/../../core/../display/lv_display.h **** /*---------------------
 122:Lib/lvgl/src/widgets/arc/../../core/../display/lv_display.h ****  * RESOLUTION
 123:Lib/lvgl/src/widgets/arc/../../core/../display/lv_display.h ****  *--------------------*/
 124:Lib/lvgl/src/widgets/arc/../../core/../display/lv_display.h **** 
 125:Lib/lvgl/src/widgets/arc/../../core/../display/lv_display.h **** /**
 126:Lib/lvgl/src/widgets/arc/../../core/../display/lv_display.h ****  * Sets the resolution of a display. `LV_EVENT_RESOLUTION_CHANGED` event will be sent.
 127:Lib/lvgl/src/widgets/arc/../../core/../display/lv_display.h ****  * Here the native resolution of the device should be set. If the display will be rotated later wit
 128:Lib/lvgl/src/widgets/arc/../../core/../display/lv_display.h ****  * `lv_display_set_rotation` LVGL will swap the hor. and ver. resolution automatically.
ARM GAS  C:\Users\Alex\AppData\Local\Temp\cczgZ6vp.s 			page 31


 129:Lib/lvgl/src/widgets/arc/../../core/../display/lv_display.h ****  * @param disp      pointer to a display
 130:Lib/lvgl/src/widgets/arc/../../core/../display/lv_display.h ****  * @param hor_res   the new horizontal resolution
 131:Lib/lvgl/src/widgets/arc/../../core/../display/lv_display.h ****  * @param ver_res   the new vertical resolution
 132:Lib/lvgl/src/widgets/arc/../../core/../display/lv_display.h ****  */
 133:Lib/lvgl/src/widgets/arc/../../core/../display/lv_display.h **** void lv_display_set_resolution(lv_display_t * disp, int32_t hor_res, int32_t ver_res);
 134:Lib/lvgl/src/widgets/arc/../../core/../display/lv_display.h **** 
 135:Lib/lvgl/src/widgets/arc/../../core/../display/lv_display.h **** /**
 136:Lib/lvgl/src/widgets/arc/../../core/../display/lv_display.h ****  * It's not mandatory to use the whole display for LVGL, however in some cases physical resolution 
 137:Lib/lvgl/src/widgets/arc/../../core/../display/lv_display.h ****  * For example the touchpad still sees whole resolution and the values needs to be converted
 138:Lib/lvgl/src/widgets/arc/../../core/../display/lv_display.h ****  * to the active LVGL display area.
 139:Lib/lvgl/src/widgets/arc/../../core/../display/lv_display.h ****  * @param disp      pointer to a display
 140:Lib/lvgl/src/widgets/arc/../../core/../display/lv_display.h ****  * @param hor_res   the new physical horizontal resolution, or -1 to assume it's the same as the no
 141:Lib/lvgl/src/widgets/arc/../../core/../display/lv_display.h ****  * @param ver_res   the new physical vertical resolution, or -1 to assume it's the same as the norm
 142:Lib/lvgl/src/widgets/arc/../../core/../display/lv_display.h ****  */
 143:Lib/lvgl/src/widgets/arc/../../core/../display/lv_display.h **** void lv_display_set_physical_resolution(lv_display_t * disp, int32_t hor_res, int32_t ver_res);
 144:Lib/lvgl/src/widgets/arc/../../core/../display/lv_display.h **** 
 145:Lib/lvgl/src/widgets/arc/../../core/../display/lv_display.h **** /**
 146:Lib/lvgl/src/widgets/arc/../../core/../display/lv_display.h ****  * If physical resolution is not the same as the normal resolution
 147:Lib/lvgl/src/widgets/arc/../../core/../display/lv_display.h ****  * the offset of the active display area can be set here.
 148:Lib/lvgl/src/widgets/arc/../../core/../display/lv_display.h ****  * @param disp      pointer to a display
 149:Lib/lvgl/src/widgets/arc/../../core/../display/lv_display.h ****  * @param x         X offset
 150:Lib/lvgl/src/widgets/arc/../../core/../display/lv_display.h ****  * @param y         Y offset
 151:Lib/lvgl/src/widgets/arc/../../core/../display/lv_display.h ****  */
 152:Lib/lvgl/src/widgets/arc/../../core/../display/lv_display.h **** void lv_display_set_offset(lv_display_t * disp, int32_t x, int32_t y);
 153:Lib/lvgl/src/widgets/arc/../../core/../display/lv_display.h **** 
 154:Lib/lvgl/src/widgets/arc/../../core/../display/lv_display.h **** /**
 155:Lib/lvgl/src/widgets/arc/../../core/../display/lv_display.h ****  * Set the rotation of this display. LVGL will swap the horizontal and vertical resolutions interna
 156:Lib/lvgl/src/widgets/arc/../../core/../display/lv_display.h ****  * @param disp      pointer to a display (NULL to use the default display)
 157:Lib/lvgl/src/widgets/arc/../../core/../display/lv_display.h ****  * @param rotation  `LV_DISPLAY_ROTATION_0/90/180/270`
 158:Lib/lvgl/src/widgets/arc/../../core/../display/lv_display.h ****  */
 159:Lib/lvgl/src/widgets/arc/../../core/../display/lv_display.h **** void lv_display_set_rotation(lv_display_t * disp, lv_display_rotation_t rotation);
 160:Lib/lvgl/src/widgets/arc/../../core/../display/lv_display.h **** 
 161:Lib/lvgl/src/widgets/arc/../../core/../display/lv_display.h **** /**
 162:Lib/lvgl/src/widgets/arc/../../core/../display/lv_display.h ****  * Set the DPI (dot per inch) of the display.
 163:Lib/lvgl/src/widgets/arc/../../core/../display/lv_display.h ****  * dpi = sqrt(hor_res^2 + ver_res^2) / diagonal"
 164:Lib/lvgl/src/widgets/arc/../../core/../display/lv_display.h ****  * @param disp      pointer to a display
 165:Lib/lvgl/src/widgets/arc/../../core/../display/lv_display.h ****  * @param dpi       the new DPI
 166:Lib/lvgl/src/widgets/arc/../../core/../display/lv_display.h ****  */
 167:Lib/lvgl/src/widgets/arc/../../core/../display/lv_display.h **** void lv_display_set_dpi(lv_display_t * disp, int32_t dpi);
 168:Lib/lvgl/src/widgets/arc/../../core/../display/lv_display.h **** 
 169:Lib/lvgl/src/widgets/arc/../../core/../display/lv_display.h **** /**
 170:Lib/lvgl/src/widgets/arc/../../core/../display/lv_display.h ****  * Get the horizontal resolution of a display.
 171:Lib/lvgl/src/widgets/arc/../../core/../display/lv_display.h ****  * @param disp      pointer to a display (NULL to use the default display)
 172:Lib/lvgl/src/widgets/arc/../../core/../display/lv_display.h ****  * @return          the horizontal resolution of the display.
 173:Lib/lvgl/src/widgets/arc/../../core/../display/lv_display.h ****  */
 174:Lib/lvgl/src/widgets/arc/../../core/../display/lv_display.h **** int32_t lv_display_get_horizontal_resolution(const lv_display_t * disp);
 175:Lib/lvgl/src/widgets/arc/../../core/../display/lv_display.h **** 
 176:Lib/lvgl/src/widgets/arc/../../core/../display/lv_display.h **** /**
 177:Lib/lvgl/src/widgets/arc/../../core/../display/lv_display.h ****  * Get the vertical resolution of a display
 178:Lib/lvgl/src/widgets/arc/../../core/../display/lv_display.h ****  * @param disp      pointer to a display (NULL to use the default display)
 179:Lib/lvgl/src/widgets/arc/../../core/../display/lv_display.h ****  * @return          the vertical resolution of the display
 180:Lib/lvgl/src/widgets/arc/../../core/../display/lv_display.h ****  */
 181:Lib/lvgl/src/widgets/arc/../../core/../display/lv_display.h **** int32_t lv_display_get_vertical_resolution(const lv_display_t * disp);
 182:Lib/lvgl/src/widgets/arc/../../core/../display/lv_display.h **** 
 183:Lib/lvgl/src/widgets/arc/../../core/../display/lv_display.h **** /**
 184:Lib/lvgl/src/widgets/arc/../../core/../display/lv_display.h ****  * Get the physical horizontal resolution of a display
 185:Lib/lvgl/src/widgets/arc/../../core/../display/lv_display.h ****  * @param disp      pointer to a display (NULL to use the default display)
ARM GAS  C:\Users\Alex\AppData\Local\Temp\cczgZ6vp.s 			page 32


 186:Lib/lvgl/src/widgets/arc/../../core/../display/lv_display.h ****  * @return the      physical horizontal resolution of the display
 187:Lib/lvgl/src/widgets/arc/../../core/../display/lv_display.h ****  */
 188:Lib/lvgl/src/widgets/arc/../../core/../display/lv_display.h **** int32_t lv_display_get_physical_horizontal_resolution(const lv_display_t * disp);
 189:Lib/lvgl/src/widgets/arc/../../core/../display/lv_display.h **** 
 190:Lib/lvgl/src/widgets/arc/../../core/../display/lv_display.h **** /**
 191:Lib/lvgl/src/widgets/arc/../../core/../display/lv_display.h ****  * Get the physical vertical resolution of a display
 192:Lib/lvgl/src/widgets/arc/../../core/../display/lv_display.h ****  * @param disp      pointer to a display (NULL to use the default display)
 193:Lib/lvgl/src/widgets/arc/../../core/../display/lv_display.h ****  * @return          the physical vertical resolution of the display
 194:Lib/lvgl/src/widgets/arc/../../core/../display/lv_display.h ****  */
 195:Lib/lvgl/src/widgets/arc/../../core/../display/lv_display.h **** int32_t lv_display_get_physical_vertical_resolution(const lv_display_t * disp);
 196:Lib/lvgl/src/widgets/arc/../../core/../display/lv_display.h **** 
 197:Lib/lvgl/src/widgets/arc/../../core/../display/lv_display.h **** /**
 198:Lib/lvgl/src/widgets/arc/../../core/../display/lv_display.h ****  * Get the horizontal offset from the full / physical display
 199:Lib/lvgl/src/widgets/arc/../../core/../display/lv_display.h ****  * @param disp      pointer to a display (NULL to use the default display)
 200:Lib/lvgl/src/widgets/arc/../../core/../display/lv_display.h ****  * @return          the horizontal offset from the physical display
 201:Lib/lvgl/src/widgets/arc/../../core/../display/lv_display.h ****  */
 202:Lib/lvgl/src/widgets/arc/../../core/../display/lv_display.h **** int32_t lv_display_get_offset_x(const lv_display_t * disp);
 203:Lib/lvgl/src/widgets/arc/../../core/../display/lv_display.h **** 
 204:Lib/lvgl/src/widgets/arc/../../core/../display/lv_display.h **** /**
 205:Lib/lvgl/src/widgets/arc/../../core/../display/lv_display.h ****  * Get the vertical offset from the full / physical display
 206:Lib/lvgl/src/widgets/arc/../../core/../display/lv_display.h ****  * @param disp      pointer to a display (NULL to use the default display)
 207:Lib/lvgl/src/widgets/arc/../../core/../display/lv_display.h ****  * @return          the horizontal offset from the physical display
 208:Lib/lvgl/src/widgets/arc/../../core/../display/lv_display.h ****  */
 209:Lib/lvgl/src/widgets/arc/../../core/../display/lv_display.h **** int32_t lv_display_get_offset_y(const lv_display_t * disp);
 210:Lib/lvgl/src/widgets/arc/../../core/../display/lv_display.h **** 
 211:Lib/lvgl/src/widgets/arc/../../core/../display/lv_display.h **** /**
 212:Lib/lvgl/src/widgets/arc/../../core/../display/lv_display.h ****  * Get the current rotation of this display.
 213:Lib/lvgl/src/widgets/arc/../../core/../display/lv_display.h ****  * @param disp      pointer to a display (NULL to use the default display)
 214:Lib/lvgl/src/widgets/arc/../../core/../display/lv_display.h ****  * @return          the current rotation
 215:Lib/lvgl/src/widgets/arc/../../core/../display/lv_display.h ****  */
 216:Lib/lvgl/src/widgets/arc/../../core/../display/lv_display.h **** lv_display_rotation_t lv_display_get_rotation(lv_display_t * disp);
 217:Lib/lvgl/src/widgets/arc/../../core/../display/lv_display.h **** 
 218:Lib/lvgl/src/widgets/arc/../../core/../display/lv_display.h **** /**
 219:Lib/lvgl/src/widgets/arc/../../core/../display/lv_display.h ****  * Get the DPI of the display
 220:Lib/lvgl/src/widgets/arc/../../core/../display/lv_display.h ****  * @param disp      pointer to a display (NULL to use the default display)
 221:Lib/lvgl/src/widgets/arc/../../core/../display/lv_display.h ****  * @return          dpi of the display
 222:Lib/lvgl/src/widgets/arc/../../core/../display/lv_display.h ****  */
 223:Lib/lvgl/src/widgets/arc/../../core/../display/lv_display.h **** int32_t lv_display_get_dpi(const lv_display_t * disp);
 224:Lib/lvgl/src/widgets/arc/../../core/../display/lv_display.h **** 
 225:Lib/lvgl/src/widgets/arc/../../core/../display/lv_display.h **** /*---------------------
 226:Lib/lvgl/src/widgets/arc/../../core/../display/lv_display.h ****  * BUFFERING
 227:Lib/lvgl/src/widgets/arc/../../core/../display/lv_display.h ****  *--------------------*/
 228:Lib/lvgl/src/widgets/arc/../../core/../display/lv_display.h **** 
 229:Lib/lvgl/src/widgets/arc/../../core/../display/lv_display.h **** /**
 230:Lib/lvgl/src/widgets/arc/../../core/../display/lv_display.h ****  * Set the buffers for a display, similarly to `lv_display_set_draw_buffers`, but accept the raw bu
 231:Lib/lvgl/src/widgets/arc/../../core/../display/lv_display.h ****  * @param disp              pointer to a display
 232:Lib/lvgl/src/widgets/arc/../../core/../display/lv_display.h ****  * @param buf1              first buffer
 233:Lib/lvgl/src/widgets/arc/../../core/../display/lv_display.h ****  * @param buf2              second buffer (can be `NULL`)
 234:Lib/lvgl/src/widgets/arc/../../core/../display/lv_display.h ****  * @param buf_size          buffer size in byte
 235:Lib/lvgl/src/widgets/arc/../../core/../display/lv_display.h ****  * @param render_mode       LV_DISPLAY_RENDER_MODE_PARTIAL/DIRECT/FULL
 236:Lib/lvgl/src/widgets/arc/../../core/../display/lv_display.h ****  */
 237:Lib/lvgl/src/widgets/arc/../../core/../display/lv_display.h **** void lv_display_set_buffers(lv_display_t * disp, void * buf1, void * buf2, uint32_t buf_size,
 238:Lib/lvgl/src/widgets/arc/../../core/../display/lv_display.h ****                             lv_display_render_mode_t render_mode);
 239:Lib/lvgl/src/widgets/arc/../../core/../display/lv_display.h **** 
 240:Lib/lvgl/src/widgets/arc/../../core/../display/lv_display.h **** /**
 241:Lib/lvgl/src/widgets/arc/../../core/../display/lv_display.h ****  * Set the buffers for a display, accept a draw buffer pointer.
 242:Lib/lvgl/src/widgets/arc/../../core/../display/lv_display.h ****  * Normally use `lv_display_set_buffers` is enough for most cases.
ARM GAS  C:\Users\Alex\AppData\Local\Temp\cczgZ6vp.s 			page 33


 243:Lib/lvgl/src/widgets/arc/../../core/../display/lv_display.h ****  * Use this function when an existing lv_draw_buf_t is available.
 244:Lib/lvgl/src/widgets/arc/../../core/../display/lv_display.h ****  * @param disp              pointer to a display
 245:Lib/lvgl/src/widgets/arc/../../core/../display/lv_display.h ****  * @param buf1              first buffer
 246:Lib/lvgl/src/widgets/arc/../../core/../display/lv_display.h ****  * @param buf2              second buffer (can be `NULL`)
 247:Lib/lvgl/src/widgets/arc/../../core/../display/lv_display.h ****  */
 248:Lib/lvgl/src/widgets/arc/../../core/../display/lv_display.h **** void lv_display_set_draw_buffers(lv_display_t * disp, lv_draw_buf_t * buf1, lv_draw_buf_t * buf2);
 249:Lib/lvgl/src/widgets/arc/../../core/../display/lv_display.h **** 
 250:Lib/lvgl/src/widgets/arc/../../core/../display/lv_display.h **** /**
 251:Lib/lvgl/src/widgets/arc/../../core/../display/lv_display.h ****  * Set display render mode
 252:Lib/lvgl/src/widgets/arc/../../core/../display/lv_display.h ****  * @param disp              pointer to a display
 253:Lib/lvgl/src/widgets/arc/../../core/../display/lv_display.h ****  * @param render_mode       LV_DISPLAY_RENDER_MODE_PARTIAL/DIRECT/FULL
 254:Lib/lvgl/src/widgets/arc/../../core/../display/lv_display.h ****  */
 255:Lib/lvgl/src/widgets/arc/../../core/../display/lv_display.h **** void lv_display_set_render_mode(lv_display_t * disp, lv_display_render_mode_t render_mode);
 256:Lib/lvgl/src/widgets/arc/../../core/../display/lv_display.h **** 
 257:Lib/lvgl/src/widgets/arc/../../core/../display/lv_display.h **** /**
 258:Lib/lvgl/src/widgets/arc/../../core/../display/lv_display.h ****  * Set the flush callback which will be called to copy the rendered image to the display.
 259:Lib/lvgl/src/widgets/arc/../../core/../display/lv_display.h ****  * @param disp      pointer to a display
 260:Lib/lvgl/src/widgets/arc/../../core/../display/lv_display.h ****  * @param flush_cb  the flush callback (`px_map` contains the rendered image as raw pixel map and i
 261:Lib/lvgl/src/widgets/arc/../../core/../display/lv_display.h ****  */
 262:Lib/lvgl/src/widgets/arc/../../core/../display/lv_display.h **** void lv_display_set_flush_cb(lv_display_t * disp, lv_display_flush_cb_t flush_cb);
 263:Lib/lvgl/src/widgets/arc/../../core/../display/lv_display.h **** 
 264:Lib/lvgl/src/widgets/arc/../../core/../display/lv_display.h **** /**
 265:Lib/lvgl/src/widgets/arc/../../core/../display/lv_display.h ****  * Set a callback to be used while LVGL is waiting flushing to be finished.
 266:Lib/lvgl/src/widgets/arc/../../core/../display/lv_display.h ****  * It can do any complex logic to wait, including semaphores, mutexes, polling flags, etc.
 267:Lib/lvgl/src/widgets/arc/../../core/../display/lv_display.h ****  * If not set the `disp->flushing` flag is used which can be cleared with `lv_display_flush_ready()
 268:Lib/lvgl/src/widgets/arc/../../core/../display/lv_display.h ****  * @param disp      pointer to a display
 269:Lib/lvgl/src/widgets/arc/../../core/../display/lv_display.h ****  * @param wait_cb   a callback to call while LVGL is waiting for flush ready.
 270:Lib/lvgl/src/widgets/arc/../../core/../display/lv_display.h ****  *                  If NULL `lv_display_flush_ready()` can be used to signal that flushing is ready
 271:Lib/lvgl/src/widgets/arc/../../core/../display/lv_display.h ****  */
 272:Lib/lvgl/src/widgets/arc/../../core/../display/lv_display.h **** void lv_display_set_flush_wait_cb(lv_display_t * disp, lv_display_flush_wait_cb_t wait_cb);
 273:Lib/lvgl/src/widgets/arc/../../core/../display/lv_display.h **** 
 274:Lib/lvgl/src/widgets/arc/../../core/../display/lv_display.h **** /**
 275:Lib/lvgl/src/widgets/arc/../../core/../display/lv_display.h ****  * Set the color format of the display.
 276:Lib/lvgl/src/widgets/arc/../../core/../display/lv_display.h ****  * @param disp              pointer to a display
 277:Lib/lvgl/src/widgets/arc/../../core/../display/lv_display.h ****  * @param color_format      Possible values are
 278:Lib/lvgl/src/widgets/arc/../../core/../display/lv_display.h ****  *                          - LV_COLOR_FORMAT_RGB565
 279:Lib/lvgl/src/widgets/arc/../../core/../display/lv_display.h ****  *                          - LV_COLOR_FORMAT_RGB888
 280:Lib/lvgl/src/widgets/arc/../../core/../display/lv_display.h ****  *                          - LV_COLOR_FORMAT_XRGB888
 281:Lib/lvgl/src/widgets/arc/../../core/../display/lv_display.h ****  *                          - LV_COLOR_FORMAT_ARGB888
 282:Lib/lvgl/src/widgets/arc/../../core/../display/lv_display.h ****  *@note To change the endianness of the rendered image in case of RGB565 format
 283:Lib/lvgl/src/widgets/arc/../../core/../display/lv_display.h ****  *      (i.e. swap the 2 bytes) call `lv_draw_sw_rgb565_swap` in the flush_cb
 284:Lib/lvgl/src/widgets/arc/../../core/../display/lv_display.h ****  */
 285:Lib/lvgl/src/widgets/arc/../../core/../display/lv_display.h **** void lv_display_set_color_format(lv_display_t * disp, lv_color_format_t color_format);
 286:Lib/lvgl/src/widgets/arc/../../core/../display/lv_display.h **** 
 287:Lib/lvgl/src/widgets/arc/../../core/../display/lv_display.h **** /**
 288:Lib/lvgl/src/widgets/arc/../../core/../display/lv_display.h ****  * Get the color format of the display
 289:Lib/lvgl/src/widgets/arc/../../core/../display/lv_display.h ****  * @param disp              pointer to a display
 290:Lib/lvgl/src/widgets/arc/../../core/../display/lv_display.h ****  * @return                  the color format
 291:Lib/lvgl/src/widgets/arc/../../core/../display/lv_display.h ****  */
 292:Lib/lvgl/src/widgets/arc/../../core/../display/lv_display.h **** lv_color_format_t lv_display_get_color_format(lv_display_t * disp);
 293:Lib/lvgl/src/widgets/arc/../../core/../display/lv_display.h **** 
 294:Lib/lvgl/src/widgets/arc/../../core/../display/lv_display.h **** /**
 295:Lib/lvgl/src/widgets/arc/../../core/../display/lv_display.h ****  * Enable anti-aliasing for the render engine
 296:Lib/lvgl/src/widgets/arc/../../core/../display/lv_display.h ****  * @param disp      pointer to a display
 297:Lib/lvgl/src/widgets/arc/../../core/../display/lv_display.h ****  * @param en        true/false
 298:Lib/lvgl/src/widgets/arc/../../core/../display/lv_display.h ****  */
 299:Lib/lvgl/src/widgets/arc/../../core/../display/lv_display.h **** void lv_display_set_antialiasing(lv_display_t * disp, bool en);
ARM GAS  C:\Users\Alex\AppData\Local\Temp\cczgZ6vp.s 			page 34


 300:Lib/lvgl/src/widgets/arc/../../core/../display/lv_display.h **** 
 301:Lib/lvgl/src/widgets/arc/../../core/../display/lv_display.h **** /**
 302:Lib/lvgl/src/widgets/arc/../../core/../display/lv_display.h ****  * Get if anti-aliasing is enabled for a display or not
 303:Lib/lvgl/src/widgets/arc/../../core/../display/lv_display.h ****  * @param disp      pointer to a display (NULL to use the default display)
 304:Lib/lvgl/src/widgets/arc/../../core/../display/lv_display.h ****  * @return          true/false
 305:Lib/lvgl/src/widgets/arc/../../core/../display/lv_display.h ****  */
 306:Lib/lvgl/src/widgets/arc/../../core/../display/lv_display.h **** bool lv_display_get_antialiasing(lv_display_t * disp);
 307:Lib/lvgl/src/widgets/arc/../../core/../display/lv_display.h **** 
 308:Lib/lvgl/src/widgets/arc/../../core/../display/lv_display.h **** //! @cond Doxygen_Suppress
 309:Lib/lvgl/src/widgets/arc/../../core/../display/lv_display.h **** 
 310:Lib/lvgl/src/widgets/arc/../../core/../display/lv_display.h **** /**
 311:Lib/lvgl/src/widgets/arc/../../core/../display/lv_display.h ****  * Call from the display driver when the flushing is finished
 312:Lib/lvgl/src/widgets/arc/../../core/../display/lv_display.h ****  * @param disp      pointer to display whose `flush_cb` was called
 313:Lib/lvgl/src/widgets/arc/../../core/../display/lv_display.h ****  */
 314:Lib/lvgl/src/widgets/arc/../../core/../display/lv_display.h **** LV_ATTRIBUTE_FLUSH_READY void lv_display_flush_ready(lv_display_t * disp);
 315:Lib/lvgl/src/widgets/arc/../../core/../display/lv_display.h **** 
 316:Lib/lvgl/src/widgets/arc/../../core/../display/lv_display.h **** /**
 317:Lib/lvgl/src/widgets/arc/../../core/../display/lv_display.h ****  * Tell if it's the last area of the refreshing process.
 318:Lib/lvgl/src/widgets/arc/../../core/../display/lv_display.h ****  * Can be called from `flush_cb` to execute some special display refreshing if needed when all area
 319:Lib/lvgl/src/widgets/arc/../../core/../display/lv_display.h ****  * @param disp      pointer to display
 320:Lib/lvgl/src/widgets/arc/../../core/../display/lv_display.h ****  * @return          true: it's the last area to flush;
 321:Lib/lvgl/src/widgets/arc/../../core/../display/lv_display.h ****  *                  false: there are other areas too which will be refreshed soon
 322:Lib/lvgl/src/widgets/arc/../../core/../display/lv_display.h ****  */
 323:Lib/lvgl/src/widgets/arc/../../core/../display/lv_display.h **** LV_ATTRIBUTE_FLUSH_READY bool lv_display_flush_is_last(lv_display_t * disp);
 324:Lib/lvgl/src/widgets/arc/../../core/../display/lv_display.h **** 
 325:Lib/lvgl/src/widgets/arc/../../core/../display/lv_display.h **** //! @endcond
 326:Lib/lvgl/src/widgets/arc/../../core/../display/lv_display.h **** 
 327:Lib/lvgl/src/widgets/arc/../../core/../display/lv_display.h **** bool lv_display_is_double_buffered(lv_display_t * disp);
 328:Lib/lvgl/src/widgets/arc/../../core/../display/lv_display.h **** 
 329:Lib/lvgl/src/widgets/arc/../../core/../display/lv_display.h **** /*---------------------
 330:Lib/lvgl/src/widgets/arc/../../core/../display/lv_display.h ****  * SCREENS
 331:Lib/lvgl/src/widgets/arc/../../core/../display/lv_display.h ****  *--------------------*/
 332:Lib/lvgl/src/widgets/arc/../../core/../display/lv_display.h **** 
 333:Lib/lvgl/src/widgets/arc/../../core/../display/lv_display.h **** /**
 334:Lib/lvgl/src/widgets/arc/../../core/../display/lv_display.h ****  * Return a pointer to the active screen on a display
 335:Lib/lvgl/src/widgets/arc/../../core/../display/lv_display.h ****  * @param disp      pointer to display which active screen should be get.
 336:Lib/lvgl/src/widgets/arc/../../core/../display/lv_display.h ****  *                  (NULL to use the default screen)
 337:Lib/lvgl/src/widgets/arc/../../core/../display/lv_display.h ****  * @return          pointer to the active screen object (loaded by 'lv_screen_load()')
 338:Lib/lvgl/src/widgets/arc/../../core/../display/lv_display.h ****  */
 339:Lib/lvgl/src/widgets/arc/../../core/../display/lv_display.h **** lv_obj_t * lv_display_get_screen_active(lv_display_t * disp);
 340:Lib/lvgl/src/widgets/arc/../../core/../display/lv_display.h **** 
 341:Lib/lvgl/src/widgets/arc/../../core/../display/lv_display.h **** /**
 342:Lib/lvgl/src/widgets/arc/../../core/../display/lv_display.h ****  * Return with a pointer to the previous screen. Only used during screen transitions.
 343:Lib/lvgl/src/widgets/arc/../../core/../display/lv_display.h ****  * @param disp      pointer to display which previous screen should be get.
 344:Lib/lvgl/src/widgets/arc/../../core/../display/lv_display.h ****  *                  (NULL to use the default screen)
 345:Lib/lvgl/src/widgets/arc/../../core/../display/lv_display.h ****  * @return          pointer to the previous screen object or NULL if not used now
 346:Lib/lvgl/src/widgets/arc/../../core/../display/lv_display.h ****  */
 347:Lib/lvgl/src/widgets/arc/../../core/../display/lv_display.h **** lv_obj_t * lv_display_get_screen_prev(lv_display_t * disp);
 348:Lib/lvgl/src/widgets/arc/../../core/../display/lv_display.h **** 
 349:Lib/lvgl/src/widgets/arc/../../core/../display/lv_display.h **** /**
 350:Lib/lvgl/src/widgets/arc/../../core/../display/lv_display.h ****  * Return the top layer. The top layer is the same on all screens and it is above the normal screen
 351:Lib/lvgl/src/widgets/arc/../../core/../display/lv_display.h ****  * @param disp      pointer to display which top layer should be get. (NULL to use the default scre
 352:Lib/lvgl/src/widgets/arc/../../core/../display/lv_display.h ****  * @return          pointer to the top layer object
 353:Lib/lvgl/src/widgets/arc/../../core/../display/lv_display.h ****  */
 354:Lib/lvgl/src/widgets/arc/../../core/../display/lv_display.h **** lv_obj_t * lv_display_get_layer_top(lv_display_t * disp);
 355:Lib/lvgl/src/widgets/arc/../../core/../display/lv_display.h **** 
 356:Lib/lvgl/src/widgets/arc/../../core/../display/lv_display.h **** /**
ARM GAS  C:\Users\Alex\AppData\Local\Temp\cczgZ6vp.s 			page 35


 357:Lib/lvgl/src/widgets/arc/../../core/../display/lv_display.h ****  * Return the sys. layer. The system layer is the same on all screen and it is above the normal scr
 358:Lib/lvgl/src/widgets/arc/../../core/../display/lv_display.h ****  * @param disp      pointer to display which sys. layer should be retrieved. (NULL to use the defau
 359:Lib/lvgl/src/widgets/arc/../../core/../display/lv_display.h ****  * @return          pointer to the sys layer object
 360:Lib/lvgl/src/widgets/arc/../../core/../display/lv_display.h ****  */
 361:Lib/lvgl/src/widgets/arc/../../core/../display/lv_display.h **** lv_obj_t * lv_display_get_layer_sys(lv_display_t * disp);
 362:Lib/lvgl/src/widgets/arc/../../core/../display/lv_display.h **** 
 363:Lib/lvgl/src/widgets/arc/../../core/../display/lv_display.h **** /**
 364:Lib/lvgl/src/widgets/arc/../../core/../display/lv_display.h ****  * Return the bottom layer. The bottom layer is the same on all screen and it is under the normal s
 365:Lib/lvgl/src/widgets/arc/../../core/../display/lv_display.h ****  * It's visible only if the the screen is transparent.
 366:Lib/lvgl/src/widgets/arc/../../core/../display/lv_display.h ****  * @param disp      pointer to display (NULL to use the default screen)
 367:Lib/lvgl/src/widgets/arc/../../core/../display/lv_display.h ****  * @return          pointer to the bottom layer object
 368:Lib/lvgl/src/widgets/arc/../../core/../display/lv_display.h ****  */
 369:Lib/lvgl/src/widgets/arc/../../core/../display/lv_display.h **** lv_obj_t * lv_display_get_layer_bottom(lv_display_t * disp);
 370:Lib/lvgl/src/widgets/arc/../../core/../display/lv_display.h **** 
 371:Lib/lvgl/src/widgets/arc/../../core/../display/lv_display.h **** /**
 372:Lib/lvgl/src/widgets/arc/../../core/../display/lv_display.h ****  * Load a screen on the default display
 373:Lib/lvgl/src/widgets/arc/../../core/../display/lv_display.h ****  * @param scr       pointer to a screen
 374:Lib/lvgl/src/widgets/arc/../../core/../display/lv_display.h ****  */
 375:Lib/lvgl/src/widgets/arc/../../core/../display/lv_display.h **** void lv_screen_load(struct _lv_obj_t * scr);
 376:Lib/lvgl/src/widgets/arc/../../core/../display/lv_display.h **** 
 377:Lib/lvgl/src/widgets/arc/../../core/../display/lv_display.h **** /**
 378:Lib/lvgl/src/widgets/arc/../../core/../display/lv_display.h ****  * Switch screen with animation
 379:Lib/lvgl/src/widgets/arc/../../core/../display/lv_display.h ****  * @param scr       pointer to the new screen to load
 380:Lib/lvgl/src/widgets/arc/../../core/../display/lv_display.h ****  * @param anim_type type of the animation from `lv_screen_load_anim_t`, e.g. `LV_SCR_LOAD_ANIM_MOVE
 381:Lib/lvgl/src/widgets/arc/../../core/../display/lv_display.h ****  * @param time      time of the animation
 382:Lib/lvgl/src/widgets/arc/../../core/../display/lv_display.h ****  * @param delay     delay before the transition
 383:Lib/lvgl/src/widgets/arc/../../core/../display/lv_display.h ****  * @param auto_del  true: automatically delete the old screen
 384:Lib/lvgl/src/widgets/arc/../../core/../display/lv_display.h ****  */
 385:Lib/lvgl/src/widgets/arc/../../core/../display/lv_display.h **** void lv_screen_load_anim(lv_obj_t * scr, lv_screen_load_anim_t anim_type, uint32_t time, uint32_t d
 386:Lib/lvgl/src/widgets/arc/../../core/../display/lv_display.h ****                          bool auto_del);
 387:Lib/lvgl/src/widgets/arc/../../core/../display/lv_display.h **** 
 388:Lib/lvgl/src/widgets/arc/../../core/../display/lv_display.h **** /**
 389:Lib/lvgl/src/widgets/arc/../../core/../display/lv_display.h ****  * Get the active screen of the default display
 390:Lib/lvgl/src/widgets/arc/../../core/../display/lv_display.h ****  * @return          pointer to the active screen
 391:Lib/lvgl/src/widgets/arc/../../core/../display/lv_display.h ****  */
 392:Lib/lvgl/src/widgets/arc/../../core/../display/lv_display.h **** static inline lv_obj_t * lv_screen_active(void)
 393:Lib/lvgl/src/widgets/arc/../../core/../display/lv_display.h **** {
 394:Lib/lvgl/src/widgets/arc/../../core/../display/lv_display.h ****     return lv_display_get_screen_active(lv_display_get_default());
 395:Lib/lvgl/src/widgets/arc/../../core/../display/lv_display.h **** }
 396:Lib/lvgl/src/widgets/arc/../../core/../display/lv_display.h **** 
 397:Lib/lvgl/src/widgets/arc/../../core/../display/lv_display.h **** /**
 398:Lib/lvgl/src/widgets/arc/../../core/../display/lv_display.h ****  * Get the top layer  of the default display
 399:Lib/lvgl/src/widgets/arc/../../core/../display/lv_display.h ****  * @return          pointer to the top layer
 400:Lib/lvgl/src/widgets/arc/../../core/../display/lv_display.h ****  */
 401:Lib/lvgl/src/widgets/arc/../../core/../display/lv_display.h **** static inline lv_obj_t * lv_layer_top(void)
 402:Lib/lvgl/src/widgets/arc/../../core/../display/lv_display.h **** {
 403:Lib/lvgl/src/widgets/arc/../../core/../display/lv_display.h ****     return lv_display_get_layer_top(lv_display_get_default());
 404:Lib/lvgl/src/widgets/arc/../../core/../display/lv_display.h **** }
 405:Lib/lvgl/src/widgets/arc/../../core/../display/lv_display.h **** 
 406:Lib/lvgl/src/widgets/arc/../../core/../display/lv_display.h **** /**
 407:Lib/lvgl/src/widgets/arc/../../core/../display/lv_display.h ****  * Get the system layer  of the default display
 408:Lib/lvgl/src/widgets/arc/../../core/../display/lv_display.h ****  * @return          pointer to the sys layer
 409:Lib/lvgl/src/widgets/arc/../../core/../display/lv_display.h ****  */
 410:Lib/lvgl/src/widgets/arc/../../core/../display/lv_display.h **** static inline lv_obj_t * lv_layer_sys(void)
 411:Lib/lvgl/src/widgets/arc/../../core/../display/lv_display.h **** {
 412:Lib/lvgl/src/widgets/arc/../../core/../display/lv_display.h ****     return lv_display_get_layer_sys(lv_display_get_default());
 413:Lib/lvgl/src/widgets/arc/../../core/../display/lv_display.h **** }
ARM GAS  C:\Users\Alex\AppData\Local\Temp\cczgZ6vp.s 			page 36


 414:Lib/lvgl/src/widgets/arc/../../core/../display/lv_display.h **** 
 415:Lib/lvgl/src/widgets/arc/../../core/../display/lv_display.h **** /**
 416:Lib/lvgl/src/widgets/arc/../../core/../display/lv_display.h ****  * Get the bottom layer  of the default display
 417:Lib/lvgl/src/widgets/arc/../../core/../display/lv_display.h ****  * @return          pointer to the bottom layer
 418:Lib/lvgl/src/widgets/arc/../../core/../display/lv_display.h ****  */
 419:Lib/lvgl/src/widgets/arc/../../core/../display/lv_display.h **** static inline lv_obj_t * lv_layer_bottom(void)
 420:Lib/lvgl/src/widgets/arc/../../core/../display/lv_display.h **** {
 421:Lib/lvgl/src/widgets/arc/../../core/../display/lv_display.h ****     return lv_display_get_layer_bottom(lv_display_get_default());
 422:Lib/lvgl/src/widgets/arc/../../core/../display/lv_display.h **** }
 423:Lib/lvgl/src/widgets/arc/../../core/../display/lv_display.h **** 
 424:Lib/lvgl/src/widgets/arc/../../core/../display/lv_display.h **** /*---------------------
 425:Lib/lvgl/src/widgets/arc/../../core/../display/lv_display.h ****  * OTHERS
 426:Lib/lvgl/src/widgets/arc/../../core/../display/lv_display.h ****  *--------------------*/
 427:Lib/lvgl/src/widgets/arc/../../core/../display/lv_display.h **** 
 428:Lib/lvgl/src/widgets/arc/../../core/../display/lv_display.h **** /**
 429:Lib/lvgl/src/widgets/arc/../../core/../display/lv_display.h ****  * Add an event handler to the display
 430:Lib/lvgl/src/widgets/arc/../../core/../display/lv_display.h ****  * @param disp          pointer to a display
 431:Lib/lvgl/src/widgets/arc/../../core/../display/lv_display.h ****  * @param event_cb      an event callback
 432:Lib/lvgl/src/widgets/arc/../../core/../display/lv_display.h ****  * @param filter        event code to react or `LV_EVENT_ALL`
 433:Lib/lvgl/src/widgets/arc/../../core/../display/lv_display.h ****  * @param user_data     optional user_data
 434:Lib/lvgl/src/widgets/arc/../../core/../display/lv_display.h ****  */
 435:Lib/lvgl/src/widgets/arc/../../core/../display/lv_display.h **** void lv_display_add_event_cb(lv_display_t * disp, lv_event_cb_t event_cb, lv_event_code_t filter, v
 436:Lib/lvgl/src/widgets/arc/../../core/../display/lv_display.h **** 
 437:Lib/lvgl/src/widgets/arc/../../core/../display/lv_display.h **** /**
 438:Lib/lvgl/src/widgets/arc/../../core/../display/lv_display.h ****  * Get the number of event attached to a display
 439:Lib/lvgl/src/widgets/arc/../../core/../display/lv_display.h ****  * @param disp          pointer to a display
 440:Lib/lvgl/src/widgets/arc/../../core/../display/lv_display.h ****  * @return              number of events
 441:Lib/lvgl/src/widgets/arc/../../core/../display/lv_display.h ****  */
 442:Lib/lvgl/src/widgets/arc/../../core/../display/lv_display.h **** uint32_t lv_display_get_event_count(lv_display_t * disp);
 443:Lib/lvgl/src/widgets/arc/../../core/../display/lv_display.h **** 
 444:Lib/lvgl/src/widgets/arc/../../core/../display/lv_display.h **** /**
 445:Lib/lvgl/src/widgets/arc/../../core/../display/lv_display.h ****  * Get an event descriptor for an event
 446:Lib/lvgl/src/widgets/arc/../../core/../display/lv_display.h ****  * @param disp          pointer to a display
 447:Lib/lvgl/src/widgets/arc/../../core/../display/lv_display.h ****  * @param index         the index of the event
 448:Lib/lvgl/src/widgets/arc/../../core/../display/lv_display.h ****  * @return              the event descriptor
 449:Lib/lvgl/src/widgets/arc/../../core/../display/lv_display.h ****  */
 450:Lib/lvgl/src/widgets/arc/../../core/../display/lv_display.h **** lv_event_dsc_t * lv_display_get_event_dsc(lv_display_t * disp, uint32_t index);
 451:Lib/lvgl/src/widgets/arc/../../core/../display/lv_display.h **** 
 452:Lib/lvgl/src/widgets/arc/../../core/../display/lv_display.h **** /**
 453:Lib/lvgl/src/widgets/arc/../../core/../display/lv_display.h ****  * Remove an event
 454:Lib/lvgl/src/widgets/arc/../../core/../display/lv_display.h ****  * @param disp          pointer to a display
 455:Lib/lvgl/src/widgets/arc/../../core/../display/lv_display.h ****  * @param index         the index of the event to remove
 456:Lib/lvgl/src/widgets/arc/../../core/../display/lv_display.h ****  * @return              true: and event was removed; false: no event was removed
 457:Lib/lvgl/src/widgets/arc/../../core/../display/lv_display.h ****  */
 458:Lib/lvgl/src/widgets/arc/../../core/../display/lv_display.h **** bool lv_display_delete_event(lv_display_t * disp, uint32_t index);
 459:Lib/lvgl/src/widgets/arc/../../core/../display/lv_display.h **** 
 460:Lib/lvgl/src/widgets/arc/../../core/../display/lv_display.h **** /**
 461:Lib/lvgl/src/widgets/arc/../../core/../display/lv_display.h ****  * Remove an event_cb with user_data
 462:Lib/lvgl/src/widgets/arc/../../core/../display/lv_display.h ****  * @param disp          pointer to a display
 463:Lib/lvgl/src/widgets/arc/../../core/../display/lv_display.h ****  * @param event_cb      the event_cb of the event to remove
 464:Lib/lvgl/src/widgets/arc/../../core/../display/lv_display.h ****  * @param user_data     user_data
 465:Lib/lvgl/src/widgets/arc/../../core/../display/lv_display.h ****  * @return              the count of the event removed
 466:Lib/lvgl/src/widgets/arc/../../core/../display/lv_display.h ****  */
 467:Lib/lvgl/src/widgets/arc/../../core/../display/lv_display.h **** uint32_t lv_display_remove_event_cb_with_user_data(lv_display_t * disp, lv_event_cb_t event_cb, voi
 468:Lib/lvgl/src/widgets/arc/../../core/../display/lv_display.h **** 
 469:Lib/lvgl/src/widgets/arc/../../core/../display/lv_display.h **** /**
 470:Lib/lvgl/src/widgets/arc/../../core/../display/lv_display.h ****  * Send an event to a display
ARM GAS  C:\Users\Alex\AppData\Local\Temp\cczgZ6vp.s 			page 37


 471:Lib/lvgl/src/widgets/arc/../../core/../display/lv_display.h ****  * @param disp          pointer to a display
 472:Lib/lvgl/src/widgets/arc/../../core/../display/lv_display.h ****  * @param code          an event code. LV_EVENT_...
 473:Lib/lvgl/src/widgets/arc/../../core/../display/lv_display.h ****  * @param param         optional param
 474:Lib/lvgl/src/widgets/arc/../../core/../display/lv_display.h ****  * @return              LV_RESULT_OK: disp wasn't deleted in the event.
 475:Lib/lvgl/src/widgets/arc/../../core/../display/lv_display.h ****  */
 476:Lib/lvgl/src/widgets/arc/../../core/../display/lv_display.h **** lv_result_t lv_display_send_event(lv_display_t * disp, lv_event_code_t code, void * param);
 477:Lib/lvgl/src/widgets/arc/../../core/../display/lv_display.h **** 
 478:Lib/lvgl/src/widgets/arc/../../core/../display/lv_display.h **** /**
 479:Lib/lvgl/src/widgets/arc/../../core/../display/lv_display.h ****  * Set the theme of a display. If there are no user created widgets yet the screens' theme will be 
 480:Lib/lvgl/src/widgets/arc/../../core/../display/lv_display.h ****  * @param disp      pointer to a display
 481:Lib/lvgl/src/widgets/arc/../../core/../display/lv_display.h ****  * @param th        pointer to a theme
 482:Lib/lvgl/src/widgets/arc/../../core/../display/lv_display.h ****  */
 483:Lib/lvgl/src/widgets/arc/../../core/../display/lv_display.h **** void lv_display_set_theme(lv_display_t * disp, lv_theme_t * th);
 484:Lib/lvgl/src/widgets/arc/../../core/../display/lv_display.h **** 
 485:Lib/lvgl/src/widgets/arc/../../core/../display/lv_display.h **** /**
 486:Lib/lvgl/src/widgets/arc/../../core/../display/lv_display.h ****  * Get the theme of a display
 487:Lib/lvgl/src/widgets/arc/../../core/../display/lv_display.h ****  * @param disp      pointer to a display
 488:Lib/lvgl/src/widgets/arc/../../core/../display/lv_display.h ****  * @return          the display's theme (can be NULL)
 489:Lib/lvgl/src/widgets/arc/../../core/../display/lv_display.h ****  */
 490:Lib/lvgl/src/widgets/arc/../../core/../display/lv_display.h **** lv_theme_t * lv_display_get_theme(lv_display_t * disp);
 491:Lib/lvgl/src/widgets/arc/../../core/../display/lv_display.h **** 
 492:Lib/lvgl/src/widgets/arc/../../core/../display/lv_display.h **** /**
 493:Lib/lvgl/src/widgets/arc/../../core/../display/lv_display.h ****  * Get elapsed time since last user activity on a display (e.g. click)
 494:Lib/lvgl/src/widgets/arc/../../core/../display/lv_display.h ****  * @param disp      pointer to a display (NULL to get the overall smallest inactivity)
 495:Lib/lvgl/src/widgets/arc/../../core/../display/lv_display.h ****  * @return          elapsed ticks (milliseconds) since the last activity
 496:Lib/lvgl/src/widgets/arc/../../core/../display/lv_display.h ****  */
 497:Lib/lvgl/src/widgets/arc/../../core/../display/lv_display.h **** uint32_t lv_display_get_inactive_time(const lv_display_t * disp);
 498:Lib/lvgl/src/widgets/arc/../../core/../display/lv_display.h **** 
 499:Lib/lvgl/src/widgets/arc/../../core/../display/lv_display.h **** /**
 500:Lib/lvgl/src/widgets/arc/../../core/../display/lv_display.h ****  * Manually trigger an activity on a display
 501:Lib/lvgl/src/widgets/arc/../../core/../display/lv_display.h ****  * @param disp      pointer to a display (NULL to use the default display)
 502:Lib/lvgl/src/widgets/arc/../../core/../display/lv_display.h ****  */
 503:Lib/lvgl/src/widgets/arc/../../core/../display/lv_display.h **** void lv_display_trigger_activity(lv_display_t * disp);
 504:Lib/lvgl/src/widgets/arc/../../core/../display/lv_display.h **** 
 505:Lib/lvgl/src/widgets/arc/../../core/../display/lv_display.h **** /**
 506:Lib/lvgl/src/widgets/arc/../../core/../display/lv_display.h ****  * Temporarily enable and disable the invalidation of the display.
 507:Lib/lvgl/src/widgets/arc/../../core/../display/lv_display.h ****  * @param disp      pointer to a display (NULL to use the default display)
 508:Lib/lvgl/src/widgets/arc/../../core/../display/lv_display.h ****  * @param en        true: enable invalidation; false: invalidation
 509:Lib/lvgl/src/widgets/arc/../../core/../display/lv_display.h ****  */
 510:Lib/lvgl/src/widgets/arc/../../core/../display/lv_display.h **** void lv_display_enable_invalidation(lv_display_t * disp, bool en);
 511:Lib/lvgl/src/widgets/arc/../../core/../display/lv_display.h **** 
 512:Lib/lvgl/src/widgets/arc/../../core/../display/lv_display.h **** /**
 513:Lib/lvgl/src/widgets/arc/../../core/../display/lv_display.h ****  * Get display invalidation is enabled.
 514:Lib/lvgl/src/widgets/arc/../../core/../display/lv_display.h ****  * @param disp      pointer to a display (NULL to use the default display)
 515:Lib/lvgl/src/widgets/arc/../../core/../display/lv_display.h ****  * @return return   true if invalidation is enabled
 516:Lib/lvgl/src/widgets/arc/../../core/../display/lv_display.h ****  */
 517:Lib/lvgl/src/widgets/arc/../../core/../display/lv_display.h **** bool lv_display_is_invalidation_enabled(lv_display_t * disp);
 518:Lib/lvgl/src/widgets/arc/../../core/../display/lv_display.h **** 
 519:Lib/lvgl/src/widgets/arc/../../core/../display/lv_display.h **** /**
 520:Lib/lvgl/src/widgets/arc/../../core/../display/lv_display.h ****  * Get a pointer to the screen refresher timer to
 521:Lib/lvgl/src/widgets/arc/../../core/../display/lv_display.h ****  * modify its parameters with `lv_timer_...` functions.
 522:Lib/lvgl/src/widgets/arc/../../core/../display/lv_display.h ****  * @param disp      pointer to a display
 523:Lib/lvgl/src/widgets/arc/../../core/../display/lv_display.h ****  * @return          pointer to the display refresher timer. (NULL on error)
 524:Lib/lvgl/src/widgets/arc/../../core/../display/lv_display.h ****  */
 525:Lib/lvgl/src/widgets/arc/../../core/../display/lv_display.h **** lv_timer_t * lv_display_get_refr_timer(lv_display_t * disp);
 526:Lib/lvgl/src/widgets/arc/../../core/../display/lv_display.h **** 
 527:Lib/lvgl/src/widgets/arc/../../core/../display/lv_display.h **** /**
ARM GAS  C:\Users\Alex\AppData\Local\Temp\cczgZ6vp.s 			page 38


 528:Lib/lvgl/src/widgets/arc/../../core/../display/lv_display.h ****  * Delete screen refresher timer
 529:Lib/lvgl/src/widgets/arc/../../core/../display/lv_display.h ****  * @param disp      pointer to a display
 530:Lib/lvgl/src/widgets/arc/../../core/../display/lv_display.h ****  */
 531:Lib/lvgl/src/widgets/arc/../../core/../display/lv_display.h **** void lv_display_delete_refr_timer(lv_display_t * disp);
 532:Lib/lvgl/src/widgets/arc/../../core/../display/lv_display.h **** 
 533:Lib/lvgl/src/widgets/arc/../../core/../display/lv_display.h **** void lv_display_set_user_data(lv_display_t * disp, void * user_data);
 534:Lib/lvgl/src/widgets/arc/../../core/../display/lv_display.h **** void lv_display_set_driver_data(lv_display_t * disp, void * driver_data);
 535:Lib/lvgl/src/widgets/arc/../../core/../display/lv_display.h **** void * lv_display_get_user_data(lv_display_t * disp);
 536:Lib/lvgl/src/widgets/arc/../../core/../display/lv_display.h **** void * lv_display_get_driver_data(lv_display_t * disp);
 537:Lib/lvgl/src/widgets/arc/../../core/../display/lv_display.h **** 
 538:Lib/lvgl/src/widgets/arc/../../core/../display/lv_display.h **** /**********************
 539:Lib/lvgl/src/widgets/arc/../../core/../display/lv_display.h ****  *      MACROS
 540:Lib/lvgl/src/widgets/arc/../../core/../display/lv_display.h ****  **********************/
 541:Lib/lvgl/src/widgets/arc/../../core/../display/lv_display.h **** 
 542:Lib/lvgl/src/widgets/arc/../../core/../display/lv_display.h **** /*------------------------------------------------
 543:Lib/lvgl/src/widgets/arc/../../core/../display/lv_display.h ****  * To improve backward compatibility
 544:Lib/lvgl/src/widgets/arc/../../core/../display/lv_display.h ****  * Recommended only if you have one display
 545:Lib/lvgl/src/widgets/arc/../../core/../display/lv_display.h ****  *------------------------------------------------*/
 546:Lib/lvgl/src/widgets/arc/../../core/../display/lv_display.h **** 
 547:Lib/lvgl/src/widgets/arc/../../core/../display/lv_display.h **** #ifndef LV_HOR_RES
 548:Lib/lvgl/src/widgets/arc/../../core/../display/lv_display.h **** /**
 549:Lib/lvgl/src/widgets/arc/../../core/../display/lv_display.h ****  * The horizontal resolution of the currently active display.
 550:Lib/lvgl/src/widgets/arc/../../core/../display/lv_display.h ****  */
 551:Lib/lvgl/src/widgets/arc/../../core/../display/lv_display.h **** #define LV_HOR_RES lv_display_get_horizontal_resolution(lv_display_get_default())
 552:Lib/lvgl/src/widgets/arc/../../core/../display/lv_display.h **** #endif
 553:Lib/lvgl/src/widgets/arc/../../core/../display/lv_display.h **** 
 554:Lib/lvgl/src/widgets/arc/../../core/../display/lv_display.h **** #ifndef LV_VER_RES
 555:Lib/lvgl/src/widgets/arc/../../core/../display/lv_display.h **** /**
 556:Lib/lvgl/src/widgets/arc/../../core/../display/lv_display.h ****  * The vertical resolution of the currently active display.
 557:Lib/lvgl/src/widgets/arc/../../core/../display/lv_display.h ****  */
 558:Lib/lvgl/src/widgets/arc/../../core/../display/lv_display.h **** #define LV_VER_RES lv_display_get_vertical_resolution(lv_display_get_default())
 559:Lib/lvgl/src/widgets/arc/../../core/../display/lv_display.h **** #endif
 560:Lib/lvgl/src/widgets/arc/../../core/../display/lv_display.h **** 
 561:Lib/lvgl/src/widgets/arc/../../core/../display/lv_display.h **** /**
 562:Lib/lvgl/src/widgets/arc/../../core/../display/lv_display.h ****  * Same as Android's DIP. (Different name is chosen to avoid mistype between LV_DPI and LV_DIP)
 563:Lib/lvgl/src/widgets/arc/../../core/../display/lv_display.h ****  * 1 dip is 1 px on a 160 DPI screen
 564:Lib/lvgl/src/widgets/arc/../../core/../display/lv_display.h ****  * 1 dip is 2 px on a 320 DPI screen
 565:Lib/lvgl/src/widgets/arc/../../core/../display/lv_display.h ****  * https://stackoverflow.com/questions/2025282/what-is-the-difference-between-px-dip-dp-and-sp
 566:Lib/lvgl/src/widgets/arc/../../core/../display/lv_display.h ****  */
 567:Lib/lvgl/src/widgets/arc/../../core/../display/lv_display.h **** #define _LV_DPX_CALC(dpi, n)   ((n) == 0 ? 0 :LV_MAX((( (dpi) * (n) + 80) / 160), 1)) /*+80 for rou
 568:Lib/lvgl/src/widgets/arc/../../core/../display/lv_display.h **** #define LV_DPX(n)   _LV_DPX_CALC(lv_display_get_dpi(NULL), n)
 569:Lib/lvgl/src/widgets/arc/../../core/../display/lv_display.h **** 
 570:Lib/lvgl/src/widgets/arc/../../core/../display/lv_display.h **** /**
 571:Lib/lvgl/src/widgets/arc/../../core/../display/lv_display.h ****  * Scale the given number of pixels (a distance or size) relative to a 160 DPI display
 572:Lib/lvgl/src/widgets/arc/../../core/../display/lv_display.h ****  * considering the DPI of the default display.
 573:Lib/lvgl/src/widgets/arc/../../core/../display/lv_display.h ****  * It ensures that e.g. `lv_dpx(100)` will have the same physical size regardless to the
 574:Lib/lvgl/src/widgets/arc/../../core/../display/lv_display.h ****  * DPI of the display.
 575:Lib/lvgl/src/widgets/arc/../../core/../display/lv_display.h ****  * @param n     the number of pixels to scale
 576:Lib/lvgl/src/widgets/arc/../../core/../display/lv_display.h ****  * @return      `n x current_dpi/160`
 577:Lib/lvgl/src/widgets/arc/../../core/../display/lv_display.h ****  */
 578:Lib/lvgl/src/widgets/arc/../../core/../display/lv_display.h **** static inline int32_t lv_dpx(int32_t n)
 579:Lib/lvgl/src/widgets/arc/../../core/../display/lv_display.h **** {
 477              		.loc 2 579 1 is_stmt 1 view -0
 478              		.cfi_startproc
 479              		@ args = 0, pretend = 0, frame = 0
 480              		@ frame_needed = 0, uses_anonymous_args = 0
 481              		.loc 2 579 1 is_stmt 0 view .LVU164
ARM GAS  C:\Users\Alex\AppData\Local\Temp\cczgZ6vp.s 			page 39


 482 0000 10B5     		push	{r4, lr}
 483              	.LCFI6:
 484              		.cfi_def_cfa_offset 8
 485              		.cfi_offset 4, -8
 486              		.cfi_offset 14, -4
 580:Lib/lvgl/src/widgets/arc/../../core/../display/lv_display.h ****     return LV_DPX(n);
 487              		.loc 2 580 5 is_stmt 1 view .LVU165
 488              		.loc 2 580 12 is_stmt 0 view .LVU166
 489 0002 0446     		mov	r4, r0
 490 0004 08B9     		cbnz	r0, .L40
 491              	.LVL51:
 492              	.L37:
 581:Lib/lvgl/src/widgets/arc/../../core/../display/lv_display.h **** }
 493              		.loc 2 581 1 discriminator 8 view .LVU167
 494 0006 2046     		mov	r0, r4
 495 0008 10BD     		pop	{r4, pc}
 496              	.LVL52:
 497              	.L40:
 580:Lib/lvgl/src/widgets/arc/../../core/../display/lv_display.h ****     return LV_DPX(n);
 498              		.loc 2 580 12 discriminator 1 view .LVU168
 499 000a 0020     		movs	r0, #0
 500              	.LVL53:
 580:Lib/lvgl/src/widgets/arc/../../core/../display/lv_display.h ****     return LV_DPX(n);
 501              		.loc 2 580 12 discriminator 1 view .LVU169
 502 000c FFF7FEFF 		bl	lv_display_get_dpi
 503              	.LVL54:
 504 0010 04FB00F0 		mul	r0, r4, r0
 505 0014 EF28     		cmp	r0, #239
 506 0016 01DC     		bgt	.L41
 580:Lib/lvgl/src/widgets/arc/../../core/../display/lv_display.h ****     return LV_DPX(n);
 507              		.loc 2 580 12 view .LVU170
 508 0018 0124     		movs	r4, #1
 509              	.LVL55:
 580:Lib/lvgl/src/widgets/arc/../../core/../display/lv_display.h ****     return LV_DPX(n);
 510              		.loc 2 580 12 view .LVU171
 511 001a F4E7     		b	.L37
 512              	.LVL56:
 513              	.L41:
 580:Lib/lvgl/src/widgets/arc/../../core/../display/lv_display.h ****     return LV_DPX(n);
 514              		.loc 2 580 12 discriminator 3 view .LVU172
 515 001c 0020     		movs	r0, #0
 516 001e FFF7FEFF 		bl	lv_display_get_dpi
 517              	.LVL57:
 518 0022 04FB00F0 		mul	r0, r4, r0
 519 0026 5030     		adds	r0, r0, #80
 520 0028 034C     		ldr	r4, .L42
 521              	.LVL58:
 580:Lib/lvgl/src/widgets/arc/../../core/../display/lv_display.h ****     return LV_DPX(n);
 522              		.loc 2 580 12 discriminator 3 view .LVU173
 523 002a 84FB0034 		smull	r3, r4, r4, r0
 524 002e C017     		asrs	r0, r0, #31
 525 0030 C0EBA414 		rsb	r4, r0, r4, asr #6
 526 0034 E7E7     		b	.L37
 527              	.L43:
 528 0036 00BF     		.align	2
 529              	.L42:
 530 0038 67666666 		.word	1717986919
ARM GAS  C:\Users\Alex\AppData\Local\Temp\cczgZ6vp.s 			page 40


 531              		.cfi_endproc
 532              	.LFE93:
 534              		.section	.text.get_center,"ax",%progbits
 535              		.align	1
 536              		.syntax unified
 537              		.thumb
 538              		.thumb_func
 540              	get_center:
 541              	.LVL59:
 542              	.LFB263:
 774:Lib/lvgl/src/widgets/arc/lv_arc.c ****     int32_t left_bg = lv_obj_get_style_pad_left(obj, LV_PART_MAIN);
 543              		.loc 1 774 1 is_stmt 1 view -0
 544              		.cfi_startproc
 545              		@ args = 0, pretend = 0, frame = 8
 546              		@ frame_needed = 0, uses_anonymous_args = 0
 774:Lib/lvgl/src/widgets/arc/lv_arc.c ****     int32_t left_bg = lv_obj_get_style_pad_left(obj, LV_PART_MAIN);
 547              		.loc 1 774 1 is_stmt 0 view .LVU175
 548 0000 2DE9F04F 		push	{r4, r5, r6, r7, r8, r9, r10, fp, lr}
 549              	.LCFI7:
 550              		.cfi_def_cfa_offset 36
 551              		.cfi_offset 4, -36
 552              		.cfi_offset 5, -32
 553              		.cfi_offset 6, -28
 554              		.cfi_offset 7, -24
 555              		.cfi_offset 8, -20
 556              		.cfi_offset 9, -16
 557              		.cfi_offset 10, -12
 558              		.cfi_offset 11, -8
 559              		.cfi_offset 14, -4
 560 0004 83B0     		sub	sp, sp, #12
 561              	.LCFI8:
 562              		.cfi_def_cfa_offset 48
 563 0006 0446     		mov	r4, r0
 564 0008 0F46     		mov	r7, r1
 565 000a 9046     		mov	r8, r2
 775:Lib/lvgl/src/widgets/arc/lv_arc.c ****     int32_t right_bg = lv_obj_get_style_pad_right(obj, LV_PART_MAIN);
 566              		.loc 1 775 5 is_stmt 1 view .LVU176
 567              	.LVL60:
 568              	.LBB84:
 569              	.LBI84:
 570              		.file 3 "Lib/lvgl/src/widgets/arc/../../core/lv_obj_style_gen.h"
   1:Lib/lvgl/src/widgets/arc/../../core/lv_obj_style_gen.h **** 
   2:Lib/lvgl/src/widgets/arc/../../core/lv_obj_style_gen.h **** /*
   3:Lib/lvgl/src/widgets/arc/../../core/lv_obj_style_gen.h ****  **********************************************************************
   4:Lib/lvgl/src/widgets/arc/../../core/lv_obj_style_gen.h ****  *                            DO NOT EDIT
   5:Lib/lvgl/src/widgets/arc/../../core/lv_obj_style_gen.h ****  * This file is automatically generated by "style_api_gen.py"
   6:Lib/lvgl/src/widgets/arc/../../core/lv_obj_style_gen.h ****  **********************************************************************
   7:Lib/lvgl/src/widgets/arc/../../core/lv_obj_style_gen.h ****  */
   8:Lib/lvgl/src/widgets/arc/../../core/lv_obj_style_gen.h **** 
   9:Lib/lvgl/src/widgets/arc/../../core/lv_obj_style_gen.h **** #ifndef LV_OBJ_STYLE_GEN_H
  10:Lib/lvgl/src/widgets/arc/../../core/lv_obj_style_gen.h **** #define LV_OBJ_STYLE_GEN_H
  11:Lib/lvgl/src/widgets/arc/../../core/lv_obj_style_gen.h **** 
  12:Lib/lvgl/src/widgets/arc/../../core/lv_obj_style_gen.h **** #include "../misc/lv_area.h"
  13:Lib/lvgl/src/widgets/arc/../../core/lv_obj_style_gen.h **** #include "../misc/lv_style.h"
  14:Lib/lvgl/src/widgets/arc/../../core/lv_obj_style_gen.h **** #include "../core/lv_obj_style.h"
  15:Lib/lvgl/src/widgets/arc/../../core/lv_obj_style_gen.h **** 
  16:Lib/lvgl/src/widgets/arc/../../core/lv_obj_style_gen.h **** static inline int32_t lv_obj_get_style_width(const lv_obj_t * obj, uint32_t part)
ARM GAS  C:\Users\Alex\AppData\Local\Temp\cczgZ6vp.s 			page 41


  17:Lib/lvgl/src/widgets/arc/../../core/lv_obj_style_gen.h **** {
  18:Lib/lvgl/src/widgets/arc/../../core/lv_obj_style_gen.h ****     lv_style_value_t v = lv_obj_get_style_prop(obj, part, LV_STYLE_WIDTH);
  19:Lib/lvgl/src/widgets/arc/../../core/lv_obj_style_gen.h ****     return (int32_t)v.num;
  20:Lib/lvgl/src/widgets/arc/../../core/lv_obj_style_gen.h **** }
  21:Lib/lvgl/src/widgets/arc/../../core/lv_obj_style_gen.h **** 
  22:Lib/lvgl/src/widgets/arc/../../core/lv_obj_style_gen.h **** static inline int32_t lv_obj_get_style_min_width(const lv_obj_t * obj, uint32_t part)
  23:Lib/lvgl/src/widgets/arc/../../core/lv_obj_style_gen.h **** {
  24:Lib/lvgl/src/widgets/arc/../../core/lv_obj_style_gen.h ****     lv_style_value_t v = lv_obj_get_style_prop(obj, part, LV_STYLE_MIN_WIDTH);
  25:Lib/lvgl/src/widgets/arc/../../core/lv_obj_style_gen.h ****     return (int32_t)v.num;
  26:Lib/lvgl/src/widgets/arc/../../core/lv_obj_style_gen.h **** }
  27:Lib/lvgl/src/widgets/arc/../../core/lv_obj_style_gen.h **** 
  28:Lib/lvgl/src/widgets/arc/../../core/lv_obj_style_gen.h **** static inline int32_t lv_obj_get_style_max_width(const lv_obj_t * obj, uint32_t part)
  29:Lib/lvgl/src/widgets/arc/../../core/lv_obj_style_gen.h **** {
  30:Lib/lvgl/src/widgets/arc/../../core/lv_obj_style_gen.h ****     lv_style_value_t v = lv_obj_get_style_prop(obj, part, LV_STYLE_MAX_WIDTH);
  31:Lib/lvgl/src/widgets/arc/../../core/lv_obj_style_gen.h ****     return (int32_t)v.num;
  32:Lib/lvgl/src/widgets/arc/../../core/lv_obj_style_gen.h **** }
  33:Lib/lvgl/src/widgets/arc/../../core/lv_obj_style_gen.h **** 
  34:Lib/lvgl/src/widgets/arc/../../core/lv_obj_style_gen.h **** static inline int32_t lv_obj_get_style_height(const lv_obj_t * obj, uint32_t part)
  35:Lib/lvgl/src/widgets/arc/../../core/lv_obj_style_gen.h **** {
  36:Lib/lvgl/src/widgets/arc/../../core/lv_obj_style_gen.h ****     lv_style_value_t v = lv_obj_get_style_prop(obj, part, LV_STYLE_HEIGHT);
  37:Lib/lvgl/src/widgets/arc/../../core/lv_obj_style_gen.h ****     return (int32_t)v.num;
  38:Lib/lvgl/src/widgets/arc/../../core/lv_obj_style_gen.h **** }
  39:Lib/lvgl/src/widgets/arc/../../core/lv_obj_style_gen.h **** 
  40:Lib/lvgl/src/widgets/arc/../../core/lv_obj_style_gen.h **** static inline int32_t lv_obj_get_style_min_height(const lv_obj_t * obj, uint32_t part)
  41:Lib/lvgl/src/widgets/arc/../../core/lv_obj_style_gen.h **** {
  42:Lib/lvgl/src/widgets/arc/../../core/lv_obj_style_gen.h ****     lv_style_value_t v = lv_obj_get_style_prop(obj, part, LV_STYLE_MIN_HEIGHT);
  43:Lib/lvgl/src/widgets/arc/../../core/lv_obj_style_gen.h ****     return (int32_t)v.num;
  44:Lib/lvgl/src/widgets/arc/../../core/lv_obj_style_gen.h **** }
  45:Lib/lvgl/src/widgets/arc/../../core/lv_obj_style_gen.h **** 
  46:Lib/lvgl/src/widgets/arc/../../core/lv_obj_style_gen.h **** static inline int32_t lv_obj_get_style_max_height(const lv_obj_t * obj, uint32_t part)
  47:Lib/lvgl/src/widgets/arc/../../core/lv_obj_style_gen.h **** {
  48:Lib/lvgl/src/widgets/arc/../../core/lv_obj_style_gen.h ****     lv_style_value_t v = lv_obj_get_style_prop(obj, part, LV_STYLE_MAX_HEIGHT);
  49:Lib/lvgl/src/widgets/arc/../../core/lv_obj_style_gen.h ****     return (int32_t)v.num;
  50:Lib/lvgl/src/widgets/arc/../../core/lv_obj_style_gen.h **** }
  51:Lib/lvgl/src/widgets/arc/../../core/lv_obj_style_gen.h **** 
  52:Lib/lvgl/src/widgets/arc/../../core/lv_obj_style_gen.h **** static inline int32_t lv_obj_get_style_length(const lv_obj_t * obj, uint32_t part)
  53:Lib/lvgl/src/widgets/arc/../../core/lv_obj_style_gen.h **** {
  54:Lib/lvgl/src/widgets/arc/../../core/lv_obj_style_gen.h ****     lv_style_value_t v = lv_obj_get_style_prop(obj, part, LV_STYLE_LENGTH);
  55:Lib/lvgl/src/widgets/arc/../../core/lv_obj_style_gen.h ****     return (int32_t)v.num;
  56:Lib/lvgl/src/widgets/arc/../../core/lv_obj_style_gen.h **** }
  57:Lib/lvgl/src/widgets/arc/../../core/lv_obj_style_gen.h **** 
  58:Lib/lvgl/src/widgets/arc/../../core/lv_obj_style_gen.h **** static inline int32_t lv_obj_get_style_x(const lv_obj_t * obj, uint32_t part)
  59:Lib/lvgl/src/widgets/arc/../../core/lv_obj_style_gen.h **** {
  60:Lib/lvgl/src/widgets/arc/../../core/lv_obj_style_gen.h ****     lv_style_value_t v = lv_obj_get_style_prop(obj, part, LV_STYLE_X);
  61:Lib/lvgl/src/widgets/arc/../../core/lv_obj_style_gen.h ****     return (int32_t)v.num;
  62:Lib/lvgl/src/widgets/arc/../../core/lv_obj_style_gen.h **** }
  63:Lib/lvgl/src/widgets/arc/../../core/lv_obj_style_gen.h **** 
  64:Lib/lvgl/src/widgets/arc/../../core/lv_obj_style_gen.h **** static inline int32_t lv_obj_get_style_y(const lv_obj_t * obj, uint32_t part)
  65:Lib/lvgl/src/widgets/arc/../../core/lv_obj_style_gen.h **** {
  66:Lib/lvgl/src/widgets/arc/../../core/lv_obj_style_gen.h ****     lv_style_value_t v = lv_obj_get_style_prop(obj, part, LV_STYLE_Y);
  67:Lib/lvgl/src/widgets/arc/../../core/lv_obj_style_gen.h ****     return (int32_t)v.num;
  68:Lib/lvgl/src/widgets/arc/../../core/lv_obj_style_gen.h **** }
  69:Lib/lvgl/src/widgets/arc/../../core/lv_obj_style_gen.h **** 
  70:Lib/lvgl/src/widgets/arc/../../core/lv_obj_style_gen.h **** static inline lv_align_t lv_obj_get_style_align(const lv_obj_t * obj, uint32_t part)
  71:Lib/lvgl/src/widgets/arc/../../core/lv_obj_style_gen.h **** {
  72:Lib/lvgl/src/widgets/arc/../../core/lv_obj_style_gen.h ****     lv_style_value_t v = lv_obj_get_style_prop(obj, part, LV_STYLE_ALIGN);
  73:Lib/lvgl/src/widgets/arc/../../core/lv_obj_style_gen.h ****     return (lv_align_t)v.num;
ARM GAS  C:\Users\Alex\AppData\Local\Temp\cczgZ6vp.s 			page 42


  74:Lib/lvgl/src/widgets/arc/../../core/lv_obj_style_gen.h **** }
  75:Lib/lvgl/src/widgets/arc/../../core/lv_obj_style_gen.h **** 
  76:Lib/lvgl/src/widgets/arc/../../core/lv_obj_style_gen.h **** static inline int32_t lv_obj_get_style_transform_width(const lv_obj_t * obj, uint32_t part)
  77:Lib/lvgl/src/widgets/arc/../../core/lv_obj_style_gen.h **** {
  78:Lib/lvgl/src/widgets/arc/../../core/lv_obj_style_gen.h ****     lv_style_value_t v = lv_obj_get_style_prop(obj, part, LV_STYLE_TRANSFORM_WIDTH);
  79:Lib/lvgl/src/widgets/arc/../../core/lv_obj_style_gen.h ****     return (int32_t)v.num;
  80:Lib/lvgl/src/widgets/arc/../../core/lv_obj_style_gen.h **** }
  81:Lib/lvgl/src/widgets/arc/../../core/lv_obj_style_gen.h **** 
  82:Lib/lvgl/src/widgets/arc/../../core/lv_obj_style_gen.h **** static inline int32_t lv_obj_get_style_transform_height(const lv_obj_t * obj, uint32_t part)
  83:Lib/lvgl/src/widgets/arc/../../core/lv_obj_style_gen.h **** {
  84:Lib/lvgl/src/widgets/arc/../../core/lv_obj_style_gen.h ****     lv_style_value_t v = lv_obj_get_style_prop(obj, part, LV_STYLE_TRANSFORM_HEIGHT);
  85:Lib/lvgl/src/widgets/arc/../../core/lv_obj_style_gen.h ****     return (int32_t)v.num;
  86:Lib/lvgl/src/widgets/arc/../../core/lv_obj_style_gen.h **** }
  87:Lib/lvgl/src/widgets/arc/../../core/lv_obj_style_gen.h **** 
  88:Lib/lvgl/src/widgets/arc/../../core/lv_obj_style_gen.h **** static inline int32_t lv_obj_get_style_translate_x(const lv_obj_t * obj, uint32_t part)
  89:Lib/lvgl/src/widgets/arc/../../core/lv_obj_style_gen.h **** {
  90:Lib/lvgl/src/widgets/arc/../../core/lv_obj_style_gen.h ****     lv_style_value_t v = lv_obj_get_style_prop(obj, part, LV_STYLE_TRANSLATE_X);
  91:Lib/lvgl/src/widgets/arc/../../core/lv_obj_style_gen.h ****     return (int32_t)v.num;
  92:Lib/lvgl/src/widgets/arc/../../core/lv_obj_style_gen.h **** }
  93:Lib/lvgl/src/widgets/arc/../../core/lv_obj_style_gen.h **** 
  94:Lib/lvgl/src/widgets/arc/../../core/lv_obj_style_gen.h **** static inline int32_t lv_obj_get_style_translate_y(const lv_obj_t * obj, uint32_t part)
  95:Lib/lvgl/src/widgets/arc/../../core/lv_obj_style_gen.h **** {
  96:Lib/lvgl/src/widgets/arc/../../core/lv_obj_style_gen.h ****     lv_style_value_t v = lv_obj_get_style_prop(obj, part, LV_STYLE_TRANSLATE_Y);
  97:Lib/lvgl/src/widgets/arc/../../core/lv_obj_style_gen.h ****     return (int32_t)v.num;
  98:Lib/lvgl/src/widgets/arc/../../core/lv_obj_style_gen.h **** }
  99:Lib/lvgl/src/widgets/arc/../../core/lv_obj_style_gen.h **** 
 100:Lib/lvgl/src/widgets/arc/../../core/lv_obj_style_gen.h **** static inline int32_t lv_obj_get_style_transform_scale_x(const lv_obj_t * obj, uint32_t part)
 101:Lib/lvgl/src/widgets/arc/../../core/lv_obj_style_gen.h **** {
 102:Lib/lvgl/src/widgets/arc/../../core/lv_obj_style_gen.h ****     lv_style_value_t v = lv_obj_get_style_prop(obj, part, LV_STYLE_TRANSFORM_SCALE_X);
 103:Lib/lvgl/src/widgets/arc/../../core/lv_obj_style_gen.h ****     return (int32_t)v.num;
 104:Lib/lvgl/src/widgets/arc/../../core/lv_obj_style_gen.h **** }
 105:Lib/lvgl/src/widgets/arc/../../core/lv_obj_style_gen.h **** 
 106:Lib/lvgl/src/widgets/arc/../../core/lv_obj_style_gen.h **** static inline int32_t lv_obj_get_style_transform_scale_y(const lv_obj_t * obj, uint32_t part)
 107:Lib/lvgl/src/widgets/arc/../../core/lv_obj_style_gen.h **** {
 108:Lib/lvgl/src/widgets/arc/../../core/lv_obj_style_gen.h ****     lv_style_value_t v = lv_obj_get_style_prop(obj, part, LV_STYLE_TRANSFORM_SCALE_Y);
 109:Lib/lvgl/src/widgets/arc/../../core/lv_obj_style_gen.h ****     return (int32_t)v.num;
 110:Lib/lvgl/src/widgets/arc/../../core/lv_obj_style_gen.h **** }
 111:Lib/lvgl/src/widgets/arc/../../core/lv_obj_style_gen.h **** 
 112:Lib/lvgl/src/widgets/arc/../../core/lv_obj_style_gen.h **** static inline int32_t lv_obj_get_style_transform_rotation(const lv_obj_t * obj, uint32_t part)
 113:Lib/lvgl/src/widgets/arc/../../core/lv_obj_style_gen.h **** {
 114:Lib/lvgl/src/widgets/arc/../../core/lv_obj_style_gen.h ****     lv_style_value_t v = lv_obj_get_style_prop(obj, part, LV_STYLE_TRANSFORM_ROTATION);
 115:Lib/lvgl/src/widgets/arc/../../core/lv_obj_style_gen.h ****     return (int32_t)v.num;
 116:Lib/lvgl/src/widgets/arc/../../core/lv_obj_style_gen.h **** }
 117:Lib/lvgl/src/widgets/arc/../../core/lv_obj_style_gen.h **** 
 118:Lib/lvgl/src/widgets/arc/../../core/lv_obj_style_gen.h **** static inline int32_t lv_obj_get_style_transform_pivot_x(const lv_obj_t * obj, uint32_t part)
 119:Lib/lvgl/src/widgets/arc/../../core/lv_obj_style_gen.h **** {
 120:Lib/lvgl/src/widgets/arc/../../core/lv_obj_style_gen.h ****     lv_style_value_t v = lv_obj_get_style_prop(obj, part, LV_STYLE_TRANSFORM_PIVOT_X);
 121:Lib/lvgl/src/widgets/arc/../../core/lv_obj_style_gen.h ****     return (int32_t)v.num;
 122:Lib/lvgl/src/widgets/arc/../../core/lv_obj_style_gen.h **** }
 123:Lib/lvgl/src/widgets/arc/../../core/lv_obj_style_gen.h **** 
 124:Lib/lvgl/src/widgets/arc/../../core/lv_obj_style_gen.h **** static inline int32_t lv_obj_get_style_transform_pivot_y(const lv_obj_t * obj, uint32_t part)
 125:Lib/lvgl/src/widgets/arc/../../core/lv_obj_style_gen.h **** {
 126:Lib/lvgl/src/widgets/arc/../../core/lv_obj_style_gen.h ****     lv_style_value_t v = lv_obj_get_style_prop(obj, part, LV_STYLE_TRANSFORM_PIVOT_Y);
 127:Lib/lvgl/src/widgets/arc/../../core/lv_obj_style_gen.h ****     return (int32_t)v.num;
 128:Lib/lvgl/src/widgets/arc/../../core/lv_obj_style_gen.h **** }
 129:Lib/lvgl/src/widgets/arc/../../core/lv_obj_style_gen.h **** 
 130:Lib/lvgl/src/widgets/arc/../../core/lv_obj_style_gen.h **** static inline int32_t lv_obj_get_style_transform_skew_x(const lv_obj_t * obj, uint32_t part)
ARM GAS  C:\Users\Alex\AppData\Local\Temp\cczgZ6vp.s 			page 43


 131:Lib/lvgl/src/widgets/arc/../../core/lv_obj_style_gen.h **** {
 132:Lib/lvgl/src/widgets/arc/../../core/lv_obj_style_gen.h ****     lv_style_value_t v = lv_obj_get_style_prop(obj, part, LV_STYLE_TRANSFORM_SKEW_X);
 133:Lib/lvgl/src/widgets/arc/../../core/lv_obj_style_gen.h ****     return (int32_t)v.num;
 134:Lib/lvgl/src/widgets/arc/../../core/lv_obj_style_gen.h **** }
 135:Lib/lvgl/src/widgets/arc/../../core/lv_obj_style_gen.h **** 
 136:Lib/lvgl/src/widgets/arc/../../core/lv_obj_style_gen.h **** static inline int32_t lv_obj_get_style_transform_skew_y(const lv_obj_t * obj, uint32_t part)
 137:Lib/lvgl/src/widgets/arc/../../core/lv_obj_style_gen.h **** {
 138:Lib/lvgl/src/widgets/arc/../../core/lv_obj_style_gen.h ****     lv_style_value_t v = lv_obj_get_style_prop(obj, part, LV_STYLE_TRANSFORM_SKEW_Y);
 139:Lib/lvgl/src/widgets/arc/../../core/lv_obj_style_gen.h ****     return (int32_t)v.num;
 140:Lib/lvgl/src/widgets/arc/../../core/lv_obj_style_gen.h **** }
 141:Lib/lvgl/src/widgets/arc/../../core/lv_obj_style_gen.h **** 
 142:Lib/lvgl/src/widgets/arc/../../core/lv_obj_style_gen.h **** static inline int32_t lv_obj_get_style_pad_top(const lv_obj_t * obj, uint32_t part)
 143:Lib/lvgl/src/widgets/arc/../../core/lv_obj_style_gen.h **** {
 144:Lib/lvgl/src/widgets/arc/../../core/lv_obj_style_gen.h ****     lv_style_value_t v = lv_obj_get_style_prop(obj, part, LV_STYLE_PAD_TOP);
 145:Lib/lvgl/src/widgets/arc/../../core/lv_obj_style_gen.h ****     return (int32_t)v.num;
 146:Lib/lvgl/src/widgets/arc/../../core/lv_obj_style_gen.h **** }
 147:Lib/lvgl/src/widgets/arc/../../core/lv_obj_style_gen.h **** 
 148:Lib/lvgl/src/widgets/arc/../../core/lv_obj_style_gen.h **** static inline int32_t lv_obj_get_style_pad_bottom(const lv_obj_t * obj, uint32_t part)
 149:Lib/lvgl/src/widgets/arc/../../core/lv_obj_style_gen.h **** {
 150:Lib/lvgl/src/widgets/arc/../../core/lv_obj_style_gen.h ****     lv_style_value_t v = lv_obj_get_style_prop(obj, part, LV_STYLE_PAD_BOTTOM);
 151:Lib/lvgl/src/widgets/arc/../../core/lv_obj_style_gen.h ****     return (int32_t)v.num;
 152:Lib/lvgl/src/widgets/arc/../../core/lv_obj_style_gen.h **** }
 153:Lib/lvgl/src/widgets/arc/../../core/lv_obj_style_gen.h **** 
 154:Lib/lvgl/src/widgets/arc/../../core/lv_obj_style_gen.h **** static inline int32_t lv_obj_get_style_pad_left(const lv_obj_t * obj, uint32_t part)
 571              		.loc 3 154 23 view .LVU177
 572              	.LBB85:
 155:Lib/lvgl/src/widgets/arc/../../core/lv_obj_style_gen.h **** {
 156:Lib/lvgl/src/widgets/arc/../../core/lv_obj_style_gen.h ****     lv_style_value_t v = lv_obj_get_style_prop(obj, part, LV_STYLE_PAD_LEFT);
 573              		.loc 3 156 5 view .LVU178
 574              		.loc 3 156 26 is_stmt 0 view .LVU179
 575 000c 1222     		movs	r2, #18
 576              	.LVL61:
 577              		.loc 3 156 26 view .LVU180
 578 000e 0021     		movs	r1, #0
 579              	.LVL62:
 580              		.loc 3 156 26 view .LVU181
 581 0010 FFF7FEFF 		bl	lv_obj_get_style_prop
 582              	.LVL63:
 583              		.loc 3 156 26 view .LVU182
 584 0014 0646     		mov	r6, r0
 585 0016 0190     		str	r0, [sp, #4]
 157:Lib/lvgl/src/widgets/arc/../../core/lv_obj_style_gen.h ****     return (int32_t)v.num;
 586              		.loc 3 157 5 is_stmt 1 view .LVU183
 587              	.LVL64:
 588              		.loc 3 157 5 is_stmt 0 view .LVU184
 589              	.LBE85:
 590              	.LBE84:
 776:Lib/lvgl/src/widgets/arc/lv_arc.c ****     int32_t top_bg = lv_obj_get_style_pad_top(obj, LV_PART_MAIN);
 591              		.loc 1 776 5 is_stmt 1 view .LVU185
 592              	.LBB86:
 593              	.LBI86:
 158:Lib/lvgl/src/widgets/arc/../../core/lv_obj_style_gen.h **** }
 159:Lib/lvgl/src/widgets/arc/../../core/lv_obj_style_gen.h **** 
 160:Lib/lvgl/src/widgets/arc/../../core/lv_obj_style_gen.h **** static inline int32_t lv_obj_get_style_pad_right(const lv_obj_t * obj, uint32_t part)
 594              		.loc 3 160 23 view .LVU186
 595              	.LBB87:
 161:Lib/lvgl/src/widgets/arc/../../core/lv_obj_style_gen.h **** {
ARM GAS  C:\Users\Alex\AppData\Local\Temp\cczgZ6vp.s 			page 44


 162:Lib/lvgl/src/widgets/arc/../../core/lv_obj_style_gen.h ****     lv_style_value_t v = lv_obj_get_style_prop(obj, part, LV_STYLE_PAD_RIGHT);
 596              		.loc 3 162 5 view .LVU187
 597              		.loc 3 162 26 is_stmt 0 view .LVU188
 598 0018 1322     		movs	r2, #19
 599 001a 0021     		movs	r1, #0
 600 001c 2046     		mov	r0, r4
 601              	.LVL65:
 602              		.loc 3 162 26 view .LVU189
 603 001e FFF7FEFF 		bl	lv_obj_get_style_prop
 604              	.LVL66:
 605 0022 8246     		mov	r10, r0
 606 0024 0190     		str	r0, [sp, #4]
 163:Lib/lvgl/src/widgets/arc/../../core/lv_obj_style_gen.h ****     return (int32_t)v.num;
 607              		.loc 3 163 5 is_stmt 1 view .LVU190
 608              	.LVL67:
 609              		.loc 3 163 5 is_stmt 0 view .LVU191
 610              	.LBE87:
 611              	.LBE86:
 777:Lib/lvgl/src/widgets/arc/lv_arc.c ****     int32_t bottom_bg = lv_obj_get_style_pad_bottom(obj, LV_PART_MAIN);
 612              		.loc 1 777 5 is_stmt 1 view .LVU192
 613              	.LBB88:
 614              	.LBI88:
 142:Lib/lvgl/src/widgets/arc/../../core/lv_obj_style_gen.h **** {
 615              		.loc 3 142 23 view .LVU193
 616              	.LBB89:
 144:Lib/lvgl/src/widgets/arc/../../core/lv_obj_style_gen.h ****     return (int32_t)v.num;
 617              		.loc 3 144 5 view .LVU194
 144:Lib/lvgl/src/widgets/arc/../../core/lv_obj_style_gen.h ****     return (int32_t)v.num;
 618              		.loc 3 144 26 is_stmt 0 view .LVU195
 619 0026 1022     		movs	r2, #16
 620 0028 0021     		movs	r1, #0
 621 002a 2046     		mov	r0, r4
 622              	.LVL68:
 144:Lib/lvgl/src/widgets/arc/../../core/lv_obj_style_gen.h ****     return (int32_t)v.num;
 623              		.loc 3 144 26 view .LVU196
 624 002c FFF7FEFF 		bl	lv_obj_get_style_prop
 625              	.LVL69:
 626 0030 0546     		mov	r5, r0
 627 0032 0190     		str	r0, [sp, #4]
 145:Lib/lvgl/src/widgets/arc/../../core/lv_obj_style_gen.h **** }
 628              		.loc 3 145 5 is_stmt 1 view .LVU197
 629              	.LVL70:
 145:Lib/lvgl/src/widgets/arc/../../core/lv_obj_style_gen.h **** }
 630              		.loc 3 145 5 is_stmt 0 view .LVU198
 631              	.LBE89:
 632              	.LBE88:
 778:Lib/lvgl/src/widgets/arc/lv_arc.c **** 
 633              		.loc 1 778 5 is_stmt 1 view .LVU199
 634              	.LBB90:
 635              	.LBI90:
 148:Lib/lvgl/src/widgets/arc/../../core/lv_obj_style_gen.h **** {
 636              		.loc 3 148 23 view .LVU200
 637              	.LBB91:
 150:Lib/lvgl/src/widgets/arc/../../core/lv_obj_style_gen.h ****     return (int32_t)v.num;
 638              		.loc 3 150 5 view .LVU201
 150:Lib/lvgl/src/widgets/arc/../../core/lv_obj_style_gen.h ****     return (int32_t)v.num;
 639              		.loc 3 150 26 is_stmt 0 view .LVU202
ARM GAS  C:\Users\Alex\AppData\Local\Temp\cczgZ6vp.s 			page 45


 640 0034 1122     		movs	r2, #17
 641 0036 0021     		movs	r1, #0
 642 0038 2046     		mov	r0, r4
 643              	.LVL71:
 150:Lib/lvgl/src/widgets/arc/../../core/lv_obj_style_gen.h ****     return (int32_t)v.num;
 644              		.loc 3 150 26 view .LVU203
 645 003a FFF7FEFF 		bl	lv_obj_get_style_prop
 646              	.LVL72:
 647 003e 8146     		mov	r9, r0
 648 0040 0190     		str	r0, [sp, #4]
 151:Lib/lvgl/src/widgets/arc/../../core/lv_obj_style_gen.h **** }
 649              		.loc 3 151 5 is_stmt 1 view .LVU204
 650              	.LVL73:
 151:Lib/lvgl/src/widgets/arc/../../core/lv_obj_style_gen.h **** }
 651              		.loc 3 151 5 is_stmt 0 view .LVU205
 652              	.LBE91:
 653              	.LBE90:
 780:Lib/lvgl/src/widgets/arc/lv_arc.c ****                         lv_obj_get_height(obj) - top_bg - bottom_bg)) / 2;
 654              		.loc 1 780 5 is_stmt 1 view .LVU206
 780:Lib/lvgl/src/widgets/arc/lv_arc.c ****                         lv_obj_get_height(obj) - top_bg - bottom_bg)) / 2;
 655              		.loc 1 780 18 is_stmt 0 view .LVU207
 656 0042 2046     		mov	r0, r4
 657              	.LVL74:
 780:Lib/lvgl/src/widgets/arc/lv_arc.c ****                         lv_obj_get_height(obj) - top_bg - bottom_bg)) / 2;
 658              		.loc 1 780 18 view .LVU208
 659 0044 FFF7FEFF 		bl	lv_obj_get_width
 660              	.LVL75:
 661 0048 A0EB060B 		sub	fp, r0, r6
 662 004c ABEB0A0B 		sub	fp, fp, r10
 663 0050 2046     		mov	r0, r4
 664 0052 FFF7FEFF 		bl	lv_obj_get_height
 665              	.LVL76:
 666 0056 401B     		subs	r0, r0, r5
 667 0058 A0EB0900 		sub	r0, r0, r9
 781:Lib/lvgl/src/widgets/arc/lv_arc.c **** 
 668              		.loc 1 781 71 view .LVU209
 669 005c 8345     		cmp	fp, r0
 670 005e 18DA     		bge	.L45
 780:Lib/lvgl/src/widgets/arc/lv_arc.c ****                         lv_obj_get_height(obj) - top_bg - bottom_bg)) / 2;
 671              		.loc 1 780 18 discriminator 1 view .LVU210
 672 0060 2046     		mov	r0, r4
 673 0062 FFF7FEFF 		bl	lv_obj_get_width
 674              	.LVL77:
 675 0066 831B     		subs	r3, r0, r6
 676 0068 A3EB0A03 		sub	r3, r3, r10
 781:Lib/lvgl/src/widgets/arc/lv_arc.c **** 
 677              		.loc 1 781 71 discriminator 1 view .LVU211
 678 006c 03EBD373 		add	r3, r3, r3, lsr #31
 679 0070 5B10     		asrs	r3, r3, #1
 680              	.L46:
 681              	.LVL78:
 783:Lib/lvgl/src/widgets/arc/lv_arc.c ****     center->y = obj->coords.y1 + r + top_bg;
 682              		.loc 1 783 5 is_stmt 1 view .LVU212
 783:Lib/lvgl/src/widgets/arc/lv_arc.c ****     center->y = obj->coords.y1 + r + top_bg;
 683              		.loc 1 783 28 is_stmt 0 view .LVU213
 684 0072 6269     		ldr	r2, [r4, #20]
 783:Lib/lvgl/src/widgets/arc/lv_arc.c ****     center->y = obj->coords.y1 + r + top_bg;
ARM GAS  C:\Users\Alex\AppData\Local\Temp\cczgZ6vp.s 			page 46


 685              		.loc 1 783 32 view .LVU214
 686 0074 1A44     		add	r2, r2, r3
 783:Lib/lvgl/src/widgets/arc/lv_arc.c ****     center->y = obj->coords.y1 + r + top_bg;
 687              		.loc 1 783 36 view .LVU215
 688 0076 3244     		add	r2, r2, r6
 783:Lib/lvgl/src/widgets/arc/lv_arc.c ****     center->y = obj->coords.y1 + r + top_bg;
 689              		.loc 1 783 15 view .LVU216
 690 0078 3A60     		str	r2, [r7]
 784:Lib/lvgl/src/widgets/arc/lv_arc.c **** 
 691              		.loc 1 784 5 is_stmt 1 view .LVU217
 784:Lib/lvgl/src/widgets/arc/lv_arc.c **** 
 692              		.loc 1 784 28 is_stmt 0 view .LVU218
 693 007a A269     		ldr	r2, [r4, #24]
 784:Lib/lvgl/src/widgets/arc/lv_arc.c **** 
 694              		.loc 1 784 32 view .LVU219
 695 007c 1A44     		add	r2, r2, r3
 784:Lib/lvgl/src/widgets/arc/lv_arc.c **** 
 696              		.loc 1 784 36 view .LVU220
 697 007e 2A44     		add	r2, r2, r5
 784:Lib/lvgl/src/widgets/arc/lv_arc.c **** 
 698              		.loc 1 784 15 view .LVU221
 699 0080 7A60     		str	r2, [r7, #4]
 786:Lib/lvgl/src/widgets/arc/lv_arc.c **** }
 700              		.loc 1 786 5 is_stmt 1 view .LVU222
 786:Lib/lvgl/src/widgets/arc/lv_arc.c **** }
 701              		.loc 1 786 7 is_stmt 0 view .LVU223
 702 0082 B8F1000F 		cmp	r8, #0
 703 0086 01D0     		beq	.L44
 786:Lib/lvgl/src/widgets/arc/lv_arc.c **** }
 704              		.loc 1 786 15 is_stmt 1 discriminator 1 view .LVU224
 786:Lib/lvgl/src/widgets/arc/lv_arc.c **** }
 705              		.loc 1 786 22 is_stmt 0 discriminator 1 view .LVU225
 706 0088 C8F80030 		str	r3, [r8]
 707              	.L44:
 787:Lib/lvgl/src/widgets/arc/lv_arc.c **** 
 708              		.loc 1 787 1 view .LVU226
 709 008c 03B0     		add	sp, sp, #12
 710              	.LCFI9:
 711              		.cfi_remember_state
 712              		.cfi_def_cfa_offset 36
 713              		@ sp needed
 714 008e BDE8F08F 		pop	{r4, r5, r6, r7, r8, r9, r10, fp, pc}
 715              	.LVL79:
 716              	.L45:
 717              	.LCFI10:
 718              		.cfi_restore_state
 780:Lib/lvgl/src/widgets/arc/lv_arc.c ****                         lv_obj_get_height(obj) - top_bg - bottom_bg)) / 2;
 719              		.loc 1 780 18 discriminator 2 view .LVU227
 720 0092 2046     		mov	r0, r4
 721 0094 FFF7FEFF 		bl	lv_obj_get_height
 722              	.LVL80:
 723 0098 431B     		subs	r3, r0, r5
 724 009a A3EB0903 		sub	r3, r3, r9
 781:Lib/lvgl/src/widgets/arc/lv_arc.c **** 
 725              		.loc 1 781 71 discriminator 2 view .LVU228
 726 009e 03EBD373 		add	r3, r3, r3, lsr #31
 727 00a2 5B10     		asrs	r3, r3, #1
ARM GAS  C:\Users\Alex\AppData\Local\Temp\cczgZ6vp.s 			page 47


 728 00a4 E5E7     		b	.L46
 729              		.cfi_endproc
 730              	.LFE263:
 732              		.section	.text.knob_get_extra_size,"ax",%progbits
 733              		.align	1
 734              		.syntax unified
 735              		.thumb
 736              		.thumb_func
 738              	knob_get_extra_size:
 739              	.LVL81:
 740              	.LFB267:
 886:Lib/lvgl/src/widgets/arc/lv_arc.c ****     int32_t knob_shadow_size = 0;
 741              		.loc 1 886 1 is_stmt 1 view -0
 742              		.cfi_startproc
 743              		@ args = 0, pretend = 0, frame = 8
 744              		@ frame_needed = 0, uses_anonymous_args = 0
 886:Lib/lvgl/src/widgets/arc/lv_arc.c ****     int32_t knob_shadow_size = 0;
 745              		.loc 1 886 1 is_stmt 0 view .LVU230
 746 0000 70B5     		push	{r4, r5, r6, lr}
 747              	.LCFI11:
 748              		.cfi_def_cfa_offset 16
 749              		.cfi_offset 4, -16
 750              		.cfi_offset 5, -12
 751              		.cfi_offset 6, -8
 752              		.cfi_offset 14, -4
 753 0002 82B0     		sub	sp, sp, #8
 754              	.LCFI12:
 755              		.cfi_def_cfa_offset 24
 756 0004 0446     		mov	r4, r0
 887:Lib/lvgl/src/widgets/arc/lv_arc.c ****     knob_shadow_size += lv_obj_get_style_shadow_width(obj, LV_PART_KNOB);
 757              		.loc 1 887 5 is_stmt 1 view .LVU231
 758              	.LVL82:
 888:Lib/lvgl/src/widgets/arc/lv_arc.c ****     knob_shadow_size += lv_obj_get_style_shadow_spread(obj, LV_PART_KNOB);
 759              		.loc 1 888 5 view .LVU232
 760              	.LBB92:
 761              	.LBI92:
 164:Lib/lvgl/src/widgets/arc/../../core/lv_obj_style_gen.h **** }
 165:Lib/lvgl/src/widgets/arc/../../core/lv_obj_style_gen.h **** 
 166:Lib/lvgl/src/widgets/arc/../../core/lv_obj_style_gen.h **** static inline int32_t lv_obj_get_style_pad_row(const lv_obj_t * obj, uint32_t part)
 167:Lib/lvgl/src/widgets/arc/../../core/lv_obj_style_gen.h **** {
 168:Lib/lvgl/src/widgets/arc/../../core/lv_obj_style_gen.h ****     lv_style_value_t v = lv_obj_get_style_prop(obj, part, LV_STYLE_PAD_ROW);
 169:Lib/lvgl/src/widgets/arc/../../core/lv_obj_style_gen.h ****     return (int32_t)v.num;
 170:Lib/lvgl/src/widgets/arc/../../core/lv_obj_style_gen.h **** }
 171:Lib/lvgl/src/widgets/arc/../../core/lv_obj_style_gen.h **** 
 172:Lib/lvgl/src/widgets/arc/../../core/lv_obj_style_gen.h **** static inline int32_t lv_obj_get_style_pad_column(const lv_obj_t * obj, uint32_t part)
 173:Lib/lvgl/src/widgets/arc/../../core/lv_obj_style_gen.h **** {
 174:Lib/lvgl/src/widgets/arc/../../core/lv_obj_style_gen.h ****     lv_style_value_t v = lv_obj_get_style_prop(obj, part, LV_STYLE_PAD_COLUMN);
 175:Lib/lvgl/src/widgets/arc/../../core/lv_obj_style_gen.h ****     return (int32_t)v.num;
 176:Lib/lvgl/src/widgets/arc/../../core/lv_obj_style_gen.h **** }
 177:Lib/lvgl/src/widgets/arc/../../core/lv_obj_style_gen.h **** 
 178:Lib/lvgl/src/widgets/arc/../../core/lv_obj_style_gen.h **** static inline int32_t lv_obj_get_style_margin_top(const lv_obj_t * obj, uint32_t part)
 179:Lib/lvgl/src/widgets/arc/../../core/lv_obj_style_gen.h **** {
 180:Lib/lvgl/src/widgets/arc/../../core/lv_obj_style_gen.h ****     lv_style_value_t v = lv_obj_get_style_prop(obj, part, LV_STYLE_MARGIN_TOP);
 181:Lib/lvgl/src/widgets/arc/../../core/lv_obj_style_gen.h ****     return (int32_t)v.num;
 182:Lib/lvgl/src/widgets/arc/../../core/lv_obj_style_gen.h **** }
 183:Lib/lvgl/src/widgets/arc/../../core/lv_obj_style_gen.h **** 
 184:Lib/lvgl/src/widgets/arc/../../core/lv_obj_style_gen.h **** static inline int32_t lv_obj_get_style_margin_bottom(const lv_obj_t * obj, uint32_t part)
ARM GAS  C:\Users\Alex\AppData\Local\Temp\cczgZ6vp.s 			page 48


 185:Lib/lvgl/src/widgets/arc/../../core/lv_obj_style_gen.h **** {
 186:Lib/lvgl/src/widgets/arc/../../core/lv_obj_style_gen.h ****     lv_style_value_t v = lv_obj_get_style_prop(obj, part, LV_STYLE_MARGIN_BOTTOM);
 187:Lib/lvgl/src/widgets/arc/../../core/lv_obj_style_gen.h ****     return (int32_t)v.num;
 188:Lib/lvgl/src/widgets/arc/../../core/lv_obj_style_gen.h **** }
 189:Lib/lvgl/src/widgets/arc/../../core/lv_obj_style_gen.h **** 
 190:Lib/lvgl/src/widgets/arc/../../core/lv_obj_style_gen.h **** static inline int32_t lv_obj_get_style_margin_left(const lv_obj_t * obj, uint32_t part)
 191:Lib/lvgl/src/widgets/arc/../../core/lv_obj_style_gen.h **** {
 192:Lib/lvgl/src/widgets/arc/../../core/lv_obj_style_gen.h ****     lv_style_value_t v = lv_obj_get_style_prop(obj, part, LV_STYLE_MARGIN_LEFT);
 193:Lib/lvgl/src/widgets/arc/../../core/lv_obj_style_gen.h ****     return (int32_t)v.num;
 194:Lib/lvgl/src/widgets/arc/../../core/lv_obj_style_gen.h **** }
 195:Lib/lvgl/src/widgets/arc/../../core/lv_obj_style_gen.h **** 
 196:Lib/lvgl/src/widgets/arc/../../core/lv_obj_style_gen.h **** static inline int32_t lv_obj_get_style_margin_right(const lv_obj_t * obj, uint32_t part)
 197:Lib/lvgl/src/widgets/arc/../../core/lv_obj_style_gen.h **** {
 198:Lib/lvgl/src/widgets/arc/../../core/lv_obj_style_gen.h ****     lv_style_value_t v = lv_obj_get_style_prop(obj, part, LV_STYLE_MARGIN_RIGHT);
 199:Lib/lvgl/src/widgets/arc/../../core/lv_obj_style_gen.h ****     return (int32_t)v.num;
 200:Lib/lvgl/src/widgets/arc/../../core/lv_obj_style_gen.h **** }
 201:Lib/lvgl/src/widgets/arc/../../core/lv_obj_style_gen.h **** 
 202:Lib/lvgl/src/widgets/arc/../../core/lv_obj_style_gen.h **** static inline lv_color_t lv_obj_get_style_bg_color(const lv_obj_t * obj, uint32_t part)
 203:Lib/lvgl/src/widgets/arc/../../core/lv_obj_style_gen.h **** {
 204:Lib/lvgl/src/widgets/arc/../../core/lv_obj_style_gen.h ****     lv_style_value_t v = lv_obj_get_style_prop(obj, part, LV_STYLE_BG_COLOR);
 205:Lib/lvgl/src/widgets/arc/../../core/lv_obj_style_gen.h ****     return v.color;
 206:Lib/lvgl/src/widgets/arc/../../core/lv_obj_style_gen.h **** }
 207:Lib/lvgl/src/widgets/arc/../../core/lv_obj_style_gen.h **** 
 208:Lib/lvgl/src/widgets/arc/../../core/lv_obj_style_gen.h **** static inline lv_color_t lv_obj_get_style_bg_color_filtered(const lv_obj_t * obj, uint32_t part)
 209:Lib/lvgl/src/widgets/arc/../../core/lv_obj_style_gen.h **** {
 210:Lib/lvgl/src/widgets/arc/../../core/lv_obj_style_gen.h ****     lv_style_value_t v = _lv_obj_style_apply_color_filter(obj, part, lv_obj_get_style_prop(obj, par
 211:Lib/lvgl/src/widgets/arc/../../core/lv_obj_style_gen.h ****     return v.color;
 212:Lib/lvgl/src/widgets/arc/../../core/lv_obj_style_gen.h **** }
 213:Lib/lvgl/src/widgets/arc/../../core/lv_obj_style_gen.h **** 
 214:Lib/lvgl/src/widgets/arc/../../core/lv_obj_style_gen.h **** static inline lv_opa_t lv_obj_get_style_bg_opa(const lv_obj_t * obj, uint32_t part)
 215:Lib/lvgl/src/widgets/arc/../../core/lv_obj_style_gen.h **** {
 216:Lib/lvgl/src/widgets/arc/../../core/lv_obj_style_gen.h ****     lv_style_value_t v = lv_obj_get_style_prop(obj, part, LV_STYLE_BG_OPA);
 217:Lib/lvgl/src/widgets/arc/../../core/lv_obj_style_gen.h ****     return (lv_opa_t)v.num;
 218:Lib/lvgl/src/widgets/arc/../../core/lv_obj_style_gen.h **** }
 219:Lib/lvgl/src/widgets/arc/../../core/lv_obj_style_gen.h **** 
 220:Lib/lvgl/src/widgets/arc/../../core/lv_obj_style_gen.h **** static inline lv_color_t lv_obj_get_style_bg_grad_color(const lv_obj_t * obj, uint32_t part)
 221:Lib/lvgl/src/widgets/arc/../../core/lv_obj_style_gen.h **** {
 222:Lib/lvgl/src/widgets/arc/../../core/lv_obj_style_gen.h ****     lv_style_value_t v = lv_obj_get_style_prop(obj, part, LV_STYLE_BG_GRAD_COLOR);
 223:Lib/lvgl/src/widgets/arc/../../core/lv_obj_style_gen.h ****     return v.color;
 224:Lib/lvgl/src/widgets/arc/../../core/lv_obj_style_gen.h **** }
 225:Lib/lvgl/src/widgets/arc/../../core/lv_obj_style_gen.h **** 
 226:Lib/lvgl/src/widgets/arc/../../core/lv_obj_style_gen.h **** static inline lv_color_t lv_obj_get_style_bg_grad_color_filtered(const lv_obj_t * obj, uint32_t par
 227:Lib/lvgl/src/widgets/arc/../../core/lv_obj_style_gen.h **** {
 228:Lib/lvgl/src/widgets/arc/../../core/lv_obj_style_gen.h ****     lv_style_value_t v = _lv_obj_style_apply_color_filter(obj, part, lv_obj_get_style_prop(obj, par
 229:Lib/lvgl/src/widgets/arc/../../core/lv_obj_style_gen.h ****                                                                                            LV_STYLE
 230:Lib/lvgl/src/widgets/arc/../../core/lv_obj_style_gen.h ****     return v.color;
 231:Lib/lvgl/src/widgets/arc/../../core/lv_obj_style_gen.h **** }
 232:Lib/lvgl/src/widgets/arc/../../core/lv_obj_style_gen.h **** 
 233:Lib/lvgl/src/widgets/arc/../../core/lv_obj_style_gen.h **** static inline lv_grad_dir_t lv_obj_get_style_bg_grad_dir(const lv_obj_t * obj, uint32_t part)
 234:Lib/lvgl/src/widgets/arc/../../core/lv_obj_style_gen.h **** {
 235:Lib/lvgl/src/widgets/arc/../../core/lv_obj_style_gen.h ****     lv_style_value_t v = lv_obj_get_style_prop(obj, part, LV_STYLE_BG_GRAD_DIR);
 236:Lib/lvgl/src/widgets/arc/../../core/lv_obj_style_gen.h ****     return (lv_grad_dir_t)v.num;
 237:Lib/lvgl/src/widgets/arc/../../core/lv_obj_style_gen.h **** }
 238:Lib/lvgl/src/widgets/arc/../../core/lv_obj_style_gen.h **** 
 239:Lib/lvgl/src/widgets/arc/../../core/lv_obj_style_gen.h **** static inline int32_t lv_obj_get_style_bg_main_stop(const lv_obj_t * obj, uint32_t part)
 240:Lib/lvgl/src/widgets/arc/../../core/lv_obj_style_gen.h **** {
 241:Lib/lvgl/src/widgets/arc/../../core/lv_obj_style_gen.h ****     lv_style_value_t v = lv_obj_get_style_prop(obj, part, LV_STYLE_BG_MAIN_STOP);
ARM GAS  C:\Users\Alex\AppData\Local\Temp\cczgZ6vp.s 			page 49


 242:Lib/lvgl/src/widgets/arc/../../core/lv_obj_style_gen.h ****     return (int32_t)v.num;
 243:Lib/lvgl/src/widgets/arc/../../core/lv_obj_style_gen.h **** }
 244:Lib/lvgl/src/widgets/arc/../../core/lv_obj_style_gen.h **** 
 245:Lib/lvgl/src/widgets/arc/../../core/lv_obj_style_gen.h **** static inline int32_t lv_obj_get_style_bg_grad_stop(const lv_obj_t * obj, uint32_t part)
 246:Lib/lvgl/src/widgets/arc/../../core/lv_obj_style_gen.h **** {
 247:Lib/lvgl/src/widgets/arc/../../core/lv_obj_style_gen.h ****     lv_style_value_t v = lv_obj_get_style_prop(obj, part, LV_STYLE_BG_GRAD_STOP);
 248:Lib/lvgl/src/widgets/arc/../../core/lv_obj_style_gen.h ****     return (int32_t)v.num;
 249:Lib/lvgl/src/widgets/arc/../../core/lv_obj_style_gen.h **** }
 250:Lib/lvgl/src/widgets/arc/../../core/lv_obj_style_gen.h **** 
 251:Lib/lvgl/src/widgets/arc/../../core/lv_obj_style_gen.h **** static inline lv_opa_t lv_obj_get_style_bg_main_opa(const lv_obj_t * obj, uint32_t part)
 252:Lib/lvgl/src/widgets/arc/../../core/lv_obj_style_gen.h **** {
 253:Lib/lvgl/src/widgets/arc/../../core/lv_obj_style_gen.h ****     lv_style_value_t v = lv_obj_get_style_prop(obj, part, LV_STYLE_BG_MAIN_OPA);
 254:Lib/lvgl/src/widgets/arc/../../core/lv_obj_style_gen.h ****     return (lv_opa_t)v.num;
 255:Lib/lvgl/src/widgets/arc/../../core/lv_obj_style_gen.h **** }
 256:Lib/lvgl/src/widgets/arc/../../core/lv_obj_style_gen.h **** 
 257:Lib/lvgl/src/widgets/arc/../../core/lv_obj_style_gen.h **** static inline lv_opa_t lv_obj_get_style_bg_grad_opa(const lv_obj_t * obj, uint32_t part)
 258:Lib/lvgl/src/widgets/arc/../../core/lv_obj_style_gen.h **** {
 259:Lib/lvgl/src/widgets/arc/../../core/lv_obj_style_gen.h ****     lv_style_value_t v = lv_obj_get_style_prop(obj, part, LV_STYLE_BG_GRAD_OPA);
 260:Lib/lvgl/src/widgets/arc/../../core/lv_obj_style_gen.h ****     return (lv_opa_t)v.num;
 261:Lib/lvgl/src/widgets/arc/../../core/lv_obj_style_gen.h **** }
 262:Lib/lvgl/src/widgets/arc/../../core/lv_obj_style_gen.h **** 
 263:Lib/lvgl/src/widgets/arc/../../core/lv_obj_style_gen.h **** static inline const lv_grad_dsc_t * lv_obj_get_style_bg_grad(const lv_obj_t * obj, uint32_t part)
 264:Lib/lvgl/src/widgets/arc/../../core/lv_obj_style_gen.h **** {
 265:Lib/lvgl/src/widgets/arc/../../core/lv_obj_style_gen.h ****     lv_style_value_t v = lv_obj_get_style_prop(obj, part, LV_STYLE_BG_GRAD);
 266:Lib/lvgl/src/widgets/arc/../../core/lv_obj_style_gen.h ****     return (const lv_grad_dsc_t *)v.ptr;
 267:Lib/lvgl/src/widgets/arc/../../core/lv_obj_style_gen.h **** }
 268:Lib/lvgl/src/widgets/arc/../../core/lv_obj_style_gen.h **** 
 269:Lib/lvgl/src/widgets/arc/../../core/lv_obj_style_gen.h **** static inline const void * lv_obj_get_style_bg_image_src(const lv_obj_t * obj, uint32_t part)
 270:Lib/lvgl/src/widgets/arc/../../core/lv_obj_style_gen.h **** {
 271:Lib/lvgl/src/widgets/arc/../../core/lv_obj_style_gen.h ****     lv_style_value_t v = lv_obj_get_style_prop(obj, part, LV_STYLE_BG_IMAGE_SRC);
 272:Lib/lvgl/src/widgets/arc/../../core/lv_obj_style_gen.h ****     return (const void *)v.ptr;
 273:Lib/lvgl/src/widgets/arc/../../core/lv_obj_style_gen.h **** }
 274:Lib/lvgl/src/widgets/arc/../../core/lv_obj_style_gen.h **** 
 275:Lib/lvgl/src/widgets/arc/../../core/lv_obj_style_gen.h **** static inline lv_opa_t lv_obj_get_style_bg_image_opa(const lv_obj_t * obj, uint32_t part)
 276:Lib/lvgl/src/widgets/arc/../../core/lv_obj_style_gen.h **** {
 277:Lib/lvgl/src/widgets/arc/../../core/lv_obj_style_gen.h ****     lv_style_value_t v = lv_obj_get_style_prop(obj, part, LV_STYLE_BG_IMAGE_OPA);
 278:Lib/lvgl/src/widgets/arc/../../core/lv_obj_style_gen.h ****     return (lv_opa_t)v.num;
 279:Lib/lvgl/src/widgets/arc/../../core/lv_obj_style_gen.h **** }
 280:Lib/lvgl/src/widgets/arc/../../core/lv_obj_style_gen.h **** 
 281:Lib/lvgl/src/widgets/arc/../../core/lv_obj_style_gen.h **** static inline lv_color_t lv_obj_get_style_bg_image_recolor(const lv_obj_t * obj, uint32_t part)
 282:Lib/lvgl/src/widgets/arc/../../core/lv_obj_style_gen.h **** {
 283:Lib/lvgl/src/widgets/arc/../../core/lv_obj_style_gen.h ****     lv_style_value_t v = lv_obj_get_style_prop(obj, part, LV_STYLE_BG_IMAGE_RECOLOR);
 284:Lib/lvgl/src/widgets/arc/../../core/lv_obj_style_gen.h ****     return v.color;
 285:Lib/lvgl/src/widgets/arc/../../core/lv_obj_style_gen.h **** }
 286:Lib/lvgl/src/widgets/arc/../../core/lv_obj_style_gen.h **** 
 287:Lib/lvgl/src/widgets/arc/../../core/lv_obj_style_gen.h **** static inline lv_color_t lv_obj_get_style_bg_image_recolor_filtered(const lv_obj_t * obj, uint32_t 
 288:Lib/lvgl/src/widgets/arc/../../core/lv_obj_style_gen.h **** {
 289:Lib/lvgl/src/widgets/arc/../../core/lv_obj_style_gen.h ****     lv_style_value_t v = _lv_obj_style_apply_color_filter(obj, part, lv_obj_get_style_prop(obj, par
 290:Lib/lvgl/src/widgets/arc/../../core/lv_obj_style_gen.h ****                                                                                            LV_STYLE
 291:Lib/lvgl/src/widgets/arc/../../core/lv_obj_style_gen.h ****     return v.color;
 292:Lib/lvgl/src/widgets/arc/../../core/lv_obj_style_gen.h **** }
 293:Lib/lvgl/src/widgets/arc/../../core/lv_obj_style_gen.h **** 
 294:Lib/lvgl/src/widgets/arc/../../core/lv_obj_style_gen.h **** static inline lv_opa_t lv_obj_get_style_bg_image_recolor_opa(const lv_obj_t * obj, uint32_t part)
 295:Lib/lvgl/src/widgets/arc/../../core/lv_obj_style_gen.h **** {
 296:Lib/lvgl/src/widgets/arc/../../core/lv_obj_style_gen.h ****     lv_style_value_t v = lv_obj_get_style_prop(obj, part, LV_STYLE_BG_IMAGE_RECOLOR_OPA);
 297:Lib/lvgl/src/widgets/arc/../../core/lv_obj_style_gen.h ****     return (lv_opa_t)v.num;
 298:Lib/lvgl/src/widgets/arc/../../core/lv_obj_style_gen.h **** }
ARM GAS  C:\Users\Alex\AppData\Local\Temp\cczgZ6vp.s 			page 50


 299:Lib/lvgl/src/widgets/arc/../../core/lv_obj_style_gen.h **** 
 300:Lib/lvgl/src/widgets/arc/../../core/lv_obj_style_gen.h **** static inline bool lv_obj_get_style_bg_image_tiled(const lv_obj_t * obj, uint32_t part)
 301:Lib/lvgl/src/widgets/arc/../../core/lv_obj_style_gen.h **** {
 302:Lib/lvgl/src/widgets/arc/../../core/lv_obj_style_gen.h ****     lv_style_value_t v = lv_obj_get_style_prop(obj, part, LV_STYLE_BG_IMAGE_TILED);
 303:Lib/lvgl/src/widgets/arc/../../core/lv_obj_style_gen.h ****     return (bool)v.num;
 304:Lib/lvgl/src/widgets/arc/../../core/lv_obj_style_gen.h **** }
 305:Lib/lvgl/src/widgets/arc/../../core/lv_obj_style_gen.h **** 
 306:Lib/lvgl/src/widgets/arc/../../core/lv_obj_style_gen.h **** static inline lv_color_t lv_obj_get_style_border_color(const lv_obj_t * obj, uint32_t part)
 307:Lib/lvgl/src/widgets/arc/../../core/lv_obj_style_gen.h **** {
 308:Lib/lvgl/src/widgets/arc/../../core/lv_obj_style_gen.h ****     lv_style_value_t v = lv_obj_get_style_prop(obj, part, LV_STYLE_BORDER_COLOR);
 309:Lib/lvgl/src/widgets/arc/../../core/lv_obj_style_gen.h ****     return v.color;
 310:Lib/lvgl/src/widgets/arc/../../core/lv_obj_style_gen.h **** }
 311:Lib/lvgl/src/widgets/arc/../../core/lv_obj_style_gen.h **** 
 312:Lib/lvgl/src/widgets/arc/../../core/lv_obj_style_gen.h **** static inline lv_color_t lv_obj_get_style_border_color_filtered(const lv_obj_t * obj, uint32_t part
 313:Lib/lvgl/src/widgets/arc/../../core/lv_obj_style_gen.h **** {
 314:Lib/lvgl/src/widgets/arc/../../core/lv_obj_style_gen.h ****     lv_style_value_t v = _lv_obj_style_apply_color_filter(obj, part, lv_obj_get_style_prop(obj, par
 315:Lib/lvgl/src/widgets/arc/../../core/lv_obj_style_gen.h ****                                                                                            LV_STYLE
 316:Lib/lvgl/src/widgets/arc/../../core/lv_obj_style_gen.h ****     return v.color;
 317:Lib/lvgl/src/widgets/arc/../../core/lv_obj_style_gen.h **** }
 318:Lib/lvgl/src/widgets/arc/../../core/lv_obj_style_gen.h **** 
 319:Lib/lvgl/src/widgets/arc/../../core/lv_obj_style_gen.h **** static inline lv_opa_t lv_obj_get_style_border_opa(const lv_obj_t * obj, uint32_t part)
 320:Lib/lvgl/src/widgets/arc/../../core/lv_obj_style_gen.h **** {
 321:Lib/lvgl/src/widgets/arc/../../core/lv_obj_style_gen.h ****     lv_style_value_t v = lv_obj_get_style_prop(obj, part, LV_STYLE_BORDER_OPA);
 322:Lib/lvgl/src/widgets/arc/../../core/lv_obj_style_gen.h ****     return (lv_opa_t)v.num;
 323:Lib/lvgl/src/widgets/arc/../../core/lv_obj_style_gen.h **** }
 324:Lib/lvgl/src/widgets/arc/../../core/lv_obj_style_gen.h **** 
 325:Lib/lvgl/src/widgets/arc/../../core/lv_obj_style_gen.h **** static inline int32_t lv_obj_get_style_border_width(const lv_obj_t * obj, uint32_t part)
 326:Lib/lvgl/src/widgets/arc/../../core/lv_obj_style_gen.h **** {
 327:Lib/lvgl/src/widgets/arc/../../core/lv_obj_style_gen.h ****     lv_style_value_t v = lv_obj_get_style_prop(obj, part, LV_STYLE_BORDER_WIDTH);
 328:Lib/lvgl/src/widgets/arc/../../core/lv_obj_style_gen.h ****     return (int32_t)v.num;
 329:Lib/lvgl/src/widgets/arc/../../core/lv_obj_style_gen.h **** }
 330:Lib/lvgl/src/widgets/arc/../../core/lv_obj_style_gen.h **** 
 331:Lib/lvgl/src/widgets/arc/../../core/lv_obj_style_gen.h **** static inline lv_border_side_t lv_obj_get_style_border_side(const lv_obj_t * obj, uint32_t part)
 332:Lib/lvgl/src/widgets/arc/../../core/lv_obj_style_gen.h **** {
 333:Lib/lvgl/src/widgets/arc/../../core/lv_obj_style_gen.h ****     lv_style_value_t v = lv_obj_get_style_prop(obj, part, LV_STYLE_BORDER_SIDE);
 334:Lib/lvgl/src/widgets/arc/../../core/lv_obj_style_gen.h ****     return (lv_border_side_t)v.num;
 335:Lib/lvgl/src/widgets/arc/../../core/lv_obj_style_gen.h **** }
 336:Lib/lvgl/src/widgets/arc/../../core/lv_obj_style_gen.h **** 
 337:Lib/lvgl/src/widgets/arc/../../core/lv_obj_style_gen.h **** static inline bool lv_obj_get_style_border_post(const lv_obj_t * obj, uint32_t part)
 338:Lib/lvgl/src/widgets/arc/../../core/lv_obj_style_gen.h **** {
 339:Lib/lvgl/src/widgets/arc/../../core/lv_obj_style_gen.h ****     lv_style_value_t v = lv_obj_get_style_prop(obj, part, LV_STYLE_BORDER_POST);
 340:Lib/lvgl/src/widgets/arc/../../core/lv_obj_style_gen.h ****     return (bool)v.num;
 341:Lib/lvgl/src/widgets/arc/../../core/lv_obj_style_gen.h **** }
 342:Lib/lvgl/src/widgets/arc/../../core/lv_obj_style_gen.h **** 
 343:Lib/lvgl/src/widgets/arc/../../core/lv_obj_style_gen.h **** static inline int32_t lv_obj_get_style_outline_width(const lv_obj_t * obj, uint32_t part)
 344:Lib/lvgl/src/widgets/arc/../../core/lv_obj_style_gen.h **** {
 345:Lib/lvgl/src/widgets/arc/../../core/lv_obj_style_gen.h ****     lv_style_value_t v = lv_obj_get_style_prop(obj, part, LV_STYLE_OUTLINE_WIDTH);
 346:Lib/lvgl/src/widgets/arc/../../core/lv_obj_style_gen.h ****     return (int32_t)v.num;
 347:Lib/lvgl/src/widgets/arc/../../core/lv_obj_style_gen.h **** }
 348:Lib/lvgl/src/widgets/arc/../../core/lv_obj_style_gen.h **** 
 349:Lib/lvgl/src/widgets/arc/../../core/lv_obj_style_gen.h **** static inline lv_color_t lv_obj_get_style_outline_color(const lv_obj_t * obj, uint32_t part)
 350:Lib/lvgl/src/widgets/arc/../../core/lv_obj_style_gen.h **** {
 351:Lib/lvgl/src/widgets/arc/../../core/lv_obj_style_gen.h ****     lv_style_value_t v = lv_obj_get_style_prop(obj, part, LV_STYLE_OUTLINE_COLOR);
 352:Lib/lvgl/src/widgets/arc/../../core/lv_obj_style_gen.h ****     return v.color;
 353:Lib/lvgl/src/widgets/arc/../../core/lv_obj_style_gen.h **** }
 354:Lib/lvgl/src/widgets/arc/../../core/lv_obj_style_gen.h **** 
 355:Lib/lvgl/src/widgets/arc/../../core/lv_obj_style_gen.h **** static inline lv_color_t lv_obj_get_style_outline_color_filtered(const lv_obj_t * obj, uint32_t par
ARM GAS  C:\Users\Alex\AppData\Local\Temp\cczgZ6vp.s 			page 51


 356:Lib/lvgl/src/widgets/arc/../../core/lv_obj_style_gen.h **** {
 357:Lib/lvgl/src/widgets/arc/../../core/lv_obj_style_gen.h ****     lv_style_value_t v = _lv_obj_style_apply_color_filter(obj, part, lv_obj_get_style_prop(obj, par
 358:Lib/lvgl/src/widgets/arc/../../core/lv_obj_style_gen.h ****                                                                                            LV_STYLE
 359:Lib/lvgl/src/widgets/arc/../../core/lv_obj_style_gen.h ****     return v.color;
 360:Lib/lvgl/src/widgets/arc/../../core/lv_obj_style_gen.h **** }
 361:Lib/lvgl/src/widgets/arc/../../core/lv_obj_style_gen.h **** 
 362:Lib/lvgl/src/widgets/arc/../../core/lv_obj_style_gen.h **** static inline lv_opa_t lv_obj_get_style_outline_opa(const lv_obj_t * obj, uint32_t part)
 363:Lib/lvgl/src/widgets/arc/../../core/lv_obj_style_gen.h **** {
 364:Lib/lvgl/src/widgets/arc/../../core/lv_obj_style_gen.h ****     lv_style_value_t v = lv_obj_get_style_prop(obj, part, LV_STYLE_OUTLINE_OPA);
 365:Lib/lvgl/src/widgets/arc/../../core/lv_obj_style_gen.h ****     return (lv_opa_t)v.num;
 366:Lib/lvgl/src/widgets/arc/../../core/lv_obj_style_gen.h **** }
 367:Lib/lvgl/src/widgets/arc/../../core/lv_obj_style_gen.h **** 
 368:Lib/lvgl/src/widgets/arc/../../core/lv_obj_style_gen.h **** static inline int32_t lv_obj_get_style_outline_pad(const lv_obj_t * obj, uint32_t part)
 369:Lib/lvgl/src/widgets/arc/../../core/lv_obj_style_gen.h **** {
 370:Lib/lvgl/src/widgets/arc/../../core/lv_obj_style_gen.h ****     lv_style_value_t v = lv_obj_get_style_prop(obj, part, LV_STYLE_OUTLINE_PAD);
 371:Lib/lvgl/src/widgets/arc/../../core/lv_obj_style_gen.h ****     return (int32_t)v.num;
 372:Lib/lvgl/src/widgets/arc/../../core/lv_obj_style_gen.h **** }
 373:Lib/lvgl/src/widgets/arc/../../core/lv_obj_style_gen.h **** 
 374:Lib/lvgl/src/widgets/arc/../../core/lv_obj_style_gen.h **** static inline int32_t lv_obj_get_style_shadow_width(const lv_obj_t * obj, uint32_t part)
 762              		.loc 3 374 23 view .LVU233
 763              	.LBB93:
 375:Lib/lvgl/src/widgets/arc/../../core/lv_obj_style_gen.h **** {
 376:Lib/lvgl/src/widgets/arc/../../core/lv_obj_style_gen.h ****     lv_style_value_t v = lv_obj_get_style_prop(obj, part, LV_STYLE_SHADOW_WIDTH);
 764              		.loc 3 376 5 view .LVU234
 765              		.loc 3 376 26 is_stmt 0 view .LVU235
 766 0006 3C22     		movs	r2, #60
 767 0008 4FF44031 		mov	r1, #196608
 768 000c FFF7FEFF 		bl	lv_obj_get_style_prop
 769              	.LVL83:
 770              		.loc 3 376 26 view .LVU236
 771 0010 0546     		mov	r5, r0
 772 0012 0190     		str	r0, [sp, #4]
 377:Lib/lvgl/src/widgets/arc/../../core/lv_obj_style_gen.h ****     return (int32_t)v.num;
 773              		.loc 3 377 5 is_stmt 1 view .LVU237
 774              	.LVL84:
 775              		.loc 3 377 5 is_stmt 0 view .LVU238
 776              	.LBE93:
 777              	.LBE92:
 889:Lib/lvgl/src/widgets/arc/lv_arc.c ****     knob_shadow_size += LV_ABS(lv_obj_get_style_shadow_offset_x(obj, LV_PART_KNOB));
 778              		.loc 1 889 5 is_stmt 1 view .LVU239
 779              	.LBB94:
 780              	.LBI94:
 378:Lib/lvgl/src/widgets/arc/../../core/lv_obj_style_gen.h **** }
 379:Lib/lvgl/src/widgets/arc/../../core/lv_obj_style_gen.h **** 
 380:Lib/lvgl/src/widgets/arc/../../core/lv_obj_style_gen.h **** static inline int32_t lv_obj_get_style_shadow_offset_x(const lv_obj_t * obj, uint32_t part)
 381:Lib/lvgl/src/widgets/arc/../../core/lv_obj_style_gen.h **** {
 382:Lib/lvgl/src/widgets/arc/../../core/lv_obj_style_gen.h ****     lv_style_value_t v = lv_obj_get_style_prop(obj, part, LV_STYLE_SHADOW_OFFSET_X);
 383:Lib/lvgl/src/widgets/arc/../../core/lv_obj_style_gen.h ****     return (int32_t)v.num;
 384:Lib/lvgl/src/widgets/arc/../../core/lv_obj_style_gen.h **** }
 385:Lib/lvgl/src/widgets/arc/../../core/lv_obj_style_gen.h **** 
 386:Lib/lvgl/src/widgets/arc/../../core/lv_obj_style_gen.h **** static inline int32_t lv_obj_get_style_shadow_offset_y(const lv_obj_t * obj, uint32_t part)
 387:Lib/lvgl/src/widgets/arc/../../core/lv_obj_style_gen.h **** {
 388:Lib/lvgl/src/widgets/arc/../../core/lv_obj_style_gen.h ****     lv_style_value_t v = lv_obj_get_style_prop(obj, part, LV_STYLE_SHADOW_OFFSET_Y);
 389:Lib/lvgl/src/widgets/arc/../../core/lv_obj_style_gen.h ****     return (int32_t)v.num;
 390:Lib/lvgl/src/widgets/arc/../../core/lv_obj_style_gen.h **** }
 391:Lib/lvgl/src/widgets/arc/../../core/lv_obj_style_gen.h **** 
 392:Lib/lvgl/src/widgets/arc/../../core/lv_obj_style_gen.h **** static inline int32_t lv_obj_get_style_shadow_spread(const lv_obj_t * obj, uint32_t part)
ARM GAS  C:\Users\Alex\AppData\Local\Temp\cczgZ6vp.s 			page 52


 781              		.loc 3 392 23 view .LVU240
 782              	.LBB95:
 393:Lib/lvgl/src/widgets/arc/../../core/lv_obj_style_gen.h **** {
 394:Lib/lvgl/src/widgets/arc/../../core/lv_obj_style_gen.h ****     lv_style_value_t v = lv_obj_get_style_prop(obj, part, LV_STYLE_SHADOW_SPREAD);
 783              		.loc 3 394 5 view .LVU241
 784              		.loc 3 394 26 is_stmt 0 view .LVU242
 785 0014 4222     		movs	r2, #66
 786 0016 4FF44031 		mov	r1, #196608
 787 001a 2046     		mov	r0, r4
 788              	.LVL85:
 789              		.loc 3 394 26 view .LVU243
 790 001c FFF7FEFF 		bl	lv_obj_get_style_prop
 791              	.LVL86:
 792 0020 0190     		str	r0, [sp, #4]
 395:Lib/lvgl/src/widgets/arc/../../core/lv_obj_style_gen.h ****     return (int32_t)v.num;
 793              		.loc 3 395 5 is_stmt 1 view .LVU244
 794              	.LVL87:
 795              		.loc 3 395 5 is_stmt 0 view .LVU245
 796              	.LBE95:
 797              	.LBE94:
 889:Lib/lvgl/src/widgets/arc/lv_arc.c ****     knob_shadow_size += LV_ABS(lv_obj_get_style_shadow_offset_x(obj, LV_PART_KNOB));
 798              		.loc 1 889 22 view .LVU246
 799 0022 0544     		add	r5, r5, r0
 800              	.LVL88:
 890:Lib/lvgl/src/widgets/arc/lv_arc.c ****     knob_shadow_size += LV_ABS(lv_obj_get_style_shadow_offset_y(obj, LV_PART_KNOB));
 801              		.loc 1 890 5 is_stmt 1 view .LVU247
 802              	.LBB96:
 803              	.LBI96:
 380:Lib/lvgl/src/widgets/arc/../../core/lv_obj_style_gen.h **** {
 804              		.loc 3 380 23 view .LVU248
 805              	.LBB97:
 382:Lib/lvgl/src/widgets/arc/../../core/lv_obj_style_gen.h ****     return (int32_t)v.num;
 806              		.loc 3 382 5 view .LVU249
 382:Lib/lvgl/src/widgets/arc/../../core/lv_obj_style_gen.h ****     return (int32_t)v.num;
 807              		.loc 3 382 26 is_stmt 0 view .LVU250
 808 0024 4022     		movs	r2, #64
 809 0026 4FF44031 		mov	r1, #196608
 810 002a 2046     		mov	r0, r4
 811 002c FFF7FEFF 		bl	lv_obj_get_style_prop
 812              	.LVL89:
 813 0030 0190     		str	r0, [sp, #4]
 383:Lib/lvgl/src/widgets/arc/../../core/lv_obj_style_gen.h **** }
 814              		.loc 3 383 5 is_stmt 1 view .LVU251
 815              	.LVL90:
 383:Lib/lvgl/src/widgets/arc/../../core/lv_obj_style_gen.h **** }
 816              		.loc 3 383 5 is_stmt 0 view .LVU252
 817              	.LBE97:
 818              	.LBE96:
 890:Lib/lvgl/src/widgets/arc/lv_arc.c ****     knob_shadow_size += LV_ABS(lv_obj_get_style_shadow_offset_y(obj, LV_PART_KNOB));
 819              		.loc 1 890 25 view .LVU253
 820 0032 0028     		cmp	r0, #0
 821 0034 2FDD     		ble	.L50
 822              	.LVL91:
 823              	.LBB98:
 824              	.LBI98:
 380:Lib/lvgl/src/widgets/arc/../../core/lv_obj_style_gen.h **** {
 825              		.loc 3 380 23 is_stmt 1 view .LVU254
ARM GAS  C:\Users\Alex\AppData\Local\Temp\cczgZ6vp.s 			page 53


 826              	.LBB99:
 382:Lib/lvgl/src/widgets/arc/../../core/lv_obj_style_gen.h ****     return (int32_t)v.num;
 827              		.loc 3 382 5 view .LVU255
 382:Lib/lvgl/src/widgets/arc/../../core/lv_obj_style_gen.h ****     return (int32_t)v.num;
 828              		.loc 3 382 26 is_stmt 0 view .LVU256
 829 0036 4022     		movs	r2, #64
 830 0038 4FF44031 		mov	r1, #196608
 831 003c 2046     		mov	r0, r4
 832 003e FFF7FEFF 		bl	lv_obj_get_style_prop
 833              	.LVL92:
 834 0042 0646     		mov	r6, r0
 835 0044 0190     		str	r0, [sp, #4]
 383:Lib/lvgl/src/widgets/arc/../../core/lv_obj_style_gen.h **** }
 836              		.loc 3 383 5 is_stmt 1 view .LVU257
 837              	.LVL93:
 838              	.L51:
 383:Lib/lvgl/src/widgets/arc/../../core/lv_obj_style_gen.h **** }
 839              		.loc 3 383 5 is_stmt 0 view .LVU258
 840              	.LBE99:
 841              	.LBE98:
 890:Lib/lvgl/src/widgets/arc/lv_arc.c ****     knob_shadow_size += LV_ABS(lv_obj_get_style_shadow_offset_y(obj, LV_PART_KNOB));
 842              		.loc 1 890 22 discriminator 4 view .LVU259
 843 0046 2E44     		add	r6, r6, r5
 844              	.LVL94:
 891:Lib/lvgl/src/widgets/arc/lv_arc.c **** 
 845              		.loc 1 891 5 is_stmt 1 discriminator 4 view .LVU260
 846              	.LBB100:
 847              	.LBI100:
 386:Lib/lvgl/src/widgets/arc/../../core/lv_obj_style_gen.h **** {
 848              		.loc 3 386 23 discriminator 4 view .LVU261
 849              	.LBB101:
 388:Lib/lvgl/src/widgets/arc/../../core/lv_obj_style_gen.h ****     return (int32_t)v.num;
 850              		.loc 3 388 5 discriminator 4 view .LVU262
 388:Lib/lvgl/src/widgets/arc/../../core/lv_obj_style_gen.h ****     return (int32_t)v.num;
 851              		.loc 3 388 26 is_stmt 0 discriminator 4 view .LVU263
 852 0048 4122     		movs	r2, #65
 853 004a 4FF44031 		mov	r1, #196608
 854 004e 2046     		mov	r0, r4
 855 0050 FFF7FEFF 		bl	lv_obj_get_style_prop
 856              	.LVL95:
 857 0054 0190     		str	r0, [sp, #4]
 389:Lib/lvgl/src/widgets/arc/../../core/lv_obj_style_gen.h **** }
 858              		.loc 3 389 5 is_stmt 1 discriminator 4 view .LVU264
 859              	.LVL96:
 389:Lib/lvgl/src/widgets/arc/../../core/lv_obj_style_gen.h **** }
 860              		.loc 3 389 5 is_stmt 0 discriminator 4 view .LVU265
 861              	.LBE101:
 862              	.LBE100:
 891:Lib/lvgl/src/widgets/arc/lv_arc.c **** 
 863              		.loc 1 891 25 discriminator 4 view .LVU266
 864 0056 0028     		cmp	r0, #0
 865 0058 26DD     		ble	.L52
 866              	.LVL97:
 867              	.LBB102:
 868              	.LBI102:
 386:Lib/lvgl/src/widgets/arc/../../core/lv_obj_style_gen.h **** {
 869              		.loc 3 386 23 is_stmt 1 view .LVU267
ARM GAS  C:\Users\Alex\AppData\Local\Temp\cczgZ6vp.s 			page 54


 870              	.LBB103:
 388:Lib/lvgl/src/widgets/arc/../../core/lv_obj_style_gen.h ****     return (int32_t)v.num;
 871              		.loc 3 388 5 view .LVU268
 388:Lib/lvgl/src/widgets/arc/../../core/lv_obj_style_gen.h ****     return (int32_t)v.num;
 872              		.loc 3 388 26 is_stmt 0 view .LVU269
 873 005a 4122     		movs	r2, #65
 874 005c 4FF44031 		mov	r1, #196608
 875 0060 2046     		mov	r0, r4
 876 0062 FFF7FEFF 		bl	lv_obj_get_style_prop
 877              	.LVL98:
 878 0066 0546     		mov	r5, r0
 879 0068 0190     		str	r0, [sp, #4]
 389:Lib/lvgl/src/widgets/arc/../../core/lv_obj_style_gen.h **** }
 880              		.loc 3 389 5 is_stmt 1 view .LVU270
 881              	.LVL99:
 882              	.L53:
 389:Lib/lvgl/src/widgets/arc/../../core/lv_obj_style_gen.h **** }
 883              		.loc 3 389 5 is_stmt 0 view .LVU271
 884              	.LBE103:
 885              	.LBE102:
 891:Lib/lvgl/src/widgets/arc/lv_arc.c **** 
 886              		.loc 1 891 22 discriminator 4 view .LVU272
 887 006a 3544     		add	r5, r5, r6
 888              	.LVL100:
 893:Lib/lvgl/src/widgets/arc/lv_arc.c ****     knob_outline_size += lv_obj_get_style_outline_width(obj, LV_PART_KNOB);
 889              		.loc 1 893 5 is_stmt 1 discriminator 4 view .LVU273
 894:Lib/lvgl/src/widgets/arc/lv_arc.c ****     knob_outline_size += lv_obj_get_style_outline_pad(obj, LV_PART_KNOB);
 890              		.loc 1 894 5 discriminator 4 view .LVU274
 891              	.LBB104:
 892              	.LBI104:
 343:Lib/lvgl/src/widgets/arc/../../core/lv_obj_style_gen.h **** {
 893              		.loc 3 343 23 discriminator 4 view .LVU275
 894              	.LBB105:
 345:Lib/lvgl/src/widgets/arc/../../core/lv_obj_style_gen.h ****     return (int32_t)v.num;
 895              		.loc 3 345 5 discriminator 4 view .LVU276
 345:Lib/lvgl/src/widgets/arc/../../core/lv_obj_style_gen.h ****     return (int32_t)v.num;
 896              		.loc 3 345 26 is_stmt 0 discriminator 4 view .LVU277
 897 006c 3822     		movs	r2, #56
 898 006e 4FF44031 		mov	r1, #196608
 899 0072 2046     		mov	r0, r4
 900 0074 FFF7FEFF 		bl	lv_obj_get_style_prop
 901              	.LVL101:
 902 0078 0646     		mov	r6, r0
 903 007a 0190     		str	r0, [sp, #4]
 346:Lib/lvgl/src/widgets/arc/../../core/lv_obj_style_gen.h **** }
 904              		.loc 3 346 5 is_stmt 1 discriminator 4 view .LVU278
 905              	.LVL102:
 346:Lib/lvgl/src/widgets/arc/../../core/lv_obj_style_gen.h **** }
 906              		.loc 3 346 5 is_stmt 0 discriminator 4 view .LVU279
 907              	.LBE105:
 908              	.LBE104:
 895:Lib/lvgl/src/widgets/arc/lv_arc.c **** 
 909              		.loc 1 895 5 is_stmt 1 discriminator 4 view .LVU280
 910              	.LBB106:
 911              	.LBI106:
 368:Lib/lvgl/src/widgets/arc/../../core/lv_obj_style_gen.h **** {
 912              		.loc 3 368 23 discriminator 4 view .LVU281
ARM GAS  C:\Users\Alex\AppData\Local\Temp\cczgZ6vp.s 			page 55


 913              	.LBB107:
 370:Lib/lvgl/src/widgets/arc/../../core/lv_obj_style_gen.h ****     return (int32_t)v.num;
 914              		.loc 3 370 5 discriminator 4 view .LVU282
 370:Lib/lvgl/src/widgets/arc/../../core/lv_obj_style_gen.h ****     return (int32_t)v.num;
 915              		.loc 3 370 26 is_stmt 0 discriminator 4 view .LVU283
 916 007c 3B22     		movs	r2, #59
 917 007e 4FF44031 		mov	r1, #196608
 918 0082 2046     		mov	r0, r4
 919              	.LVL103:
 370:Lib/lvgl/src/widgets/arc/../../core/lv_obj_style_gen.h ****     return (int32_t)v.num;
 920              		.loc 3 370 26 discriminator 4 view .LVU284
 921 0084 FFF7FEFF 		bl	lv_obj_get_style_prop
 922              	.LVL104:
 923 0088 0190     		str	r0, [sp, #4]
 371:Lib/lvgl/src/widgets/arc/../../core/lv_obj_style_gen.h **** }
 924              		.loc 3 371 5 is_stmt 1 discriminator 4 view .LVU285
 925              	.LVL105:
 371:Lib/lvgl/src/widgets/arc/../../core/lv_obj_style_gen.h **** }
 926              		.loc 3 371 5 is_stmt 0 discriminator 4 view .LVU286
 927              	.LBE107:
 928              	.LBE106:
 895:Lib/lvgl/src/widgets/arc/lv_arc.c **** 
 929              		.loc 1 895 23 discriminator 4 view .LVU287
 930 008a 3044     		add	r0, r0, r6
 931              	.LVL106:
 897:Lib/lvgl/src/widgets/arc/lv_arc.c **** }
 932              		.loc 1 897 5 is_stmt 1 discriminator 4 view .LVU288
 898:Lib/lvgl/src/widgets/arc/lv_arc.c **** 
 933              		.loc 1 898 1 is_stmt 0 discriminator 4 view .LVU289
 934 008c A842     		cmp	r0, r5
 935 008e B8BF     		it	lt
 936 0090 2846     		movlt	r0, r5
 937              	.LVL107:
 898:Lib/lvgl/src/widgets/arc/lv_arc.c **** 
 938              		.loc 1 898 1 discriminator 4 view .LVU290
 939 0092 02B0     		add	sp, sp, #8
 940              	.LCFI13:
 941              		.cfi_remember_state
 942              		.cfi_def_cfa_offset 16
 943              		@ sp needed
 944 0094 70BD     		pop	{r4, r5, r6, pc}
 945              	.LVL108:
 946              	.L50:
 947              	.LCFI14:
 948              		.cfi_restore_state
 949              	.LBB108:
 950              	.LBI108:
 380:Lib/lvgl/src/widgets/arc/../../core/lv_obj_style_gen.h **** {
 951              		.loc 3 380 23 is_stmt 1 view .LVU291
 952              	.LBB109:
 382:Lib/lvgl/src/widgets/arc/../../core/lv_obj_style_gen.h ****     return (int32_t)v.num;
 953              		.loc 3 382 5 view .LVU292
 382:Lib/lvgl/src/widgets/arc/../../core/lv_obj_style_gen.h ****     return (int32_t)v.num;
 954              		.loc 3 382 26 is_stmt 0 view .LVU293
 955 0096 4022     		movs	r2, #64
 956 0098 4FF44031 		mov	r1, #196608
 957 009c 2046     		mov	r0, r4
ARM GAS  C:\Users\Alex\AppData\Local\Temp\cczgZ6vp.s 			page 56


 958 009e FFF7FEFF 		bl	lv_obj_get_style_prop
 959              	.LVL109:
 960 00a2 0190     		str	r0, [sp, #4]
 383:Lib/lvgl/src/widgets/arc/../../core/lv_obj_style_gen.h **** }
 961              		.loc 3 383 5 is_stmt 1 view .LVU294
 962              	.LVL110:
 383:Lib/lvgl/src/widgets/arc/../../core/lv_obj_style_gen.h **** }
 963              		.loc 3 383 5 is_stmt 0 view .LVU295
 964              	.LBE109:
 965              	.LBE108:
 890:Lib/lvgl/src/widgets/arc/lv_arc.c ****     knob_shadow_size += LV_ABS(lv_obj_get_style_shadow_offset_y(obj, LV_PART_KNOB));
 966              		.loc 1 890 25 view .LVU296
 967 00a4 4642     		rsbs	r6, r0, #0
 968 00a6 CEE7     		b	.L51
 969              	.LVL111:
 970              	.L52:
 971              	.LBB110:
 972              	.LBI110:
 386:Lib/lvgl/src/widgets/arc/../../core/lv_obj_style_gen.h **** {
 973              		.loc 3 386 23 is_stmt 1 view .LVU297
 974              	.LBB111:
 388:Lib/lvgl/src/widgets/arc/../../core/lv_obj_style_gen.h ****     return (int32_t)v.num;
 975              		.loc 3 388 5 view .LVU298
 388:Lib/lvgl/src/widgets/arc/../../core/lv_obj_style_gen.h ****     return (int32_t)v.num;
 976              		.loc 3 388 26 is_stmt 0 view .LVU299
 977 00a8 4122     		movs	r2, #65
 978 00aa 4FF44031 		mov	r1, #196608
 979 00ae 2046     		mov	r0, r4
 980 00b0 FFF7FEFF 		bl	lv_obj_get_style_prop
 981              	.LVL112:
 982 00b4 0190     		str	r0, [sp, #4]
 389:Lib/lvgl/src/widgets/arc/../../core/lv_obj_style_gen.h **** }
 983              		.loc 3 389 5 is_stmt 1 view .LVU300
 984              	.LVL113:
 389:Lib/lvgl/src/widgets/arc/../../core/lv_obj_style_gen.h **** }
 985              		.loc 3 389 5 is_stmt 0 view .LVU301
 986              	.LBE111:
 987              	.LBE110:
 891:Lib/lvgl/src/widgets/arc/lv_arc.c **** 
 988              		.loc 1 891 25 view .LVU302
 989 00b6 4542     		rsbs	r5, r0, #0
 990 00b8 D7E7     		b	.L53
 991              		.cfi_endproc
 992              	.LFE267:
 994              		.section	.text.lv_arc_constructor,"ax",%progbits
 995              		.align	1
 996              		.syntax unified
 997              		.thumb
 998              		.thumb_func
 1000              	lv_arc_constructor:
 1001              	.LVL114:
 1002              	.LFB258:
 406:Lib/lvgl/src/widgets/arc/lv_arc.c ****     LV_UNUSED(class_p);
 1003              		.loc 1 406 1 is_stmt 1 view -0
 1004              		.cfi_startproc
 1005              		@ args = 0, pretend = 0, frame = 0
 1006              		@ frame_needed = 0, uses_anonymous_args = 0
ARM GAS  C:\Users\Alex\AppData\Local\Temp\cczgZ6vp.s 			page 57


 406:Lib/lvgl/src/widgets/arc/lv_arc.c ****     LV_UNUSED(class_p);
 1007              		.loc 1 406 1 is_stmt 0 view .LVU304
 1008 0000 38B5     		push	{r3, r4, r5, lr}
 1009              	.LCFI15:
 1010              		.cfi_def_cfa_offset 16
 1011              		.cfi_offset 3, -16
 1012              		.cfi_offset 4, -12
 1013              		.cfi_offset 5, -8
 1014              		.cfi_offset 14, -4
 1015 0002 0C46     		mov	r4, r1
 407:Lib/lvgl/src/widgets/arc/lv_arc.c ****     LV_TRACE_OBJ_CREATE("begin");
 1016              		.loc 1 407 5 is_stmt 1 view .LVU305
 408:Lib/lvgl/src/widgets/arc/lv_arc.c **** 
 1017              		.loc 1 408 33 view .LVU306
 410:Lib/lvgl/src/widgets/arc/lv_arc.c **** 
 1018              		.loc 1 410 5 view .LVU307
 1019              	.LVL115:
 413:Lib/lvgl/src/widgets/arc/lv_arc.c ****     arc->bg_angle_start = 135;
 1020              		.loc 1 413 5 view .LVU308
 413:Lib/lvgl/src/widgets/arc/lv_arc.c ****     arc->bg_angle_start = 135;
 1021              		.loc 1 413 19 is_stmt 0 view .LVU309
 1022 0004 0025     		movs	r5, #0
 1023 0006 CD62     		str	r5, [r1, #44]
 414:Lib/lvgl/src/widgets/arc/lv_arc.c ****     arc->bg_angle_end   = 45;
 1024              		.loc 1 414 5 is_stmt 1 view .LVU310
 414:Lib/lvgl/src/widgets/arc/lv_arc.c ****     arc->bg_angle_end   = 45;
 1025              		.loc 1 414 25 is_stmt 0 view .LVU311
 1026 0008 8723     		movs	r3, #135
 1027 000a 8B63     		str	r3, [r1, #56]
 415:Lib/lvgl/src/widgets/arc/lv_arc.c ****     arc->indic_angle_start = 135;
 1028              		.loc 1 415 5 is_stmt 1 view .LVU312
 415:Lib/lvgl/src/widgets/arc/lv_arc.c ****     arc->indic_angle_start = 135;
 1029              		.loc 1 415 25 is_stmt 0 view .LVU313
 1030 000c 2D22     		movs	r2, #45
 1031 000e CA63     		str	r2, [r1, #60]
 416:Lib/lvgl/src/widgets/arc/lv_arc.c ****     arc->indic_angle_end   = 270;
 1032              		.loc 1 416 5 is_stmt 1 view .LVU314
 416:Lib/lvgl/src/widgets/arc/lv_arc.c ****     arc->indic_angle_end   = 270;
 1033              		.loc 1 416 28 is_stmt 0 view .LVU315
 1034 0010 0B63     		str	r3, [r1, #48]
 417:Lib/lvgl/src/widgets/arc/lv_arc.c ****     arc->type = LV_ARC_MODE_NORMAL;
 1035              		.loc 1 417 5 is_stmt 1 view .LVU316
 417:Lib/lvgl/src/widgets/arc/lv_arc.c ****     arc->type = LV_ARC_MODE_NORMAL;
 1036              		.loc 1 417 28 is_stmt 0 view .LVU317
 1037 0012 4FF48773 		mov	r3, #270
 1038 0016 4B63     		str	r3, [r1, #52]
 418:Lib/lvgl/src/widgets/arc/lv_arc.c ****     arc->value = VALUE_UNSET;
 1039              		.loc 1 418 5 is_stmt 1 view .LVU318
 418:Lib/lvgl/src/widgets/arc/lv_arc.c ****     arc->value = VALUE_UNSET;
 1040              		.loc 1 418 15 is_stmt 0 view .LVU319
 1041 0018 91F84C30 		ldrb	r3, [r1, #76]	@ zero_extendqisi2
 1042 001c 65F34203 		bfi	r3, r5, #1, #2
 1043 0020 81F84C30 		strb	r3, [r1, #76]
 419:Lib/lvgl/src/widgets/arc/lv_arc.c ****     arc->min_close = 1;
 1044              		.loc 1 419 5 is_stmt 1 view .LVU320
 419:Lib/lvgl/src/widgets/arc/lv_arc.c ****     arc->min_close = 1;
 1045              		.loc 1 419 16 is_stmt 0 view .LVU321
ARM GAS  C:\Users\Alex\AppData\Local\Temp\cczgZ6vp.s 			page 58


 1046 0024 164B     		ldr	r3, .L57
 1047 0026 0B64     		str	r3, [r1, #64]
 420:Lib/lvgl/src/widgets/arc/lv_arc.c ****     arc->min_value = 0;
 1048              		.loc 1 420 5 is_stmt 1 view .LVU322
 420:Lib/lvgl/src/widgets/arc/lv_arc.c ****     arc->min_value = 0;
 1049              		.loc 1 420 20 is_stmt 0 view .LVU323
 1050 0028 91F84C30 		ldrb	r3, [r1, #76]	@ zero_extendqisi2
 1051 002c 43F00803 		orr	r3, r3, #8
 1052 0030 81F84C30 		strb	r3, [r1, #76]
 421:Lib/lvgl/src/widgets/arc/lv_arc.c ****     arc->max_value = 100;
 1053              		.loc 1 421 5 is_stmt 1 view .LVU324
 421:Lib/lvgl/src/widgets/arc/lv_arc.c ****     arc->max_value = 100;
 1054              		.loc 1 421 20 is_stmt 0 view .LVU325
 1055 0034 4D64     		str	r5, [r1, #68]
 422:Lib/lvgl/src/widgets/arc/lv_arc.c ****     arc->dragging = false;
 1056              		.loc 1 422 5 is_stmt 1 view .LVU326
 422:Lib/lvgl/src/widgets/arc/lv_arc.c ****     arc->dragging = false;
 1057              		.loc 1 422 20 is_stmt 0 view .LVU327
 1058 0036 6423     		movs	r3, #100
 1059 0038 8B64     		str	r3, [r1, #72]
 423:Lib/lvgl/src/widgets/arc/lv_arc.c ****     arc->chg_rate = 720;
 1060              		.loc 1 423 5 is_stmt 1 view .LVU328
 423:Lib/lvgl/src/widgets/arc/lv_arc.c ****     arc->chg_rate = 720;
 1061              		.loc 1 423 19 is_stmt 0 view .LVU329
 1062 003a 91F84C30 		ldrb	r3, [r1, #76]	@ zero_extendqisi2
 1063 003e 65F30003 		bfi	r3, r5, #0, #1
 1064 0042 81F84C30 		strb	r3, [r1, #76]
 424:Lib/lvgl/src/widgets/arc/lv_arc.c ****     arc->last_tick = lv_tick_get();
 1065              		.loc 1 424 5 is_stmt 1 view .LVU330
 424:Lib/lvgl/src/widgets/arc/lv_arc.c ****     arc->last_tick = lv_tick_get();
 1066              		.loc 1 424 19 is_stmt 0 view .LVU331
 1067 0046 4FF43473 		mov	r3, #720
 1068 004a 0B65     		str	r3, [r1, #80]
 425:Lib/lvgl/src/widgets/arc/lv_arc.c ****     arc->last_angle = arc->indic_angle_end;
 1069              		.loc 1 425 5 is_stmt 1 view .LVU332
 425:Lib/lvgl/src/widgets/arc/lv_arc.c ****     arc->last_angle = arc->indic_angle_end;
 1070              		.loc 1 425 22 is_stmt 0 view .LVU333
 1071 004c FFF7FEFF 		bl	lv_tick_get
 1072              	.LVL116:
 425:Lib/lvgl/src/widgets/arc/lv_arc.c ****     arc->last_angle = arc->indic_angle_end;
 1073              		.loc 1 425 20 view .LVU334
 1074 0050 6065     		str	r0, [r4, #84]
 426:Lib/lvgl/src/widgets/arc/lv_arc.c ****     arc->in_out = CLICK_OUTSIDE_BG_ANGLES;
 1075              		.loc 1 426 5 is_stmt 1 view .LVU335
 426:Lib/lvgl/src/widgets/arc/lv_arc.c ****     arc->in_out = CLICK_OUTSIDE_BG_ANGLES;
 1076              		.loc 1 426 26 is_stmt 0 view .LVU336
 1077 0052 636B     		ldr	r3, [r4, #52]
 426:Lib/lvgl/src/widgets/arc/lv_arc.c ****     arc->in_out = CLICK_OUTSIDE_BG_ANGLES;
 1078              		.loc 1 426 21 view .LVU337
 1079 0054 A365     		str	r3, [r4, #88]
 427:Lib/lvgl/src/widgets/arc/lv_arc.c **** 
 1080              		.loc 1 427 5 is_stmt 1 view .LVU338
 427:Lib/lvgl/src/widgets/arc/lv_arc.c **** 
 1081              		.loc 1 427 17 is_stmt 0 view .LVU339
 1082 0056 94F84C30 		ldrb	r3, [r4, #76]	@ zero_extendqisi2
 1083 005a 65F30413 		bfi	r3, r5, #4, #1
 1084 005e 84F84C30 		strb	r3, [r4, #76]
ARM GAS  C:\Users\Alex\AppData\Local\Temp\cczgZ6vp.s 			page 59


 429:Lib/lvgl/src/widgets/arc/lv_arc.c ****     lv_obj_remove_flag(obj, LV_OBJ_FLAG_SCROLL_CHAIN | LV_OBJ_FLAG_SCROLLABLE);
 1085              		.loc 1 429 5 is_stmt 1 view .LVU340
 1086 0062 0221     		movs	r1, #2
 1087 0064 2046     		mov	r0, r4
 1088 0066 FFF7FEFF 		bl	lv_obj_add_flag
 1089              	.LVL117:
 430:Lib/lvgl/src/widgets/arc/lv_arc.c ****     lv_obj_set_ext_click_area(obj, LV_DPI_DEF / 10);
 1090              		.loc 1 430 5 view .LVU341
 1091 006a 4FF44471 		mov	r1, #784
 1092 006e 2046     		mov	r0, r4
 1093 0070 FFF7FEFF 		bl	lv_obj_remove_flag
 1094              	.LVL118:
 431:Lib/lvgl/src/widgets/arc/lv_arc.c **** 
 1095              		.loc 1 431 5 view .LVU342
 1096 0074 0D21     		movs	r1, #13
 1097 0076 2046     		mov	r0, r4
 1098 0078 FFF7FEFF 		bl	lv_obj_set_ext_click_area
 1099              	.LVL119:
 433:Lib/lvgl/src/widgets/arc/lv_arc.c **** }
 1100              		.loc 1 433 36 view .LVU343
 434:Lib/lvgl/src/widgets/arc/lv_arc.c **** 
 1101              		.loc 1 434 1 is_stmt 0 view .LVU344
 1102 007c 38BD     		pop	{r3, r4, r5, pc}
 1103              	.LVL120:
 1104              	.L58:
 434:Lib/lvgl/src/widgets/arc/lv_arc.c **** 
 1105              		.loc 1 434 1 view .LVU345
 1106 007e 00BF     		.align	2
 1107              	.L57:
 1108 0080 0080FFFF 		.word	-32768
 1109              		.cfi_endproc
 1110              	.LFE258:
 1112              		.section	.text.inv_arc_area,"ax",%progbits
 1113              		.align	1
 1114              		.syntax unified
 1115              		.thumb
 1116              		.thumb_func
 1118              	inv_arc_area:
 1119              	.LVL121:
 1120              	.LFB261:
 723:Lib/lvgl/src/widgets/arc/lv_arc.c ****     LV_ASSERT_OBJ(obj, MY_CLASS);
 1121              		.loc 1 723 1 is_stmt 1 view -0
 1122              		.cfi_startproc
 1123              		@ args = 0, pretend = 0, frame = 32
 1124              		@ frame_needed = 0, uses_anonymous_args = 0
 723:Lib/lvgl/src/widgets/arc/lv_arc.c ****     LV_ASSERT_OBJ(obj, MY_CLASS);
 1125              		.loc 1 723 1 is_stmt 0 view .LVU347
 1126 0000 2DE9F041 		push	{r4, r5, r6, r7, r8, lr}
 1127              	.LCFI16:
 1128              		.cfi_def_cfa_offset 24
 1129              		.cfi_offset 4, -24
 1130              		.cfi_offset 5, -20
 1131              		.cfi_offset 6, -16
 1132              		.cfi_offset 7, -12
 1133              		.cfi_offset 8, -8
 1134              		.cfi_offset 14, -4
 1135 0004 8CB0     		sub	sp, sp, #48
ARM GAS  C:\Users\Alex\AppData\Local\Temp\cczgZ6vp.s 			page 60


 1136              	.LCFI17:
 1137              		.cfi_def_cfa_offset 72
 1138 0006 0646     		mov	r6, r0
 1139 0008 0D46     		mov	r5, r1
 1140 000a 1446     		mov	r4, r2
 1141 000c 1F46     		mov	r7, r3
 724:Lib/lvgl/src/widgets/arc/lv_arc.c **** 
 1142              		.loc 1 724 5 is_stmt 1 view .LVU348
 724:Lib/lvgl/src/widgets/arc/lv_arc.c **** 
 1143              		.loc 1 724 5 view .LVU349
 724:Lib/lvgl/src/widgets/arc/lv_arc.c **** 
 1144              		.loc 1 724 5 view .LVU350
 727:Lib/lvgl/src/widgets/arc/lv_arc.c **** 
 1145              		.loc 1 727 5 view .LVU351
 727:Lib/lvgl/src/widgets/arc/lv_arc.c **** 
 1146              		.loc 1 727 8 is_stmt 0 view .LVU352
 1147 000e FFF7FEFF 		bl	lv_obj_is_visible
 1148              	.LVL122:
 727:Lib/lvgl/src/widgets/arc/lv_arc.c **** 
 1149              		.loc 1 727 7 view .LVU353
 1150 0012 0028     		cmp	r0, #0
 1151 0014 3ED0     		beq	.L59
 729:Lib/lvgl/src/widgets/arc/lv_arc.c **** 
 1152              		.loc 1 729 5 is_stmt 1 view .LVU354
 1153              	.LVL123:
 731:Lib/lvgl/src/widgets/arc/lv_arc.c **** 
 1154              		.loc 1 731 5 view .LVU355
 731:Lib/lvgl/src/widgets/arc/lv_arc.c **** 
 1155              		.loc 1 731 7 is_stmt 0 view .LVU356
 1156 0016 A542     		cmp	r5, r4
 1157 0018 3CD0     		beq	.L59
 733:Lib/lvgl/src/widgets/arc/lv_arc.c ****     if(end_angle > 360) end_angle -= 360;
 1158              		.loc 1 733 5 is_stmt 1 view .LVU357
 733:Lib/lvgl/src/widgets/arc/lv_arc.c ****     if(end_angle > 360) end_angle -= 360;
 1159              		.loc 1 733 7 is_stmt 0 view .LVU358
 1160 001a B5F5B47F 		cmp	r5, #360
 1161 001e 01DD     		ble	.L61
 733:Lib/lvgl/src/widgets/arc/lv_arc.c ****     if(end_angle > 360) end_angle -= 360;
 1162              		.loc 1 733 27 is_stmt 1 discriminator 1 view .LVU359
 733:Lib/lvgl/src/widgets/arc/lv_arc.c ****     if(end_angle > 360) end_angle -= 360;
 1163              		.loc 1 733 39 is_stmt 0 discriminator 1 view .LVU360
 1164 0020 A5F5B475 		sub	r5, r5, #360
 1165              	.LVL124:
 1166              	.L61:
 734:Lib/lvgl/src/widgets/arc/lv_arc.c **** 
 1167              		.loc 1 734 5 is_stmt 1 view .LVU361
 734:Lib/lvgl/src/widgets/arc/lv_arc.c **** 
 1168              		.loc 1 734 7 is_stmt 0 view .LVU362
