ARM GAS  C:\Users\Alex\AppData\Local\Temp\ccuyhuJ1.s 			page 1


   1              		.cpu cortex-m4
   2              		.arch armv7e-m
   3              		.fpu fpv4-sp-d16
   4              		.eabi_attribute 27, 1
   5              		.eabi_attribute 28, 1
   6              		.eabi_attribute 20, 1
   7              		.eabi_attribute 21, 1
   8              		.eabi_attribute 23, 3
   9              		.eabi_attribute 24, 1
  10              		.eabi_attribute 25, 1
  11              		.eabi_attribute 26, 1
  12              		.eabi_attribute 30, 1
  13              		.eabi_attribute 34, 1
  14              		.eabi_attribute 18, 4
  15              		.file	"lv_button.c"
  16              		.text
  17              	.Ltext0:
  18              		.cfi_sections	.debug_frame
  19              		.file 1 "Lib/lvgl/src/widgets/button/lv_button.c"
  20              		.section	.text.lv_button_constructor,"ax",%progbits
  21              		.align	1
  22              		.syntax unified
  23              		.thumb
  24              		.thumb_func
  26              	lv_button_constructor:
  27              	.LVL0:
  28              	.LFB234:
   1:Lib/lvgl/src/widgets/button/lv_button.c **** /**
   2:Lib/lvgl/src/widgets/button/lv_button.c ****  * @file lv_btn.c
   3:Lib/lvgl/src/widgets/button/lv_button.c ****  *
   4:Lib/lvgl/src/widgets/button/lv_button.c ****  */
   5:Lib/lvgl/src/widgets/button/lv_button.c **** 
   6:Lib/lvgl/src/widgets/button/lv_button.c **** /*********************
   7:Lib/lvgl/src/widgets/button/lv_button.c ****  *      INCLUDES
   8:Lib/lvgl/src/widgets/button/lv_button.c ****  *********************/
   9:Lib/lvgl/src/widgets/button/lv_button.c **** 
  10:Lib/lvgl/src/widgets/button/lv_button.c **** #include "lv_button.h"
  11:Lib/lvgl/src/widgets/button/lv_button.c **** #if LV_USE_BUTTON != 0
  12:Lib/lvgl/src/widgets/button/lv_button.c **** 
  13:Lib/lvgl/src/widgets/button/lv_button.c **** /*********************
  14:Lib/lvgl/src/widgets/button/lv_button.c ****  *      DEFINES
  15:Lib/lvgl/src/widgets/button/lv_button.c ****  *********************/
  16:Lib/lvgl/src/widgets/button/lv_button.c **** #define MY_CLASS &lv_button_class
  17:Lib/lvgl/src/widgets/button/lv_button.c **** 
  18:Lib/lvgl/src/widgets/button/lv_button.c **** /**********************
  19:Lib/lvgl/src/widgets/button/lv_button.c ****  *      TYPEDEFS
  20:Lib/lvgl/src/widgets/button/lv_button.c ****  **********************/
  21:Lib/lvgl/src/widgets/button/lv_button.c **** 
  22:Lib/lvgl/src/widgets/button/lv_button.c **** /**********************
  23:Lib/lvgl/src/widgets/button/lv_button.c ****  *  STATIC PROTOTYPES
  24:Lib/lvgl/src/widgets/button/lv_button.c ****  **********************/
  25:Lib/lvgl/src/widgets/button/lv_button.c **** static void lv_button_constructor(const lv_obj_class_t * class_p, lv_obj_t * obj);
  26:Lib/lvgl/src/widgets/button/lv_button.c **** 
  27:Lib/lvgl/src/widgets/button/lv_button.c **** /**********************
  28:Lib/lvgl/src/widgets/button/lv_button.c ****  *  STATIC VARIABLES
  29:Lib/lvgl/src/widgets/button/lv_button.c ****  **********************/
  30:Lib/lvgl/src/widgets/button/lv_button.c **** const lv_obj_class_t lv_button_class  = {
ARM GAS  C:\Users\Alex\AppData\Local\Temp\ccuyhuJ1.s 			page 2


  31:Lib/lvgl/src/widgets/button/lv_button.c ****     .constructor_cb = lv_button_constructor,
  32:Lib/lvgl/src/widgets/button/lv_button.c ****     .width_def = LV_SIZE_CONTENT,
  33:Lib/lvgl/src/widgets/button/lv_button.c ****     .height_def = LV_SIZE_CONTENT,
  34:Lib/lvgl/src/widgets/button/lv_button.c ****     .group_def = LV_OBJ_CLASS_GROUP_DEF_TRUE,
  35:Lib/lvgl/src/widgets/button/lv_button.c ****     .instance_size = sizeof(lv_button_t),
  36:Lib/lvgl/src/widgets/button/lv_button.c ****     .base_class = &lv_obj_class,
  37:Lib/lvgl/src/widgets/button/lv_button.c ****     .name = "btn",
  38:Lib/lvgl/src/widgets/button/lv_button.c **** };
  39:Lib/lvgl/src/widgets/button/lv_button.c **** 
  40:Lib/lvgl/src/widgets/button/lv_button.c **** /**********************
  41:Lib/lvgl/src/widgets/button/lv_button.c ****  *      MACROS
  42:Lib/lvgl/src/widgets/button/lv_button.c ****  **********************/
  43:Lib/lvgl/src/widgets/button/lv_button.c **** 
  44:Lib/lvgl/src/widgets/button/lv_button.c **** /**********************
  45:Lib/lvgl/src/widgets/button/lv_button.c ****  *   GLOBAL FUNCTIONS
  46:Lib/lvgl/src/widgets/button/lv_button.c ****  **********************/
  47:Lib/lvgl/src/widgets/button/lv_button.c **** 
  48:Lib/lvgl/src/widgets/button/lv_button.c **** lv_obj_t * lv_button_create(lv_obj_t * parent)
  49:Lib/lvgl/src/widgets/button/lv_button.c **** {
  50:Lib/lvgl/src/widgets/button/lv_button.c ****     LV_LOG_INFO("begin");
  51:Lib/lvgl/src/widgets/button/lv_button.c ****     lv_obj_t * obj = lv_obj_class_create_obj(MY_CLASS, parent);
  52:Lib/lvgl/src/widgets/button/lv_button.c ****     lv_obj_class_init_obj(obj);
  53:Lib/lvgl/src/widgets/button/lv_button.c ****     return obj;
  54:Lib/lvgl/src/widgets/button/lv_button.c **** }
  55:Lib/lvgl/src/widgets/button/lv_button.c **** 
  56:Lib/lvgl/src/widgets/button/lv_button.c **** /**********************
  57:Lib/lvgl/src/widgets/button/lv_button.c ****  *   STATIC FUNCTIONS
  58:Lib/lvgl/src/widgets/button/lv_button.c ****  **********************/
  59:Lib/lvgl/src/widgets/button/lv_button.c **** 
  60:Lib/lvgl/src/widgets/button/lv_button.c **** static void lv_button_constructor(const lv_obj_class_t * class_p, lv_obj_t * obj)
  61:Lib/lvgl/src/widgets/button/lv_button.c **** {
  29              		.loc 1 61 1 view -0
  30              		.cfi_startproc
  31              		@ args = 0, pretend = 0, frame = 0
  32              		@ frame_needed = 0, uses_anonymous_args = 0
  33              		.loc 1 61 1 is_stmt 0 view .LVU1
  34 0000 10B5     		push	{r4, lr}
  35              	.LCFI0:
  36              		.cfi_def_cfa_offset 8
  37              		.cfi_offset 4, -8
  38              		.cfi_offset 14, -4
  39 0002 0C46     		mov	r4, r1
  62:Lib/lvgl/src/widgets/button/lv_button.c ****     LV_UNUSED(class_p);
  40              		.loc 1 62 5 is_stmt 1 view .LVU2
  63:Lib/lvgl/src/widgets/button/lv_button.c ****     LV_TRACE_OBJ_CREATE("begin");
  41              		.loc 1 63 33 view .LVU3
  64:Lib/lvgl/src/widgets/button/lv_button.c **** 
  65:Lib/lvgl/src/widgets/button/lv_button.c ****     lv_obj_remove_flag(obj, LV_OBJ_FLAG_SCROLLABLE);
  42              		.loc 1 65 5 view .LVU4
  43 0004 1021     		movs	r1, #16
  44              	.LVL1:
  45              		.loc 1 65 5 is_stmt 0 view .LVU5
  46 0006 2046     		mov	r0, r4
  47              	.LVL2:
  48              		.loc 1 65 5 view .LVU6
  49 0008 FFF7FEFF 		bl	lv_obj_remove_flag
  50              	.LVL3:
ARM GAS  C:\Users\Alex\AppData\Local\Temp\ccuyhuJ1.s 			page 3


  66:Lib/lvgl/src/widgets/button/lv_button.c ****     lv_obj_add_flag(obj, LV_OBJ_FLAG_SCROLL_ON_FOCUS);
  51              		.loc 1 66 5 is_stmt 1 view .LVU7
  52 000c 4FF48061 		mov	r1, #1024
  53 0010 2046     		mov	r0, r4
  54 0012 FFF7FEFF 		bl	lv_obj_add_flag
  55              	.LVL4:
  67:Lib/lvgl/src/widgets/button/lv_button.c **** 
  68:Lib/lvgl/src/widgets/button/lv_button.c ****     LV_TRACE_OBJ_CREATE("finished");
  56              		.loc 1 68 36 view .LVU8
  69:Lib/lvgl/src/widgets/button/lv_button.c **** }
  57              		.loc 1 69 1 is_stmt 0 view .LVU9
  58 0016 10BD     		pop	{r4, pc}
  59              		.loc 1 69 1 view .LVU10
  60              		.cfi_endproc
  61              	.LFE234:
  63              		.section	.text.lv_button_create,"ax",%progbits
  64              		.align	1
  65              		.global	lv_button_create
  66              		.syntax unified
  67              		.thumb
  68              		.thumb_func
  70              	lv_button_create:
  71              	.LVL5:
  72              	.LFB233:
  49:Lib/lvgl/src/widgets/button/lv_button.c ****     LV_LOG_INFO("begin");
  73              		.loc 1 49 1 is_stmt 1 view -0
  74              		.cfi_startproc
  75              		@ args = 0, pretend = 0, frame = 0
  76              		@ frame_needed = 0, uses_anonymous_args = 0
  49:Lib/lvgl/src/widgets/button/lv_button.c ****     LV_LOG_INFO("begin");
  77              		.loc 1 49 1 is_stmt 0 view .LVU12
  78 0000 10B5     		push	{r4, lr}
  79              	.LCFI1:
  80              		.cfi_def_cfa_offset 8
  81              		.cfi_offset 4, -8
  82              		.cfi_offset 14, -4
  83 0002 0146     		mov	r1, r0
  50:Lib/lvgl/src/widgets/button/lv_button.c ****     lv_obj_t * obj = lv_obj_class_create_obj(MY_CLASS, parent);
  84              		.loc 1 50 5 is_stmt 1 view .LVU13
  50:Lib/lvgl/src/widgets/button/lv_button.c ****     lv_obj_t * obj = lv_obj_class_create_obj(MY_CLASS, parent);
  85              		.loc 1 50 5 view .LVU14
  50:Lib/lvgl/src/widgets/button/lv_button.c ****     lv_obj_t * obj = lv_obj_class_create_obj(MY_CLASS, parent);
  86              		.loc 1 50 5 view .LVU15
  51:Lib/lvgl/src/widgets/button/lv_button.c ****     lv_obj_class_init_obj(obj);
  87              		.loc 1 51 5 view .LVU16
  51:Lib/lvgl/src/widgets/button/lv_button.c ****     lv_obj_class_init_obj(obj);
  88              		.loc 1 51 22 is_stmt 0 view .LVU17
  89 0004 0348     		ldr	r0, .L5
  90              	.LVL6:
  51:Lib/lvgl/src/widgets/button/lv_button.c ****     lv_obj_class_init_obj(obj);
  91              		.loc 1 51 22 view .LVU18
  92 0006 FFF7FEFF 		bl	lv_obj_class_create_obj
  93              	.LVL7:
  51:Lib/lvgl/src/widgets/button/lv_button.c ****     lv_obj_class_init_obj(obj);
  94              		.loc 1 51 22 view .LVU19
  95 000a 0446     		mov	r4, r0
  96              	.LVL8:
ARM GAS  C:\Users\Alex\AppData\Local\Temp\ccuyhuJ1.s 			page 4


  52:Lib/lvgl/src/widgets/button/lv_button.c ****     return obj;
  97              		.loc 1 52 5 is_stmt 1 view .LVU20
  98 000c FFF7FEFF 		bl	lv_obj_class_init_obj
  99              	.LVL9:
  53:Lib/lvgl/src/widgets/button/lv_button.c **** }
 100              		.loc 1 53 5 view .LVU21
  54:Lib/lvgl/src/widgets/button/lv_button.c **** 
 101              		.loc 1 54 1 is_stmt 0 view .LVU22
 102 0010 2046     		mov	r0, r4
 103 0012 10BD     		pop	{r4, pc}
 104              	.LVL10:
 105              	.L6:
  54:Lib/lvgl/src/widgets/button/lv_button.c **** 
 106              		.loc 1 54 1 view .LVU23
 107              		.align	2
 108              	.L5:
 109 0014 00000000 		.word	lv_button_class
 110              		.cfi_endproc
 111              	.LFE233:
 113              		.global	lv_button_class
 114              		.section	.rodata.str1.4,"aMS",%progbits,1
 115              		.align	2
 116              	.LC0:
 117 0000 62746E00 		.ascii	"btn\000"
 118              		.section	.rodata.lv_button_class,"a"
 119              		.align	2
 122              	lv_button_class:
 123 0000 00000000 		.word	lv_obj_class
 124 0004 00000000 		.word	lv_button_constructor
 125 0008 00000000 		.space	12
 125      00000000 
 125      00000000 
 126 0014 00000000 		.word	.LC0
 127 0018 D1070020 		.word	536872913
 128 001c D1070020 		.word	536872913
 129 0020 C4       		.byte	196
 130 0021 02       		.byte	2
 131 0022 00       		.byte	0
 132 0023 00       		.space	1
 133              		.text
 134              	.Letext0:
 135              		.file 2 "e:\\programms\\gnu_mcu_eclipse\\toolchain\\arm-gnu-toolchain-12.2.mpacbti-bet1-mingw-w64-
 136              		.file 3 "e:\\programms\\gnu_mcu_eclipse\\toolchain\\arm-gnu-toolchain-12.2.mpacbti-bet1-mingw-w64-
 137              		.file 4 "Lib/lvgl/src/widgets/button/../../core/../misc/lv_types.h"
 138              		.file 5 "Lib/lvgl/src/widgets/button/../../core/lv_obj.h"
 139              		.file 6 "Lib/lvgl/src/widgets/button/../../core/lv_obj_class.h"
 140              		.file 7 "Lib/lvgl/src/widgets/button/../../core/../indev/../core/lv_group.h"
 141              		.file 8 "Lib/lvgl/src/widgets/button/../../core/../display/../misc/lv_event.h"
 142              		.file 9 "c:\\users\\alex\\eclipse-workspace\\lvgs_test\\lib\\lvgl\\src\\misc\\lv_area.h"
 143              		.file 10 "Lib/lvgl/src/widgets/button/../../core/../misc/lv_ll.h"
 144              		.file 11 "Lib/lvgl/src/widgets/button/../../core/../misc/lv_style.h"
 145              		.file 12 "Lib/lvgl/src/widgets/button/../../core/../display/../misc/lv_array.h"
 146              		.file 13 "Lib/lvgl/src/widgets/button/../../core/lv_obj_style.h"
 147              		.file 14 "Lib/lvgl/src/widgets/button/lv_button.h"
ARM GAS  C:\Users\Alex\AppData\Local\Temp\ccuyhuJ1.s 			page 5

