ARM GAS  C:\Users\Alex\AppData\Local\Temp\ccFfvF9D.s 			page 1


   1              		.cpu cortex-m4
   2              		.arch armv7e-m
   3              		.fpu fpv4-sp-d16
   4              		.eabi_attribute 27, 1
   5              		.eabi_attribute 28, 1
   6              		.eabi_attribute 20, 1
   7              		.eabi_attribute 21, 1
   8              		.eabi_attribute 23, 3
   9              		.eabi_attribute 24, 1
  10              		.eabi_attribute 25, 1
  11              		.eabi_attribute 26, 1
  12              		.eabi_attribute 30, 1
  13              		.eabi_attribute 34, 1
  14              		.eabi_attribute 18, 4
  15              		.file	"lv_checkbox.c"
  16              		.text
  17              	.Ltext0:
  18              		.cfi_sections	.debug_frame
  19              		.file 1 "Lib/lvgl/src/widgets/checkbox/lv_checkbox.c"
  20              		.section	.text.lv_checkbox_draw,"ax",%progbits
  21              		.align	1
  22              		.syntax unified
  23              		.thumb
  24              		.thumb_func
  26              	lv_checkbox_draw:
  27              	.LVL0:
  28              	.LFB240:
   1:Lib/lvgl/src/widgets/checkbox/lv_checkbox.c **** /**
   2:Lib/lvgl/src/widgets/checkbox/lv_checkbox.c ****  * @file lv_cb.c
   3:Lib/lvgl/src/widgets/checkbox/lv_checkbox.c ****  *
   4:Lib/lvgl/src/widgets/checkbox/lv_checkbox.c ****  */
   5:Lib/lvgl/src/widgets/checkbox/lv_checkbox.c **** 
   6:Lib/lvgl/src/widgets/checkbox/lv_checkbox.c **** /*********************
   7:Lib/lvgl/src/widgets/checkbox/lv_checkbox.c ****  *      INCLUDES
   8:Lib/lvgl/src/widgets/checkbox/lv_checkbox.c ****  *********************/
   9:Lib/lvgl/src/widgets/checkbox/lv_checkbox.c **** #include "lv_checkbox.h"
  10:Lib/lvgl/src/widgets/checkbox/lv_checkbox.c **** #if LV_USE_CHECKBOX != 0
  11:Lib/lvgl/src/widgets/checkbox/lv_checkbox.c **** 
  12:Lib/lvgl/src/widgets/checkbox/lv_checkbox.c **** #include "../../misc/lv_assert.h"
  13:Lib/lvgl/src/widgets/checkbox/lv_checkbox.c **** #include "../../misc/lv_text_ap.h"
  14:Lib/lvgl/src/widgets/checkbox/lv_checkbox.c **** #include "../../core/lv_group.h"
  15:Lib/lvgl/src/widgets/checkbox/lv_checkbox.c **** #include "../../draw/lv_draw.h"
  16:Lib/lvgl/src/widgets/checkbox/lv_checkbox.c **** #include "../../stdlib/lv_string.h"
  17:Lib/lvgl/src/widgets/checkbox/lv_checkbox.c **** 
  18:Lib/lvgl/src/widgets/checkbox/lv_checkbox.c **** /*********************
  19:Lib/lvgl/src/widgets/checkbox/lv_checkbox.c ****  *      DEFINES
  20:Lib/lvgl/src/widgets/checkbox/lv_checkbox.c ****  *********************/
  21:Lib/lvgl/src/widgets/checkbox/lv_checkbox.c **** #define MY_CLASS &lv_checkbox_class
  22:Lib/lvgl/src/widgets/checkbox/lv_checkbox.c **** 
  23:Lib/lvgl/src/widgets/checkbox/lv_checkbox.c **** /**********************
  24:Lib/lvgl/src/widgets/checkbox/lv_checkbox.c ****  *      TYPEDEFS
  25:Lib/lvgl/src/widgets/checkbox/lv_checkbox.c ****  **********************/
  26:Lib/lvgl/src/widgets/checkbox/lv_checkbox.c **** 
  27:Lib/lvgl/src/widgets/checkbox/lv_checkbox.c **** /**********************
  28:Lib/lvgl/src/widgets/checkbox/lv_checkbox.c ****  *  STATIC PROTOTYPES
  29:Lib/lvgl/src/widgets/checkbox/lv_checkbox.c ****  **********************/
  30:Lib/lvgl/src/widgets/checkbox/lv_checkbox.c **** static void lv_checkbox_constructor(const lv_obj_class_t * class_p, lv_obj_t * obj);
ARM GAS  C:\Users\Alex\AppData\Local\Temp\ccFfvF9D.s 			page 2


  31:Lib/lvgl/src/widgets/checkbox/lv_checkbox.c **** static void lv_checkbox_destructor(const lv_obj_class_t * class_p, lv_obj_t * obj);
  32:Lib/lvgl/src/widgets/checkbox/lv_checkbox.c **** static void lv_checkbox_event(const lv_obj_class_t * class_p, lv_event_t * e);
  33:Lib/lvgl/src/widgets/checkbox/lv_checkbox.c **** static void lv_checkbox_draw(lv_event_t * e);
  34:Lib/lvgl/src/widgets/checkbox/lv_checkbox.c **** 
  35:Lib/lvgl/src/widgets/checkbox/lv_checkbox.c **** /**********************
  36:Lib/lvgl/src/widgets/checkbox/lv_checkbox.c ****  *  STATIC VARIABLES
  37:Lib/lvgl/src/widgets/checkbox/lv_checkbox.c ****  **********************/
  38:Lib/lvgl/src/widgets/checkbox/lv_checkbox.c **** const lv_obj_class_t lv_checkbox_class = {
  39:Lib/lvgl/src/widgets/checkbox/lv_checkbox.c ****     .constructor_cb = lv_checkbox_constructor,
  40:Lib/lvgl/src/widgets/checkbox/lv_checkbox.c ****     .destructor_cb = lv_checkbox_destructor,
  41:Lib/lvgl/src/widgets/checkbox/lv_checkbox.c ****     .event_cb = lv_checkbox_event,
  42:Lib/lvgl/src/widgets/checkbox/lv_checkbox.c ****     .width_def = LV_SIZE_CONTENT,
  43:Lib/lvgl/src/widgets/checkbox/lv_checkbox.c ****     .height_def = LV_SIZE_CONTENT,
  44:Lib/lvgl/src/widgets/checkbox/lv_checkbox.c ****     .group_def = LV_OBJ_CLASS_GROUP_DEF_TRUE,
  45:Lib/lvgl/src/widgets/checkbox/lv_checkbox.c ****     .instance_size = sizeof(lv_checkbox_t),
  46:Lib/lvgl/src/widgets/checkbox/lv_checkbox.c ****     .base_class = &lv_obj_class,
  47:Lib/lvgl/src/widgets/checkbox/lv_checkbox.c ****     .name = "checkbox",
  48:Lib/lvgl/src/widgets/checkbox/lv_checkbox.c **** };
  49:Lib/lvgl/src/widgets/checkbox/lv_checkbox.c **** 
  50:Lib/lvgl/src/widgets/checkbox/lv_checkbox.c **** /**********************
  51:Lib/lvgl/src/widgets/checkbox/lv_checkbox.c ****  *      MACROS
  52:Lib/lvgl/src/widgets/checkbox/lv_checkbox.c ****  **********************/
  53:Lib/lvgl/src/widgets/checkbox/lv_checkbox.c **** 
  54:Lib/lvgl/src/widgets/checkbox/lv_checkbox.c **** /**********************
  55:Lib/lvgl/src/widgets/checkbox/lv_checkbox.c ****  *   GLOBAL FUNCTIONS
  56:Lib/lvgl/src/widgets/checkbox/lv_checkbox.c ****  **********************/
  57:Lib/lvgl/src/widgets/checkbox/lv_checkbox.c **** 
  58:Lib/lvgl/src/widgets/checkbox/lv_checkbox.c **** lv_obj_t * lv_checkbox_create(lv_obj_t * parent)
  59:Lib/lvgl/src/widgets/checkbox/lv_checkbox.c **** {
  60:Lib/lvgl/src/widgets/checkbox/lv_checkbox.c ****     LV_LOG_INFO("begin");
  61:Lib/lvgl/src/widgets/checkbox/lv_checkbox.c ****     lv_obj_t * obj = lv_obj_class_create_obj(MY_CLASS, parent);
  62:Lib/lvgl/src/widgets/checkbox/lv_checkbox.c ****     lv_obj_class_init_obj(obj);
  63:Lib/lvgl/src/widgets/checkbox/lv_checkbox.c ****     return obj;
  64:Lib/lvgl/src/widgets/checkbox/lv_checkbox.c **** }
  65:Lib/lvgl/src/widgets/checkbox/lv_checkbox.c **** 
  66:Lib/lvgl/src/widgets/checkbox/lv_checkbox.c **** /*=====================
  67:Lib/lvgl/src/widgets/checkbox/lv_checkbox.c ****  * Setter functions
  68:Lib/lvgl/src/widgets/checkbox/lv_checkbox.c ****  *====================*/
  69:Lib/lvgl/src/widgets/checkbox/lv_checkbox.c **** 
  70:Lib/lvgl/src/widgets/checkbox/lv_checkbox.c **** void lv_checkbox_set_text(lv_obj_t * obj, const char * txt)
  71:Lib/lvgl/src/widgets/checkbox/lv_checkbox.c **** {
  72:Lib/lvgl/src/widgets/checkbox/lv_checkbox.c ****     lv_checkbox_t * cb = (lv_checkbox_t *)obj;
  73:Lib/lvgl/src/widgets/checkbox/lv_checkbox.c **** 
  74:Lib/lvgl/src/widgets/checkbox/lv_checkbox.c ****     if(NULL != txt) {
  75:Lib/lvgl/src/widgets/checkbox/lv_checkbox.c ****         size_t len;
  76:Lib/lvgl/src/widgets/checkbox/lv_checkbox.c **** 
  77:Lib/lvgl/src/widgets/checkbox/lv_checkbox.c **** #if LV_USE_ARABIC_PERSIAN_CHARS
  78:Lib/lvgl/src/widgets/checkbox/lv_checkbox.c ****         len = _lv_text_ap_calc_bytes_count(txt) + 1;
  79:Lib/lvgl/src/widgets/checkbox/lv_checkbox.c **** #else
  80:Lib/lvgl/src/widgets/checkbox/lv_checkbox.c ****         len = lv_strlen(txt) + 1;
  81:Lib/lvgl/src/widgets/checkbox/lv_checkbox.c **** #endif
  82:Lib/lvgl/src/widgets/checkbox/lv_checkbox.c **** 
  83:Lib/lvgl/src/widgets/checkbox/lv_checkbox.c ****         if(!cb->static_txt) cb->txt = lv_realloc(cb->txt, len);
  84:Lib/lvgl/src/widgets/checkbox/lv_checkbox.c ****         else cb->txt = lv_malloc(len);
  85:Lib/lvgl/src/widgets/checkbox/lv_checkbox.c **** 
  86:Lib/lvgl/src/widgets/checkbox/lv_checkbox.c ****         LV_ASSERT_MALLOC(cb->txt);
  87:Lib/lvgl/src/widgets/checkbox/lv_checkbox.c ****         if(NULL == cb->txt) return;
ARM GAS  C:\Users\Alex\AppData\Local\Temp\ccFfvF9D.s 			page 3


  88:Lib/lvgl/src/widgets/checkbox/lv_checkbox.c **** 
  89:Lib/lvgl/src/widgets/checkbox/lv_checkbox.c **** #if LV_USE_ARABIC_PERSIAN_CHARS
  90:Lib/lvgl/src/widgets/checkbox/lv_checkbox.c ****         _lv_text_ap_proc(txt, cb->txt);
  91:Lib/lvgl/src/widgets/checkbox/lv_checkbox.c **** #else
  92:Lib/lvgl/src/widgets/checkbox/lv_checkbox.c ****         lv_strcpy(cb->txt, txt);
  93:Lib/lvgl/src/widgets/checkbox/lv_checkbox.c **** #endif
  94:Lib/lvgl/src/widgets/checkbox/lv_checkbox.c **** 
  95:Lib/lvgl/src/widgets/checkbox/lv_checkbox.c ****         cb->static_txt = 0;
  96:Lib/lvgl/src/widgets/checkbox/lv_checkbox.c ****     }
  97:Lib/lvgl/src/widgets/checkbox/lv_checkbox.c **** 
  98:Lib/lvgl/src/widgets/checkbox/lv_checkbox.c ****     lv_obj_refresh_self_size(obj);
  99:Lib/lvgl/src/widgets/checkbox/lv_checkbox.c ****     lv_obj_invalidate(obj);
 100:Lib/lvgl/src/widgets/checkbox/lv_checkbox.c **** }
 101:Lib/lvgl/src/widgets/checkbox/lv_checkbox.c **** 
 102:Lib/lvgl/src/widgets/checkbox/lv_checkbox.c **** void lv_checkbox_set_text_static(lv_obj_t * obj, const char * txt)
 103:Lib/lvgl/src/widgets/checkbox/lv_checkbox.c **** {
 104:Lib/lvgl/src/widgets/checkbox/lv_checkbox.c ****     lv_checkbox_t * cb = (lv_checkbox_t *)obj;
 105:Lib/lvgl/src/widgets/checkbox/lv_checkbox.c **** 
 106:Lib/lvgl/src/widgets/checkbox/lv_checkbox.c ****     if(!cb->static_txt) lv_free(cb->txt);
 107:Lib/lvgl/src/widgets/checkbox/lv_checkbox.c **** 
 108:Lib/lvgl/src/widgets/checkbox/lv_checkbox.c ****     cb->txt = (char *)txt;
 109:Lib/lvgl/src/widgets/checkbox/lv_checkbox.c ****     cb->static_txt = 1;
 110:Lib/lvgl/src/widgets/checkbox/lv_checkbox.c **** 
 111:Lib/lvgl/src/widgets/checkbox/lv_checkbox.c ****     lv_obj_refresh_self_size(obj);
 112:Lib/lvgl/src/widgets/checkbox/lv_checkbox.c ****     lv_obj_invalidate(obj);
 113:Lib/lvgl/src/widgets/checkbox/lv_checkbox.c **** }
 114:Lib/lvgl/src/widgets/checkbox/lv_checkbox.c **** 
 115:Lib/lvgl/src/widgets/checkbox/lv_checkbox.c **** /*=====================
 116:Lib/lvgl/src/widgets/checkbox/lv_checkbox.c ****  * Getter functions
 117:Lib/lvgl/src/widgets/checkbox/lv_checkbox.c ****  *====================*/
 118:Lib/lvgl/src/widgets/checkbox/lv_checkbox.c **** 
 119:Lib/lvgl/src/widgets/checkbox/lv_checkbox.c **** const char * lv_checkbox_get_text(const lv_obj_t * obj)
 120:Lib/lvgl/src/widgets/checkbox/lv_checkbox.c **** {
 121:Lib/lvgl/src/widgets/checkbox/lv_checkbox.c ****     lv_checkbox_t * cb = (lv_checkbox_t *)obj;
 122:Lib/lvgl/src/widgets/checkbox/lv_checkbox.c ****     return cb->txt;
 123:Lib/lvgl/src/widgets/checkbox/lv_checkbox.c **** }
 124:Lib/lvgl/src/widgets/checkbox/lv_checkbox.c **** 
 125:Lib/lvgl/src/widgets/checkbox/lv_checkbox.c **** /**********************
 126:Lib/lvgl/src/widgets/checkbox/lv_checkbox.c ****  *   STATIC FUNCTIONS
 127:Lib/lvgl/src/widgets/checkbox/lv_checkbox.c ****  **********************/
 128:Lib/lvgl/src/widgets/checkbox/lv_checkbox.c **** 
 129:Lib/lvgl/src/widgets/checkbox/lv_checkbox.c **** static void lv_checkbox_constructor(const lv_obj_class_t * class_p, lv_obj_t * obj)
 130:Lib/lvgl/src/widgets/checkbox/lv_checkbox.c **** {
 131:Lib/lvgl/src/widgets/checkbox/lv_checkbox.c ****     LV_UNUSED(class_p);
 132:Lib/lvgl/src/widgets/checkbox/lv_checkbox.c ****     LV_TRACE_OBJ_CREATE("begin");
 133:Lib/lvgl/src/widgets/checkbox/lv_checkbox.c **** 
 134:Lib/lvgl/src/widgets/checkbox/lv_checkbox.c ****     lv_checkbox_t * cb = (lv_checkbox_t *)obj;
 135:Lib/lvgl/src/widgets/checkbox/lv_checkbox.c **** 
 136:Lib/lvgl/src/widgets/checkbox/lv_checkbox.c **** #if LV_WIDGETS_HAS_DEFAULT_VALUE
 137:Lib/lvgl/src/widgets/checkbox/lv_checkbox.c ****     cb->txt = (char *)"Check box";
 138:Lib/lvgl/src/widgets/checkbox/lv_checkbox.c ****     cb->static_txt = 1;
 139:Lib/lvgl/src/widgets/checkbox/lv_checkbox.c **** #else
 140:Lib/lvgl/src/widgets/checkbox/lv_checkbox.c ****     cb->txt = (char *)"";
 141:Lib/lvgl/src/widgets/checkbox/lv_checkbox.c ****     cb->static_txt = 1;
 142:Lib/lvgl/src/widgets/checkbox/lv_checkbox.c **** #endif
 143:Lib/lvgl/src/widgets/checkbox/lv_checkbox.c **** 
 144:Lib/lvgl/src/widgets/checkbox/lv_checkbox.c ****     lv_obj_add_flag(obj, LV_OBJ_FLAG_CLICKABLE);
ARM GAS  C:\Users\Alex\AppData\Local\Temp\ccFfvF9D.s 			page 4


 145:Lib/lvgl/src/widgets/checkbox/lv_checkbox.c ****     lv_obj_add_flag(obj, LV_OBJ_FLAG_CHECKABLE);
 146:Lib/lvgl/src/widgets/checkbox/lv_checkbox.c ****     lv_obj_add_flag(obj, LV_OBJ_FLAG_SCROLL_ON_FOCUS);
 147:Lib/lvgl/src/widgets/checkbox/lv_checkbox.c ****     lv_obj_remove_flag(obj, LV_OBJ_FLAG_SCROLLABLE);
 148:Lib/lvgl/src/widgets/checkbox/lv_checkbox.c **** 
 149:Lib/lvgl/src/widgets/checkbox/lv_checkbox.c ****     LV_TRACE_OBJ_CREATE("finished");
 150:Lib/lvgl/src/widgets/checkbox/lv_checkbox.c **** }
 151:Lib/lvgl/src/widgets/checkbox/lv_checkbox.c **** 
 152:Lib/lvgl/src/widgets/checkbox/lv_checkbox.c **** static void lv_checkbox_destructor(const lv_obj_class_t * class_p, lv_obj_t * obj)
 153:Lib/lvgl/src/widgets/checkbox/lv_checkbox.c **** {
 154:Lib/lvgl/src/widgets/checkbox/lv_checkbox.c ****     LV_UNUSED(class_p);
 155:Lib/lvgl/src/widgets/checkbox/lv_checkbox.c ****     LV_TRACE_OBJ_CREATE("begin");
 156:Lib/lvgl/src/widgets/checkbox/lv_checkbox.c **** 
 157:Lib/lvgl/src/widgets/checkbox/lv_checkbox.c ****     lv_checkbox_t * cb = (lv_checkbox_t *)obj;
 158:Lib/lvgl/src/widgets/checkbox/lv_checkbox.c ****     if(!cb->static_txt) {
 159:Lib/lvgl/src/widgets/checkbox/lv_checkbox.c ****         lv_free(cb->txt);
 160:Lib/lvgl/src/widgets/checkbox/lv_checkbox.c ****         cb->txt = NULL;
 161:Lib/lvgl/src/widgets/checkbox/lv_checkbox.c ****     }
 162:Lib/lvgl/src/widgets/checkbox/lv_checkbox.c ****     LV_TRACE_OBJ_CREATE("finished");
 163:Lib/lvgl/src/widgets/checkbox/lv_checkbox.c **** }
 164:Lib/lvgl/src/widgets/checkbox/lv_checkbox.c **** 
 165:Lib/lvgl/src/widgets/checkbox/lv_checkbox.c **** static void lv_checkbox_event(const lv_obj_class_t * class_p, lv_event_t * e)
 166:Lib/lvgl/src/widgets/checkbox/lv_checkbox.c **** {
 167:Lib/lvgl/src/widgets/checkbox/lv_checkbox.c ****     LV_UNUSED(class_p);
 168:Lib/lvgl/src/widgets/checkbox/lv_checkbox.c **** 
 169:Lib/lvgl/src/widgets/checkbox/lv_checkbox.c ****     lv_result_t res;
 170:Lib/lvgl/src/widgets/checkbox/lv_checkbox.c ****     /*Call the ancestor's event handler*/
 171:Lib/lvgl/src/widgets/checkbox/lv_checkbox.c ****     res = lv_obj_event_base(MY_CLASS, e);
 172:Lib/lvgl/src/widgets/checkbox/lv_checkbox.c ****     if(res != LV_RESULT_OK) return;
 173:Lib/lvgl/src/widgets/checkbox/lv_checkbox.c **** 
 174:Lib/lvgl/src/widgets/checkbox/lv_checkbox.c ****     lv_event_code_t code = lv_event_get_code(e);
 175:Lib/lvgl/src/widgets/checkbox/lv_checkbox.c ****     lv_obj_t * obj = lv_event_get_current_target(e);
 176:Lib/lvgl/src/widgets/checkbox/lv_checkbox.c **** 
 177:Lib/lvgl/src/widgets/checkbox/lv_checkbox.c ****     if(code == LV_EVENT_GET_SELF_SIZE) {
 178:Lib/lvgl/src/widgets/checkbox/lv_checkbox.c ****         lv_point_t * p = lv_event_get_param(e);
 179:Lib/lvgl/src/widgets/checkbox/lv_checkbox.c ****         lv_checkbox_t * cb = (lv_checkbox_t *)obj;
 180:Lib/lvgl/src/widgets/checkbox/lv_checkbox.c **** 
 181:Lib/lvgl/src/widgets/checkbox/lv_checkbox.c ****         const lv_font_t * font = lv_obj_get_style_text_font(obj, LV_PART_MAIN);
 182:Lib/lvgl/src/widgets/checkbox/lv_checkbox.c ****         int32_t font_h = lv_font_get_line_height(font);
 183:Lib/lvgl/src/widgets/checkbox/lv_checkbox.c ****         int32_t line_space = lv_obj_get_style_text_line_space(obj, LV_PART_MAIN);
 184:Lib/lvgl/src/widgets/checkbox/lv_checkbox.c ****         int32_t letter_space = lv_obj_get_style_text_letter_space(obj, LV_PART_MAIN);
 185:Lib/lvgl/src/widgets/checkbox/lv_checkbox.c **** 
 186:Lib/lvgl/src/widgets/checkbox/lv_checkbox.c ****         lv_point_t txt_size;
 187:Lib/lvgl/src/widgets/checkbox/lv_checkbox.c ****         lv_text_get_size(&txt_size, cb->txt, font, letter_space, line_space, LV_COORD_MAX, LV_TEXT_
 188:Lib/lvgl/src/widgets/checkbox/lv_checkbox.c **** 
 189:Lib/lvgl/src/widgets/checkbox/lv_checkbox.c ****         int32_t bg_colp = lv_obj_get_style_pad_column(obj, LV_PART_MAIN);
 190:Lib/lvgl/src/widgets/checkbox/lv_checkbox.c ****         int32_t marker_leftp = lv_obj_get_style_pad_left(obj, LV_PART_INDICATOR);
 191:Lib/lvgl/src/widgets/checkbox/lv_checkbox.c ****         int32_t marker_rightp = lv_obj_get_style_pad_right(obj, LV_PART_INDICATOR);
 192:Lib/lvgl/src/widgets/checkbox/lv_checkbox.c ****         int32_t marker_topp = lv_obj_get_style_pad_top(obj, LV_PART_INDICATOR);
 193:Lib/lvgl/src/widgets/checkbox/lv_checkbox.c ****         int32_t marker_bottomp = lv_obj_get_style_pad_bottom(obj, LV_PART_INDICATOR);
 194:Lib/lvgl/src/widgets/checkbox/lv_checkbox.c ****         lv_point_t marker_size;
 195:Lib/lvgl/src/widgets/checkbox/lv_checkbox.c ****         marker_size.x = font_h + marker_leftp + marker_rightp;
 196:Lib/lvgl/src/widgets/checkbox/lv_checkbox.c ****         marker_size.y = font_h + marker_topp + marker_bottomp;
 197:Lib/lvgl/src/widgets/checkbox/lv_checkbox.c **** 
 198:Lib/lvgl/src/widgets/checkbox/lv_checkbox.c ****         p->x = marker_size.x + txt_size.x + bg_colp;
 199:Lib/lvgl/src/widgets/checkbox/lv_checkbox.c ****         p->y = LV_MAX(marker_size.y, txt_size.y);
 200:Lib/lvgl/src/widgets/checkbox/lv_checkbox.c ****     }
 201:Lib/lvgl/src/widgets/checkbox/lv_checkbox.c ****     else if(code == LV_EVENT_REFR_EXT_DRAW_SIZE) {
ARM GAS  C:\Users\Alex\AppData\Local\Temp\ccFfvF9D.s 			page 5


 202:Lib/lvgl/src/widgets/checkbox/lv_checkbox.c ****         int32_t * s = lv_event_get_param(e);
 203:Lib/lvgl/src/widgets/checkbox/lv_checkbox.c ****         int32_t m = lv_obj_calculate_ext_draw_size(obj, LV_PART_INDICATOR);
 204:Lib/lvgl/src/widgets/checkbox/lv_checkbox.c ****         *s = LV_MAX(*s, m);
 205:Lib/lvgl/src/widgets/checkbox/lv_checkbox.c ****     }
 206:Lib/lvgl/src/widgets/checkbox/lv_checkbox.c ****     else if(code == LV_EVENT_DRAW_MAIN) {
 207:Lib/lvgl/src/widgets/checkbox/lv_checkbox.c ****         lv_checkbox_draw(e);
 208:Lib/lvgl/src/widgets/checkbox/lv_checkbox.c ****     }
 209:Lib/lvgl/src/widgets/checkbox/lv_checkbox.c **** }
 210:Lib/lvgl/src/widgets/checkbox/lv_checkbox.c **** 
 211:Lib/lvgl/src/widgets/checkbox/lv_checkbox.c **** static void lv_checkbox_draw(lv_event_t * e)
 212:Lib/lvgl/src/widgets/checkbox/lv_checkbox.c **** {
  29              		.loc 1 212 1 view -0
  30              		.cfi_startproc
  31              		@ args = 0, pretend = 0, frame = 280
  32              		@ frame_needed = 0, uses_anonymous_args = 0
  33              		.loc 1 212 1 is_stmt 0 view .LVU1
  34 0000 2DE9F04F 		push	{r4, r5, r6, r7, r8, r9, r10, fp, lr}
  35              	.LCFI0:
  36              		.cfi_def_cfa_offset 36
  37              		.cfi_offset 4, -36
  38              		.cfi_offset 5, -32
  39              		.cfi_offset 6, -28
  40              		.cfi_offset 7, -24
  41              		.cfi_offset 8, -20
  42              		.cfi_offset 9, -16
  43              		.cfi_offset 10, -12
  44              		.cfi_offset 11, -8
  45              		.cfi_offset 14, -4
  46 0004 CBB0     		sub	sp, sp, #300
  47              	.LCFI1:
  48              		.cfi_def_cfa_offset 336
  49 0006 0546     		mov	r5, r0
 213:Lib/lvgl/src/widgets/checkbox/lv_checkbox.c ****     lv_obj_t * obj = lv_event_get_current_target(e);
  50              		.loc 1 213 5 is_stmt 1 view .LVU2
  51              		.loc 1 213 22 is_stmt 0 view .LVU3
  52 0008 FFF7FEFF 		bl	lv_event_get_current_target
  53              	.LVL1:
  54              		.loc 1 213 22 view .LVU4
  55 000c 0446     		mov	r4, r0
  56              	.LVL2:
 214:Lib/lvgl/src/widgets/checkbox/lv_checkbox.c ****     lv_checkbox_t * cb = (lv_checkbox_t *)obj;
  57              		.loc 1 214 5 is_stmt 1 view .LVU5
 215:Lib/lvgl/src/widgets/checkbox/lv_checkbox.c **** 
 216:Lib/lvgl/src/widgets/checkbox/lv_checkbox.c ****     lv_layer_t * layer = lv_event_get_layer(e);
  58              		.loc 1 216 5 view .LVU6
  59              		.loc 1 216 26 is_stmt 0 view .LVU7
  60 000e 2846     		mov	r0, r5
  61              	.LVL3:
  62              		.loc 1 216 26 view .LVU8
  63 0010 FFF7FEFF 		bl	lv_event_get_layer
  64              	.LVL4:
  65 0014 0590     		str	r0, [sp, #20]
  66              	.LVL5:
 217:Lib/lvgl/src/widgets/checkbox/lv_checkbox.c ****     const lv_font_t * font = lv_obj_get_style_text_font(obj, LV_PART_MAIN);
  67              		.loc 1 217 5 is_stmt 1 view .LVU9
  68              	.LBB58:
  69              	.LBI58:
ARM GAS  C:\Users\Alex\AppData\Local\Temp\ccFfvF9D.s 			page 6


  70              		.file 2 "Lib/lvgl/src/widgets/checkbox/../../core/lv_obj_style_gen.h"
   1:Lib/lvgl/src/widgets/checkbox/../../core/lv_obj_style_gen.h **** 
   2:Lib/lvgl/src/widgets/checkbox/../../core/lv_obj_style_gen.h **** /*
   3:Lib/lvgl/src/widgets/checkbox/../../core/lv_obj_style_gen.h ****  **********************************************************************
   4:Lib/lvgl/src/widgets/checkbox/../../core/lv_obj_style_gen.h ****  *                            DO NOT EDIT
   5:Lib/lvgl/src/widgets/checkbox/../../core/lv_obj_style_gen.h ****  * This file is automatically generated by "style_api_gen.py"
   6:Lib/lvgl/src/widgets/checkbox/../../core/lv_obj_style_gen.h ****  **********************************************************************
   7:Lib/lvgl/src/widgets/checkbox/../../core/lv_obj_style_gen.h ****  */
   8:Lib/lvgl/src/widgets/checkbox/../../core/lv_obj_style_gen.h **** 
   9:Lib/lvgl/src/widgets/checkbox/../../core/lv_obj_style_gen.h **** #ifndef LV_OBJ_STYLE_GEN_H
  10:Lib/lvgl/src/widgets/checkbox/../../core/lv_obj_style_gen.h **** #define LV_OBJ_STYLE_GEN_H
  11:Lib/lvgl/src/widgets/checkbox/../../core/lv_obj_style_gen.h **** 
  12:Lib/lvgl/src/widgets/checkbox/../../core/lv_obj_style_gen.h **** #include "../misc/lv_area.h"
  13:Lib/lvgl/src/widgets/checkbox/../../core/lv_obj_style_gen.h **** #include "../misc/lv_style.h"
  14:Lib/lvgl/src/widgets/checkbox/../../core/lv_obj_style_gen.h **** #include "../core/lv_obj_style.h"
  15:Lib/lvgl/src/widgets/checkbox/../../core/lv_obj_style_gen.h **** 
  16:Lib/lvgl/src/widgets/checkbox/../../core/lv_obj_style_gen.h **** static inline int32_t lv_obj_get_style_width(const lv_obj_t * obj, uint32_t part)
  17:Lib/lvgl/src/widgets/checkbox/../../core/lv_obj_style_gen.h **** {
  18:Lib/lvgl/src/widgets/checkbox/../../core/lv_obj_style_gen.h ****     lv_style_value_t v = lv_obj_get_style_prop(obj, part, LV_STYLE_WIDTH);
  19:Lib/lvgl/src/widgets/checkbox/../../core/lv_obj_style_gen.h ****     return (int32_t)v.num;
  20:Lib/lvgl/src/widgets/checkbox/../../core/lv_obj_style_gen.h **** }
  21:Lib/lvgl/src/widgets/checkbox/../../core/lv_obj_style_gen.h **** 
  22:Lib/lvgl/src/widgets/checkbox/../../core/lv_obj_style_gen.h **** static inline int32_t lv_obj_get_style_min_width(const lv_obj_t * obj, uint32_t part)
  23:Lib/lvgl/src/widgets/checkbox/../../core/lv_obj_style_gen.h **** {
  24:Lib/lvgl/src/widgets/checkbox/../../core/lv_obj_style_gen.h ****     lv_style_value_t v = lv_obj_get_style_prop(obj, part, LV_STYLE_MIN_WIDTH);
  25:Lib/lvgl/src/widgets/checkbox/../../core/lv_obj_style_gen.h ****     return (int32_t)v.num;
  26:Lib/lvgl/src/widgets/checkbox/../../core/lv_obj_style_gen.h **** }
  27:Lib/lvgl/src/widgets/checkbox/../../core/lv_obj_style_gen.h **** 
  28:Lib/lvgl/src/widgets/checkbox/../../core/lv_obj_style_gen.h **** static inline int32_t lv_obj_get_style_max_width(const lv_obj_t * obj, uint32_t part)
  29:Lib/lvgl/src/widgets/checkbox/../../core/lv_obj_style_gen.h **** {
  30:Lib/lvgl/src/widgets/checkbox/../../core/lv_obj_style_gen.h ****     lv_style_value_t v = lv_obj_get_style_prop(obj, part, LV_STYLE_MAX_WIDTH);
  31:Lib/lvgl/src/widgets/checkbox/../../core/lv_obj_style_gen.h ****     return (int32_t)v.num;
  32:Lib/lvgl/src/widgets/checkbox/../../core/lv_obj_style_gen.h **** }
  33:Lib/lvgl/src/widgets/checkbox/../../core/lv_obj_style_gen.h **** 
  34:Lib/lvgl/src/widgets/checkbox/../../core/lv_obj_style_gen.h **** static inline int32_t lv_obj_get_style_height(const lv_obj_t * obj, uint32_t part)
  35:Lib/lvgl/src/widgets/checkbox/../../core/lv_obj_style_gen.h **** {
  36:Lib/lvgl/src/widgets/checkbox/../../core/lv_obj_style_gen.h ****     lv_style_value_t v = lv_obj_get_style_prop(obj, part, LV_STYLE_HEIGHT);
  37:Lib/lvgl/src/widgets/checkbox/../../core/lv_obj_style_gen.h ****     return (int32_t)v.num;
  38:Lib/lvgl/src/widgets/checkbox/../../core/lv_obj_style_gen.h **** }
  39:Lib/lvgl/src/widgets/checkbox/../../core/lv_obj_style_gen.h **** 
  40:Lib/lvgl/src/widgets/checkbox/../../core/lv_obj_style_gen.h **** static inline int32_t lv_obj_get_style_min_height(const lv_obj_t * obj, uint32_t part)
  41:Lib/lvgl/src/widgets/checkbox/../../core/lv_obj_style_gen.h **** {
  42:Lib/lvgl/src/widgets/checkbox/../../core/lv_obj_style_gen.h ****     lv_style_value_t v = lv_obj_get_style_prop(obj, part, LV_STYLE_MIN_HEIGHT);
  43:Lib/lvgl/src/widgets/checkbox/../../core/lv_obj_style_gen.h ****     return (int32_t)v.num;
  44:Lib/lvgl/src/widgets/checkbox/../../core/lv_obj_style_gen.h **** }
  45:Lib/lvgl/src/widgets/checkbox/../../core/lv_obj_style_gen.h **** 
  46:Lib/lvgl/src/widgets/checkbox/../../core/lv_obj_style_gen.h **** static inline int32_t lv_obj_get_style_max_height(const lv_obj_t * obj, uint32_t part)
  47:Lib/lvgl/src/widgets/checkbox/../../core/lv_obj_style_gen.h **** {
  48:Lib/lvgl/src/widgets/checkbox/../../core/lv_obj_style_gen.h ****     lv_style_value_t v = lv_obj_get_style_prop(obj, part, LV_STYLE_MAX_HEIGHT);
  49:Lib/lvgl/src/widgets/checkbox/../../core/lv_obj_style_gen.h ****     return (int32_t)v.num;
  50:Lib/lvgl/src/widgets/checkbox/../../core/lv_obj_style_gen.h **** }
  51:Lib/lvgl/src/widgets/checkbox/../../core/lv_obj_style_gen.h **** 
  52:Lib/lvgl/src/widgets/checkbox/../../core/lv_obj_style_gen.h **** static inline int32_t lv_obj_get_style_length(const lv_obj_t * obj, uint32_t part)
  53:Lib/lvgl/src/widgets/checkbox/../../core/lv_obj_style_gen.h **** {
  54:Lib/lvgl/src/widgets/checkbox/../../core/lv_obj_style_gen.h ****     lv_style_value_t v = lv_obj_get_style_prop(obj, part, LV_STYLE_LENGTH);
  55:Lib/lvgl/src/widgets/checkbox/../../core/lv_obj_style_gen.h ****     return (int32_t)v.num;
  56:Lib/lvgl/src/widgets/checkbox/../../core/lv_obj_style_gen.h **** }
ARM GAS  C:\Users\Alex\AppData\Local\Temp\ccFfvF9D.s 			page 7


  57:Lib/lvgl/src/widgets/checkbox/../../core/lv_obj_style_gen.h **** 
  58:Lib/lvgl/src/widgets/checkbox/../../core/lv_obj_style_gen.h **** static inline int32_t lv_obj_get_style_x(const lv_obj_t * obj, uint32_t part)
  59:Lib/lvgl/src/widgets/checkbox/../../core/lv_obj_style_gen.h **** {
  60:Lib/lvgl/src/widgets/checkbox/../../core/lv_obj_style_gen.h ****     lv_style_value_t v = lv_obj_get_style_prop(obj, part, LV_STYLE_X);
  61:Lib/lvgl/src/widgets/checkbox/../../core/lv_obj_style_gen.h ****     return (int32_t)v.num;
  62:Lib/lvgl/src/widgets/checkbox/../../core/lv_obj_style_gen.h **** }
  63:Lib/lvgl/src/widgets/checkbox/../../core/lv_obj_style_gen.h **** 
  64:Lib/lvgl/src/widgets/checkbox/../../core/lv_obj_style_gen.h **** static inline int32_t lv_obj_get_style_y(const lv_obj_t * obj, uint32_t part)
  65:Lib/lvgl/src/widgets/checkbox/../../core/lv_obj_style_gen.h **** {
  66:Lib/lvgl/src/widgets/checkbox/../../core/lv_obj_style_gen.h ****     lv_style_value_t v = lv_obj_get_style_prop(obj, part, LV_STYLE_Y);
  67:Lib/lvgl/src/widgets/checkbox/../../core/lv_obj_style_gen.h ****     return (int32_t)v.num;
  68:Lib/lvgl/src/widgets/checkbox/../../core/lv_obj_style_gen.h **** }
  69:Lib/lvgl/src/widgets/checkbox/../../core/lv_obj_style_gen.h **** 
  70:Lib/lvgl/src/widgets/checkbox/../../core/lv_obj_style_gen.h **** static inline lv_align_t lv_obj_get_style_align(const lv_obj_t * obj, uint32_t part)
  71:Lib/lvgl/src/widgets/checkbox/../../core/lv_obj_style_gen.h **** {
  72:Lib/lvgl/src/widgets/checkbox/../../core/lv_obj_style_gen.h ****     lv_style_value_t v = lv_obj_get_style_prop(obj, part, LV_STYLE_ALIGN);
  73:Lib/lvgl/src/widgets/checkbox/../../core/lv_obj_style_gen.h ****     return (lv_align_t)v.num;
  74:Lib/lvgl/src/widgets/checkbox/../../core/lv_obj_style_gen.h **** }
  75:Lib/lvgl/src/widgets/checkbox/../../core/lv_obj_style_gen.h **** 
  76:Lib/lvgl/src/widgets/checkbox/../../core/lv_obj_style_gen.h **** static inline int32_t lv_obj_get_style_transform_width(const lv_obj_t * obj, uint32_t part)
  77:Lib/lvgl/src/widgets/checkbox/../../core/lv_obj_style_gen.h **** {
  78:Lib/lvgl/src/widgets/checkbox/../../core/lv_obj_style_gen.h ****     lv_style_value_t v = lv_obj_get_style_prop(obj, part, LV_STYLE_TRANSFORM_WIDTH);
  79:Lib/lvgl/src/widgets/checkbox/../../core/lv_obj_style_gen.h ****     return (int32_t)v.num;
  80:Lib/lvgl/src/widgets/checkbox/../../core/lv_obj_style_gen.h **** }
  81:Lib/lvgl/src/widgets/checkbox/../../core/lv_obj_style_gen.h **** 
  82:Lib/lvgl/src/widgets/checkbox/../../core/lv_obj_style_gen.h **** static inline int32_t lv_obj_get_style_transform_height(const lv_obj_t * obj, uint32_t part)
  83:Lib/lvgl/src/widgets/checkbox/../../core/lv_obj_style_gen.h **** {
  84:Lib/lvgl/src/widgets/checkbox/../../core/lv_obj_style_gen.h ****     lv_style_value_t v = lv_obj_get_style_prop(obj, part, LV_STYLE_TRANSFORM_HEIGHT);
  85:Lib/lvgl/src/widgets/checkbox/../../core/lv_obj_style_gen.h ****     return (int32_t)v.num;
  86:Lib/lvgl/src/widgets/checkbox/../../core/lv_obj_style_gen.h **** }
  87:Lib/lvgl/src/widgets/checkbox/../../core/lv_obj_style_gen.h **** 
  88:Lib/lvgl/src/widgets/checkbox/../../core/lv_obj_style_gen.h **** static inline int32_t lv_obj_get_style_translate_x(const lv_obj_t * obj, uint32_t part)
  89:Lib/lvgl/src/widgets/checkbox/../../core/lv_obj_style_gen.h **** {
  90:Lib/lvgl/src/widgets/checkbox/../../core/lv_obj_style_gen.h ****     lv_style_value_t v = lv_obj_get_style_prop(obj, part, LV_STYLE_TRANSLATE_X);
  91:Lib/lvgl/src/widgets/checkbox/../../core/lv_obj_style_gen.h ****     return (int32_t)v.num;
  92:Lib/lvgl/src/widgets/checkbox/../../core/lv_obj_style_gen.h **** }
  93:Lib/lvgl/src/widgets/checkbox/../../core/lv_obj_style_gen.h **** 
  94:Lib/lvgl/src/widgets/checkbox/../../core/lv_obj_style_gen.h **** static inline int32_t lv_obj_get_style_translate_y(const lv_obj_t * obj, uint32_t part)
  95:Lib/lvgl/src/widgets/checkbox/../../core/lv_obj_style_gen.h **** {
  96:Lib/lvgl/src/widgets/checkbox/../../core/lv_obj_style_gen.h ****     lv_style_value_t v = lv_obj_get_style_prop(obj, part, LV_STYLE_TRANSLATE_Y);
  97:Lib/lvgl/src/widgets/checkbox/../../core/lv_obj_style_gen.h ****     return (int32_t)v.num;
  98:Lib/lvgl/src/widgets/checkbox/../../core/lv_obj_style_gen.h **** }
  99:Lib/lvgl/src/widgets/checkbox/../../core/lv_obj_style_gen.h **** 
 100:Lib/lvgl/src/widgets/checkbox/../../core/lv_obj_style_gen.h **** static inline int32_t lv_obj_get_style_transform_scale_x(const lv_obj_t * obj, uint32_t part)
 101:Lib/lvgl/src/widgets/checkbox/../../core/lv_obj_style_gen.h **** {
 102:Lib/lvgl/src/widgets/checkbox/../../core/lv_obj_style_gen.h ****     lv_style_value_t v = lv_obj_get_style_prop(obj, part, LV_STYLE_TRANSFORM_SCALE_X);
 103:Lib/lvgl/src/widgets/checkbox/../../core/lv_obj_style_gen.h ****     return (int32_t)v.num;
 104:Lib/lvgl/src/widgets/checkbox/../../core/lv_obj_style_gen.h **** }
 105:Lib/lvgl/src/widgets/checkbox/../../core/lv_obj_style_gen.h **** 
 106:Lib/lvgl/src/widgets/checkbox/../../core/lv_obj_style_gen.h **** static inline int32_t lv_obj_get_style_transform_scale_y(const lv_obj_t * obj, uint32_t part)
 107:Lib/lvgl/src/widgets/checkbox/../../core/lv_obj_style_gen.h **** {
 108:Lib/lvgl/src/widgets/checkbox/../../core/lv_obj_style_gen.h ****     lv_style_value_t v = lv_obj_get_style_prop(obj, part, LV_STYLE_TRANSFORM_SCALE_Y);
 109:Lib/lvgl/src/widgets/checkbox/../../core/lv_obj_style_gen.h ****     return (int32_t)v.num;
 110:Lib/lvgl/src/widgets/checkbox/../../core/lv_obj_style_gen.h **** }
 111:Lib/lvgl/src/widgets/checkbox/../../core/lv_obj_style_gen.h **** 
 112:Lib/lvgl/src/widgets/checkbox/../../core/lv_obj_style_gen.h **** static inline int32_t lv_obj_get_style_transform_rotation(const lv_obj_t * obj, uint32_t part)
 113:Lib/lvgl/src/widgets/checkbox/../../core/lv_obj_style_gen.h **** {
ARM GAS  C:\Users\Alex\AppData\Local\Temp\ccFfvF9D.s 			page 8


 114:Lib/lvgl/src/widgets/checkbox/../../core/lv_obj_style_gen.h ****     lv_style_value_t v = lv_obj_get_style_prop(obj, part, LV_STYLE_TRANSFORM_ROTATION);
 115:Lib/lvgl/src/widgets/checkbox/../../core/lv_obj_style_gen.h ****     return (int32_t)v.num;
 116:Lib/lvgl/src/widgets/checkbox/../../core/lv_obj_style_gen.h **** }
 117:Lib/lvgl/src/widgets/checkbox/../../core/lv_obj_style_gen.h **** 
 118:Lib/lvgl/src/widgets/checkbox/../../core/lv_obj_style_gen.h **** static inline int32_t lv_obj_get_style_transform_pivot_x(const lv_obj_t * obj, uint32_t part)
 119:Lib/lvgl/src/widgets/checkbox/../../core/lv_obj_style_gen.h **** {
 120:Lib/lvgl/src/widgets/checkbox/../../core/lv_obj_style_gen.h ****     lv_style_value_t v = lv_obj_get_style_prop(obj, part, LV_STYLE_TRANSFORM_PIVOT_X);
 121:Lib/lvgl/src/widgets/checkbox/../../core/lv_obj_style_gen.h ****     return (int32_t)v.num;
 122:Lib/lvgl/src/widgets/checkbox/../../core/lv_obj_style_gen.h **** }
 123:Lib/lvgl/src/widgets/checkbox/../../core/lv_obj_style_gen.h **** 
 124:Lib/lvgl/src/widgets/checkbox/../../core/lv_obj_style_gen.h **** static inline int32_t lv_obj_get_style_transform_pivot_y(const lv_obj_t * obj, uint32_t part)
 125:Lib/lvgl/src/widgets/checkbox/../../core/lv_obj_style_gen.h **** {
 126:Lib/lvgl/src/widgets/checkbox/../../core/lv_obj_style_gen.h ****     lv_style_value_t v = lv_obj_get_style_prop(obj, part, LV_STYLE_TRANSFORM_PIVOT_Y);
 127:Lib/lvgl/src/widgets/checkbox/../../core/lv_obj_style_gen.h ****     return (int32_t)v.num;
 128:Lib/lvgl/src/widgets/checkbox/../../core/lv_obj_style_gen.h **** }
 129:Lib/lvgl/src/widgets/checkbox/../../core/lv_obj_style_gen.h **** 
 130:Lib/lvgl/src/widgets/checkbox/../../core/lv_obj_style_gen.h **** static inline int32_t lv_obj_get_style_transform_skew_x(const lv_obj_t * obj, uint32_t part)
 131:Lib/lvgl/src/widgets/checkbox/../../core/lv_obj_style_gen.h **** {
 132:Lib/lvgl/src/widgets/checkbox/../../core/lv_obj_style_gen.h ****     lv_style_value_t v = lv_obj_get_style_prop(obj, part, LV_STYLE_TRANSFORM_SKEW_X);
 133:Lib/lvgl/src/widgets/checkbox/../../core/lv_obj_style_gen.h ****     return (int32_t)v.num;
 134:Lib/lvgl/src/widgets/checkbox/../../core/lv_obj_style_gen.h **** }
 135:Lib/lvgl/src/widgets/checkbox/../../core/lv_obj_style_gen.h **** 
 136:Lib/lvgl/src/widgets/checkbox/../../core/lv_obj_style_gen.h **** static inline int32_t lv_obj_get_style_transform_skew_y(const lv_obj_t * obj, uint32_t part)
 137:Lib/lvgl/src/widgets/checkbox/../../core/lv_obj_style_gen.h **** {
 138:Lib/lvgl/src/widgets/checkbox/../../core/lv_obj_style_gen.h ****     lv_style_value_t v = lv_obj_get_style_prop(obj, part, LV_STYLE_TRANSFORM_SKEW_Y);
 139:Lib/lvgl/src/widgets/checkbox/../../core/lv_obj_style_gen.h ****     return (int32_t)v.num;
 140:Lib/lvgl/src/widgets/checkbox/../../core/lv_obj_style_gen.h **** }
 141:Lib/lvgl/src/widgets/checkbox/../../core/lv_obj_style_gen.h **** 
 142:Lib/lvgl/src/widgets/checkbox/../../core/lv_obj_style_gen.h **** static inline int32_t lv_obj_get_style_pad_top(const lv_obj_t * obj, uint32_t part)
 143:Lib/lvgl/src/widgets/checkbox/../../core/lv_obj_style_gen.h **** {
 144:Lib/lvgl/src/widgets/checkbox/../../core/lv_obj_style_gen.h ****     lv_style_value_t v = lv_obj_get_style_prop(obj, part, LV_STYLE_PAD_TOP);
 145:Lib/lvgl/src/widgets/checkbox/../../core/lv_obj_style_gen.h ****     return (int32_t)v.num;
 146:Lib/lvgl/src/widgets/checkbox/../../core/lv_obj_style_gen.h **** }
 147:Lib/lvgl/src/widgets/checkbox/../../core/lv_obj_style_gen.h **** 
 148:Lib/lvgl/src/widgets/checkbox/../../core/lv_obj_style_gen.h **** static inline int32_t lv_obj_get_style_pad_bottom(const lv_obj_t * obj, uint32_t part)
 149:Lib/lvgl/src/widgets/checkbox/../../core/lv_obj_style_gen.h **** {
 150:Lib/lvgl/src/widgets/checkbox/../../core/lv_obj_style_gen.h ****     lv_style_value_t v = lv_obj_get_style_prop(obj, part, LV_STYLE_PAD_BOTTOM);
 151:Lib/lvgl/src/widgets/checkbox/../../core/lv_obj_style_gen.h ****     return (int32_t)v.num;
 152:Lib/lvgl/src/widgets/checkbox/../../core/lv_obj_style_gen.h **** }
 153:Lib/lvgl/src/widgets/checkbox/../../core/lv_obj_style_gen.h **** 
 154:Lib/lvgl/src/widgets/checkbox/../../core/lv_obj_style_gen.h **** static inline int32_t lv_obj_get_style_pad_left(const lv_obj_t * obj, uint32_t part)
 155:Lib/lvgl/src/widgets/checkbox/../../core/lv_obj_style_gen.h **** {
 156:Lib/lvgl/src/widgets/checkbox/../../core/lv_obj_style_gen.h ****     lv_style_value_t v = lv_obj_get_style_prop(obj, part, LV_STYLE_PAD_LEFT);
 157:Lib/lvgl/src/widgets/checkbox/../../core/lv_obj_style_gen.h ****     return (int32_t)v.num;
 158:Lib/lvgl/src/widgets/checkbox/../../core/lv_obj_style_gen.h **** }
 159:Lib/lvgl/src/widgets/checkbox/../../core/lv_obj_style_gen.h **** 
 160:Lib/lvgl/src/widgets/checkbox/../../core/lv_obj_style_gen.h **** static inline int32_t lv_obj_get_style_pad_right(const lv_obj_t * obj, uint32_t part)
 161:Lib/lvgl/src/widgets/checkbox/../../core/lv_obj_style_gen.h **** {
 162:Lib/lvgl/src/widgets/checkbox/../../core/lv_obj_style_gen.h ****     lv_style_value_t v = lv_obj_get_style_prop(obj, part, LV_STYLE_PAD_RIGHT);
 163:Lib/lvgl/src/widgets/checkbox/../../core/lv_obj_style_gen.h ****     return (int32_t)v.num;
 164:Lib/lvgl/src/widgets/checkbox/../../core/lv_obj_style_gen.h **** }
 165:Lib/lvgl/src/widgets/checkbox/../../core/lv_obj_style_gen.h **** 
 166:Lib/lvgl/src/widgets/checkbox/../../core/lv_obj_style_gen.h **** static inline int32_t lv_obj_get_style_pad_row(const lv_obj_t * obj, uint32_t part)
 167:Lib/lvgl/src/widgets/checkbox/../../core/lv_obj_style_gen.h **** {
 168:Lib/lvgl/src/widgets/checkbox/../../core/lv_obj_style_gen.h ****     lv_style_value_t v = lv_obj_get_style_prop(obj, part, LV_STYLE_PAD_ROW);
 169:Lib/lvgl/src/widgets/checkbox/../../core/lv_obj_style_gen.h ****     return (int32_t)v.num;
 170:Lib/lvgl/src/widgets/checkbox/../../core/lv_obj_style_gen.h **** }
ARM GAS  C:\Users\Alex\AppData\Local\Temp\ccFfvF9D.s 			page 9


 171:Lib/lvgl/src/widgets/checkbox/../../core/lv_obj_style_gen.h **** 
 172:Lib/lvgl/src/widgets/checkbox/../../core/lv_obj_style_gen.h **** static inline int32_t lv_obj_get_style_pad_column(const lv_obj_t * obj, uint32_t part)
 173:Lib/lvgl/src/widgets/checkbox/../../core/lv_obj_style_gen.h **** {
 174:Lib/lvgl/src/widgets/checkbox/../../core/lv_obj_style_gen.h ****     lv_style_value_t v = lv_obj_get_style_prop(obj, part, LV_STYLE_PAD_COLUMN);
 175:Lib/lvgl/src/widgets/checkbox/../../core/lv_obj_style_gen.h ****     return (int32_t)v.num;
 176:Lib/lvgl/src/widgets/checkbox/../../core/lv_obj_style_gen.h **** }
 177:Lib/lvgl/src/widgets/checkbox/../../core/lv_obj_style_gen.h **** 
 178:Lib/lvgl/src/widgets/checkbox/../../core/lv_obj_style_gen.h **** static inline int32_t lv_obj_get_style_margin_top(const lv_obj_t * obj, uint32_t part)
 179:Lib/lvgl/src/widgets/checkbox/../../core/lv_obj_style_gen.h **** {
 180:Lib/lvgl/src/widgets/checkbox/../../core/lv_obj_style_gen.h ****     lv_style_value_t v = lv_obj_get_style_prop(obj, part, LV_STYLE_MARGIN_TOP);
 181:Lib/lvgl/src/widgets/checkbox/../../core/lv_obj_style_gen.h ****     return (int32_t)v.num;
 182:Lib/lvgl/src/widgets/checkbox/../../core/lv_obj_style_gen.h **** }
 183:Lib/lvgl/src/widgets/checkbox/../../core/lv_obj_style_gen.h **** 
 184:Lib/lvgl/src/widgets/checkbox/../../core/lv_obj_style_gen.h **** static inline int32_t lv_obj_get_style_margin_bottom(const lv_obj_t * obj, uint32_t part)
 185:Lib/lvgl/src/widgets/checkbox/../../core/lv_obj_style_gen.h **** {
 186:Lib/lvgl/src/widgets/checkbox/../../core/lv_obj_style_gen.h ****     lv_style_value_t v = lv_obj_get_style_prop(obj, part, LV_STYLE_MARGIN_BOTTOM);
 187:Lib/lvgl/src/widgets/checkbox/../../core/lv_obj_style_gen.h ****     return (int32_t)v.num;
 188:Lib/lvgl/src/widgets/checkbox/../../core/lv_obj_style_gen.h **** }
 189:Lib/lvgl/src/widgets/checkbox/../../core/lv_obj_style_gen.h **** 
 190:Lib/lvgl/src/widgets/checkbox/../../core/lv_obj_style_gen.h **** static inline int32_t lv_obj_get_style_margin_left(const lv_obj_t * obj, uint32_t part)
 191:Lib/lvgl/src/widgets/checkbox/../../core/lv_obj_style_gen.h **** {
 192:Lib/lvgl/src/widgets/checkbox/../../core/lv_obj_style_gen.h ****     lv_style_value_t v = lv_obj_get_style_prop(obj, part, LV_STYLE_MARGIN_LEFT);
 193:Lib/lvgl/src/widgets/checkbox/../../core/lv_obj_style_gen.h ****     return (int32_t)v.num;
 194:Lib/lvgl/src/widgets/checkbox/../../core/lv_obj_style_gen.h **** }
 195:Lib/lvgl/src/widgets/checkbox/../../core/lv_obj_style_gen.h **** 
 196:Lib/lvgl/src/widgets/checkbox/../../core/lv_obj_style_gen.h **** static inline int32_t lv_obj_get_style_margin_right(const lv_obj_t * obj, uint32_t part)
 197:Lib/lvgl/src/widgets/checkbox/../../core/lv_obj_style_gen.h **** {
 198:Lib/lvgl/src/widgets/checkbox/../../core/lv_obj_style_gen.h ****     lv_style_value_t v = lv_obj_get_style_prop(obj, part, LV_STYLE_MARGIN_RIGHT);
 199:Lib/lvgl/src/widgets/checkbox/../../core/lv_obj_style_gen.h ****     return (int32_t)v.num;
 200:Lib/lvgl/src/widgets/checkbox/../../core/lv_obj_style_gen.h **** }
 201:Lib/lvgl/src/widgets/checkbox/../../core/lv_obj_style_gen.h **** 
 202:Lib/lvgl/src/widgets/checkbox/../../core/lv_obj_style_gen.h **** static inline lv_color_t lv_obj_get_style_bg_color(const lv_obj_t * obj, uint32_t part)
 203:Lib/lvgl/src/widgets/checkbox/../../core/lv_obj_style_gen.h **** {
 204:Lib/lvgl/src/widgets/checkbox/../../core/lv_obj_style_gen.h ****     lv_style_value_t v = lv_obj_get_style_prop(obj, part, LV_STYLE_BG_COLOR);
 205:Lib/lvgl/src/widgets/checkbox/../../core/lv_obj_style_gen.h ****     return v.color;
 206:Lib/lvgl/src/widgets/checkbox/../../core/lv_obj_style_gen.h **** }
 207:Lib/lvgl/src/widgets/checkbox/../../core/lv_obj_style_gen.h **** 
 208:Lib/lvgl/src/widgets/checkbox/../../core/lv_obj_style_gen.h **** static inline lv_color_t lv_obj_get_style_bg_color_filtered(const lv_obj_t * obj, uint32_t part)
 209:Lib/lvgl/src/widgets/checkbox/../../core/lv_obj_style_gen.h **** {
 210:Lib/lvgl/src/widgets/checkbox/../../core/lv_obj_style_gen.h ****     lv_style_value_t v = _lv_obj_style_apply_color_filter(obj, part, lv_obj_get_style_prop(obj, par
 211:Lib/lvgl/src/widgets/checkbox/../../core/lv_obj_style_gen.h ****     return v.color;
 212:Lib/lvgl/src/widgets/checkbox/../../core/lv_obj_style_gen.h **** }
 213:Lib/lvgl/src/widgets/checkbox/../../core/lv_obj_style_gen.h **** 
 214:Lib/lvgl/src/widgets/checkbox/../../core/lv_obj_style_gen.h **** static inline lv_opa_t lv_obj_get_style_bg_opa(const lv_obj_t * obj, uint32_t part)
 215:Lib/lvgl/src/widgets/checkbox/../../core/lv_obj_style_gen.h **** {
 216:Lib/lvgl/src/widgets/checkbox/../../core/lv_obj_style_gen.h ****     lv_style_value_t v = lv_obj_get_style_prop(obj, part, LV_STYLE_BG_OPA);
 217:Lib/lvgl/src/widgets/checkbox/../../core/lv_obj_style_gen.h ****     return (lv_opa_t)v.num;
 218:Lib/lvgl/src/widgets/checkbox/../../core/lv_obj_style_gen.h **** }
 219:Lib/lvgl/src/widgets/checkbox/../../core/lv_obj_style_gen.h **** 
 220:Lib/lvgl/src/widgets/checkbox/../../core/lv_obj_style_gen.h **** static inline lv_color_t lv_obj_get_style_bg_grad_color(const lv_obj_t * obj, uint32_t part)
 221:Lib/lvgl/src/widgets/checkbox/../../core/lv_obj_style_gen.h **** {
 222:Lib/lvgl/src/widgets/checkbox/../../core/lv_obj_style_gen.h ****     lv_style_value_t v = lv_obj_get_style_prop(obj, part, LV_STYLE_BG_GRAD_COLOR);
 223:Lib/lvgl/src/widgets/checkbox/../../core/lv_obj_style_gen.h ****     return v.color;
 224:Lib/lvgl/src/widgets/checkbox/../../core/lv_obj_style_gen.h **** }
 225:Lib/lvgl/src/widgets/checkbox/../../core/lv_obj_style_gen.h **** 
 226:Lib/lvgl/src/widgets/checkbox/../../core/lv_obj_style_gen.h **** static inline lv_color_t lv_obj_get_style_bg_grad_color_filtered(const lv_obj_t * obj, uint32_t par
 227:Lib/lvgl/src/widgets/checkbox/../../core/lv_obj_style_gen.h **** {
ARM GAS  C:\Users\Alex\AppData\Local\Temp\ccFfvF9D.s 			page 10


 228:Lib/lvgl/src/widgets/checkbox/../../core/lv_obj_style_gen.h ****     lv_style_value_t v = _lv_obj_style_apply_color_filter(obj, part, lv_obj_get_style_prop(obj, par
 229:Lib/lvgl/src/widgets/checkbox/../../core/lv_obj_style_gen.h ****                                                                                            LV_STYLE
 230:Lib/lvgl/src/widgets/checkbox/../../core/lv_obj_style_gen.h ****     return v.color;
 231:Lib/lvgl/src/widgets/checkbox/../../core/lv_obj_style_gen.h **** }
 232:Lib/lvgl/src/widgets/checkbox/../../core/lv_obj_style_gen.h **** 
 233:Lib/lvgl/src/widgets/checkbox/../../core/lv_obj_style_gen.h **** static inline lv_grad_dir_t lv_obj_get_style_bg_grad_dir(const lv_obj_t * obj, uint32_t part)
 234:Lib/lvgl/src/widgets/checkbox/../../core/lv_obj_style_gen.h **** {
 235:Lib/lvgl/src/widgets/checkbox/../../core/lv_obj_style_gen.h ****     lv_style_value_t v = lv_obj_get_style_prop(obj, part, LV_STYLE_BG_GRAD_DIR);
 236:Lib/lvgl/src/widgets/checkbox/../../core/lv_obj_style_gen.h ****     return (lv_grad_dir_t)v.num;
 237:Lib/lvgl/src/widgets/checkbox/../../core/lv_obj_style_gen.h **** }
 238:Lib/lvgl/src/widgets/checkbox/../../core/lv_obj_style_gen.h **** 
 239:Lib/lvgl/src/widgets/checkbox/../../core/lv_obj_style_gen.h **** static inline int32_t lv_obj_get_style_bg_main_stop(const lv_obj_t * obj, uint32_t part)
 240:Lib/lvgl/src/widgets/checkbox/../../core/lv_obj_style_gen.h **** {
 241:Lib/lvgl/src/widgets/checkbox/../../core/lv_obj_style_gen.h ****     lv_style_value_t v = lv_obj_get_style_prop(obj, part, LV_STYLE_BG_MAIN_STOP);
 242:Lib/lvgl/src/widgets/checkbox/../../core/lv_obj_style_gen.h ****     return (int32_t)v.num;
 243:Lib/lvgl/src/widgets/checkbox/../../core/lv_obj_style_gen.h **** }
 244:Lib/lvgl/src/widgets/checkbox/../../core/lv_obj_style_gen.h **** 
 245:Lib/lvgl/src/widgets/checkbox/../../core/lv_obj_style_gen.h **** static inline int32_t lv_obj_get_style_bg_grad_stop(const lv_obj_t * obj, uint32_t part)
 246:Lib/lvgl/src/widgets/checkbox/../../core/lv_obj_style_gen.h **** {
 247:Lib/lvgl/src/widgets/checkbox/../../core/lv_obj_style_gen.h ****     lv_style_value_t v = lv_obj_get_style_prop(obj, part, LV_STYLE_BG_GRAD_STOP);
 248:Lib/lvgl/src/widgets/checkbox/../../core/lv_obj_style_gen.h ****     return (int32_t)v.num;
 249:Lib/lvgl/src/widgets/checkbox/../../core/lv_obj_style_gen.h **** }
 250:Lib/lvgl/src/widgets/checkbox/../../core/lv_obj_style_gen.h **** 
 251:Lib/lvgl/src/widgets/checkbox/../../core/lv_obj_style_gen.h **** static inline lv_opa_t lv_obj_get_style_bg_main_opa(const lv_obj_t * obj, uint32_t part)
 252:Lib/lvgl/src/widgets/checkbox/../../core/lv_obj_style_gen.h **** {
 253:Lib/lvgl/src/widgets/checkbox/../../core/lv_obj_style_gen.h ****     lv_style_value_t v = lv_obj_get_style_prop(obj, part, LV_STYLE_BG_MAIN_OPA);
 254:Lib/lvgl/src/widgets/checkbox/../../core/lv_obj_style_gen.h ****     return (lv_opa_t)v.num;
 255:Lib/lvgl/src/widgets/checkbox/../../core/lv_obj_style_gen.h **** }
 256:Lib/lvgl/src/widgets/checkbox/../../core/lv_obj_style_gen.h **** 
 257:Lib/lvgl/src/widgets/checkbox/../../core/lv_obj_style_gen.h **** static inline lv_opa_t lv_obj_get_style_bg_grad_opa(const lv_obj_t * obj, uint32_t part)
 258:Lib/lvgl/src/widgets/checkbox/../../core/lv_obj_style_gen.h **** {
 259:Lib/lvgl/src/widgets/checkbox/../../core/lv_obj_style_gen.h ****     lv_style_value_t v = lv_obj_get_style_prop(obj, part, LV_STYLE_BG_GRAD_OPA);
 260:Lib/lvgl/src/widgets/checkbox/../../core/lv_obj_style_gen.h ****     return (lv_opa_t)v.num;
 261:Lib/lvgl/src/widgets/checkbox/../../core/lv_obj_style_gen.h **** }
 262:Lib/lvgl/src/widgets/checkbox/../../core/lv_obj_style_gen.h **** 
 263:Lib/lvgl/src/widgets/checkbox/../../core/lv_obj_style_gen.h **** static inline const lv_grad_dsc_t * lv_obj_get_style_bg_grad(const lv_obj_t * obj, uint32_t part)
 264:Lib/lvgl/src/widgets/checkbox/../../core/lv_obj_style_gen.h **** {
 265:Lib/lvgl/src/widgets/checkbox/../../core/lv_obj_style_gen.h ****     lv_style_value_t v = lv_obj_get_style_prop(obj, part, LV_STYLE_BG_GRAD);
 266:Lib/lvgl/src/widgets/checkbox/../../core/lv_obj_style_gen.h ****     return (const lv_grad_dsc_t *)v.ptr;
 267:Lib/lvgl/src/widgets/checkbox/../../core/lv_obj_style_gen.h **** }
 268:Lib/lvgl/src/widgets/checkbox/../../core/lv_obj_style_gen.h **** 
 269:Lib/lvgl/src/widgets/checkbox/../../core/lv_obj_style_gen.h **** static inline const void * lv_obj_get_style_bg_image_src(const lv_obj_t * obj, uint32_t part)
 270:Lib/lvgl/src/widgets/checkbox/../../core/lv_obj_style_gen.h **** {
 271:Lib/lvgl/src/widgets/checkbox/../../core/lv_obj_style_gen.h ****     lv_style_value_t v = lv_obj_get_style_prop(obj, part, LV_STYLE_BG_IMAGE_SRC);
 272:Lib/lvgl/src/widgets/checkbox/../../core/lv_obj_style_gen.h ****     return (const void *)v.ptr;
 273:Lib/lvgl/src/widgets/checkbox/../../core/lv_obj_style_gen.h **** }
 274:Lib/lvgl/src/widgets/checkbox/../../core/lv_obj_style_gen.h **** 
 275:Lib/lvgl/src/widgets/checkbox/../../core/lv_obj_style_gen.h **** static inline lv_opa_t lv_obj_get_style_bg_image_opa(const lv_obj_t * obj, uint32_t part)
 276:Lib/lvgl/src/widgets/checkbox/../../core/lv_obj_style_gen.h **** {
 277:Lib/lvgl/src/widgets/checkbox/../../core/lv_obj_style_gen.h ****     lv_style_value_t v = lv_obj_get_style_prop(obj, part, LV_STYLE_BG_IMAGE_OPA);
 278:Lib/lvgl/src/widgets/checkbox/../../core/lv_obj_style_gen.h ****     return (lv_opa_t)v.num;
 279:Lib/lvgl/src/widgets/checkbox/../../core/lv_obj_style_gen.h **** }
 280:Lib/lvgl/src/widgets/checkbox/../../core/lv_obj_style_gen.h **** 
 281:Lib/lvgl/src/widgets/checkbox/../../core/lv_obj_style_gen.h **** static inline lv_color_t lv_obj_get_style_bg_image_recolor(const lv_obj_t * obj, uint32_t part)
 282:Lib/lvgl/src/widgets/checkbox/../../core/lv_obj_style_gen.h **** {
 283:Lib/lvgl/src/widgets/checkbox/../../core/lv_obj_style_gen.h ****     lv_style_value_t v = lv_obj_get_style_prop(obj, part, LV_STYLE_BG_IMAGE_RECOLOR);
 284:Lib/lvgl/src/widgets/checkbox/../../core/lv_obj_style_gen.h ****     return v.color;
ARM GAS  C:\Users\Alex\AppData\Local\Temp\ccFfvF9D.s 			page 11


 285:Lib/lvgl/src/widgets/checkbox/../../core/lv_obj_style_gen.h **** }
 286:Lib/lvgl/src/widgets/checkbox/../../core/lv_obj_style_gen.h **** 
 287:Lib/lvgl/src/widgets/checkbox/../../core/lv_obj_style_gen.h **** static inline lv_color_t lv_obj_get_style_bg_image_recolor_filtered(const lv_obj_t * obj, uint32_t 
 288:Lib/lvgl/src/widgets/checkbox/../../core/lv_obj_style_gen.h **** {
 289:Lib/lvgl/src/widgets/checkbox/../../core/lv_obj_style_gen.h ****     lv_style_value_t v = _lv_obj_style_apply_color_filter(obj, part, lv_obj_get_style_prop(obj, par
 290:Lib/lvgl/src/widgets/checkbox/../../core/lv_obj_style_gen.h ****                                                                                            LV_STYLE
 291:Lib/lvgl/src/widgets/checkbox/../../core/lv_obj_style_gen.h ****     return v.color;
 292:Lib/lvgl/src/widgets/checkbox/../../core/lv_obj_style_gen.h **** }
 293:Lib/lvgl/src/widgets/checkbox/../../core/lv_obj_style_gen.h **** 
 294:Lib/lvgl/src/widgets/checkbox/../../core/lv_obj_style_gen.h **** static inline lv_opa_t lv_obj_get_style_bg_image_recolor_opa(const lv_obj_t * obj, uint32_t part)
 295:Lib/lvgl/src/widgets/checkbox/../../core/lv_obj_style_gen.h **** {
 296:Lib/lvgl/src/widgets/checkbox/../../core/lv_obj_style_gen.h ****     lv_style_value_t v = lv_obj_get_style_prop(obj, part, LV_STYLE_BG_IMAGE_RECOLOR_OPA);
 297:Lib/lvgl/src/widgets/checkbox/../../core/lv_obj_style_gen.h ****     return (lv_opa_t)v.num;
 298:Lib/lvgl/src/widgets/checkbox/../../core/lv_obj_style_gen.h **** }
 299:Lib/lvgl/src/widgets/checkbox/../../core/lv_obj_style_gen.h **** 
 300:Lib/lvgl/src/widgets/checkbox/../../core/lv_obj_style_gen.h **** static inline bool lv_obj_get_style_bg_image_tiled(const lv_obj_t * obj, uint32_t part)
 301:Lib/lvgl/src/widgets/checkbox/../../core/lv_obj_style_gen.h **** {
 302:Lib/lvgl/src/widgets/checkbox/../../core/lv_obj_style_gen.h ****     lv_style_value_t v = lv_obj_get_style_prop(obj, part, LV_STYLE_BG_IMAGE_TILED);
 303:Lib/lvgl/src/widgets/checkbox/../../core/lv_obj_style_gen.h ****     return (bool)v.num;
 304:Lib/lvgl/src/widgets/checkbox/../../core/lv_obj_style_gen.h **** }
 305:Lib/lvgl/src/widgets/checkbox/../../core/lv_obj_style_gen.h **** 
 306:Lib/lvgl/src/widgets/checkbox/../../core/lv_obj_style_gen.h **** static inline lv_color_t lv_obj_get_style_border_color(const lv_obj_t * obj, uint32_t part)
 307:Lib/lvgl/src/widgets/checkbox/../../core/lv_obj_style_gen.h **** {
 308:Lib/lvgl/src/widgets/checkbox/../../core/lv_obj_style_gen.h ****     lv_style_value_t v = lv_obj_get_style_prop(obj, part, LV_STYLE_BORDER_COLOR);
 309:Lib/lvgl/src/widgets/checkbox/../../core/lv_obj_style_gen.h ****     return v.color;
 310:Lib/lvgl/src/widgets/checkbox/../../core/lv_obj_style_gen.h **** }
 311:Lib/lvgl/src/widgets/checkbox/../../core/lv_obj_style_gen.h **** 
 312:Lib/lvgl/src/widgets/checkbox/../../core/lv_obj_style_gen.h **** static inline lv_color_t lv_obj_get_style_border_color_filtered(const lv_obj_t * obj, uint32_t part
 313:Lib/lvgl/src/widgets/checkbox/../../core/lv_obj_style_gen.h **** {
 314:Lib/lvgl/src/widgets/checkbox/../../core/lv_obj_style_gen.h ****     lv_style_value_t v = _lv_obj_style_apply_color_filter(obj, part, lv_obj_get_style_prop(obj, par
 315:Lib/lvgl/src/widgets/checkbox/../../core/lv_obj_style_gen.h ****                                                                                            LV_STYLE
 316:Lib/lvgl/src/widgets/checkbox/../../core/lv_obj_style_gen.h ****     return v.color;
 317:Lib/lvgl/src/widgets/checkbox/../../core/lv_obj_style_gen.h **** }
 318:Lib/lvgl/src/widgets/checkbox/../../core/lv_obj_style_gen.h **** 
 319:Lib/lvgl/src/widgets/checkbox/../../core/lv_obj_style_gen.h **** static inline lv_opa_t lv_obj_get_style_border_opa(const lv_obj_t * obj, uint32_t part)
 320:Lib/lvgl/src/widgets/checkbox/../../core/lv_obj_style_gen.h **** {
 321:Lib/lvgl/src/widgets/checkbox/../../core/lv_obj_style_gen.h ****     lv_style_value_t v = lv_obj_get_style_prop(obj, part, LV_STYLE_BORDER_OPA);
 322:Lib/lvgl/src/widgets/checkbox/../../core/lv_obj_style_gen.h ****     return (lv_opa_t)v.num;
 323:Lib/lvgl/src/widgets/checkbox/../../core/lv_obj_style_gen.h **** }
 324:Lib/lvgl/src/widgets/checkbox/../../core/lv_obj_style_gen.h **** 
 325:Lib/lvgl/src/widgets/checkbox/../../core/lv_obj_style_gen.h **** static inline int32_t lv_obj_get_style_border_width(const lv_obj_t * obj, uint32_t part)
 326:Lib/lvgl/src/widgets/checkbox/../../core/lv_obj_style_gen.h **** {
 327:Lib/lvgl/src/widgets/checkbox/../../core/lv_obj_style_gen.h ****     lv_style_value_t v = lv_obj_get_style_prop(obj, part, LV_STYLE_BORDER_WIDTH);
 328:Lib/lvgl/src/widgets/checkbox/../../core/lv_obj_style_gen.h ****     return (int32_t)v.num;
 329:Lib/lvgl/src/widgets/checkbox/../../core/lv_obj_style_gen.h **** }
 330:Lib/lvgl/src/widgets/checkbox/../../core/lv_obj_style_gen.h **** 
 331:Lib/lvgl/src/widgets/checkbox/../../core/lv_obj_style_gen.h **** static inline lv_border_side_t lv_obj_get_style_border_side(const lv_obj_t * obj, uint32_t part)
 332:Lib/lvgl/src/widgets/checkbox/../../core/lv_obj_style_gen.h **** {
 333:Lib/lvgl/src/widgets/checkbox/../../core/lv_obj_style_gen.h ****     lv_style_value_t v = lv_obj_get_style_prop(obj, part, LV_STYLE_BORDER_SIDE);
 334:Lib/lvgl/src/widgets/checkbox/../../core/lv_obj_style_gen.h ****     return (lv_border_side_t)v.num;
 335:Lib/lvgl/src/widgets/checkbox/../../core/lv_obj_style_gen.h **** }
 336:Lib/lvgl/src/widgets/checkbox/../../core/lv_obj_style_gen.h **** 
 337:Lib/lvgl/src/widgets/checkbox/../../core/lv_obj_style_gen.h **** static inline bool lv_obj_get_style_border_post(const lv_obj_t * obj, uint32_t part)
 338:Lib/lvgl/src/widgets/checkbox/../../core/lv_obj_style_gen.h **** {
 339:Lib/lvgl/src/widgets/checkbox/../../core/lv_obj_style_gen.h ****     lv_style_value_t v = lv_obj_get_style_prop(obj, part, LV_STYLE_BORDER_POST);
 340:Lib/lvgl/src/widgets/checkbox/../../core/lv_obj_style_gen.h ****     return (bool)v.num;
 341:Lib/lvgl/src/widgets/checkbox/../../core/lv_obj_style_gen.h **** }
ARM GAS  C:\Users\Alex\AppData\Local\Temp\ccFfvF9D.s 			page 12


 342:Lib/lvgl/src/widgets/checkbox/../../core/lv_obj_style_gen.h **** 
 343:Lib/lvgl/src/widgets/checkbox/../../core/lv_obj_style_gen.h **** static inline int32_t lv_obj_get_style_outline_width(const lv_obj_t * obj, uint32_t part)
 344:Lib/lvgl/src/widgets/checkbox/../../core/lv_obj_style_gen.h **** {
 345:Lib/lvgl/src/widgets/checkbox/../../core/lv_obj_style_gen.h ****     lv_style_value_t v = lv_obj_get_style_prop(obj, part, LV_STYLE_OUTLINE_WIDTH);
 346:Lib/lvgl/src/widgets/checkbox/../../core/lv_obj_style_gen.h ****     return (int32_t)v.num;
 347:Lib/lvgl/src/widgets/checkbox/../../core/lv_obj_style_gen.h **** }
 348:Lib/lvgl/src/widgets/checkbox/../../core/lv_obj_style_gen.h **** 
 349:Lib/lvgl/src/widgets/checkbox/../../core/lv_obj_style_gen.h **** static inline lv_color_t lv_obj_get_style_outline_color(const lv_obj_t * obj, uint32_t part)
 350:Lib/lvgl/src/widgets/checkbox/../../core/lv_obj_style_gen.h **** {
 351:Lib/lvgl/src/widgets/checkbox/../../core/lv_obj_style_gen.h ****     lv_style_value_t v = lv_obj_get_style_prop(obj, part, LV_STYLE_OUTLINE_COLOR);
 352:Lib/lvgl/src/widgets/checkbox/../../core/lv_obj_style_gen.h ****     return v.color;
 353:Lib/lvgl/src/widgets/checkbox/../../core/lv_obj_style_gen.h **** }
 354:Lib/lvgl/src/widgets/checkbox/../../core/lv_obj_style_gen.h **** 
 355:Lib/lvgl/src/widgets/checkbox/../../core/lv_obj_style_gen.h **** static inline lv_color_t lv_obj_get_style_outline_color_filtered(const lv_obj_t * obj, uint32_t par
 356:Lib/lvgl/src/widgets/checkbox/../../core/lv_obj_style_gen.h **** {
 357:Lib/lvgl/src/widgets/checkbox/../../core/lv_obj_style_gen.h ****     lv_style_value_t v = _lv_obj_style_apply_color_filter(obj, part, lv_obj_get_style_prop(obj, par
 358:Lib/lvgl/src/widgets/checkbox/../../core/lv_obj_style_gen.h ****                                                                                            LV_STYLE
 359:Lib/lvgl/src/widgets/checkbox/../../core/lv_obj_style_gen.h ****     return v.color;
 360:Lib/lvgl/src/widgets/checkbox/../../core/lv_obj_style_gen.h **** }
 361:Lib/lvgl/src/widgets/checkbox/../../core/lv_obj_style_gen.h **** 
 362:Lib/lvgl/src/widgets/checkbox/../../core/lv_obj_style_gen.h **** static inline lv_opa_t lv_obj_get_style_outline_opa(const lv_obj_t * obj, uint32_t part)
 363:Lib/lvgl/src/widgets/checkbox/../../core/lv_obj_style_gen.h **** {
 364:Lib/lvgl/src/widgets/checkbox/../../core/lv_obj_style_gen.h ****     lv_style_value_t v = lv_obj_get_style_prop(obj, part, LV_STYLE_OUTLINE_OPA);
 365:Lib/lvgl/src/widgets/checkbox/../../core/lv_obj_style_gen.h ****     return (lv_opa_t)v.num;
 366:Lib/lvgl/src/widgets/checkbox/../../core/lv_obj_style_gen.h **** }
 367:Lib/lvgl/src/widgets/checkbox/../../core/lv_obj_style_gen.h **** 
 368:Lib/lvgl/src/widgets/checkbox/../../core/lv_obj_style_gen.h **** static inline int32_t lv_obj_get_style_outline_pad(const lv_obj_t * obj, uint32_t part)
 369:Lib/lvgl/src/widgets/checkbox/../../core/lv_obj_style_gen.h **** {
 370:Lib/lvgl/src/widgets/checkbox/../../core/lv_obj_style_gen.h ****     lv_style_value_t v = lv_obj_get_style_prop(obj, part, LV_STYLE_OUTLINE_PAD);
 371:Lib/lvgl/src/widgets/checkbox/../../core/lv_obj_style_gen.h ****     return (int32_t)v.num;
 372:Lib/lvgl/src/widgets/checkbox/../../core/lv_obj_style_gen.h **** }
 373:Lib/lvgl/src/widgets/checkbox/../../core/lv_obj_style_gen.h **** 
 374:Lib/lvgl/src/widgets/checkbox/../../core/lv_obj_style_gen.h **** static inline int32_t lv_obj_get_style_shadow_width(const lv_obj_t * obj, uint32_t part)
 375:Lib/lvgl/src/widgets/checkbox/../../core/lv_obj_style_gen.h **** {
 376:Lib/lvgl/src/widgets/checkbox/../../core/lv_obj_style_gen.h ****     lv_style_value_t v = lv_obj_get_style_prop(obj, part, LV_STYLE_SHADOW_WIDTH);
 377:Lib/lvgl/src/widgets/checkbox/../../core/lv_obj_style_gen.h ****     return (int32_t)v.num;
 378:Lib/lvgl/src/widgets/checkbox/../../core/lv_obj_style_gen.h **** }
 379:Lib/lvgl/src/widgets/checkbox/../../core/lv_obj_style_gen.h **** 
 380:Lib/lvgl/src/widgets/checkbox/../../core/lv_obj_style_gen.h **** static inline int32_t lv_obj_get_style_shadow_offset_x(const lv_obj_t * obj, uint32_t part)
 381:Lib/lvgl/src/widgets/checkbox/../../core/lv_obj_style_gen.h **** {
 382:Lib/lvgl/src/widgets/checkbox/../../core/lv_obj_style_gen.h ****     lv_style_value_t v = lv_obj_get_style_prop(obj, part, LV_STYLE_SHADOW_OFFSET_X);
 383:Lib/lvgl/src/widgets/checkbox/../../core/lv_obj_style_gen.h ****     return (int32_t)v.num;
 384:Lib/lvgl/src/widgets/checkbox/../../core/lv_obj_style_gen.h **** }
 385:Lib/lvgl/src/widgets/checkbox/../../core/lv_obj_style_gen.h **** 
 386:Lib/lvgl/src/widgets/checkbox/../../core/lv_obj_style_gen.h **** static inline int32_t lv_obj_get_style_shadow_offset_y(const lv_obj_t * obj, uint32_t part)
 387:Lib/lvgl/src/widgets/checkbox/../../core/lv_obj_style_gen.h **** {
 388:Lib/lvgl/src/widgets/checkbox/../../core/lv_obj_style_gen.h ****     lv_style_value_t v = lv_obj_get_style_prop(obj, part, LV_STYLE_SHADOW_OFFSET_Y);
 389:Lib/lvgl/src/widgets/checkbox/../../core/lv_obj_style_gen.h ****     return (int32_t)v.num;
 390:Lib/lvgl/src/widgets/checkbox/../../core/lv_obj_style_gen.h **** }
 391:Lib/lvgl/src/widgets/checkbox/../../core/lv_obj_style_gen.h **** 
 392:Lib/lvgl/src/widgets/checkbox/../../core/lv_obj_style_gen.h **** static inline int32_t lv_obj_get_style_shadow_spread(const lv_obj_t * obj, uint32_t part)
 393:Lib/lvgl/src/widgets/checkbox/../../core/lv_obj_style_gen.h **** {
 394:Lib/lvgl/src/widgets/checkbox/../../core/lv_obj_style_gen.h ****     lv_style_value_t v = lv_obj_get_style_prop(obj, part, LV_STYLE_SHADOW_SPREAD);
 395:Lib/lvgl/src/widgets/checkbox/../../core/lv_obj_style_gen.h ****     return (int32_t)v.num;
 396:Lib/lvgl/src/widgets/checkbox/../../core/lv_obj_style_gen.h **** }
 397:Lib/lvgl/src/widgets/checkbox/../../core/lv_obj_style_gen.h **** 
 398:Lib/lvgl/src/widgets/checkbox/../../core/lv_obj_style_gen.h **** static inline lv_color_t lv_obj_get_style_shadow_color(const lv_obj_t * obj, uint32_t part)
ARM GAS  C:\Users\Alex\AppData\Local\Temp\ccFfvF9D.s 			page 13


 399:Lib/lvgl/src/widgets/checkbox/../../core/lv_obj_style_gen.h **** {
 400:Lib/lvgl/src/widgets/checkbox/../../core/lv_obj_style_gen.h ****     lv_style_value_t v = lv_obj_get_style_prop(obj, part, LV_STYLE_SHADOW_COLOR);
 401:Lib/lvgl/src/widgets/checkbox/../../core/lv_obj_style_gen.h ****     return v.color;
 402:Lib/lvgl/src/widgets/checkbox/../../core/lv_obj_style_gen.h **** }
 403:Lib/lvgl/src/widgets/checkbox/../../core/lv_obj_style_gen.h **** 
 404:Lib/lvgl/src/widgets/checkbox/../../core/lv_obj_style_gen.h **** static inline lv_color_t lv_obj_get_style_shadow_color_filtered(const lv_obj_t * obj, uint32_t part
 405:Lib/lvgl/src/widgets/checkbox/../../core/lv_obj_style_gen.h **** {
 406:Lib/lvgl/src/widgets/checkbox/../../core/lv_obj_style_gen.h ****     lv_style_value_t v = _lv_obj_style_apply_color_filter(obj, part, lv_obj_get_style_prop(obj, par
 407:Lib/lvgl/src/widgets/checkbox/../../core/lv_obj_style_gen.h ****                                                                                            LV_STYLE
 408:Lib/lvgl/src/widgets/checkbox/../../core/lv_obj_style_gen.h ****     return v.color;
 409:Lib/lvgl/src/widgets/checkbox/../../core/lv_obj_style_gen.h **** }
 410:Lib/lvgl/src/widgets/checkbox/../../core/lv_obj_style_gen.h **** 
 411:Lib/lvgl/src/widgets/checkbox/../../core/lv_obj_style_gen.h **** static inline lv_opa_t lv_obj_get_style_shadow_opa(const lv_obj_t * obj, uint32_t part)
 412:Lib/lvgl/src/widgets/checkbox/../../core/lv_obj_style_gen.h **** {
 413:Lib/lvgl/src/widgets/checkbox/../../core/lv_obj_style_gen.h ****     lv_style_value_t v = lv_obj_get_style_prop(obj, part, LV_STYLE_SHADOW_OPA);
 414:Lib/lvgl/src/widgets/checkbox/../../core/lv_obj_style_gen.h ****     return (lv_opa_t)v.num;
 415:Lib/lvgl/src/widgets/checkbox/../../core/lv_obj_style_gen.h **** }
 416:Lib/lvgl/src/widgets/checkbox/../../core/lv_obj_style_gen.h **** 
 417:Lib/lvgl/src/widgets/checkbox/../../core/lv_obj_style_gen.h **** static inline lv_opa_t lv_obj_get_style_image_opa(const lv_obj_t * obj, uint32_t part)
 418:Lib/lvgl/src/widgets/checkbox/../../core/lv_obj_style_gen.h **** {
 419:Lib/lvgl/src/widgets/checkbox/../../core/lv_obj_style_gen.h ****     lv_style_value_t v = lv_obj_get_style_prop(obj, part, LV_STYLE_IMAGE_OPA);
 420:Lib/lvgl/src/widgets/checkbox/../../core/lv_obj_style_gen.h ****     return (lv_opa_t)v.num;
 421:Lib/lvgl/src/widgets/checkbox/../../core/lv_obj_style_gen.h **** }
 422:Lib/lvgl/src/widgets/checkbox/../../core/lv_obj_style_gen.h **** 
 423:Lib/lvgl/src/widgets/checkbox/../../core/lv_obj_style_gen.h **** static inline lv_color_t lv_obj_get_style_image_recolor(const lv_obj_t * obj, uint32_t part)
 424:Lib/lvgl/src/widgets/checkbox/../../core/lv_obj_style_gen.h **** {
 425:Lib/lvgl/src/widgets/checkbox/../../core/lv_obj_style_gen.h ****     lv_style_value_t v = lv_obj_get_style_prop(obj, part, LV_STYLE_IMAGE_RECOLOR);
 426:Lib/lvgl/src/widgets/checkbox/../../core/lv_obj_style_gen.h ****     return v.color;
 427:Lib/lvgl/src/widgets/checkbox/../../core/lv_obj_style_gen.h **** }
 428:Lib/lvgl/src/widgets/checkbox/../../core/lv_obj_style_gen.h **** 
 429:Lib/lvgl/src/widgets/checkbox/../../core/lv_obj_style_gen.h **** static inline lv_color_t lv_obj_get_style_image_recolor_filtered(const lv_obj_t * obj, uint32_t par
 430:Lib/lvgl/src/widgets/checkbox/../../core/lv_obj_style_gen.h **** {
 431:Lib/lvgl/src/widgets/checkbox/../../core/lv_obj_style_gen.h ****     lv_style_value_t v = _lv_obj_style_apply_color_filter(obj, part, lv_obj_get_style_prop(obj, par
 432:Lib/lvgl/src/widgets/checkbox/../../core/lv_obj_style_gen.h ****                                                                                            LV_STYLE
 433:Lib/lvgl/src/widgets/checkbox/../../core/lv_obj_style_gen.h ****     return v.color;
 434:Lib/lvgl/src/widgets/checkbox/../../core/lv_obj_style_gen.h **** }
 435:Lib/lvgl/src/widgets/checkbox/../../core/lv_obj_style_gen.h **** 
 436:Lib/lvgl/src/widgets/checkbox/../../core/lv_obj_style_gen.h **** static inline lv_opa_t lv_obj_get_style_image_recolor_opa(const lv_obj_t * obj, uint32_t part)
 437:Lib/lvgl/src/widgets/checkbox/../../core/lv_obj_style_gen.h **** {
 438:Lib/lvgl/src/widgets/checkbox/../../core/lv_obj_style_gen.h ****     lv_style_value_t v = lv_obj_get_style_prop(obj, part, LV_STYLE_IMAGE_RECOLOR_OPA);
 439:Lib/lvgl/src/widgets/checkbox/../../core/lv_obj_style_gen.h ****     return (lv_opa_t)v.num;
 440:Lib/lvgl/src/widgets/checkbox/../../core/lv_obj_style_gen.h **** }
 441:Lib/lvgl/src/widgets/checkbox/../../core/lv_obj_style_gen.h **** 
 442:Lib/lvgl/src/widgets/checkbox/../../core/lv_obj_style_gen.h **** static inline int32_t lv_obj_get_style_line_width(const lv_obj_t * obj, uint32_t part)
 443:Lib/lvgl/src/widgets/checkbox/../../core/lv_obj_style_gen.h **** {
 444:Lib/lvgl/src/widgets/checkbox/../../core/lv_obj_style_gen.h ****     lv_style_value_t v = lv_obj_get_style_prop(obj, part, LV_STYLE_LINE_WIDTH);
 445:Lib/lvgl/src/widgets/checkbox/../../core/lv_obj_style_gen.h ****     return (int32_t)v.num;
 446:Lib/lvgl/src/widgets/checkbox/../../core/lv_obj_style_gen.h **** }
 447:Lib/lvgl/src/widgets/checkbox/../../core/lv_obj_style_gen.h **** 
 448:Lib/lvgl/src/widgets/checkbox/../../core/lv_obj_style_gen.h **** static inline int32_t lv_obj_get_style_line_dash_width(const lv_obj_t * obj, uint32_t part)
 449:Lib/lvgl/src/widgets/checkbox/../../core/lv_obj_style_gen.h **** {
 450:Lib/lvgl/src/widgets/checkbox/../../core/lv_obj_style_gen.h ****     lv_style_value_t v = lv_obj_get_style_prop(obj, part, LV_STYLE_LINE_DASH_WIDTH);
 451:Lib/lvgl/src/widgets/checkbox/../../core/lv_obj_style_gen.h ****     return (int32_t)v.num;
 452:Lib/lvgl/src/widgets/checkbox/../../core/lv_obj_style_gen.h **** }
 453:Lib/lvgl/src/widgets/checkbox/../../core/lv_obj_style_gen.h **** 
 454:Lib/lvgl/src/widgets/checkbox/../../core/lv_obj_style_gen.h **** static inline int32_t lv_obj_get_style_line_dash_gap(const lv_obj_t * obj, uint32_t part)
 455:Lib/lvgl/src/widgets/checkbox/../../core/lv_obj_style_gen.h **** {
ARM GAS  C:\Users\Alex\AppData\Local\Temp\ccFfvF9D.s 			page 14


 456:Lib/lvgl/src/widgets/checkbox/../../core/lv_obj_style_gen.h ****     lv_style_value_t v = lv_obj_get_style_prop(obj, part, LV_STYLE_LINE_DASH_GAP);
 457:Lib/lvgl/src/widgets/checkbox/../../core/lv_obj_style_gen.h ****     return (int32_t)v.num;
 458:Lib/lvgl/src/widgets/checkbox/../../core/lv_obj_style_gen.h **** }
 459:Lib/lvgl/src/widgets/checkbox/../../core/lv_obj_style_gen.h **** 
 460:Lib/lvgl/src/widgets/checkbox/../../core/lv_obj_style_gen.h **** static inline bool lv_obj_get_style_line_rounded(const lv_obj_t * obj, uint32_t part)
 461:Lib/lvgl/src/widgets/checkbox/../../core/lv_obj_style_gen.h **** {
 462:Lib/lvgl/src/widgets/checkbox/../../core/lv_obj_style_gen.h ****     lv_style_value_t v = lv_obj_get_style_prop(obj, part, LV_STYLE_LINE_ROUNDED);
 463:Lib/lvgl/src/widgets/checkbox/../../core/lv_obj_style_gen.h ****     return (bool)v.num;
 464:Lib/lvgl/src/widgets/checkbox/../../core/lv_obj_style_gen.h **** }
 465:Lib/lvgl/src/widgets/checkbox/../../core/lv_obj_style_gen.h **** 
 466:Lib/lvgl/src/widgets/checkbox/../../core/lv_obj_style_gen.h **** static inline lv_color_t lv_obj_get_style_line_color(const lv_obj_t * obj, uint32_t part)
 467:Lib/lvgl/src/widgets/checkbox/../../core/lv_obj_style_gen.h **** {
 468:Lib/lvgl/src/widgets/checkbox/../../core/lv_obj_style_gen.h ****     lv_style_value_t v = lv_obj_get_style_prop(obj, part, LV_STYLE_LINE_COLOR);
 469:Lib/lvgl/src/widgets/checkbox/../../core/lv_obj_style_gen.h ****     return v.color;
 470:Lib/lvgl/src/widgets/checkbox/../../core/lv_obj_style_gen.h **** }
 471:Lib/lvgl/src/widgets/checkbox/../../core/lv_obj_style_gen.h **** 
 472:Lib/lvgl/src/widgets/checkbox/../../core/lv_obj_style_gen.h **** static inline lv_color_t lv_obj_get_style_line_color_filtered(const lv_obj_t * obj, uint32_t part)
 473:Lib/lvgl/src/widgets/checkbox/../../core/lv_obj_style_gen.h **** {
 474:Lib/lvgl/src/widgets/checkbox/../../core/lv_obj_style_gen.h ****     lv_style_value_t v = _lv_obj_style_apply_color_filter(obj, part, lv_obj_get_style_prop(obj, par
 475:Lib/lvgl/src/widgets/checkbox/../../core/lv_obj_style_gen.h ****     return v.color;
 476:Lib/lvgl/src/widgets/checkbox/../../core/lv_obj_style_gen.h **** }
 477:Lib/lvgl/src/widgets/checkbox/../../core/lv_obj_style_gen.h **** 
 478:Lib/lvgl/src/widgets/checkbox/../../core/lv_obj_style_gen.h **** static inline lv_opa_t lv_obj_get_style_line_opa(const lv_obj_t * obj, uint32_t part)
 479:Lib/lvgl/src/widgets/checkbox/../../core/lv_obj_style_gen.h **** {
 480:Lib/lvgl/src/widgets/checkbox/../../core/lv_obj_style_gen.h ****     lv_style_value_t v = lv_obj_get_style_prop(obj, part, LV_STYLE_LINE_OPA);
 481:Lib/lvgl/src/widgets/checkbox/../../core/lv_obj_style_gen.h ****     return (lv_opa_t)v.num;
 482:Lib/lvgl/src/widgets/checkbox/../../core/lv_obj_style_gen.h **** }
 483:Lib/lvgl/src/widgets/checkbox/../../core/lv_obj_style_gen.h **** 
 484:Lib/lvgl/src/widgets/checkbox/../../core/lv_obj_style_gen.h **** static inline int32_t lv_obj_get_style_arc_width(const lv_obj_t * obj, uint32_t part)
 485:Lib/lvgl/src/widgets/checkbox/../../core/lv_obj_style_gen.h **** {
 486:Lib/lvgl/src/widgets/checkbox/../../core/lv_obj_style_gen.h ****     lv_style_value_t v = lv_obj_get_style_prop(obj, part, LV_STYLE_ARC_WIDTH);
 487:Lib/lvgl/src/widgets/checkbox/../../core/lv_obj_style_gen.h ****     return (int32_t)v.num;
 488:Lib/lvgl/src/widgets/checkbox/../../core/lv_obj_style_gen.h **** }
 489:Lib/lvgl/src/widgets/checkbox/../../core/lv_obj_style_gen.h **** 
 490:Lib/lvgl/src/widgets/checkbox/../../core/lv_obj_style_gen.h **** static inline bool lv_obj_get_style_arc_rounded(const lv_obj_t * obj, uint32_t part)
 491:Lib/lvgl/src/widgets/checkbox/../../core/lv_obj_style_gen.h **** {
 492:Lib/lvgl/src/widgets/checkbox/../../core/lv_obj_style_gen.h ****     lv_style_value_t v = lv_obj_get_style_prop(obj, part, LV_STYLE_ARC_ROUNDED);
 493:Lib/lvgl/src/widgets/checkbox/../../core/lv_obj_style_gen.h ****     return (bool)v.num;
 494:Lib/lvgl/src/widgets/checkbox/../../core/lv_obj_style_gen.h **** }
 495:Lib/lvgl/src/widgets/checkbox/../../core/lv_obj_style_gen.h **** 
 496:Lib/lvgl/src/widgets/checkbox/../../core/lv_obj_style_gen.h **** static inline lv_color_t lv_obj_get_style_arc_color(const lv_obj_t * obj, uint32_t part)
 497:Lib/lvgl/src/widgets/checkbox/../../core/lv_obj_style_gen.h **** {
 498:Lib/lvgl/src/widgets/checkbox/../../core/lv_obj_style_gen.h ****     lv_style_value_t v = lv_obj_get_style_prop(obj, part, LV_STYLE_ARC_COLOR);
 499:Lib/lvgl/src/widgets/checkbox/../../core/lv_obj_style_gen.h ****     return v.color;
 500:Lib/lvgl/src/widgets/checkbox/../../core/lv_obj_style_gen.h **** }
 501:Lib/lvgl/src/widgets/checkbox/../../core/lv_obj_style_gen.h **** 
 502:Lib/lvgl/src/widgets/checkbox/../../core/lv_obj_style_gen.h **** static inline lv_color_t lv_obj_get_style_arc_color_filtered(const lv_obj_t * obj, uint32_t part)
 503:Lib/lvgl/src/widgets/checkbox/../../core/lv_obj_style_gen.h **** {
 504:Lib/lvgl/src/widgets/checkbox/../../core/lv_obj_style_gen.h ****     lv_style_value_t v = _lv_obj_style_apply_color_filter(obj, part, lv_obj_get_style_prop(obj, par
 505:Lib/lvgl/src/widgets/checkbox/../../core/lv_obj_style_gen.h ****     return v.color;
 506:Lib/lvgl/src/widgets/checkbox/../../core/lv_obj_style_gen.h **** }
 507:Lib/lvgl/src/widgets/checkbox/../../core/lv_obj_style_gen.h **** 
 508:Lib/lvgl/src/widgets/checkbox/../../core/lv_obj_style_gen.h **** static inline lv_opa_t lv_obj_get_style_arc_opa(const lv_obj_t * obj, uint32_t part)
 509:Lib/lvgl/src/widgets/checkbox/../../core/lv_obj_style_gen.h **** {
 510:Lib/lvgl/src/widgets/checkbox/../../core/lv_obj_style_gen.h ****     lv_style_value_t v = lv_obj_get_style_prop(obj, part, LV_STYLE_ARC_OPA);
 511:Lib/lvgl/src/widgets/checkbox/../../core/lv_obj_style_gen.h ****     return (lv_opa_t)v.num;
 512:Lib/lvgl/src/widgets/checkbox/../../core/lv_obj_style_gen.h **** }
ARM GAS  C:\Users\Alex\AppData\Local\Temp\ccFfvF9D.s 			page 15


 513:Lib/lvgl/src/widgets/checkbox/../../core/lv_obj_style_gen.h **** 
 514:Lib/lvgl/src/widgets/checkbox/../../core/lv_obj_style_gen.h **** static inline const void * lv_obj_get_style_arc_image_src(const lv_obj_t * obj, uint32_t part)
 515:Lib/lvgl/src/widgets/checkbox/../../core/lv_obj_style_gen.h **** {
 516:Lib/lvgl/src/widgets/checkbox/../../core/lv_obj_style_gen.h ****     lv_style_value_t v = lv_obj_get_style_prop(obj, part, LV_STYLE_ARC_IMAGE_SRC);
 517:Lib/lvgl/src/widgets/checkbox/../../core/lv_obj_style_gen.h ****     return (const void *)v.ptr;
 518:Lib/lvgl/src/widgets/checkbox/../../core/lv_obj_style_gen.h **** }
 519:Lib/lvgl/src/widgets/checkbox/../../core/lv_obj_style_gen.h **** 
 520:Lib/lvgl/src/widgets/checkbox/../../core/lv_obj_style_gen.h **** static inline lv_color_t lv_obj_get_style_text_color(const lv_obj_t * obj, uint32_t part)
 521:Lib/lvgl/src/widgets/checkbox/../../core/lv_obj_style_gen.h **** {
 522:Lib/lvgl/src/widgets/checkbox/../../core/lv_obj_style_gen.h ****     lv_style_value_t v = lv_obj_get_style_prop(obj, part, LV_STYLE_TEXT_COLOR);
 523:Lib/lvgl/src/widgets/checkbox/../../core/lv_obj_style_gen.h ****     return v.color;
 524:Lib/lvgl/src/widgets/checkbox/../../core/lv_obj_style_gen.h **** }
 525:Lib/lvgl/src/widgets/checkbox/../../core/lv_obj_style_gen.h **** 
 526:Lib/lvgl/src/widgets/checkbox/../../core/lv_obj_style_gen.h **** static inline lv_color_t lv_obj_get_style_text_color_filtered(const lv_obj_t * obj, uint32_t part)
 527:Lib/lvgl/src/widgets/checkbox/../../core/lv_obj_style_gen.h **** {
 528:Lib/lvgl/src/widgets/checkbox/../../core/lv_obj_style_gen.h ****     lv_style_value_t v = _lv_obj_style_apply_color_filter(obj, part, lv_obj_get_style_prop(obj, par
 529:Lib/lvgl/src/widgets/checkbox/../../core/lv_obj_style_gen.h ****     return v.color;
 530:Lib/lvgl/src/widgets/checkbox/../../core/lv_obj_style_gen.h **** }
 531:Lib/lvgl/src/widgets/checkbox/../../core/lv_obj_style_gen.h **** 
 532:Lib/lvgl/src/widgets/checkbox/../../core/lv_obj_style_gen.h **** static inline lv_opa_t lv_obj_get_style_text_opa(const lv_obj_t * obj, uint32_t part)
 533:Lib/lvgl/src/widgets/checkbox/../../core/lv_obj_style_gen.h **** {
 534:Lib/lvgl/src/widgets/checkbox/../../core/lv_obj_style_gen.h ****     lv_style_value_t v = lv_obj_get_style_prop(obj, part, LV_STYLE_TEXT_OPA);
 535:Lib/lvgl/src/widgets/checkbox/../../core/lv_obj_style_gen.h ****     return (lv_opa_t)v.num;
 536:Lib/lvgl/src/widgets/checkbox/../../core/lv_obj_style_gen.h **** }
 537:Lib/lvgl/src/widgets/checkbox/../../core/lv_obj_style_gen.h **** 
 538:Lib/lvgl/src/widgets/checkbox/../../core/lv_obj_style_gen.h **** static inline const lv_font_t * lv_obj_get_style_text_font(const lv_obj_t * obj, uint32_t part)
  71              		.loc 2 538 33 view .LVU10
  72              	.LBB59:
 539:Lib/lvgl/src/widgets/checkbox/../../core/lv_obj_style_gen.h **** {
 540:Lib/lvgl/src/widgets/checkbox/../../core/lv_obj_style_gen.h ****     lv_style_value_t v = lv_obj_get_style_prop(obj, part, LV_STYLE_TEXT_FONT);
  73              		.loc 2 540 5 view .LVU11
  74              		.loc 2 540 26 is_stmt 0 view .LVU12
  75 0016 5A22     		movs	r2, #90
  76 0018 0021     		movs	r1, #0
  77 001a 2046     		mov	r0, r4
  78              	.LVL6:
  79              		.loc 2 540 26 view .LVU13
  80 001c FFF7FEFF 		bl	lv_obj_get_style_prop
  81              	.LVL7:
  82 0020 0890     		str	r0, [sp, #32]
  83 0022 0A90     		str	r0, [sp, #40]
 541:Lib/lvgl/src/widgets/checkbox/../../core/lv_obj_style_gen.h ****     return (const lv_font_t *)v.ptr;
  84              		.loc 2 541 5 is_stmt 1 view .LVU14
  85              	.LVL8:
  86              		.loc 2 541 5 is_stmt 0 view .LVU15
  87              	.LBE59:
  88              	.LBE58:
 218:Lib/lvgl/src/widgets/checkbox/lv_checkbox.c ****     int32_t font_h = lv_font_get_line_height(font);
  89              		.loc 1 218 5 is_stmt 1 view .LVU16
  90              	.LBB60:
  91              	.LBI60:
  92              		.file 3 "Lib/lvgl/src/widgets/checkbox/../../core/../misc/../font/lv_font.h"
   1:Lib/lvgl/src/widgets/checkbox/../../core/../misc/../font/lv_font.h **** /**
   2:Lib/lvgl/src/widgets/checkbox/../../core/../misc/../font/lv_font.h ****  * @file lv_font.h
   3:Lib/lvgl/src/widgets/checkbox/../../core/../misc/../font/lv_font.h ****  *
   4:Lib/lvgl/src/widgets/checkbox/../../core/../misc/../font/lv_font.h ****  */
   5:Lib/lvgl/src/widgets/checkbox/../../core/../misc/../font/lv_font.h **** 
ARM GAS  C:\Users\Alex\AppData\Local\Temp\ccFfvF9D.s 			page 16


   6:Lib/lvgl/src/widgets/checkbox/../../core/../misc/../font/lv_font.h **** #ifndef LV_FONT_H
   7:Lib/lvgl/src/widgets/checkbox/../../core/../misc/../font/lv_font.h **** #define LV_FONT_H
   8:Lib/lvgl/src/widgets/checkbox/../../core/../misc/../font/lv_font.h **** 
   9:Lib/lvgl/src/widgets/checkbox/../../core/../misc/../font/lv_font.h **** #ifdef __cplusplus
  10:Lib/lvgl/src/widgets/checkbox/../../core/../misc/../font/lv_font.h **** extern "C" {
  11:Lib/lvgl/src/widgets/checkbox/../../core/../misc/../font/lv_font.h **** #endif
  12:Lib/lvgl/src/widgets/checkbox/../../core/../misc/../font/lv_font.h **** 
  13:Lib/lvgl/src/widgets/checkbox/../../core/../misc/../font/lv_font.h **** /*********************
  14:Lib/lvgl/src/widgets/checkbox/../../core/../misc/../font/lv_font.h ****  *      INCLUDES
  15:Lib/lvgl/src/widgets/checkbox/../../core/../misc/../font/lv_font.h ****  *********************/
  16:Lib/lvgl/src/widgets/checkbox/../../core/../misc/../font/lv_font.h **** #include "../lv_conf_internal.h"
  17:Lib/lvgl/src/widgets/checkbox/../../core/../misc/../font/lv_font.h **** #include <stdint.h>
  18:Lib/lvgl/src/widgets/checkbox/../../core/../misc/../font/lv_font.h **** #include <stddef.h>
  19:Lib/lvgl/src/widgets/checkbox/../../core/../misc/../font/lv_font.h **** #include <stdbool.h>
  20:Lib/lvgl/src/widgets/checkbox/../../core/../misc/../font/lv_font.h **** 
  21:Lib/lvgl/src/widgets/checkbox/../../core/../misc/../font/lv_font.h **** #include "lv_symbol_def.h"
  22:Lib/lvgl/src/widgets/checkbox/../../core/../misc/../font/lv_font.h **** #include "../draw/lv_draw_buf.h"
  23:Lib/lvgl/src/widgets/checkbox/../../core/../misc/../font/lv_font.h **** #include "../misc/lv_area.h"
  24:Lib/lvgl/src/widgets/checkbox/../../core/../misc/../font/lv_font.h **** #include "../misc/lv_types.h"
  25:Lib/lvgl/src/widgets/checkbox/../../core/../misc/../font/lv_font.h **** #include "../misc/cache/lv_cache.h"
  26:Lib/lvgl/src/widgets/checkbox/../../core/../misc/../font/lv_font.h **** 
  27:Lib/lvgl/src/widgets/checkbox/../../core/../misc/../font/lv_font.h **** /*********************
  28:Lib/lvgl/src/widgets/checkbox/../../core/../misc/../font/lv_font.h ****  *      DEFINES
  29:Lib/lvgl/src/widgets/checkbox/../../core/../misc/../font/lv_font.h ****  *********************/
  30:Lib/lvgl/src/widgets/checkbox/../../core/../misc/../font/lv_font.h **** 
  31:Lib/lvgl/src/widgets/checkbox/../../core/../misc/../font/lv_font.h **** /* imgfont identifier */
  32:Lib/lvgl/src/widgets/checkbox/../../core/../misc/../font/lv_font.h **** #define LV_IMGFONT_BPP 9
  33:Lib/lvgl/src/widgets/checkbox/../../core/../misc/../font/lv_font.h **** #define LV_VECFONT_BPP 10
  34:Lib/lvgl/src/widgets/checkbox/../../core/../misc/../font/lv_font.h **** 
  35:Lib/lvgl/src/widgets/checkbox/../../core/../misc/../font/lv_font.h **** /**********************
  36:Lib/lvgl/src/widgets/checkbox/../../core/../misc/../font/lv_font.h ****  *      TYPEDEFS
  37:Lib/lvgl/src/widgets/checkbox/../../core/../misc/../font/lv_font.h ****  **********************/
  38:Lib/lvgl/src/widgets/checkbox/../../core/../misc/../font/lv_font.h **** 
  39:Lib/lvgl/src/widgets/checkbox/../../core/../misc/../font/lv_font.h **** /*------------------
  40:Lib/lvgl/src/widgets/checkbox/../../core/../misc/../font/lv_font.h ****  * General types
  41:Lib/lvgl/src/widgets/checkbox/../../core/../misc/../font/lv_font.h ****  *-----------------*/
  42:Lib/lvgl/src/widgets/checkbox/../../core/../misc/../font/lv_font.h **** 
  43:Lib/lvgl/src/widgets/checkbox/../../core/../misc/../font/lv_font.h **** /** Describes the properties of a glyph.*/
  44:Lib/lvgl/src/widgets/checkbox/../../core/../misc/../font/lv_font.h **** typedef struct {
  45:Lib/lvgl/src/widgets/checkbox/../../core/../misc/../font/lv_font.h ****     const lv_font_t *
  46:Lib/lvgl/src/widgets/checkbox/../../core/../misc/../font/lv_font.h ****     resolved_font; /**< Pointer to a font where the glyph was actually found after handling fallbac
  47:Lib/lvgl/src/widgets/checkbox/../../core/../misc/../font/lv_font.h ****     uint16_t adv_w; /**< The glyph needs this space. Draw the next glyph after this width.*/
  48:Lib/lvgl/src/widgets/checkbox/../../core/../misc/../font/lv_font.h ****     uint16_t box_w; /**< Width of the glyph's bounding box*/
  49:Lib/lvgl/src/widgets/checkbox/../../core/../misc/../font/lv_font.h ****     uint16_t box_h; /**< Height of the glyph's bounding box*/
  50:Lib/lvgl/src/widgets/checkbox/../../core/../misc/../font/lv_font.h ****     int16_t ofs_x;  /**< x offset of the bounding box*/
  51:Lib/lvgl/src/widgets/checkbox/../../core/../misc/../font/lv_font.h ****     int16_t ofs_y;  /**< y offset of the bounding box*/
  52:Lib/lvgl/src/widgets/checkbox/../../core/../misc/../font/lv_font.h ****     uint8_t bpp: 4;  /**< Bit-per-pixel: 1, 2, 4, 8*/
  53:Lib/lvgl/src/widgets/checkbox/../../core/../misc/../font/lv_font.h ****     uint8_t is_placeholder: 1; /** Glyph is missing. But placeholder will still be displayed */
  54:Lib/lvgl/src/widgets/checkbox/../../core/../misc/../font/lv_font.h **** 
  55:Lib/lvgl/src/widgets/checkbox/../../core/../misc/../font/lv_font.h ****     uint32_t glyph_index; /**< The index of the glyph in the font file. Used by the font cache*/
  56:Lib/lvgl/src/widgets/checkbox/../../core/../misc/../font/lv_font.h ****     lv_cache_entry_t * entry; /**< The cache entry of the glyph draw data. Used by the font cache*/
  57:Lib/lvgl/src/widgets/checkbox/../../core/../misc/../font/lv_font.h **** } lv_font_glyph_dsc_t;
  58:Lib/lvgl/src/widgets/checkbox/../../core/../misc/../font/lv_font.h **** 
  59:Lib/lvgl/src/widgets/checkbox/../../core/../misc/../font/lv_font.h **** /** The bitmaps might be upscaled by 3 to achieve subpixel rendering.*/
  60:Lib/lvgl/src/widgets/checkbox/../../core/../misc/../font/lv_font.h **** enum _lv_font_subpx_t {
  61:Lib/lvgl/src/widgets/checkbox/../../core/../misc/../font/lv_font.h ****     LV_FONT_SUBPX_NONE,
  62:Lib/lvgl/src/widgets/checkbox/../../core/../misc/../font/lv_font.h ****     LV_FONT_SUBPX_HOR,
ARM GAS  C:\Users\Alex\AppData\Local\Temp\ccFfvF9D.s 			page 17


  63:Lib/lvgl/src/widgets/checkbox/../../core/../misc/../font/lv_font.h ****     LV_FONT_SUBPX_VER,
  64:Lib/lvgl/src/widgets/checkbox/../../core/../misc/../font/lv_font.h ****     LV_FONT_SUBPX_BOTH,
  65:Lib/lvgl/src/widgets/checkbox/../../core/../misc/../font/lv_font.h **** };
  66:Lib/lvgl/src/widgets/checkbox/../../core/../misc/../font/lv_font.h **** 
  67:Lib/lvgl/src/widgets/checkbox/../../core/../misc/../font/lv_font.h **** #ifdef DOXYGEN
  68:Lib/lvgl/src/widgets/checkbox/../../core/../misc/../font/lv_font.h **** typedef _lv_font_subpx_t lv_font_subpx_t;
  69:Lib/lvgl/src/widgets/checkbox/../../core/../misc/../font/lv_font.h **** #else
  70:Lib/lvgl/src/widgets/checkbox/../../core/../misc/../font/lv_font.h **** typedef uint8_t lv_font_subpx_t;
  71:Lib/lvgl/src/widgets/checkbox/../../core/../misc/../font/lv_font.h **** #endif /*DOXYGEN*/
  72:Lib/lvgl/src/widgets/checkbox/../../core/../misc/../font/lv_font.h **** 
  73:Lib/lvgl/src/widgets/checkbox/../../core/../misc/../font/lv_font.h **** /** Adjust letter spacing for specific character pairs.*/
  74:Lib/lvgl/src/widgets/checkbox/../../core/../misc/../font/lv_font.h **** enum _lv_font_kerning_t {
  75:Lib/lvgl/src/widgets/checkbox/../../core/../misc/../font/lv_font.h ****     LV_FONT_KERNING_NORMAL,
  76:Lib/lvgl/src/widgets/checkbox/../../core/../misc/../font/lv_font.h ****     LV_FONT_KERNING_NONE,
  77:Lib/lvgl/src/widgets/checkbox/../../core/../misc/../font/lv_font.h **** };
  78:Lib/lvgl/src/widgets/checkbox/../../core/../misc/../font/lv_font.h **** 
  79:Lib/lvgl/src/widgets/checkbox/../../core/../misc/../font/lv_font.h **** #ifdef DOXYGEN
  80:Lib/lvgl/src/widgets/checkbox/../../core/../misc/../font/lv_font.h **** typedef _lv_font_kerning_t lv_font_kerning_t;
  81:Lib/lvgl/src/widgets/checkbox/../../core/../misc/../font/lv_font.h **** #else
  82:Lib/lvgl/src/widgets/checkbox/../../core/../misc/../font/lv_font.h **** typedef uint8_t lv_font_kerning_t;
  83:Lib/lvgl/src/widgets/checkbox/../../core/../misc/../font/lv_font.h **** #endif /*DOXYGEN*/
  84:Lib/lvgl/src/widgets/checkbox/../../core/../misc/../font/lv_font.h **** 
  85:Lib/lvgl/src/widgets/checkbox/../../core/../misc/../font/lv_font.h **** /** Describe the properties of a font*/
  86:Lib/lvgl/src/widgets/checkbox/../../core/../misc/../font/lv_font.h **** struct _lv_font_t {
  87:Lib/lvgl/src/widgets/checkbox/../../core/../misc/../font/lv_font.h ****     /** Get a glyph's descriptor from a font*/
  88:Lib/lvgl/src/widgets/checkbox/../../core/../misc/../font/lv_font.h ****     bool (*get_glyph_dsc)(const lv_font_t *, lv_font_glyph_dsc_t *, uint32_t letter, uint32_t lette
  89:Lib/lvgl/src/widgets/checkbox/../../core/../misc/../font/lv_font.h **** 
  90:Lib/lvgl/src/widgets/checkbox/../../core/../misc/../font/lv_font.h ****     /** Get a glyph's bitmap from a font*/
  91:Lib/lvgl/src/widgets/checkbox/../../core/../misc/../font/lv_font.h ****     const void * (*get_glyph_bitmap)(lv_font_glyph_dsc_t *, uint32_t, lv_draw_buf_t *);
  92:Lib/lvgl/src/widgets/checkbox/../../core/../misc/../font/lv_font.h **** 
  93:Lib/lvgl/src/widgets/checkbox/../../core/../misc/../font/lv_font.h ****     /** Release a glyph*/
  94:Lib/lvgl/src/widgets/checkbox/../../core/../misc/../font/lv_font.h ****     void (*release_glyph)(const lv_font_t *, lv_font_glyph_dsc_t *);
  95:Lib/lvgl/src/widgets/checkbox/../../core/../misc/../font/lv_font.h **** 
  96:Lib/lvgl/src/widgets/checkbox/../../core/../misc/../font/lv_font.h ****     /*Pointer to the font in a font pack (must have the same line height)*/
  97:Lib/lvgl/src/widgets/checkbox/../../core/../misc/../font/lv_font.h ****     int32_t line_height;         /**< The real line height where any text fits*/
  98:Lib/lvgl/src/widgets/checkbox/../../core/../misc/../font/lv_font.h ****     int32_t base_line;           /**< Base line measured from the top of the line_height*/
  99:Lib/lvgl/src/widgets/checkbox/../../core/../misc/../font/lv_font.h ****     uint8_t subpx   : 2;            /**< An element of `lv_font_subpx_t`*/
 100:Lib/lvgl/src/widgets/checkbox/../../core/../misc/../font/lv_font.h ****     uint8_t kerning : 1;            /**< An element of `lv_font_kerning_t`*/
 101:Lib/lvgl/src/widgets/checkbox/../../core/../misc/../font/lv_font.h **** 
 102:Lib/lvgl/src/widgets/checkbox/../../core/../misc/../font/lv_font.h ****     int8_t underline_position;      /**< Distance between the top of the underline and base line (<
 103:Lib/lvgl/src/widgets/checkbox/../../core/../misc/../font/lv_font.h ****     int8_t underline_thickness;     /**< Thickness of the underline*/
 104:Lib/lvgl/src/widgets/checkbox/../../core/../misc/../font/lv_font.h **** 
 105:Lib/lvgl/src/widgets/checkbox/../../core/../misc/../font/lv_font.h ****     const void * dsc;               /**< Store implementation specific or run_time data or caching 
 106:Lib/lvgl/src/widgets/checkbox/../../core/../misc/../font/lv_font.h ****     const lv_font_t * fallback;   /**< Fallback font for missing glyph. Resolved recursively */
 107:Lib/lvgl/src/widgets/checkbox/../../core/../misc/../font/lv_font.h ****     void * user_data;               /**< Custom user data for font.*/
 108:Lib/lvgl/src/widgets/checkbox/../../core/../misc/../font/lv_font.h **** };
 109:Lib/lvgl/src/widgets/checkbox/../../core/../misc/../font/lv_font.h **** 
 110:Lib/lvgl/src/widgets/checkbox/../../core/../misc/../font/lv_font.h **** /**********************
 111:Lib/lvgl/src/widgets/checkbox/../../core/../misc/../font/lv_font.h ****  * GLOBAL PROTOTYPES
 112:Lib/lvgl/src/widgets/checkbox/../../core/../misc/../font/lv_font.h ****  **********************/
 113:Lib/lvgl/src/widgets/checkbox/../../core/../misc/../font/lv_font.h **** 
 114:Lib/lvgl/src/widgets/checkbox/../../core/../misc/../font/lv_font.h **** /**
 115:Lib/lvgl/src/widgets/checkbox/../../core/../misc/../font/lv_font.h ****  * Return with the bitmap of a font.
 116:Lib/lvgl/src/widgets/checkbox/../../core/../misc/../font/lv_font.h ****  * @param g_dsc         the glyph descriptor including which font to use etc.
 117:Lib/lvgl/src/widgets/checkbox/../../core/../misc/../font/lv_font.h ****  * @param letter        a UNICODE character code
 118:Lib/lvgl/src/widgets/checkbox/../../core/../misc/../font/lv_font.h ****  * @param draw_buf      a draw buffer that can be used to store the bitmap of the glyph, it's OK no
 119:Lib/lvgl/src/widgets/checkbox/../../core/../misc/../font/lv_font.h ****  * @return pointer to the glyph's data. It can be a draw buffer for bitmap fonts or an image source
ARM GAS  C:\Users\Alex\AppData\Local\Temp\ccFfvF9D.s 			page 18


 120:Lib/lvgl/src/widgets/checkbox/../../core/../misc/../font/lv_font.h ****  */
 121:Lib/lvgl/src/widgets/checkbox/../../core/../misc/../font/lv_font.h **** const void * lv_font_get_glyph_bitmap(lv_font_glyph_dsc_t * g_dsc, uint32_t letter,
 122:Lib/lvgl/src/widgets/checkbox/../../core/../misc/../font/lv_font.h ****                                       lv_draw_buf_t * draw_buf);
 123:Lib/lvgl/src/widgets/checkbox/../../core/../misc/../font/lv_font.h **** 
 124:Lib/lvgl/src/widgets/checkbox/../../core/../misc/../font/lv_font.h **** /**
 125:Lib/lvgl/src/widgets/checkbox/../../core/../misc/../font/lv_font.h ****  * Get the descriptor of a glyph
 126:Lib/lvgl/src/widgets/checkbox/../../core/../misc/../font/lv_font.h ****  * @param font          pointer to font
 127:Lib/lvgl/src/widgets/checkbox/../../core/../misc/../font/lv_font.h ****  * @param dsc_out       store the result descriptor here
 128:Lib/lvgl/src/widgets/checkbox/../../core/../misc/../font/lv_font.h ****  * @param letter        a UNICODE letter code
 129:Lib/lvgl/src/widgets/checkbox/../../core/../misc/../font/lv_font.h ****  * @param letter_next   the next letter after `letter`. Used for kerning
 130:Lib/lvgl/src/widgets/checkbox/../../core/../misc/../font/lv_font.h ****  * @return true: descriptor is successfully loaded into `dsc_out`.
 131:Lib/lvgl/src/widgets/checkbox/../../core/../misc/../font/lv_font.h ****  *         false: the letter was not found, no data is loaded to `dsc_out`
 132:Lib/lvgl/src/widgets/checkbox/../../core/../misc/../font/lv_font.h ****  */
 133:Lib/lvgl/src/widgets/checkbox/../../core/../misc/../font/lv_font.h **** bool lv_font_get_glyph_dsc(const lv_font_t * font, lv_font_glyph_dsc_t * dsc_out, uint32_t letter,
 134:Lib/lvgl/src/widgets/checkbox/../../core/../misc/../font/lv_font.h ****                            uint32_t letter_next);
 135:Lib/lvgl/src/widgets/checkbox/../../core/../misc/../font/lv_font.h **** 
 136:Lib/lvgl/src/widgets/checkbox/../../core/../misc/../font/lv_font.h **** /**
 137:Lib/lvgl/src/widgets/checkbox/../../core/../misc/../font/lv_font.h ****  * Get the width of a glyph with kerning
 138:Lib/lvgl/src/widgets/checkbox/../../core/../misc/../font/lv_font.h ****  * @param font          pointer to a font
 139:Lib/lvgl/src/widgets/checkbox/../../core/../misc/../font/lv_font.h ****  * @param letter        a UNICODE letter
 140:Lib/lvgl/src/widgets/checkbox/../../core/../misc/../font/lv_font.h ****  * @param letter_next   the next letter after `letter`. Used for kerning
 141:Lib/lvgl/src/widgets/checkbox/../../core/../misc/../font/lv_font.h ****  * @return the width of the glyph
 142:Lib/lvgl/src/widgets/checkbox/../../core/../misc/../font/lv_font.h ****  */
 143:Lib/lvgl/src/widgets/checkbox/../../core/../misc/../font/lv_font.h **** uint16_t lv_font_get_glyph_width(const lv_font_t * font, uint32_t letter, uint32_t letter_next);
 144:Lib/lvgl/src/widgets/checkbox/../../core/../misc/../font/lv_font.h **** 
 145:Lib/lvgl/src/widgets/checkbox/../../core/../misc/../font/lv_font.h **** /**
 146:Lib/lvgl/src/widgets/checkbox/../../core/../misc/../font/lv_font.h ****  * Get the line height of a font. All characters fit into this height
 147:Lib/lvgl/src/widgets/checkbox/../../core/../misc/../font/lv_font.h ****  * @param font      pointer to a font
 148:Lib/lvgl/src/widgets/checkbox/../../core/../misc/../font/lv_font.h ****  * @return the height of a font
 149:Lib/lvgl/src/widgets/checkbox/../../core/../misc/../font/lv_font.h ****  */
 150:Lib/lvgl/src/widgets/checkbox/../../core/../misc/../font/lv_font.h **** static inline int32_t lv_font_get_line_height(const lv_font_t * font)
  93              		.loc 3 150 23 view .LVU17
  94              	.LBB61:
 151:Lib/lvgl/src/widgets/checkbox/../../core/../misc/../font/lv_font.h **** {
 152:Lib/lvgl/src/widgets/checkbox/../../core/../misc/../font/lv_font.h ****     return font->line_height;
  95              		.loc 3 152 5 view .LVU18
  96              		.loc 3 152 16 is_stmt 0 view .LVU19
  97 0024 C368     		ldr	r3, [r0, #12]
  98 0026 0493     		str	r3, [sp, #16]
  99              	.LVL9:
 100              		.loc 3 152 16 view .LVU20
 101              	.LBE61:
 102              	.LBE60:
 219:Lib/lvgl/src/widgets/checkbox/lv_checkbox.c **** 
 220:Lib/lvgl/src/widgets/checkbox/lv_checkbox.c ****     const bool is_rtl = LV_BASE_DIR_RTL == lv_obj_get_style_base_dir(obj, LV_PART_MAIN);
 103              		.loc 1 220 5 is_stmt 1 view .LVU21
 104              	.LBB62:
 105              	.LBI62:
 542:Lib/lvgl/src/widgets/checkbox/../../core/lv_obj_style_gen.h **** }
 543:Lib/lvgl/src/widgets/checkbox/../../core/lv_obj_style_gen.h **** 
 544:Lib/lvgl/src/widgets/checkbox/../../core/lv_obj_style_gen.h **** static inline int32_t lv_obj_get_style_text_letter_space(const lv_obj_t * obj, uint32_t part)
 545:Lib/lvgl/src/widgets/checkbox/../../core/lv_obj_style_gen.h **** {
 546:Lib/lvgl/src/widgets/checkbox/../../core/lv_obj_style_gen.h ****     lv_style_value_t v = lv_obj_get_style_prop(obj, part, LV_STYLE_TEXT_LETTER_SPACE);
 547:Lib/lvgl/src/widgets/checkbox/../../core/lv_obj_style_gen.h ****     return (int32_t)v.num;
 548:Lib/lvgl/src/widgets/checkbox/../../core/lv_obj_style_gen.h **** }
 549:Lib/lvgl/src/widgets/checkbox/../../core/lv_obj_style_gen.h **** 
 550:Lib/lvgl/src/widgets/checkbox/../../core/lv_obj_style_gen.h **** static inline int32_t lv_obj_get_style_text_line_space(const lv_obj_t * obj, uint32_t part)
ARM GAS  C:\Users\Alex\AppData\Local\Temp\ccFfvF9D.s 			page 19


 551:Lib/lvgl/src/widgets/checkbox/../../core/lv_obj_style_gen.h **** {
 552:Lib/lvgl/src/widgets/checkbox/../../core/lv_obj_style_gen.h ****     lv_style_value_t v = lv_obj_get_style_prop(obj, part, LV_STYLE_TEXT_LINE_SPACE);
 553:Lib/lvgl/src/widgets/checkbox/../../core/lv_obj_style_gen.h ****     return (int32_t)v.num;
 554:Lib/lvgl/src/widgets/checkbox/../../core/lv_obj_style_gen.h **** }
 555:Lib/lvgl/src/widgets/checkbox/../../core/lv_obj_style_gen.h **** 
 556:Lib/lvgl/src/widgets/checkbox/../../core/lv_obj_style_gen.h **** static inline lv_text_decor_t lv_obj_get_style_text_decor(const lv_obj_t * obj, uint32_t part)
 557:Lib/lvgl/src/widgets/checkbox/../../core/lv_obj_style_gen.h **** {
 558:Lib/lvgl/src/widgets/checkbox/../../core/lv_obj_style_gen.h ****     lv_style_value_t v = lv_obj_get_style_prop(obj, part, LV_STYLE_TEXT_DECOR);
 559:Lib/lvgl/src/widgets/checkbox/../../core/lv_obj_style_gen.h ****     return (lv_text_decor_t)v.num;
 560:Lib/lvgl/src/widgets/checkbox/../../core/lv_obj_style_gen.h **** }
 561:Lib/lvgl/src/widgets/checkbox/../../core/lv_obj_style_gen.h **** 
 562:Lib/lvgl/src/widgets/checkbox/../../core/lv_obj_style_gen.h **** static inline lv_text_align_t lv_obj_get_style_text_align(const lv_obj_t * obj, uint32_t part)
 563:Lib/lvgl/src/widgets/checkbox/../../core/lv_obj_style_gen.h **** {
 564:Lib/lvgl/src/widgets/checkbox/../../core/lv_obj_style_gen.h ****     lv_style_value_t v = lv_obj_get_style_prop(obj, part, LV_STYLE_TEXT_ALIGN);
 565:Lib/lvgl/src/widgets/checkbox/../../core/lv_obj_style_gen.h ****     return (lv_text_align_t)v.num;
 566:Lib/lvgl/src/widgets/checkbox/../../core/lv_obj_style_gen.h **** }
 567:Lib/lvgl/src/widgets/checkbox/../../core/lv_obj_style_gen.h **** 
 568:Lib/lvgl/src/widgets/checkbox/../../core/lv_obj_style_gen.h **** static inline int32_t lv_obj_get_style_radius(const lv_obj_t * obj, uint32_t part)
 569:Lib/lvgl/src/widgets/checkbox/../../core/lv_obj_style_gen.h **** {
 570:Lib/lvgl/src/widgets/checkbox/../../core/lv_obj_style_gen.h ****     lv_style_value_t v = lv_obj_get_style_prop(obj, part, LV_STYLE_RADIUS);
 571:Lib/lvgl/src/widgets/checkbox/../../core/lv_obj_style_gen.h ****     return (int32_t)v.num;
 572:Lib/lvgl/src/widgets/checkbox/../../core/lv_obj_style_gen.h **** }
 573:Lib/lvgl/src/widgets/checkbox/../../core/lv_obj_style_gen.h **** 
 574:Lib/lvgl/src/widgets/checkbox/../../core/lv_obj_style_gen.h **** static inline bool lv_obj_get_style_clip_corner(const lv_obj_t * obj, uint32_t part)
 575:Lib/lvgl/src/widgets/checkbox/../../core/lv_obj_style_gen.h **** {
 576:Lib/lvgl/src/widgets/checkbox/../../core/lv_obj_style_gen.h ****     lv_style_value_t v = lv_obj_get_style_prop(obj, part, LV_STYLE_CLIP_CORNER);
 577:Lib/lvgl/src/widgets/checkbox/../../core/lv_obj_style_gen.h ****     return (bool)v.num;
 578:Lib/lvgl/src/widgets/checkbox/../../core/lv_obj_style_gen.h **** }
 579:Lib/lvgl/src/widgets/checkbox/../../core/lv_obj_style_gen.h **** 
 580:Lib/lvgl/src/widgets/checkbox/../../core/lv_obj_style_gen.h **** static inline lv_opa_t lv_obj_get_style_opa(const lv_obj_t * obj, uint32_t part)
 581:Lib/lvgl/src/widgets/checkbox/../../core/lv_obj_style_gen.h **** {
 582:Lib/lvgl/src/widgets/checkbox/../../core/lv_obj_style_gen.h ****     lv_style_value_t v = lv_obj_get_style_prop(obj, part, LV_STYLE_OPA);
 583:Lib/lvgl/src/widgets/checkbox/../../core/lv_obj_style_gen.h ****     return (lv_opa_t)v.num;
 584:Lib/lvgl/src/widgets/checkbox/../../core/lv_obj_style_gen.h **** }
 585:Lib/lvgl/src/widgets/checkbox/../../core/lv_obj_style_gen.h **** 
 586:Lib/lvgl/src/widgets/checkbox/../../core/lv_obj_style_gen.h **** static inline lv_opa_t lv_obj_get_style_opa_layered(const lv_obj_t * obj, uint32_t part)
 587:Lib/lvgl/src/widgets/checkbox/../../core/lv_obj_style_gen.h **** {
 588:Lib/lvgl/src/widgets/checkbox/../../core/lv_obj_style_gen.h ****     lv_style_value_t v = lv_obj_get_style_prop(obj, part, LV_STYLE_OPA_LAYERED);
 589:Lib/lvgl/src/widgets/checkbox/../../core/lv_obj_style_gen.h ****     return (lv_opa_t)v.num;
 590:Lib/lvgl/src/widgets/checkbox/../../core/lv_obj_style_gen.h **** }
 591:Lib/lvgl/src/widgets/checkbox/../../core/lv_obj_style_gen.h **** 
 592:Lib/lvgl/src/widgets/checkbox/../../core/lv_obj_style_gen.h **** static inline const lv_color_filter_dsc_t * lv_obj_get_style_color_filter_dsc(const lv_obj_t * obj,
 593:Lib/lvgl/src/widgets/checkbox/../../core/lv_obj_style_gen.h **** {
 594:Lib/lvgl/src/widgets/checkbox/../../core/lv_obj_style_gen.h ****     lv_style_value_t v = lv_obj_get_style_prop(obj, part, LV_STYLE_COLOR_FILTER_DSC);
 595:Lib/lvgl/src/widgets/checkbox/../../core/lv_obj_style_gen.h ****     return (const lv_color_filter_dsc_t *)v.ptr;
 596:Lib/lvgl/src/widgets/checkbox/../../core/lv_obj_style_gen.h **** }
 597:Lib/lvgl/src/widgets/checkbox/../../core/lv_obj_style_gen.h **** 
 598:Lib/lvgl/src/widgets/checkbox/../../core/lv_obj_style_gen.h **** static inline lv_opa_t lv_obj_get_style_color_filter_opa(const lv_obj_t * obj, uint32_t part)
 599:Lib/lvgl/src/widgets/checkbox/../../core/lv_obj_style_gen.h **** {
 600:Lib/lvgl/src/widgets/checkbox/../../core/lv_obj_style_gen.h ****     lv_style_value_t v = lv_obj_get_style_prop(obj, part, LV_STYLE_COLOR_FILTER_OPA);
 601:Lib/lvgl/src/widgets/checkbox/../../core/lv_obj_style_gen.h ****     return (lv_opa_t)v.num;
 602:Lib/lvgl/src/widgets/checkbox/../../core/lv_obj_style_gen.h **** }
 603:Lib/lvgl/src/widgets/checkbox/../../core/lv_obj_style_gen.h **** 
 604:Lib/lvgl/src/widgets/checkbox/../../core/lv_obj_style_gen.h **** static inline const lv_anim_t * lv_obj_get_style_anim(const lv_obj_t * obj, uint32_t part)
 605:Lib/lvgl/src/widgets/checkbox/../../core/lv_obj_style_gen.h **** {
 606:Lib/lvgl/src/widgets/checkbox/../../core/lv_obj_style_gen.h ****     lv_style_value_t v = lv_obj_get_style_prop(obj, part, LV_STYLE_ANIM);
 607:Lib/lvgl/src/widgets/checkbox/../../core/lv_obj_style_gen.h ****     return (const lv_anim_t *)v.ptr;
ARM GAS  C:\Users\Alex\AppData\Local\Temp\ccFfvF9D.s 			page 20


 608:Lib/lvgl/src/widgets/checkbox/../../core/lv_obj_style_gen.h **** }
 609:Lib/lvgl/src/widgets/checkbox/../../core/lv_obj_style_gen.h **** 
 610:Lib/lvgl/src/widgets/checkbox/../../core/lv_obj_style_gen.h **** static inline uint32_t lv_obj_get_style_anim_duration(const lv_obj_t * obj, uint32_t part)
 611:Lib/lvgl/src/widgets/checkbox/../../core/lv_obj_style_gen.h **** {
 612:Lib/lvgl/src/widgets/checkbox/../../core/lv_obj_style_gen.h ****     lv_style_value_t v = lv_obj_get_style_prop(obj, part, LV_STYLE_ANIM_DURATION);
 613:Lib/lvgl/src/widgets/checkbox/../../core/lv_obj_style_gen.h ****     return (uint32_t)v.num;
 614:Lib/lvgl/src/widgets/checkbox/../../core/lv_obj_style_gen.h **** }
 615:Lib/lvgl/src/widgets/checkbox/../../core/lv_obj_style_gen.h **** 
 616:Lib/lvgl/src/widgets/checkbox/../../core/lv_obj_style_gen.h **** static inline const lv_style_transition_dsc_t * lv_obj_get_style_transition(const lv_obj_t * obj, u
 617:Lib/lvgl/src/widgets/checkbox/../../core/lv_obj_style_gen.h **** {
 618:Lib/lvgl/src/widgets/checkbox/../../core/lv_obj_style_gen.h ****     lv_style_value_t v = lv_obj_get_style_prop(obj, part, LV_STYLE_TRANSITION);
 619:Lib/lvgl/src/widgets/checkbox/../../core/lv_obj_style_gen.h ****     return (const lv_style_transition_dsc_t *)v.ptr;
 620:Lib/lvgl/src/widgets/checkbox/../../core/lv_obj_style_gen.h **** }
 621:Lib/lvgl/src/widgets/checkbox/../../core/lv_obj_style_gen.h **** 
 622:Lib/lvgl/src/widgets/checkbox/../../core/lv_obj_style_gen.h **** static inline lv_blend_mode_t lv_obj_get_style_blend_mode(const lv_obj_t * obj, uint32_t part)
 623:Lib/lvgl/src/widgets/checkbox/../../core/lv_obj_style_gen.h **** {
 624:Lib/lvgl/src/widgets/checkbox/../../core/lv_obj_style_gen.h ****     lv_style_value_t v = lv_obj_get_style_prop(obj, part, LV_STYLE_BLEND_MODE);
 625:Lib/lvgl/src/widgets/checkbox/../../core/lv_obj_style_gen.h ****     return (lv_blend_mode_t)v.num;
 626:Lib/lvgl/src/widgets/checkbox/../../core/lv_obj_style_gen.h **** }
 627:Lib/lvgl/src/widgets/checkbox/../../core/lv_obj_style_gen.h **** 
 628:Lib/lvgl/src/widgets/checkbox/../../core/lv_obj_style_gen.h **** static inline uint16_t lv_obj_get_style_layout(const lv_obj_t * obj, uint32_t part)
 629:Lib/lvgl/src/widgets/checkbox/../../core/lv_obj_style_gen.h **** {
 630:Lib/lvgl/src/widgets/checkbox/../../core/lv_obj_style_gen.h ****     lv_style_value_t v = lv_obj_get_style_prop(obj, part, LV_STYLE_LAYOUT);
 631:Lib/lvgl/src/widgets/checkbox/../../core/lv_obj_style_gen.h ****     return (uint16_t)v.num;
 632:Lib/lvgl/src/widgets/checkbox/../../core/lv_obj_style_gen.h **** }
 633:Lib/lvgl/src/widgets/checkbox/../../core/lv_obj_style_gen.h **** 
 634:Lib/lvgl/src/widgets/checkbox/../../core/lv_obj_style_gen.h **** static inline lv_base_dir_t lv_obj_get_style_base_dir(const lv_obj_t * obj, uint32_t part)
 106              		.loc 2 634 29 view .LVU22
 107              	.LBB63:
 635:Lib/lvgl/src/widgets/checkbox/../../core/lv_obj_style_gen.h **** {
 636:Lib/lvgl/src/widgets/checkbox/../../core/lv_obj_style_gen.h ****     lv_style_value_t v = lv_obj_get_style_prop(obj, part, LV_STYLE_BASE_DIR);
 108              		.loc 2 636 5 view .LVU23
 109              		.loc 2 636 26 is_stmt 0 view .LVU24
 110 0028 2722     		movs	r2, #39
 111 002a 0021     		movs	r1, #0
 112 002c 2046     		mov	r0, r4
 113 002e FFF7FEFF 		bl	lv_obj_get_style_prop
 114              	.LVL10:
 115              		.loc 2 636 26 view .LVU25
 116 0032 0A90     		str	r0, [sp, #40]
 637:Lib/lvgl/src/widgets/checkbox/../../core/lv_obj_style_gen.h ****     return (lv_base_dir_t)v.num;
 117              		.loc 2 637 5 is_stmt 1 view .LVU26
 118              		.loc 2 637 12 is_stmt 0 view .LVU27
 119 0034 5FFA80F9 		uxtb	r9, r0
 120              	.LVL11:
 121              		.loc 2 637 12 view .LVU28
 122              	.LBE63:
 123              	.LBE62:
 221:Lib/lvgl/src/widgets/checkbox/lv_checkbox.c **** 
 222:Lib/lvgl/src/widgets/checkbox/lv_checkbox.c ****     int32_t bg_border = lv_obj_get_style_border_width(obj, LV_PART_MAIN);
 124              		.loc 1 222 5 is_stmt 1 view .LVU29
 125              	.LBB64:
 126              	.LBI64:
 325:Lib/lvgl/src/widgets/checkbox/../../core/lv_obj_style_gen.h **** {
 127              		.loc 2 325 23 view .LVU30
 128              	.LBB65:
 327:Lib/lvgl/src/widgets/checkbox/../../core/lv_obj_style_gen.h ****     return (int32_t)v.num;
ARM GAS  C:\Users\Alex\AppData\Local\Temp\ccFfvF9D.s 			page 21


 129              		.loc 2 327 5 view .LVU31
 327:Lib/lvgl/src/widgets/checkbox/../../core/lv_obj_style_gen.h ****     return (int32_t)v.num;
 130              		.loc 2 327 26 is_stmt 0 view .LVU32
 131 0038 3022     		movs	r2, #48
 132 003a 0021     		movs	r1, #0
 133 003c 2046     		mov	r0, r4
 134 003e FFF7FEFF 		bl	lv_obj_get_style_prop
 135              	.LVL12:
 136 0042 0546     		mov	r5, r0
 137              	.LVL13:
 327:Lib/lvgl/src/widgets/checkbox/../../core/lv_obj_style_gen.h ****     return (int32_t)v.num;
 138              		.loc 2 327 26 view .LVU33
 139 0044 0A90     		str	r0, [sp, #40]
 328:Lib/lvgl/src/widgets/checkbox/../../core/lv_obj_style_gen.h **** }
 140              		.loc 2 328 5 is_stmt 1 view .LVU34
 141              	.LVL14:
 328:Lib/lvgl/src/widgets/checkbox/../../core/lv_obj_style_gen.h **** }
 142              		.loc 2 328 5 is_stmt 0 view .LVU35
 143              	.LBE65:
 144              	.LBE64:
 223:Lib/lvgl/src/widgets/checkbox/lv_checkbox.c ****     int32_t bg_topp = lv_obj_get_style_pad_top(obj, LV_PART_MAIN) + bg_border;
 145              		.loc 1 223 5 is_stmt 1 view .LVU36
 146              	.LBB66:
 147              	.LBI66:
 142:Lib/lvgl/src/widgets/checkbox/../../core/lv_obj_style_gen.h **** {
 148              		.loc 2 142 23 view .LVU37
 149              	.LBB67:
 144:Lib/lvgl/src/widgets/checkbox/../../core/lv_obj_style_gen.h ****     return (int32_t)v.num;
 150              		.loc 2 144 5 view .LVU38
 144:Lib/lvgl/src/widgets/checkbox/../../core/lv_obj_style_gen.h ****     return (int32_t)v.num;
 151              		.loc 2 144 26 is_stmt 0 view .LVU39
 152 0046 1022     		movs	r2, #16
 153 0048 0021     		movs	r1, #0
 154 004a 2046     		mov	r0, r4
 155              	.LVL15:
 144:Lib/lvgl/src/widgets/checkbox/../../core/lv_obj_style_gen.h ****     return (int32_t)v.num;
 156              		.loc 2 144 26 view .LVU40
 157 004c FFF7FEFF 		bl	lv_obj_get_style_prop
 158              	.LVL16:
 159 0050 0A90     		str	r0, [sp, #40]
 145:Lib/lvgl/src/widgets/checkbox/../../core/lv_obj_style_gen.h **** }
 160              		.loc 2 145 5 is_stmt 1 view .LVU41
 161              	.LVL17:
 145:Lib/lvgl/src/widgets/checkbox/../../core/lv_obj_style_gen.h **** }
 162              		.loc 2 145 5 is_stmt 0 view .LVU42
 163              	.LBE67:
 164              	.LBE66:
 165              		.loc 1 223 13 view .LVU43
 166 0052 2B18     		adds	r3, r5, r0
 167 0054 0693     		str	r3, [sp, #24]
 168              	.LVL18:
 224:Lib/lvgl/src/widgets/checkbox/lv_checkbox.c ****     int32_t bg_p = is_rtl ? lv_obj_get_style_pad_right(obj, LV_PART_MAIN) : lv_obj_get_style_pad_le
 169              		.loc 1 224 5 is_stmt 1 view .LVU44
 170              		.loc 1 224 75 is_stmt 0 view .LVU45
 171 0056 B9F1010F 		cmp	r9, #1
 172 005a 00F0B880 		beq	.L9
 173              	.LVL19:
ARM GAS  C:\Users\Alex\AppData\Local\Temp\ccFfvF9D.s 			page 22


 174              	.LBB68:
 175              	.LBI68:
 154:Lib/lvgl/src/widgets/checkbox/../../core/lv_obj_style_gen.h **** {
 176              		.loc 2 154 23 is_stmt 1 view .LVU46
 177              	.LBB69:
 156:Lib/lvgl/src/widgets/checkbox/../../core/lv_obj_style_gen.h ****     return (int32_t)v.num;
 178              		.loc 2 156 5 view .LVU47
 156:Lib/lvgl/src/widgets/checkbox/../../core/lv_obj_style_gen.h ****     return (int32_t)v.num;
 179              		.loc 2 156 26 is_stmt 0 view .LVU48
 180 005e 1222     		movs	r2, #18
 181 0060 0021     		movs	r1, #0
 182 0062 2046     		mov	r0, r4
 183 0064 FFF7FEFF 		bl	lv_obj_get_style_prop
 184              	.LVL20:
 156:Lib/lvgl/src/widgets/checkbox/../../core/lv_obj_style_gen.h ****     return (int32_t)v.num;
 185              		.loc 2 156 26 view .LVU49
 186 0068 0A90     		str	r0, [sp, #40]
 157:Lib/lvgl/src/widgets/checkbox/../../core/lv_obj_style_gen.h **** }
 187              		.loc 2 157 5 is_stmt 1 view .LVU50
 188              	.LVL21:
 157:Lib/lvgl/src/widgets/checkbox/../../core/lv_obj_style_gen.h **** }
 189              		.loc 2 157 5 is_stmt 0 view .LVU51
 190              	.LBE69:
 191              	.LBE68:
 192              		.loc 1 224 75 view .LVU52
 193 006a 2B18     		adds	r3, r5, r0
 194 006c 0793     		str	r3, [sp, #28]
 195              	.L3:
 196              	.LVL22:
 225:Lib/lvgl/src/widgets/checkbox/lv_checkbox.c ****                                                                                                    
 226:Lib/lvgl/src/widgets/checkbox/lv_checkbox.c ****     int32_t bg_colp = lv_obj_get_style_pad_column(obj, LV_PART_MAIN);
 197              		.loc 1 226 5 is_stmt 1 discriminator 4 view .LVU53
 198              	.LBB70:
 199              	.LBI70:
 172:Lib/lvgl/src/widgets/checkbox/../../core/lv_obj_style_gen.h **** {
 200              		.loc 2 172 23 discriminator 4 view .LVU54
 201              	.LBB71:
 174:Lib/lvgl/src/widgets/checkbox/../../core/lv_obj_style_gen.h ****     return (int32_t)v.num;
 202              		.loc 2 174 5 discriminator 4 view .LVU55
 174:Lib/lvgl/src/widgets/checkbox/../../core/lv_obj_style_gen.h ****     return (int32_t)v.num;
 203              		.loc 2 174 26 is_stmt 0 discriminator 4 view .LVU56
 204 006e 1522     		movs	r2, #21
 205 0070 0021     		movs	r1, #0
 206 0072 2046     		mov	r0, r4
 207 0074 FFF7FEFF 		bl	lv_obj_get_style_prop
 208              	.LVL23:
 209 0078 0990     		str	r0, [sp, #36]
 210 007a 0A90     		str	r0, [sp, #40]
 175:Lib/lvgl/src/widgets/checkbox/../../core/lv_obj_style_gen.h **** }
 211              		.loc 2 175 5 is_stmt 1 discriminator 4 view .LVU57
 212              	.LVL24:
 175:Lib/lvgl/src/widgets/checkbox/../../core/lv_obj_style_gen.h **** }
 213              		.loc 2 175 5 is_stmt 0 discriminator 4 view .LVU58
 214              	.LBE71:
 215              	.LBE70:
 227:Lib/lvgl/src/widgets/checkbox/lv_checkbox.c **** 
 228:Lib/lvgl/src/widgets/checkbox/lv_checkbox.c ****     int32_t marker_leftp = lv_obj_get_style_pad_left(obj, LV_PART_INDICATOR);
ARM GAS  C:\Users\Alex\AppData\Local\Temp\ccFfvF9D.s 			page 23


 216              		.loc 1 228 5 is_stmt 1 discriminator 4 view .LVU59
 217              	.LBB72:
 218              	.LBI72:
 154:Lib/lvgl/src/widgets/checkbox/../../core/lv_obj_style_gen.h **** {
 219              		.loc 2 154 23 discriminator 4 view .LVU60
 220              	.LBB73:
 156:Lib/lvgl/src/widgets/checkbox/../../core/lv_obj_style_gen.h ****     return (int32_t)v.num;
 221              		.loc 2 156 5 discriminator 4 view .LVU61
 156:Lib/lvgl/src/widgets/checkbox/../../core/lv_obj_style_gen.h ****     return (int32_t)v.num;
 222              		.loc 2 156 26 is_stmt 0 discriminator 4 view .LVU62
 223 007c 1222     		movs	r2, #18
 224 007e 4FF40031 		mov	r1, #131072
 225 0082 2046     		mov	r0, r4
 226              	.LVL25:
 156:Lib/lvgl/src/widgets/checkbox/../../core/lv_obj_style_gen.h ****     return (int32_t)v.num;
 227              		.loc 2 156 26 discriminator 4 view .LVU63
 228 0084 FFF7FEFF 		bl	lv_obj_get_style_prop
 229              	.LVL26:
 156:Lib/lvgl/src/widgets/checkbox/../../core/lv_obj_style_gen.h ****     return (int32_t)v.num;
 230              		.loc 2 156 26 discriminator 4 view .LVU64
 231 0088 0646     		mov	r6, r0
 232 008a 0A90     		str	r0, [sp, #40]
 157:Lib/lvgl/src/widgets/checkbox/../../core/lv_obj_style_gen.h **** }
 233              		.loc 2 157 5 is_stmt 1 discriminator 4 view .LVU65
 234              	.LVL27:
 157:Lib/lvgl/src/widgets/checkbox/../../core/lv_obj_style_gen.h **** }
 235              		.loc 2 157 5 is_stmt 0 discriminator 4 view .LVU66
 236              	.LBE73:
 237              	.LBE72:
 229:Lib/lvgl/src/widgets/checkbox/lv_checkbox.c ****     int32_t marker_rightp = lv_obj_get_style_pad_right(obj, LV_PART_INDICATOR);
 238              		.loc 1 229 5 is_stmt 1 discriminator 4 view .LVU67
 239              	.LBB74:
 240              	.LBI74:
 160:Lib/lvgl/src/widgets/checkbox/../../core/lv_obj_style_gen.h **** {
 241              		.loc 2 160 23 discriminator 4 view .LVU68
 242              	.LBB75:
 162:Lib/lvgl/src/widgets/checkbox/../../core/lv_obj_style_gen.h ****     return (int32_t)v.num;
 243              		.loc 2 162 5 discriminator 4 view .LVU69
 162:Lib/lvgl/src/widgets/checkbox/../../core/lv_obj_style_gen.h ****     return (int32_t)v.num;
 244              		.loc 2 162 26 is_stmt 0 discriminator 4 view .LVU70
 245 008c 1322     		movs	r2, #19
 246 008e 4FF40031 		mov	r1, #131072
 247 0092 2046     		mov	r0, r4
 248              	.LVL28:
 162:Lib/lvgl/src/widgets/checkbox/../../core/lv_obj_style_gen.h ****     return (int32_t)v.num;
 249              		.loc 2 162 26 discriminator 4 view .LVU71
 250 0094 FFF7FEFF 		bl	lv_obj_get_style_prop
 251              	.LVL29:
 252 0098 8246     		mov	r10, r0
 253 009a 0A90     		str	r0, [sp, #40]
 163:Lib/lvgl/src/widgets/checkbox/../../core/lv_obj_style_gen.h **** }
 254              		.loc 2 163 5 is_stmt 1 discriminator 4 view .LVU72
 255              	.LVL30:
 163:Lib/lvgl/src/widgets/checkbox/../../core/lv_obj_style_gen.h **** }
 256              		.loc 2 163 5 is_stmt 0 discriminator 4 view .LVU73
 257              	.LBE75:
 258              	.LBE74:
ARM GAS  C:\Users\Alex\AppData\Local\Temp\ccFfvF9D.s 			page 24


 230:Lib/lvgl/src/widgets/checkbox/lv_checkbox.c ****     int32_t marker_topp = lv_obj_get_style_pad_top(obj, LV_PART_INDICATOR);
 259              		.loc 1 230 5 is_stmt 1 discriminator 4 view .LVU74
 260              	.LBB76:
 261              	.LBI76:
 142:Lib/lvgl/src/widgets/checkbox/../../core/lv_obj_style_gen.h **** {
 262              		.loc 2 142 23 discriminator 4 view .LVU75
 263              	.LBB77:
 144:Lib/lvgl/src/widgets/checkbox/../../core/lv_obj_style_gen.h ****     return (int32_t)v.num;
 264              		.loc 2 144 5 discriminator 4 view .LVU76
 144:Lib/lvgl/src/widgets/checkbox/../../core/lv_obj_style_gen.h ****     return (int32_t)v.num;
 265              		.loc 2 144 26 is_stmt 0 discriminator 4 view .LVU77
 266 009c 1022     		movs	r2, #16
 267 009e 4FF40031 		mov	r1, #131072
 268 00a2 2046     		mov	r0, r4
 269              	.LVL31:
 144:Lib/lvgl/src/widgets/checkbox/../../core/lv_obj_style_gen.h ****     return (int32_t)v.num;
 270              		.loc 2 144 26 discriminator 4 view .LVU78
 271 00a4 FFF7FEFF 		bl	lv_obj_get_style_prop
 272              	.LVL32:
 273 00a8 8046     		mov	r8, r0
 274 00aa 0A90     		str	r0, [sp, #40]
 145:Lib/lvgl/src/widgets/checkbox/../../core/lv_obj_style_gen.h **** }
 275              		.loc 2 145 5 is_stmt 1 discriminator 4 view .LVU79
 276              	.LVL33:
 145:Lib/lvgl/src/widgets/checkbox/../../core/lv_obj_style_gen.h **** }
 277              		.loc 2 145 5 is_stmt 0 discriminator 4 view .LVU80
 278              	.LBE77:
 279              	.LBE76:
 231:Lib/lvgl/src/widgets/checkbox/lv_checkbox.c ****     int32_t marker_bottomp = lv_obj_get_style_pad_bottom(obj, LV_PART_INDICATOR);
 280              		.loc 1 231 5 is_stmt 1 discriminator 4 view .LVU81
 281              	.LBB78:
 282              	.LBI78:
 148:Lib/lvgl/src/widgets/checkbox/../../core/lv_obj_style_gen.h **** {
 283              		.loc 2 148 23 discriminator 4 view .LVU82
 284              	.LBB79:
 150:Lib/lvgl/src/widgets/checkbox/../../core/lv_obj_style_gen.h ****     return (int32_t)v.num;
 285              		.loc 2 150 5 discriminator 4 view .LVU83
 150:Lib/lvgl/src/widgets/checkbox/../../core/lv_obj_style_gen.h ****     return (int32_t)v.num;
 286              		.loc 2 150 26 is_stmt 0 discriminator 4 view .LVU84
 287 00ac 1122     		movs	r2, #17
 288 00ae 4FF40031 		mov	r1, #131072
 289 00b2 2046     		mov	r0, r4
 290              	.LVL34:
 150:Lib/lvgl/src/widgets/checkbox/../../core/lv_obj_style_gen.h ****     return (int32_t)v.num;
 291              		.loc 2 150 26 discriminator 4 view .LVU85
 292 00b4 FFF7FEFF 		bl	lv_obj_get_style_prop
 293              	.LVL35:
 294 00b8 0546     		mov	r5, r0
 295              	.LVL36:
 150:Lib/lvgl/src/widgets/checkbox/../../core/lv_obj_style_gen.h ****     return (int32_t)v.num;
 296              		.loc 2 150 26 discriminator 4 view .LVU86
 297 00ba 0A90     		str	r0, [sp, #40]
 151:Lib/lvgl/src/widgets/checkbox/../../core/lv_obj_style_gen.h **** }
 298              		.loc 2 151 5 is_stmt 1 discriminator 4 view .LVU87
 299              	.LVL37:
 151:Lib/lvgl/src/widgets/checkbox/../../core/lv_obj_style_gen.h **** }
 300              		.loc 2 151 5 is_stmt 0 discriminator 4 view .LVU88
ARM GAS  C:\Users\Alex\AppData\Local\Temp\ccFfvF9D.s 			page 25


 301              	.LBE79:
 302              	.LBE78:
 232:Lib/lvgl/src/widgets/checkbox/lv_checkbox.c **** 
 233:Lib/lvgl/src/widgets/checkbox/lv_checkbox.c ****     int32_t transf_w = lv_obj_get_style_transform_width(obj, LV_PART_INDICATOR);
 303              		.loc 1 233 5 is_stmt 1 discriminator 4 view .LVU89
 304              	.LBB80:
 305              	.LBI80:
  76:Lib/lvgl/src/widgets/checkbox/../../core/lv_obj_style_gen.h **** {
 306              		.loc 2 76 23 discriminator 4 view .LVU90
 307              	.LBB81:
  78:Lib/lvgl/src/widgets/checkbox/../../core/lv_obj_style_gen.h ****     return (int32_t)v.num;
 308              		.loc 2 78 5 discriminator 4 view .LVU91
  78:Lib/lvgl/src/widgets/checkbox/../../core/lv_obj_style_gen.h ****     return (int32_t)v.num;
 309              		.loc 2 78 26 is_stmt 0 discriminator 4 view .LVU92
 310 00bc 6822     		movs	r2, #104
 311 00be 4FF40031 		mov	r1, #131072
 312 00c2 2046     		mov	r0, r4
 313              	.LVL38:
  78:Lib/lvgl/src/widgets/checkbox/../../core/lv_obj_style_gen.h ****     return (int32_t)v.num;
 314              		.loc 2 78 26 discriminator 4 view .LVU93
 315 00c4 FFF7FEFF 		bl	lv_obj_get_style_prop
 316              	.LVL39:
 317 00c8 0746     		mov	r7, r0
 318 00ca 0A90     		str	r0, [sp, #40]
  79:Lib/lvgl/src/widgets/checkbox/../../core/lv_obj_style_gen.h **** }
 319              		.loc 2 79 5 is_stmt 1 discriminator 4 view .LVU94
 320              	.LVL40:
  79:Lib/lvgl/src/widgets/checkbox/../../core/lv_obj_style_gen.h **** }
 321              		.loc 2 79 5 is_stmt 0 discriminator 4 view .LVU95
 322              	.LBE81:
 323              	.LBE80:
 234:Lib/lvgl/src/widgets/checkbox/lv_checkbox.c ****     int32_t transf_h = lv_obj_get_style_transform_height(obj, LV_PART_INDICATOR);
 324              		.loc 1 234 5 is_stmt 1 discriminator 4 view .LVU96
 325              	.LBB82:
 326              	.LBI82:
  82:Lib/lvgl/src/widgets/checkbox/../../core/lv_obj_style_gen.h **** {
 327              		.loc 2 82 23 discriminator 4 view .LVU97
 328              	.LBB83:
  84:Lib/lvgl/src/widgets/checkbox/../../core/lv_obj_style_gen.h ****     return (int32_t)v.num;
 329              		.loc 2 84 5 discriminator 4 view .LVU98
  84:Lib/lvgl/src/widgets/checkbox/../../core/lv_obj_style_gen.h ****     return (int32_t)v.num;
 330              		.loc 2 84 26 is_stmt 0 discriminator 4 view .LVU99
 331 00cc 6922     		movs	r2, #105
 332 00ce 4FF40031 		mov	r1, #131072
 333 00d2 2046     		mov	r0, r4
 334              	.LVL41:
  84:Lib/lvgl/src/widgets/checkbox/../../core/lv_obj_style_gen.h ****     return (int32_t)v.num;
 335              		.loc 2 84 26 discriminator 4 view .LVU100
 336 00d4 FFF7FEFF 		bl	lv_obj_get_style_prop
 337              	.LVL42:
 338 00d8 8346     		mov	fp, r0
 339 00da 0A90     		str	r0, [sp, #40]
  85:Lib/lvgl/src/widgets/checkbox/../../core/lv_obj_style_gen.h **** }
 340              		.loc 2 85 5 is_stmt 1 discriminator 4 view .LVU101
 341              	.LVL43:
  85:Lib/lvgl/src/widgets/checkbox/../../core/lv_obj_style_gen.h **** }
 342              		.loc 2 85 5 is_stmt 0 discriminator 4 view .LVU102
ARM GAS  C:\Users\Alex\AppData\Local\Temp\ccFfvF9D.s 			page 26


 343              	.LBE83:
 344              	.LBE82:
 235:Lib/lvgl/src/widgets/checkbox/lv_checkbox.c **** 
 236:Lib/lvgl/src/widgets/checkbox/lv_checkbox.c ****     lv_draw_rect_dsc_t indic_dsc;
 345              		.loc 1 236 5 is_stmt 1 discriminator 4 view .LVU103
 237:Lib/lvgl/src/widgets/checkbox/lv_checkbox.c ****     lv_draw_rect_dsc_init(&indic_dsc);
 346              		.loc 1 237 5 discriminator 4 view .LVU104
 347 00dc 2EA8     		add	r0, sp, #184
 348              	.LVL44:
 349              		.loc 1 237 5 is_stmt 0 discriminator 4 view .LVU105
 350 00de FFF7FEFF 		bl	lv_draw_rect_dsc_init
 351              	.LVL45:
 238:Lib/lvgl/src/widgets/checkbox/lv_checkbox.c ****     lv_obj_init_draw_rect_dsc(obj, LV_PART_INDICATOR, &indic_dsc);
 352              		.loc 1 238 5 is_stmt 1 discriminator 4 view .LVU106
 353 00e2 2EAA     		add	r2, sp, #184
 354 00e4 4FF40031 		mov	r1, #131072
 355 00e8 2046     		mov	r0, r4
 356 00ea FFF7FEFF 		bl	lv_obj_init_draw_rect_dsc
 357              	.LVL46:
 239:Lib/lvgl/src/widgets/checkbox/lv_checkbox.c ****     lv_area_t marker_area;
 358              		.loc 1 239 5 discriminator 4 view .LVU107
 240:Lib/lvgl/src/widgets/checkbox/lv_checkbox.c ****     if(is_rtl) {
 359              		.loc 1 240 5 discriminator 4 view .LVU108
 360              		.loc 1 240 7 is_stmt 0 discriminator 4 view .LVU109
 361 00ee B9F1010F 		cmp	r9, #1
 362 00f2 74D0     		beq	.L10
 241:Lib/lvgl/src/widgets/checkbox/lv_checkbox.c ****         marker_area.x2 = obj->coords.x2 - bg_p;
 242:Lib/lvgl/src/widgets/checkbox/lv_checkbox.c ****         marker_area.x1 = marker_area.x2 - font_h - marker_leftp - marker_rightp + 1;
 243:Lib/lvgl/src/widgets/checkbox/lv_checkbox.c ****     }
 244:Lib/lvgl/src/widgets/checkbox/lv_checkbox.c ****     else {
 245:Lib/lvgl/src/widgets/checkbox/lv_checkbox.c ****         marker_area.x1 = obj->coords.x1 + bg_p;
 363              		.loc 1 245 9 is_stmt 1 view .LVU110
 364              		.loc 1 245 37 is_stmt 0 view .LVU111
 365 00f4 6369     		ldr	r3, [r4, #20]
 366              		.loc 1 245 41 view .LVU112
 367 00f6 079A     		ldr	r2, [sp, #28]
 368 00f8 1344     		add	r3, r3, r2
 369              		.loc 1 245 24 view .LVU113
 370 00fa 2A93     		str	r3, [sp, #168]
 246:Lib/lvgl/src/widgets/checkbox/lv_checkbox.c ****         marker_area.x2 = marker_area.x1 + font_h + marker_leftp + marker_rightp - 1;
 371              		.loc 1 246 9 is_stmt 1 view .LVU114
 372              		.loc 1 246 41 is_stmt 0 view .LVU115
 373 00fc 049A     		ldr	r2, [sp, #16]
 374 00fe 1344     		add	r3, r3, r2
 375              		.loc 1 246 50 view .LVU116
 376 0100 3344     		add	r3, r3, r6
 377              		.loc 1 246 65 view .LVU117
 378 0102 5344     		add	r3, r3, r10
 379              		.loc 1 246 81 view .LVU118
 380 0104 013B     		subs	r3, r3, #1
 381              		.loc 1 246 24 view .LVU119
 382 0106 2C93     		str	r3, [sp, #176]
 383              	.L5:
 247:Lib/lvgl/src/widgets/checkbox/lv_checkbox.c ****     }
 248:Lib/lvgl/src/widgets/checkbox/lv_checkbox.c ****     marker_area.y1 = obj->coords.y1 + bg_topp;
 384              		.loc 1 248 5 is_stmt 1 view .LVU120
 385              		.loc 1 248 33 is_stmt 0 view .LVU121
ARM GAS  C:\Users\Alex\AppData\Local\Temp\ccFfvF9D.s 			page 27


 386 0108 A669     		ldr	r6, [r4, #24]
 387              	.LVL47:
 388              		.loc 1 248 37 view .LVU122
 389 010a 069B     		ldr	r3, [sp, #24]
 390 010c 1E44     		add	r6, r6, r3
 391              		.loc 1 248 20 view .LVU123
 392 010e 2B96     		str	r6, [sp, #172]
 249:Lib/lvgl/src/widgets/checkbox/lv_checkbox.c ****     marker_area.y2 = marker_area.y1 + font_h + marker_topp + marker_bottomp - 1;
 393              		.loc 1 249 5 is_stmt 1 view .LVU124
 394              		.loc 1 249 37 is_stmt 0 view .LVU125
 395 0110 049B     		ldr	r3, [sp, #16]
 396 0112 F318     		adds	r3, r6, r3
 397              		.loc 1 249 46 view .LVU126
 398 0114 4344     		add	r3, r3, r8
 399              		.loc 1 249 60 view .LVU127
 400 0116 1D44     		add	r5, r5, r3
 401              	.LVL48:
 402              		.loc 1 249 77 view .LVU128
 403 0118 013D     		subs	r5, r5, #1
 404              		.loc 1 249 20 view .LVU129
 405 011a 2D95     		str	r5, [sp, #180]
 250:Lib/lvgl/src/widgets/checkbox/lv_checkbox.c **** 
 251:Lib/lvgl/src/widgets/checkbox/lv_checkbox.c ****     lv_area_t marker_area_transf;
 406              		.loc 1 251 5 is_stmt 1 view .LVU130
 252:Lib/lvgl/src/widgets/checkbox/lv_checkbox.c ****     lv_area_copy(&marker_area_transf, &marker_area);
 407              		.loc 1 252 5 view .LVU131
 408              	.LVL49:
 409              	.LBB84:
 410              	.LBI84:
 411              		.file 4 "c:\\users\\alex\\eclipse-workspace\\lvgs_test\\lib\\lvgl\\src\\misc\\lv_area.h"
   1:c:\users\alex\eclipse-workspace\lvgs_test\lib\lvgl\src\misc\lv_area.h **** /**
   2:c:\users\alex\eclipse-workspace\lvgs_test\lib\lvgl\src\misc\lv_area.h ****  * @file lv_area.h
   3:c:\users\alex\eclipse-workspace\lvgs_test\lib\lvgl\src\misc\lv_area.h ****  *
   4:c:\users\alex\eclipse-workspace\lvgs_test\lib\lvgl\src\misc\lv_area.h ****  */
   5:c:\users\alex\eclipse-workspace\lvgs_test\lib\lvgl\src\misc\lv_area.h **** 
   6:c:\users\alex\eclipse-workspace\lvgs_test\lib\lvgl\src\misc\lv_area.h **** #ifndef LV_AREA_H
   7:c:\users\alex\eclipse-workspace\lvgs_test\lib\lvgl\src\misc\lv_area.h **** #define LV_AREA_H
   8:c:\users\alex\eclipse-workspace\lvgs_test\lib\lvgl\src\misc\lv_area.h **** 
   9:c:\users\alex\eclipse-workspace\lvgs_test\lib\lvgl\src\misc\lv_area.h **** #ifdef __cplusplus
  10:c:\users\alex\eclipse-workspace\lvgs_test\lib\lvgl\src\misc\lv_area.h **** extern "C" {
  11:c:\users\alex\eclipse-workspace\lvgs_test\lib\lvgl\src\misc\lv_area.h **** #endif
  12:c:\users\alex\eclipse-workspace\lvgs_test\lib\lvgl\src\misc\lv_area.h **** 
  13:c:\users\alex\eclipse-workspace\lvgs_test\lib\lvgl\src\misc\lv_area.h **** /*********************
  14:c:\users\alex\eclipse-workspace\lvgs_test\lib\lvgl\src\misc\lv_area.h ****  *      INCLUDES
  15:c:\users\alex\eclipse-workspace\lvgs_test\lib\lvgl\src\misc\lv_area.h ****  *********************/
  16:c:\users\alex\eclipse-workspace\lvgs_test\lib\lvgl\src\misc\lv_area.h **** #include "../lv_conf_internal.h"
  17:c:\users\alex\eclipse-workspace\lvgs_test\lib\lvgl\src\misc\lv_area.h **** #include "lv_types.h"
  18:c:\users\alex\eclipse-workspace\lvgs_test\lib\lvgl\src\misc\lv_area.h **** #include <stdbool.h>
  19:c:\users\alex\eclipse-workspace\lvgs_test\lib\lvgl\src\misc\lv_area.h **** #include <stdint.h>
  20:c:\users\alex\eclipse-workspace\lvgs_test\lib\lvgl\src\misc\lv_area.h **** 
  21:c:\users\alex\eclipse-workspace\lvgs_test\lib\lvgl\src\misc\lv_area.h **** /*********************
  22:c:\users\alex\eclipse-workspace\lvgs_test\lib\lvgl\src\misc\lv_area.h ****  *      DEFINES
  23:c:\users\alex\eclipse-workspace\lvgs_test\lib\lvgl\src\misc\lv_area.h ****  *********************/
  24:c:\users\alex\eclipse-workspace\lvgs_test\lib\lvgl\src\misc\lv_area.h **** 
  25:c:\users\alex\eclipse-workspace\lvgs_test\lib\lvgl\src\misc\lv_area.h **** /**********************
  26:c:\users\alex\eclipse-workspace\lvgs_test\lib\lvgl\src\misc\lv_area.h ****  *      TYPEDEFS
  27:c:\users\alex\eclipse-workspace\lvgs_test\lib\lvgl\src\misc\lv_area.h ****  **********************/
ARM GAS  C:\Users\Alex\AppData\Local\Temp\ccFfvF9D.s 			page 28


  28:c:\users\alex\eclipse-workspace\lvgs_test\lib\lvgl\src\misc\lv_area.h **** 
  29:c:\users\alex\eclipse-workspace\lvgs_test\lib\lvgl\src\misc\lv_area.h **** /**
  30:c:\users\alex\eclipse-workspace\lvgs_test\lib\lvgl\src\misc\lv_area.h ****  * Represents a point on the screen.
  31:c:\users\alex\eclipse-workspace\lvgs_test\lib\lvgl\src\misc\lv_area.h ****  */
  32:c:\users\alex\eclipse-workspace\lvgs_test\lib\lvgl\src\misc\lv_area.h **** typedef struct {
  33:c:\users\alex\eclipse-workspace\lvgs_test\lib\lvgl\src\misc\lv_area.h ****     int32_t x;
  34:c:\users\alex\eclipse-workspace\lvgs_test\lib\lvgl\src\misc\lv_area.h ****     int32_t y;
  35:c:\users\alex\eclipse-workspace\lvgs_test\lib\lvgl\src\misc\lv_area.h **** } lv_point_t;
  36:c:\users\alex\eclipse-workspace\lvgs_test\lib\lvgl\src\misc\lv_area.h **** 
  37:c:\users\alex\eclipse-workspace\lvgs_test\lib\lvgl\src\misc\lv_area.h **** typedef struct {
  38:c:\users\alex\eclipse-workspace\lvgs_test\lib\lvgl\src\misc\lv_area.h ****     lv_value_precise_t x;
  39:c:\users\alex\eclipse-workspace\lvgs_test\lib\lvgl\src\misc\lv_area.h ****     lv_value_precise_t y;
  40:c:\users\alex\eclipse-workspace\lvgs_test\lib\lvgl\src\misc\lv_area.h **** } lv_point_precise_t;
  41:c:\users\alex\eclipse-workspace\lvgs_test\lib\lvgl\src\misc\lv_area.h **** 
  42:c:\users\alex\eclipse-workspace\lvgs_test\lib\lvgl\src\misc\lv_area.h **** /** Represents an area of the screen.*/
  43:c:\users\alex\eclipse-workspace\lvgs_test\lib\lvgl\src\misc\lv_area.h **** typedef struct {
  44:c:\users\alex\eclipse-workspace\lvgs_test\lib\lvgl\src\misc\lv_area.h ****     int32_t x1;
  45:c:\users\alex\eclipse-workspace\lvgs_test\lib\lvgl\src\misc\lv_area.h ****     int32_t y1;
  46:c:\users\alex\eclipse-workspace\lvgs_test\lib\lvgl\src\misc\lv_area.h ****     int32_t x2;
  47:c:\users\alex\eclipse-workspace\lvgs_test\lib\lvgl\src\misc\lv_area.h ****     int32_t y2;
  48:c:\users\alex\eclipse-workspace\lvgs_test\lib\lvgl\src\misc\lv_area.h **** } lv_area_t;
  49:c:\users\alex\eclipse-workspace\lvgs_test\lib\lvgl\src\misc\lv_area.h **** 
  50:c:\users\alex\eclipse-workspace\lvgs_test\lib\lvgl\src\misc\lv_area.h **** /** Alignments*/
  51:c:\users\alex\eclipse-workspace\lvgs_test\lib\lvgl\src\misc\lv_area.h **** 
  52:c:\users\alex\eclipse-workspace\lvgs_test\lib\lvgl\src\misc\lv_area.h **** enum _lv_align_t {
  53:c:\users\alex\eclipse-workspace\lvgs_test\lib\lvgl\src\misc\lv_area.h ****     LV_ALIGN_DEFAULT = 0,
  54:c:\users\alex\eclipse-workspace\lvgs_test\lib\lvgl\src\misc\lv_area.h ****     LV_ALIGN_TOP_LEFT,
  55:c:\users\alex\eclipse-workspace\lvgs_test\lib\lvgl\src\misc\lv_area.h ****     LV_ALIGN_TOP_MID,
  56:c:\users\alex\eclipse-workspace\lvgs_test\lib\lvgl\src\misc\lv_area.h ****     LV_ALIGN_TOP_RIGHT,
  57:c:\users\alex\eclipse-workspace\lvgs_test\lib\lvgl\src\misc\lv_area.h ****     LV_ALIGN_BOTTOM_LEFT,
  58:c:\users\alex\eclipse-workspace\lvgs_test\lib\lvgl\src\misc\lv_area.h ****     LV_ALIGN_BOTTOM_MID,
  59:c:\users\alex\eclipse-workspace\lvgs_test\lib\lvgl\src\misc\lv_area.h ****     LV_ALIGN_BOTTOM_RIGHT,
  60:c:\users\alex\eclipse-workspace\lvgs_test\lib\lvgl\src\misc\lv_area.h ****     LV_ALIGN_LEFT_MID,
  61:c:\users\alex\eclipse-workspace\lvgs_test\lib\lvgl\src\misc\lv_area.h ****     LV_ALIGN_RIGHT_MID,
  62:c:\users\alex\eclipse-workspace\lvgs_test\lib\lvgl\src\misc\lv_area.h ****     LV_ALIGN_CENTER,
  63:c:\users\alex\eclipse-workspace\lvgs_test\lib\lvgl\src\misc\lv_area.h **** 
  64:c:\users\alex\eclipse-workspace\lvgs_test\lib\lvgl\src\misc\lv_area.h ****     LV_ALIGN_OUT_TOP_LEFT,
  65:c:\users\alex\eclipse-workspace\lvgs_test\lib\lvgl\src\misc\lv_area.h ****     LV_ALIGN_OUT_TOP_MID,
  66:c:\users\alex\eclipse-workspace\lvgs_test\lib\lvgl\src\misc\lv_area.h ****     LV_ALIGN_OUT_TOP_RIGHT,
  67:c:\users\alex\eclipse-workspace\lvgs_test\lib\lvgl\src\misc\lv_area.h ****     LV_ALIGN_OUT_BOTTOM_LEFT,
  68:c:\users\alex\eclipse-workspace\lvgs_test\lib\lvgl\src\misc\lv_area.h ****     LV_ALIGN_OUT_BOTTOM_MID,
  69:c:\users\alex\eclipse-workspace\lvgs_test\lib\lvgl\src\misc\lv_area.h ****     LV_ALIGN_OUT_BOTTOM_RIGHT,
  70:c:\users\alex\eclipse-workspace\lvgs_test\lib\lvgl\src\misc\lv_area.h ****     LV_ALIGN_OUT_LEFT_TOP,
  71:c:\users\alex\eclipse-workspace\lvgs_test\lib\lvgl\src\misc\lv_area.h ****     LV_ALIGN_OUT_LEFT_MID,
  72:c:\users\alex\eclipse-workspace\lvgs_test\lib\lvgl\src\misc\lv_area.h ****     LV_ALIGN_OUT_LEFT_BOTTOM,
  73:c:\users\alex\eclipse-workspace\lvgs_test\lib\lvgl\src\misc\lv_area.h ****     LV_ALIGN_OUT_RIGHT_TOP,
  74:c:\users\alex\eclipse-workspace\lvgs_test\lib\lvgl\src\misc\lv_area.h ****     LV_ALIGN_OUT_RIGHT_MID,
  75:c:\users\alex\eclipse-workspace\lvgs_test\lib\lvgl\src\misc\lv_area.h ****     LV_ALIGN_OUT_RIGHT_BOTTOM,
  76:c:\users\alex\eclipse-workspace\lvgs_test\lib\lvgl\src\misc\lv_area.h **** };
  77:c:\users\alex\eclipse-workspace\lvgs_test\lib\lvgl\src\misc\lv_area.h **** 
  78:c:\users\alex\eclipse-workspace\lvgs_test\lib\lvgl\src\misc\lv_area.h **** #ifdef DOXYGEN
  79:c:\users\alex\eclipse-workspace\lvgs_test\lib\lvgl\src\misc\lv_area.h **** typedef _lv_align_t lv_align_t;
  80:c:\users\alex\eclipse-workspace\lvgs_test\lib\lvgl\src\misc\lv_area.h **** #else
  81:c:\users\alex\eclipse-workspace\lvgs_test\lib\lvgl\src\misc\lv_area.h **** typedef uint8_t lv_align_t;
  82:c:\users\alex\eclipse-workspace\lvgs_test\lib\lvgl\src\misc\lv_area.h **** #endif /*DOXYGEN*/
  83:c:\users\alex\eclipse-workspace\lvgs_test\lib\lvgl\src\misc\lv_area.h **** 
  84:c:\users\alex\eclipse-workspace\lvgs_test\lib\lvgl\src\misc\lv_area.h **** enum _lv_dir_t {
ARM GAS  C:\Users\Alex\AppData\Local\Temp\ccFfvF9D.s 			page 29


  85:c:\users\alex\eclipse-workspace\lvgs_test\lib\lvgl\src\misc\lv_area.h ****     LV_DIR_NONE     = 0x00,
  86:c:\users\alex\eclipse-workspace\lvgs_test\lib\lvgl\src\misc\lv_area.h ****     LV_DIR_LEFT     = (1 << 0),
  87:c:\users\alex\eclipse-workspace\lvgs_test\lib\lvgl\src\misc\lv_area.h ****     LV_DIR_RIGHT    = (1 << 1),
  88:c:\users\alex\eclipse-workspace\lvgs_test\lib\lvgl\src\misc\lv_area.h ****     LV_DIR_TOP      = (1 << 2),
  89:c:\users\alex\eclipse-workspace\lvgs_test\lib\lvgl\src\misc\lv_area.h ****     LV_DIR_BOTTOM   = (1 << 3),
  90:c:\users\alex\eclipse-workspace\lvgs_test\lib\lvgl\src\misc\lv_area.h ****     LV_DIR_HOR      = LV_DIR_LEFT | LV_DIR_RIGHT,
  91:c:\users\alex\eclipse-workspace\lvgs_test\lib\lvgl\src\misc\lv_area.h ****     LV_DIR_VER      = LV_DIR_TOP | LV_DIR_BOTTOM,
  92:c:\users\alex\eclipse-workspace\lvgs_test\lib\lvgl\src\misc\lv_area.h ****     LV_DIR_ALL      = LV_DIR_HOR | LV_DIR_VER,
  93:c:\users\alex\eclipse-workspace\lvgs_test\lib\lvgl\src\misc\lv_area.h **** };
  94:c:\users\alex\eclipse-workspace\lvgs_test\lib\lvgl\src\misc\lv_area.h **** 
  95:c:\users\alex\eclipse-workspace\lvgs_test\lib\lvgl\src\misc\lv_area.h **** #ifdef DOXYGEN
  96:c:\users\alex\eclipse-workspace\lvgs_test\lib\lvgl\src\misc\lv_area.h **** typedef _lv_dir_t lv_dir_t;
  97:c:\users\alex\eclipse-workspace\lvgs_test\lib\lvgl\src\misc\lv_area.h **** #else
  98:c:\users\alex\eclipse-workspace\lvgs_test\lib\lvgl\src\misc\lv_area.h **** typedef uint8_t lv_dir_t;
  99:c:\users\alex\eclipse-workspace\lvgs_test\lib\lvgl\src\misc\lv_area.h **** #endif /*DOXYGEN*/
 100:c:\users\alex\eclipse-workspace\lvgs_test\lib\lvgl\src\misc\lv_area.h **** 
 101:c:\users\alex\eclipse-workspace\lvgs_test\lib\lvgl\src\misc\lv_area.h **** typedef struct  {
 102:c:\users\alex\eclipse-workspace\lvgs_test\lib\lvgl\src\misc\lv_area.h ****     int32_t angle_prev;
 103:c:\users\alex\eclipse-workspace\lvgs_test\lib\lvgl\src\misc\lv_area.h ****     int32_t sinma;
 104:c:\users\alex\eclipse-workspace\lvgs_test\lib\lvgl\src\misc\lv_area.h ****     int32_t cosma;
 105:c:\users\alex\eclipse-workspace\lvgs_test\lib\lvgl\src\misc\lv_area.h **** } lv_area_transform_cache_t;
 106:c:\users\alex\eclipse-workspace\lvgs_test\lib\lvgl\src\misc\lv_area.h **** 
 107:c:\users\alex\eclipse-workspace\lvgs_test\lib\lvgl\src\misc\lv_area.h **** /**********************
 108:c:\users\alex\eclipse-workspace\lvgs_test\lib\lvgl\src\misc\lv_area.h ****  * GLOBAL PROTOTYPES
 109:c:\users\alex\eclipse-workspace\lvgs_test\lib\lvgl\src\misc\lv_area.h ****  **********************/
 110:c:\users\alex\eclipse-workspace\lvgs_test\lib\lvgl\src\misc\lv_area.h **** 
 111:c:\users\alex\eclipse-workspace\lvgs_test\lib\lvgl\src\misc\lv_area.h **** /**
 112:c:\users\alex\eclipse-workspace\lvgs_test\lib\lvgl\src\misc\lv_area.h ****  * Initialize an area
 113:c:\users\alex\eclipse-workspace\lvgs_test\lib\lvgl\src\misc\lv_area.h ****  * @param area_p pointer to an area
 114:c:\users\alex\eclipse-workspace\lvgs_test\lib\lvgl\src\misc\lv_area.h ****  * @param x1 left coordinate of the area
 115:c:\users\alex\eclipse-workspace\lvgs_test\lib\lvgl\src\misc\lv_area.h ****  * @param y1 top coordinate of the area
 116:c:\users\alex\eclipse-workspace\lvgs_test\lib\lvgl\src\misc\lv_area.h ****  * @param x2 right coordinate of the area
 117:c:\users\alex\eclipse-workspace\lvgs_test\lib\lvgl\src\misc\lv_area.h ****  * @param y2 bottom coordinate of the area
 118:c:\users\alex\eclipse-workspace\lvgs_test\lib\lvgl\src\misc\lv_area.h ****  */
 119:c:\users\alex\eclipse-workspace\lvgs_test\lib\lvgl\src\misc\lv_area.h **** void lv_area_set(lv_area_t * area_p, int32_t x1, int32_t y1, int32_t x2, int32_t y2);
 120:c:\users\alex\eclipse-workspace\lvgs_test\lib\lvgl\src\misc\lv_area.h **** 
 121:c:\users\alex\eclipse-workspace\lvgs_test\lib\lvgl\src\misc\lv_area.h **** /**
 122:c:\users\alex\eclipse-workspace\lvgs_test\lib\lvgl\src\misc\lv_area.h ****  * Copy an area
 123:c:\users\alex\eclipse-workspace\lvgs_test\lib\lvgl\src\misc\lv_area.h ****  * @param dest pointer to the destination area
 124:c:\users\alex\eclipse-workspace\lvgs_test\lib\lvgl\src\misc\lv_area.h ****  * @param src pointer to the source area
 125:c:\users\alex\eclipse-workspace\lvgs_test\lib\lvgl\src\misc\lv_area.h ****  */
 126:c:\users\alex\eclipse-workspace\lvgs_test\lib\lvgl\src\misc\lv_area.h **** inline static void lv_area_copy(lv_area_t * dest, const lv_area_t * src)
 412              		.loc 4 126 20 view .LVU132
 413              	.LBB85:
 127:c:\users\alex\eclipse-workspace\lvgs_test\lib\lvgl\src\misc\lv_area.h **** {
 128:c:\users\alex\eclipse-workspace\lvgs_test\lib\lvgl\src\misc\lv_area.h ****     dest->x1 = src->x1;
 414              		.loc 4 128 5 view .LVU133
 415              		.loc 4 128 19 is_stmt 0 view .LVU134
 416 011c DDF8A880 		ldr	r8, [sp, #168]
 417              	.LVL50:
 418              		.loc 4 128 14 view .LVU135
 419 0120 CDF89880 		str	r8, [sp, #152]
 129:c:\users\alex\eclipse-workspace\lvgs_test\lib\lvgl\src\misc\lv_area.h ****     dest->y1 = src->y1;
 420              		.loc 4 129 5 is_stmt 1 view .LVU136
 421              		.loc 4 129 14 is_stmt 0 view .LVU137
 422 0124 2796     		str	r6, [sp, #156]
 130:c:\users\alex\eclipse-workspace\lvgs_test\lib\lvgl\src\misc\lv_area.h ****     dest->x2 = src->x2;
ARM GAS  C:\Users\Alex\AppData\Local\Temp\ccFfvF9D.s 			page 30


 423              		.loc 4 130 5 is_stmt 1 view .LVU138
 424              		.loc 4 130 19 is_stmt 0 view .LVU139
 425 0126 DDF8B0A0 		ldr	r10, [sp, #176]
 426              	.LVL51:
 427              		.loc 4 130 14 view .LVU140
 428 012a CDF8A0A0 		str	r10, [sp, #160]
 131:c:\users\alex\eclipse-workspace\lvgs_test\lib\lvgl\src\misc\lv_area.h ****     dest->y2 = src->y2;
 429              		.loc 4 131 5 is_stmt 1 view .LVU141
 430              		.loc 4 131 14 is_stmt 0 view .LVU142
 431 012e 2995     		str	r5, [sp, #164]
 432              	.LVL52:
 433              		.loc 4 131 14 view .LVU143
 434              	.LBE85:
 435              	.LBE84:
 253:Lib/lvgl/src/widgets/checkbox/lv_checkbox.c ****     lv_area_increase(&marker_area_transf, transf_w, transf_h);
 436              		.loc 1 253 5 is_stmt 1 view .LVU144
 437 0130 5A46     		mov	r2, fp
 438 0132 3946     		mov	r1, r7
 439 0134 26A8     		add	r0, sp, #152
 440 0136 FFF7FEFF 		bl	lv_area_increase
 441              	.LVL53:
 254:Lib/lvgl/src/widgets/checkbox/lv_checkbox.c **** 
 255:Lib/lvgl/src/widgets/checkbox/lv_checkbox.c ****     lv_draw_rect(layer, &indic_dsc, &marker_area_transf);
 442              		.loc 1 255 5 view .LVU145
 443 013a 26AA     		add	r2, sp, #152
 444 013c 2EA9     		add	r1, sp, #184
 445 013e 0598     		ldr	r0, [sp, #20]
 446 0140 FFF7FEFF 		bl	lv_draw_rect
 447              	.LVL54:
 256:Lib/lvgl/src/widgets/checkbox/lv_checkbox.c **** 
 257:Lib/lvgl/src/widgets/checkbox/lv_checkbox.c ****     int32_t line_space = lv_obj_get_style_text_line_space(obj, LV_PART_MAIN);
 448              		.loc 1 257 5 view .LVU146
 449              	.LBB86:
 450              	.LBI86:
 550:Lib/lvgl/src/widgets/checkbox/../../core/lv_obj_style_gen.h **** {
 451              		.loc 2 550 23 view .LVU147
 452              	.LBB87:
 552:Lib/lvgl/src/widgets/checkbox/../../core/lv_obj_style_gen.h ****     return (int32_t)v.num;
 453              		.loc 2 552 5 view .LVU148
 552:Lib/lvgl/src/widgets/checkbox/../../core/lv_obj_style_gen.h ****     return (int32_t)v.num;
 454              		.loc 2 552 26 is_stmt 0 view .LVU149
 455 0144 5C22     		movs	r2, #92
 456 0146 0021     		movs	r1, #0
 457 0148 2046     		mov	r0, r4
 458 014a FFF7FEFF 		bl	lv_obj_get_style_prop
 459              	.LVL55:
 460 014e 0746     		mov	r7, r0
 461              	.LVL56:
 552:Lib/lvgl/src/widgets/checkbox/../../core/lv_obj_style_gen.h ****     return (int32_t)v.num;
 462              		.loc 2 552 26 view .LVU150
 463 0150 0A90     		str	r0, [sp, #40]
 553:Lib/lvgl/src/widgets/checkbox/../../core/lv_obj_style_gen.h **** }
 464              		.loc 2 553 5 is_stmt 1 view .LVU151
 465              	.LVL57:
 553:Lib/lvgl/src/widgets/checkbox/../../core/lv_obj_style_gen.h **** }
 466              		.loc 2 553 5 is_stmt 0 view .LVU152
 467              	.LBE87:
ARM GAS  C:\Users\Alex\AppData\Local\Temp\ccFfvF9D.s 			page 31


 468              	.LBE86:
 258:Lib/lvgl/src/widgets/checkbox/lv_checkbox.c ****     int32_t letter_space = lv_obj_get_style_text_letter_space(obj, LV_PART_MAIN);
 469              		.loc 1 258 5 is_stmt 1 view .LVU153
 470              	.LBB88:
 471              	.LBI88:
 544:Lib/lvgl/src/widgets/checkbox/../../core/lv_obj_style_gen.h **** {
 472              		.loc 2 544 23 view .LVU154
 473              	.LBB89:
 546:Lib/lvgl/src/widgets/checkbox/../../core/lv_obj_style_gen.h ****     return (int32_t)v.num;
 474              		.loc 2 546 5 view .LVU155
 546:Lib/lvgl/src/widgets/checkbox/../../core/lv_obj_style_gen.h ****     return (int32_t)v.num;
 475              		.loc 2 546 26 is_stmt 0 view .LVU156
 476 0152 5B22     		movs	r2, #91
 477 0154 0021     		movs	r1, #0
 478 0156 2046     		mov	r0, r4
 479              	.LVL58:
 546:Lib/lvgl/src/widgets/checkbox/../../core/lv_obj_style_gen.h ****     return (int32_t)v.num;
 480              		.loc 2 546 26 view .LVU157
 481 0158 FFF7FEFF 		bl	lv_obj_get_style_prop
 482              	.LVL59:
 483 015c 0346     		mov	r3, r0
 484 015e 0A90     		str	r0, [sp, #40]
 547:Lib/lvgl/src/widgets/checkbox/../../core/lv_obj_style_gen.h **** }
 485              		.loc 2 547 5 is_stmt 1 view .LVU158
 486              	.LVL60:
 547:Lib/lvgl/src/widgets/checkbox/../../core/lv_obj_style_gen.h **** }
 487              		.loc 2 547 5 is_stmt 0 view .LVU159
 488              	.LBE89:
 489              	.LBE88:
 259:Lib/lvgl/src/widgets/checkbox/lv_checkbox.c **** 
 260:Lib/lvgl/src/widgets/checkbox/lv_checkbox.c ****     lv_point_t txt_size;
 490              		.loc 1 260 5 is_stmt 1 view .LVU160
 261:Lib/lvgl/src/widgets/checkbox/lv_checkbox.c ****     lv_text_get_size(&txt_size, cb->txt, font, letter_space, line_space, LV_COORD_MAX, LV_TEXT_FLAG
 491              		.loc 1 261 5 view .LVU161
 492              		.loc 1 261 35 is_stmt 0 view .LVU162
 493 0160 E16A     		ldr	r1, [r4, #44]
 494              		.loc 1 261 5 view .LVU163
 495 0162 4FF0000B 		mov	fp, #0
 496              	.LVL61:
 497              		.loc 1 261 5 view .LVU164
 498 0166 CDF808B0 		str	fp, [sp, #8]
 499 016a 6FF06042 		mvn	r2, #-536870912
 500 016e 0192     		str	r2, [sp, #4]
 501 0170 0097     		str	r7, [sp]
 502 0172 089A     		ldr	r2, [sp, #32]
 503 0174 24A8     		add	r0, sp, #144
 504              	.LVL62:
 505              		.loc 1 261 5 view .LVU165
 506 0176 FFF7FEFF 		bl	lv_text_get_size
 507              	.LVL63:
 262:Lib/lvgl/src/widgets/checkbox/lv_checkbox.c **** 
 263:Lib/lvgl/src/widgets/checkbox/lv_checkbox.c ****     lv_draw_label_dsc_t txt_dsc;
 508              		.loc 1 263 5 is_stmt 1 view .LVU166
 264:Lib/lvgl/src/widgets/checkbox/lv_checkbox.c ****     lv_draw_label_dsc_init(&txt_dsc);
 509              		.loc 1 264 5 view .LVU167
 510 017a 0FA8     		add	r0, sp, #60
 511 017c FFF7FEFF 		bl	lv_draw_label_dsc_init
ARM GAS  C:\Users\Alex\AppData\Local\Temp\ccFfvF9D.s 			page 32


 512              	.LVL64:
 265:Lib/lvgl/src/widgets/checkbox/lv_checkbox.c ****     lv_obj_init_draw_label_dsc(obj, LV_PART_MAIN, &txt_dsc);
 513              		.loc 1 265 5 view .LVU168
 514 0180 0FAA     		add	r2, sp, #60
 515 0182 5946     		mov	r1, fp
 516 0184 2046     		mov	r0, r4
 517 0186 FFF7FEFF 		bl	lv_obj_init_draw_label_dsc
 518              	.LVL65:
 266:Lib/lvgl/src/widgets/checkbox/lv_checkbox.c ****     txt_dsc.text = cb->txt;
 519              		.loc 1 266 5 view .LVU169
 520              		.loc 1 266 22 is_stmt 0 view .LVU170
 521 018a E36A     		ldr	r3, [r4, #44]
 522              		.loc 1 266 18 view .LVU171
 523 018c 1693     		str	r3, [sp, #88]
 267:Lib/lvgl/src/widgets/checkbox/lv_checkbox.c **** 
 268:Lib/lvgl/src/widgets/checkbox/lv_checkbox.c ****     int32_t y_ofs = (lv_area_get_height(&marker_area) - font_h) / 2;
 524              		.loc 1 268 5 is_stmt 1 view .LVU172
 525              	.LVL66:
 526              	.LBB90:
 527              	.LBI90:
 132:c:\users\alex\eclipse-workspace\lvgs_test\lib\lvgl\src\misc\lv_area.h **** }
 133:c:\users\alex\eclipse-workspace\lvgs_test\lib\lvgl\src\misc\lv_area.h **** 
 134:c:\users\alex\eclipse-workspace\lvgs_test\lib\lvgl\src\misc\lv_area.h **** /**
 135:c:\users\alex\eclipse-workspace\lvgs_test\lib\lvgl\src\misc\lv_area.h ****  * Get the width of an area
 136:c:\users\alex\eclipse-workspace\lvgs_test\lib\lvgl\src\misc\lv_area.h ****  * @param area_p pointer to an area
 137:c:\users\alex\eclipse-workspace\lvgs_test\lib\lvgl\src\misc\lv_area.h ****  * @return the width of the area (if x1 == x2 -> width = 1)
 138:c:\users\alex\eclipse-workspace\lvgs_test\lib\lvgl\src\misc\lv_area.h ****  */
 139:c:\users\alex\eclipse-workspace\lvgs_test\lib\lvgl\src\misc\lv_area.h **** static inline int32_t lv_area_get_width(const lv_area_t * area_p)
 140:c:\users\alex\eclipse-workspace\lvgs_test\lib\lvgl\src\misc\lv_area.h **** {
 141:c:\users\alex\eclipse-workspace\lvgs_test\lib\lvgl\src\misc\lv_area.h ****     return (int32_t)(area_p->x2 - area_p->x1 + 1);
 142:c:\users\alex\eclipse-workspace\lvgs_test\lib\lvgl\src\misc\lv_area.h **** }
 143:c:\users\alex\eclipse-workspace\lvgs_test\lib\lvgl\src\misc\lv_area.h **** 
 144:c:\users\alex\eclipse-workspace\lvgs_test\lib\lvgl\src\misc\lv_area.h **** /**
 145:c:\users\alex\eclipse-workspace\lvgs_test\lib\lvgl\src\misc\lv_area.h ****  * Get the height of an area
 146:c:\users\alex\eclipse-workspace\lvgs_test\lib\lvgl\src\misc\lv_area.h ****  * @param area_p pointer to an area
 147:c:\users\alex\eclipse-workspace\lvgs_test\lib\lvgl\src\misc\lv_area.h ****  * @return the height of the area (if y1 == y2 -> height = 1)
 148:c:\users\alex\eclipse-workspace\lvgs_test\lib\lvgl\src\misc\lv_area.h ****  */
 149:c:\users\alex\eclipse-workspace\lvgs_test\lib\lvgl\src\misc\lv_area.h **** static inline int32_t lv_area_get_height(const lv_area_t * area_p)
 528              		.loc 4 149 23 view .LVU173
 529              	.LBB91:
 150:c:\users\alex\eclipse-workspace\lvgs_test\lib\lvgl\src\misc\lv_area.h **** {
 151:c:\users\alex\eclipse-workspace\lvgs_test\lib\lvgl\src\misc\lv_area.h ****     return (int32_t)(area_p->y2 - area_p->y1 + 1);
 530              		.loc 4 151 5 view .LVU174
 531              		.loc 4 151 33 is_stmt 0 view .LVU175
 532 018e AD1B     		subs	r5, r5, r6
 533              		.loc 4 151 12 view .LVU176
 534 0190 0135     		adds	r5, r5, #1
 535              	.LVL67:
 536              		.loc 4 151 12 view .LVU177
 537              	.LBE91:
 538              	.LBE90:
 539              		.loc 1 268 55 view .LVU178
 540 0192 049B     		ldr	r3, [sp, #16]
 541 0194 ED1A     		subs	r5, r5, r3
 542              		.loc 1 268 13 view .LVU179
 543 0196 05EBD575 		add	r5, r5, r5, lsr #31
 544 019a 6D10     		asrs	r5, r5, #1
ARM GAS  C:\Users\Alex\AppData\Local\Temp\ccFfvF9D.s 			page 33


 545              	.LVL68:
 269:Lib/lvgl/src/widgets/checkbox/lv_checkbox.c ****     lv_area_t txt_area;
 546              		.loc 1 269 5 is_stmt 1 view .LVU180
 270:Lib/lvgl/src/widgets/checkbox/lv_checkbox.c ****     if(is_rtl) {
 547              		.loc 1 270 5 view .LVU181
 548              		.loc 1 270 7 is_stmt 0 view .LVU182
 549 019c B9F1010F 		cmp	r9, #1
 550 01a0 29D0     		beq	.L11
 271:Lib/lvgl/src/widgets/checkbox/lv_checkbox.c ****         txt_area.x2 = marker_area.x1 - bg_colp;
 272:Lib/lvgl/src/widgets/checkbox/lv_checkbox.c ****         txt_area.x1 = txt_area.x2 - txt_size.x;
 273:Lib/lvgl/src/widgets/checkbox/lv_checkbox.c ****     }
 274:Lib/lvgl/src/widgets/checkbox/lv_checkbox.c ****     else {
 275:Lib/lvgl/src/widgets/checkbox/lv_checkbox.c ****         txt_area.x1 = marker_area.x2 + bg_colp;
 551              		.loc 1 275 9 is_stmt 1 view .LVU183
 552              		.loc 1 275 38 is_stmt 0 view .LVU184
 553 01a2 099B     		ldr	r3, [sp, #36]
 554 01a4 5344     		add	r3, r3, r10
 555              		.loc 1 275 21 view .LVU185
 556 01a6 0B93     		str	r3, [sp, #44]
 276:Lib/lvgl/src/widgets/checkbox/lv_checkbox.c ****         txt_area.x2 = txt_area.x1 + txt_size.x;
 557              		.loc 1 276 9 is_stmt 1 view .LVU186
 558              		.loc 1 276 45 is_stmt 0 view .LVU187
 559 01a8 249A     		ldr	r2, [sp, #144]
 560              		.loc 1 276 35 view .LVU188
 561 01aa 1344     		add	r3, r3, r2
 562              		.loc 1 276 21 view .LVU189
 563 01ac 0D93     		str	r3, [sp, #52]
 564              	.L7:
 277:Lib/lvgl/src/widgets/checkbox/lv_checkbox.c ****     }
 278:Lib/lvgl/src/widgets/checkbox/lv_checkbox.c ****     txt_area.y1 = obj->coords.y1 + bg_topp + y_ofs;
 565              		.loc 1 278 5 is_stmt 1 view .LVU190
 566              		.loc 1 278 30 is_stmt 0 view .LVU191
 567 01ae A369     		ldr	r3, [r4, #24]
 568              		.loc 1 278 34 view .LVU192
 569 01b0 069A     		ldr	r2, [sp, #24]
 570 01b2 1344     		add	r3, r3, r2
 571              		.loc 1 278 44 view .LVU193
 572 01b4 2B44     		add	r3, r3, r5
 573              		.loc 1 278 17 view .LVU194
 574 01b6 0C93     		str	r3, [sp, #48]
 279:Lib/lvgl/src/widgets/checkbox/lv_checkbox.c ****     txt_area.y2 = txt_area.y1 + txt_size.y;
 575              		.loc 1 279 5 is_stmt 1 view .LVU195
 576              		.loc 1 279 41 is_stmt 0 view .LVU196
 577 01b8 259A     		ldr	r2, [sp, #148]
 578              		.loc 1 279 31 view .LVU197
 579 01ba 1344     		add	r3, r3, r2
 580              		.loc 1 279 17 view .LVU198
 581 01bc 0E93     		str	r3, [sp, #56]
 280:Lib/lvgl/src/widgets/checkbox/lv_checkbox.c **** 
 281:Lib/lvgl/src/widgets/checkbox/lv_checkbox.c ****     lv_draw_label(layer, &txt_dsc, &txt_area);
 582              		.loc 1 281 5 is_stmt 1 view .LVU199
 583 01be 0BAA     		add	r2, sp, #44
 584 01c0 0FA9     		add	r1, sp, #60
 585 01c2 0598     		ldr	r0, [sp, #20]
 586 01c4 FFF7FEFF 		bl	lv_draw_label
 587              	.LVL69:
 282:Lib/lvgl/src/widgets/checkbox/lv_checkbox.c **** }
ARM GAS  C:\Users\Alex\AppData\Local\Temp\ccFfvF9D.s 			page 34


 588              		.loc 1 282 1 is_stmt 0 view .LVU200
 589 01c8 4BB0     		add	sp, sp, #300
 590              	.LCFI2:
 591              		.cfi_remember_state
 592              		.cfi_def_cfa_offset 36
 593              		@ sp needed
 594 01ca BDE8F08F 		pop	{r4, r5, r6, r7, r8, r9, r10, fp, pc}
 595              	.LVL70:
 596              	.L9:
 597              	.LCFI3:
 598              		.cfi_restore_state
 599              	.LBB92:
 600              	.LBI92:
 160:Lib/lvgl/src/widgets/checkbox/../../core/lv_obj_style_gen.h **** {
 601              		.loc 2 160 23 is_stmt 1 view .LVU201
 602              	.LBB93:
 162:Lib/lvgl/src/widgets/checkbox/../../core/lv_obj_style_gen.h ****     return (int32_t)v.num;
 603              		.loc 2 162 5 view .LVU202
 162:Lib/lvgl/src/widgets/checkbox/../../core/lv_obj_style_gen.h ****     return (int32_t)v.num;
 604              		.loc 2 162 26 is_stmt 0 view .LVU203
 605 01ce 1322     		movs	r2, #19
 606 01d0 0021     		movs	r1, #0
 607 01d2 2046     		mov	r0, r4
 608 01d4 FFF7FEFF 		bl	lv_obj_get_style_prop
 609              	.LVL71:
 162:Lib/lvgl/src/widgets/checkbox/../../core/lv_obj_style_gen.h ****     return (int32_t)v.num;
 610              		.loc 2 162 26 view .LVU204
 611 01d8 0A90     		str	r0, [sp, #40]
 163:Lib/lvgl/src/widgets/checkbox/../../core/lv_obj_style_gen.h **** }
 612              		.loc 2 163 5 is_stmt 1 view .LVU205
 163:Lib/lvgl/src/widgets/checkbox/../../core/lv_obj_style_gen.h **** }
 613              		.loc 2 163 12 is_stmt 0 view .LVU206
 614 01da 0790     		str	r0, [sp, #28]
 615              	.LVL72:
 163:Lib/lvgl/src/widgets/checkbox/../../core/lv_obj_style_gen.h **** }
 616              		.loc 2 163 12 view .LVU207
 617              	.LBE93:
 618              	.LBE92:
 619 01dc 47E7     		b	.L3
 620              	.LVL73:
 621              	.L10:
 241:Lib/lvgl/src/widgets/checkbox/lv_checkbox.c ****         marker_area.x1 = marker_area.x2 - font_h - marker_leftp - marker_rightp + 1;
 622              		.loc 1 241 9 is_stmt 1 view .LVU208
 241:Lib/lvgl/src/widgets/checkbox/lv_checkbox.c ****         marker_area.x1 = marker_area.x2 - font_h - marker_leftp - marker_rightp + 1;
 623              		.loc 1 241 37 is_stmt 0 view .LVU209
 624 01de E369     		ldr	r3, [r4, #28]
 241:Lib/lvgl/src/widgets/checkbox/lv_checkbox.c ****         marker_area.x1 = marker_area.x2 - font_h - marker_leftp - marker_rightp + 1;
 625              		.loc 1 241 41 view .LVU210
 626 01e0 079A     		ldr	r2, [sp, #28]
 627 01e2 9B1A     		subs	r3, r3, r2
 241:Lib/lvgl/src/widgets/checkbox/lv_checkbox.c ****         marker_area.x1 = marker_area.x2 - font_h - marker_leftp - marker_rightp + 1;
 628              		.loc 1 241 24 view .LVU211
 629 01e4 2C93     		str	r3, [sp, #176]
 242:Lib/lvgl/src/widgets/checkbox/lv_checkbox.c ****     }
 630              		.loc 1 242 9 is_stmt 1 view .LVU212
 242:Lib/lvgl/src/widgets/checkbox/lv_checkbox.c ****     }
 631              		.loc 1 242 41 is_stmt 0 view .LVU213
ARM GAS  C:\Users\Alex\AppData\Local\Temp\ccFfvF9D.s 			page 35


 632 01e6 049A     		ldr	r2, [sp, #16]
 633 01e8 9B1A     		subs	r3, r3, r2
 242:Lib/lvgl/src/widgets/checkbox/lv_checkbox.c ****     }
 634              		.loc 1 242 50 view .LVU214
 635 01ea 9B1B     		subs	r3, r3, r6
 242:Lib/lvgl/src/widgets/checkbox/lv_checkbox.c ****     }
 636              		.loc 1 242 65 view .LVU215
 637 01ec A3EB0A03 		sub	r3, r3, r10
 242:Lib/lvgl/src/widgets/checkbox/lv_checkbox.c ****     }
 638              		.loc 1 242 81 view .LVU216
 639 01f0 0133     		adds	r3, r3, #1
 242:Lib/lvgl/src/widgets/checkbox/lv_checkbox.c ****     }
 640              		.loc 1 242 24 view .LVU217
 641 01f2 2A93     		str	r3, [sp, #168]
 642 01f4 88E7     		b	.L5
 643              	.LVL74:
 644              	.L11:
 271:Lib/lvgl/src/widgets/checkbox/lv_checkbox.c ****         txt_area.x1 = txt_area.x2 - txt_size.x;
 645              		.loc 1 271 9 is_stmt 1 view .LVU218
 271:Lib/lvgl/src/widgets/checkbox/lv_checkbox.c ****         txt_area.x1 = txt_area.x2 - txt_size.x;
 646              		.loc 1 271 38 is_stmt 0 view .LVU219
 647 01f6 099B     		ldr	r3, [sp, #36]
 648 01f8 A8EB0303 		sub	r3, r8, r3
 271:Lib/lvgl/src/widgets/checkbox/lv_checkbox.c ****         txt_area.x1 = txt_area.x2 - txt_size.x;
 649              		.loc 1 271 21 view .LVU220
 650 01fc 0D93     		str	r3, [sp, #52]
 272:Lib/lvgl/src/widgets/checkbox/lv_checkbox.c ****     }
 651              		.loc 1 272 9 is_stmt 1 view .LVU221
 272:Lib/lvgl/src/widgets/checkbox/lv_checkbox.c ****     }
 652              		.loc 1 272 45 is_stmt 0 view .LVU222
 653 01fe 249A     		ldr	r2, [sp, #144]
 272:Lib/lvgl/src/widgets/checkbox/lv_checkbox.c ****     }
 654              		.loc 1 272 35 view .LVU223
 655 0200 9B1A     		subs	r3, r3, r2
 272:Lib/lvgl/src/widgets/checkbox/lv_checkbox.c ****     }
 656              		.loc 1 272 21 view .LVU224
 657 0202 0B93     		str	r3, [sp, #44]
 658 0204 D3E7     		b	.L7
 659              		.cfi_endproc
 660              	.LFE240:
 662              		.section	.text.lv_checkbox_event,"ax",%progbits
 663              		.align	1
 664              		.syntax unified
 665              		.thumb
 666              		.thumb_func
 668              	lv_checkbox_event:
 669              	.LVL75:
 670              	.LFB239:
 166:Lib/lvgl/src/widgets/checkbox/lv_checkbox.c ****     LV_UNUSED(class_p);
 671              		.loc 1 166 1 is_stmt 1 view -0
 672              		.cfi_startproc
 673              		@ args = 0, pretend = 0, frame = 16
 674              		@ frame_needed = 0, uses_anonymous_args = 0
 166:Lib/lvgl/src/widgets/checkbox/lv_checkbox.c ****     LV_UNUSED(class_p);
 675              		.loc 1 166 1 is_stmt 0 view .LVU226
 676 0000 2DE9F047 		push	{r4, r5, r6, r7, r8, r9, r10, lr}
 677              	.LCFI4:
ARM GAS  C:\Users\Alex\AppData\Local\Temp\ccFfvF9D.s 			page 36


 678              		.cfi_def_cfa_offset 32
 679              		.cfi_offset 4, -32
 680              		.cfi_offset 5, -28
 681              		.cfi_offset 6, -24
 682              		.cfi_offset 7, -20
 683              		.cfi_offset 8, -16
 684              		.cfi_offset 9, -12
 685              		.cfi_offset 10, -8
 686              		.cfi_offset 14, -4
 687 0004 88B0     		sub	sp, sp, #32
 688              	.LCFI5:
 689              		.cfi_def_cfa_offset 64
 690 0006 0C46     		mov	r4, r1
 167:Lib/lvgl/src/widgets/checkbox/lv_checkbox.c **** 
 691              		.loc 1 167 5 is_stmt 1 view .LVU227
 169:Lib/lvgl/src/widgets/checkbox/lv_checkbox.c ****     /*Call the ancestor's event handler*/
 692              		.loc 1 169 5 view .LVU228
 171:Lib/lvgl/src/widgets/checkbox/lv_checkbox.c ****     if(res != LV_RESULT_OK) return;
 693              		.loc 1 171 5 view .LVU229
 171:Lib/lvgl/src/widgets/checkbox/lv_checkbox.c ****     if(res != LV_RESULT_OK) return;
 694              		.loc 1 171 11 is_stmt 0 view .LVU230
 695 0008 4348     		ldr	r0, .L20
 696              	.LVL76:
 171:Lib/lvgl/src/widgets/checkbox/lv_checkbox.c ****     if(res != LV_RESULT_OK) return;
 697              		.loc 1 171 11 view .LVU231
 698 000a FFF7FEFF 		bl	lv_obj_event_base
 699              	.LVL77:
 172:Lib/lvgl/src/widgets/checkbox/lv_checkbox.c **** 
 700              		.loc 1 172 5 is_stmt 1 view .LVU232
 172:Lib/lvgl/src/widgets/checkbox/lv_checkbox.c **** 
 701              		.loc 1 172 7 is_stmt 0 view .LVU233
 702 000e 0128     		cmp	r0, #1
 703 0010 02D0     		beq	.L17
 704              	.LVL78:
 705              	.L12:
 209:Lib/lvgl/src/widgets/checkbox/lv_checkbox.c **** 
 706              		.loc 1 209 1 view .LVU234
 707 0012 08B0     		add	sp, sp, #32
 708              	.LCFI6:
 709              		.cfi_remember_state
 710              		.cfi_def_cfa_offset 32
 711              		@ sp needed
 712 0014 BDE8F087 		pop	{r4, r5, r6, r7, r8, r9, r10, pc}
 713              	.LVL79:
 714              	.L17:
 715              	.LCFI7:
 716              		.cfi_restore_state
 174:Lib/lvgl/src/widgets/checkbox/lv_checkbox.c ****     lv_obj_t * obj = lv_event_get_current_target(e);
 717              		.loc 1 174 5 is_stmt 1 view .LVU235
 174:Lib/lvgl/src/widgets/checkbox/lv_checkbox.c ****     lv_obj_t * obj = lv_event_get_current_target(e);
 718              		.loc 1 174 28 is_stmt 0 view .LVU236
 719 0018 2046     		mov	r0, r4
 720              	.LVL80:
 174:Lib/lvgl/src/widgets/checkbox/lv_checkbox.c ****     lv_obj_t * obj = lv_event_get_current_target(e);
 721              		.loc 1 174 28 view .LVU237
 722 001a FFF7FEFF 		bl	lv_event_get_code
 723              	.LVL81:
ARM GAS  C:\Users\Alex\AppData\Local\Temp\ccFfvF9D.s 			page 37


 724 001e 0546     		mov	r5, r0
 725              	.LVL82:
 175:Lib/lvgl/src/widgets/checkbox/lv_checkbox.c **** 
 726              		.loc 1 175 5 is_stmt 1 view .LVU238
 175:Lib/lvgl/src/widgets/checkbox/lv_checkbox.c **** 
 727              		.loc 1 175 22 is_stmt 0 view .LVU239
 728 0020 2046     		mov	r0, r4
 729 0022 FFF7FEFF 		bl	lv_event_get_current_target
 730              	.LVL83:
 731 0026 0646     		mov	r6, r0
 732              	.LVL84:
 177:Lib/lvgl/src/widgets/checkbox/lv_checkbox.c ****         lv_point_t * p = lv_event_get_param(e);
 733              		.loc 1 177 5 is_stmt 1 view .LVU240
 177:Lib/lvgl/src/widgets/checkbox/lv_checkbox.c ****         lv_point_t * p = lv_event_get_param(e);
 734              		.loc 1 177 7 is_stmt 0 view .LVU241
 735 0028 2E2D     		cmp	r5, #46
 736 002a 07D0     		beq	.L18
 201:Lib/lvgl/src/widgets/checkbox/lv_checkbox.c ****         int32_t * s = lv_event_get_param(e);
 737              		.loc 1 201 10 is_stmt 1 view .LVU242
 201:Lib/lvgl/src/widgets/checkbox/lv_checkbox.c ****         int32_t * s = lv_event_get_param(e);
 738              		.loc 1 201 12 is_stmt 0 view .LVU243
 739 002c 152D     		cmp	r5, #21
 740 002e 63D0     		beq	.L19
 206:Lib/lvgl/src/widgets/checkbox/lv_checkbox.c ****         lv_checkbox_draw(e);
 741              		.loc 1 206 10 is_stmt 1 view .LVU244
 206:Lib/lvgl/src/widgets/checkbox/lv_checkbox.c ****         lv_checkbox_draw(e);
 742              		.loc 1 206 12 is_stmt 0 view .LVU245
 743 0030 172D     		cmp	r5, #23
 744 0032 EED1     		bne	.L12
 207:Lib/lvgl/src/widgets/checkbox/lv_checkbox.c ****     }
 745              		.loc 1 207 9 is_stmt 1 view .LVU246
 746 0034 2046     		mov	r0, r4
 747              	.LVL85:
 207:Lib/lvgl/src/widgets/checkbox/lv_checkbox.c ****     }
 748              		.loc 1 207 9 is_stmt 0 view .LVU247
 749 0036 FFF7FEFF 		bl	lv_checkbox_draw
 750              	.LVL86:
 751 003a EAE7     		b	.L12
 752              	.LVL87:
 753              	.L18:
 754              	.LBB94:
 178:Lib/lvgl/src/widgets/checkbox/lv_checkbox.c ****         lv_checkbox_t * cb = (lv_checkbox_t *)obj;
 755              		.loc 1 178 9 is_stmt 1 view .LVU248
 178:Lib/lvgl/src/widgets/checkbox/lv_checkbox.c ****         lv_checkbox_t * cb = (lv_checkbox_t *)obj;
 756              		.loc 1 178 26 is_stmt 0 view .LVU249
 757 003c 2046     		mov	r0, r4
 758              	.LVL88:
 178:Lib/lvgl/src/widgets/checkbox/lv_checkbox.c ****         lv_checkbox_t * cb = (lv_checkbox_t *)obj;
 759              		.loc 1 178 26 view .LVU250
 760 003e FFF7FEFF 		bl	lv_event_get_param
 761              	.LVL89:
 762 0042 0746     		mov	r7, r0
 763              	.LVL90:
 179:Lib/lvgl/src/widgets/checkbox/lv_checkbox.c **** 
 764              		.loc 1 179 9 is_stmt 1 view .LVU251
 181:Lib/lvgl/src/widgets/checkbox/lv_checkbox.c ****         int32_t font_h = lv_font_get_line_height(font);
 765              		.loc 1 181 9 view .LVU252
ARM GAS  C:\Users\Alex\AppData\Local\Temp\ccFfvF9D.s 			page 38


 766              	.LBB95:
 767              	.LBI95:
 538:Lib/lvgl/src/widgets/checkbox/../../core/lv_obj_style_gen.h **** {
 768              		.loc 2 538 33 view .LVU253
 769              	.LBB96:
 540:Lib/lvgl/src/widgets/checkbox/../../core/lv_obj_style_gen.h ****     return (const lv_font_t *)v.ptr;
 770              		.loc 2 540 5 view .LVU254
 540:Lib/lvgl/src/widgets/checkbox/../../core/lv_obj_style_gen.h ****     return (const lv_font_t *)v.ptr;
 771              		.loc 2 540 26 is_stmt 0 view .LVU255
 772 0044 5A22     		movs	r2, #90
 773 0046 0021     		movs	r1, #0
 774 0048 3046     		mov	r0, r6
 775              	.LVL91:
 540:Lib/lvgl/src/widgets/checkbox/../../core/lv_obj_style_gen.h ****     return (const lv_font_t *)v.ptr;
 776              		.loc 2 540 26 view .LVU256
 777 004a FFF7FEFF 		bl	lv_obj_get_style_prop
 778              	.LVL92:
 779 004e 0446     		mov	r4, r0
 780              	.LVL93:
 540:Lib/lvgl/src/widgets/checkbox/../../core/lv_obj_style_gen.h ****     return (const lv_font_t *)v.ptr;
 781              		.loc 2 540 26 view .LVU257
 782 0050 0690     		str	r0, [sp, #24]
 541:Lib/lvgl/src/widgets/checkbox/../../core/lv_obj_style_gen.h **** }
 783              		.loc 2 541 5 is_stmt 1 view .LVU258
 784              	.LVL94:
 541:Lib/lvgl/src/widgets/checkbox/../../core/lv_obj_style_gen.h **** }
 785              		.loc 2 541 5 is_stmt 0 view .LVU259
 786              	.LBE96:
 787              	.LBE95:
 182:Lib/lvgl/src/widgets/checkbox/lv_checkbox.c ****         int32_t line_space = lv_obj_get_style_text_line_space(obj, LV_PART_MAIN);
 788              		.loc 1 182 9 is_stmt 1 view .LVU260
 789              	.LBB97:
 790              	.LBI97:
 150:Lib/lvgl/src/widgets/checkbox/../../core/../misc/../font/lv_font.h **** {
 791              		.loc 3 150 23 view .LVU261
 792              	.LBB98:
 793              		.loc 3 152 5 view .LVU262
 794              		.loc 3 152 16 is_stmt 0 view .LVU263
 795 0052 D0F80C90 		ldr	r9, [r0, #12]
 796              	.LVL95:
 797              		.loc 3 152 16 view .LVU264
 798              	.LBE98:
 799              	.LBE97:
 183:Lib/lvgl/src/widgets/checkbox/lv_checkbox.c ****         int32_t letter_space = lv_obj_get_style_text_letter_space(obj, LV_PART_MAIN);
 800              		.loc 1 183 9 is_stmt 1 view .LVU265
 801              	.LBB99:
 802              	.LBI99:
 550:Lib/lvgl/src/widgets/checkbox/../../core/lv_obj_style_gen.h **** {
 803              		.loc 2 550 23 view .LVU266
 804              	.LBB100:
 552:Lib/lvgl/src/widgets/checkbox/../../core/lv_obj_style_gen.h ****     return (int32_t)v.num;
 805              		.loc 2 552 5 view .LVU267
 552:Lib/lvgl/src/widgets/checkbox/../../core/lv_obj_style_gen.h ****     return (int32_t)v.num;
 806              		.loc 2 552 26 is_stmt 0 view .LVU268
 807 0056 5C22     		movs	r2, #92
 808 0058 0021     		movs	r1, #0
 809 005a 3046     		mov	r0, r6
ARM GAS  C:\Users\Alex\AppData\Local\Temp\ccFfvF9D.s 			page 39


 810              	.LVL96:
 552:Lib/lvgl/src/widgets/checkbox/../../core/lv_obj_style_gen.h ****     return (int32_t)v.num;
 811              		.loc 2 552 26 view .LVU269
 812 005c FFF7FEFF 		bl	lv_obj_get_style_prop
 813              	.LVL97:
 814 0060 0546     		mov	r5, r0
 815              	.LVL98:
 552:Lib/lvgl/src/widgets/checkbox/../../core/lv_obj_style_gen.h ****     return (int32_t)v.num;
 816              		.loc 2 552 26 view .LVU270
 817 0062 0690     		str	r0, [sp, #24]
 553:Lib/lvgl/src/widgets/checkbox/../../core/lv_obj_style_gen.h **** }
 818              		.loc 2 553 5 is_stmt 1 view .LVU271
 819              	.LVL99:
 553:Lib/lvgl/src/widgets/checkbox/../../core/lv_obj_style_gen.h **** }
 820              		.loc 2 553 5 is_stmt 0 view .LVU272
 821              	.LBE100:
 822              	.LBE99:
 184:Lib/lvgl/src/widgets/checkbox/lv_checkbox.c **** 
 823              		.loc 1 184 9 is_stmt 1 view .LVU273
 824              	.LBB101:
 825              	.LBI101:
 544:Lib/lvgl/src/widgets/checkbox/../../core/lv_obj_style_gen.h **** {
 826              		.loc 2 544 23 view .LVU274
 827              	.LBB102:
 546:Lib/lvgl/src/widgets/checkbox/../../core/lv_obj_style_gen.h ****     return (int32_t)v.num;
 828              		.loc 2 546 5 view .LVU275
 546:Lib/lvgl/src/widgets/checkbox/../../core/lv_obj_style_gen.h ****     return (int32_t)v.num;
 829              		.loc 2 546 26 is_stmt 0 view .LVU276
 830 0064 5B22     		movs	r2, #91
 831 0066 0021     		movs	r1, #0
 832 0068 3046     		mov	r0, r6
 833              	.LVL100:
 546:Lib/lvgl/src/widgets/checkbox/../../core/lv_obj_style_gen.h ****     return (int32_t)v.num;
 834              		.loc 2 546 26 view .LVU277
 835 006a FFF7FEFF 		bl	lv_obj_get_style_prop
 836              	.LVL101:
 837 006e 0346     		mov	r3, r0
 838 0070 0690     		str	r0, [sp, #24]
 547:Lib/lvgl/src/widgets/checkbox/../../core/lv_obj_style_gen.h **** }
 839              		.loc 2 547 5 is_stmt 1 view .LVU278
 840              	.LVL102:
 547:Lib/lvgl/src/widgets/checkbox/../../core/lv_obj_style_gen.h **** }
 841              		.loc 2 547 5 is_stmt 0 view .LVU279
 842              	.LBE102:
 843              	.LBE101:
 186:Lib/lvgl/src/widgets/checkbox/lv_checkbox.c ****         lv_text_get_size(&txt_size, cb->txt, font, letter_space, line_space, LV_COORD_MAX, LV_TEXT_
 844              		.loc 1 186 9 is_stmt 1 view .LVU280
 187:Lib/lvgl/src/widgets/checkbox/lv_checkbox.c **** 
 845              		.loc 1 187 9 view .LVU281
 187:Lib/lvgl/src/widgets/checkbox/lv_checkbox.c **** 
 846              		.loc 1 187 39 is_stmt 0 view .LVU282
 847 0072 F16A     		ldr	r1, [r6, #44]
 187:Lib/lvgl/src/widgets/checkbox/lv_checkbox.c **** 
 848              		.loc 1 187 9 view .LVU283
 849 0074 4FF00008 		mov	r8, #0
 850 0078 CDF80880 		str	r8, [sp, #8]
 851 007c 6FF06042 		mvn	r2, #-536870912
ARM GAS  C:\Users\Alex\AppData\Local\Temp\ccFfvF9D.s 			page 40


 852 0080 0192     		str	r2, [sp, #4]
 853 0082 0095     		str	r5, [sp]
 854 0084 2246     		mov	r2, r4
 855 0086 04A8     		add	r0, sp, #16
 856              	.LVL103:
 187:Lib/lvgl/src/widgets/checkbox/lv_checkbox.c **** 
 857              		.loc 1 187 9 view .LVU284
 858 0088 FFF7FEFF 		bl	lv_text_get_size
 859              	.LVL104:
 189:Lib/lvgl/src/widgets/checkbox/lv_checkbox.c ****         int32_t marker_leftp = lv_obj_get_style_pad_left(obj, LV_PART_INDICATOR);
 860              		.loc 1 189 9 is_stmt 1 view .LVU285
 861              	.LBB103:
 862              	.LBI103:
 172:Lib/lvgl/src/widgets/checkbox/../../core/lv_obj_style_gen.h **** {
 863              		.loc 2 172 23 view .LVU286
 864              	.LBB104:
 174:Lib/lvgl/src/widgets/checkbox/../../core/lv_obj_style_gen.h ****     return (int32_t)v.num;
 865              		.loc 2 174 5 view .LVU287
 174:Lib/lvgl/src/widgets/checkbox/../../core/lv_obj_style_gen.h ****     return (int32_t)v.num;
 866              		.loc 2 174 26 is_stmt 0 view .LVU288
 867 008c 1522     		movs	r2, #21
 868 008e 4146     		mov	r1, r8
 869 0090 3046     		mov	r0, r6
 870 0092 FFF7FEFF 		bl	lv_obj_get_style_prop
 871              	.LVL105:
 872 0096 8046     		mov	r8, r0
 873 0098 0690     		str	r0, [sp, #24]
 175:Lib/lvgl/src/widgets/checkbox/../../core/lv_obj_style_gen.h **** }
 874              		.loc 2 175 5 is_stmt 1 view .LVU289
 875              	.LVL106:
 175:Lib/lvgl/src/widgets/checkbox/../../core/lv_obj_style_gen.h **** }
 876              		.loc 2 175 5 is_stmt 0 view .LVU290
 877              	.LBE104:
 878              	.LBE103:
 190:Lib/lvgl/src/widgets/checkbox/lv_checkbox.c ****         int32_t marker_rightp = lv_obj_get_style_pad_right(obj, LV_PART_INDICATOR);
 879              		.loc 1 190 9 is_stmt 1 view .LVU291
 880              	.LBB105:
 881              	.LBI105:
 154:Lib/lvgl/src/widgets/checkbox/../../core/lv_obj_style_gen.h **** {
 882              		.loc 2 154 23 view .LVU292
 883              	.LBB106:
 156:Lib/lvgl/src/widgets/checkbox/../../core/lv_obj_style_gen.h ****     return (int32_t)v.num;
 884              		.loc 2 156 5 view .LVU293
 156:Lib/lvgl/src/widgets/checkbox/../../core/lv_obj_style_gen.h ****     return (int32_t)v.num;
 885              		.loc 2 156 26 is_stmt 0 view .LVU294
 886 009a 1222     		movs	r2, #18
 887 009c 4FF40031 		mov	r1, #131072
 888 00a0 3046     		mov	r0, r6
 889              	.LVL107:
 156:Lib/lvgl/src/widgets/checkbox/../../core/lv_obj_style_gen.h ****     return (int32_t)v.num;
 890              		.loc 2 156 26 view .LVU295
 891 00a2 FFF7FEFF 		bl	lv_obj_get_style_prop
 892              	.LVL108:
 893 00a6 0446     		mov	r4, r0
 894              	.LVL109:
 156:Lib/lvgl/src/widgets/checkbox/../../core/lv_obj_style_gen.h ****     return (int32_t)v.num;
 895              		.loc 2 156 26 view .LVU296
ARM GAS  C:\Users\Alex\AppData\Local\Temp\ccFfvF9D.s 			page 41


 896 00a8 0690     		str	r0, [sp, #24]
 157:Lib/lvgl/src/widgets/checkbox/../../core/lv_obj_style_gen.h **** }
 897              		.loc 2 157 5 is_stmt 1 view .LVU297
 898              	.LVL110:
 157:Lib/lvgl/src/widgets/checkbox/../../core/lv_obj_style_gen.h **** }
 899              		.loc 2 157 5 is_stmt 0 view .LVU298
 900              	.LBE106:
 901              	.LBE105:
 191:Lib/lvgl/src/widgets/checkbox/lv_checkbox.c ****         int32_t marker_topp = lv_obj_get_style_pad_top(obj, LV_PART_INDICATOR);
 902              		.loc 1 191 9 is_stmt 1 view .LVU299
 903              	.LBB107:
 904              	.LBI107:
 160:Lib/lvgl/src/widgets/checkbox/../../core/lv_obj_style_gen.h **** {
 905              		.loc 2 160 23 view .LVU300
 906              	.LBB108:
 162:Lib/lvgl/src/widgets/checkbox/../../core/lv_obj_style_gen.h ****     return (int32_t)v.num;
 907              		.loc 2 162 5 view .LVU301
 162:Lib/lvgl/src/widgets/checkbox/../../core/lv_obj_style_gen.h ****     return (int32_t)v.num;
 908              		.loc 2 162 26 is_stmt 0 view .LVU302
 909 00aa 1322     		movs	r2, #19
 910 00ac 4FF40031 		mov	r1, #131072
 911 00b0 3046     		mov	r0, r6
 912              	.LVL111:
 162:Lib/lvgl/src/widgets/checkbox/../../core/lv_obj_style_gen.h ****     return (int32_t)v.num;
 913              		.loc 2 162 26 view .LVU303
 914 00b2 FFF7FEFF 		bl	lv_obj_get_style_prop
 915              	.LVL112:
 916 00b6 8246     		mov	r10, r0
 917 00b8 0690     		str	r0, [sp, #24]
 163:Lib/lvgl/src/widgets/checkbox/../../core/lv_obj_style_gen.h **** }
 918              		.loc 2 163 5 is_stmt 1 view .LVU304
 919              	.LVL113:
 163:Lib/lvgl/src/widgets/checkbox/../../core/lv_obj_style_gen.h **** }
 920              		.loc 2 163 5 is_stmt 0 view .LVU305
 921              	.LBE108:
 922              	.LBE107:
 192:Lib/lvgl/src/widgets/checkbox/lv_checkbox.c ****         int32_t marker_bottomp = lv_obj_get_style_pad_bottom(obj, LV_PART_INDICATOR);
 923              		.loc 1 192 9 is_stmt 1 view .LVU306
 924              	.LBB109:
 925              	.LBI109:
 142:Lib/lvgl/src/widgets/checkbox/../../core/lv_obj_style_gen.h **** {
 926              		.loc 2 142 23 view .LVU307
 927              	.LBB110:
 144:Lib/lvgl/src/widgets/checkbox/../../core/lv_obj_style_gen.h ****     return (int32_t)v.num;
 928              		.loc 2 144 5 view .LVU308
 144:Lib/lvgl/src/widgets/checkbox/../../core/lv_obj_style_gen.h ****     return (int32_t)v.num;
 929              		.loc 2 144 26 is_stmt 0 view .LVU309
 930 00ba 1022     		movs	r2, #16
 931 00bc 4FF40031 		mov	r1, #131072
 932 00c0 3046     		mov	r0, r6
 933              	.LVL114:
 144:Lib/lvgl/src/widgets/checkbox/../../core/lv_obj_style_gen.h ****     return (int32_t)v.num;
 934              		.loc 2 144 26 view .LVU310
 935 00c2 FFF7FEFF 		bl	lv_obj_get_style_prop
 936              	.LVL115:
 937 00c6 0546     		mov	r5, r0
 938              	.LVL116:
ARM GAS  C:\Users\Alex\AppData\Local\Temp\ccFfvF9D.s 			page 42


 144:Lib/lvgl/src/widgets/checkbox/../../core/lv_obj_style_gen.h ****     return (int32_t)v.num;
 939              		.loc 2 144 26 view .LVU311
 940 00c8 0690     		str	r0, [sp, #24]
 145:Lib/lvgl/src/widgets/checkbox/../../core/lv_obj_style_gen.h **** }
 941              		.loc 2 145 5 is_stmt 1 view .LVU312
 942              	.LVL117:
 145:Lib/lvgl/src/widgets/checkbox/../../core/lv_obj_style_gen.h **** }
 943              		.loc 2 145 5 is_stmt 0 view .LVU313
 944              	.LBE110:
 945              	.LBE109:
 193:Lib/lvgl/src/widgets/checkbox/lv_checkbox.c ****         lv_point_t marker_size;
 946              		.loc 1 193 9 is_stmt 1 view .LVU314
 947              	.LBB111:
 948              	.LBI111:
 148:Lib/lvgl/src/widgets/checkbox/../../core/lv_obj_style_gen.h **** {
 949              		.loc 2 148 23 view .LVU315
 950              	.LBB112:
 150:Lib/lvgl/src/widgets/checkbox/../../core/lv_obj_style_gen.h ****     return (int32_t)v.num;
 951              		.loc 2 150 5 view .LVU316
 150:Lib/lvgl/src/widgets/checkbox/../../core/lv_obj_style_gen.h ****     return (int32_t)v.num;
 952              		.loc 2 150 26 is_stmt 0 view .LVU317
 953 00ca 1122     		movs	r2, #17
 954 00cc 4FF40031 		mov	r1, #131072
 955 00d0 3046     		mov	r0, r6
 956              	.LVL118:
 150:Lib/lvgl/src/widgets/checkbox/../../core/lv_obj_style_gen.h ****     return (int32_t)v.num;
 957              		.loc 2 150 26 view .LVU318
 958 00d2 FFF7FEFF 		bl	lv_obj_get_style_prop
 959              	.LVL119:
 960 00d6 0690     		str	r0, [sp, #24]
 151:Lib/lvgl/src/widgets/checkbox/../../core/lv_obj_style_gen.h **** }
 961              		.loc 2 151 5 is_stmt 1 view .LVU319
 962              	.LVL120:
 151:Lib/lvgl/src/widgets/checkbox/../../core/lv_obj_style_gen.h **** }
 963              		.loc 2 151 5 is_stmt 0 view .LVU320
 964              	.LBE112:
 965              	.LBE111:
 194:Lib/lvgl/src/widgets/checkbox/lv_checkbox.c ****         marker_size.x = font_h + marker_leftp + marker_rightp;
 966              		.loc 1 194 9 is_stmt 1 view .LVU321
 195:Lib/lvgl/src/widgets/checkbox/lv_checkbox.c ****         marker_size.y = font_h + marker_topp + marker_bottomp;
 967              		.loc 1 195 9 view .LVU322
 195:Lib/lvgl/src/widgets/checkbox/lv_checkbox.c ****         marker_size.y = font_h + marker_topp + marker_bottomp;
 968              		.loc 1 195 32 is_stmt 0 view .LVU323
 969 00d8 4C44     		add	r4, r4, r9
 970              	.LVL121:
 195:Lib/lvgl/src/widgets/checkbox/lv_checkbox.c ****         marker_size.y = font_h + marker_topp + marker_bottomp;
 971              		.loc 1 195 47 view .LVU324
 972 00da 5444     		add	r4, r4, r10
 195:Lib/lvgl/src/widgets/checkbox/lv_checkbox.c ****         marker_size.y = font_h + marker_topp + marker_bottomp;
 973              		.loc 1 195 23 view .LVU325
 974 00dc 0694     		str	r4, [sp, #24]
 196:Lib/lvgl/src/widgets/checkbox/lv_checkbox.c **** 
 975              		.loc 1 196 9 is_stmt 1 view .LVU326
 196:Lib/lvgl/src/widgets/checkbox/lv_checkbox.c **** 
 976              		.loc 1 196 32 is_stmt 0 view .LVU327
 977 00de 4D44     		add	r5, r5, r9
 978              	.LVL122:
ARM GAS  C:\Users\Alex\AppData\Local\Temp\ccFfvF9D.s 			page 43


 196:Lib/lvgl/src/widgets/checkbox/lv_checkbox.c **** 
 979              		.loc 1 196 46 view .LVU328
 980 00e0 0544     		add	r5, r5, r0
 196:Lib/lvgl/src/widgets/checkbox/lv_checkbox.c **** 
 981              		.loc 1 196 23 view .LVU329
 982 00e2 0795     		str	r5, [sp, #28]
 198:Lib/lvgl/src/widgets/checkbox/lv_checkbox.c ****         p->y = LV_MAX(marker_size.y, txt_size.y);
 983              		.loc 1 198 9 is_stmt 1 view .LVU330
 198:Lib/lvgl/src/widgets/checkbox/lv_checkbox.c ****         p->y = LV_MAX(marker_size.y, txt_size.y);
 984              		.loc 1 198 40 is_stmt 0 view .LVU331
 985 00e4 049B     		ldr	r3, [sp, #16]
 198:Lib/lvgl/src/widgets/checkbox/lv_checkbox.c ****         p->y = LV_MAX(marker_size.y, txt_size.y);
 986              		.loc 1 198 30 view .LVU332
 987 00e6 1C44     		add	r4, r4, r3
 198:Lib/lvgl/src/widgets/checkbox/lv_checkbox.c ****         p->y = LV_MAX(marker_size.y, txt_size.y);
 988              		.loc 1 198 43 view .LVU333
 989 00e8 4444     		add	r4, r4, r8
 198:Lib/lvgl/src/widgets/checkbox/lv_checkbox.c ****         p->y = LV_MAX(marker_size.y, txt_size.y);
 990              		.loc 1 198 14 view .LVU334
 991 00ea 3C60     		str	r4, [r7]
 199:Lib/lvgl/src/widgets/checkbox/lv_checkbox.c ****     }
 992              		.loc 1 199 9 is_stmt 1 view .LVU335
 199:Lib/lvgl/src/widgets/checkbox/lv_checkbox.c ****     }
 993              		.loc 1 199 16 is_stmt 0 view .LVU336
 994 00ec 059B     		ldr	r3, [sp, #20]
 995 00ee 9D42     		cmp	r5, r3
 996 00f0 B8BF     		it	lt
 997 00f2 1D46     		movlt	r5, r3
 199:Lib/lvgl/src/widgets/checkbox/lv_checkbox.c ****     }
 998              		.loc 1 199 14 view .LVU337
 999 00f4 7D60     		str	r5, [r7, #4]
 1000              	.LBE94:
 1001 00f6 8CE7     		b	.L12
 1002              	.LVL123:
 1003              	.L19:
 1004              	.LBB113:
 202:Lib/lvgl/src/widgets/checkbox/lv_checkbox.c ****         int32_t m = lv_obj_calculate_ext_draw_size(obj, LV_PART_INDICATOR);
 1005              		.loc 1 202 9 is_stmt 1 view .LVU338
 202:Lib/lvgl/src/widgets/checkbox/lv_checkbox.c ****         int32_t m = lv_obj_calculate_ext_draw_size(obj, LV_PART_INDICATOR);
 1006              		.loc 1 202 23 is_stmt 0 view .LVU339
 1007 00f8 2046     		mov	r0, r4
 1008              	.LVL124:
 202:Lib/lvgl/src/widgets/checkbox/lv_checkbox.c ****         int32_t m = lv_obj_calculate_ext_draw_size(obj, LV_PART_INDICATOR);
 1009              		.loc 1 202 23 view .LVU340
 1010 00fa FFF7FEFF 		bl	lv_event_get_param
 1011              	.LVL125:
 1012 00fe 0446     		mov	r4, r0
 1013              	.LVL126:
 203:Lib/lvgl/src/widgets/checkbox/lv_checkbox.c ****         *s = LV_MAX(*s, m);
 1014              		.loc 1 203 9 is_stmt 1 view .LVU341
 203:Lib/lvgl/src/widgets/checkbox/lv_checkbox.c ****         *s = LV_MAX(*s, m);
 1015              		.loc 1 203 21 is_stmt 0 view .LVU342
 1016 0100 4FF40031 		mov	r1, #131072
 1017 0104 3046     		mov	r0, r6
 1018              	.LVL127:
 203:Lib/lvgl/src/widgets/checkbox/lv_checkbox.c ****         *s = LV_MAX(*s, m);
 1019              		.loc 1 203 21 view .LVU343
ARM GAS  C:\Users\Alex\AppData\Local\Temp\ccFfvF9D.s 			page 44


 1020 0106 FFF7FEFF 		bl	lv_obj_calculate_ext_draw_size
 1021              	.LVL128:
 204:Lib/lvgl/src/widgets/checkbox/lv_checkbox.c ****     }
 1022              		.loc 1 204 9 is_stmt 1 view .LVU344
 204:Lib/lvgl/src/widgets/checkbox/lv_checkbox.c ****     }
 1023              		.loc 1 204 14 is_stmt 0 view .LVU345
 1024 010a 2368     		ldr	r3, [r4]
 1025 010c 9842     		cmp	r0, r3
 1026 010e B8BF     		it	lt
 1027 0110 1846     		movlt	r0, r3
 1028              	.LVL129:
 204:Lib/lvgl/src/widgets/checkbox/lv_checkbox.c ****     }
 1029              		.loc 1 204 12 view .LVU346
 1030 0112 2060     		str	r0, [r4]
 1031              	.LBE113:
 1032 0114 7DE7     		b	.L12
 1033              	.L21:
 1034 0116 00BF     		.align	2
 1035              	.L20:
 1036 0118 00000000 		.word	lv_checkbox_class
 1037              		.cfi_endproc
 1038              	.LFE239:
 1040              		.section	.text.lv_checkbox_destructor,"ax",%progbits
 1041              		.align	1
 1042              		.syntax unified
 1043              		.thumb
 1044              		.thumb_func
 1046              	lv_checkbox_destructor:
 1047              	.LVL130:
 1048              	.LFB238:
 153:Lib/lvgl/src/widgets/checkbox/lv_checkbox.c ****     LV_UNUSED(class_p);
 1049              		.loc 1 153 1 is_stmt 1 view -0
 1050              		.cfi_startproc
 1051              		@ args = 0, pretend = 0, frame = 0
 1052              		@ frame_needed = 0, uses_anonymous_args = 0
 154:Lib/lvgl/src/widgets/checkbox/lv_checkbox.c ****     LV_TRACE_OBJ_CREATE("begin");
 1053              		.loc 1 154 5 view .LVU348
 155:Lib/lvgl/src/widgets/checkbox/lv_checkbox.c **** 
 1054              		.loc 1 155 33 view .LVU349
 157:Lib/lvgl/src/widgets/checkbox/lv_checkbox.c ****     if(!cb->static_txt) {
 1055              		.loc 1 157 5 view .LVU350
 158:Lib/lvgl/src/widgets/checkbox/lv_checkbox.c ****         lv_free(cb->txt);
 1056              		.loc 1 158 5 view .LVU351
 158:Lib/lvgl/src/widgets/checkbox/lv_checkbox.c ****         lv_free(cb->txt);
 1057              		.loc 1 158 8 is_stmt 0 view .LVU352
 1058 0000 91F83030 		ldrb	r3, [r1, #48]	@ zero_extendqisi2
 158:Lib/lvgl/src/widgets/checkbox/lv_checkbox.c ****         lv_free(cb->txt);
 1059              		.loc 1 158 7 view .LVU353
 1060 0004 13F0010F 		tst	r3, #1
 1061 0008 00D0     		beq	.L28
 1062 000a 7047     		bx	lr
 1063              	.L28:
 153:Lib/lvgl/src/widgets/checkbox/lv_checkbox.c ****     LV_UNUSED(class_p);
 1064              		.loc 1 153 1 view .LVU354
 1065 000c 10B5     		push	{r4, lr}
 1066              	.LCFI8:
 1067              		.cfi_def_cfa_offset 8
ARM GAS  C:\Users\Alex\AppData\Local\Temp\ccFfvF9D.s 			page 45


 1068              		.cfi_offset 4, -8
 1069              		.cfi_offset 14, -4
 1070 000e 0C46     		mov	r4, r1
 159:Lib/lvgl/src/widgets/checkbox/lv_checkbox.c ****         cb->txt = NULL;
 1071              		.loc 1 159 9 is_stmt 1 view .LVU355
 1072 0010 C86A     		ldr	r0, [r1, #44]
 1073              	.LVL131:
 159:Lib/lvgl/src/widgets/checkbox/lv_checkbox.c ****         cb->txt = NULL;
 1074              		.loc 1 159 9 is_stmt 0 view .LVU356
 1075 0012 FFF7FEFF 		bl	lv_free
 1076              	.LVL132:
 160:Lib/lvgl/src/widgets/checkbox/lv_checkbox.c ****     }
 1077              		.loc 1 160 9 is_stmt 1 view .LVU357
 160:Lib/lvgl/src/widgets/checkbox/lv_checkbox.c ****     }
 1078              		.loc 1 160 17 is_stmt 0 view .LVU358
 1079 0016 0023     		movs	r3, #0
 1080 0018 E362     		str	r3, [r4, #44]
 162:Lib/lvgl/src/widgets/checkbox/lv_checkbox.c **** }
 1081              		.loc 1 162 36 is_stmt 1 view .LVU359
 163:Lib/lvgl/src/widgets/checkbox/lv_checkbox.c **** 
 1082              		.loc 1 163 1 is_stmt 0 view .LVU360
 1083 001a 10BD     		pop	{r4, pc}
 163:Lib/lvgl/src/widgets/checkbox/lv_checkbox.c **** 
 1084              		.loc 1 163 1 view .LVU361
 1085              		.cfi_endproc
 1086              	.LFE238:
 1088              		.section	.rodata.lv_checkbox_constructor.str1.4,"aMS",%progbits,1
 1089              		.align	2
 1090              	.LC0:
 1091 0000 43686563 		.ascii	"Check box\000"
 1091      6B20626F 
 1091      7800
 1092              		.section	.text.lv_checkbox_constructor,"ax",%progbits
 1093              		.align	1
 1094              		.syntax unified
 1095              		.thumb
 1096              		.thumb_func
 1098              	lv_checkbox_constructor:
 1099              	.LVL133:
 1100              	.LFB237:
 130:Lib/lvgl/src/widgets/checkbox/lv_checkbox.c ****     LV_UNUSED(class_p);
 1101              		.loc 1 130 1 is_stmt 1 view -0
 1102              		.cfi_startproc
 1103              		@ args = 0, pretend = 0, frame = 0
 1104              		@ frame_needed = 0, uses_anonymous_args = 0
 130:Lib/lvgl/src/widgets/checkbox/lv_checkbox.c ****     LV_UNUSED(class_p);
 1105              		.loc 1 130 1 is_stmt 0 view .LVU363
 1106 0000 10B5     		push	{r4, lr}
 1107              	.LCFI9:
 1108              		.cfi_def_cfa_offset 8
 1109              		.cfi_offset 4, -8
 1110              		.cfi_offset 14, -4
 1111 0002 0C46     		mov	r4, r1
 131:Lib/lvgl/src/widgets/checkbox/lv_checkbox.c ****     LV_TRACE_OBJ_CREATE("begin");
 1112              		.loc 1 131 5 is_stmt 1 view .LVU364
 132:Lib/lvgl/src/widgets/checkbox/lv_checkbox.c **** 
 1113              		.loc 1 132 33 view .LVU365
ARM GAS  C:\Users\Alex\AppData\Local\Temp\ccFfvF9D.s 			page 46


 134:Lib/lvgl/src/widgets/checkbox/lv_checkbox.c **** 
 1114              		.loc 1 134 5 view .LVU366
 1115              	.LVL134:
 137:Lib/lvgl/src/widgets/checkbox/lv_checkbox.c ****     cb->static_txt = 1;
 1116              		.loc 1 137 5 view .LVU367
 137:Lib/lvgl/src/widgets/checkbox/lv_checkbox.c ****     cb->static_txt = 1;
 1117              		.loc 1 137 13 is_stmt 0 view .LVU368
 1118 0004 0C4B     		ldr	r3, .L31
 1119 0006 CB62     		str	r3, [r1, #44]
 138:Lib/lvgl/src/widgets/checkbox/lv_checkbox.c **** #else
 1120              		.loc 1 138 5 is_stmt 1 view .LVU369
 138:Lib/lvgl/src/widgets/checkbox/lv_checkbox.c **** #else
 1121              		.loc 1 138 20 is_stmt 0 view .LVU370
 1122 0008 91F83030 		ldrb	r3, [r1, #48]	@ zero_extendqisi2
 1123 000c 43F00103 		orr	r3, r3, #1
 1124 0010 81F83030 		strb	r3, [r1, #48]
 144:Lib/lvgl/src/widgets/checkbox/lv_checkbox.c ****     lv_obj_add_flag(obj, LV_OBJ_FLAG_CHECKABLE);
 1125              		.loc 1 144 5 is_stmt 1 view .LVU371
 1126 0014 0221     		movs	r1, #2
 1127              	.LVL135:
 144:Lib/lvgl/src/widgets/checkbox/lv_checkbox.c ****     lv_obj_add_flag(obj, LV_OBJ_FLAG_CHECKABLE);
 1128              		.loc 1 144 5 is_stmt 0 view .LVU372
 1129 0016 2046     		mov	r0, r4
 1130              	.LVL136:
 144:Lib/lvgl/src/widgets/checkbox/lv_checkbox.c ****     lv_obj_add_flag(obj, LV_OBJ_FLAG_CHECKABLE);
 1131              		.loc 1 144 5 view .LVU373
 1132 0018 FFF7FEFF 		bl	lv_obj_add_flag
 1133              	.LVL137:
 145:Lib/lvgl/src/widgets/checkbox/lv_checkbox.c ****     lv_obj_add_flag(obj, LV_OBJ_FLAG_SCROLL_ON_FOCUS);
 1134              		.loc 1 145 5 is_stmt 1 view .LVU374
 1135 001c 0821     		movs	r1, #8
 1136 001e 2046     		mov	r0, r4
 1137 0020 FFF7FEFF 		bl	lv_obj_add_flag
 1138              	.LVL138:
 146:Lib/lvgl/src/widgets/checkbox/lv_checkbox.c ****     lv_obj_remove_flag(obj, LV_OBJ_FLAG_SCROLLABLE);
 1139              		.loc 1 146 5 view .LVU375
 1140 0024 4FF48061 		mov	r1, #1024
 1141 0028 2046     		mov	r0, r4
 1142 002a FFF7FEFF 		bl	lv_obj_add_flag
 1143              	.LVL139:
 147:Lib/lvgl/src/widgets/checkbox/lv_checkbox.c **** 
 1144              		.loc 1 147 5 view .LVU376
 1145 002e 1021     		movs	r1, #16
 1146 0030 2046     		mov	r0, r4
 1147 0032 FFF7FEFF 		bl	lv_obj_remove_flag
 1148              	.LVL140:
 149:Lib/lvgl/src/widgets/checkbox/lv_checkbox.c **** }
 1149              		.loc 1 149 36 view .LVU377
 150:Lib/lvgl/src/widgets/checkbox/lv_checkbox.c **** 
 1150              		.loc 1 150 1 is_stmt 0 view .LVU378
 1151 0036 10BD     		pop	{r4, pc}
 1152              	.LVL141:
 1153              	.L32:
 150:Lib/lvgl/src/widgets/checkbox/lv_checkbox.c **** 
 1154              		.loc 1 150 1 view .LVU379
 1155              		.align	2
 1156              	.L31:
ARM GAS  C:\Users\Alex\AppData\Local\Temp\ccFfvF9D.s 			page 47


 1157 0038 00000000 		.word	.LC0
 1158              		.cfi_endproc
 1159              	.LFE237:
 1161              		.section	.text.lv_checkbox_create,"ax",%progbits
 1162              		.align	1
 1163              		.global	lv_checkbox_create
 1164              		.syntax unified
 1165              		.thumb
 1166              		.thumb_func
 1168              	lv_checkbox_create:
 1169              	.LVL142:
 1170              	.LFB233:
  59:Lib/lvgl/src/widgets/checkbox/lv_checkbox.c ****     LV_LOG_INFO("begin");
 1171              		.loc 1 59 1 is_stmt 1 view -0
 1172              		.cfi_startproc
 1173              		@ args = 0, pretend = 0, frame = 0
 1174              		@ frame_needed = 0, uses_anonymous_args = 0
  59:Lib/lvgl/src/widgets/checkbox/lv_checkbox.c ****     LV_LOG_INFO("begin");
 1175              		.loc 1 59 1 is_stmt 0 view .LVU381
 1176 0000 10B5     		push	{r4, lr}
 1177              	.LCFI10:
 1178              		.cfi_def_cfa_offset 8
 1179              		.cfi_offset 4, -8
 1180              		.cfi_offset 14, -4
 1181 0002 0146     		mov	r1, r0
  60:Lib/lvgl/src/widgets/checkbox/lv_checkbox.c ****     lv_obj_t * obj = lv_obj_class_create_obj(MY_CLASS, parent);
 1182              		.loc 1 60 5 is_stmt 1 view .LVU382
  60:Lib/lvgl/src/widgets/checkbox/lv_checkbox.c ****     lv_obj_t * obj = lv_obj_class_create_obj(MY_CLASS, parent);
 1183              		.loc 1 60 5 view .LVU383
  60:Lib/lvgl/src/widgets/checkbox/lv_checkbox.c ****     lv_obj_t * obj = lv_obj_class_create_obj(MY_CLASS, parent);
 1184              		.loc 1 60 5 view .LVU384
  61:Lib/lvgl/src/widgets/checkbox/lv_checkbox.c ****     lv_obj_class_init_obj(obj);
 1185              		.loc 1 61 5 view .LVU385
  61:Lib/lvgl/src/widgets/checkbox/lv_checkbox.c ****     lv_obj_class_init_obj(obj);
 1186              		.loc 1 61 22 is_stmt 0 view .LVU386
 1187 0004 0348     		ldr	r0, .L35
 1188              	.LVL143:
  61:Lib/lvgl/src/widgets/checkbox/lv_checkbox.c ****     lv_obj_class_init_obj(obj);
 1189              		.loc 1 61 22 view .LVU387
 1190 0006 FFF7FEFF 		bl	lv_obj_class_create_obj
 1191              	.LVL144:
  61:Lib/lvgl/src/widgets/checkbox/lv_checkbox.c ****     lv_obj_class_init_obj(obj);
 1192              		.loc 1 61 22 view .LVU388
 1193 000a 0446     		mov	r4, r0
 1194              	.LVL145:
  62:Lib/lvgl/src/widgets/checkbox/lv_checkbox.c ****     return obj;
 1195              		.loc 1 62 5 is_stmt 1 view .LVU389
 1196 000c FFF7FEFF 		bl	lv_obj_class_init_obj
 1197              	.LVL146:
  63:Lib/lvgl/src/widgets/checkbox/lv_checkbox.c **** }
 1198              		.loc 1 63 5 view .LVU390
  64:Lib/lvgl/src/widgets/checkbox/lv_checkbox.c **** 
 1199              		.loc 1 64 1 is_stmt 0 view .LVU391
 1200 0010 2046     		mov	r0, r4
 1201 0012 10BD     		pop	{r4, pc}
 1202              	.LVL147:
 1203              	.L36:
ARM GAS  C:\Users\Alex\AppData\Local\Temp\ccFfvF9D.s 			page 48


  64:Lib/lvgl/src/widgets/checkbox/lv_checkbox.c **** 
 1204              		.loc 1 64 1 view .LVU392
 1205              		.align	2
 1206              	.L35:
 1207 0014 00000000 		.word	lv_checkbox_class
 1208              		.cfi_endproc
 1209              	.LFE233:
 1211              		.section	.text.lv_checkbox_set_text,"ax",%progbits
 1212              		.align	1
 1213              		.global	lv_checkbox_set_text
 1214              		.syntax unified
 1215              		.thumb
 1216              		.thumb_func
 1218              	lv_checkbox_set_text:
 1219              	.LVL148:
 1220              	.LFB234:
  71:Lib/lvgl/src/widgets/checkbox/lv_checkbox.c ****     lv_checkbox_t * cb = (lv_checkbox_t *)obj;
 1221              		.loc 1 71 1 is_stmt 1 view -0
 1222              		.cfi_startproc
 1223              		@ args = 0, pretend = 0, frame = 0
 1224              		@ frame_needed = 0, uses_anonymous_args = 0
  71:Lib/lvgl/src/widgets/checkbox/lv_checkbox.c ****     lv_checkbox_t * cb = (lv_checkbox_t *)obj;
 1225              		.loc 1 71 1 is_stmt 0 view .LVU394
 1226 0000 38B5     		push	{r3, r4, r5, lr}
 1227              	.LCFI11:
 1228              		.cfi_def_cfa_offset 16
 1229              		.cfi_offset 3, -16
 1230              		.cfi_offset 4, -12
 1231              		.cfi_offset 5, -8
 1232              		.cfi_offset 14, -4
 1233 0002 0446     		mov	r4, r0
  72:Lib/lvgl/src/widgets/checkbox/lv_checkbox.c **** 
 1234              		.loc 1 72 5 is_stmt 1 view .LVU395
 1235              	.LVL149:
  74:Lib/lvgl/src/widgets/checkbox/lv_checkbox.c ****         size_t len;
 1236              		.loc 1 74 5 view .LVU396
  74:Lib/lvgl/src/widgets/checkbox/lv_checkbox.c ****         size_t len;
 1237              		.loc 1 74 7 is_stmt 0 view .LVU397
 1238 0004 C9B1     		cbz	r1, .L38
 1239 0006 0D46     		mov	r5, r1
 1240              	.LBB114:
  75:Lib/lvgl/src/widgets/checkbox/lv_checkbox.c **** 
 1241              		.loc 1 75 9 is_stmt 1 view .LVU398
  80:Lib/lvgl/src/widgets/checkbox/lv_checkbox.c **** #endif
 1242              		.loc 1 80 9 view .LVU399
  80:Lib/lvgl/src/widgets/checkbox/lv_checkbox.c **** #endif
 1243              		.loc 1 80 15 is_stmt 0 view .LVU400
 1244 0008 0846     		mov	r0, r1
 1245              	.LVL150:
  80:Lib/lvgl/src/widgets/checkbox/lv_checkbox.c **** #endif
 1246              		.loc 1 80 15 view .LVU401
 1247 000a FFF7FEFF 		bl	lv_strlen
 1248              	.LVL151:
  80:Lib/lvgl/src/widgets/checkbox/lv_checkbox.c **** #endif
 1249              		.loc 1 80 13 view .LVU402
 1250 000e 0130     		adds	r0, r0, #1
 1251              	.LVL152:
ARM GAS  C:\Users\Alex\AppData\Local\Temp\ccFfvF9D.s 			page 49


  83:Lib/lvgl/src/widgets/checkbox/lv_checkbox.c ****         else cb->txt = lv_malloc(len);
 1252              		.loc 1 83 9 is_stmt 1 view .LVU403
  83:Lib/lvgl/src/widgets/checkbox/lv_checkbox.c ****         else cb->txt = lv_malloc(len);
 1253              		.loc 1 83 12 is_stmt 0 view .LVU404
 1254 0010 94F83030 		ldrb	r3, [r4, #48]	@ zero_extendqisi2
  83:Lib/lvgl/src/widgets/checkbox/lv_checkbox.c ****         else cb->txt = lv_malloc(len);
 1255              		.loc 1 83 11 view .LVU405
 1256 0014 13F0010F 		tst	r3, #1
 1257 0018 16D1     		bne	.L39
  83:Lib/lvgl/src/widgets/checkbox/lv_checkbox.c ****         else cb->txt = lv_malloc(len);
 1258              		.loc 1 83 29 is_stmt 1 discriminator 1 view .LVU406
  83:Lib/lvgl/src/widgets/checkbox/lv_checkbox.c ****         else cb->txt = lv_malloc(len);
 1259              		.loc 1 83 39 is_stmt 0 discriminator 1 view .LVU407
 1260 001a 0146     		mov	r1, r0
 1261 001c E06A     		ldr	r0, [r4, #44]
 1262              	.LVL153:
  83:Lib/lvgl/src/widgets/checkbox/lv_checkbox.c ****         else cb->txt = lv_malloc(len);
 1263              		.loc 1 83 39 discriminator 1 view .LVU408
 1264 001e FFF7FEFF 		bl	lv_realloc
 1265              	.LVL154:
  83:Lib/lvgl/src/widgets/checkbox/lv_checkbox.c ****         else cb->txt = lv_malloc(len);
 1266              		.loc 1 83 37 discriminator 1 view .LVU409
 1267 0022 E062     		str	r0, [r4, #44]
 1268              	.L40:
  86:Lib/lvgl/src/widgets/checkbox/lv_checkbox.c ****         if(NULL == cb->txt) return;
 1269              		.loc 1 86 9 is_stmt 1 view .LVU410
  86:Lib/lvgl/src/widgets/checkbox/lv_checkbox.c ****         if(NULL == cb->txt) return;
 1270              		.loc 1 86 9 view .LVU411
 1271 0024 E06A     		ldr	r0, [r4, #44]
 1272 0026 98B1     		cbz	r0, .L42
  86:Lib/lvgl/src/widgets/checkbox/lv_checkbox.c ****         if(NULL == cb->txt) return;
 1273              		.loc 1 86 9 view .LVU412
  86:Lib/lvgl/src/widgets/checkbox/lv_checkbox.c ****         if(NULL == cb->txt) return;
 1274              		.loc 1 86 34 view .LVU413
  87:Lib/lvgl/src/widgets/checkbox/lv_checkbox.c **** 
 1275              		.loc 1 87 9 view .LVU414
  92:Lib/lvgl/src/widgets/checkbox/lv_checkbox.c **** #endif
 1276              		.loc 1 92 9 view .LVU415
 1277 0028 2946     		mov	r1, r5
 1278 002a FFF7FEFF 		bl	lv_strcpy
 1279              	.LVL155:
  95:Lib/lvgl/src/widgets/checkbox/lv_checkbox.c ****     }
 1280              		.loc 1 95 9 view .LVU416
  95:Lib/lvgl/src/widgets/checkbox/lv_checkbox.c ****     }
 1281              		.loc 1 95 24 is_stmt 0 view .LVU417
 1282 002e 94F83030 		ldrb	r3, [r4, #48]	@ zero_extendqisi2
 1283 0032 6FF30003 		bfc	r3, #0, #1
 1284 0036 84F83030 		strb	r3, [r4, #48]
 1285              	.LVL156:
 1286              	.L38:
  95:Lib/lvgl/src/widgets/checkbox/lv_checkbox.c ****     }
 1287              		.loc 1 95 24 view .LVU418
 1288              	.LBE114:
  98:Lib/lvgl/src/widgets/checkbox/lv_checkbox.c ****     lv_obj_invalidate(obj);
 1289              		.loc 1 98 5 is_stmt 1 view .LVU419
 1290 003a 2046     		mov	r0, r4
 1291 003c FFF7FEFF 		bl	lv_obj_refresh_self_size
ARM GAS  C:\Users\Alex\AppData\Local\Temp\ccFfvF9D.s 			page 50


 1292              	.LVL157:
  99:Lib/lvgl/src/widgets/checkbox/lv_checkbox.c **** }
 1293              		.loc 1 99 5 view .LVU420
 1294 0040 2046     		mov	r0, r4
 1295 0042 FFF7FEFF 		bl	lv_obj_invalidate
 1296              	.LVL158:
 100:Lib/lvgl/src/widgets/checkbox/lv_checkbox.c **** 
 1297              		.loc 1 100 1 is_stmt 0 view .LVU421
 1298 0046 38BD     		pop	{r3, r4, r5, pc}
 1299              	.LVL159:
 1300              	.L39:
 1301              	.LBB115:
  84:Lib/lvgl/src/widgets/checkbox/lv_checkbox.c **** 
 1302              		.loc 1 84 14 is_stmt 1 view .LVU422
  84:Lib/lvgl/src/widgets/checkbox/lv_checkbox.c **** 
 1303              		.loc 1 84 24 is_stmt 0 view .LVU423
 1304 0048 FFF7FEFF 		bl	lv_malloc
 1305              	.LVL160:
  84:Lib/lvgl/src/widgets/checkbox/lv_checkbox.c **** 
 1306              		.loc 1 84 22 view .LVU424
 1307 004c E062     		str	r0, [r4, #44]
 1308 004e E9E7     		b	.L40
 1309              	.L42:
  86:Lib/lvgl/src/widgets/checkbox/lv_checkbox.c ****         if(NULL == cb->txt) return;
 1310              		.loc 1 86 9 is_stmt 1 discriminator 1 view .LVU425
  86:Lib/lvgl/src/widgets/checkbox/lv_checkbox.c ****         if(NULL == cb->txt) return;
 1311              		.loc 1 86 9 discriminator 1 view .LVU426
  86:Lib/lvgl/src/widgets/checkbox/lv_checkbox.c ****         if(NULL == cb->txt) return;
 1312              		.loc 1 86 9 discriminator 1 view .LVU427
  86:Lib/lvgl/src/widgets/checkbox/lv_checkbox.c ****         if(NULL == cb->txt) return;
 1313              		.loc 1 86 9 discriminator 1 view .LVU428
  86:Lib/lvgl/src/widgets/checkbox/lv_checkbox.c ****         if(NULL == cb->txt) return;
 1314              		.loc 1 86 9 discriminator 1 view .LVU429
 1315 0050 FEE7     		b	.L42
 1316              	.LBE115:
 1317              		.cfi_endproc
 1318              	.LFE234:
 1320              		.section	.text.lv_checkbox_set_text_static,"ax",%progbits
 1321              		.align	1
 1322              		.global	lv_checkbox_set_text_static
 1323              		.syntax unified
 1324              		.thumb
 1325              		.thumb_func
 1327              	lv_checkbox_set_text_static:
 1328              	.LVL161:
 1329              	.LFB235:
 103:Lib/lvgl/src/widgets/checkbox/lv_checkbox.c ****     lv_checkbox_t * cb = (lv_checkbox_t *)obj;
 1330              		.loc 1 103 1 view -0
 1331              		.cfi_startproc
 1332              		@ args = 0, pretend = 0, frame = 0
 1333              		@ frame_needed = 0, uses_anonymous_args = 0
 103:Lib/lvgl/src/widgets/checkbox/lv_checkbox.c ****     lv_checkbox_t * cb = (lv_checkbox_t *)obj;
 1334              		.loc 1 103 1 is_stmt 0 view .LVU431
 1335 0000 38B5     		push	{r3, r4, r5, lr}
 1336              	.LCFI12:
 1337              		.cfi_def_cfa_offset 16
 1338              		.cfi_offset 3, -16
ARM GAS  C:\Users\Alex\AppData\Local\Temp\ccFfvF9D.s 			page 51


 1339              		.cfi_offset 4, -12
 1340              		.cfi_offset 5, -8
 1341              		.cfi_offset 14, -4
 1342 0002 0446     		mov	r4, r0
 1343 0004 0D46     		mov	r5, r1
 104:Lib/lvgl/src/widgets/checkbox/lv_checkbox.c **** 
 1344              		.loc 1 104 5 is_stmt 1 view .LVU432
 1345              	.LVL162:
 106:Lib/lvgl/src/widgets/checkbox/lv_checkbox.c **** 
 1346              		.loc 1 106 5 view .LVU433
 106:Lib/lvgl/src/widgets/checkbox/lv_checkbox.c **** 
 1347              		.loc 1 106 8 is_stmt 0 view .LVU434
 1348 0006 90F83030 		ldrb	r3, [r0, #48]	@ zero_extendqisi2
 106:Lib/lvgl/src/widgets/checkbox/lv_checkbox.c **** 
 1349              		.loc 1 106 7 view .LVU435
 1350 000a 13F0010F 		tst	r3, #1
 1351 000e 0DD0     		beq	.L47
 1352              	.LVL163:
 1353              	.L45:
 108:Lib/lvgl/src/widgets/checkbox/lv_checkbox.c ****     cb->static_txt = 1;
 1354              		.loc 1 108 5 is_stmt 1 view .LVU436
 108:Lib/lvgl/src/widgets/checkbox/lv_checkbox.c ****     cb->static_txt = 1;
 1355              		.loc 1 108 13 is_stmt 0 view .LVU437
 1356 0010 E562     		str	r5, [r4, #44]
 109:Lib/lvgl/src/widgets/checkbox/lv_checkbox.c **** 
 1357              		.loc 1 109 5 is_stmt 1 view .LVU438
 109:Lib/lvgl/src/widgets/checkbox/lv_checkbox.c **** 
 1358              		.loc 1 109 20 is_stmt 0 view .LVU439
 1359 0012 94F83030 		ldrb	r3, [r4, #48]	@ zero_extendqisi2
 1360 0016 43F00103 		orr	r3, r3, #1
 1361 001a 84F83030 		strb	r3, [r4, #48]
 111:Lib/lvgl/src/widgets/checkbox/lv_checkbox.c ****     lv_obj_invalidate(obj);
 1362              		.loc 1 111 5 is_stmt 1 view .LVU440
 1363 001e 2046     		mov	r0, r4
 1364 0020 FFF7FEFF 		bl	lv_obj_refresh_self_size
 1365              	.LVL164:
 112:Lib/lvgl/src/widgets/checkbox/lv_checkbox.c **** }
 1366              		.loc 1 112 5 view .LVU441
 1367 0024 2046     		mov	r0, r4
 1368 0026 FFF7FEFF 		bl	lv_obj_invalidate
 1369              	.LVL165:
 113:Lib/lvgl/src/widgets/checkbox/lv_checkbox.c **** 
 1370              		.loc 1 113 1 is_stmt 0 view .LVU442
 1371 002a 38BD     		pop	{r3, r4, r5, pc}
 1372              	.LVL166:
 1373              	.L47:
 106:Lib/lvgl/src/widgets/checkbox/lv_checkbox.c **** 
 1374              		.loc 1 106 25 is_stmt 1 discriminator 1 view .LVU443
 1375 002c C06A     		ldr	r0, [r0, #44]
 1376              	.LVL167:
 106:Lib/lvgl/src/widgets/checkbox/lv_checkbox.c **** 
 1377              		.loc 1 106 25 is_stmt 0 discriminator 1 view .LVU444
 1378 002e FFF7FEFF 		bl	lv_free
 1379              	.LVL168:
 106:Lib/lvgl/src/widgets/checkbox/lv_checkbox.c **** 
 1380              		.loc 1 106 25 discriminator 1 view .LVU445
 1381 0032 EDE7     		b	.L45
ARM GAS  C:\Users\Alex\AppData\Local\Temp\ccFfvF9D.s 			page 52


 1382              		.cfi_endproc
 1383              	.LFE235:
 1385              		.section	.text.lv_checkbox_get_text,"ax",%progbits
 1386              		.align	1
 1387              		.global	lv_checkbox_get_text
 1388              		.syntax unified
 1389              		.thumb
 1390              		.thumb_func
 1392              	lv_checkbox_get_text:
 1393              	.LVL169:
 1394              	.LFB236:
 120:Lib/lvgl/src/widgets/checkbox/lv_checkbox.c ****     lv_checkbox_t * cb = (lv_checkbox_t *)obj;
 1395              		.loc 1 120 1 is_stmt 1 view -0
 1396              		.cfi_startproc
 1397              		@ args = 0, pretend = 0, frame = 0
 1398              		@ frame_needed = 0, uses_anonymous_args = 0
 1399              		@ link register save eliminated.
 121:Lib/lvgl/src/widgets/checkbox/lv_checkbox.c ****     return cb->txt;
 1400              		.loc 1 121 5 view .LVU447
 122:Lib/lvgl/src/widgets/checkbox/lv_checkbox.c **** }
 1401              		.loc 1 122 5 view .LVU448
 123:Lib/lvgl/src/widgets/checkbox/lv_checkbox.c **** 
 1402              		.loc 1 123 1 is_stmt 0 view .LVU449
 1403 0000 C06A     		ldr	r0, [r0, #44]
 1404              	.LVL170:
 123:Lib/lvgl/src/widgets/checkbox/lv_checkbox.c **** 
 1405              		.loc 1 123 1 view .LVU450
 1406 0002 7047     		bx	lr
 1407              		.cfi_endproc
 1408              	.LFE236:
 1410              		.global	lv_checkbox_class
 1411              		.section	.rodata.str1.4,"aMS",%progbits,1
 1412              		.align	2
 1413              	.LC1:
 1414 0000 63686563 		.ascii	"checkbox\000"
 1414      6B626F78 
 1414      00
 1415              		.section	.rodata.lv_checkbox_class,"a"
 1416              		.align	2
 1419              	lv_checkbox_class:
 1420 0000 00000000 		.word	lv_obj_class
 1421 0004 00000000 		.word	lv_checkbox_constructor
 1422 0008 00000000 		.word	lv_checkbox_destructor
 1423 000c 00000000 		.word	lv_checkbox_event
 1424 0010 00000000 		.space	4
 1425 0014 00000000 		.word	.LC1
 1426 0018 D1070020 		.word	536872913
 1427 001c D1070020 		.word	536872913
 1428 0020 44       		.byte	68
 1429 0021 03       		.byte	3
 1430 0022 00       		.byte	0
 1431 0023 00       		.space	1
 1432              		.text
 1433              	.Letext0:
 1434              		.file 5 "e:\\programms\\gnu_mcu_eclipse\\toolchain\\arm-gnu-toolchain-12.2.mpacbti-bet1-mingw-w64-
 1435              		.file 6 "e:\\programms\\gnu_mcu_eclipse\\toolchain\\arm-gnu-toolchain-12.2.mpacbti-bet1-mingw-w64-
 1436              		.file 7 "e:\\programms\\gnu_mcu_eclipse\\toolchain\\arm-gnu-toolchain-12.2.mpacbti-bet1-mingw-w64-
ARM GAS  C:\Users\Alex\AppData\Local\Temp\ccFfvF9D.s 			page 53


 1437              		.file 8 "Lib/lvgl/src/widgets/checkbox/../../core/../misc/lv_types.h"
 1438              		.file 9 "Lib/lvgl/src/widgets/checkbox/../../core/lv_obj.h"
 1439              		.file 10 "Lib/lvgl/src/widgets/checkbox/../../core/lv_obj_class.h"
 1440              		.file 11 "Lib/lvgl/src/widgets/checkbox/../../core/../indev/../core/lv_group.h"
 1441              		.file 12 "Lib/lvgl/src/widgets/checkbox/../../core/../display/../draw/lv_draw.h"
 1442              		.file 13 "Lib/lvgl/src/widgets/checkbox/../../core/../display/../misc/lv_event.h"
 1443              		.file 14 "c:\\users\\alex\\eclipse-workspace\\lvgs_test\\lib\\lvgl\\src\\misc\\lv_color.h"
 1444              		.file 15 "c:\\users\\alex\\eclipse-workspace\\lvgs_test\\lib\\lvgl\\src\\draw\\lv_image_buf.h"
 1445              		.file 16 "c:\\users\\alex\\eclipse-workspace\\lvgs_test\\lib\\lvgl\\src\\draw\\lv_draw_buf.h"
 1446              		.file 17 "c:\\users\\alex\\eclipse-workspace\\lvgs_test\\lib\\lvgl\\src\\misc\\cache\\lv_cache_pri
 1447              		.file 18 "Lib/lvgl/src/widgets/checkbox/../../core/../misc/lv_ll.h"
 1448              		.file 19 "Lib/lvgl/src/widgets/checkbox/../../core/../misc/lv_text.h"
 1449              		.file 20 "Lib/lvgl/src/widgets/checkbox/../../core/../misc/lv_bidi.h"
 1450              		.file 21 "Lib/lvgl/src/widgets/checkbox/../../core/../misc/lv_style.h"
 1451              		.file 22 "Lib/lvgl/src/widgets/checkbox/../../core/../display/../misc/lv_array.h"
 1452              		.file 23 "Lib/lvgl/src/widgets/checkbox/../../core/../display/../draw/lv_draw_rect.h"
 1453              		.file 24 "Lib/lvgl/src/widgets/checkbox/../../core/../display/../draw/lv_draw_label.h"
 1454              		.file 25 "Lib/lvgl/src/widgets/checkbox/../../core/lv_obj_style.h"
 1455              		.file 26 "Lib/lvgl/src/widgets/checkbox/lv_checkbox.h"
 1456              		.file 27 "Lib/lvgl/src/widgets/checkbox/../../core/lv_obj_pos.h"
 1457              		.file 28 "c:\\users\\alex\\eclipse-workspace\\lvgs_test\\lib\\lvgl\\src\\stdlib\\lv_string.h"
 1458              		.file 29 "c:\\users\\alex\\eclipse-workspace\\lvgs_test\\lib\\lvgl\\src\\stdlib\\lv_mem.h"
 1459              		.file 30 "Lib/lvgl/src/widgets/checkbox/../../core/lv_obj_draw.h"
 1460              		.file 31 "Lib/lvgl/src/widgets/checkbox/../../core/lv_obj_event.h"
ARM GAS  C:\Users\Alex\AppData\Local\Temp\ccFfvF9D.s 			page 54

