ARM GAS  C:\Users\Alex\AppData\Local\Temp\cc4QTzSE.s 			page 1


   1              		.cpu cortex-m4
   2              		.arch armv7e-m
   3              		.fpu fpv4-sp-d16
   4              		.eabi_attribute 27, 1
   5              		.eabi_attribute 28, 1
   6              		.eabi_attribute 20, 1
   7              		.eabi_attribute 21, 1
   8              		.eabi_attribute 23, 3
   9              		.eabi_attribute 24, 1
  10              		.eabi_attribute 25, 1
  11              		.eabi_attribute 26, 1
  12              		.eabi_attribute 30, 1
  13              		.eabi_attribute 34, 1
  14              		.eabi_attribute 18, 4
  15              		.file	"lv_calendar_header_dropdown.c"
  16              		.text
  17              	.Ltext0:
  18              		.cfi_sections	.debug_frame
  19              		.file 1 "Lib/lvgl/src/widgets/calendar/lv_calendar_header_dropdown.c"
  20              		.section	.rodata.my_constructor.str1.4,"aMS",%progbits,1
  21              		.align	2
  22              	.LC0:
  23 0000 32303235 		.ascii	"2025\0122024\0122023\0122022\0122021\0122020\012201"
  23      0A323032 
  23      340A3230 
  23      32330A32 
  23      3032320A 
  24 0021 390A3230 		.ascii	"9\0122018\0122017\0122016\0122015\0122014\0122013\012"
  24      31380A32 
  24      3031370A 
  24      32303136 
  24      0A323031 
  25 0041 32303132 		.ascii	"2012\0122011\0122010\0122009\0122008\0122007\012200"
  25      0A323031 
  25      310A3230 
  25      31300A32 
  25      3030390A 
  26 0062 360A3230 		.ascii	"6\0122005\0122004\0122003\0122002\0122001\0122000\012"
  26      30350A32 
  26      3030340A 
  26      32303033 
  26      0A323030 
  27 0082 31393939 		.ascii	"1999\0121998\0121997\0121996\0121995\0121994\012199"
  27      0A313939 
  27      380A3139 
  27      39370A31 
  27      3939360A 
  28 00a3 330A3139 		.ascii	"3\0121992\0121991\0121990\0121989\0121988\0121987\012"
  28      39320A31 
  28      3939310A 
  28      31393930 
  28      0A313938 
  29 00c3 31393836 		.ascii	"1986\0121985\0121984\0121983\0121982\0121981\012198"
  29      0A313938 
  29      350A3139 
  29      38340A31 
  29      3938330A 
ARM GAS  C:\Users\Alex\AppData\Local\Temp\cc4QTzSE.s 			page 2


  30 00e4 300A3139 		.ascii	"0\0121979\0121978\0121977\0121976\0121975\0121974\012"
  30      37390A31 
  30      3937380A 
  30      31393737 
  30      0A313937 
  31 0104 31393733 		.ascii	"1973\0121972\0121971\0121970\0121969\0121968\012196"
  31      0A313937 
  31      320A3139 
  31      37310A31 
  31      3937300A 
  32 0125 370A3139 		.ascii	"7\0121966\0121965\0121964\0121963\0121962\0121961\012"
  32      36360A31 
  32      3936350A 
  32      31393634 
  32      0A313936 
  33 0145 31393630 		.ascii	"1960\0121959\0121958\0121957\0121956\0121955\012195"
  33      0A313935 
  33      390A3139 
  33      35380A31 
  33      3935370A 
  34 0166 340A3139 		.ascii	"4\0121953\0121952\0121951\0121950\0121949\0121948\012"
  34      35330A31 
  34      3935320A 
  34      31393531 
  34      0A313935 
  35 0186 31393437 		.ascii	"1947\0121946\0121945\0121944\0121943\0121942\012194"
  35      0A313934 
  35      360A3139 
  35      34350A31 
  35      3934340A 
  36 01a7 310A3139 		.ascii	"1\0121940\0121939\0121938\0121937\0121936\0121935\012"
  36      34300A31 
  36      3933390A 
  36      31393338 
  36      0A313933 
  37 01c7 31393334 		.ascii	"1934\0121933\0121932\0121931\0121930\0121929\012192"
  37      0A313933 
  37      330A3139 
  37      33320A31 
  37      3933310A 
  38 01e8 380A3139 		.ascii	"8\0121927\0121926\0121925\0121924\0121923\0121922\012"
  38      32370A31 
  38      3932360A 
  38      31393235 
  38      0A313932 
  39 0208 31393231 		.ascii	"1921\0121920\0121919\0121918\0121917\0121916\012191"
  39      0A313932 
  39      300A3139 
  39      31390A31 
  39      3931380A 
  40 0229 350A3139 		.ascii	"5\0121914\0121913\0121912\0121911\0121910\0121909\012"
  40      31340A31 
  40      3931330A 
  40      31393132 
  40      0A313931 
  41 0249 31393038 		.ascii	"1908\0121907\0121906\0121905\0121904\0121903\012190"
  41      0A313930 
ARM GAS  C:\Users\Alex\AppData\Local\Temp\cc4QTzSE.s 			page 3


  41      370A3139 
  41      30360A31 
  41      3930350A 
  42 026a 320A3139 		.ascii	"2\0121901\000"
  42      303100
  43 0271 000000   		.align	2
  44              	.LC1:
  45 0274 30310A30 		.ascii	"01\01202\01203\01204\01205\01206\01207\01208\01209\012"
  45      320A3033 
  45      0A30340A 
  45      30350A30 
  45      360A3037 
  46 028f 31300A31 		.ascii	"10\01211\01212\000"
  46      310A3132 
  46      00
  47              		.section	.text.my_constructor,"ax",%progbits
  48              		.align	1
  49              		.syntax unified
  50              		.thumb
  51              		.thumb_func
  53              	my_constructor:
  54              	.LVL0:
  55              	.LFB235:
   1:Lib/lvgl/src/widgets/calendar/lv_calendar_header_dropdown.c **** /**
   2:Lib/lvgl/src/widgets/calendar/lv_calendar_header_dropdown.c ****  * @file lv_calendar_obj_dropdown.c
   3:Lib/lvgl/src/widgets/calendar/lv_calendar_header_dropdown.c ****  *
   4:Lib/lvgl/src/widgets/calendar/lv_calendar_header_dropdown.c ****  */
   5:Lib/lvgl/src/widgets/calendar/lv_calendar_header_dropdown.c **** 
   6:Lib/lvgl/src/widgets/calendar/lv_calendar_header_dropdown.c **** /*********************
   7:Lib/lvgl/src/widgets/calendar/lv_calendar_header_dropdown.c ****  *      INCLUDES
   8:Lib/lvgl/src/widgets/calendar/lv_calendar_header_dropdown.c ****  *********************/
   9:Lib/lvgl/src/widgets/calendar/lv_calendar_header_dropdown.c **** #include "lv_calendar_header_dropdown.h"
  10:Lib/lvgl/src/widgets/calendar/lv_calendar_header_dropdown.c **** #if LV_USE_CALENDAR && LV_USE_CALENDAR_HEADER_DROPDOWN
  11:Lib/lvgl/src/widgets/calendar/lv_calendar_header_dropdown.c **** 
  12:Lib/lvgl/src/widgets/calendar/lv_calendar_header_dropdown.c **** #include "lv_calendar.h"
  13:Lib/lvgl/src/widgets/calendar/lv_calendar_header_dropdown.c **** #include "../dropdown/lv_dropdown.h"
  14:Lib/lvgl/src/widgets/calendar/lv_calendar_header_dropdown.c **** #include "../../layouts/flex/lv_flex.h"
  15:Lib/lvgl/src/widgets/calendar/lv_calendar_header_dropdown.c **** 
  16:Lib/lvgl/src/widgets/calendar/lv_calendar_header_dropdown.c **** /*********************
  17:Lib/lvgl/src/widgets/calendar/lv_calendar_header_dropdown.c ****  *      DEFINES
  18:Lib/lvgl/src/widgets/calendar/lv_calendar_header_dropdown.c ****  *********************/
  19:Lib/lvgl/src/widgets/calendar/lv_calendar_header_dropdown.c **** 
  20:Lib/lvgl/src/widgets/calendar/lv_calendar_header_dropdown.c **** /**********************
  21:Lib/lvgl/src/widgets/calendar/lv_calendar_header_dropdown.c ****  *      TYPEDEFS
  22:Lib/lvgl/src/widgets/calendar/lv_calendar_header_dropdown.c ****  **********************/
  23:Lib/lvgl/src/widgets/calendar/lv_calendar_header_dropdown.c **** 
  24:Lib/lvgl/src/widgets/calendar/lv_calendar_header_dropdown.c **** /**********************
  25:Lib/lvgl/src/widgets/calendar/lv_calendar_header_dropdown.c ****  *  STATIC PROTOTYPES
  26:Lib/lvgl/src/widgets/calendar/lv_calendar_header_dropdown.c ****  **********************/
  27:Lib/lvgl/src/widgets/calendar/lv_calendar_header_dropdown.c **** static void my_constructor(const lv_obj_class_t * class_p, lv_obj_t * obj);
  28:Lib/lvgl/src/widgets/calendar/lv_calendar_header_dropdown.c **** static void year_event_cb(lv_event_t * e);
  29:Lib/lvgl/src/widgets/calendar/lv_calendar_header_dropdown.c **** static void month_event_cb(lv_event_t * e);
  30:Lib/lvgl/src/widgets/calendar/lv_calendar_header_dropdown.c **** static void value_changed_event_cb(lv_event_t * e);
  31:Lib/lvgl/src/widgets/calendar/lv_calendar_header_dropdown.c **** 
  32:Lib/lvgl/src/widgets/calendar/lv_calendar_header_dropdown.c **** /**********************
  33:Lib/lvgl/src/widgets/calendar/lv_calendar_header_dropdown.c ****  *  STATIC VARIABLES
  34:Lib/lvgl/src/widgets/calendar/lv_calendar_header_dropdown.c ****  **********************/
ARM GAS  C:\Users\Alex\AppData\Local\Temp\cc4QTzSE.s 			page 4


  35:Lib/lvgl/src/widgets/calendar/lv_calendar_header_dropdown.c **** 
  36:Lib/lvgl/src/widgets/calendar/lv_calendar_header_dropdown.c **** const lv_obj_class_t lv_calendar_header_dropdown_class = {
  37:Lib/lvgl/src/widgets/calendar/lv_calendar_header_dropdown.c ****     .base_class = &lv_obj_class,
  38:Lib/lvgl/src/widgets/calendar/lv_calendar_header_dropdown.c ****     .width_def = LV_PCT(100),
  39:Lib/lvgl/src/widgets/calendar/lv_calendar_header_dropdown.c ****     .height_def = LV_SIZE_CONTENT,
  40:Lib/lvgl/src/widgets/calendar/lv_calendar_header_dropdown.c ****     .constructor_cb = my_constructor,
  41:Lib/lvgl/src/widgets/calendar/lv_calendar_header_dropdown.c ****     .name = "calendar-header-dropdown",
  42:Lib/lvgl/src/widgets/calendar/lv_calendar_header_dropdown.c **** };
  43:Lib/lvgl/src/widgets/calendar/lv_calendar_header_dropdown.c **** 
  44:Lib/lvgl/src/widgets/calendar/lv_calendar_header_dropdown.c **** static const char * month_list = "01\n02\n03\n04\n05\n06\n07\n08\n09\n10\n11\n12";
  45:Lib/lvgl/src/widgets/calendar/lv_calendar_header_dropdown.c **** static const char * year_list = {
  46:Lib/lvgl/src/widgets/calendar/lv_calendar_header_dropdown.c ****     "2025\n2024\n2023\n2022\n2021\n"
  47:Lib/lvgl/src/widgets/calendar/lv_calendar_header_dropdown.c ****     "2020\n2019\n2018\n2017\n2016\n2015\n2014\n2013\n2012\n2011\n2010\n2009\n2008\n2007\n2006\n2005
  48:Lib/lvgl/src/widgets/calendar/lv_calendar_header_dropdown.c ****     "2000\n1999\n1998\n1997\n1996\n1995\n1994\n1993\n1992\n1991\n1990\n1989\n1988\n1987\n1986\n1985
  49:Lib/lvgl/src/widgets/calendar/lv_calendar_header_dropdown.c ****     "1980\n1979\n1978\n1977\n1976\n1975\n1974\n1973\n1972\n1971\n1970\n1969\n1968\n1967\n1966\n1965
  50:Lib/lvgl/src/widgets/calendar/lv_calendar_header_dropdown.c ****     "1960\n1959\n1958\n1957\n1956\n1955\n1954\n1953\n1952\n1951\n1950\n1949\n1948\n1947\n1946\n1945
  51:Lib/lvgl/src/widgets/calendar/lv_calendar_header_dropdown.c ****     "1940\n1939\n1938\n1937\n1936\n1935\n1934\n1933\n1932\n1931\n1930\n1929\n1928\n1927\n1926\n1925
  52:Lib/lvgl/src/widgets/calendar/lv_calendar_header_dropdown.c ****     "1920\n1919\n1918\n1917\n1916\n1915\n1914\n1913\n1912\n1911\n1910\n1909\n1908\n1907\n1906\n1905
  53:Lib/lvgl/src/widgets/calendar/lv_calendar_header_dropdown.c **** };
  54:Lib/lvgl/src/widgets/calendar/lv_calendar_header_dropdown.c **** 
  55:Lib/lvgl/src/widgets/calendar/lv_calendar_header_dropdown.c **** /**********************
  56:Lib/lvgl/src/widgets/calendar/lv_calendar_header_dropdown.c ****  *      MACROS
  57:Lib/lvgl/src/widgets/calendar/lv_calendar_header_dropdown.c ****  **********************/
  58:Lib/lvgl/src/widgets/calendar/lv_calendar_header_dropdown.c **** 
  59:Lib/lvgl/src/widgets/calendar/lv_calendar_header_dropdown.c **** /**********************
  60:Lib/lvgl/src/widgets/calendar/lv_calendar_header_dropdown.c ****  *   GLOBAL FUNCTIONS
  61:Lib/lvgl/src/widgets/calendar/lv_calendar_header_dropdown.c ****  **********************/
  62:Lib/lvgl/src/widgets/calendar/lv_calendar_header_dropdown.c **** 
  63:Lib/lvgl/src/widgets/calendar/lv_calendar_header_dropdown.c **** lv_obj_t * lv_calendar_header_dropdown_create(lv_obj_t * parent)
  64:Lib/lvgl/src/widgets/calendar/lv_calendar_header_dropdown.c **** {
  65:Lib/lvgl/src/widgets/calendar/lv_calendar_header_dropdown.c ****     lv_obj_t * obj = lv_obj_class_create_obj(&lv_calendar_header_dropdown_class, parent);
  66:Lib/lvgl/src/widgets/calendar/lv_calendar_header_dropdown.c ****     lv_obj_class_init_obj(obj);
  67:Lib/lvgl/src/widgets/calendar/lv_calendar_header_dropdown.c **** 
  68:Lib/lvgl/src/widgets/calendar/lv_calendar_header_dropdown.c ****     return obj;
  69:Lib/lvgl/src/widgets/calendar/lv_calendar_header_dropdown.c **** }
  70:Lib/lvgl/src/widgets/calendar/lv_calendar_header_dropdown.c **** 
  71:Lib/lvgl/src/widgets/calendar/lv_calendar_header_dropdown.c **** void lv_calendar_header_dropdown_set_year_list(lv_obj_t * parent, const char * years_list)
  72:Lib/lvgl/src/widgets/calendar/lv_calendar_header_dropdown.c **** {
  73:Lib/lvgl/src/widgets/calendar/lv_calendar_header_dropdown.c ****     /* Search for the header dropdown */
  74:Lib/lvgl/src/widgets/calendar/lv_calendar_header_dropdown.c ****     lv_obj_t * header = lv_obj_get_child_by_type(parent, 0, &lv_calendar_header_dropdown_class);
  75:Lib/lvgl/src/widgets/calendar/lv_calendar_header_dropdown.c ****     if(NULL == header) {
  76:Lib/lvgl/src/widgets/calendar/lv_calendar_header_dropdown.c ****         /* Header not found */
  77:Lib/lvgl/src/widgets/calendar/lv_calendar_header_dropdown.c ****         return;
  78:Lib/lvgl/src/widgets/calendar/lv_calendar_header_dropdown.c ****     }
  79:Lib/lvgl/src/widgets/calendar/lv_calendar_header_dropdown.c **** 
  80:Lib/lvgl/src/widgets/calendar/lv_calendar_header_dropdown.c ****     /* Search for the year dropdown
  81:Lib/lvgl/src/widgets/calendar/lv_calendar_header_dropdown.c ****      * Index is 0 because in the header dropdown constructor the year dropdpwn (year_dd)
  82:Lib/lvgl/src/widgets/calendar/lv_calendar_header_dropdown.c ****      * is the first created child of the header */
  83:Lib/lvgl/src/widgets/calendar/lv_calendar_header_dropdown.c ****     const int32_t year_dropdown_index = 0;
  84:Lib/lvgl/src/widgets/calendar/lv_calendar_header_dropdown.c ****     lv_obj_t * year_dropdown = lv_obj_get_child_by_type(header, year_dropdown_index, &lv_dropdown_c
  85:Lib/lvgl/src/widgets/calendar/lv_calendar_header_dropdown.c ****     if(NULL == year_dropdown) {
  86:Lib/lvgl/src/widgets/calendar/lv_calendar_header_dropdown.c ****         /* year dropdpwn not found */
  87:Lib/lvgl/src/widgets/calendar/lv_calendar_header_dropdown.c ****         return;
  88:Lib/lvgl/src/widgets/calendar/lv_calendar_header_dropdown.c ****     }
  89:Lib/lvgl/src/widgets/calendar/lv_calendar_header_dropdown.c **** 
  90:Lib/lvgl/src/widgets/calendar/lv_calendar_header_dropdown.c ****     lv_dropdown_clear_options(year_dropdown);
  91:Lib/lvgl/src/widgets/calendar/lv_calendar_header_dropdown.c ****     lv_dropdown_set_options(year_dropdown, years_list);
ARM GAS  C:\Users\Alex\AppData\Local\Temp\cc4QTzSE.s 			page 5


  92:Lib/lvgl/src/widgets/calendar/lv_calendar_header_dropdown.c **** 
  93:Lib/lvgl/src/widgets/calendar/lv_calendar_header_dropdown.c ****     lv_obj_invalidate(parent);
  94:Lib/lvgl/src/widgets/calendar/lv_calendar_header_dropdown.c **** }
  95:Lib/lvgl/src/widgets/calendar/lv_calendar_header_dropdown.c **** 
  96:Lib/lvgl/src/widgets/calendar/lv_calendar_header_dropdown.c **** /**********************
  97:Lib/lvgl/src/widgets/calendar/lv_calendar_header_dropdown.c ****  *  STATIC FUNCTIONS
  98:Lib/lvgl/src/widgets/calendar/lv_calendar_header_dropdown.c ****  **********************/
  99:Lib/lvgl/src/widgets/calendar/lv_calendar_header_dropdown.c **** 
 100:Lib/lvgl/src/widgets/calendar/lv_calendar_header_dropdown.c **** static void my_constructor(const lv_obj_class_t * class_p, lv_obj_t * obj)
 101:Lib/lvgl/src/widgets/calendar/lv_calendar_header_dropdown.c **** {
  56              		.loc 1 101 1 view -0
  57              		.cfi_startproc
  58              		@ args = 0, pretend = 0, frame = 0
  59              		@ frame_needed = 0, uses_anonymous_args = 0
  60              		.loc 1 101 1 is_stmt 0 view .LVU1
  61 0000 70B5     		push	{r4, r5, r6, lr}
  62              	.LCFI0:
  63              		.cfi_def_cfa_offset 16
  64              		.cfi_offset 4, -16
  65              		.cfi_offset 5, -12
  66              		.cfi_offset 6, -8
  67              		.cfi_offset 14, -4
  68 0002 0C46     		mov	r4, r1
 102:Lib/lvgl/src/widgets/calendar/lv_calendar_header_dropdown.c ****     LV_TRACE_OBJ_CREATE("begin");
  69              		.loc 1 102 33 is_stmt 1 view .LVU2
 103:Lib/lvgl/src/widgets/calendar/lv_calendar_header_dropdown.c **** 
 104:Lib/lvgl/src/widgets/calendar/lv_calendar_header_dropdown.c ****     LV_UNUSED(class_p);
  70              		.loc 1 104 5 view .LVU3
 105:Lib/lvgl/src/widgets/calendar/lv_calendar_header_dropdown.c **** 
 106:Lib/lvgl/src/widgets/calendar/lv_calendar_header_dropdown.c ****     lv_obj_t * calendar = lv_obj_get_parent(obj);
  71              		.loc 1 106 5 view .LVU4
  72              		.loc 1 106 27 is_stmt 0 view .LVU5
  73 0004 0846     		mov	r0, r1
  74              	.LVL1:
  75              		.loc 1 106 27 view .LVU6
  76 0006 FFF7FEFF 		bl	lv_obj_get_parent
  77              	.LVL2:
  78              		.loc 1 106 27 view .LVU7
  79 000a 0646     		mov	r6, r0
  80              	.LVL3:
 107:Lib/lvgl/src/widgets/calendar/lv_calendar_header_dropdown.c ****     lv_obj_move_to_index(obj, 0);
  81              		.loc 1 107 5 is_stmt 1 view .LVU8
  82 000c 0021     		movs	r1, #0
  83 000e 2046     		mov	r0, r4
  84              	.LVL4:
  85              		.loc 1 107 5 is_stmt 0 view .LVU9
  86 0010 FFF7FEFF 		bl	lv_obj_move_to_index
  87              	.LVL5:
 108:Lib/lvgl/src/widgets/calendar/lv_calendar_header_dropdown.c ****     lv_obj_set_flex_flow(obj, LV_FLEX_FLOW_ROW);
  88              		.loc 1 108 5 is_stmt 1 view .LVU10
  89 0014 0021     		movs	r1, #0
  90 0016 2046     		mov	r0, r4
  91 0018 FFF7FEFF 		bl	lv_obj_set_flex_flow
  92              	.LVL6:
 109:Lib/lvgl/src/widgets/calendar/lv_calendar_header_dropdown.c **** 
 110:Lib/lvgl/src/widgets/calendar/lv_calendar_header_dropdown.c ****     lv_obj_t * year_dd = lv_dropdown_create(obj);
  93              		.loc 1 110 5 view .LVU11
ARM GAS  C:\Users\Alex\AppData\Local\Temp\cc4QTzSE.s 			page 6


  94              		.loc 1 110 26 is_stmt 0 view .LVU12
  95 001c 2046     		mov	r0, r4
  96 001e FFF7FEFF 		bl	lv_dropdown_create
  97              	.LVL7:
  98 0022 0546     		mov	r5, r0
  99              	.LVL8:
 111:Lib/lvgl/src/widgets/calendar/lv_calendar_header_dropdown.c ****     lv_dropdown_set_options(year_dd, year_list);
 100              		.loc 1 111 5 is_stmt 1 view .LVU13
 101 0024 1449     		ldr	r1, .L3
 102 0026 FFF7FEFF 		bl	lv_dropdown_set_options
 103              	.LVL9:
 112:Lib/lvgl/src/widgets/calendar/lv_calendar_header_dropdown.c ****     lv_obj_add_event_cb(year_dd, year_event_cb, LV_EVENT_VALUE_CHANGED, calendar);
 104              		.loc 1 112 5 view .LVU14
 105 002a 3346     		mov	r3, r6
 106 002c 1D22     		movs	r2, #29
 107 002e 1349     		ldr	r1, .L3+4
 108 0030 2846     		mov	r0, r5
 109 0032 FFF7FEFF 		bl	lv_obj_add_event_cb
 110              	.LVL10:
 113:Lib/lvgl/src/widgets/calendar/lv_calendar_header_dropdown.c ****     lv_obj_set_flex_grow(year_dd, 1);
 111              		.loc 1 113 5 view .LVU15
 112 0036 0121     		movs	r1, #1
 113 0038 2846     		mov	r0, r5
 114 003a FFF7FEFF 		bl	lv_obj_set_flex_grow
 115              	.LVL11:
 114:Lib/lvgl/src/widgets/calendar/lv_calendar_header_dropdown.c **** 
 115:Lib/lvgl/src/widgets/calendar/lv_calendar_header_dropdown.c ****     lv_obj_t * month_dd = lv_dropdown_create(obj);
 116              		.loc 1 115 5 view .LVU16
 117              		.loc 1 115 27 is_stmt 0 view .LVU17
 118 003e 2046     		mov	r0, r4
 119 0040 FFF7FEFF 		bl	lv_dropdown_create
 120              	.LVL12:
 121 0044 0546     		mov	r5, r0
 122              	.LVL13:
 116:Lib/lvgl/src/widgets/calendar/lv_calendar_header_dropdown.c ****     lv_dropdown_set_options(month_dd, month_list);
 123              		.loc 1 116 5 is_stmt 1 view .LVU18
 124 0046 0E49     		ldr	r1, .L3+8
 125 0048 FFF7FEFF 		bl	lv_dropdown_set_options
 126              	.LVL14:
 117:Lib/lvgl/src/widgets/calendar/lv_calendar_header_dropdown.c ****     lv_obj_add_event_cb(month_dd, month_event_cb, LV_EVENT_VALUE_CHANGED, calendar);
 127              		.loc 1 117 5 view .LVU19
 128 004c 3346     		mov	r3, r6
 129 004e 1D22     		movs	r2, #29
 130 0050 0C49     		ldr	r1, .L3+12
 131 0052 2846     		mov	r0, r5
 132 0054 FFF7FEFF 		bl	lv_obj_add_event_cb
 133              	.LVL15:
 118:Lib/lvgl/src/widgets/calendar/lv_calendar_header_dropdown.c ****     lv_obj_set_flex_grow(month_dd, 1);
 134              		.loc 1 118 5 view .LVU20
 135 0058 0121     		movs	r1, #1
 136 005a 2846     		mov	r0, r5
 137 005c FFF7FEFF 		bl	lv_obj_set_flex_grow
 138              	.LVL16:
 119:Lib/lvgl/src/widgets/calendar/lv_calendar_header_dropdown.c **** 
 120:Lib/lvgl/src/widgets/calendar/lv_calendar_header_dropdown.c ****     lv_obj_add_event_cb(obj, value_changed_event_cb, LV_EVENT_VALUE_CHANGED, NULL);
 139              		.loc 1 120 5 view .LVU21
 140 0060 0023     		movs	r3, #0
ARM GAS  C:\Users\Alex\AppData\Local\Temp\cc4QTzSE.s 			page 7


 141 0062 1D22     		movs	r2, #29
 142 0064 0849     		ldr	r1, .L3+16
 143 0066 2046     		mov	r0, r4
 144 0068 FFF7FEFF 		bl	lv_obj_add_event_cb
 145              	.LVL17:
 121:Lib/lvgl/src/widgets/calendar/lv_calendar_header_dropdown.c ****     /*Refresh the drop downs*/
 122:Lib/lvgl/src/widgets/calendar/lv_calendar_header_dropdown.c ****     lv_obj_send_event(obj, LV_EVENT_VALUE_CHANGED, NULL);
 146              		.loc 1 122 5 view .LVU22
 147 006c 0022     		movs	r2, #0
 148 006e 1D21     		movs	r1, #29
 149 0070 2046     		mov	r0, r4
 150 0072 FFF7FEFF 		bl	lv_obj_send_event
 151              	.LVL18:
 123:Lib/lvgl/src/widgets/calendar/lv_calendar_header_dropdown.c **** }
 152              		.loc 1 123 1 is_stmt 0 view .LVU23
 153 0076 70BD     		pop	{r4, r5, r6, pc}
 154              	.LVL19:
 155              	.L4:
 156              		.loc 1 123 1 view .LVU24
 157              		.align	2
 158              	.L3:
 159 0078 00000000 		.word	.LC0
 160 007c 00000000 		.word	year_event_cb
 161 0080 74020000 		.word	.LC1
 162 0084 00000000 		.word	month_event_cb
 163 0088 00000000 		.word	value_changed_event_cb
 164              		.cfi_endproc
 165              	.LFE235:
 167              		.section	.text.value_changed_event_cb,"ax",%progbits
 168              		.align	1
 169              		.syntax unified
 170              		.thumb
 171              		.thumb_func
 173              	value_changed_event_cb:
 174              	.LVL20:
 175              	.LFB238:
 124:Lib/lvgl/src/widgets/calendar/lv_calendar_header_dropdown.c **** 
 125:Lib/lvgl/src/widgets/calendar/lv_calendar_header_dropdown.c **** static void month_event_cb(lv_event_t * e)
 126:Lib/lvgl/src/widgets/calendar/lv_calendar_header_dropdown.c **** {
 127:Lib/lvgl/src/widgets/calendar/lv_calendar_header_dropdown.c ****     lv_obj_t * dropdown = lv_event_get_current_target(e);
 128:Lib/lvgl/src/widgets/calendar/lv_calendar_header_dropdown.c ****     lv_obj_t * calendar = lv_event_get_user_data(e);
 129:Lib/lvgl/src/widgets/calendar/lv_calendar_header_dropdown.c **** 
 130:Lib/lvgl/src/widgets/calendar/lv_calendar_header_dropdown.c ****     uint32_t sel = lv_dropdown_get_selected(dropdown);
 131:Lib/lvgl/src/widgets/calendar/lv_calendar_header_dropdown.c **** 
 132:Lib/lvgl/src/widgets/calendar/lv_calendar_header_dropdown.c ****     const lv_calendar_date_t * d;
 133:Lib/lvgl/src/widgets/calendar/lv_calendar_header_dropdown.c ****     d = lv_calendar_get_showed_date(calendar);
 134:Lib/lvgl/src/widgets/calendar/lv_calendar_header_dropdown.c ****     lv_calendar_date_t newd = *d;
 135:Lib/lvgl/src/widgets/calendar/lv_calendar_header_dropdown.c ****     newd.month = sel + 1;
 136:Lib/lvgl/src/widgets/calendar/lv_calendar_header_dropdown.c **** 
 137:Lib/lvgl/src/widgets/calendar/lv_calendar_header_dropdown.c ****     lv_calendar_set_showed_date(calendar, newd.year, newd.month);
 138:Lib/lvgl/src/widgets/calendar/lv_calendar_header_dropdown.c **** }
 139:Lib/lvgl/src/widgets/calendar/lv_calendar_header_dropdown.c **** 
 140:Lib/lvgl/src/widgets/calendar/lv_calendar_header_dropdown.c **** static void year_event_cb(lv_event_t * e)
 141:Lib/lvgl/src/widgets/calendar/lv_calendar_header_dropdown.c **** {
 142:Lib/lvgl/src/widgets/calendar/lv_calendar_header_dropdown.c ****     lv_obj_t * dropdown = lv_event_get_current_target(e);
 143:Lib/lvgl/src/widgets/calendar/lv_calendar_header_dropdown.c ****     lv_obj_t * calendar = lv_event_get_user_data(e);
 144:Lib/lvgl/src/widgets/calendar/lv_calendar_header_dropdown.c **** 
ARM GAS  C:\Users\Alex\AppData\Local\Temp\cc4QTzSE.s 			page 8


 145:Lib/lvgl/src/widgets/calendar/lv_calendar_header_dropdown.c ****     uint32_t sel = lv_dropdown_get_selected(dropdown);
 146:Lib/lvgl/src/widgets/calendar/lv_calendar_header_dropdown.c **** 
 147:Lib/lvgl/src/widgets/calendar/lv_calendar_header_dropdown.c ****     const lv_calendar_date_t * d;
 148:Lib/lvgl/src/widgets/calendar/lv_calendar_header_dropdown.c ****     d = lv_calendar_get_showed_date(calendar);
 149:Lib/lvgl/src/widgets/calendar/lv_calendar_header_dropdown.c **** 
 150:Lib/lvgl/src/widgets/calendar/lv_calendar_header_dropdown.c ****     /* Get the first year on the options list
 151:Lib/lvgl/src/widgets/calendar/lv_calendar_header_dropdown.c ****      * NOTE: Assumes the first 4 digits in the option list are numbers */
 152:Lib/lvgl/src/widgets/calendar/lv_calendar_header_dropdown.c ****     const char * year_p = lv_dropdown_get_options(dropdown);
 153:Lib/lvgl/src/widgets/calendar/lv_calendar_header_dropdown.c ****     const uint32_t year = (year_p[0] - '0') * 1000 + (year_p[1] - '0') * 100 + (year_p[2] - '0') * 
 154:Lib/lvgl/src/widgets/calendar/lv_calendar_header_dropdown.c ****                           (year_p[3] - '0');
 155:Lib/lvgl/src/widgets/calendar/lv_calendar_header_dropdown.c **** 
 156:Lib/lvgl/src/widgets/calendar/lv_calendar_header_dropdown.c ****     lv_calendar_date_t newd = *d;
 157:Lib/lvgl/src/widgets/calendar/lv_calendar_header_dropdown.c ****     newd.year = year - sel;
 158:Lib/lvgl/src/widgets/calendar/lv_calendar_header_dropdown.c **** 
 159:Lib/lvgl/src/widgets/calendar/lv_calendar_header_dropdown.c ****     lv_calendar_set_showed_date(calendar, newd.year, newd.month);
 160:Lib/lvgl/src/widgets/calendar/lv_calendar_header_dropdown.c **** }
 161:Lib/lvgl/src/widgets/calendar/lv_calendar_header_dropdown.c **** 
 162:Lib/lvgl/src/widgets/calendar/lv_calendar_header_dropdown.c **** static void value_changed_event_cb(lv_event_t * e)
 163:Lib/lvgl/src/widgets/calendar/lv_calendar_header_dropdown.c **** {
 176              		.loc 1 163 1 is_stmt 1 view -0
 177              		.cfi_startproc
 178              		@ args = 0, pretend = 0, frame = 0
 179              		@ frame_needed = 0, uses_anonymous_args = 0
 180              		.loc 1 163 1 is_stmt 0 view .LVU26
 181 0000 70B5     		push	{r4, r5, r6, lr}
 182              	.LCFI1:
 183              		.cfi_def_cfa_offset 16
 184              		.cfi_offset 4, -16
 185              		.cfi_offset 5, -12
 186              		.cfi_offset 6, -8
 187              		.cfi_offset 14, -4
 164:Lib/lvgl/src/widgets/calendar/lv_calendar_header_dropdown.c ****     lv_obj_t * header = lv_event_get_current_target(e);
 188              		.loc 1 164 5 is_stmt 1 view .LVU27
 189              		.loc 1 164 25 is_stmt 0 view .LVU28
 190 0002 FFF7FEFF 		bl	lv_event_get_current_target
 191              	.LVL21:
 192              		.loc 1 164 25 view .LVU29
 193 0006 0546     		mov	r5, r0
 194              	.LVL22:
 165:Lib/lvgl/src/widgets/calendar/lv_calendar_header_dropdown.c ****     lv_obj_t * calendar = lv_obj_get_parent(header);
 195              		.loc 1 165 5 is_stmt 1 view .LVU30
 196              		.loc 1 165 27 is_stmt 0 view .LVU31
 197 0008 FFF7FEFF 		bl	lv_obj_get_parent
 198              	.LVL23:
 166:Lib/lvgl/src/widgets/calendar/lv_calendar_header_dropdown.c ****     const lv_calendar_date_t * cur_date = lv_calendar_get_showed_date(calendar);
 199              		.loc 1 166 5 is_stmt 1 view .LVU32
 200              		.loc 1 166 43 is_stmt 0 view .LVU33
 201 000c FFF7FEFF 		bl	lv_calendar_get_showed_date
 202              	.LVL24:
 203              		.loc 1 166 43 view .LVU34
 204 0010 0446     		mov	r4, r0
 205              	.LVL25:
 167:Lib/lvgl/src/widgets/calendar/lv_calendar_header_dropdown.c **** 
 168:Lib/lvgl/src/widgets/calendar/lv_calendar_header_dropdown.c ****     lv_obj_t * year_dd = lv_obj_get_child(header, 0);
 206              		.loc 1 168 5 is_stmt 1 view .LVU35
 207              		.loc 1 168 26 is_stmt 0 view .LVU36
 208 0012 0021     		movs	r1, #0
ARM GAS  C:\Users\Alex\AppData\Local\Temp\cc4QTzSE.s 			page 9


 209 0014 2846     		mov	r0, r5
 210              	.LVL26:
 211              		.loc 1 168 26 view .LVU37
 212 0016 FFF7FEFF 		bl	lv_obj_get_child
 213              	.LVL27:
 214 001a 0646     		mov	r6, r0
 215              	.LVL28:
 169:Lib/lvgl/src/widgets/calendar/lv_calendar_header_dropdown.c **** 
 170:Lib/lvgl/src/widgets/calendar/lv_calendar_header_dropdown.c ****     /* Get the first year on the options list
 171:Lib/lvgl/src/widgets/calendar/lv_calendar_header_dropdown.c ****      * NOTE: Assumes the first 4 digits in the option list are numbers */
 172:Lib/lvgl/src/widgets/calendar/lv_calendar_header_dropdown.c ****     const char * year_p = lv_dropdown_get_options(year_dd);
 216              		.loc 1 172 5 is_stmt 1 view .LVU38
 217              		.loc 1 172 27 is_stmt 0 view .LVU39
 218 001c FFF7FEFF 		bl	lv_dropdown_get_options
 219              	.LVL29:
 173:Lib/lvgl/src/widgets/calendar/lv_calendar_header_dropdown.c ****     const uint32_t year = (year_p[0] - '0') * 1000 + (year_p[1] - '0') * 100 + (year_p[2] - '0') * 
 220              		.loc 1 173 5 is_stmt 1 view .LVU40
 221              		.loc 1 173 34 is_stmt 0 view .LVU41
 222 0020 0278     		ldrb	r2, [r0]	@ zero_extendqisi2
 223              		.loc 1 173 38 view .LVU42
 224 0022 303A     		subs	r2, r2, #48
 225              		.loc 1 173 61 view .LVU43
 226 0024 4378     		ldrb	r3, [r0, #1]	@ zero_extendqisi2
 227              		.loc 1 173 65 view .LVU44
 228 0026 303B     		subs	r3, r3, #48
 229              		.loc 1 173 72 view .LVU45
 230 0028 6421     		movs	r1, #100
 231 002a 01FB03F3 		mul	r3, r1, r3
 232              		.loc 1 173 52 view .LVU46
 233 002e 4FF47A71 		mov	r1, #1000
 234 0032 01FB0233 		mla	r3, r1, r2, r3
 235              		.loc 1 173 87 view .LVU47
 236 0036 8278     		ldrb	r2, [r0, #2]	@ zero_extendqisi2
 237              		.loc 1 173 91 view .LVU48
 238 0038 303A     		subs	r2, r2, #48
 239              		.loc 1 173 98 view .LVU49
 240 003a 02EB8202 		add	r2, r2, r2, lsl #2
 241              		.loc 1 173 78 view .LVU50
 242 003e 03EB4203 		add	r3, r3, r2, lsl #1
 174:Lib/lvgl/src/widgets/calendar/lv_calendar_header_dropdown.c ****                           (year_p[3] - '0');
 243              		.loc 1 174 34 view .LVU51
 244 0042 C278     		ldrb	r2, [r0, #3]	@ zero_extendqisi2
 245              		.loc 1 174 38 view .LVU52
 246 0044 303A     		subs	r2, r2, #48
 173:Lib/lvgl/src/widgets/calendar/lv_calendar_header_dropdown.c ****     const uint32_t year = (year_p[0] - '0') * 1000 + (year_p[1] - '0') * 100 + (year_p[2] - '0') * 
 247              		.loc 1 173 103 view .LVU53
 248 0046 1344     		add	r3, r3, r2
 249              	.LVL30:
 175:Lib/lvgl/src/widgets/calendar/lv_calendar_header_dropdown.c **** 
 176:Lib/lvgl/src/widgets/calendar/lv_calendar_header_dropdown.c ****     lv_dropdown_set_selected(year_dd, year - cur_date->year);
 250              		.loc 1 176 5 is_stmt 1 view .LVU54
 251              		.loc 1 176 54 is_stmt 0 view .LVU55
 252 0048 2188     		ldrh	r1, [r4]
 253              		.loc 1 176 5 view .LVU56
 254 004a 591A     		subs	r1, r3, r1
 255 004c 3046     		mov	r0, r6
 256              	.LVL31:
ARM GAS  C:\Users\Alex\AppData\Local\Temp\cc4QTzSE.s 			page 10


 257              		.loc 1 176 5 view .LVU57
 258 004e FFF7FEFF 		bl	lv_dropdown_set_selected
 259              	.LVL32:
 177:Lib/lvgl/src/widgets/calendar/lv_calendar_header_dropdown.c **** 
 178:Lib/lvgl/src/widgets/calendar/lv_calendar_header_dropdown.c ****     lv_obj_t * month_dd = lv_obj_get_child(header, 1);
 260              		.loc 1 178 5 is_stmt 1 view .LVU58
 261              		.loc 1 178 27 is_stmt 0 view .LVU59
 262 0052 0121     		movs	r1, #1
 263 0054 2846     		mov	r0, r5
 264 0056 FFF7FEFF 		bl	lv_obj_get_child
 265              	.LVL33:
 179:Lib/lvgl/src/widgets/calendar/lv_calendar_header_dropdown.c ****     lv_dropdown_set_selected(month_dd, cur_date->month - 1);
 266              		.loc 1 179 5 is_stmt 1 view .LVU60
 267              		.loc 1 179 48 is_stmt 0 view .LVU61
 268 005a 94F90210 		ldrsb	r1, [r4, #2]
 269              		.loc 1 179 5 view .LVU62
 270 005e 0139     		subs	r1, r1, #1
 271 0060 FFF7FEFF 		bl	lv_dropdown_set_selected
 272              	.LVL34:
 180:Lib/lvgl/src/widgets/calendar/lv_calendar_header_dropdown.c **** }
 273              		.loc 1 180 1 view .LVU63
 274 0064 70BD     		pop	{r4, r5, r6, pc}
 275              		.loc 1 180 1 view .LVU64
 276              		.cfi_endproc
 277              	.LFE238:
 279              		.section	.text.month_event_cb,"ax",%progbits
 280              		.align	1
 281              		.syntax unified
 282              		.thumb
 283              		.thumb_func
 285              	month_event_cb:
 286              	.LVL35:
 287              	.LFB236:
 126:Lib/lvgl/src/widgets/calendar/lv_calendar_header_dropdown.c ****     lv_obj_t * dropdown = lv_event_get_current_target(e);
 288              		.loc 1 126 1 is_stmt 1 view -0
 289              		.cfi_startproc
 290              		@ args = 0, pretend = 0, frame = 8
 291              		@ frame_needed = 0, uses_anonymous_args = 0
 126:Lib/lvgl/src/widgets/calendar/lv_calendar_header_dropdown.c ****     lv_obj_t * dropdown = lv_event_get_current_target(e);
 292              		.loc 1 126 1 is_stmt 0 view .LVU66
 293 0000 30B5     		push	{r4, r5, lr}
 294              	.LCFI2:
 295              		.cfi_def_cfa_offset 12
 296              		.cfi_offset 4, -12
 297              		.cfi_offset 5, -8
 298              		.cfi_offset 14, -4
 299 0002 83B0     		sub	sp, sp, #12
 300              	.LCFI3:
 301              		.cfi_def_cfa_offset 24
 302 0004 0546     		mov	r5, r0
 127:Lib/lvgl/src/widgets/calendar/lv_calendar_header_dropdown.c ****     lv_obj_t * calendar = lv_event_get_user_data(e);
 303              		.loc 1 127 5 is_stmt 1 view .LVU67
 127:Lib/lvgl/src/widgets/calendar/lv_calendar_header_dropdown.c ****     lv_obj_t * calendar = lv_event_get_user_data(e);
 304              		.loc 1 127 27 is_stmt 0 view .LVU68
 305 0006 FFF7FEFF 		bl	lv_event_get_current_target
 306              	.LVL36:
 127:Lib/lvgl/src/widgets/calendar/lv_calendar_header_dropdown.c ****     lv_obj_t * calendar = lv_event_get_user_data(e);
ARM GAS  C:\Users\Alex\AppData\Local\Temp\cc4QTzSE.s 			page 11


 307              		.loc 1 127 27 view .LVU69
 308 000a 0446     		mov	r4, r0
 309              	.LVL37:
 128:Lib/lvgl/src/widgets/calendar/lv_calendar_header_dropdown.c **** 
 310              		.loc 1 128 5 is_stmt 1 view .LVU70
 128:Lib/lvgl/src/widgets/calendar/lv_calendar_header_dropdown.c **** 
 311              		.loc 1 128 27 is_stmt 0 view .LVU71
 312 000c 2846     		mov	r0, r5
 313              	.LVL38:
 128:Lib/lvgl/src/widgets/calendar/lv_calendar_header_dropdown.c **** 
 314              		.loc 1 128 27 view .LVU72
 315 000e FFF7FEFF 		bl	lv_event_get_user_data
 316              	.LVL39:
 317 0012 0546     		mov	r5, r0
 318              	.LVL40:
 130:Lib/lvgl/src/widgets/calendar/lv_calendar_header_dropdown.c **** 
 319              		.loc 1 130 5 is_stmt 1 view .LVU73
 130:Lib/lvgl/src/widgets/calendar/lv_calendar_header_dropdown.c **** 
 320              		.loc 1 130 20 is_stmt 0 view .LVU74
 321 0014 2046     		mov	r0, r4
 322              	.LVL41:
 130:Lib/lvgl/src/widgets/calendar/lv_calendar_header_dropdown.c **** 
 323              		.loc 1 130 20 view .LVU75
 324 0016 FFF7FEFF 		bl	lv_dropdown_get_selected
 325              	.LVL42:
 326 001a 0446     		mov	r4, r0
 327              	.LVL43:
 132:Lib/lvgl/src/widgets/calendar/lv_calendar_header_dropdown.c ****     d = lv_calendar_get_showed_date(calendar);
 328              		.loc 1 132 5 is_stmt 1 view .LVU76
 133:Lib/lvgl/src/widgets/calendar/lv_calendar_header_dropdown.c ****     lv_calendar_date_t newd = *d;
 329              		.loc 1 133 5 view .LVU77
 133:Lib/lvgl/src/widgets/calendar/lv_calendar_header_dropdown.c ****     lv_calendar_date_t newd = *d;
 330              		.loc 1 133 9 is_stmt 0 view .LVU78
 331 001c 2846     		mov	r0, r5
 332              	.LVL44:
 133:Lib/lvgl/src/widgets/calendar/lv_calendar_header_dropdown.c ****     lv_calendar_date_t newd = *d;
 333              		.loc 1 133 9 view .LVU79
 334 001e FFF7FEFF 		bl	lv_calendar_get_showed_date
 335              	.LVL45:
 134:Lib/lvgl/src/widgets/calendar/lv_calendar_header_dropdown.c ****     newd.month = sel + 1;
 336              		.loc 1 134 5 is_stmt 1 view .LVU80
 134:Lib/lvgl/src/widgets/calendar/lv_calendar_header_dropdown.c ****     newd.month = sel + 1;
 337              		.loc 1 134 24 is_stmt 0 view .LVU81
 338 0022 0068     		ldr	r0, [r0]	@ unaligned
 339              	.LVL46:
 134:Lib/lvgl/src/widgets/calendar/lv_calendar_header_dropdown.c ****     newd.month = sel + 1;
 340              		.loc 1 134 24 view .LVU82
 341 0024 0190     		str	r0, [sp, #4]
 135:Lib/lvgl/src/widgets/calendar/lv_calendar_header_dropdown.c **** 
 342              		.loc 1 135 5 is_stmt 1 view .LVU83
 135:Lib/lvgl/src/widgets/calendar/lv_calendar_header_dropdown.c **** 
 343              		.loc 1 135 22 is_stmt 0 view .LVU84
 344 0026 621C     		adds	r2, r4, #1
 345 0028 52B2     		sxtb	r2, r2
 135:Lib/lvgl/src/widgets/calendar/lv_calendar_header_dropdown.c **** 
 346              		.loc 1 135 16 view .LVU85
 347 002a 8DF80620 		strb	r2, [sp, #6]
ARM GAS  C:\Users\Alex\AppData\Local\Temp\cc4QTzSE.s 			page 12


 137:Lib/lvgl/src/widgets/calendar/lv_calendar_header_dropdown.c **** }
 348              		.loc 1 137 5 is_stmt 1 view .LVU86
 349 002e BDF80410 		ldrh	r1, [sp, #4]
 350 0032 2846     		mov	r0, r5
 351 0034 FFF7FEFF 		bl	lv_calendar_set_showed_date
 352              	.LVL47:
 138:Lib/lvgl/src/widgets/calendar/lv_calendar_header_dropdown.c **** 
 353              		.loc 1 138 1 is_stmt 0 view .LVU87
 354 0038 03B0     		add	sp, sp, #12
 355              	.LCFI4:
 356              		.cfi_def_cfa_offset 12
 357              		@ sp needed
 358 003a 30BD     		pop	{r4, r5, pc}
 138:Lib/lvgl/src/widgets/calendar/lv_calendar_header_dropdown.c **** 
 359              		.loc 1 138 1 view .LVU88
 360              		.cfi_endproc
 361              	.LFE236:
 363              		.section	.text.year_event_cb,"ax",%progbits
 364              		.align	1
 365              		.syntax unified
 366              		.thumb
 367              		.thumb_func
 369              	year_event_cb:
 370              	.LVL48:
 371              	.LFB237:
 141:Lib/lvgl/src/widgets/calendar/lv_calendar_header_dropdown.c ****     lv_obj_t * dropdown = lv_event_get_current_target(e);
 372              		.loc 1 141 1 is_stmt 1 view -0
 373              		.cfi_startproc
 374              		@ args = 0, pretend = 0, frame = 8
 375              		@ frame_needed = 0, uses_anonymous_args = 0
 141:Lib/lvgl/src/widgets/calendar/lv_calendar_header_dropdown.c ****     lv_obj_t * dropdown = lv_event_get_current_target(e);
 376              		.loc 1 141 1 is_stmt 0 view .LVU90
 377 0000 F0B5     		push	{r4, r5, r6, r7, lr}
 378              	.LCFI5:
 379              		.cfi_def_cfa_offset 20
 380              		.cfi_offset 4, -20
 381              		.cfi_offset 5, -16
 382              		.cfi_offset 6, -12
 383              		.cfi_offset 7, -8
 384              		.cfi_offset 14, -4
 385 0002 83B0     		sub	sp, sp, #12
 386              	.LCFI6:
 387              		.cfi_def_cfa_offset 32
 388 0004 0446     		mov	r4, r0
 142:Lib/lvgl/src/widgets/calendar/lv_calendar_header_dropdown.c ****     lv_obj_t * calendar = lv_event_get_user_data(e);
 389              		.loc 1 142 5 is_stmt 1 view .LVU91
 142:Lib/lvgl/src/widgets/calendar/lv_calendar_header_dropdown.c ****     lv_obj_t * calendar = lv_event_get_user_data(e);
 390              		.loc 1 142 27 is_stmt 0 view .LVU92
 391 0006 FFF7FEFF 		bl	lv_event_get_current_target
 392              	.LVL49:
 142:Lib/lvgl/src/widgets/calendar/lv_calendar_header_dropdown.c ****     lv_obj_t * calendar = lv_event_get_user_data(e);
 393              		.loc 1 142 27 view .LVU93
 394 000a 0746     		mov	r7, r0
 395              	.LVL50:
 143:Lib/lvgl/src/widgets/calendar/lv_calendar_header_dropdown.c **** 
 396              		.loc 1 143 5 is_stmt 1 view .LVU94
 143:Lib/lvgl/src/widgets/calendar/lv_calendar_header_dropdown.c **** 
ARM GAS  C:\Users\Alex\AppData\Local\Temp\cc4QTzSE.s 			page 13


 397              		.loc 1 143 27 is_stmt 0 view .LVU95
 398 000c 2046     		mov	r0, r4
 399              	.LVL51:
 143:Lib/lvgl/src/widgets/calendar/lv_calendar_header_dropdown.c **** 
 400              		.loc 1 143 27 view .LVU96
 401 000e FFF7FEFF 		bl	lv_event_get_user_data
 402              	.LVL52:
 403 0012 0446     		mov	r4, r0
 404              	.LVL53:
 145:Lib/lvgl/src/widgets/calendar/lv_calendar_header_dropdown.c **** 
 405              		.loc 1 145 5 is_stmt 1 view .LVU97
 145:Lib/lvgl/src/widgets/calendar/lv_calendar_header_dropdown.c **** 
 406              		.loc 1 145 20 is_stmt 0 view .LVU98
 407 0014 3846     		mov	r0, r7
 408              	.LVL54:
 145:Lib/lvgl/src/widgets/calendar/lv_calendar_header_dropdown.c **** 
 409              		.loc 1 145 20 view .LVU99
 410 0016 FFF7FEFF 		bl	lv_dropdown_get_selected
 411              	.LVL55:
 412 001a 0546     		mov	r5, r0
 413              	.LVL56:
 147:Lib/lvgl/src/widgets/calendar/lv_calendar_header_dropdown.c ****     d = lv_calendar_get_showed_date(calendar);
 414              		.loc 1 147 5 is_stmt 1 view .LVU100
 148:Lib/lvgl/src/widgets/calendar/lv_calendar_header_dropdown.c **** 
 415              		.loc 1 148 5 view .LVU101
 148:Lib/lvgl/src/widgets/calendar/lv_calendar_header_dropdown.c **** 
 416              		.loc 1 148 9 is_stmt 0 view .LVU102
 417 001c 2046     		mov	r0, r4
 418              	.LVL57:
 148:Lib/lvgl/src/widgets/calendar/lv_calendar_header_dropdown.c **** 
 419              		.loc 1 148 9 view .LVU103
 420 001e FFF7FEFF 		bl	lv_calendar_get_showed_date
 421              	.LVL58:
 422 0022 0646     		mov	r6, r0
 423              	.LVL59:
 152:Lib/lvgl/src/widgets/calendar/lv_calendar_header_dropdown.c ****     const uint32_t year = (year_p[0] - '0') * 1000 + (year_p[1] - '0') * 100 + (year_p[2] - '0') * 
 424              		.loc 1 152 5 is_stmt 1 view .LVU104
 152:Lib/lvgl/src/widgets/calendar/lv_calendar_header_dropdown.c ****     const uint32_t year = (year_p[0] - '0') * 1000 + (year_p[1] - '0') * 100 + (year_p[2] - '0') * 
 425              		.loc 1 152 27 is_stmt 0 view .LVU105
 426 0024 3846     		mov	r0, r7
 427              	.LVL60:
 152:Lib/lvgl/src/widgets/calendar/lv_calendar_header_dropdown.c ****     const uint32_t year = (year_p[0] - '0') * 1000 + (year_p[1] - '0') * 100 + (year_p[2] - '0') * 
 428              		.loc 1 152 27 view .LVU106
 429 0026 FFF7FEFF 		bl	lv_dropdown_get_options
 430              	.LVL61:
 153:Lib/lvgl/src/widgets/calendar/lv_calendar_header_dropdown.c ****                           (year_p[3] - '0');
 431              		.loc 1 153 5 is_stmt 1 view .LVU107
 153:Lib/lvgl/src/widgets/calendar/lv_calendar_header_dropdown.c ****                           (year_p[3] - '0');
 432              		.loc 1 153 34 is_stmt 0 view .LVU108
 433 002a 0378     		ldrb	r3, [r0]	@ zero_extendqisi2
 153:Lib/lvgl/src/widgets/calendar/lv_calendar_header_dropdown.c ****                           (year_p[3] - '0');
 434              		.loc 1 153 38 view .LVU109
 435 002c 303B     		subs	r3, r3, #48
 153:Lib/lvgl/src/widgets/calendar/lv_calendar_header_dropdown.c ****                           (year_p[3] - '0');
 436              		.loc 1 153 61 view .LVU110
 437 002e 4178     		ldrb	r1, [r0, #1]	@ zero_extendqisi2
 153:Lib/lvgl/src/widgets/calendar/lv_calendar_header_dropdown.c ****                           (year_p[3] - '0');
ARM GAS  C:\Users\Alex\AppData\Local\Temp\cc4QTzSE.s 			page 14


 438              		.loc 1 153 65 view .LVU111
 439 0030 3039     		subs	r1, r1, #48
 153:Lib/lvgl/src/widgets/calendar/lv_calendar_header_dropdown.c ****                           (year_p[3] - '0');
 440              		.loc 1 153 72 view .LVU112
 441 0032 6422     		movs	r2, #100
 442 0034 02FB01F1 		mul	r1, r2, r1
 153:Lib/lvgl/src/widgets/calendar/lv_calendar_header_dropdown.c ****                           (year_p[3] - '0');
 443              		.loc 1 153 52 view .LVU113
 444 0038 4FF47A72 		mov	r2, #1000
 445 003c 02FB0311 		mla	r1, r2, r3, r1
 153:Lib/lvgl/src/widgets/calendar/lv_calendar_header_dropdown.c ****                           (year_p[3] - '0');
 446              		.loc 1 153 87 view .LVU114
 447 0040 8378     		ldrb	r3, [r0, #2]	@ zero_extendqisi2
 153:Lib/lvgl/src/widgets/calendar/lv_calendar_header_dropdown.c ****                           (year_p[3] - '0');
 448              		.loc 1 153 91 view .LVU115
 449 0042 303B     		subs	r3, r3, #48
 153:Lib/lvgl/src/widgets/calendar/lv_calendar_header_dropdown.c ****                           (year_p[3] - '0');
 450              		.loc 1 153 98 view .LVU116
 451 0044 03EB8303 		add	r3, r3, r3, lsl #2
 153:Lib/lvgl/src/widgets/calendar/lv_calendar_header_dropdown.c ****                           (year_p[3] - '0');
 452              		.loc 1 153 78 view .LVU117
 453 0048 01EB4301 		add	r1, r1, r3, lsl #1
 154:Lib/lvgl/src/widgets/calendar/lv_calendar_header_dropdown.c **** 
 454              		.loc 1 154 34 view .LVU118
 455 004c C378     		ldrb	r3, [r0, #3]	@ zero_extendqisi2
 154:Lib/lvgl/src/widgets/calendar/lv_calendar_header_dropdown.c **** 
 456              		.loc 1 154 38 view .LVU119
 457 004e 303B     		subs	r3, r3, #48
 153:Lib/lvgl/src/widgets/calendar/lv_calendar_header_dropdown.c ****                           (year_p[3] - '0');
 458              		.loc 1 153 103 view .LVU120
 459 0050 1944     		add	r1, r1, r3
 460              	.LVL62:
 156:Lib/lvgl/src/widgets/calendar/lv_calendar_header_dropdown.c ****     newd.year = year - sel;
 461              		.loc 1 156 5 is_stmt 1 view .LVU121
 156:Lib/lvgl/src/widgets/calendar/lv_calendar_header_dropdown.c ****     newd.year = year - sel;
 462              		.loc 1 156 24 is_stmt 0 view .LVU122
 463 0052 3068     		ldr	r0, [r6]	@ unaligned
 464              	.LVL63:
 156:Lib/lvgl/src/widgets/calendar/lv_calendar_header_dropdown.c ****     newd.year = year - sel;
 465              		.loc 1 156 24 view .LVU123
 466 0054 0190     		str	r0, [sp, #4]
 157:Lib/lvgl/src/widgets/calendar/lv_calendar_header_dropdown.c **** 
 467              		.loc 1 157 5 is_stmt 1 view .LVU124
 157:Lib/lvgl/src/widgets/calendar/lv_calendar_header_dropdown.c **** 
 468              		.loc 1 157 22 is_stmt 0 view .LVU125
 469 0056 491B     		subs	r1, r1, r5
 470              	.LVL64:
 157:Lib/lvgl/src/widgets/calendar/lv_calendar_header_dropdown.c **** 
 471              		.loc 1 157 22 view .LVU126
 472 0058 89B2     		uxth	r1, r1
 157:Lib/lvgl/src/widgets/calendar/lv_calendar_header_dropdown.c **** 
 473              		.loc 1 157 15 view .LVU127
 474 005a ADF80410 		strh	r1, [sp, #4]	@ movhi
 159:Lib/lvgl/src/widgets/calendar/lv_calendar_header_dropdown.c **** }
 475              		.loc 1 159 5 is_stmt 1 view .LVU128
 476 005e 9DF90620 		ldrsb	r2, [sp, #6]
 477 0062 2046     		mov	r0, r4
ARM GAS  C:\Users\Alex\AppData\Local\Temp\cc4QTzSE.s 			page 15


 478 0064 FFF7FEFF 		bl	lv_calendar_set_showed_date
 479              	.LVL65:
 160:Lib/lvgl/src/widgets/calendar/lv_calendar_header_dropdown.c **** 
 480              		.loc 1 160 1 is_stmt 0 view .LVU129
 481 0068 03B0     		add	sp, sp, #12
 482              	.LCFI7:
 483              		.cfi_def_cfa_offset 20
 484              		@ sp needed
 485 006a F0BD     		pop	{r4, r5, r6, r7, pc}
 160:Lib/lvgl/src/widgets/calendar/lv_calendar_header_dropdown.c **** 
 486              		.loc 1 160 1 view .LVU130
 487              		.cfi_endproc
 488              	.LFE237:
 490              		.section	.text.lv_calendar_header_dropdown_create,"ax",%progbits
 491              		.align	1
 492              		.global	lv_calendar_header_dropdown_create
 493              		.syntax unified
 494              		.thumb
 495              		.thumb_func
 497              	lv_calendar_header_dropdown_create:
 498              	.LVL66:
 499              	.LFB233:
  64:Lib/lvgl/src/widgets/calendar/lv_calendar_header_dropdown.c ****     lv_obj_t * obj = lv_obj_class_create_obj(&lv_calendar_header_dropdown_class, parent);
 500              		.loc 1 64 1 is_stmt 1 view -0
 501              		.cfi_startproc
 502              		@ args = 0, pretend = 0, frame = 0
 503              		@ frame_needed = 0, uses_anonymous_args = 0
  64:Lib/lvgl/src/widgets/calendar/lv_calendar_header_dropdown.c ****     lv_obj_t * obj = lv_obj_class_create_obj(&lv_calendar_header_dropdown_class, parent);
 504              		.loc 1 64 1 is_stmt 0 view .LVU132
 505 0000 10B5     		push	{r4, lr}
 506              	.LCFI8:
 507              		.cfi_def_cfa_offset 8
 508              		.cfi_offset 4, -8
 509              		.cfi_offset 14, -4
 510 0002 0146     		mov	r1, r0
  65:Lib/lvgl/src/widgets/calendar/lv_calendar_header_dropdown.c ****     lv_obj_class_init_obj(obj);
 511              		.loc 1 65 5 is_stmt 1 view .LVU133
  65:Lib/lvgl/src/widgets/calendar/lv_calendar_header_dropdown.c ****     lv_obj_class_init_obj(obj);
 512              		.loc 1 65 22 is_stmt 0 view .LVU134
 513 0004 0348     		ldr	r0, .L13
 514              	.LVL67:
  65:Lib/lvgl/src/widgets/calendar/lv_calendar_header_dropdown.c ****     lv_obj_class_init_obj(obj);
 515              		.loc 1 65 22 view .LVU135
 516 0006 FFF7FEFF 		bl	lv_obj_class_create_obj
 517              	.LVL68:
  65:Lib/lvgl/src/widgets/calendar/lv_calendar_header_dropdown.c ****     lv_obj_class_init_obj(obj);
 518              		.loc 1 65 22 view .LVU136
 519 000a 0446     		mov	r4, r0
 520              	.LVL69:
  66:Lib/lvgl/src/widgets/calendar/lv_calendar_header_dropdown.c **** 
 521              		.loc 1 66 5 is_stmt 1 view .LVU137
 522 000c FFF7FEFF 		bl	lv_obj_class_init_obj
 523              	.LVL70:
  68:Lib/lvgl/src/widgets/calendar/lv_calendar_header_dropdown.c **** }
 524              		.loc 1 68 5 view .LVU138
  69:Lib/lvgl/src/widgets/calendar/lv_calendar_header_dropdown.c **** 
 525              		.loc 1 69 1 is_stmt 0 view .LVU139
ARM GAS  C:\Users\Alex\AppData\Local\Temp\cc4QTzSE.s 			page 16


 526 0010 2046     		mov	r0, r4
 527 0012 10BD     		pop	{r4, pc}
 528              	.LVL71:
 529              	.L14:
  69:Lib/lvgl/src/widgets/calendar/lv_calendar_header_dropdown.c **** 
 530              		.loc 1 69 1 view .LVU140
 531              		.align	2
 532              	.L13:
 533 0014 00000000 		.word	lv_calendar_header_dropdown_class
 534              		.cfi_endproc
 535              	.LFE233:
 537              		.section	.text.lv_calendar_header_dropdown_set_year_list,"ax",%progbits
 538              		.align	1
 539              		.global	lv_calendar_header_dropdown_set_year_list
 540              		.syntax unified
 541              		.thumb
 542              		.thumb_func
 544              	lv_calendar_header_dropdown_set_year_list:
 545              	.LVL72:
 546              	.LFB234:
  72:Lib/lvgl/src/widgets/calendar/lv_calendar_header_dropdown.c ****     /* Search for the header dropdown */
 547              		.loc 1 72 1 is_stmt 1 view -0
 548              		.cfi_startproc
 549              		@ args = 0, pretend = 0, frame = 0
 550              		@ frame_needed = 0, uses_anonymous_args = 0
  72:Lib/lvgl/src/widgets/calendar/lv_calendar_header_dropdown.c ****     /* Search for the header dropdown */
 551              		.loc 1 72 1 is_stmt 0 view .LVU142
 552 0000 70B5     		push	{r4, r5, r6, lr}
 553              	.LCFI9:
 554              		.cfi_def_cfa_offset 16
 555              		.cfi_offset 4, -16
 556              		.cfi_offset 5, -12
 557              		.cfi_offset 6, -8
 558              		.cfi_offset 14, -4
 559 0002 0446     		mov	r4, r0
 560 0004 0D46     		mov	r5, r1
  74:Lib/lvgl/src/widgets/calendar/lv_calendar_header_dropdown.c ****     if(NULL == header) {
 561              		.loc 1 74 5 is_stmt 1 view .LVU143
  74:Lib/lvgl/src/widgets/calendar/lv_calendar_header_dropdown.c ****     if(NULL == header) {
 562              		.loc 1 74 25 is_stmt 0 view .LVU144
 563 0006 0A4A     		ldr	r2, .L18
 564 0008 0021     		movs	r1, #0
 565              	.LVL73:
  74:Lib/lvgl/src/widgets/calendar/lv_calendar_header_dropdown.c ****     if(NULL == header) {
 566              		.loc 1 74 25 view .LVU145
 567 000a FFF7FEFF 		bl	lv_obj_get_child_by_type
 568              	.LVL74:
  75:Lib/lvgl/src/widgets/calendar/lv_calendar_header_dropdown.c ****         /* Header not found */
 569              		.loc 1 75 5 is_stmt 1 view .LVU146
  75:Lib/lvgl/src/widgets/calendar/lv_calendar_header_dropdown.c ****         /* Header not found */
 570              		.loc 1 75 7 is_stmt 0 view .LVU147
 571 000e 70B1     		cbz	r0, .L15
  83:Lib/lvgl/src/widgets/calendar/lv_calendar_header_dropdown.c ****     lv_obj_t * year_dropdown = lv_obj_get_child_by_type(header, year_dropdown_index, &lv_dropdown_c
 572              		.loc 1 83 5 is_stmt 1 view .LVU148
 573              	.LVL75:
  84:Lib/lvgl/src/widgets/calendar/lv_calendar_header_dropdown.c ****     if(NULL == year_dropdown) {
 574              		.loc 1 84 5 view .LVU149
ARM GAS  C:\Users\Alex\AppData\Local\Temp\cc4QTzSE.s 			page 17


  84:Lib/lvgl/src/widgets/calendar/lv_calendar_header_dropdown.c ****     if(NULL == year_dropdown) {
 575              		.loc 1 84 32 is_stmt 0 view .LVU150
 576 0010 084A     		ldr	r2, .L18+4
 577 0012 0021     		movs	r1, #0
 578 0014 FFF7FEFF 		bl	lv_obj_get_child_by_type
 579              	.LVL76:
  85:Lib/lvgl/src/widgets/calendar/lv_calendar_header_dropdown.c ****         /* year dropdpwn not found */
 580              		.loc 1 85 5 is_stmt 1 view .LVU151
  85:Lib/lvgl/src/widgets/calendar/lv_calendar_header_dropdown.c ****         /* year dropdpwn not found */
 581              		.loc 1 85 7 is_stmt 0 view .LVU152
 582 0018 0646     		mov	r6, r0
 583 001a 40B1     		cbz	r0, .L15
  90:Lib/lvgl/src/widgets/calendar/lv_calendar_header_dropdown.c ****     lv_dropdown_set_options(year_dropdown, years_list);
 584              		.loc 1 90 5 is_stmt 1 view .LVU153
 585 001c FFF7FEFF 		bl	lv_dropdown_clear_options
 586              	.LVL77:
  91:Lib/lvgl/src/widgets/calendar/lv_calendar_header_dropdown.c **** 
 587              		.loc 1 91 5 view .LVU154
 588 0020 2946     		mov	r1, r5
 589 0022 3046     		mov	r0, r6
 590 0024 FFF7FEFF 		bl	lv_dropdown_set_options
 591              	.LVL78:
  93:Lib/lvgl/src/widgets/calendar/lv_calendar_header_dropdown.c **** }
 592              		.loc 1 93 5 view .LVU155
 593 0028 2046     		mov	r0, r4
 594 002a FFF7FEFF 		bl	lv_obj_invalidate
 595              	.LVL79:
 596              	.L15:
  94:Lib/lvgl/src/widgets/calendar/lv_calendar_header_dropdown.c **** 
 597              		.loc 1 94 1 is_stmt 0 view .LVU156
 598 002e 70BD     		pop	{r4, r5, r6, pc}
 599              	.LVL80:
 600              	.L19:
  94:Lib/lvgl/src/widgets/calendar/lv_calendar_header_dropdown.c **** 
 601              		.loc 1 94 1 view .LVU157
 602              		.align	2
 603              	.L18:
 604 0030 00000000 		.word	lv_calendar_header_dropdown_class
 605 0034 00000000 		.word	lv_dropdown_class
 606              		.cfi_endproc
 607              	.LFE234:
 609              		.global	lv_calendar_header_dropdown_class
 610              		.section	.rodata.str1.4,"aMS",%progbits,1
 611              		.align	2
 612              	.LC2:
 613 0000 63616C65 		.ascii	"calendar-header-dropdown\000"
 613      6E646172 
 613      2D686561 
 613      6465722D 
 613      64726F70 
 614              		.section	.rodata.lv_calendar_header_dropdown_class,"a"
 615              		.align	2
 618              	lv_calendar_header_dropdown_class:
 619 0000 00000000 		.word	lv_obj_class
 620 0004 00000000 		.word	my_constructor
 621 0008 00000000 		.space	12
 621      00000000 
ARM GAS  C:\Users\Alex\AppData\Local\Temp\cc4QTzSE.s 			page 18


 621      00000000 
 622 0014 00000000 		.word	.LC2
 623 0018 64000020 		.word	536871012
 624 001c D1070020 		.word	536872913
 625 0020 00000000 		.space	4
 626              		.text
 627              	.Letext0:
 628              		.file 2 "e:\\programms\\gnu_mcu_eclipse\\toolchain\\arm-gnu-toolchain-12.2.mpacbti-bet1-mingw-w64-
 629              		.file 3 "e:\\programms\\gnu_mcu_eclipse\\toolchain\\arm-gnu-toolchain-12.2.mpacbti-bet1-mingw-w64-
 630              		.file 4 "Lib/lvgl/src/widgets/calendar/../../core/../misc/lv_types.h"
 631              		.file 5 "Lib/lvgl/src/widgets/calendar/../../core/lv_obj.h"
 632              		.file 6 "Lib/lvgl/src/widgets/calendar/../../core/lv_obj_class.h"
 633              		.file 7 "Lib/lvgl/src/widgets/calendar/../../core/../indev/../core/lv_group.h"
 634              		.file 8 "Lib/lvgl/src/widgets/calendar/../../core/../display/../misc/lv_event.h"
 635              		.file 9 "c:\\users\\alex\\eclipse-workspace\\lvgs_test\\lib\\lvgl\\src\\misc\\lv_area.h"
 636              		.file 10 "Lib/lvgl/src/widgets/calendar/../../core/../misc/lv_ll.h"
 637              		.file 11 "Lib/lvgl/src/widgets/calendar/../../core/../misc/../layouts/flex/lv_flex.h"
 638              		.file 12 "Lib/lvgl/src/widgets/calendar/../../core/../misc/lv_style.h"
 639              		.file 13 "Lib/lvgl/src/widgets/calendar/../../core/../display/../misc/lv_array.h"
 640              		.file 14 "Lib/lvgl/src/widgets/calendar/../../core/lv_obj_style.h"
 641              		.file 15 "Lib/lvgl/src/widgets/calendar/lv_calendar_header_dropdown.h"
 642              		.file 16 "Lib/lvgl/src/widgets/calendar/lv_calendar.h"
 643              		.file 17 "Lib/lvgl/src/widgets/calendar/../dropdown/lv_dropdown.h"
 644              		.file 18 "Lib/lvgl/src/widgets/calendar/../../core/lv_obj_pos.h"
 645              		.file 19 "Lib/lvgl/src/widgets/calendar/../../core/lv_obj_tree.h"
 646              		.file 20 "Lib/lvgl/src/widgets/calendar/../../core/lv_obj_event.h"
ARM GAS  C:\Users\Alex\AppData\Local\Temp\cc4QTzSE.s 			page 19

