ARM GAS  C:\Users\Alex\AppData\Local\Temp\ccqpHWLV.s 			page 1


   1              		.cpu cortex-m4
   2              		.arch armv7e-m
   3              		.fpu fpv4-sp-d16
   4              		.eabi_attribute 27, 1
   5              		.eabi_attribute 28, 1
   6              		.eabi_attribute 20, 1
   7              		.eabi_attribute 21, 1
   8              		.eabi_attribute 23, 3
   9              		.eabi_attribute 24, 1
  10              		.eabi_attribute 25, 1
  11              		.eabi_attribute 26, 1
  12              		.eabi_attribute 30, 1
  13              		.eabi_attribute 34, 1
  14              		.eabi_attribute 18, 4
  15              		.file	"lv_draw_mask.c"
  16              		.text
  17              	.Ltext0:
  18              		.cfi_sections	.debug_frame
  19              		.file 1 "Lib/lvgl/src/draw/lv_draw_mask.c"
  20              		.section	.text.lv_draw_mask_rect_dsc_init,"ax",%progbits
  21              		.align	1
  22              		.global	lv_draw_mask_rect_dsc_init
  23              		.syntax unified
  24              		.thumb
  25              		.thumb_func
  27              	lv_draw_mask_rect_dsc_init:
  28              	.LVL0:
  29              	.LFB233:
   1:Lib/lvgl/src/draw/lv_draw_mask.c **** /**
   2:Lib/lvgl/src/draw/lv_draw_mask.c ****  * @file lv_draw_mask.c
   3:Lib/lvgl/src/draw/lv_draw_mask.c ****  *
   4:Lib/lvgl/src/draw/lv_draw_mask.c ****  */
   5:Lib/lvgl/src/draw/lv_draw_mask.c **** 
   6:Lib/lvgl/src/draw/lv_draw_mask.c **** /*********************
   7:Lib/lvgl/src/draw/lv_draw_mask.c ****  *      INCLUDES
   8:Lib/lvgl/src/draw/lv_draw_mask.c ****  *********************/
   9:Lib/lvgl/src/draw/lv_draw_mask.c **** #include <stdbool.h>
  10:Lib/lvgl/src/draw/lv_draw_mask.c **** #include "lv_draw_mask.h"
  11:Lib/lvgl/src/draw/lv_draw_mask.c **** #include "../core/lv_refr.h"
  12:Lib/lvgl/src/draw/lv_draw_mask.c **** #include "../misc/lv_math.h"
  13:Lib/lvgl/src/draw/lv_draw_mask.c **** #include "../stdlib/lv_string.h"
  14:Lib/lvgl/src/draw/lv_draw_mask.c **** 
  15:Lib/lvgl/src/draw/lv_draw_mask.c **** /*********************
  16:Lib/lvgl/src/draw/lv_draw_mask.c ****  *      DEFINES
  17:Lib/lvgl/src/draw/lv_draw_mask.c ****  *********************/
  18:Lib/lvgl/src/draw/lv_draw_mask.c **** 
  19:Lib/lvgl/src/draw/lv_draw_mask.c **** /**********************
  20:Lib/lvgl/src/draw/lv_draw_mask.c ****  *      TYPEDEFS
  21:Lib/lvgl/src/draw/lv_draw_mask.c ****  **********************/
  22:Lib/lvgl/src/draw/lv_draw_mask.c **** 
  23:Lib/lvgl/src/draw/lv_draw_mask.c **** /**********************
  24:Lib/lvgl/src/draw/lv_draw_mask.c ****  *  STATIC PROTOTYPES
  25:Lib/lvgl/src/draw/lv_draw_mask.c ****  **********************/
  26:Lib/lvgl/src/draw/lv_draw_mask.c **** 
  27:Lib/lvgl/src/draw/lv_draw_mask.c **** /**********************
  28:Lib/lvgl/src/draw/lv_draw_mask.c ****  *  STATIC VARIABLES
  29:Lib/lvgl/src/draw/lv_draw_mask.c ****  **********************/
ARM GAS  C:\Users\Alex\AppData\Local\Temp\ccqpHWLV.s 			page 2


  30:Lib/lvgl/src/draw/lv_draw_mask.c **** 
  31:Lib/lvgl/src/draw/lv_draw_mask.c **** /**********************
  32:Lib/lvgl/src/draw/lv_draw_mask.c ****  *      MACROS
  33:Lib/lvgl/src/draw/lv_draw_mask.c ****  **********************/
  34:Lib/lvgl/src/draw/lv_draw_mask.c **** 
  35:Lib/lvgl/src/draw/lv_draw_mask.c **** /**********************
  36:Lib/lvgl/src/draw/lv_draw_mask.c ****  *   GLOBAL FUNCTIONS
  37:Lib/lvgl/src/draw/lv_draw_mask.c ****  **********************/
  38:Lib/lvgl/src/draw/lv_draw_mask.c **** 
  39:Lib/lvgl/src/draw/lv_draw_mask.c **** LV_ATTRIBUTE_FAST_MEM void lv_draw_mask_rect_dsc_init(lv_draw_mask_rect_dsc_t * dsc)
  40:Lib/lvgl/src/draw/lv_draw_mask.c **** {
  30              		.loc 1 40 1 view -0
  31              		.cfi_startproc
  32              		@ args = 0, pretend = 0, frame = 0
  33              		@ frame_needed = 0, uses_anonymous_args = 0
  34              		.loc 1 40 1 is_stmt 0 view .LVU1
  35 0000 08B5     		push	{r3, lr}
  36              	.LCFI0:
  37              		.cfi_def_cfa_offset 8
  38              		.cfi_offset 3, -8
  39              		.cfi_offset 14, -4
  41:Lib/lvgl/src/draw/lv_draw_mask.c ****     lv_memzero(dsc, sizeof(lv_draw_mask_rect_dsc_t));
  40              		.loc 1 41 5 is_stmt 1 view .LVU2
  41              	.LVL1:
  42              	.LBB4:
  43              	.LBI4:
  44              		.file 2 "Lib/lvgl/src/draw/../misc/../font/../draw/../stdlib/lv_string.h"
   1:Lib/lvgl/src/draw/../misc/../font/../draw/../stdlib/lv_string.h **** /**
   2:Lib/lvgl/src/draw/../misc/../font/../draw/../stdlib/lv_string.h ****  * @file lv_stringn.h
   3:Lib/lvgl/src/draw/../misc/../font/../draw/../stdlib/lv_string.h ****  *
   4:Lib/lvgl/src/draw/../misc/../font/../draw/../stdlib/lv_string.h ****  */
   5:Lib/lvgl/src/draw/../misc/../font/../draw/../stdlib/lv_string.h **** 
   6:Lib/lvgl/src/draw/../misc/../font/../draw/../stdlib/lv_string.h **** #ifndef LV_STRING_H
   7:Lib/lvgl/src/draw/../misc/../font/../draw/../stdlib/lv_string.h **** #define LV_STRING_H
   8:Lib/lvgl/src/draw/../misc/../font/../draw/../stdlib/lv_string.h **** 
   9:Lib/lvgl/src/draw/../misc/../font/../draw/../stdlib/lv_string.h **** #ifdef __cplusplus
  10:Lib/lvgl/src/draw/../misc/../font/../draw/../stdlib/lv_string.h **** extern "C" {
  11:Lib/lvgl/src/draw/../misc/../font/../draw/../stdlib/lv_string.h **** #endif
  12:Lib/lvgl/src/draw/../misc/../font/../draw/../stdlib/lv_string.h **** 
  13:Lib/lvgl/src/draw/../misc/../font/../draw/../stdlib/lv_string.h **** /*********************
  14:Lib/lvgl/src/draw/../misc/../font/../draw/../stdlib/lv_string.h ****  *      INCLUDES
  15:Lib/lvgl/src/draw/../misc/../font/../draw/../stdlib/lv_string.h ****  *********************/
  16:Lib/lvgl/src/draw/../misc/../font/../draw/../stdlib/lv_string.h **** #include "../lv_conf_internal.h"
  17:Lib/lvgl/src/draw/../misc/../font/../draw/../stdlib/lv_string.h **** #include <stdint.h>
  18:Lib/lvgl/src/draw/../misc/../font/../draw/../stdlib/lv_string.h **** #include <stddef.h>
  19:Lib/lvgl/src/draw/../misc/../font/../draw/../stdlib/lv_string.h **** 
  20:Lib/lvgl/src/draw/../misc/../font/../draw/../stdlib/lv_string.h **** /*********************
  21:Lib/lvgl/src/draw/../misc/../font/../draw/../stdlib/lv_string.h ****  *      DEFINES
  22:Lib/lvgl/src/draw/../misc/../font/../draw/../stdlib/lv_string.h ****  *********************/
  23:Lib/lvgl/src/draw/../misc/../font/../draw/../stdlib/lv_string.h **** 
  24:Lib/lvgl/src/draw/../misc/../font/../draw/../stdlib/lv_string.h **** /**********************
  25:Lib/lvgl/src/draw/../misc/../font/../draw/../stdlib/lv_string.h ****  *      TYPEDEFS
  26:Lib/lvgl/src/draw/../misc/../font/../draw/../stdlib/lv_string.h ****  **********************/
  27:Lib/lvgl/src/draw/../misc/../font/../draw/../stdlib/lv_string.h **** 
  28:Lib/lvgl/src/draw/../misc/../font/../draw/../stdlib/lv_string.h **** /**********************
  29:Lib/lvgl/src/draw/../misc/../font/../draw/../stdlib/lv_string.h ****  * GLOBAL PROTOTYPES
  30:Lib/lvgl/src/draw/../misc/../font/../draw/../stdlib/lv_string.h ****  **********************/
ARM GAS  C:\Users\Alex\AppData\Local\Temp\ccqpHWLV.s 			page 3


  31:Lib/lvgl/src/draw/../misc/../font/../draw/../stdlib/lv_string.h **** 
  32:Lib/lvgl/src/draw/../misc/../font/../draw/../stdlib/lv_string.h **** /**
  33:Lib/lvgl/src/draw/../misc/../font/../draw/../stdlib/lv_string.h ****  * @brief Copies a block of memory from a source address to a destination address.
  34:Lib/lvgl/src/draw/../misc/../font/../draw/../stdlib/lv_string.h ****  * @param dst Pointer to the destination array where the content is to be copied.
  35:Lib/lvgl/src/draw/../misc/../font/../draw/../stdlib/lv_string.h ****  * @param src Pointer to the source of data to be copied.
  36:Lib/lvgl/src/draw/../misc/../font/../draw/../stdlib/lv_string.h ****  * @param len Number of bytes to copy.
  37:Lib/lvgl/src/draw/../misc/../font/../draw/../stdlib/lv_string.h ****  * @return Pointer to the destination array.
  38:Lib/lvgl/src/draw/../misc/../font/../draw/../stdlib/lv_string.h ****  * @note The function does not check for any overlapping of the source and destination memory block
  39:Lib/lvgl/src/draw/../misc/../font/../draw/../stdlib/lv_string.h ****  */
  40:Lib/lvgl/src/draw/../misc/../font/../draw/../stdlib/lv_string.h **** void * lv_memcpy(void * dst, const void * src, size_t len);
  41:Lib/lvgl/src/draw/../misc/../font/../draw/../stdlib/lv_string.h **** 
  42:Lib/lvgl/src/draw/../misc/../font/../draw/../stdlib/lv_string.h **** /**
  43:Lib/lvgl/src/draw/../misc/../font/../draw/../stdlib/lv_string.h ****  * @brief Fills a block of memory with a specified value.
  44:Lib/lvgl/src/draw/../misc/../font/../draw/../stdlib/lv_string.h ****  * @param dst Pointer to the destination array to fill with the specified value.
  45:Lib/lvgl/src/draw/../misc/../font/../draw/../stdlib/lv_string.h ****  * @param v Value to be set. The value is passed as an int, but the function fills
  46:Lib/lvgl/src/draw/../misc/../font/../draw/../stdlib/lv_string.h ****  *          the block of memory using the unsigned char conversion of this value.
  47:Lib/lvgl/src/draw/../misc/../font/../draw/../stdlib/lv_string.h ****  * @param len Number of bytes to be set to the value.
  48:Lib/lvgl/src/draw/../misc/../font/../draw/../stdlib/lv_string.h ****  */
  49:Lib/lvgl/src/draw/../misc/../font/../draw/../stdlib/lv_string.h **** void lv_memset(void * dst, uint8_t v, size_t len);
  50:Lib/lvgl/src/draw/../misc/../font/../draw/../stdlib/lv_string.h **** 
  51:Lib/lvgl/src/draw/../misc/../font/../draw/../stdlib/lv_string.h **** /**
  52:Lib/lvgl/src/draw/../misc/../font/../draw/../stdlib/lv_string.h ****  * @brief Move a block of memory from source to destination
  53:Lib/lvgl/src/draw/../misc/../font/../draw/../stdlib/lv_string.h ****  * @param dst Pointer to the destination array where the content is to be copied.
  54:Lib/lvgl/src/draw/../misc/../font/../draw/../stdlib/lv_string.h ****  * @param src Pointer to the source of data to be copied.
  55:Lib/lvgl/src/draw/../misc/../font/../draw/../stdlib/lv_string.h ****  * @param len Number of bytes to copy
  56:Lib/lvgl/src/draw/../misc/../font/../draw/../stdlib/lv_string.h ****  * @return Pointer to the destination array.
  57:Lib/lvgl/src/draw/../misc/../font/../draw/../stdlib/lv_string.h ****  */
  58:Lib/lvgl/src/draw/../misc/../font/../draw/../stdlib/lv_string.h **** void * lv_memmove(void * dst, const void * src, size_t len);
  59:Lib/lvgl/src/draw/../misc/../font/../draw/../stdlib/lv_string.h **** 
  60:Lib/lvgl/src/draw/../misc/../font/../draw/../stdlib/lv_string.h **** /**
  61:Lib/lvgl/src/draw/../misc/../font/../draw/../stdlib/lv_string.h ****  * Same as `memset(dst, 0x00, len)`.
  62:Lib/lvgl/src/draw/../misc/../font/../draw/../stdlib/lv_string.h ****  * @param dst pointer to the destination buffer
  63:Lib/lvgl/src/draw/../misc/../font/../draw/../stdlib/lv_string.h ****  * @param len number of byte to set
  64:Lib/lvgl/src/draw/../misc/../font/../draw/../stdlib/lv_string.h ****  */
  65:Lib/lvgl/src/draw/../misc/../font/../draw/../stdlib/lv_string.h **** static inline void lv_memzero(void * dst, size_t len)
  45              		.loc 2 65 20 view .LVU3
  46              	.LBB5:
  66:Lib/lvgl/src/draw/../misc/../font/../draw/../stdlib/lv_string.h **** {
  67:Lib/lvgl/src/draw/../misc/../font/../draw/../stdlib/lv_string.h ****     lv_memset(dst, 0x00, len);
  47              		.loc 2 67 5 view .LVU4
  48 0002 3022     		movs	r2, #48
  49 0004 0021     		movs	r1, #0
  50 0006 FFF7FEFF 		bl	lv_memset
  51              	.LVL2:
  52              		.loc 2 67 5 is_stmt 0 view .LVU5
  53              	.LBE5:
  54              	.LBE4:
  42:Lib/lvgl/src/draw/lv_draw_mask.c **** }
  55              		.loc 1 42 1 view .LVU6
  56 000a 08BD     		pop	{r3, pc}
  57              		.cfi_endproc
  58              	.LFE233:
  60              		.section	.text.lv_draw_mask_rect,"ax",%progbits
  61              		.align	1
  62              		.global	lv_draw_mask_rect
  63              		.syntax unified
  64              		.thumb
ARM GAS  C:\Users\Alex\AppData\Local\Temp\ccqpHWLV.s 			page 4


  65              		.thumb_func
  67              	lv_draw_mask_rect:
  68              	.LVL3:
  69              	.LFB234:
  43:Lib/lvgl/src/draw/lv_draw_mask.c **** 
  44:Lib/lvgl/src/draw/lv_draw_mask.c **** LV_ATTRIBUTE_FAST_MEM void lv_draw_mask_rect(lv_layer_t * layer, const lv_draw_mask_rect_dsc_t * ds
  45:Lib/lvgl/src/draw/lv_draw_mask.c **** {
  70              		.loc 1 45 1 is_stmt 1 view -0
  71              		.cfi_startproc
  72              		@ args = 0, pretend = 0, frame = 0
  73              		@ frame_needed = 0, uses_anonymous_args = 0
  74              		.loc 1 45 1 is_stmt 0 view .LVU8
  75 0000 F8B5     		push	{r3, r4, r5, r6, r7, lr}
  76              	.LCFI1:
  77              		.cfi_def_cfa_offset 24
  78              		.cfi_offset 3, -24
  79              		.cfi_offset 4, -20
  80              		.cfi_offset 5, -16
  81              		.cfi_offset 6, -12
  82              		.cfi_offset 7, -8
  83              		.cfi_offset 14, -4
  84 0002 0446     		mov	r4, r0
  85 0004 0E46     		mov	r6, r1
  46:Lib/lvgl/src/draw/lv_draw_mask.c ****     if(!lv_color_format_has_alpha(layer->color_format)) {
  86              		.loc 1 46 5 is_stmt 1 view .LVU9
  87              		.loc 1 46 9 is_stmt 0 view .LVU10
  88 0006 007D     		ldrb	r0, [r0, #20]	@ zero_extendqisi2
  89              	.LVL4:
  90              		.loc 1 46 9 view .LVU11
  91 0008 FFF7FEFF 		bl	lv_color_format_has_alpha
  92              	.LVL5:
  93              		.loc 1 46 7 view .LVU12
  94 000c 00B9     		cbnz	r0, .L7
  95              	.L3:
  47:Lib/lvgl/src/draw/lv_draw_mask.c ****         LV_LOG_WARN("Only layers with alpha channel can be masked");
  48:Lib/lvgl/src/draw/lv_draw_mask.c ****         return;
  49:Lib/lvgl/src/draw/lv_draw_mask.c ****     }
  50:Lib/lvgl/src/draw/lv_draw_mask.c ****     LV_PROFILER_BEGIN;
  51:Lib/lvgl/src/draw/lv_draw_mask.c **** 
  52:Lib/lvgl/src/draw/lv_draw_mask.c ****     lv_draw_task_t * t = lv_draw_add_task(layer, &layer->buf_area);
  53:Lib/lvgl/src/draw/lv_draw_mask.c **** 
  54:Lib/lvgl/src/draw/lv_draw_mask.c ****     t->draw_dsc = lv_malloc(sizeof(*dsc));
  55:Lib/lvgl/src/draw/lv_draw_mask.c ****     lv_memcpy(t->draw_dsc, dsc, sizeof(*dsc));
  56:Lib/lvgl/src/draw/lv_draw_mask.c ****     t->type = LV_DRAW_TASK_TYPE_MASK_RECTANGLE;
  57:Lib/lvgl/src/draw/lv_draw_mask.c **** 
  58:Lib/lvgl/src/draw/lv_draw_mask.c ****     lv_draw_dsc_base_t * base_dsc = t->draw_dsc;
  59:Lib/lvgl/src/draw/lv_draw_mask.c ****     base_dsc->layer = layer;
  60:Lib/lvgl/src/draw/lv_draw_mask.c **** 
  61:Lib/lvgl/src/draw/lv_draw_mask.c ****     if(base_dsc->obj && lv_obj_has_flag(base_dsc->obj, LV_OBJ_FLAG_SEND_DRAW_TASK_EVENTS)) {
  62:Lib/lvgl/src/draw/lv_draw_mask.c ****         /*Disable sending LV_EVENT_DRAW_TASK_ADDED first to avoid triggering recursive
  63:Lib/lvgl/src/draw/lv_draw_mask.c ****          *event calls due draw task adds in the event*/
  64:Lib/lvgl/src/draw/lv_draw_mask.c ****         lv_obj_remove_flag(base_dsc->obj, LV_OBJ_FLAG_SEND_DRAW_TASK_EVENTS);
  65:Lib/lvgl/src/draw/lv_draw_mask.c ****         lv_obj_send_event(dsc->base.obj, LV_EVENT_DRAW_TASK_ADDED, t);
  66:Lib/lvgl/src/draw/lv_draw_mask.c ****         lv_obj_add_flag(base_dsc->obj, LV_OBJ_FLAG_SEND_DRAW_TASK_EVENTS);
  67:Lib/lvgl/src/draw/lv_draw_mask.c ****     }
  68:Lib/lvgl/src/draw/lv_draw_mask.c **** 
  69:Lib/lvgl/src/draw/lv_draw_mask.c ****     lv_draw_finalize_task_creation(layer, t);
ARM GAS  C:\Users\Alex\AppData\Local\Temp\ccqpHWLV.s 			page 5


  70:Lib/lvgl/src/draw/lv_draw_mask.c ****     LV_PROFILER_END;
  71:Lib/lvgl/src/draw/lv_draw_mask.c **** }
  96              		.loc 1 71 1 view .LVU13
  97 000e F8BD     		pop	{r3, r4, r5, r6, r7, pc}
  98              	.LVL6:
  99              	.L7:
  50:Lib/lvgl/src/draw/lv_draw_mask.c **** 
 100              		.loc 1 50 22 is_stmt 1 view .LVU14
  52:Lib/lvgl/src/draw/lv_draw_mask.c **** 
 101              		.loc 1 52 5 view .LVU15
  52:Lib/lvgl/src/draw/lv_draw_mask.c **** 
 102              		.loc 1 52 26 is_stmt 0 view .LVU16
 103 0010 211D     		adds	r1, r4, #4
 104 0012 2046     		mov	r0, r4
 105 0014 FFF7FEFF 		bl	lv_draw_add_task
 106              	.LVL7:
 107 0018 0546     		mov	r5, r0
 108              	.LVL8:
  54:Lib/lvgl/src/draw/lv_draw_mask.c ****     lv_memcpy(t->draw_dsc, dsc, sizeof(*dsc));
 109              		.loc 1 54 5 is_stmt 1 view .LVU17
  54:Lib/lvgl/src/draw/lv_draw_mask.c ****     lv_memcpy(t->draw_dsc, dsc, sizeof(*dsc));
 110              		.loc 1 54 19 is_stmt 0 view .LVU18
 111 001a 3020     		movs	r0, #48
 112              	.LVL9:
  54:Lib/lvgl/src/draw/lv_draw_mask.c ****     lv_memcpy(t->draw_dsc, dsc, sizeof(*dsc));
 113              		.loc 1 54 19 view .LVU19
 114 001c FFF7FEFF 		bl	lv_malloc
 115              	.LVL10:
  54:Lib/lvgl/src/draw/lv_draw_mask.c ****     lv_memcpy(t->draw_dsc, dsc, sizeof(*dsc));
 116              		.loc 1 54 17 view .LVU20
 117 0020 E864     		str	r0, [r5, #76]
  55:Lib/lvgl/src/draw/lv_draw_mask.c ****     t->type = LV_DRAW_TASK_TYPE_MASK_RECTANGLE;
 118              		.loc 1 55 5 is_stmt 1 view .LVU21
 119 0022 3022     		movs	r2, #48
 120 0024 3146     		mov	r1, r6
 121 0026 FFF7FEFF 		bl	lv_memcpy
 122              	.LVL11:
  56:Lib/lvgl/src/draw/lv_draw_mask.c **** 
 123              		.loc 1 56 5 view .LVU22
  56:Lib/lvgl/src/draw/lv_draw_mask.c **** 
 124              		.loc 1 56 13 is_stmt 0 view .LVU23
 125 002a 0923     		movs	r3, #9
 126 002c 2B71     		strb	r3, [r5, #4]
  58:Lib/lvgl/src/draw/lv_draw_mask.c ****     base_dsc->layer = layer;
 127              		.loc 1 58 5 is_stmt 1 view .LVU24
  58:Lib/lvgl/src/draw/lv_draw_mask.c ****     base_dsc->layer = layer;
 128              		.loc 1 58 26 is_stmt 0 view .LVU25
 129 002e EF6C     		ldr	r7, [r5, #76]
 130              	.LVL12:
  59:Lib/lvgl/src/draw/lv_draw_mask.c **** 
 131              		.loc 1 59 5 is_stmt 1 view .LVU26
  59:Lib/lvgl/src/draw/lv_draw_mask.c **** 
 132              		.loc 1 59 21 is_stmt 0 view .LVU27
 133 0030 3C61     		str	r4, [r7, #16]
  61:Lib/lvgl/src/draw/lv_draw_mask.c ****         /*Disable sending LV_EVENT_DRAW_TASK_ADDED first to avoid triggering recursive
 134              		.loc 1 61 5 is_stmt 1 view .LVU28
  61:Lib/lvgl/src/draw/lv_draw_mask.c ****         /*Disable sending LV_EVENT_DRAW_TASK_ADDED first to avoid triggering recursive
ARM GAS  C:\Users\Alex\AppData\Local\Temp\ccqpHWLV.s 			page 6


 135              		.loc 1 61 16 is_stmt 0 view .LVU29
 136 0032 3868     		ldr	r0, [r7]
  61:Lib/lvgl/src/draw/lv_draw_mask.c ****         /*Disable sending LV_EVENT_DRAW_TASK_ADDED first to avoid triggering recursive
 137              		.loc 1 61 7 view .LVU30
 138 0034 20B1     		cbz	r0, .L5
  61:Lib/lvgl/src/draw/lv_draw_mask.c ****         /*Disable sending LV_EVENT_DRAW_TASK_ADDED first to avoid triggering recursive
 139              		.loc 1 61 25 discriminator 1 view .LVU31
 140 0036 4FF40021 		mov	r1, #524288
 141 003a FFF7FEFF 		bl	lv_obj_has_flag
 142              	.LVL13:
  61:Lib/lvgl/src/draw/lv_draw_mask.c ****         /*Disable sending LV_EVENT_DRAW_TASK_ADDED first to avoid triggering recursive
 143              		.loc 1 61 22 discriminator 1 view .LVU32
 144 003e 20B9     		cbnz	r0, .L8
 145              	.L5:
  69:Lib/lvgl/src/draw/lv_draw_mask.c ****     LV_PROFILER_END;
 146              		.loc 1 69 5 is_stmt 1 view .LVU33
 147 0040 2946     		mov	r1, r5
 148 0042 2046     		mov	r0, r4
 149 0044 FFF7FEFF 		bl	lv_draw_finalize_task_creation
 150              	.LVL14:
  70:Lib/lvgl/src/draw/lv_draw_mask.c **** }
 151              		.loc 1 70 20 view .LVU34
 152 0048 E1E7     		b	.L3
 153              	.L8:
  64:Lib/lvgl/src/draw/lv_draw_mask.c ****         lv_obj_send_event(dsc->base.obj, LV_EVENT_DRAW_TASK_ADDED, t);
 154              		.loc 1 64 9 view .LVU35
 155 004a 4FF40021 		mov	r1, #524288
 156 004e 3868     		ldr	r0, [r7]
 157 0050 FFF7FEFF 		bl	lv_obj_remove_flag
 158              	.LVL15:
  65:Lib/lvgl/src/draw/lv_draw_mask.c ****         lv_obj_add_flag(base_dsc->obj, LV_OBJ_FLAG_SEND_DRAW_TASK_EVENTS);
 159              		.loc 1 65 9 view .LVU36
 160 0054 2A46     		mov	r2, r5
 161 0056 1C21     		movs	r1, #28
 162 0058 3068     		ldr	r0, [r6]
 163 005a FFF7FEFF 		bl	lv_obj_send_event
 164              	.LVL16:
  66:Lib/lvgl/src/draw/lv_draw_mask.c ****     }
 165              		.loc 1 66 9 view .LVU37
 166 005e 4FF40021 		mov	r1, #524288
 167 0062 3868     		ldr	r0, [r7]
 168 0064 FFF7FEFF 		bl	lv_obj_add_flag
 169              	.LVL17:
 170 0068 EAE7     		b	.L5
 171              		.cfi_endproc
 172              	.LFE234:
 174              		.text
 175              	.Letext0:
 176              		.file 3 "e:\\programms\\gnu_mcu_eclipse\\toolchain\\arm-gnu-toolchain-12.2.mpacbti-bet1-mingw-w64-
 177              		.file 4 "e:\\programms\\gnu_mcu_eclipse\\toolchain\\arm-gnu-toolchain-12.2.mpacbti-bet1-mingw-w64-
 178              		.file 5 "Lib/lvgl/src/draw/../misc/lv_types.h"
 179              		.file 6 "Lib/lvgl/src/draw/../core/lv_obj.h"
 180              		.file 7 "Lib/lvgl/src/draw/../core/lv_obj_class.h"
 181              		.file 8 "Lib/lvgl/src/draw/../core/../indev/../core/lv_group.h"
 182              		.file 9 "Lib/lvgl/src/draw/lv_draw.h"
 183              		.file 10 "Lib/lvgl/src/draw/../core/../display/../misc/lv_event.h"
 184              		.file 11 "e:\\programms\\gnu_mcu_eclipse\\toolchain\\arm-gnu-toolchain-12.2.mpacbti-bet1-mingw-w64
ARM GAS  C:\Users\Alex\AppData\Local\Temp\ccqpHWLV.s 			page 7


 185              		.file 12 "Lib/lvgl/src/draw/../misc/../font/../draw/../misc/lv_area.h"
 186              		.file 13 "Lib/lvgl/src/draw/../misc/../font/../draw/../misc/lv_color.h"
 187              		.file 14 "Lib/lvgl/src/draw/../misc/../font/../draw/lv_image_buf.h"
 188              		.file 15 "Lib/lvgl/src/draw/../misc/../font/../draw/lv_draw_buf.h"
 189              		.file 16 "Lib/lvgl/src/draw/../misc/lv_ll.h"
 190              		.file 17 "Lib/lvgl/src/draw/../misc/lv_style.h"
 191              		.file 18 "Lib/lvgl/src/draw/lv_draw_mask.h"
 192              		.file 19 "Lib/lvgl/src/draw/../core/../display/../misc/lv_array.h"
 193              		.file 20 "Lib/lvgl/src/draw/../core/lv_obj_style.h"
 194              		.file 21 "Lib/lvgl/src/draw/../core/lv_obj_event.h"
 195              		.file 22 "Lib/lvgl/src/draw/../misc/../font/../draw/../misc/../stdlib/lv_mem.h"
ARM GAS  C:\Users\Alex\AppData\Local\Temp\ccqpHWLV.s 			page 8

