ARM GAS  C:\Users\Alex\AppData\Local\Temp\ccUzeV0Q.s 			page 1


   1              		.cpu cortex-m4
   2              		.arch armv7e-m
   3              		.fpu fpv4-sp-d16
   4              		.eabi_attribute 27, 1
   5              		.eabi_attribute 28, 1
   6              		.eabi_attribute 20, 1
   7              		.eabi_attribute 21, 1
   8              		.eabi_attribute 23, 3
   9              		.eabi_attribute 24, 1
  10              		.eabi_attribute 25, 1
  11              		.eabi_attribute 26, 1
  12              		.eabi_attribute 30, 1
  13              		.eabi_attribute 34, 1
  14              		.eabi_attribute 18, 4
  15              		.file	"lv_draw_sw_blend_to_rgb565.c"
  16              		.text
  17              	.Ltext0:
  18              		.cfi_sections	.debug_frame
  19              		.file 1 "Lib/lvgl/src/draw/sw/blend/lv_draw_sw_blend_to_rgb565.c"
  20              		.section	.text.lv_color_16_16_mix,"ax",%progbits
  21              		.align	1
  22              		.syntax unified
  23              		.thumb
  24              		.thumb_func
  26              	lv_color_16_16_mix:
  27              	.LVL0:
  28              	.LFB21:
  29              		.file 2 "c:\\users\\alex\\eclipse-workspace\\lvgs_test\\lib\\lvgl\\src\\misc\\lv_color.h"
   1:c:\users\alex\eclipse-workspace\lvgs_test\lib\lvgl\src\misc\lv_color.h **** /**
   2:c:\users\alex\eclipse-workspace\lvgs_test\lib\lvgl\src\misc\lv_color.h ****  * @file lv_color.h
   3:c:\users\alex\eclipse-workspace\lvgs_test\lib\lvgl\src\misc\lv_color.h ****  *
   4:c:\users\alex\eclipse-workspace\lvgs_test\lib\lvgl\src\misc\lv_color.h ****  */
   5:c:\users\alex\eclipse-workspace\lvgs_test\lib\lvgl\src\misc\lv_color.h **** 
   6:c:\users\alex\eclipse-workspace\lvgs_test\lib\lvgl\src\misc\lv_color.h **** #ifndef LV_COLOR_H
   7:c:\users\alex\eclipse-workspace\lvgs_test\lib\lvgl\src\misc\lv_color.h **** #define LV_COLOR_H
   8:c:\users\alex\eclipse-workspace\lvgs_test\lib\lvgl\src\misc\lv_color.h **** 
   9:c:\users\alex\eclipse-workspace\lvgs_test\lib\lvgl\src\misc\lv_color.h **** #ifdef __cplusplus
  10:c:\users\alex\eclipse-workspace\lvgs_test\lib\lvgl\src\misc\lv_color.h **** extern "C" {
  11:c:\users\alex\eclipse-workspace\lvgs_test\lib\lvgl\src\misc\lv_color.h **** #endif
  12:c:\users\alex\eclipse-workspace\lvgs_test\lib\lvgl\src\misc\lv_color.h **** 
  13:c:\users\alex\eclipse-workspace\lvgs_test\lib\lvgl\src\misc\lv_color.h **** /*********************
  14:c:\users\alex\eclipse-workspace\lvgs_test\lib\lvgl\src\misc\lv_color.h ****  *      INCLUDES
  15:c:\users\alex\eclipse-workspace\lvgs_test\lib\lvgl\src\misc\lv_color.h ****  *********************/
  16:c:\users\alex\eclipse-workspace\lvgs_test\lib\lvgl\src\misc\lv_color.h **** #include "../lv_conf_internal.h"
  17:c:\users\alex\eclipse-workspace\lvgs_test\lib\lvgl\src\misc\lv_color.h **** #include "lv_assert.h"
  18:c:\users\alex\eclipse-workspace\lvgs_test\lib\lvgl\src\misc\lv_color.h **** #include "lv_math.h"
  19:c:\users\alex\eclipse-workspace\lvgs_test\lib\lvgl\src\misc\lv_color.h **** #include "lv_types.h"
  20:c:\users\alex\eclipse-workspace\lvgs_test\lib\lvgl\src\misc\lv_color.h **** #include <stdint.h>
  21:c:\users\alex\eclipse-workspace\lvgs_test\lib\lvgl\src\misc\lv_color.h **** #include <stdbool.h>
  22:c:\users\alex\eclipse-workspace\lvgs_test\lib\lvgl\src\misc\lv_color.h **** 
  23:c:\users\alex\eclipse-workspace\lvgs_test\lib\lvgl\src\misc\lv_color.h **** /*********************
  24:c:\users\alex\eclipse-workspace\lvgs_test\lib\lvgl\src\misc\lv_color.h ****  *      DEFINES
  25:c:\users\alex\eclipse-workspace\lvgs_test\lib\lvgl\src\misc\lv_color.h ****  *********************/
  26:c:\users\alex\eclipse-workspace\lvgs_test\lib\lvgl\src\misc\lv_color.h **** LV_EXPORT_CONST_INT(LV_COLOR_DEPTH);
  27:c:\users\alex\eclipse-workspace\lvgs_test\lib\lvgl\src\misc\lv_color.h **** 
  28:c:\users\alex\eclipse-workspace\lvgs_test\lib\lvgl\src\misc\lv_color.h **** #if LV_COLOR_DEPTH == 8
  29:c:\users\alex\eclipse-workspace\lvgs_test\lib\lvgl\src\misc\lv_color.h **** #define _LV_COLOR_NATIVE_WITH_ALPHA_SIZE 2
ARM GAS  C:\Users\Alex\AppData\Local\Temp\ccUzeV0Q.s 			page 2


  30:c:\users\alex\eclipse-workspace\lvgs_test\lib\lvgl\src\misc\lv_color.h **** #elif LV_COLOR_DEPTH == 16
  31:c:\users\alex\eclipse-workspace\lvgs_test\lib\lvgl\src\misc\lv_color.h **** #define _LV_COLOR_NATIVE_WITH_ALPHA_SIZE 3
  32:c:\users\alex\eclipse-workspace\lvgs_test\lib\lvgl\src\misc\lv_color.h **** #elif LV_COLOR_DEPTH == 24
  33:c:\users\alex\eclipse-workspace\lvgs_test\lib\lvgl\src\misc\lv_color.h **** #define _LV_COLOR_NATIVE_WITH_ALPHA_SIZE 4
  34:c:\users\alex\eclipse-workspace\lvgs_test\lib\lvgl\src\misc\lv_color.h **** #elif LV_COLOR_DEPTH == 32
  35:c:\users\alex\eclipse-workspace\lvgs_test\lib\lvgl\src\misc\lv_color.h **** #define _LV_COLOR_NATIVE_WITH_ALPHA_SIZE 4
  36:c:\users\alex\eclipse-workspace\lvgs_test\lib\lvgl\src\misc\lv_color.h **** #endif
  37:c:\users\alex\eclipse-workspace\lvgs_test\lib\lvgl\src\misc\lv_color.h **** 
  38:c:\users\alex\eclipse-workspace\lvgs_test\lib\lvgl\src\misc\lv_color.h **** /**
  39:c:\users\alex\eclipse-workspace\lvgs_test\lib\lvgl\src\misc\lv_color.h ****  * Opacity percentages.
  40:c:\users\alex\eclipse-workspace\lvgs_test\lib\lvgl\src\misc\lv_color.h ****  */
  41:c:\users\alex\eclipse-workspace\lvgs_test\lib\lvgl\src\misc\lv_color.h **** 
  42:c:\users\alex\eclipse-workspace\lvgs_test\lib\lvgl\src\misc\lv_color.h **** enum _lv_opa_t {
  43:c:\users\alex\eclipse-workspace\lvgs_test\lib\lvgl\src\misc\lv_color.h ****     LV_OPA_TRANSP = 0,
  44:c:\users\alex\eclipse-workspace\lvgs_test\lib\lvgl\src\misc\lv_color.h ****     LV_OPA_0      = 0,
  45:c:\users\alex\eclipse-workspace\lvgs_test\lib\lvgl\src\misc\lv_color.h ****     LV_OPA_10     = 25,
  46:c:\users\alex\eclipse-workspace\lvgs_test\lib\lvgl\src\misc\lv_color.h ****     LV_OPA_20     = 51,
  47:c:\users\alex\eclipse-workspace\lvgs_test\lib\lvgl\src\misc\lv_color.h ****     LV_OPA_30     = 76,
  48:c:\users\alex\eclipse-workspace\lvgs_test\lib\lvgl\src\misc\lv_color.h ****     LV_OPA_40     = 102,
  49:c:\users\alex\eclipse-workspace\lvgs_test\lib\lvgl\src\misc\lv_color.h ****     LV_OPA_50     = 127,
  50:c:\users\alex\eclipse-workspace\lvgs_test\lib\lvgl\src\misc\lv_color.h ****     LV_OPA_60     = 153,
  51:c:\users\alex\eclipse-workspace\lvgs_test\lib\lvgl\src\misc\lv_color.h ****     LV_OPA_70     = 178,
  52:c:\users\alex\eclipse-workspace\lvgs_test\lib\lvgl\src\misc\lv_color.h ****     LV_OPA_80     = 204,
  53:c:\users\alex\eclipse-workspace\lvgs_test\lib\lvgl\src\misc\lv_color.h ****     LV_OPA_90     = 229,
  54:c:\users\alex\eclipse-workspace\lvgs_test\lib\lvgl\src\misc\lv_color.h ****     LV_OPA_100    = 255,
  55:c:\users\alex\eclipse-workspace\lvgs_test\lib\lvgl\src\misc\lv_color.h ****     LV_OPA_COVER  = 255,
  56:c:\users\alex\eclipse-workspace\lvgs_test\lib\lvgl\src\misc\lv_color.h **** };
  57:c:\users\alex\eclipse-workspace\lvgs_test\lib\lvgl\src\misc\lv_color.h **** 
  58:c:\users\alex\eclipse-workspace\lvgs_test\lib\lvgl\src\misc\lv_color.h **** #ifdef DOXYGEN
  59:c:\users\alex\eclipse-workspace\lvgs_test\lib\lvgl\src\misc\lv_color.h **** typedef _lv_opa_t lv_opa_t;
  60:c:\users\alex\eclipse-workspace\lvgs_test\lib\lvgl\src\misc\lv_color.h **** #else
  61:c:\users\alex\eclipse-workspace\lvgs_test\lib\lvgl\src\misc\lv_color.h **** typedef uint8_t lv_opa_t;
  62:c:\users\alex\eclipse-workspace\lvgs_test\lib\lvgl\src\misc\lv_color.h **** #endif /*DOXYGEN*/
  63:c:\users\alex\eclipse-workspace\lvgs_test\lib\lvgl\src\misc\lv_color.h **** 
  64:c:\users\alex\eclipse-workspace\lvgs_test\lib\lvgl\src\misc\lv_color.h **** #define LV_OPA_MIN 2    /*Opacities below this will be transparent*/
  65:c:\users\alex\eclipse-workspace\lvgs_test\lib\lvgl\src\misc\lv_color.h **** #define LV_OPA_MAX 253  /*Opacities above this will fully cover*/
  66:c:\users\alex\eclipse-workspace\lvgs_test\lib\lvgl\src\misc\lv_color.h **** 
  67:c:\users\alex\eclipse-workspace\lvgs_test\lib\lvgl\src\misc\lv_color.h **** #define LV_COLOR_FORMAT_GET_BPP(cf) (       \
  68:c:\users\alex\eclipse-workspace\lvgs_test\lib\lvgl\src\misc\lv_color.h ****                                             (cf) == LV_COLOR_FORMAT_I1 ? 1 :        \
  69:c:\users\alex\eclipse-workspace\lvgs_test\lib\lvgl\src\misc\lv_color.h ****                                             (cf) == LV_COLOR_FORMAT_A1 ? 1 :        \
  70:c:\users\alex\eclipse-workspace\lvgs_test\lib\lvgl\src\misc\lv_color.h ****                                             (cf) == LV_COLOR_FORMAT_I2 ? 2 :        \
  71:c:\users\alex\eclipse-workspace\lvgs_test\lib\lvgl\src\misc\lv_color.h ****                                             (cf) == LV_COLOR_FORMAT_A2 ? 2 :        \
  72:c:\users\alex\eclipse-workspace\lvgs_test\lib\lvgl\src\misc\lv_color.h ****                                             (cf) == LV_COLOR_FORMAT_I4 ? 4 :        \
  73:c:\users\alex\eclipse-workspace\lvgs_test\lib\lvgl\src\misc\lv_color.h ****                                             (cf) == LV_COLOR_FORMAT_A4 ? 4 :        \
  74:c:\users\alex\eclipse-workspace\lvgs_test\lib\lvgl\src\misc\lv_color.h ****                                             (cf) == LV_COLOR_FORMAT_L8 ? 8 :        \
  75:c:\users\alex\eclipse-workspace\lvgs_test\lib\lvgl\src\misc\lv_color.h ****                                             (cf) == LV_COLOR_FORMAT_A8 ? 8 :        \
  76:c:\users\alex\eclipse-workspace\lvgs_test\lib\lvgl\src\misc\lv_color.h ****                                             (cf) == LV_COLOR_FORMAT_I8 ? 8 :        \
  77:c:\users\alex\eclipse-workspace\lvgs_test\lib\lvgl\src\misc\lv_color.h ****                                             (cf) == LV_COLOR_FORMAT_RGB565 ? 16 :   \
  78:c:\users\alex\eclipse-workspace\lvgs_test\lib\lvgl\src\misc\lv_color.h ****                                             (cf) == LV_COLOR_FORMAT_RGB565A8 ? 24 : \
  79:c:\users\alex\eclipse-workspace\lvgs_test\lib\lvgl\src\misc\lv_color.h ****                                             (cf) == LV_COLOR_FORMAT_RGB888 ? 24 :   \
  80:c:\users\alex\eclipse-workspace\lvgs_test\lib\lvgl\src\misc\lv_color.h ****                                             (cf) == LV_COLOR_FORMAT_ARGB8888 ? 32 : \
  81:c:\users\alex\eclipse-workspace\lvgs_test\lib\lvgl\src\misc\lv_color.h ****                                             (cf) == LV_COLOR_FORMAT_XRGB8888 ? 32 : \
  82:c:\users\alex\eclipse-workspace\lvgs_test\lib\lvgl\src\misc\lv_color.h ****                                             0                                       \
  83:c:\users\alex\eclipse-workspace\lvgs_test\lib\lvgl\src\misc\lv_color.h ****                                     )
  84:c:\users\alex\eclipse-workspace\lvgs_test\lib\lvgl\src\misc\lv_color.h **** 
  85:c:\users\alex\eclipse-workspace\lvgs_test\lib\lvgl\src\misc\lv_color.h **** /**********************
  86:c:\users\alex\eclipse-workspace\lvgs_test\lib\lvgl\src\misc\lv_color.h ****  *      TYPEDEFS
ARM GAS  C:\Users\Alex\AppData\Local\Temp\ccUzeV0Q.s 			page 3


  87:c:\users\alex\eclipse-workspace\lvgs_test\lib\lvgl\src\misc\lv_color.h ****  **********************/
  88:c:\users\alex\eclipse-workspace\lvgs_test\lib\lvgl\src\misc\lv_color.h **** 
  89:c:\users\alex\eclipse-workspace\lvgs_test\lib\lvgl\src\misc\lv_color.h **** typedef struct {
  90:c:\users\alex\eclipse-workspace\lvgs_test\lib\lvgl\src\misc\lv_color.h ****     uint8_t blue;
  91:c:\users\alex\eclipse-workspace\lvgs_test\lib\lvgl\src\misc\lv_color.h ****     uint8_t green;
  92:c:\users\alex\eclipse-workspace\lvgs_test\lib\lvgl\src\misc\lv_color.h ****     uint8_t red;
  93:c:\users\alex\eclipse-workspace\lvgs_test\lib\lvgl\src\misc\lv_color.h **** } lv_color_t;
  94:c:\users\alex\eclipse-workspace\lvgs_test\lib\lvgl\src\misc\lv_color.h **** 
  95:c:\users\alex\eclipse-workspace\lvgs_test\lib\lvgl\src\misc\lv_color.h **** typedef struct {
  96:c:\users\alex\eclipse-workspace\lvgs_test\lib\lvgl\src\misc\lv_color.h ****     uint16_t blue : 5;
  97:c:\users\alex\eclipse-workspace\lvgs_test\lib\lvgl\src\misc\lv_color.h ****     uint16_t green : 6;
  98:c:\users\alex\eclipse-workspace\lvgs_test\lib\lvgl\src\misc\lv_color.h ****     uint16_t red : 5;
  99:c:\users\alex\eclipse-workspace\lvgs_test\lib\lvgl\src\misc\lv_color.h **** } lv_color16_t;
 100:c:\users\alex\eclipse-workspace\lvgs_test\lib\lvgl\src\misc\lv_color.h **** 
 101:c:\users\alex\eclipse-workspace\lvgs_test\lib\lvgl\src\misc\lv_color.h **** typedef struct {
 102:c:\users\alex\eclipse-workspace\lvgs_test\lib\lvgl\src\misc\lv_color.h ****     uint8_t blue;
 103:c:\users\alex\eclipse-workspace\lvgs_test\lib\lvgl\src\misc\lv_color.h ****     uint8_t green;
 104:c:\users\alex\eclipse-workspace\lvgs_test\lib\lvgl\src\misc\lv_color.h ****     uint8_t red;
 105:c:\users\alex\eclipse-workspace\lvgs_test\lib\lvgl\src\misc\lv_color.h ****     uint8_t alpha;
 106:c:\users\alex\eclipse-workspace\lvgs_test\lib\lvgl\src\misc\lv_color.h **** } lv_color32_t;
 107:c:\users\alex\eclipse-workspace\lvgs_test\lib\lvgl\src\misc\lv_color.h **** 
 108:c:\users\alex\eclipse-workspace\lvgs_test\lib\lvgl\src\misc\lv_color.h **** typedef struct {
 109:c:\users\alex\eclipse-workspace\lvgs_test\lib\lvgl\src\misc\lv_color.h ****     uint16_t h;
 110:c:\users\alex\eclipse-workspace\lvgs_test\lib\lvgl\src\misc\lv_color.h ****     uint8_t s;
 111:c:\users\alex\eclipse-workspace\lvgs_test\lib\lvgl\src\misc\lv_color.h ****     uint8_t v;
 112:c:\users\alex\eclipse-workspace\lvgs_test\lib\lvgl\src\misc\lv_color.h **** } lv_color_hsv_t;
 113:c:\users\alex\eclipse-workspace\lvgs_test\lib\lvgl\src\misc\lv_color.h **** 
 114:c:\users\alex\eclipse-workspace\lvgs_test\lib\lvgl\src\misc\lv_color.h **** enum _lv_color_format_t {
 115:c:\users\alex\eclipse-workspace\lvgs_test\lib\lvgl\src\misc\lv_color.h ****     LV_COLOR_FORMAT_UNKNOWN           = 0,
 116:c:\users\alex\eclipse-workspace\lvgs_test\lib\lvgl\src\misc\lv_color.h **** 
 117:c:\users\alex\eclipse-workspace\lvgs_test\lib\lvgl\src\misc\lv_color.h ****     LV_COLOR_FORMAT_RAW               = 0x01,
 118:c:\users\alex\eclipse-workspace\lvgs_test\lib\lvgl\src\misc\lv_color.h ****     LV_COLOR_FORMAT_RAW_ALPHA         = 0x02,
 119:c:\users\alex\eclipse-workspace\lvgs_test\lib\lvgl\src\misc\lv_color.h **** 
 120:c:\users\alex\eclipse-workspace\lvgs_test\lib\lvgl\src\misc\lv_color.h ****     /*<=1 byte (+alpha) formats*/
 121:c:\users\alex\eclipse-workspace\lvgs_test\lib\lvgl\src\misc\lv_color.h ****     LV_COLOR_FORMAT_L8                = 0x06,
 122:c:\users\alex\eclipse-workspace\lvgs_test\lib\lvgl\src\misc\lv_color.h ****     LV_COLOR_FORMAT_I1                = 0x07,
 123:c:\users\alex\eclipse-workspace\lvgs_test\lib\lvgl\src\misc\lv_color.h ****     LV_COLOR_FORMAT_I2                = 0x08,
 124:c:\users\alex\eclipse-workspace\lvgs_test\lib\lvgl\src\misc\lv_color.h ****     LV_COLOR_FORMAT_I4                = 0x09,
 125:c:\users\alex\eclipse-workspace\lvgs_test\lib\lvgl\src\misc\lv_color.h ****     LV_COLOR_FORMAT_I8                = 0x0A,
 126:c:\users\alex\eclipse-workspace\lvgs_test\lib\lvgl\src\misc\lv_color.h ****     LV_COLOR_FORMAT_A8                = 0x0E,
 127:c:\users\alex\eclipse-workspace\lvgs_test\lib\lvgl\src\misc\lv_color.h **** 
 128:c:\users\alex\eclipse-workspace\lvgs_test\lib\lvgl\src\misc\lv_color.h ****     /*2 byte (+alpha) formats*/
 129:c:\users\alex\eclipse-workspace\lvgs_test\lib\lvgl\src\misc\lv_color.h ****     LV_COLOR_FORMAT_RGB565            = 0x12,
 130:c:\users\alex\eclipse-workspace\lvgs_test\lib\lvgl\src\misc\lv_color.h ****     LV_COLOR_FORMAT_RGB565A8          = 0x14    /**< Color array followed by Alpha array*/,
 131:c:\users\alex\eclipse-workspace\lvgs_test\lib\lvgl\src\misc\lv_color.h **** 
 132:c:\users\alex\eclipse-workspace\lvgs_test\lib\lvgl\src\misc\lv_color.h ****     /*3 byte (+alpha) formats*/
 133:c:\users\alex\eclipse-workspace\lvgs_test\lib\lvgl\src\misc\lv_color.h ****     LV_COLOR_FORMAT_RGB888            = 0x0F,
 134:c:\users\alex\eclipse-workspace\lvgs_test\lib\lvgl\src\misc\lv_color.h ****     LV_COLOR_FORMAT_ARGB8888          = 0x10,
 135:c:\users\alex\eclipse-workspace\lvgs_test\lib\lvgl\src\misc\lv_color.h ****     LV_COLOR_FORMAT_XRGB8888          = 0x11,
 136:c:\users\alex\eclipse-workspace\lvgs_test\lib\lvgl\src\misc\lv_color.h **** 
 137:c:\users\alex\eclipse-workspace\lvgs_test\lib\lvgl\src\misc\lv_color.h ****     /*Formats not supported by software renderer but kept here so GPU can use it*/
 138:c:\users\alex\eclipse-workspace\lvgs_test\lib\lvgl\src\misc\lv_color.h ****     LV_COLOR_FORMAT_A1                = 0x0B,
 139:c:\users\alex\eclipse-workspace\lvgs_test\lib\lvgl\src\misc\lv_color.h ****     LV_COLOR_FORMAT_A2                = 0x0C,
 140:c:\users\alex\eclipse-workspace\lvgs_test\lib\lvgl\src\misc\lv_color.h ****     LV_COLOR_FORMAT_A4                = 0x0D,
 141:c:\users\alex\eclipse-workspace\lvgs_test\lib\lvgl\src\misc\lv_color.h **** 
 142:c:\users\alex\eclipse-workspace\lvgs_test\lib\lvgl\src\misc\lv_color.h ****     /* reference to https://wiki.videolan.org/YUV/ */
 143:c:\users\alex\eclipse-workspace\lvgs_test\lib\lvgl\src\misc\lv_color.h ****     /*YUV planar formats*/
ARM GAS  C:\Users\Alex\AppData\Local\Temp\ccUzeV0Q.s 			page 4


 144:c:\users\alex\eclipse-workspace\lvgs_test\lib\lvgl\src\misc\lv_color.h ****     LV_COLOR_FORMAT_YUV_START         = 0x20,
 145:c:\users\alex\eclipse-workspace\lvgs_test\lib\lvgl\src\misc\lv_color.h ****     LV_COLOR_FORMAT_I420              = LV_COLOR_FORMAT_YUV_START,  /*YUV420 planar(3 plane)*/
 146:c:\users\alex\eclipse-workspace\lvgs_test\lib\lvgl\src\misc\lv_color.h ****     LV_COLOR_FORMAT_I422              = 0x21,  /*YUV422 planar(3 plane)*/
 147:c:\users\alex\eclipse-workspace\lvgs_test\lib\lvgl\src\misc\lv_color.h ****     LV_COLOR_FORMAT_I444              = 0x22,  /*YUV444 planar(3 plane)*/
 148:c:\users\alex\eclipse-workspace\lvgs_test\lib\lvgl\src\misc\lv_color.h ****     LV_COLOR_FORMAT_I400              = 0x23,  /*YUV400 no chroma channel*/
 149:c:\users\alex\eclipse-workspace\lvgs_test\lib\lvgl\src\misc\lv_color.h ****     LV_COLOR_FORMAT_NV21              = 0x24,  /*YUV420 planar(2 plane), UV plane in 'V, U, V, U'*/
 150:c:\users\alex\eclipse-workspace\lvgs_test\lib\lvgl\src\misc\lv_color.h ****     LV_COLOR_FORMAT_NV12              = 0x25,  /*YUV420 planar(2 plane), UV plane in 'U, V, U, V'*/
 151:c:\users\alex\eclipse-workspace\lvgs_test\lib\lvgl\src\misc\lv_color.h **** 
 152:c:\users\alex\eclipse-workspace\lvgs_test\lib\lvgl\src\misc\lv_color.h ****     /*YUV packed formats*/
 153:c:\users\alex\eclipse-workspace\lvgs_test\lib\lvgl\src\misc\lv_color.h ****     LV_COLOR_FORMAT_YUY2              = 0x26,  /*YUV422 packed like 'Y U Y V'*/
 154:c:\users\alex\eclipse-workspace\lvgs_test\lib\lvgl\src\misc\lv_color.h ****     LV_COLOR_FORMAT_UYVY              = 0x27,  /*YUV422 packed like 'U Y V Y'*/
 155:c:\users\alex\eclipse-workspace\lvgs_test\lib\lvgl\src\misc\lv_color.h **** 
 156:c:\users\alex\eclipse-workspace\lvgs_test\lib\lvgl\src\misc\lv_color.h ****     LV_COLOR_FORMAT_YUV_END           = LV_COLOR_FORMAT_UYVY,
 157:c:\users\alex\eclipse-workspace\lvgs_test\lib\lvgl\src\misc\lv_color.h **** 
 158:c:\users\alex\eclipse-workspace\lvgs_test\lib\lvgl\src\misc\lv_color.h ****     /*Color formats in which LVGL can render*/
 159:c:\users\alex\eclipse-workspace\lvgs_test\lib\lvgl\src\misc\lv_color.h **** #if LV_COLOR_DEPTH == 8
 160:c:\users\alex\eclipse-workspace\lvgs_test\lib\lvgl\src\misc\lv_color.h ****     LV_COLOR_FORMAT_NATIVE            = LV_COLOR_FORMAT_L8,
 161:c:\users\alex\eclipse-workspace\lvgs_test\lib\lvgl\src\misc\lv_color.h **** #elif LV_COLOR_DEPTH == 16
 162:c:\users\alex\eclipse-workspace\lvgs_test\lib\lvgl\src\misc\lv_color.h ****     LV_COLOR_FORMAT_NATIVE            = LV_COLOR_FORMAT_RGB565,
 163:c:\users\alex\eclipse-workspace\lvgs_test\lib\lvgl\src\misc\lv_color.h ****     LV_COLOR_FORMAT_NATIVE_WITH_ALPHA = LV_COLOR_FORMAT_RGB565A8,
 164:c:\users\alex\eclipse-workspace\lvgs_test\lib\lvgl\src\misc\lv_color.h **** #elif LV_COLOR_DEPTH == 24
 165:c:\users\alex\eclipse-workspace\lvgs_test\lib\lvgl\src\misc\lv_color.h ****     LV_COLOR_FORMAT_NATIVE            = LV_COLOR_FORMAT_RGB888,
 166:c:\users\alex\eclipse-workspace\lvgs_test\lib\lvgl\src\misc\lv_color.h ****     LV_COLOR_FORMAT_NATIVE_WITH_ALPHA = LV_COLOR_FORMAT_ARGB8888,
 167:c:\users\alex\eclipse-workspace\lvgs_test\lib\lvgl\src\misc\lv_color.h **** #elif LV_COLOR_DEPTH == 32
 168:c:\users\alex\eclipse-workspace\lvgs_test\lib\lvgl\src\misc\lv_color.h ****     LV_COLOR_FORMAT_NATIVE            = LV_COLOR_FORMAT_XRGB8888,
 169:c:\users\alex\eclipse-workspace\lvgs_test\lib\lvgl\src\misc\lv_color.h ****     LV_COLOR_FORMAT_NATIVE_WITH_ALPHA = LV_COLOR_FORMAT_ARGB8888,
 170:c:\users\alex\eclipse-workspace\lvgs_test\lib\lvgl\src\misc\lv_color.h **** #endif
 171:c:\users\alex\eclipse-workspace\lvgs_test\lib\lvgl\src\misc\lv_color.h **** };
 172:c:\users\alex\eclipse-workspace\lvgs_test\lib\lvgl\src\misc\lv_color.h **** 
 173:c:\users\alex\eclipse-workspace\lvgs_test\lib\lvgl\src\misc\lv_color.h **** #ifdef DOXYGEN
 174:c:\users\alex\eclipse-workspace\lvgs_test\lib\lvgl\src\misc\lv_color.h **** typedef _lv_color_format_t lv_color_format_t;
 175:c:\users\alex\eclipse-workspace\lvgs_test\lib\lvgl\src\misc\lv_color.h **** #else
 176:c:\users\alex\eclipse-workspace\lvgs_test\lib\lvgl\src\misc\lv_color.h **** typedef uint8_t lv_color_format_t;
 177:c:\users\alex\eclipse-workspace\lvgs_test\lib\lvgl\src\misc\lv_color.h **** #endif /*DOXYGEN*/
 178:c:\users\alex\eclipse-workspace\lvgs_test\lib\lvgl\src\misc\lv_color.h **** 
 179:c:\users\alex\eclipse-workspace\lvgs_test\lib\lvgl\src\misc\lv_color.h **** #define LV_COLOR_FORMAT_IS_ALPHA_ONLY(cf) ((cf) >= LV_COLOR_FORMAT_A1 && (cf) <= LV_COLOR_FORMAT_A8
 180:c:\users\alex\eclipse-workspace\lvgs_test\lib\lvgl\src\misc\lv_color.h **** #define LV_COLOR_FORMAT_IS_INDEXED(cf) ((cf) >= LV_COLOR_FORMAT_I1 && (cf) <= LV_COLOR_FORMAT_I8)
 181:c:\users\alex\eclipse-workspace\lvgs_test\lib\lvgl\src\misc\lv_color.h **** #define LV_COLOR_FORMAT_IS_YUV(cf)  ((cf) >= LV_COLOR_FORMAT_YUV_START && (cf) <= LV_COLOR_FORMAT_Y
 182:c:\users\alex\eclipse-workspace\lvgs_test\lib\lvgl\src\misc\lv_color.h **** #define LV_COLOR_INDEXED_PALETTE_SIZE(cf) ((cf) == LV_COLOR_FORMAT_I1 ? 2 :\
 183:c:\users\alex\eclipse-workspace\lvgs_test\lib\lvgl\src\misc\lv_color.h ****                                            (cf) == LV_COLOR_FORMAT_I2 ? 4 :\
 184:c:\users\alex\eclipse-workspace\lvgs_test\lib\lvgl\src\misc\lv_color.h ****                                            (cf) == LV_COLOR_FORMAT_I4 ? 16 :\
 185:c:\users\alex\eclipse-workspace\lvgs_test\lib\lvgl\src\misc\lv_color.h ****                                            (cf) == LV_COLOR_FORMAT_I8 ? 256 : 0)
 186:c:\users\alex\eclipse-workspace\lvgs_test\lib\lvgl\src\misc\lv_color.h **** 
 187:c:\users\alex\eclipse-workspace\lvgs_test\lib\lvgl\src\misc\lv_color.h **** /**********************
 188:c:\users\alex\eclipse-workspace\lvgs_test\lib\lvgl\src\misc\lv_color.h ****  * MACROS
 189:c:\users\alex\eclipse-workspace\lvgs_test\lib\lvgl\src\misc\lv_color.h ****  **********************/
 190:c:\users\alex\eclipse-workspace\lvgs_test\lib\lvgl\src\misc\lv_color.h **** 
 191:c:\users\alex\eclipse-workspace\lvgs_test\lib\lvgl\src\misc\lv_color.h **** #define LV_COLOR_MAKE(r8, g8, b8) {b8, g8, r8}
 192:c:\users\alex\eclipse-workspace\lvgs_test\lib\lvgl\src\misc\lv_color.h **** 
 193:c:\users\alex\eclipse-workspace\lvgs_test\lib\lvgl\src\misc\lv_color.h **** #define LV_OPA_MIX2(a1, a2) (((int32_t)(a1) * (a2)) >> 8)
 194:c:\users\alex\eclipse-workspace\lvgs_test\lib\lvgl\src\misc\lv_color.h **** #define LV_OPA_MIX3(a1, a2, a3) (((int32_t)(a1) * (a2) * (a3)) >> 16)
 195:c:\users\alex\eclipse-workspace\lvgs_test\lib\lvgl\src\misc\lv_color.h **** 
 196:c:\users\alex\eclipse-workspace\lvgs_test\lib\lvgl\src\misc\lv_color.h **** /**********************
 197:c:\users\alex\eclipse-workspace\lvgs_test\lib\lvgl\src\misc\lv_color.h ****  * GLOBAL PROTOTYPES
 198:c:\users\alex\eclipse-workspace\lvgs_test\lib\lvgl\src\misc\lv_color.h ****  **********************/
 199:c:\users\alex\eclipse-workspace\lvgs_test\lib\lvgl\src\misc\lv_color.h **** 
 200:c:\users\alex\eclipse-workspace\lvgs_test\lib\lvgl\src\misc\lv_color.h **** /**
ARM GAS  C:\Users\Alex\AppData\Local\Temp\ccUzeV0Q.s 			page 5


 201:c:\users\alex\eclipse-workspace\lvgs_test\lib\lvgl\src\misc\lv_color.h ****  * Get the pixel size of a color format in bits, bpp
 202:c:\users\alex\eclipse-workspace\lvgs_test\lib\lvgl\src\misc\lv_color.h ****  * @param src_cf    a color format (`LV_COLOR_FORMAT_...`)
 203:c:\users\alex\eclipse-workspace\lvgs_test\lib\lvgl\src\misc\lv_color.h ****  * @return          the pixel size in bits
 204:c:\users\alex\eclipse-workspace\lvgs_test\lib\lvgl\src\misc\lv_color.h ****  */
 205:c:\users\alex\eclipse-workspace\lvgs_test\lib\lvgl\src\misc\lv_color.h **** uint8_t lv_color_format_get_bpp(lv_color_format_t cf);
 206:c:\users\alex\eclipse-workspace\lvgs_test\lib\lvgl\src\misc\lv_color.h **** 
 207:c:\users\alex\eclipse-workspace\lvgs_test\lib\lvgl\src\misc\lv_color.h **** /**
 208:c:\users\alex\eclipse-workspace\lvgs_test\lib\lvgl\src\misc\lv_color.h ****  * Get the pixel size of a color format in bytes
 209:c:\users\alex\eclipse-workspace\lvgs_test\lib\lvgl\src\misc\lv_color.h ****  * @param src_cf    a color format (`LV_COLOR_FORMAT_...`)
 210:c:\users\alex\eclipse-workspace\lvgs_test\lib\lvgl\src\misc\lv_color.h ****  * @return          the pixel size in bytes
 211:c:\users\alex\eclipse-workspace\lvgs_test\lib\lvgl\src\misc\lv_color.h ****  */
 212:c:\users\alex\eclipse-workspace\lvgs_test\lib\lvgl\src\misc\lv_color.h **** static inline uint8_t lv_color_format_get_size(lv_color_format_t cf)
 213:c:\users\alex\eclipse-workspace\lvgs_test\lib\lvgl\src\misc\lv_color.h **** {
 214:c:\users\alex\eclipse-workspace\lvgs_test\lib\lvgl\src\misc\lv_color.h ****     return (lv_color_format_get_bpp(cf) + 7) >> 3;
 215:c:\users\alex\eclipse-workspace\lvgs_test\lib\lvgl\src\misc\lv_color.h **** }
 216:c:\users\alex\eclipse-workspace\lvgs_test\lib\lvgl\src\misc\lv_color.h **** 
 217:c:\users\alex\eclipse-workspace\lvgs_test\lib\lvgl\src\misc\lv_color.h **** /**
 218:c:\users\alex\eclipse-workspace\lvgs_test\lib\lvgl\src\misc\lv_color.h ****  * Check if a color format has alpha channel or not
 219:c:\users\alex\eclipse-workspace\lvgs_test\lib\lvgl\src\misc\lv_color.h ****  * @param src_cf    a color format (`LV_COLOR_FORMAT_...`)
 220:c:\users\alex\eclipse-workspace\lvgs_test\lib\lvgl\src\misc\lv_color.h ****  * @return          true: has alpha channel; false: doesn't have alpha channel
 221:c:\users\alex\eclipse-workspace\lvgs_test\lib\lvgl\src\misc\lv_color.h ****  */
 222:c:\users\alex\eclipse-workspace\lvgs_test\lib\lvgl\src\misc\lv_color.h **** bool lv_color_format_has_alpha(lv_color_format_t src_cf);
 223:c:\users\alex\eclipse-workspace\lvgs_test\lib\lvgl\src\misc\lv_color.h **** 
 224:c:\users\alex\eclipse-workspace\lvgs_test\lib\lvgl\src\misc\lv_color.h **** /**
 225:c:\users\alex\eclipse-workspace\lvgs_test\lib\lvgl\src\misc\lv_color.h ****  * Create an ARGB8888 color from RGB888 + alpha
 226:c:\users\alex\eclipse-workspace\lvgs_test\lib\lvgl\src\misc\lv_color.h ****  * @param color     an RGB888 color
 227:c:\users\alex\eclipse-workspace\lvgs_test\lib\lvgl\src\misc\lv_color.h ****  * @param opa       the alpha value
 228:c:\users\alex\eclipse-workspace\lvgs_test\lib\lvgl\src\misc\lv_color.h ****  * @return          the ARGB8888 color
 229:c:\users\alex\eclipse-workspace\lvgs_test\lib\lvgl\src\misc\lv_color.h ****  */
 230:c:\users\alex\eclipse-workspace\lvgs_test\lib\lvgl\src\misc\lv_color.h **** lv_color32_t lv_color_to_32(lv_color_t color, lv_opa_t opa);
 231:c:\users\alex\eclipse-workspace\lvgs_test\lib\lvgl\src\misc\lv_color.h **** 
 232:c:\users\alex\eclipse-workspace\lvgs_test\lib\lvgl\src\misc\lv_color.h **** /**
 233:c:\users\alex\eclipse-workspace\lvgs_test\lib\lvgl\src\misc\lv_color.h ****  * Convert an RGB888 color to an integer
 234:c:\users\alex\eclipse-workspace\lvgs_test\lib\lvgl\src\misc\lv_color.h ****  * @param c     an RGB888 color
 235:c:\users\alex\eclipse-workspace\lvgs_test\lib\lvgl\src\misc\lv_color.h ****  * @return      `c` as an integer
 236:c:\users\alex\eclipse-workspace\lvgs_test\lib\lvgl\src\misc\lv_color.h ****  */
 237:c:\users\alex\eclipse-workspace\lvgs_test\lib\lvgl\src\misc\lv_color.h **** static inline uint32_t lv_color_to_int(lv_color_t c)
 238:c:\users\alex\eclipse-workspace\lvgs_test\lib\lvgl\src\misc\lv_color.h **** {
 239:c:\users\alex\eclipse-workspace\lvgs_test\lib\lvgl\src\misc\lv_color.h ****     uint8_t * tmp = (uint8_t *) &c;
 240:c:\users\alex\eclipse-workspace\lvgs_test\lib\lvgl\src\misc\lv_color.h ****     return tmp[0] + (tmp[1] << 8) + (tmp[2] << 16);
 241:c:\users\alex\eclipse-workspace\lvgs_test\lib\lvgl\src\misc\lv_color.h **** }
 242:c:\users\alex\eclipse-workspace\lvgs_test\lib\lvgl\src\misc\lv_color.h **** 
 243:c:\users\alex\eclipse-workspace\lvgs_test\lib\lvgl\src\misc\lv_color.h **** /**
 244:c:\users\alex\eclipse-workspace\lvgs_test\lib\lvgl\src\misc\lv_color.h ****  * Check if two RGB888 color are equal
 245:c:\users\alex\eclipse-workspace\lvgs_test\lib\lvgl\src\misc\lv_color.h ****  * @param c1    the first color
 246:c:\users\alex\eclipse-workspace\lvgs_test\lib\lvgl\src\misc\lv_color.h ****  * @param c2    the second color
 247:c:\users\alex\eclipse-workspace\lvgs_test\lib\lvgl\src\misc\lv_color.h ****  * @return      true: equal
 248:c:\users\alex\eclipse-workspace\lvgs_test\lib\lvgl\src\misc\lv_color.h ****  */
 249:c:\users\alex\eclipse-workspace\lvgs_test\lib\lvgl\src\misc\lv_color.h **** static inline bool lv_color_eq(lv_color_t c1, lv_color_t c2)
 250:c:\users\alex\eclipse-workspace\lvgs_test\lib\lvgl\src\misc\lv_color.h **** {
 251:c:\users\alex\eclipse-workspace\lvgs_test\lib\lvgl\src\misc\lv_color.h ****     return lv_color_to_int(c1) == lv_color_to_int(c2);
 252:c:\users\alex\eclipse-workspace\lvgs_test\lib\lvgl\src\misc\lv_color.h **** }
 253:c:\users\alex\eclipse-workspace\lvgs_test\lib\lvgl\src\misc\lv_color.h **** 
 254:c:\users\alex\eclipse-workspace\lvgs_test\lib\lvgl\src\misc\lv_color.h **** /**
 255:c:\users\alex\eclipse-workspace\lvgs_test\lib\lvgl\src\misc\lv_color.h ****  * Check if two ARGB8888 color are equal
 256:c:\users\alex\eclipse-workspace\lvgs_test\lib\lvgl\src\misc\lv_color.h ****  * @param c1    the first color
 257:c:\users\alex\eclipse-workspace\lvgs_test\lib\lvgl\src\misc\lv_color.h ****  * @param c2    the second color
ARM GAS  C:\Users\Alex\AppData\Local\Temp\ccUzeV0Q.s 			page 6


 258:c:\users\alex\eclipse-workspace\lvgs_test\lib\lvgl\src\misc\lv_color.h ****  * @return      true: equal
 259:c:\users\alex\eclipse-workspace\lvgs_test\lib\lvgl\src\misc\lv_color.h ****  */
 260:c:\users\alex\eclipse-workspace\lvgs_test\lib\lvgl\src\misc\lv_color.h **** static inline bool lv_color32_eq(lv_color32_t c1, lv_color32_t c2)
 261:c:\users\alex\eclipse-workspace\lvgs_test\lib\lvgl\src\misc\lv_color.h **** {
 262:c:\users\alex\eclipse-workspace\lvgs_test\lib\lvgl\src\misc\lv_color.h ****     return *((uint32_t *)&c1) == *((uint32_t *)&c2);
 263:c:\users\alex\eclipse-workspace\lvgs_test\lib\lvgl\src\misc\lv_color.h **** }
 264:c:\users\alex\eclipse-workspace\lvgs_test\lib\lvgl\src\misc\lv_color.h **** 
 265:c:\users\alex\eclipse-workspace\lvgs_test\lib\lvgl\src\misc\lv_color.h **** /**
 266:c:\users\alex\eclipse-workspace\lvgs_test\lib\lvgl\src\misc\lv_color.h ****  * Create a color from 0x000000..0xffffff input
 267:c:\users\alex\eclipse-workspace\lvgs_test\lib\lvgl\src\misc\lv_color.h ****  * @param c     the hex input
 268:c:\users\alex\eclipse-workspace\lvgs_test\lib\lvgl\src\misc\lv_color.h ****  * @return      the color
 269:c:\users\alex\eclipse-workspace\lvgs_test\lib\lvgl\src\misc\lv_color.h ****  */
 270:c:\users\alex\eclipse-workspace\lvgs_test\lib\lvgl\src\misc\lv_color.h **** static inline lv_color_t lv_color_hex(uint32_t c)
 271:c:\users\alex\eclipse-workspace\lvgs_test\lib\lvgl\src\misc\lv_color.h **** {
 272:c:\users\alex\eclipse-workspace\lvgs_test\lib\lvgl\src\misc\lv_color.h ****     lv_color_t ret;
 273:c:\users\alex\eclipse-workspace\lvgs_test\lib\lvgl\src\misc\lv_color.h ****     ret.red = (c >> 16) & 0xff;
 274:c:\users\alex\eclipse-workspace\lvgs_test\lib\lvgl\src\misc\lv_color.h ****     ret.green = (c >> 8) & 0xff;
 275:c:\users\alex\eclipse-workspace\lvgs_test\lib\lvgl\src\misc\lv_color.h ****     ret.blue = (c >> 0) & 0xff;
 276:c:\users\alex\eclipse-workspace\lvgs_test\lib\lvgl\src\misc\lv_color.h ****     return ret;
 277:c:\users\alex\eclipse-workspace\lvgs_test\lib\lvgl\src\misc\lv_color.h **** }
 278:c:\users\alex\eclipse-workspace\lvgs_test\lib\lvgl\src\misc\lv_color.h **** 
 279:c:\users\alex\eclipse-workspace\lvgs_test\lib\lvgl\src\misc\lv_color.h **** /**
 280:c:\users\alex\eclipse-workspace\lvgs_test\lib\lvgl\src\misc\lv_color.h ****  * Create an RGB888 color
 281:c:\users\alex\eclipse-workspace\lvgs_test\lib\lvgl\src\misc\lv_color.h ****  * @param r     the red channel (0..255)
 282:c:\users\alex\eclipse-workspace\lvgs_test\lib\lvgl\src\misc\lv_color.h ****  * @param g     the green channel (0..255)
 283:c:\users\alex\eclipse-workspace\lvgs_test\lib\lvgl\src\misc\lv_color.h ****  * @param b     the blue channel (0..255)
 284:c:\users\alex\eclipse-workspace\lvgs_test\lib\lvgl\src\misc\lv_color.h ****  * @return      the color
 285:c:\users\alex\eclipse-workspace\lvgs_test\lib\lvgl\src\misc\lv_color.h ****  */
 286:c:\users\alex\eclipse-workspace\lvgs_test\lib\lvgl\src\misc\lv_color.h **** static inline lv_color_t lv_color_make(uint8_t r, uint8_t g, uint8_t b)
 287:c:\users\alex\eclipse-workspace\lvgs_test\lib\lvgl\src\misc\lv_color.h **** {
 288:c:\users\alex\eclipse-workspace\lvgs_test\lib\lvgl\src\misc\lv_color.h ****     lv_color_t ret;
 289:c:\users\alex\eclipse-workspace\lvgs_test\lib\lvgl\src\misc\lv_color.h ****     ret.red = r;
 290:c:\users\alex\eclipse-workspace\lvgs_test\lib\lvgl\src\misc\lv_color.h ****     ret.green = g;
 291:c:\users\alex\eclipse-workspace\lvgs_test\lib\lvgl\src\misc\lv_color.h ****     ret.blue = b;
 292:c:\users\alex\eclipse-workspace\lvgs_test\lib\lvgl\src\misc\lv_color.h ****     return ret;
 293:c:\users\alex\eclipse-workspace\lvgs_test\lib\lvgl\src\misc\lv_color.h **** }
 294:c:\users\alex\eclipse-workspace\lvgs_test\lib\lvgl\src\misc\lv_color.h **** 
 295:c:\users\alex\eclipse-workspace\lvgs_test\lib\lvgl\src\misc\lv_color.h **** /**
 296:c:\users\alex\eclipse-workspace\lvgs_test\lib\lvgl\src\misc\lv_color.h ****  * Create an ARGB8888 color
 297:c:\users\alex\eclipse-workspace\lvgs_test\lib\lvgl\src\misc\lv_color.h ****  * @param r     the red channel (0..255)
 298:c:\users\alex\eclipse-workspace\lvgs_test\lib\lvgl\src\misc\lv_color.h ****  * @param g     the green channel (0..255)
 299:c:\users\alex\eclipse-workspace\lvgs_test\lib\lvgl\src\misc\lv_color.h ****  * @param b     the blue channel (0..255)
 300:c:\users\alex\eclipse-workspace\lvgs_test\lib\lvgl\src\misc\lv_color.h ****  * @param a     the alpha channel (0..255)
 301:c:\users\alex\eclipse-workspace\lvgs_test\lib\lvgl\src\misc\lv_color.h ****  * @return      the color
 302:c:\users\alex\eclipse-workspace\lvgs_test\lib\lvgl\src\misc\lv_color.h ****  */
 303:c:\users\alex\eclipse-workspace\lvgs_test\lib\lvgl\src\misc\lv_color.h **** static inline lv_color32_t lv_color32_make(uint8_t r, uint8_t g, uint8_t b, uint8_t a)
 304:c:\users\alex\eclipse-workspace\lvgs_test\lib\lvgl\src\misc\lv_color.h **** {
 305:c:\users\alex\eclipse-workspace\lvgs_test\lib\lvgl\src\misc\lv_color.h ****     lv_color32_t ret;
 306:c:\users\alex\eclipse-workspace\lvgs_test\lib\lvgl\src\misc\lv_color.h ****     ret.red = r;
 307:c:\users\alex\eclipse-workspace\lvgs_test\lib\lvgl\src\misc\lv_color.h ****     ret.green = g;
 308:c:\users\alex\eclipse-workspace\lvgs_test\lib\lvgl\src\misc\lv_color.h ****     ret.blue = b;
 309:c:\users\alex\eclipse-workspace\lvgs_test\lib\lvgl\src\misc\lv_color.h ****     ret.alpha = a;
 310:c:\users\alex\eclipse-workspace\lvgs_test\lib\lvgl\src\misc\lv_color.h ****     return ret;
 311:c:\users\alex\eclipse-workspace\lvgs_test\lib\lvgl\src\misc\lv_color.h **** }
 312:c:\users\alex\eclipse-workspace\lvgs_test\lib\lvgl\src\misc\lv_color.h **** 
 313:c:\users\alex\eclipse-workspace\lvgs_test\lib\lvgl\src\misc\lv_color.h **** /**
 314:c:\users\alex\eclipse-workspace\lvgs_test\lib\lvgl\src\misc\lv_color.h ****  * Create a color from 0x000..0xfff input
ARM GAS  C:\Users\Alex\AppData\Local\Temp\ccUzeV0Q.s 			page 7


 315:c:\users\alex\eclipse-workspace\lvgs_test\lib\lvgl\src\misc\lv_color.h ****  * @param c     the hex input (e.g. 0x123 will be 0x112233)
 316:c:\users\alex\eclipse-workspace\lvgs_test\lib\lvgl\src\misc\lv_color.h ****  * @return      the color
 317:c:\users\alex\eclipse-workspace\lvgs_test\lib\lvgl\src\misc\lv_color.h ****  */
 318:c:\users\alex\eclipse-workspace\lvgs_test\lib\lvgl\src\misc\lv_color.h **** static inline lv_color_t lv_color_hex3(uint32_t c)
 319:c:\users\alex\eclipse-workspace\lvgs_test\lib\lvgl\src\misc\lv_color.h **** {
 320:c:\users\alex\eclipse-workspace\lvgs_test\lib\lvgl\src\misc\lv_color.h ****     return lv_color_make((uint8_t)(((c >> 4) & 0xF0) | ((c >> 8) & 0xF)), (uint8_t)((c & 0xF0) | ((
 321:c:\users\alex\eclipse-workspace\lvgs_test\lib\lvgl\src\misc\lv_color.h ****                          (uint8_t)((c & 0xF) | ((c & 0xF) << 4)));
 322:c:\users\alex\eclipse-workspace\lvgs_test\lib\lvgl\src\misc\lv_color.h **** }
 323:c:\users\alex\eclipse-workspace\lvgs_test\lib\lvgl\src\misc\lv_color.h **** 
 324:c:\users\alex\eclipse-workspace\lvgs_test\lib\lvgl\src\misc\lv_color.h **** /**
 325:c:\users\alex\eclipse-workspace\lvgs_test\lib\lvgl\src\misc\lv_color.h ****  * Convert am RGB888 color to RGB565 stored in `uint16_t`
 326:c:\users\alex\eclipse-workspace\lvgs_test\lib\lvgl\src\misc\lv_color.h ****  * @param color     and RGB888 color
 327:c:\users\alex\eclipse-workspace\lvgs_test\lib\lvgl\src\misc\lv_color.h ****  * @return          `color` as RGB565 on `uin16_t`
 328:c:\users\alex\eclipse-workspace\lvgs_test\lib\lvgl\src\misc\lv_color.h ****  */
 329:c:\users\alex\eclipse-workspace\lvgs_test\lib\lvgl\src\misc\lv_color.h **** uint16_t lv_color_to_u16(lv_color_t color);
 330:c:\users\alex\eclipse-workspace\lvgs_test\lib\lvgl\src\misc\lv_color.h **** 
 331:c:\users\alex\eclipse-workspace\lvgs_test\lib\lvgl\src\misc\lv_color.h **** /**
 332:c:\users\alex\eclipse-workspace\lvgs_test\lib\lvgl\src\misc\lv_color.h ****  * Convert am RGB888 color to XRGB8888 stored in `uint32_t`
 333:c:\users\alex\eclipse-workspace\lvgs_test\lib\lvgl\src\misc\lv_color.h ****  * @param color     and RGB888 color
 334:c:\users\alex\eclipse-workspace\lvgs_test\lib\lvgl\src\misc\lv_color.h ****  * @return          `color` as XRGB8888 on `uin32_t` (the alpha channel is always set to 0xFF)
 335:c:\users\alex\eclipse-workspace\lvgs_test\lib\lvgl\src\misc\lv_color.h ****  */
 336:c:\users\alex\eclipse-workspace\lvgs_test\lib\lvgl\src\misc\lv_color.h **** uint32_t lv_color_to_u32(lv_color_t color);
 337:c:\users\alex\eclipse-workspace\lvgs_test\lib\lvgl\src\misc\lv_color.h **** 
 338:c:\users\alex\eclipse-workspace\lvgs_test\lib\lvgl\src\misc\lv_color.h **** /**
 339:c:\users\alex\eclipse-workspace\lvgs_test\lib\lvgl\src\misc\lv_color.h ****  * Mix two RGB565 colors
 340:c:\users\alex\eclipse-workspace\lvgs_test\lib\lvgl\src\misc\lv_color.h ****  * @param c1        the first color (typically the foreground color)
 341:c:\users\alex\eclipse-workspace\lvgs_test\lib\lvgl\src\misc\lv_color.h ****  * @param c2        the second color  (typically the background color)
 342:c:\users\alex\eclipse-workspace\lvgs_test\lib\lvgl\src\misc\lv_color.h ****  * @param mix       0..255, or LV_OPA_0/10/20...
 343:c:\users\alex\eclipse-workspace\lvgs_test\lib\lvgl\src\misc\lv_color.h ****  * @return          mix == 0: c2
 344:c:\users\alex\eclipse-workspace\lvgs_test\lib\lvgl\src\misc\lv_color.h ****  *                  mix == 255: c1
 345:c:\users\alex\eclipse-workspace\lvgs_test\lib\lvgl\src\misc\lv_color.h ****  *                  mix == 128: 0.5 x c1 + 0.5 x c2
 346:c:\users\alex\eclipse-workspace\lvgs_test\lib\lvgl\src\misc\lv_color.h ****  */
 347:c:\users\alex\eclipse-workspace\lvgs_test\lib\lvgl\src\misc\lv_color.h **** LV_ATTRIBUTE_FAST_MEM static inline uint16_t lv_color_16_16_mix(uint16_t c1, uint16_t c2, uint8_t m
 348:c:\users\alex\eclipse-workspace\lvgs_test\lib\lvgl\src\misc\lv_color.h **** {
  30              		.loc 2 348 1 view -0
  31              		.cfi_startproc
  32              		@ args = 0, pretend = 0, frame = 0
  33              		@ frame_needed = 0, uses_anonymous_args = 0
  34              		@ link register save eliminated.
 349:c:\users\alex\eclipse-workspace\lvgs_test\lib\lvgl\src\misc\lv_color.h ****     if(mix == 255) return c1;
  35              		.loc 2 349 5 view .LVU1
  36              		.loc 2 349 7 is_stmt 0 view .LVU2
  37 0000 FF2A     		cmp	r2, #255
  38 0002 14D0     		beq	.L2
 350:c:\users\alex\eclipse-workspace\lvgs_test\lib\lvgl\src\misc\lv_color.h ****     if(mix == 0) return c2;
  39              		.loc 2 350 5 is_stmt 1 view .LVU3
  40              		.loc 2 350 7 is_stmt 0 view .LVU4
  41 0004 92B1     		cbz	r2, .L4
 351:c:\users\alex\eclipse-workspace\lvgs_test\lib\lvgl\src\misc\lv_color.h **** 
 352:c:\users\alex\eclipse-workspace\lvgs_test\lib\lvgl\src\misc\lv_color.h ****     uint16_t ret;
  42              		.loc 2 352 5 is_stmt 1 view .LVU5
 353:c:\users\alex\eclipse-workspace\lvgs_test\lib\lvgl\src\misc\lv_color.h **** 
 354:c:\users\alex\eclipse-workspace\lvgs_test\lib\lvgl\src\misc\lv_color.h ****     /* Source: https://stackoverflow.com/a/50012418/1999969*/
 355:c:\users\alex\eclipse-workspace\lvgs_test\lib\lvgl\src\misc\lv_color.h ****     mix = (uint32_t)((uint32_t)mix + 4) >> 3;
  43              		.loc 2 355 5 view .LVU6
  44              		.loc 2 355 11 is_stmt 0 view .LVU7
  45 0006 0432     		adds	r2, r2, #4
ARM GAS  C:\Users\Alex\AppData\Local\Temp\ccUzeV0Q.s 			page 8


  46              	.LVL1:
 356:c:\users\alex\eclipse-workspace\lvgs_test\lib\lvgl\src\misc\lv_color.h **** 
 357:c:\users\alex\eclipse-workspace\lvgs_test\lib\lvgl\src\misc\lv_color.h ****     /*0x7E0F81F = 0b00000111111000001111100000011111*/
 358:c:\users\alex\eclipse-workspace\lvgs_test\lib\lvgl\src\misc\lv_color.h ****     uint32_t bg = (uint32_t)(c2 | ((uint32_t)c2 << 16)) & 0x7E0F81F;
  47              		.loc 2 358 5 is_stmt 1 view .LVU8
  48              		.loc 2 358 19 is_stmt 0 view .LVU9
  49 0008 01EB0141 		add	r1, r1, r1, lsl #16
  50              	.LVL2:
  51              		.loc 2 358 14 view .LVU10
  52 000c 084B     		ldr	r3, .L5
  53 000e 1940     		ands	r1, r1, r3
  54              	.LVL3:
 359:c:\users\alex\eclipse-workspace\lvgs_test\lib\lvgl\src\misc\lv_color.h ****     uint32_t fg = (uint32_t)(c1 | ((uint32_t)c1 << 16)) & 0x7E0F81F;
  55              		.loc 2 359 5 is_stmt 1 view .LVU11
  56              		.loc 2 359 19 is_stmt 0 view .LVU12
  57 0010 00EB0040 		add	r0, r0, r0, lsl #16
  58              	.LVL4:
  59              		.loc 2 359 14 view .LVU13
  60 0014 1840     		ands	r0, r0, r3
  61              	.LVL5:
 360:c:\users\alex\eclipse-workspace\lvgs_test\lib\lvgl\src\misc\lv_color.h ****     uint32_t result = ((((fg - bg) * mix) >> 5) + bg) & 0x7E0F81F;
  62              		.loc 2 360 5 is_stmt 1 view .LVU14
  63              		.loc 2 360 30 is_stmt 0 view .LVU15
  64 0016 401A     		subs	r0, r0, r1
  65              	.LVL6:
  66              		.loc 2 360 36 view .LVU16
  67 0018 D208     		lsrs	r2, r2, #3
  68              	.LVL7:
  69              		.loc 2 360 36 view .LVU17
  70 001a 00FB02F2 		mul	r2, r0, r2
  71              		.loc 2 360 49 view .LVU18
  72 001e 01EB5211 		add	r1, r1, r2, lsr #5
  73              	.LVL8:
  74              		.loc 2 360 14 view .LVU19
  75 0022 1940     		ands	r1, r1, r3
  76              	.LVL9:
 361:c:\users\alex\eclipse-workspace\lvgs_test\lib\lvgl\src\misc\lv_color.h ****     ret = (uint16_t)(result >> 16) | result;
  77              		.loc 2 361 5 is_stmt 1 view .LVU20
  78              		.loc 2 361 36 is_stmt 0 view .LVU21
  79 0024 8BB2     		uxth	r3, r1
  80              		.loc 2 361 9 view .LVU22
  81 0026 43EA1140 		orr	r0, r3, r1, lsr #16
  82              	.LVL10:
 362:c:\users\alex\eclipse-workspace\lvgs_test\lib\lvgl\src\misc\lv_color.h **** 
 363:c:\users\alex\eclipse-workspace\lvgs_test\lib\lvgl\src\misc\lv_color.h ****     return ret;
  83              		.loc 2 363 5 is_stmt 1 view .LVU23
  84              		.loc 2 363 12 is_stmt 0 view .LVU24
  85 002a 7047     		bx	lr
  86              	.LVL11:
  87              	.L4:
 350:c:\users\alex\eclipse-workspace\lvgs_test\lib\lvgl\src\misc\lv_color.h **** 
  88              		.loc 2 350 25 view .LVU25
  89 002c 0846     		mov	r0, r1
  90              	.LVL12:
  91              	.L2:
 364:c:\users\alex\eclipse-workspace\lvgs_test\lib\lvgl\src\misc\lv_color.h **** }
  92              		.loc 2 364 1 view .LVU26
ARM GAS  C:\Users\Alex\AppData\Local\Temp\ccUzeV0Q.s 			page 9


  93 002e 7047     		bx	lr
  94              	.L6:
  95              		.align	2
  96              	.L5:
  97 0030 1FF8E007 		.word	132184095
  98              		.cfi_endproc
  99              	.LFE21:
 101              		.section	.text.lv_color_24_16_mix,"ax",%progbits
 102              		.align	1
 103              		.syntax unified
 104              		.thumb
 105              		.thumb_func
 107              	lv_color_24_16_mix:
 108              	.LVL13:
 109              	.LFB238:
   1:Lib/lvgl/src/draw/sw/blend/lv_draw_sw_blend_to_rgb565.c **** /**
   2:Lib/lvgl/src/draw/sw/blend/lv_draw_sw_blend_to_rgb565.c ****  * @file lv_draw_sw_blend_to_rgb565.c
   3:Lib/lvgl/src/draw/sw/blend/lv_draw_sw_blend_to_rgb565.c ****  *
   4:Lib/lvgl/src/draw/sw/blend/lv_draw_sw_blend_to_rgb565.c ****  */
   5:Lib/lvgl/src/draw/sw/blend/lv_draw_sw_blend_to_rgb565.c **** 
   6:Lib/lvgl/src/draw/sw/blend/lv_draw_sw_blend_to_rgb565.c **** /*********************
   7:Lib/lvgl/src/draw/sw/blend/lv_draw_sw_blend_to_rgb565.c ****  *      INCLUDES
   8:Lib/lvgl/src/draw/sw/blend/lv_draw_sw_blend_to_rgb565.c ****  *********************/
   9:Lib/lvgl/src/draw/sw/blend/lv_draw_sw_blend_to_rgb565.c **** #include "lv_draw_sw_blend_to_rgb565.h"
  10:Lib/lvgl/src/draw/sw/blend/lv_draw_sw_blend_to_rgb565.c **** #if LV_USE_DRAW_SW
  11:Lib/lvgl/src/draw/sw/blend/lv_draw_sw_blend_to_rgb565.c **** 
  12:Lib/lvgl/src/draw/sw/blend/lv_draw_sw_blend_to_rgb565.c **** #include "lv_draw_sw_blend.h"
  13:Lib/lvgl/src/draw/sw/blend/lv_draw_sw_blend_to_rgb565.c **** #include "../../../misc/lv_math.h"
  14:Lib/lvgl/src/draw/sw/blend/lv_draw_sw_blend_to_rgb565.c **** #include "../../../display/lv_display.h"
  15:Lib/lvgl/src/draw/sw/blend/lv_draw_sw_blend_to_rgb565.c **** #include "../../../core/lv_refr.h"
  16:Lib/lvgl/src/draw/sw/blend/lv_draw_sw_blend_to_rgb565.c **** #include "../../../misc/lv_color.h"
  17:Lib/lvgl/src/draw/sw/blend/lv_draw_sw_blend_to_rgb565.c **** #include "../../../stdlib/lv_string.h"
  18:Lib/lvgl/src/draw/sw/blend/lv_draw_sw_blend_to_rgb565.c **** 
  19:Lib/lvgl/src/draw/sw/blend/lv_draw_sw_blend_to_rgb565.c **** #if LV_USE_DRAW_SW_ASM == LV_DRAW_SW_ASM_NEON
  20:Lib/lvgl/src/draw/sw/blend/lv_draw_sw_blend_to_rgb565.c ****     #include "neon/lv_blend_neon.h"
  21:Lib/lvgl/src/draw/sw/blend/lv_draw_sw_blend_to_rgb565.c **** #elif LV_USE_DRAW_SW_ASM == LV_DRAW_SW_ASM_HELIUM
  22:Lib/lvgl/src/draw/sw/blend/lv_draw_sw_blend_to_rgb565.c ****     #include "arm2d/lv_blend_helium.h"
  23:Lib/lvgl/src/draw/sw/blend/lv_draw_sw_blend_to_rgb565.c **** #elif LV_USE_DRAW_SW_ASM == LV_DRAW_SW_ASM_CUSTOM
  24:Lib/lvgl/src/draw/sw/blend/lv_draw_sw_blend_to_rgb565.c ****     #include LV_DRAW_SW_ASM_CUSTOM_INCLUDE
  25:Lib/lvgl/src/draw/sw/blend/lv_draw_sw_blend_to_rgb565.c **** #endif
  26:Lib/lvgl/src/draw/sw/blend/lv_draw_sw_blend_to_rgb565.c **** 
  27:Lib/lvgl/src/draw/sw/blend/lv_draw_sw_blend_to_rgb565.c **** /*********************
  28:Lib/lvgl/src/draw/sw/blend/lv_draw_sw_blend_to_rgb565.c ****  *      DEFINES
  29:Lib/lvgl/src/draw/sw/blend/lv_draw_sw_blend_to_rgb565.c ****  *********************/
  30:Lib/lvgl/src/draw/sw/blend/lv_draw_sw_blend_to_rgb565.c **** 
  31:Lib/lvgl/src/draw/sw/blend/lv_draw_sw_blend_to_rgb565.c **** /**********************
  32:Lib/lvgl/src/draw/sw/blend/lv_draw_sw_blend_to_rgb565.c ****  *      TYPEDEFS
  33:Lib/lvgl/src/draw/sw/blend/lv_draw_sw_blend_to_rgb565.c ****  **********************/
  34:Lib/lvgl/src/draw/sw/blend/lv_draw_sw_blend_to_rgb565.c **** 
  35:Lib/lvgl/src/draw/sw/blend/lv_draw_sw_blend_to_rgb565.c **** /**********************
  36:Lib/lvgl/src/draw/sw/blend/lv_draw_sw_blend_to_rgb565.c ****  *  STATIC PROTOTYPES
  37:Lib/lvgl/src/draw/sw/blend/lv_draw_sw_blend_to_rgb565.c ****  **********************/
  38:Lib/lvgl/src/draw/sw/blend/lv_draw_sw_blend_to_rgb565.c **** 
  39:Lib/lvgl/src/draw/sw/blend/lv_draw_sw_blend_to_rgb565.c **** LV_ATTRIBUTE_FAST_MEM static void rgb565_image_blend(_lv_draw_sw_blend_image_dsc_t * dsc);
  40:Lib/lvgl/src/draw/sw/blend/lv_draw_sw_blend_to_rgb565.c **** 
  41:Lib/lvgl/src/draw/sw/blend/lv_draw_sw_blend_to_rgb565.c **** LV_ATTRIBUTE_FAST_MEM static void rgb888_image_blend(_lv_draw_sw_blend_image_dsc_t * dsc, const uin
  42:Lib/lvgl/src/draw/sw/blend/lv_draw_sw_blend_to_rgb565.c **** 
ARM GAS  C:\Users\Alex\AppData\Local\Temp\ccUzeV0Q.s 			page 10


  43:Lib/lvgl/src/draw/sw/blend/lv_draw_sw_blend_to_rgb565.c **** LV_ATTRIBUTE_FAST_MEM static void argb8888_image_blend(_lv_draw_sw_blend_image_dsc_t * dsc);
  44:Lib/lvgl/src/draw/sw/blend/lv_draw_sw_blend_to_rgb565.c **** 
  45:Lib/lvgl/src/draw/sw/blend/lv_draw_sw_blend_to_rgb565.c **** LV_ATTRIBUTE_FAST_MEM static inline uint16_t lv_color_24_16_mix(const uint8_t * c1, uint16_t c2, ui
  46:Lib/lvgl/src/draw/sw/blend/lv_draw_sw_blend_to_rgb565.c **** 
  47:Lib/lvgl/src/draw/sw/blend/lv_draw_sw_blend_to_rgb565.c **** LV_ATTRIBUTE_FAST_MEM static inline void * drawbuf_next_row(const void * buf, uint32_t stride);
  48:Lib/lvgl/src/draw/sw/blend/lv_draw_sw_blend_to_rgb565.c **** 
  49:Lib/lvgl/src/draw/sw/blend/lv_draw_sw_blend_to_rgb565.c **** /**********************
  50:Lib/lvgl/src/draw/sw/blend/lv_draw_sw_blend_to_rgb565.c ****  *  STATIC VARIABLES
  51:Lib/lvgl/src/draw/sw/blend/lv_draw_sw_blend_to_rgb565.c ****  **********************/
  52:Lib/lvgl/src/draw/sw/blend/lv_draw_sw_blend_to_rgb565.c **** 
  53:Lib/lvgl/src/draw/sw/blend/lv_draw_sw_blend_to_rgb565.c **** /**********************
  54:Lib/lvgl/src/draw/sw/blend/lv_draw_sw_blend_to_rgb565.c ****  *      MACROS
  55:Lib/lvgl/src/draw/sw/blend/lv_draw_sw_blend_to_rgb565.c ****  **********************/
  56:Lib/lvgl/src/draw/sw/blend/lv_draw_sw_blend_to_rgb565.c **** 
  57:Lib/lvgl/src/draw/sw/blend/lv_draw_sw_blend_to_rgb565.c **** #ifndef LV_DRAW_SW_COLOR_BLEND_TO_RGB565
  58:Lib/lvgl/src/draw/sw/blend/lv_draw_sw_blend_to_rgb565.c ****     #define LV_DRAW_SW_COLOR_BLEND_TO_RGB565(...)                           LV_RESULT_INVALID
  59:Lib/lvgl/src/draw/sw/blend/lv_draw_sw_blend_to_rgb565.c **** #endif
  60:Lib/lvgl/src/draw/sw/blend/lv_draw_sw_blend_to_rgb565.c **** 
  61:Lib/lvgl/src/draw/sw/blend/lv_draw_sw_blend_to_rgb565.c **** #ifndef LV_DRAW_SW_COLOR_BLEND_TO_RGB565_WITH_OPA
  62:Lib/lvgl/src/draw/sw/blend/lv_draw_sw_blend_to_rgb565.c ****     #define LV_DRAW_SW_COLOR_BLEND_TO_RGB565_WITH_OPA(...)                  LV_RESULT_INVALID
  63:Lib/lvgl/src/draw/sw/blend/lv_draw_sw_blend_to_rgb565.c **** #endif
  64:Lib/lvgl/src/draw/sw/blend/lv_draw_sw_blend_to_rgb565.c **** 
  65:Lib/lvgl/src/draw/sw/blend/lv_draw_sw_blend_to_rgb565.c **** #ifndef LV_DRAW_SW_COLOR_BLEND_TO_RGB565_WITH_MASK
  66:Lib/lvgl/src/draw/sw/blend/lv_draw_sw_blend_to_rgb565.c ****     #define LV_DRAW_SW_COLOR_BLEND_TO_RGB565_WITH_MASK(...)                 LV_RESULT_INVALID
  67:Lib/lvgl/src/draw/sw/blend/lv_draw_sw_blend_to_rgb565.c **** #endif
  68:Lib/lvgl/src/draw/sw/blend/lv_draw_sw_blend_to_rgb565.c **** 
  69:Lib/lvgl/src/draw/sw/blend/lv_draw_sw_blend_to_rgb565.c **** #ifndef LV_DRAW_SW_COLOR_BLEND_TO_RGB565_MIX_MASK_OPA
  70:Lib/lvgl/src/draw/sw/blend/lv_draw_sw_blend_to_rgb565.c ****     #define LV_DRAW_SW_COLOR_BLEND_TO_RGB565_MIX_MASK_OPA(...)              LV_RESULT_INVALID
  71:Lib/lvgl/src/draw/sw/blend/lv_draw_sw_blend_to_rgb565.c **** #endif
  72:Lib/lvgl/src/draw/sw/blend/lv_draw_sw_blend_to_rgb565.c **** 
  73:Lib/lvgl/src/draw/sw/blend/lv_draw_sw_blend_to_rgb565.c **** #ifndef LV_DRAW_SW_RGB565_BLEND_NORMAL_TO_RGB565
  74:Lib/lvgl/src/draw/sw/blend/lv_draw_sw_blend_to_rgb565.c ****     #define LV_DRAW_SW_RGB565_BLEND_NORMAL_TO_RGB565(...)                   LV_RESULT_INVALID
  75:Lib/lvgl/src/draw/sw/blend/lv_draw_sw_blend_to_rgb565.c **** #endif
  76:Lib/lvgl/src/draw/sw/blend/lv_draw_sw_blend_to_rgb565.c **** 
  77:Lib/lvgl/src/draw/sw/blend/lv_draw_sw_blend_to_rgb565.c **** #ifndef LV_DRAW_SW_RGB565_BLEND_NORMAL_TO_RGB565_WITH_OPA
  78:Lib/lvgl/src/draw/sw/blend/lv_draw_sw_blend_to_rgb565.c ****     #define LV_DRAW_SW_RGB565_BLEND_NORMAL_TO_RGB565_WITH_OPA(...)          LV_RESULT_INVALID
  79:Lib/lvgl/src/draw/sw/blend/lv_draw_sw_blend_to_rgb565.c **** #endif
  80:Lib/lvgl/src/draw/sw/blend/lv_draw_sw_blend_to_rgb565.c **** 
  81:Lib/lvgl/src/draw/sw/blend/lv_draw_sw_blend_to_rgb565.c **** #ifndef LV_DRAW_SW_RGB565_BLEND_NORMAL_TO_RGB565_WITH_MASK
  82:Lib/lvgl/src/draw/sw/blend/lv_draw_sw_blend_to_rgb565.c ****     #define LV_DRAW_SW_RGB565_BLEND_NORMAL_TO_RGB565_WITH_MASK(...)         LV_RESULT_INVALID
  83:Lib/lvgl/src/draw/sw/blend/lv_draw_sw_blend_to_rgb565.c **** #endif
  84:Lib/lvgl/src/draw/sw/blend/lv_draw_sw_blend_to_rgb565.c **** 
  85:Lib/lvgl/src/draw/sw/blend/lv_draw_sw_blend_to_rgb565.c **** #ifndef LV_DRAW_SW_RGB565_BLEND_NORMAL_TO_RGB565_MIX_MASK_OPA
  86:Lib/lvgl/src/draw/sw/blend/lv_draw_sw_blend_to_rgb565.c ****     #define LV_DRAW_SW_RGB565_BLEND_NORMAL_TO_RGB565_MIX_MASK_OPA(...)      LV_RESULT_INVALID
  87:Lib/lvgl/src/draw/sw/blend/lv_draw_sw_blend_to_rgb565.c **** #endif
  88:Lib/lvgl/src/draw/sw/blend/lv_draw_sw_blend_to_rgb565.c **** 
  89:Lib/lvgl/src/draw/sw/blend/lv_draw_sw_blend_to_rgb565.c **** #ifndef LV_DRAW_SW_RGB888_BLEND_NORMAL_TO_RGB565
  90:Lib/lvgl/src/draw/sw/blend/lv_draw_sw_blend_to_rgb565.c ****     #define LV_DRAW_SW_RGB888_BLEND_NORMAL_TO_RGB565(...)                   LV_RESULT_INVALID
  91:Lib/lvgl/src/draw/sw/blend/lv_draw_sw_blend_to_rgb565.c **** #endif
  92:Lib/lvgl/src/draw/sw/blend/lv_draw_sw_blend_to_rgb565.c **** 
  93:Lib/lvgl/src/draw/sw/blend/lv_draw_sw_blend_to_rgb565.c **** #ifndef LV_DRAW_SW_RGB888_BLEND_NORMAL_TO_RGB565_WITH_OPA
  94:Lib/lvgl/src/draw/sw/blend/lv_draw_sw_blend_to_rgb565.c ****     #define LV_DRAW_SW_RGB888_BLEND_NORMAL_TO_RGB565_WITH_OPA(...)          LV_RESULT_INVALID
  95:Lib/lvgl/src/draw/sw/blend/lv_draw_sw_blend_to_rgb565.c **** #endif
  96:Lib/lvgl/src/draw/sw/blend/lv_draw_sw_blend_to_rgb565.c **** 
  97:Lib/lvgl/src/draw/sw/blend/lv_draw_sw_blend_to_rgb565.c **** #ifndef LV_DRAW_SW_RGB888_BLEND_NORMAL_TO_RGB565_WITH_MASK
  98:Lib/lvgl/src/draw/sw/blend/lv_draw_sw_blend_to_rgb565.c ****     #define LV_DRAW_SW_RGB888_BLEND_NORMAL_TO_RGB565_WITH_MASK(...)         LV_RESULT_INVALID
  99:Lib/lvgl/src/draw/sw/blend/lv_draw_sw_blend_to_rgb565.c **** #endif
ARM GAS  C:\Users\Alex\AppData\Local\Temp\ccUzeV0Q.s 			page 11


 100:Lib/lvgl/src/draw/sw/blend/lv_draw_sw_blend_to_rgb565.c **** 
 101:Lib/lvgl/src/draw/sw/blend/lv_draw_sw_blend_to_rgb565.c **** #ifndef LV_DRAW_SW_RGB888_BLEND_NORMAL_TO_RGB565_MIX_MASK_OPA
 102:Lib/lvgl/src/draw/sw/blend/lv_draw_sw_blend_to_rgb565.c ****     #define LV_DRAW_SW_RGB888_BLEND_NORMAL_TO_RGB565_MIX_MASK_OPA(...)      LV_RESULT_INVALID
 103:Lib/lvgl/src/draw/sw/blend/lv_draw_sw_blend_to_rgb565.c **** #endif
 104:Lib/lvgl/src/draw/sw/blend/lv_draw_sw_blend_to_rgb565.c **** 
 105:Lib/lvgl/src/draw/sw/blend/lv_draw_sw_blend_to_rgb565.c **** #ifndef LV_DRAW_SW_ARGB8888_BLEND_NORMAL_TO_RGB565
 106:Lib/lvgl/src/draw/sw/blend/lv_draw_sw_blend_to_rgb565.c ****     #define LV_DRAW_SW_ARGB8888_BLEND_NORMAL_TO_RGB565(...)                 LV_RESULT_INVALID
 107:Lib/lvgl/src/draw/sw/blend/lv_draw_sw_blend_to_rgb565.c **** #endif
 108:Lib/lvgl/src/draw/sw/blend/lv_draw_sw_blend_to_rgb565.c **** 
 109:Lib/lvgl/src/draw/sw/blend/lv_draw_sw_blend_to_rgb565.c **** #ifndef LV_DRAW_SW_ARGB8888_BLEND_NORMAL_TO_RGB565_WITH_OPA
 110:Lib/lvgl/src/draw/sw/blend/lv_draw_sw_blend_to_rgb565.c ****     #define LV_DRAW_SW_ARGB8888_BLEND_NORMAL_TO_RGB565_WITH_OPA(...)        LV_RESULT_INVALID
 111:Lib/lvgl/src/draw/sw/blend/lv_draw_sw_blend_to_rgb565.c **** #endif
 112:Lib/lvgl/src/draw/sw/blend/lv_draw_sw_blend_to_rgb565.c **** 
 113:Lib/lvgl/src/draw/sw/blend/lv_draw_sw_blend_to_rgb565.c **** #ifndef LV_DRAW_SW_ARGB8888_BLEND_NORMAL_TO_RGB565_WITH_MASK
 114:Lib/lvgl/src/draw/sw/blend/lv_draw_sw_blend_to_rgb565.c ****     #define LV_DRAW_SW_ARGB8888_BLEND_NORMAL_TO_RGB565_WITH_MASK(...)       LV_RESULT_INVALID
 115:Lib/lvgl/src/draw/sw/blend/lv_draw_sw_blend_to_rgb565.c **** #endif
 116:Lib/lvgl/src/draw/sw/blend/lv_draw_sw_blend_to_rgb565.c **** 
 117:Lib/lvgl/src/draw/sw/blend/lv_draw_sw_blend_to_rgb565.c **** #ifndef LV_DRAW_SW_ARGB8888_BLEND_NORMAL_TO_RGB565_MIX_MASK_OPA
 118:Lib/lvgl/src/draw/sw/blend/lv_draw_sw_blend_to_rgb565.c ****     #define LV_DRAW_SW_ARGB8888_BLEND_NORMAL_TO_RGB565_MIX_MASK_OPA(...)    LV_RESULT_INVALID
 119:Lib/lvgl/src/draw/sw/blend/lv_draw_sw_blend_to_rgb565.c **** #endif
 120:Lib/lvgl/src/draw/sw/blend/lv_draw_sw_blend_to_rgb565.c **** 
 121:Lib/lvgl/src/draw/sw/blend/lv_draw_sw_blend_to_rgb565.c **** /**********************
 122:Lib/lvgl/src/draw/sw/blend/lv_draw_sw_blend_to_rgb565.c ****  *   GLOBAL FUNCTIONS
 123:Lib/lvgl/src/draw/sw/blend/lv_draw_sw_blend_to_rgb565.c ****  **********************/
 124:Lib/lvgl/src/draw/sw/blend/lv_draw_sw_blend_to_rgb565.c **** 
 125:Lib/lvgl/src/draw/sw/blend/lv_draw_sw_blend_to_rgb565.c **** /**
 126:Lib/lvgl/src/draw/sw/blend/lv_draw_sw_blend_to_rgb565.c ****  * Fill an area with a color.
 127:Lib/lvgl/src/draw/sw/blend/lv_draw_sw_blend_to_rgb565.c ****  * Supports normal fill, fill with opacity, fill with mask, and fill with mask and opacity.
 128:Lib/lvgl/src/draw/sw/blend/lv_draw_sw_blend_to_rgb565.c ****  * dest_buf and color have native color depth. (RGB565, RGB888, XRGB8888)
 129:Lib/lvgl/src/draw/sw/blend/lv_draw_sw_blend_to_rgb565.c ****  * The background (dest_buf) cannot have alpha channel
 130:Lib/lvgl/src/draw/sw/blend/lv_draw_sw_blend_to_rgb565.c ****  * @param dest_buf
 131:Lib/lvgl/src/draw/sw/blend/lv_draw_sw_blend_to_rgb565.c ****  * @param dest_area
 132:Lib/lvgl/src/draw/sw/blend/lv_draw_sw_blend_to_rgb565.c ****  * @param dest_stride
 133:Lib/lvgl/src/draw/sw/blend/lv_draw_sw_blend_to_rgb565.c ****  * @param color
 134:Lib/lvgl/src/draw/sw/blend/lv_draw_sw_blend_to_rgb565.c ****  * @param opa
 135:Lib/lvgl/src/draw/sw/blend/lv_draw_sw_blend_to_rgb565.c ****  * @param mask
 136:Lib/lvgl/src/draw/sw/blend/lv_draw_sw_blend_to_rgb565.c ****  * @param mask_stride
 137:Lib/lvgl/src/draw/sw/blend/lv_draw_sw_blend_to_rgb565.c ****  */
 138:Lib/lvgl/src/draw/sw/blend/lv_draw_sw_blend_to_rgb565.c **** LV_ATTRIBUTE_FAST_MEM void lv_draw_sw_blend_color_to_rgb565(_lv_draw_sw_blend_fill_dsc_t * dsc)
 139:Lib/lvgl/src/draw/sw/blend/lv_draw_sw_blend_to_rgb565.c **** {
 140:Lib/lvgl/src/draw/sw/blend/lv_draw_sw_blend_to_rgb565.c ****     int32_t w = dsc->dest_w;
 141:Lib/lvgl/src/draw/sw/blend/lv_draw_sw_blend_to_rgb565.c ****     int32_t h = dsc->dest_h;
 142:Lib/lvgl/src/draw/sw/blend/lv_draw_sw_blend_to_rgb565.c ****     uint16_t color16 = lv_color_to_u16(dsc->color);
 143:Lib/lvgl/src/draw/sw/blend/lv_draw_sw_blend_to_rgb565.c ****     lv_opa_t opa = dsc->opa;
 144:Lib/lvgl/src/draw/sw/blend/lv_draw_sw_blend_to_rgb565.c ****     const lv_opa_t * mask = dsc->mask_buf;
 145:Lib/lvgl/src/draw/sw/blend/lv_draw_sw_blend_to_rgb565.c ****     int32_t mask_stride = dsc->mask_stride;
 146:Lib/lvgl/src/draw/sw/blend/lv_draw_sw_blend_to_rgb565.c ****     uint16_t * dest_buf_u16 = dsc->dest_buf;
 147:Lib/lvgl/src/draw/sw/blend/lv_draw_sw_blend_to_rgb565.c ****     int32_t dest_stride = dsc->dest_stride;
 148:Lib/lvgl/src/draw/sw/blend/lv_draw_sw_blend_to_rgb565.c **** 
 149:Lib/lvgl/src/draw/sw/blend/lv_draw_sw_blend_to_rgb565.c ****     int32_t x;
 150:Lib/lvgl/src/draw/sw/blend/lv_draw_sw_blend_to_rgb565.c ****     int32_t y;
 151:Lib/lvgl/src/draw/sw/blend/lv_draw_sw_blend_to_rgb565.c **** 
 152:Lib/lvgl/src/draw/sw/blend/lv_draw_sw_blend_to_rgb565.c ****     LV_UNUSED(w);
 153:Lib/lvgl/src/draw/sw/blend/lv_draw_sw_blend_to_rgb565.c ****     LV_UNUSED(h);
 154:Lib/lvgl/src/draw/sw/blend/lv_draw_sw_blend_to_rgb565.c ****     LV_UNUSED(x);
 155:Lib/lvgl/src/draw/sw/blend/lv_draw_sw_blend_to_rgb565.c ****     LV_UNUSED(y);
 156:Lib/lvgl/src/draw/sw/blend/lv_draw_sw_blend_to_rgb565.c ****     LV_UNUSED(opa);
ARM GAS  C:\Users\Alex\AppData\Local\Temp\ccUzeV0Q.s 			page 12


 157:Lib/lvgl/src/draw/sw/blend/lv_draw_sw_blend_to_rgb565.c ****     LV_UNUSED(mask);
 158:Lib/lvgl/src/draw/sw/blend/lv_draw_sw_blend_to_rgb565.c ****     LV_UNUSED(color16);
 159:Lib/lvgl/src/draw/sw/blend/lv_draw_sw_blend_to_rgb565.c ****     LV_UNUSED(mask_stride);
 160:Lib/lvgl/src/draw/sw/blend/lv_draw_sw_blend_to_rgb565.c ****     LV_UNUSED(dest_stride);
 161:Lib/lvgl/src/draw/sw/blend/lv_draw_sw_blend_to_rgb565.c ****     LV_UNUSED(dest_buf_u16);
 162:Lib/lvgl/src/draw/sw/blend/lv_draw_sw_blend_to_rgb565.c **** 
 163:Lib/lvgl/src/draw/sw/blend/lv_draw_sw_blend_to_rgb565.c ****     /*Simple fill*/
 164:Lib/lvgl/src/draw/sw/blend/lv_draw_sw_blend_to_rgb565.c ****     if(mask == NULL && opa >= LV_OPA_MAX)  {
 165:Lib/lvgl/src/draw/sw/blend/lv_draw_sw_blend_to_rgb565.c ****         if(LV_RESULT_INVALID == LV_DRAW_SW_COLOR_BLEND_TO_RGB565(dsc)) {
 166:Lib/lvgl/src/draw/sw/blend/lv_draw_sw_blend_to_rgb565.c ****             for(y = 0; y < h; y++) {
 167:Lib/lvgl/src/draw/sw/blend/lv_draw_sw_blend_to_rgb565.c ****                 uint16_t * dest_end_final = dest_buf_u16 + w;
 168:Lib/lvgl/src/draw/sw/blend/lv_draw_sw_blend_to_rgb565.c ****                 uint32_t * dest_end_mid = (uint32_t *)((uint16_t *) dest_buf_u16 + ((w - 1) & ~(0xF
 169:Lib/lvgl/src/draw/sw/blend/lv_draw_sw_blend_to_rgb565.c ****                 if((lv_uintptr_t)&dest_buf_u16[0] & 0x3) {
 170:Lib/lvgl/src/draw/sw/blend/lv_draw_sw_blend_to_rgb565.c ****                     dest_buf_u16[0] = color16;
 171:Lib/lvgl/src/draw/sw/blend/lv_draw_sw_blend_to_rgb565.c ****                     dest_buf_u16++;
 172:Lib/lvgl/src/draw/sw/blend/lv_draw_sw_blend_to_rgb565.c ****                 }
 173:Lib/lvgl/src/draw/sw/blend/lv_draw_sw_blend_to_rgb565.c **** 
 174:Lib/lvgl/src/draw/sw/blend/lv_draw_sw_blend_to_rgb565.c ****                 uint32_t c32 = (uint32_t)color16 + ((uint32_t)color16 << 16);
 175:Lib/lvgl/src/draw/sw/blend/lv_draw_sw_blend_to_rgb565.c ****                 uint32_t * dest32 = (uint32_t *)dest_buf_u16;
 176:Lib/lvgl/src/draw/sw/blend/lv_draw_sw_blend_to_rgb565.c ****                 while(dest32 < dest_end_mid) {
 177:Lib/lvgl/src/draw/sw/blend/lv_draw_sw_blend_to_rgb565.c ****                     dest32[0] = c32;
 178:Lib/lvgl/src/draw/sw/blend/lv_draw_sw_blend_to_rgb565.c ****                     dest32[1] = c32;
 179:Lib/lvgl/src/draw/sw/blend/lv_draw_sw_blend_to_rgb565.c ****                     dest32[2] = c32;
 180:Lib/lvgl/src/draw/sw/blend/lv_draw_sw_blend_to_rgb565.c ****                     dest32[3] = c32;
 181:Lib/lvgl/src/draw/sw/blend/lv_draw_sw_blend_to_rgb565.c ****                     dest32[4] = c32;
 182:Lib/lvgl/src/draw/sw/blend/lv_draw_sw_blend_to_rgb565.c ****                     dest32[5] = c32;
 183:Lib/lvgl/src/draw/sw/blend/lv_draw_sw_blend_to_rgb565.c ****                     dest32[6] = c32;
 184:Lib/lvgl/src/draw/sw/blend/lv_draw_sw_blend_to_rgb565.c ****                     dest32[7] = c32;
 185:Lib/lvgl/src/draw/sw/blend/lv_draw_sw_blend_to_rgb565.c ****                     dest32 += 8;
 186:Lib/lvgl/src/draw/sw/blend/lv_draw_sw_blend_to_rgb565.c ****                 }
 187:Lib/lvgl/src/draw/sw/blend/lv_draw_sw_blend_to_rgb565.c **** 
 188:Lib/lvgl/src/draw/sw/blend/lv_draw_sw_blend_to_rgb565.c ****                 dest_buf_u16 = (uint16_t *)dest32;
 189:Lib/lvgl/src/draw/sw/blend/lv_draw_sw_blend_to_rgb565.c **** 
 190:Lib/lvgl/src/draw/sw/blend/lv_draw_sw_blend_to_rgb565.c ****                 while(dest_buf_u16 < dest_end_final) {
 191:Lib/lvgl/src/draw/sw/blend/lv_draw_sw_blend_to_rgb565.c ****                     *dest_buf_u16 = color16;
 192:Lib/lvgl/src/draw/sw/blend/lv_draw_sw_blend_to_rgb565.c ****                     dest_buf_u16++;
 193:Lib/lvgl/src/draw/sw/blend/lv_draw_sw_blend_to_rgb565.c ****                 }
 194:Lib/lvgl/src/draw/sw/blend/lv_draw_sw_blend_to_rgb565.c **** 
 195:Lib/lvgl/src/draw/sw/blend/lv_draw_sw_blend_to_rgb565.c ****                 dest_buf_u16 = drawbuf_next_row(dest_buf_u16, dest_stride);
 196:Lib/lvgl/src/draw/sw/blend/lv_draw_sw_blend_to_rgb565.c ****                 dest_buf_u16 -= w;
 197:Lib/lvgl/src/draw/sw/blend/lv_draw_sw_blend_to_rgb565.c ****             }
 198:Lib/lvgl/src/draw/sw/blend/lv_draw_sw_blend_to_rgb565.c ****         }
 199:Lib/lvgl/src/draw/sw/blend/lv_draw_sw_blend_to_rgb565.c **** 
 200:Lib/lvgl/src/draw/sw/blend/lv_draw_sw_blend_to_rgb565.c ****     }
 201:Lib/lvgl/src/draw/sw/blend/lv_draw_sw_blend_to_rgb565.c ****     /*Opacity only*/
 202:Lib/lvgl/src/draw/sw/blend/lv_draw_sw_blend_to_rgb565.c ****     else if(mask == NULL && opa < LV_OPA_MAX) {
 203:Lib/lvgl/src/draw/sw/blend/lv_draw_sw_blend_to_rgb565.c ****         if(LV_RESULT_INVALID == LV_DRAW_SW_COLOR_BLEND_TO_RGB565_WITH_OPA(dsc)) {
 204:Lib/lvgl/src/draw/sw/blend/lv_draw_sw_blend_to_rgb565.c ****             uint32_t last_dest32_color = dest_buf_u16[0] + 1; /*Set to value which is not equal to 
 205:Lib/lvgl/src/draw/sw/blend/lv_draw_sw_blend_to_rgb565.c ****             uint32_t last_res32_color = 0;
 206:Lib/lvgl/src/draw/sw/blend/lv_draw_sw_blend_to_rgb565.c **** 
 207:Lib/lvgl/src/draw/sw/blend/lv_draw_sw_blend_to_rgb565.c ****             for(y = 0; y < h; y++) {
 208:Lib/lvgl/src/draw/sw/blend/lv_draw_sw_blend_to_rgb565.c ****                 x = 0;
 209:Lib/lvgl/src/draw/sw/blend/lv_draw_sw_blend_to_rgb565.c ****                 if((lv_uintptr_t)&dest_buf_u16[0] & 0x3) {
 210:Lib/lvgl/src/draw/sw/blend/lv_draw_sw_blend_to_rgb565.c ****                     dest_buf_u16[0] = lv_color_16_16_mix(color16, dest_buf_u16[0], opa);
 211:Lib/lvgl/src/draw/sw/blend/lv_draw_sw_blend_to_rgb565.c ****                     x = 1;
 212:Lib/lvgl/src/draw/sw/blend/lv_draw_sw_blend_to_rgb565.c ****                 }
 213:Lib/lvgl/src/draw/sw/blend/lv_draw_sw_blend_to_rgb565.c **** 
ARM GAS  C:\Users\Alex\AppData\Local\Temp\ccUzeV0Q.s 			page 13


 214:Lib/lvgl/src/draw/sw/blend/lv_draw_sw_blend_to_rgb565.c ****                 for(; x < w - 2; x += 2) {
 215:Lib/lvgl/src/draw/sw/blend/lv_draw_sw_blend_to_rgb565.c ****                     if(dest_buf_u16[x] != dest_buf_u16[x + 1]) {
 216:Lib/lvgl/src/draw/sw/blend/lv_draw_sw_blend_to_rgb565.c ****                         dest_buf_u16[x + 0] = lv_color_16_16_mix(color16, dest_buf_u16[x + 0], opa)
 217:Lib/lvgl/src/draw/sw/blend/lv_draw_sw_blend_to_rgb565.c ****                         dest_buf_u16[x + 1] = lv_color_16_16_mix(color16, dest_buf_u16[x + 1], opa)
 218:Lib/lvgl/src/draw/sw/blend/lv_draw_sw_blend_to_rgb565.c ****                     }
 219:Lib/lvgl/src/draw/sw/blend/lv_draw_sw_blend_to_rgb565.c ****                     else {
 220:Lib/lvgl/src/draw/sw/blend/lv_draw_sw_blend_to_rgb565.c ****                         volatile uint32_t * dest32 = (uint32_t *)&dest_buf_u16[x];
 221:Lib/lvgl/src/draw/sw/blend/lv_draw_sw_blend_to_rgb565.c ****                         if(last_dest32_color == *dest32) {
 222:Lib/lvgl/src/draw/sw/blend/lv_draw_sw_blend_to_rgb565.c ****                             *dest32 = last_res32_color;
 223:Lib/lvgl/src/draw/sw/blend/lv_draw_sw_blend_to_rgb565.c ****                         }
 224:Lib/lvgl/src/draw/sw/blend/lv_draw_sw_blend_to_rgb565.c ****                         else {
 225:Lib/lvgl/src/draw/sw/blend/lv_draw_sw_blend_to_rgb565.c ****                             last_dest32_color =  *dest32;
 226:Lib/lvgl/src/draw/sw/blend/lv_draw_sw_blend_to_rgb565.c **** 
 227:Lib/lvgl/src/draw/sw/blend/lv_draw_sw_blend_to_rgb565.c ****                             dest_buf_u16[x] = lv_color_16_16_mix(color16, dest_buf_u16[x + 0], opa)
 228:Lib/lvgl/src/draw/sw/blend/lv_draw_sw_blend_to_rgb565.c ****                             dest_buf_u16[x + 1] = dest_buf_u16[x];
 229:Lib/lvgl/src/draw/sw/blend/lv_draw_sw_blend_to_rgb565.c **** 
 230:Lib/lvgl/src/draw/sw/blend/lv_draw_sw_blend_to_rgb565.c ****                             last_res32_color = *dest32;
 231:Lib/lvgl/src/draw/sw/blend/lv_draw_sw_blend_to_rgb565.c ****                         }
 232:Lib/lvgl/src/draw/sw/blend/lv_draw_sw_blend_to_rgb565.c ****                     }
 233:Lib/lvgl/src/draw/sw/blend/lv_draw_sw_blend_to_rgb565.c ****                 }
 234:Lib/lvgl/src/draw/sw/blend/lv_draw_sw_blend_to_rgb565.c **** 
 235:Lib/lvgl/src/draw/sw/blend/lv_draw_sw_blend_to_rgb565.c ****                 for(; x < w ; x++) {
 236:Lib/lvgl/src/draw/sw/blend/lv_draw_sw_blend_to_rgb565.c ****                     dest_buf_u16[x] = lv_color_16_16_mix(color16, dest_buf_u16[x], opa);
 237:Lib/lvgl/src/draw/sw/blend/lv_draw_sw_blend_to_rgb565.c ****                 }
 238:Lib/lvgl/src/draw/sw/blend/lv_draw_sw_blend_to_rgb565.c ****                 dest_buf_u16 = drawbuf_next_row(dest_buf_u16, dest_stride);
 239:Lib/lvgl/src/draw/sw/blend/lv_draw_sw_blend_to_rgb565.c ****             }
 240:Lib/lvgl/src/draw/sw/blend/lv_draw_sw_blend_to_rgb565.c ****         }
 241:Lib/lvgl/src/draw/sw/blend/lv_draw_sw_blend_to_rgb565.c **** 
 242:Lib/lvgl/src/draw/sw/blend/lv_draw_sw_blend_to_rgb565.c ****     }
 243:Lib/lvgl/src/draw/sw/blend/lv_draw_sw_blend_to_rgb565.c **** 
 244:Lib/lvgl/src/draw/sw/blend/lv_draw_sw_blend_to_rgb565.c ****     /*Masked with full opacity*/
 245:Lib/lvgl/src/draw/sw/blend/lv_draw_sw_blend_to_rgb565.c ****     else if(mask && opa >= LV_OPA_MAX) {
 246:Lib/lvgl/src/draw/sw/blend/lv_draw_sw_blend_to_rgb565.c ****         if(LV_RESULT_INVALID == LV_DRAW_SW_COLOR_BLEND_TO_RGB565_WITH_MASK(dsc)) {
 247:Lib/lvgl/src/draw/sw/blend/lv_draw_sw_blend_to_rgb565.c ****             uint32_t c32 = color16 + ((uint32_t)color16 << 16);
 248:Lib/lvgl/src/draw/sw/blend/lv_draw_sw_blend_to_rgb565.c ****             for(y = 0; y < h; y++) {
 249:Lib/lvgl/src/draw/sw/blend/lv_draw_sw_blend_to_rgb565.c ****                 for(x = 0; x < w && ((lv_uintptr_t)(mask) & 0x3); x++) {
 250:Lib/lvgl/src/draw/sw/blend/lv_draw_sw_blend_to_rgb565.c ****                     dest_buf_u16[x] = lv_color_16_16_mix(color16, dest_buf_u16[x], mask[x]);
 251:Lib/lvgl/src/draw/sw/blend/lv_draw_sw_blend_to_rgb565.c ****                 }
 252:Lib/lvgl/src/draw/sw/blend/lv_draw_sw_blend_to_rgb565.c **** 
 253:Lib/lvgl/src/draw/sw/blend/lv_draw_sw_blend_to_rgb565.c ****                 for(; x <= w - 4; x += 4) {
 254:Lib/lvgl/src/draw/sw/blend/lv_draw_sw_blend_to_rgb565.c ****                     uint32_t mask32 = *((uint32_t *)&mask[x]);
 255:Lib/lvgl/src/draw/sw/blend/lv_draw_sw_blend_to_rgb565.c ****                     if(mask32 == 0xFFFFFFFF) {
 256:Lib/lvgl/src/draw/sw/blend/lv_draw_sw_blend_to_rgb565.c ****                         if((lv_uintptr_t)&dest_buf_u16[x] & 0x3) {
 257:Lib/lvgl/src/draw/sw/blend/lv_draw_sw_blend_to_rgb565.c ****                             dest_buf_u16[x] = color16;
 258:Lib/lvgl/src/draw/sw/blend/lv_draw_sw_blend_to_rgb565.c ****                             uint32_t * d32 = (uint32_t *)(&dest_buf_u16[x + 1]);
 259:Lib/lvgl/src/draw/sw/blend/lv_draw_sw_blend_to_rgb565.c ****                             *d32 = c32;
 260:Lib/lvgl/src/draw/sw/blend/lv_draw_sw_blend_to_rgb565.c ****                             dest_buf_u16[x + 3] = color16;
 261:Lib/lvgl/src/draw/sw/blend/lv_draw_sw_blend_to_rgb565.c ****                         }
 262:Lib/lvgl/src/draw/sw/blend/lv_draw_sw_blend_to_rgb565.c ****                         else {
 263:Lib/lvgl/src/draw/sw/blend/lv_draw_sw_blend_to_rgb565.c ****                             uint32_t * dest32 = (uint32_t *)&dest_buf_u16[x];
 264:Lib/lvgl/src/draw/sw/blend/lv_draw_sw_blend_to_rgb565.c ****                             dest32[0] = c32;
 265:Lib/lvgl/src/draw/sw/blend/lv_draw_sw_blend_to_rgb565.c ****                             dest32[1] = c32;
 266:Lib/lvgl/src/draw/sw/blend/lv_draw_sw_blend_to_rgb565.c ****                         }
 267:Lib/lvgl/src/draw/sw/blend/lv_draw_sw_blend_to_rgb565.c ****                     }
 268:Lib/lvgl/src/draw/sw/blend/lv_draw_sw_blend_to_rgb565.c ****                     else if(mask32) {
 269:Lib/lvgl/src/draw/sw/blend/lv_draw_sw_blend_to_rgb565.c ****                         dest_buf_u16[x + 0] = lv_color_16_16_mix(color16, dest_buf_u16[x + 0], mask
 270:Lib/lvgl/src/draw/sw/blend/lv_draw_sw_blend_to_rgb565.c ****                         dest_buf_u16[x + 1] = lv_color_16_16_mix(color16, dest_buf_u16[x + 1], mask
ARM GAS  C:\Users\Alex\AppData\Local\Temp\ccUzeV0Q.s 			page 14


 271:Lib/lvgl/src/draw/sw/blend/lv_draw_sw_blend_to_rgb565.c ****                         dest_buf_u16[x + 2] = lv_color_16_16_mix(color16, dest_buf_u16[x + 2], mask
 272:Lib/lvgl/src/draw/sw/blend/lv_draw_sw_blend_to_rgb565.c ****                         dest_buf_u16[x + 3] = lv_color_16_16_mix(color16, dest_buf_u16[x + 3], mask
 273:Lib/lvgl/src/draw/sw/blend/lv_draw_sw_blend_to_rgb565.c ****                     }
 274:Lib/lvgl/src/draw/sw/blend/lv_draw_sw_blend_to_rgb565.c ****                 }
 275:Lib/lvgl/src/draw/sw/blend/lv_draw_sw_blend_to_rgb565.c **** 
 276:Lib/lvgl/src/draw/sw/blend/lv_draw_sw_blend_to_rgb565.c ****                 for(; x < w ; x++) {
 277:Lib/lvgl/src/draw/sw/blend/lv_draw_sw_blend_to_rgb565.c ****                     dest_buf_u16[x] = lv_color_16_16_mix(color16, dest_buf_u16[x], mask[x]);
 278:Lib/lvgl/src/draw/sw/blend/lv_draw_sw_blend_to_rgb565.c ****                 }
 279:Lib/lvgl/src/draw/sw/blend/lv_draw_sw_blend_to_rgb565.c ****                 dest_buf_u16 = drawbuf_next_row(dest_buf_u16, dest_stride);
 280:Lib/lvgl/src/draw/sw/blend/lv_draw_sw_blend_to_rgb565.c ****                 mask += mask_stride;
 281:Lib/lvgl/src/draw/sw/blend/lv_draw_sw_blend_to_rgb565.c ****             }
 282:Lib/lvgl/src/draw/sw/blend/lv_draw_sw_blend_to_rgb565.c ****         }
 283:Lib/lvgl/src/draw/sw/blend/lv_draw_sw_blend_to_rgb565.c **** 
 284:Lib/lvgl/src/draw/sw/blend/lv_draw_sw_blend_to_rgb565.c ****     }
 285:Lib/lvgl/src/draw/sw/blend/lv_draw_sw_blend_to_rgb565.c ****     /*Masked with opacity*/
 286:Lib/lvgl/src/draw/sw/blend/lv_draw_sw_blend_to_rgb565.c ****     else if(mask && opa < LV_OPA_MAX) {
 287:Lib/lvgl/src/draw/sw/blend/lv_draw_sw_blend_to_rgb565.c ****         if(LV_RESULT_INVALID == LV_DRAW_SW_COLOR_BLEND_TO_RGB565_MIX_MASK_OPA(dsc)) {
 288:Lib/lvgl/src/draw/sw/blend/lv_draw_sw_blend_to_rgb565.c ****             for(y = 0; y < h; y++) {
 289:Lib/lvgl/src/draw/sw/blend/lv_draw_sw_blend_to_rgb565.c ****                 for(x = 0; x < w; x++) {
 290:Lib/lvgl/src/draw/sw/blend/lv_draw_sw_blend_to_rgb565.c ****                     dest_buf_u16[x] = lv_color_16_16_mix(color16, dest_buf_u16[x], LV_OPA_MIX2(mask
 291:Lib/lvgl/src/draw/sw/blend/lv_draw_sw_blend_to_rgb565.c ****                 }
 292:Lib/lvgl/src/draw/sw/blend/lv_draw_sw_blend_to_rgb565.c ****                 dest_buf_u16 = drawbuf_next_row(dest_buf_u16, dest_stride);
 293:Lib/lvgl/src/draw/sw/blend/lv_draw_sw_blend_to_rgb565.c ****                 mask += mask_stride;
 294:Lib/lvgl/src/draw/sw/blend/lv_draw_sw_blend_to_rgb565.c ****             }
 295:Lib/lvgl/src/draw/sw/blend/lv_draw_sw_blend_to_rgb565.c ****         }
 296:Lib/lvgl/src/draw/sw/blend/lv_draw_sw_blend_to_rgb565.c ****     }
 297:Lib/lvgl/src/draw/sw/blend/lv_draw_sw_blend_to_rgb565.c **** }
 298:Lib/lvgl/src/draw/sw/blend/lv_draw_sw_blend_to_rgb565.c **** 
 299:Lib/lvgl/src/draw/sw/blend/lv_draw_sw_blend_to_rgb565.c **** LV_ATTRIBUTE_FAST_MEM void lv_draw_sw_blend_image_to_rgb565(_lv_draw_sw_blend_image_dsc_t * dsc)
 300:Lib/lvgl/src/draw/sw/blend/lv_draw_sw_blend_to_rgb565.c **** {
 301:Lib/lvgl/src/draw/sw/blend/lv_draw_sw_blend_to_rgb565.c ****     switch(dsc->src_color_format) {
 302:Lib/lvgl/src/draw/sw/blend/lv_draw_sw_blend_to_rgb565.c ****         case LV_COLOR_FORMAT_RGB565:
 303:Lib/lvgl/src/draw/sw/blend/lv_draw_sw_blend_to_rgb565.c ****             rgb565_image_blend(dsc);
 304:Lib/lvgl/src/draw/sw/blend/lv_draw_sw_blend_to_rgb565.c ****             break;
 305:Lib/lvgl/src/draw/sw/blend/lv_draw_sw_blend_to_rgb565.c ****         case LV_COLOR_FORMAT_RGB888:
 306:Lib/lvgl/src/draw/sw/blend/lv_draw_sw_blend_to_rgb565.c ****             rgb888_image_blend(dsc, 3);
 307:Lib/lvgl/src/draw/sw/blend/lv_draw_sw_blend_to_rgb565.c ****             break;
 308:Lib/lvgl/src/draw/sw/blend/lv_draw_sw_blend_to_rgb565.c ****         case LV_COLOR_FORMAT_XRGB8888:
 309:Lib/lvgl/src/draw/sw/blend/lv_draw_sw_blend_to_rgb565.c ****             rgb888_image_blend(dsc, 4);
 310:Lib/lvgl/src/draw/sw/blend/lv_draw_sw_blend_to_rgb565.c ****             break;
 311:Lib/lvgl/src/draw/sw/blend/lv_draw_sw_blend_to_rgb565.c ****         case LV_COLOR_FORMAT_ARGB8888:
 312:Lib/lvgl/src/draw/sw/blend/lv_draw_sw_blend_to_rgb565.c ****             argb8888_image_blend(dsc);
 313:Lib/lvgl/src/draw/sw/blend/lv_draw_sw_blend_to_rgb565.c ****             break;
 314:Lib/lvgl/src/draw/sw/blend/lv_draw_sw_blend_to_rgb565.c ****         default:
 315:Lib/lvgl/src/draw/sw/blend/lv_draw_sw_blend_to_rgb565.c ****             LV_LOG_WARN("Not supported source color format");
 316:Lib/lvgl/src/draw/sw/blend/lv_draw_sw_blend_to_rgb565.c ****             break;
 317:Lib/lvgl/src/draw/sw/blend/lv_draw_sw_blend_to_rgb565.c ****     }
 318:Lib/lvgl/src/draw/sw/blend/lv_draw_sw_blend_to_rgb565.c **** }
 319:Lib/lvgl/src/draw/sw/blend/lv_draw_sw_blend_to_rgb565.c **** 
 320:Lib/lvgl/src/draw/sw/blend/lv_draw_sw_blend_to_rgb565.c **** /**********************
 321:Lib/lvgl/src/draw/sw/blend/lv_draw_sw_blend_to_rgb565.c ****  *   STATIC FUNCTIONS
 322:Lib/lvgl/src/draw/sw/blend/lv_draw_sw_blend_to_rgb565.c ****  **********************/
 323:Lib/lvgl/src/draw/sw/blend/lv_draw_sw_blend_to_rgb565.c **** 
 324:Lib/lvgl/src/draw/sw/blend/lv_draw_sw_blend_to_rgb565.c **** LV_ATTRIBUTE_FAST_MEM static void rgb565_image_blend(_lv_draw_sw_blend_image_dsc_t * dsc)
 325:Lib/lvgl/src/draw/sw/blend/lv_draw_sw_blend_to_rgb565.c **** {
 326:Lib/lvgl/src/draw/sw/blend/lv_draw_sw_blend_to_rgb565.c ****     int32_t w = dsc->dest_w;
 327:Lib/lvgl/src/draw/sw/blend/lv_draw_sw_blend_to_rgb565.c ****     int32_t h = dsc->dest_h;
ARM GAS  C:\Users\Alex\AppData\Local\Temp\ccUzeV0Q.s 			page 15


 328:Lib/lvgl/src/draw/sw/blend/lv_draw_sw_blend_to_rgb565.c ****     lv_opa_t opa = dsc->opa;
 329:Lib/lvgl/src/draw/sw/blend/lv_draw_sw_blend_to_rgb565.c ****     uint16_t * dest_buf_u16 = dsc->dest_buf;
 330:Lib/lvgl/src/draw/sw/blend/lv_draw_sw_blend_to_rgb565.c ****     int32_t dest_stride = dsc->dest_stride;
 331:Lib/lvgl/src/draw/sw/blend/lv_draw_sw_blend_to_rgb565.c ****     const uint16_t * src_buf_u16 = dsc->src_buf;
 332:Lib/lvgl/src/draw/sw/blend/lv_draw_sw_blend_to_rgb565.c ****     int32_t src_stride = dsc->src_stride;
 333:Lib/lvgl/src/draw/sw/blend/lv_draw_sw_blend_to_rgb565.c ****     const lv_opa_t * mask_buf = dsc->mask_buf;
 334:Lib/lvgl/src/draw/sw/blend/lv_draw_sw_blend_to_rgb565.c ****     int32_t mask_stride = dsc->mask_stride;
 335:Lib/lvgl/src/draw/sw/blend/lv_draw_sw_blend_to_rgb565.c **** 
 336:Lib/lvgl/src/draw/sw/blend/lv_draw_sw_blend_to_rgb565.c ****     int32_t x;
 337:Lib/lvgl/src/draw/sw/blend/lv_draw_sw_blend_to_rgb565.c ****     int32_t y;
 338:Lib/lvgl/src/draw/sw/blend/lv_draw_sw_blend_to_rgb565.c **** 
 339:Lib/lvgl/src/draw/sw/blend/lv_draw_sw_blend_to_rgb565.c ****     if(dsc->blend_mode == LV_BLEND_MODE_NORMAL) {
 340:Lib/lvgl/src/draw/sw/blend/lv_draw_sw_blend_to_rgb565.c ****         if(mask_buf == NULL && opa >= LV_OPA_MAX) {
 341:Lib/lvgl/src/draw/sw/blend/lv_draw_sw_blend_to_rgb565.c ****             if(LV_RESULT_INVALID == LV_DRAW_SW_RGB565_BLEND_NORMAL_TO_RGB565(dsc)) {
 342:Lib/lvgl/src/draw/sw/blend/lv_draw_sw_blend_to_rgb565.c ****                 uint32_t line_in_bytes = w * 2;
 343:Lib/lvgl/src/draw/sw/blend/lv_draw_sw_blend_to_rgb565.c ****                 for(y = 0; y < h; y++) {
 344:Lib/lvgl/src/draw/sw/blend/lv_draw_sw_blend_to_rgb565.c ****                     lv_memcpy(dest_buf_u16, src_buf_u16, line_in_bytes);
 345:Lib/lvgl/src/draw/sw/blend/lv_draw_sw_blend_to_rgb565.c ****                     dest_buf_u16 = drawbuf_next_row(dest_buf_u16, dest_stride);
 346:Lib/lvgl/src/draw/sw/blend/lv_draw_sw_blend_to_rgb565.c ****                     src_buf_u16 = drawbuf_next_row(src_buf_u16, src_stride);
 347:Lib/lvgl/src/draw/sw/blend/lv_draw_sw_blend_to_rgb565.c ****                 }
 348:Lib/lvgl/src/draw/sw/blend/lv_draw_sw_blend_to_rgb565.c ****             }
 349:Lib/lvgl/src/draw/sw/blend/lv_draw_sw_blend_to_rgb565.c ****         }
 350:Lib/lvgl/src/draw/sw/blend/lv_draw_sw_blend_to_rgb565.c ****         else if(mask_buf == NULL && opa < LV_OPA_MAX) {
 351:Lib/lvgl/src/draw/sw/blend/lv_draw_sw_blend_to_rgb565.c ****             if(LV_RESULT_INVALID == LV_DRAW_SW_RGB565_BLEND_NORMAL_TO_RGB565_WITH_OPA(dsc)) {
 352:Lib/lvgl/src/draw/sw/blend/lv_draw_sw_blend_to_rgb565.c ****                 for(y = 0; y < h; y++) {
 353:Lib/lvgl/src/draw/sw/blend/lv_draw_sw_blend_to_rgb565.c ****                     for(x = 0; x < w; x++) {
 354:Lib/lvgl/src/draw/sw/blend/lv_draw_sw_blend_to_rgb565.c ****                         dest_buf_u16[x] = lv_color_16_16_mix(src_buf_u16[x], dest_buf_u16[x], opa);
 355:Lib/lvgl/src/draw/sw/blend/lv_draw_sw_blend_to_rgb565.c ****                     }
 356:Lib/lvgl/src/draw/sw/blend/lv_draw_sw_blend_to_rgb565.c ****                     dest_buf_u16 = drawbuf_next_row(dest_buf_u16, dest_stride);
 357:Lib/lvgl/src/draw/sw/blend/lv_draw_sw_blend_to_rgb565.c ****                     src_buf_u16 = drawbuf_next_row(src_buf_u16, src_stride);
 358:Lib/lvgl/src/draw/sw/blend/lv_draw_sw_blend_to_rgb565.c ****                 }
 359:Lib/lvgl/src/draw/sw/blend/lv_draw_sw_blend_to_rgb565.c ****             }
 360:Lib/lvgl/src/draw/sw/blend/lv_draw_sw_blend_to_rgb565.c ****         }
 361:Lib/lvgl/src/draw/sw/blend/lv_draw_sw_blend_to_rgb565.c ****         else if(mask_buf && opa >= LV_OPA_MAX) {
 362:Lib/lvgl/src/draw/sw/blend/lv_draw_sw_blend_to_rgb565.c ****             if(LV_RESULT_INVALID == LV_DRAW_SW_RGB565_BLEND_NORMAL_TO_RGB565_WITH_MASK(dsc)) {
 363:Lib/lvgl/src/draw/sw/blend/lv_draw_sw_blend_to_rgb565.c ****                 for(y = 0; y < h; y++) {
 364:Lib/lvgl/src/draw/sw/blend/lv_draw_sw_blend_to_rgb565.c ****                     for(x = 0; x < w; x++) {
 365:Lib/lvgl/src/draw/sw/blend/lv_draw_sw_blend_to_rgb565.c ****                         dest_buf_u16[x] = lv_color_16_16_mix(src_buf_u16[x], dest_buf_u16[x], mask_
 366:Lib/lvgl/src/draw/sw/blend/lv_draw_sw_blend_to_rgb565.c ****                     }
 367:Lib/lvgl/src/draw/sw/blend/lv_draw_sw_blend_to_rgb565.c ****                     dest_buf_u16 = drawbuf_next_row(dest_buf_u16, dest_stride);
 368:Lib/lvgl/src/draw/sw/blend/lv_draw_sw_blend_to_rgb565.c ****                     src_buf_u16 = drawbuf_next_row(src_buf_u16, src_stride);
 369:Lib/lvgl/src/draw/sw/blend/lv_draw_sw_blend_to_rgb565.c ****                     mask_buf += mask_stride;
 370:Lib/lvgl/src/draw/sw/blend/lv_draw_sw_blend_to_rgb565.c ****                 }
 371:Lib/lvgl/src/draw/sw/blend/lv_draw_sw_blend_to_rgb565.c ****             }
 372:Lib/lvgl/src/draw/sw/blend/lv_draw_sw_blend_to_rgb565.c ****         }
 373:Lib/lvgl/src/draw/sw/blend/lv_draw_sw_blend_to_rgb565.c ****         else {
 374:Lib/lvgl/src/draw/sw/blend/lv_draw_sw_blend_to_rgb565.c ****             if(LV_RESULT_INVALID == LV_DRAW_SW_RGB565_BLEND_NORMAL_TO_RGB565_MIX_MASK_OPA(dsc)) {
 375:Lib/lvgl/src/draw/sw/blend/lv_draw_sw_blend_to_rgb565.c ****                 for(y = 0; y < h; y++) {
 376:Lib/lvgl/src/draw/sw/blend/lv_draw_sw_blend_to_rgb565.c ****                     for(x = 0; x < w; x++) {
 377:Lib/lvgl/src/draw/sw/blend/lv_draw_sw_blend_to_rgb565.c ****                         dest_buf_u16[x] = lv_color_16_16_mix(src_buf_u16[x], dest_buf_u16[x], LV_OP
 378:Lib/lvgl/src/draw/sw/blend/lv_draw_sw_blend_to_rgb565.c ****                     }
 379:Lib/lvgl/src/draw/sw/blend/lv_draw_sw_blend_to_rgb565.c ****                     dest_buf_u16 = drawbuf_next_row(dest_buf_u16, dest_stride);
 380:Lib/lvgl/src/draw/sw/blend/lv_draw_sw_blend_to_rgb565.c ****                     src_buf_u16 = drawbuf_next_row(src_buf_u16, src_stride);
 381:Lib/lvgl/src/draw/sw/blend/lv_draw_sw_blend_to_rgb565.c ****                     mask_buf += mask_stride;
 382:Lib/lvgl/src/draw/sw/blend/lv_draw_sw_blend_to_rgb565.c ****                 }
 383:Lib/lvgl/src/draw/sw/blend/lv_draw_sw_blend_to_rgb565.c ****             }
 384:Lib/lvgl/src/draw/sw/blend/lv_draw_sw_blend_to_rgb565.c ****         }
ARM GAS  C:\Users\Alex\AppData\Local\Temp\ccUzeV0Q.s 			page 16


 385:Lib/lvgl/src/draw/sw/blend/lv_draw_sw_blend_to_rgb565.c ****     }
 386:Lib/lvgl/src/draw/sw/blend/lv_draw_sw_blend_to_rgb565.c ****     else {
 387:Lib/lvgl/src/draw/sw/blend/lv_draw_sw_blend_to_rgb565.c ****         uint16_t res = 0;
 388:Lib/lvgl/src/draw/sw/blend/lv_draw_sw_blend_to_rgb565.c ****         for(y = 0; y < h; y++) {
 389:Lib/lvgl/src/draw/sw/blend/lv_draw_sw_blend_to_rgb565.c ****             lv_color16_t * dest_buf_c16 = (lv_color16_t *) dest_buf_u16;
 390:Lib/lvgl/src/draw/sw/blend/lv_draw_sw_blend_to_rgb565.c ****             lv_color16_t * src_buf_c16 = (lv_color16_t *) src_buf_u16;
 391:Lib/lvgl/src/draw/sw/blend/lv_draw_sw_blend_to_rgb565.c ****             for(x = 0; x < w; x++) {
 392:Lib/lvgl/src/draw/sw/blend/lv_draw_sw_blend_to_rgb565.c ****                 switch(dsc->blend_mode) {
 393:Lib/lvgl/src/draw/sw/blend/lv_draw_sw_blend_to_rgb565.c ****                     case LV_BLEND_MODE_ADDITIVE:
 394:Lib/lvgl/src/draw/sw/blend/lv_draw_sw_blend_to_rgb565.c ****                         if(src_buf_u16[x] == 0x0000) continue;   /*Do not add pure black*/
 395:Lib/lvgl/src/draw/sw/blend/lv_draw_sw_blend_to_rgb565.c ****                         res = (LV_MIN(dest_buf_c16[x].red + src_buf_c16[x].red, 31)) << 11;
 396:Lib/lvgl/src/draw/sw/blend/lv_draw_sw_blend_to_rgb565.c ****                         res += (LV_MIN(dest_buf_c16[x].green + src_buf_c16[x].green, 63)) << 5;
 397:Lib/lvgl/src/draw/sw/blend/lv_draw_sw_blend_to_rgb565.c ****                         res += LV_MIN(dest_buf_c16[x].blue + src_buf_c16[x].blue, 31);
 398:Lib/lvgl/src/draw/sw/blend/lv_draw_sw_blend_to_rgb565.c ****                         break;
 399:Lib/lvgl/src/draw/sw/blend/lv_draw_sw_blend_to_rgb565.c ****                     case LV_BLEND_MODE_SUBTRACTIVE:
 400:Lib/lvgl/src/draw/sw/blend/lv_draw_sw_blend_to_rgb565.c ****                         if(src_buf_u16[x] == 0x0000) continue;   /*Do not subtract pure black*/
 401:Lib/lvgl/src/draw/sw/blend/lv_draw_sw_blend_to_rgb565.c ****                         res = (LV_MAX(dest_buf_c16[x].red - src_buf_c16[x].red, 0)) << 11;
 402:Lib/lvgl/src/draw/sw/blend/lv_draw_sw_blend_to_rgb565.c ****                         res += (LV_MAX(dest_buf_c16[x].green - src_buf_c16[x].green, 0)) << 5;
 403:Lib/lvgl/src/draw/sw/blend/lv_draw_sw_blend_to_rgb565.c ****                         res += LV_MAX(dest_buf_c16[x].blue - src_buf_c16[x].blue, 0);
 404:Lib/lvgl/src/draw/sw/blend/lv_draw_sw_blend_to_rgb565.c ****                         break;
 405:Lib/lvgl/src/draw/sw/blend/lv_draw_sw_blend_to_rgb565.c ****                     case LV_BLEND_MODE_MULTIPLY:
 406:Lib/lvgl/src/draw/sw/blend/lv_draw_sw_blend_to_rgb565.c ****                         if(src_buf_u16[x] == 0xffff) continue;   /*Do not multiply with pure white 
 407:Lib/lvgl/src/draw/sw/blend/lv_draw_sw_blend_to_rgb565.c ****                         res = ((dest_buf_c16[x].red * src_buf_c16[x].red) >> 5) << 11;
 408:Lib/lvgl/src/draw/sw/blend/lv_draw_sw_blend_to_rgb565.c ****                         res += ((dest_buf_c16[x].green * src_buf_c16[x].green) >> 6) << 5;
 409:Lib/lvgl/src/draw/sw/blend/lv_draw_sw_blend_to_rgb565.c ****                         res += (dest_buf_c16[x].blue * src_buf_c16[x].blue) >> 5;
 410:Lib/lvgl/src/draw/sw/blend/lv_draw_sw_blend_to_rgb565.c ****                         break;
 411:Lib/lvgl/src/draw/sw/blend/lv_draw_sw_blend_to_rgb565.c ****                     default:
 412:Lib/lvgl/src/draw/sw/blend/lv_draw_sw_blend_to_rgb565.c ****                         LV_LOG_WARN("Not supported blend mode: %d", dsc->blend_mode);
 413:Lib/lvgl/src/draw/sw/blend/lv_draw_sw_blend_to_rgb565.c ****                         return;
 414:Lib/lvgl/src/draw/sw/blend/lv_draw_sw_blend_to_rgb565.c ****                 }
 415:Lib/lvgl/src/draw/sw/blend/lv_draw_sw_blend_to_rgb565.c **** 
 416:Lib/lvgl/src/draw/sw/blend/lv_draw_sw_blend_to_rgb565.c ****                 if(mask_buf == NULL) {
 417:Lib/lvgl/src/draw/sw/blend/lv_draw_sw_blend_to_rgb565.c ****                     dest_buf_u16[x] = lv_color_16_16_mix(res, dest_buf_u16[x], opa);
 418:Lib/lvgl/src/draw/sw/blend/lv_draw_sw_blend_to_rgb565.c ****                 }
 419:Lib/lvgl/src/draw/sw/blend/lv_draw_sw_blend_to_rgb565.c ****                 else {
 420:Lib/lvgl/src/draw/sw/blend/lv_draw_sw_blend_to_rgb565.c ****                     if(opa >= LV_OPA_MAX) dest_buf_u16[x] = lv_color_16_16_mix(res, dest_buf_u16[x]
 421:Lib/lvgl/src/draw/sw/blend/lv_draw_sw_blend_to_rgb565.c ****                     else dest_buf_u16[x] = lv_color_16_16_mix(res, dest_buf_u16[x], LV_OPA_MIX2(mas
 422:Lib/lvgl/src/draw/sw/blend/lv_draw_sw_blend_to_rgb565.c ****                 }
 423:Lib/lvgl/src/draw/sw/blend/lv_draw_sw_blend_to_rgb565.c ****             }
 424:Lib/lvgl/src/draw/sw/blend/lv_draw_sw_blend_to_rgb565.c **** 
 425:Lib/lvgl/src/draw/sw/blend/lv_draw_sw_blend_to_rgb565.c ****             dest_buf_u16 = drawbuf_next_row(dest_buf_u16, dest_stride);
 426:Lib/lvgl/src/draw/sw/blend/lv_draw_sw_blend_to_rgb565.c ****             src_buf_u16 = drawbuf_next_row(src_buf_u16, src_stride);
 427:Lib/lvgl/src/draw/sw/blend/lv_draw_sw_blend_to_rgb565.c ****             if(mask_buf) mask_buf += mask_stride;
 428:Lib/lvgl/src/draw/sw/blend/lv_draw_sw_blend_to_rgb565.c ****         }
 429:Lib/lvgl/src/draw/sw/blend/lv_draw_sw_blend_to_rgb565.c ****     }
 430:Lib/lvgl/src/draw/sw/blend/lv_draw_sw_blend_to_rgb565.c **** }
 431:Lib/lvgl/src/draw/sw/blend/lv_draw_sw_blend_to_rgb565.c **** 
 432:Lib/lvgl/src/draw/sw/blend/lv_draw_sw_blend_to_rgb565.c **** LV_ATTRIBUTE_FAST_MEM static void rgb888_image_blend(_lv_draw_sw_blend_image_dsc_t * dsc, const uin
 433:Lib/lvgl/src/draw/sw/blend/lv_draw_sw_blend_to_rgb565.c **** {
 434:Lib/lvgl/src/draw/sw/blend/lv_draw_sw_blend_to_rgb565.c ****     int32_t w = dsc->dest_w;
 435:Lib/lvgl/src/draw/sw/blend/lv_draw_sw_blend_to_rgb565.c ****     int32_t h = dsc->dest_h;
 436:Lib/lvgl/src/draw/sw/blend/lv_draw_sw_blend_to_rgb565.c ****     lv_opa_t opa = dsc->opa;
 437:Lib/lvgl/src/draw/sw/blend/lv_draw_sw_blend_to_rgb565.c ****     uint16_t * dest_buf_u16 = dsc->dest_buf;
 438:Lib/lvgl/src/draw/sw/blend/lv_draw_sw_blend_to_rgb565.c ****     int32_t dest_stride = dsc->dest_stride;
 439:Lib/lvgl/src/draw/sw/blend/lv_draw_sw_blend_to_rgb565.c ****     const uint8_t * src_buf_u8 = dsc->src_buf;
 440:Lib/lvgl/src/draw/sw/blend/lv_draw_sw_blend_to_rgb565.c ****     int32_t src_stride = dsc->src_stride;
 441:Lib/lvgl/src/draw/sw/blend/lv_draw_sw_blend_to_rgb565.c ****     const lv_opa_t * mask_buf = dsc->mask_buf;
ARM GAS  C:\Users\Alex\AppData\Local\Temp\ccUzeV0Q.s 			page 17


 442:Lib/lvgl/src/draw/sw/blend/lv_draw_sw_blend_to_rgb565.c ****     int32_t mask_stride = dsc->mask_stride;
 443:Lib/lvgl/src/draw/sw/blend/lv_draw_sw_blend_to_rgb565.c **** 
 444:Lib/lvgl/src/draw/sw/blend/lv_draw_sw_blend_to_rgb565.c ****     int32_t dest_x;
 445:Lib/lvgl/src/draw/sw/blend/lv_draw_sw_blend_to_rgb565.c ****     int32_t src_x;
 446:Lib/lvgl/src/draw/sw/blend/lv_draw_sw_blend_to_rgb565.c ****     int32_t y;
 447:Lib/lvgl/src/draw/sw/blend/lv_draw_sw_blend_to_rgb565.c **** 
 448:Lib/lvgl/src/draw/sw/blend/lv_draw_sw_blend_to_rgb565.c ****     if(dsc->blend_mode == LV_BLEND_MODE_NORMAL) {
 449:Lib/lvgl/src/draw/sw/blend/lv_draw_sw_blend_to_rgb565.c ****         if(mask_buf == NULL && opa >= LV_OPA_MAX) {
 450:Lib/lvgl/src/draw/sw/blend/lv_draw_sw_blend_to_rgb565.c ****             if(LV_RESULT_INVALID == LV_DRAW_SW_RGB888_BLEND_NORMAL_TO_RGB565(dsc, src_px_size)) {
 451:Lib/lvgl/src/draw/sw/blend/lv_draw_sw_blend_to_rgb565.c ****                 for(y = 0; y < h; y++) {
 452:Lib/lvgl/src/draw/sw/blend/lv_draw_sw_blend_to_rgb565.c ****                     for(dest_x = 0, src_x = 0; dest_x < w; dest_x++, src_x += src_px_size) {
 453:Lib/lvgl/src/draw/sw/blend/lv_draw_sw_blend_to_rgb565.c ****                         dest_buf_u16[dest_x]  = ((src_buf_u8[src_x + 2] & 0xF8) << 8) +
 454:Lib/lvgl/src/draw/sw/blend/lv_draw_sw_blend_to_rgb565.c ****                                                 ((src_buf_u8[src_x + 1] & 0xFC) << 3) +
 455:Lib/lvgl/src/draw/sw/blend/lv_draw_sw_blend_to_rgb565.c ****                                                 ((src_buf_u8[src_x + 0] & 0xF8) >> 3);
 456:Lib/lvgl/src/draw/sw/blend/lv_draw_sw_blend_to_rgb565.c ****                     }
 457:Lib/lvgl/src/draw/sw/blend/lv_draw_sw_blend_to_rgb565.c ****                     dest_buf_u16 = drawbuf_next_row(dest_buf_u16, dest_stride);
 458:Lib/lvgl/src/draw/sw/blend/lv_draw_sw_blend_to_rgb565.c ****                     src_buf_u8 += src_stride;
 459:Lib/lvgl/src/draw/sw/blend/lv_draw_sw_blend_to_rgb565.c ****                 }
 460:Lib/lvgl/src/draw/sw/blend/lv_draw_sw_blend_to_rgb565.c ****             }
 461:Lib/lvgl/src/draw/sw/blend/lv_draw_sw_blend_to_rgb565.c ****         }
 462:Lib/lvgl/src/draw/sw/blend/lv_draw_sw_blend_to_rgb565.c ****         else if(mask_buf == NULL && opa < LV_OPA_MAX) {
 463:Lib/lvgl/src/draw/sw/blend/lv_draw_sw_blend_to_rgb565.c ****             if(LV_RESULT_INVALID == LV_DRAW_SW_RGB888_BLEND_NORMAL_TO_RGB565_WITH_OPA(dsc, src_px_s
 464:Lib/lvgl/src/draw/sw/blend/lv_draw_sw_blend_to_rgb565.c ****                 for(y = 0; y < h; y++) {
 465:Lib/lvgl/src/draw/sw/blend/lv_draw_sw_blend_to_rgb565.c ****                     for(dest_x = 0, src_x = 0; dest_x < w; dest_x++, src_x += src_px_size) {
 466:Lib/lvgl/src/draw/sw/blend/lv_draw_sw_blend_to_rgb565.c ****                         dest_buf_u16[dest_x] = lv_color_24_16_mix(&src_buf_u8[src_x], dest_buf_u16[
 467:Lib/lvgl/src/draw/sw/blend/lv_draw_sw_blend_to_rgb565.c ****                     }
 468:Lib/lvgl/src/draw/sw/blend/lv_draw_sw_blend_to_rgb565.c ****                     dest_buf_u16 = drawbuf_next_row(dest_buf_u16, dest_stride);
 469:Lib/lvgl/src/draw/sw/blend/lv_draw_sw_blend_to_rgb565.c ****                     src_buf_u8 += src_stride;
 470:Lib/lvgl/src/draw/sw/blend/lv_draw_sw_blend_to_rgb565.c ****                 }
 471:Lib/lvgl/src/draw/sw/blend/lv_draw_sw_blend_to_rgb565.c ****             }
 472:Lib/lvgl/src/draw/sw/blend/lv_draw_sw_blend_to_rgb565.c ****         }
 473:Lib/lvgl/src/draw/sw/blend/lv_draw_sw_blend_to_rgb565.c ****         if(mask_buf && opa >= LV_OPA_MAX) {
 474:Lib/lvgl/src/draw/sw/blend/lv_draw_sw_blend_to_rgb565.c ****             if(LV_RESULT_INVALID == LV_DRAW_SW_RGB888_BLEND_NORMAL_TO_RGB565_WITH_MASK(dsc, src_px_
 475:Lib/lvgl/src/draw/sw/blend/lv_draw_sw_blend_to_rgb565.c ****                 for(y = 0; y < h; y++) {
 476:Lib/lvgl/src/draw/sw/blend/lv_draw_sw_blend_to_rgb565.c ****                     for(dest_x = 0, src_x = 0; dest_x < w; dest_x++, src_x += src_px_size) {
 477:Lib/lvgl/src/draw/sw/blend/lv_draw_sw_blend_to_rgb565.c ****                         dest_buf_u16[dest_x] = lv_color_24_16_mix(&src_buf_u8[src_x], dest_buf_u16[
 478:Lib/lvgl/src/draw/sw/blend/lv_draw_sw_blend_to_rgb565.c ****                     }
 479:Lib/lvgl/src/draw/sw/blend/lv_draw_sw_blend_to_rgb565.c ****                     dest_buf_u16 = drawbuf_next_row(dest_buf_u16, dest_stride);
 480:Lib/lvgl/src/draw/sw/blend/lv_draw_sw_blend_to_rgb565.c ****                     src_buf_u8 += src_stride;
 481:Lib/lvgl/src/draw/sw/blend/lv_draw_sw_blend_to_rgb565.c ****                     mask_buf += mask_stride;
 482:Lib/lvgl/src/draw/sw/blend/lv_draw_sw_blend_to_rgb565.c ****                 }
 483:Lib/lvgl/src/draw/sw/blend/lv_draw_sw_blend_to_rgb565.c ****             }
 484:Lib/lvgl/src/draw/sw/blend/lv_draw_sw_blend_to_rgb565.c ****         }
 485:Lib/lvgl/src/draw/sw/blend/lv_draw_sw_blend_to_rgb565.c ****         if(mask_buf && opa < LV_OPA_MAX) {
 486:Lib/lvgl/src/draw/sw/blend/lv_draw_sw_blend_to_rgb565.c ****             if(LV_RESULT_INVALID == LV_DRAW_SW_RGB888_BLEND_NORMAL_TO_RGB565_MIX_MASK_OPA(dsc, src_
 487:Lib/lvgl/src/draw/sw/blend/lv_draw_sw_blend_to_rgb565.c ****                 for(y = 0; y < h; y++) {
 488:Lib/lvgl/src/draw/sw/blend/lv_draw_sw_blend_to_rgb565.c ****                     for(dest_x = 0, src_x = 0; dest_x < w; dest_x++, src_x += src_px_size) {
 489:Lib/lvgl/src/draw/sw/blend/lv_draw_sw_blend_to_rgb565.c ****                         dest_buf_u16[dest_x] = lv_color_24_16_mix(&src_buf_u8[src_x], dest_buf_u16[
 490:Lib/lvgl/src/draw/sw/blend/lv_draw_sw_blend_to_rgb565.c ****                     }
 491:Lib/lvgl/src/draw/sw/blend/lv_draw_sw_blend_to_rgb565.c ****                     dest_buf_u16 = drawbuf_next_row(dest_buf_u16, dest_stride);
 492:Lib/lvgl/src/draw/sw/blend/lv_draw_sw_blend_to_rgb565.c ****                     src_buf_u8 += src_stride;
 493:Lib/lvgl/src/draw/sw/blend/lv_draw_sw_blend_to_rgb565.c ****                     mask_buf += mask_stride;
 494:Lib/lvgl/src/draw/sw/blend/lv_draw_sw_blend_to_rgb565.c ****                 }
 495:Lib/lvgl/src/draw/sw/blend/lv_draw_sw_blend_to_rgb565.c ****             }
 496:Lib/lvgl/src/draw/sw/blend/lv_draw_sw_blend_to_rgb565.c ****         }
 497:Lib/lvgl/src/draw/sw/blend/lv_draw_sw_blend_to_rgb565.c ****     }
 498:Lib/lvgl/src/draw/sw/blend/lv_draw_sw_blend_to_rgb565.c ****     else {
ARM GAS  C:\Users\Alex\AppData\Local\Temp\ccUzeV0Q.s 			page 18


 499:Lib/lvgl/src/draw/sw/blend/lv_draw_sw_blend_to_rgb565.c ****         uint16_t res = 0;
 500:Lib/lvgl/src/draw/sw/blend/lv_draw_sw_blend_to_rgb565.c ****         for(y = 0; y < h; y++) {
 501:Lib/lvgl/src/draw/sw/blend/lv_draw_sw_blend_to_rgb565.c ****             lv_color16_t * dest_buf_c16 = (lv_color16_t *) dest_buf_u16;
 502:Lib/lvgl/src/draw/sw/blend/lv_draw_sw_blend_to_rgb565.c ****             for(dest_x = 0, src_x = 0; dest_x < w; dest_x++, src_x += src_px_size) {
 503:Lib/lvgl/src/draw/sw/blend/lv_draw_sw_blend_to_rgb565.c ****                 switch(dsc->blend_mode) {
 504:Lib/lvgl/src/draw/sw/blend/lv_draw_sw_blend_to_rgb565.c ****                     case LV_BLEND_MODE_ADDITIVE:
 505:Lib/lvgl/src/draw/sw/blend/lv_draw_sw_blend_to_rgb565.c ****                         res = (LV_MIN(dest_buf_c16[dest_x].red + (src_buf_u8[src_x + 2] >> 3), 31))
 506:Lib/lvgl/src/draw/sw/blend/lv_draw_sw_blend_to_rgb565.c ****                         res += (LV_MIN(dest_buf_c16[dest_x].green + (src_buf_u8[src_x + 1] >> 2), 6
 507:Lib/lvgl/src/draw/sw/blend/lv_draw_sw_blend_to_rgb565.c ****                         res += LV_MIN(dest_buf_c16[dest_x].blue + (src_buf_u8[src_x + 0] >> 3), 31)
 508:Lib/lvgl/src/draw/sw/blend/lv_draw_sw_blend_to_rgb565.c ****                         break;
 509:Lib/lvgl/src/draw/sw/blend/lv_draw_sw_blend_to_rgb565.c ****                     case LV_BLEND_MODE_SUBTRACTIVE:
 510:Lib/lvgl/src/draw/sw/blend/lv_draw_sw_blend_to_rgb565.c ****                         res = (LV_MAX(dest_buf_c16[dest_x].red - (src_buf_u8[src_x + 2] >> 3), 0)) 
 511:Lib/lvgl/src/draw/sw/blend/lv_draw_sw_blend_to_rgb565.c ****                         res += (LV_MAX(dest_buf_c16[dest_x].green - (src_buf_u8[src_x + 1] >> 2), 0
 512:Lib/lvgl/src/draw/sw/blend/lv_draw_sw_blend_to_rgb565.c ****                         res += LV_MAX(dest_buf_c16[dest_x].blue - (src_buf_u8[src_x + 0] >> 3), 0);
 513:Lib/lvgl/src/draw/sw/blend/lv_draw_sw_blend_to_rgb565.c ****                         break;
 514:Lib/lvgl/src/draw/sw/blend/lv_draw_sw_blend_to_rgb565.c ****                     case LV_BLEND_MODE_MULTIPLY:
 515:Lib/lvgl/src/draw/sw/blend/lv_draw_sw_blend_to_rgb565.c ****                         res = ((dest_buf_c16[dest_x].red * (src_buf_u8[src_x + 2] >> 3)) >> 5) << 1
 516:Lib/lvgl/src/draw/sw/blend/lv_draw_sw_blend_to_rgb565.c ****                         res += ((dest_buf_c16[dest_x].green * (src_buf_u8[src_x + 1] >> 2)) >> 6) <
 517:Lib/lvgl/src/draw/sw/blend/lv_draw_sw_blend_to_rgb565.c ****                         res += (dest_buf_c16[dest_x].blue * (src_buf_u8[src_x + 1] >> 3)) >> 5;
 518:Lib/lvgl/src/draw/sw/blend/lv_draw_sw_blend_to_rgb565.c ****                         break;
 519:Lib/lvgl/src/draw/sw/blend/lv_draw_sw_blend_to_rgb565.c ****                     default:
 520:Lib/lvgl/src/draw/sw/blend/lv_draw_sw_blend_to_rgb565.c ****                         LV_LOG_WARN("Not supported blend mode: %d", dsc->blend_mode);
 521:Lib/lvgl/src/draw/sw/blend/lv_draw_sw_blend_to_rgb565.c ****                         return;
 522:Lib/lvgl/src/draw/sw/blend/lv_draw_sw_blend_to_rgb565.c ****                 }
 523:Lib/lvgl/src/draw/sw/blend/lv_draw_sw_blend_to_rgb565.c **** 
 524:Lib/lvgl/src/draw/sw/blend/lv_draw_sw_blend_to_rgb565.c ****                 if(mask_buf == NULL) {
 525:Lib/lvgl/src/draw/sw/blend/lv_draw_sw_blend_to_rgb565.c ****                     dest_buf_u16[dest_x] = lv_color_16_16_mix(res, dest_buf_u16[dest_x], opa);
 526:Lib/lvgl/src/draw/sw/blend/lv_draw_sw_blend_to_rgb565.c ****                 }
 527:Lib/lvgl/src/draw/sw/blend/lv_draw_sw_blend_to_rgb565.c ****                 else {
 528:Lib/lvgl/src/draw/sw/blend/lv_draw_sw_blend_to_rgb565.c ****                     if(opa >= LV_OPA_MAX) dest_buf_u16[dest_x] = lv_color_16_16_mix(res, dest_buf_u
 529:Lib/lvgl/src/draw/sw/blend/lv_draw_sw_blend_to_rgb565.c ****                     else dest_buf_u16[dest_x] = lv_color_16_16_mix(res, dest_buf_u16[dest_x], LV_OP
 530:Lib/lvgl/src/draw/sw/blend/lv_draw_sw_blend_to_rgb565.c ****                 }
 531:Lib/lvgl/src/draw/sw/blend/lv_draw_sw_blend_to_rgb565.c ****             }
 532:Lib/lvgl/src/draw/sw/blend/lv_draw_sw_blend_to_rgb565.c ****             dest_buf_u16 = drawbuf_next_row(dest_buf_u16, dest_stride);
 533:Lib/lvgl/src/draw/sw/blend/lv_draw_sw_blend_to_rgb565.c ****             src_buf_u8 += src_stride;
 534:Lib/lvgl/src/draw/sw/blend/lv_draw_sw_blend_to_rgb565.c ****             if(mask_buf) mask_buf += mask_stride;
 535:Lib/lvgl/src/draw/sw/blend/lv_draw_sw_blend_to_rgb565.c ****         }
 536:Lib/lvgl/src/draw/sw/blend/lv_draw_sw_blend_to_rgb565.c **** 
 537:Lib/lvgl/src/draw/sw/blend/lv_draw_sw_blend_to_rgb565.c ****     }
 538:Lib/lvgl/src/draw/sw/blend/lv_draw_sw_blend_to_rgb565.c **** }
 539:Lib/lvgl/src/draw/sw/blend/lv_draw_sw_blend_to_rgb565.c **** 
 540:Lib/lvgl/src/draw/sw/blend/lv_draw_sw_blend_to_rgb565.c **** LV_ATTRIBUTE_FAST_MEM static void argb8888_image_blend(_lv_draw_sw_blend_image_dsc_t * dsc)
 541:Lib/lvgl/src/draw/sw/blend/lv_draw_sw_blend_to_rgb565.c **** {
 542:Lib/lvgl/src/draw/sw/blend/lv_draw_sw_blend_to_rgb565.c ****     int32_t w = dsc->dest_w;
 543:Lib/lvgl/src/draw/sw/blend/lv_draw_sw_blend_to_rgb565.c ****     int32_t h = dsc->dest_h;
 544:Lib/lvgl/src/draw/sw/blend/lv_draw_sw_blend_to_rgb565.c ****     lv_opa_t opa = dsc->opa;
 545:Lib/lvgl/src/draw/sw/blend/lv_draw_sw_blend_to_rgb565.c ****     uint16_t * dest_buf_u16 = dsc->dest_buf;
 546:Lib/lvgl/src/draw/sw/blend/lv_draw_sw_blend_to_rgb565.c ****     int32_t dest_stride = dsc->dest_stride;
 547:Lib/lvgl/src/draw/sw/blend/lv_draw_sw_blend_to_rgb565.c ****     const uint8_t * src_buf_u8 = dsc->src_buf;
 548:Lib/lvgl/src/draw/sw/blend/lv_draw_sw_blend_to_rgb565.c ****     int32_t src_stride = dsc->src_stride;
 549:Lib/lvgl/src/draw/sw/blend/lv_draw_sw_blend_to_rgb565.c ****     const lv_opa_t * mask_buf = dsc->mask_buf;
 550:Lib/lvgl/src/draw/sw/blend/lv_draw_sw_blend_to_rgb565.c ****     int32_t mask_stride = dsc->mask_stride;
 551:Lib/lvgl/src/draw/sw/blend/lv_draw_sw_blend_to_rgb565.c **** 
 552:Lib/lvgl/src/draw/sw/blend/lv_draw_sw_blend_to_rgb565.c ****     int32_t dest_x;
 553:Lib/lvgl/src/draw/sw/blend/lv_draw_sw_blend_to_rgb565.c ****     int32_t src_x;
 554:Lib/lvgl/src/draw/sw/blend/lv_draw_sw_blend_to_rgb565.c ****     int32_t y;
 555:Lib/lvgl/src/draw/sw/blend/lv_draw_sw_blend_to_rgb565.c **** 
ARM GAS  C:\Users\Alex\AppData\Local\Temp\ccUzeV0Q.s 			page 19


 556:Lib/lvgl/src/draw/sw/blend/lv_draw_sw_blend_to_rgb565.c ****     if(dsc->blend_mode == LV_BLEND_MODE_NORMAL) {
 557:Lib/lvgl/src/draw/sw/blend/lv_draw_sw_blend_to_rgb565.c ****         if(mask_buf == NULL && opa >= LV_OPA_MAX) {
 558:Lib/lvgl/src/draw/sw/blend/lv_draw_sw_blend_to_rgb565.c ****             if(LV_RESULT_INVALID == LV_DRAW_SW_ARGB8888_BLEND_NORMAL_TO_RGB565(dsc)) {
 559:Lib/lvgl/src/draw/sw/blend/lv_draw_sw_blend_to_rgb565.c ****                 for(y = 0; y < h; y++) {
 560:Lib/lvgl/src/draw/sw/blend/lv_draw_sw_blend_to_rgb565.c ****                     for(dest_x = 0, src_x = 0; dest_x < w; dest_x++, src_x += 4) {
 561:Lib/lvgl/src/draw/sw/blend/lv_draw_sw_blend_to_rgb565.c ****                         dest_buf_u16[dest_x] = lv_color_24_16_mix(&src_buf_u8[src_x], dest_buf_u16[
 562:Lib/lvgl/src/draw/sw/blend/lv_draw_sw_blend_to_rgb565.c ****                     }
 563:Lib/lvgl/src/draw/sw/blend/lv_draw_sw_blend_to_rgb565.c ****                     dest_buf_u16 = drawbuf_next_row(dest_buf_u16, dest_stride);
 564:Lib/lvgl/src/draw/sw/blend/lv_draw_sw_blend_to_rgb565.c ****                     src_buf_u8 += src_stride;
 565:Lib/lvgl/src/draw/sw/blend/lv_draw_sw_blend_to_rgb565.c ****                 }
 566:Lib/lvgl/src/draw/sw/blend/lv_draw_sw_blend_to_rgb565.c ****             }
 567:Lib/lvgl/src/draw/sw/blend/lv_draw_sw_blend_to_rgb565.c ****         }
 568:Lib/lvgl/src/draw/sw/blend/lv_draw_sw_blend_to_rgb565.c ****         else if(mask_buf == NULL && opa < LV_OPA_MAX) {
 569:Lib/lvgl/src/draw/sw/blend/lv_draw_sw_blend_to_rgb565.c ****             if(LV_RESULT_INVALID == LV_DRAW_SW_ARGB8888_BLEND_NORMAL_TO_RGB565_WITH_OPA(dsc)) {
 570:Lib/lvgl/src/draw/sw/blend/lv_draw_sw_blend_to_rgb565.c ****                 for(y = 0; y < h; y++) {
 571:Lib/lvgl/src/draw/sw/blend/lv_draw_sw_blend_to_rgb565.c ****                     for(dest_x = 0, src_x = 0; dest_x < w; dest_x++, src_x += 4) {
 572:Lib/lvgl/src/draw/sw/blend/lv_draw_sw_blend_to_rgb565.c ****                         dest_buf_u16[dest_x] = lv_color_24_16_mix(&src_buf_u8[src_x], dest_buf_u16[
 573:Lib/lvgl/src/draw/sw/blend/lv_draw_sw_blend_to_rgb565.c ****                                                                                                    
 574:Lib/lvgl/src/draw/sw/blend/lv_draw_sw_blend_to_rgb565.c ****                     }
 575:Lib/lvgl/src/draw/sw/blend/lv_draw_sw_blend_to_rgb565.c ****                     dest_buf_u16 = drawbuf_next_row(dest_buf_u16, dest_stride);
 576:Lib/lvgl/src/draw/sw/blend/lv_draw_sw_blend_to_rgb565.c ****                     src_buf_u8 += src_stride;
 577:Lib/lvgl/src/draw/sw/blend/lv_draw_sw_blend_to_rgb565.c ****                 }
 578:Lib/lvgl/src/draw/sw/blend/lv_draw_sw_blend_to_rgb565.c ****             }
 579:Lib/lvgl/src/draw/sw/blend/lv_draw_sw_blend_to_rgb565.c ****         }
 580:Lib/lvgl/src/draw/sw/blend/lv_draw_sw_blend_to_rgb565.c ****         else if(mask_buf && opa >= LV_OPA_MAX) {
 581:Lib/lvgl/src/draw/sw/blend/lv_draw_sw_blend_to_rgb565.c ****             if(LV_RESULT_INVALID == LV_DRAW_SW_ARGB8888_BLEND_NORMAL_TO_RGB565_WITH_MASK(dsc)) {
 582:Lib/lvgl/src/draw/sw/blend/lv_draw_sw_blend_to_rgb565.c ****                 for(y = 0; y < h; y++) {
 583:Lib/lvgl/src/draw/sw/blend/lv_draw_sw_blend_to_rgb565.c ****                     for(dest_x = 0, src_x = 0; dest_x < w; dest_x++, src_x += 4) {
 584:Lib/lvgl/src/draw/sw/blend/lv_draw_sw_blend_to_rgb565.c ****                         dest_buf_u16[dest_x] = lv_color_24_16_mix(&src_buf_u8[src_x], dest_buf_u16[
 585:Lib/lvgl/src/draw/sw/blend/lv_draw_sw_blend_to_rgb565.c ****                                                                   LV_OPA_MIX2(src_buf_u8[src_x + 3]
 586:Lib/lvgl/src/draw/sw/blend/lv_draw_sw_blend_to_rgb565.c ****                     }
 587:Lib/lvgl/src/draw/sw/blend/lv_draw_sw_blend_to_rgb565.c ****                     dest_buf_u16 = drawbuf_next_row(dest_buf_u16, dest_stride);
 588:Lib/lvgl/src/draw/sw/blend/lv_draw_sw_blend_to_rgb565.c ****                     src_buf_u8 += src_stride;
 589:Lib/lvgl/src/draw/sw/blend/lv_draw_sw_blend_to_rgb565.c ****                     mask_buf += mask_stride;
 590:Lib/lvgl/src/draw/sw/blend/lv_draw_sw_blend_to_rgb565.c ****                 }
 591:Lib/lvgl/src/draw/sw/blend/lv_draw_sw_blend_to_rgb565.c ****             }
 592:Lib/lvgl/src/draw/sw/blend/lv_draw_sw_blend_to_rgb565.c ****         }
 593:Lib/lvgl/src/draw/sw/blend/lv_draw_sw_blend_to_rgb565.c ****         else if(mask_buf && opa < LV_OPA_MAX) {
 594:Lib/lvgl/src/draw/sw/blend/lv_draw_sw_blend_to_rgb565.c ****             if(LV_RESULT_INVALID == LV_DRAW_SW_ARGB8888_BLEND_NORMAL_TO_RGB565_MIX_MASK_OPA(dsc)) {
 595:Lib/lvgl/src/draw/sw/blend/lv_draw_sw_blend_to_rgb565.c ****                 for(y = 0; y < h; y++) {
 596:Lib/lvgl/src/draw/sw/blend/lv_draw_sw_blend_to_rgb565.c ****                     for(dest_x = 0, src_x = 0; dest_x < w; dest_x++, src_x += 4) {
 597:Lib/lvgl/src/draw/sw/blend/lv_draw_sw_blend_to_rgb565.c ****                         dest_buf_u16[dest_x] = lv_color_24_16_mix(&src_buf_u8[src_x], dest_buf_u16[
 598:Lib/lvgl/src/draw/sw/blend/lv_draw_sw_blend_to_rgb565.c ****                                                                   LV_OPA_MIX3(src_buf_u8[src_x + 3]
 599:Lib/lvgl/src/draw/sw/blend/lv_draw_sw_blend_to_rgb565.c ****                     }
 600:Lib/lvgl/src/draw/sw/blend/lv_draw_sw_blend_to_rgb565.c ****                     dest_buf_u16 = drawbuf_next_row(dest_buf_u16, dest_stride);
 601:Lib/lvgl/src/draw/sw/blend/lv_draw_sw_blend_to_rgb565.c ****                     src_buf_u8 += src_stride;
 602:Lib/lvgl/src/draw/sw/blend/lv_draw_sw_blend_to_rgb565.c ****                     mask_buf += mask_stride;
 603:Lib/lvgl/src/draw/sw/blend/lv_draw_sw_blend_to_rgb565.c ****                 }
 604:Lib/lvgl/src/draw/sw/blend/lv_draw_sw_blend_to_rgb565.c ****             }
 605:Lib/lvgl/src/draw/sw/blend/lv_draw_sw_blend_to_rgb565.c ****         }
 606:Lib/lvgl/src/draw/sw/blend/lv_draw_sw_blend_to_rgb565.c ****     }
 607:Lib/lvgl/src/draw/sw/blend/lv_draw_sw_blend_to_rgb565.c ****     else {
 608:Lib/lvgl/src/draw/sw/blend/lv_draw_sw_blend_to_rgb565.c ****         uint16_t res = 0;
 609:Lib/lvgl/src/draw/sw/blend/lv_draw_sw_blend_to_rgb565.c ****         for(y = 0; y < h; y++) {
 610:Lib/lvgl/src/draw/sw/blend/lv_draw_sw_blend_to_rgb565.c ****             lv_color16_t * dest_buf_c16 = (lv_color16_t *) dest_buf_u16;
 611:Lib/lvgl/src/draw/sw/blend/lv_draw_sw_blend_to_rgb565.c ****             for(dest_x = 0, src_x = 0; dest_x < w; dest_x++, src_x += 4) {
 612:Lib/lvgl/src/draw/sw/blend/lv_draw_sw_blend_to_rgb565.c ****                 switch(dsc->blend_mode) {
ARM GAS  C:\Users\Alex\AppData\Local\Temp\ccUzeV0Q.s 			page 20


 613:Lib/lvgl/src/draw/sw/blend/lv_draw_sw_blend_to_rgb565.c ****                     case LV_BLEND_MODE_ADDITIVE:
 614:Lib/lvgl/src/draw/sw/blend/lv_draw_sw_blend_to_rgb565.c ****                         res = (LV_MIN(dest_buf_c16[dest_x].red + (src_buf_u8[src_x + 2] >> 3), 31))
 615:Lib/lvgl/src/draw/sw/blend/lv_draw_sw_blend_to_rgb565.c ****                         res += (LV_MIN(dest_buf_c16[dest_x].green + (src_buf_u8[src_x + 1] >> 2), 6
 616:Lib/lvgl/src/draw/sw/blend/lv_draw_sw_blend_to_rgb565.c ****                         res += LV_MIN(dest_buf_c16[dest_x].blue + (src_buf_u8[src_x + 0] >> 3), 31)
 617:Lib/lvgl/src/draw/sw/blend/lv_draw_sw_blend_to_rgb565.c ****                         break;
 618:Lib/lvgl/src/draw/sw/blend/lv_draw_sw_blend_to_rgb565.c ****                     case LV_BLEND_MODE_SUBTRACTIVE:
 619:Lib/lvgl/src/draw/sw/blend/lv_draw_sw_blend_to_rgb565.c ****                         res = (LV_MAX(dest_buf_c16[dest_x].red - (src_buf_u8[src_x + 2] >> 3), 0)) 
 620:Lib/lvgl/src/draw/sw/blend/lv_draw_sw_blend_to_rgb565.c ****                         res += (LV_MAX(dest_buf_c16[dest_x].green - (src_buf_u8[src_x + 1] >> 2), 0
 621:Lib/lvgl/src/draw/sw/blend/lv_draw_sw_blend_to_rgb565.c ****                         res += LV_MAX(dest_buf_c16[dest_x].blue - (src_buf_u8[src_x + 0] >> 3), 0);
 622:Lib/lvgl/src/draw/sw/blend/lv_draw_sw_blend_to_rgb565.c ****                         break;
 623:Lib/lvgl/src/draw/sw/blend/lv_draw_sw_blend_to_rgb565.c ****                     case LV_BLEND_MODE_MULTIPLY:
 624:Lib/lvgl/src/draw/sw/blend/lv_draw_sw_blend_to_rgb565.c ****                         res = ((dest_buf_c16[dest_x].red * (src_buf_u8[src_x + 2] >> 3)) >> 5) << 1
 625:Lib/lvgl/src/draw/sw/blend/lv_draw_sw_blend_to_rgb565.c ****                         res += ((dest_buf_c16[dest_x].green * (src_buf_u8[src_x + 1] >> 2)) >> 6) <
 626:Lib/lvgl/src/draw/sw/blend/lv_draw_sw_blend_to_rgb565.c ****                         res += (dest_buf_c16[dest_x].blue * (src_buf_u8[src_x + 0] >> 3)) >> 5;
 627:Lib/lvgl/src/draw/sw/blend/lv_draw_sw_blend_to_rgb565.c ****                         break;
 628:Lib/lvgl/src/draw/sw/blend/lv_draw_sw_blend_to_rgb565.c ****                     default:
 629:Lib/lvgl/src/draw/sw/blend/lv_draw_sw_blend_to_rgb565.c ****                         LV_LOG_WARN("Not supported blend mode: %d", dsc->blend_mode);
 630:Lib/lvgl/src/draw/sw/blend/lv_draw_sw_blend_to_rgb565.c ****                         return;
 631:Lib/lvgl/src/draw/sw/blend/lv_draw_sw_blend_to_rgb565.c ****                 }
 632:Lib/lvgl/src/draw/sw/blend/lv_draw_sw_blend_to_rgb565.c **** 
 633:Lib/lvgl/src/draw/sw/blend/lv_draw_sw_blend_to_rgb565.c ****                 if(mask_buf == NULL && opa >= LV_OPA_MAX) {
 634:Lib/lvgl/src/draw/sw/blend/lv_draw_sw_blend_to_rgb565.c ****                     dest_buf_u16[dest_x] = lv_color_16_16_mix(res, dest_buf_u16[dest_x], src_buf_u8
 635:Lib/lvgl/src/draw/sw/blend/lv_draw_sw_blend_to_rgb565.c ****                 }
 636:Lib/lvgl/src/draw/sw/blend/lv_draw_sw_blend_to_rgb565.c ****                 else if(mask_buf == NULL && opa < LV_OPA_MAX) {
 637:Lib/lvgl/src/draw/sw/blend/lv_draw_sw_blend_to_rgb565.c ****                     dest_buf_u16[dest_x] = lv_color_16_16_mix(res, dest_buf_u16[dest_x], LV_OPA_MIX
 638:Lib/lvgl/src/draw/sw/blend/lv_draw_sw_blend_to_rgb565.c ****                 }
 639:Lib/lvgl/src/draw/sw/blend/lv_draw_sw_blend_to_rgb565.c ****                 else {
 640:Lib/lvgl/src/draw/sw/blend/lv_draw_sw_blend_to_rgb565.c ****                     if(opa >= LV_OPA_MAX) dest_buf_u16[dest_x] = lv_color_16_16_mix(res, dest_buf_u
 641:Lib/lvgl/src/draw/sw/blend/lv_draw_sw_blend_to_rgb565.c ****                     else dest_buf_u16[dest_x] = lv_color_16_16_mix(res, dest_buf_u16[dest_x], LV_OP
 642:Lib/lvgl/src/draw/sw/blend/lv_draw_sw_blend_to_rgb565.c ****                                                                                                    
 643:Lib/lvgl/src/draw/sw/blend/lv_draw_sw_blend_to_rgb565.c ****                 }
 644:Lib/lvgl/src/draw/sw/blend/lv_draw_sw_blend_to_rgb565.c ****             }
 645:Lib/lvgl/src/draw/sw/blend/lv_draw_sw_blend_to_rgb565.c **** 
 646:Lib/lvgl/src/draw/sw/blend/lv_draw_sw_blend_to_rgb565.c ****             dest_buf_u16 = drawbuf_next_row(dest_buf_u16, dest_stride);
 647:Lib/lvgl/src/draw/sw/blend/lv_draw_sw_blend_to_rgb565.c ****             src_buf_u8 += src_stride;
 648:Lib/lvgl/src/draw/sw/blend/lv_draw_sw_blend_to_rgb565.c ****             if(mask_buf) mask_buf += mask_stride;
 649:Lib/lvgl/src/draw/sw/blend/lv_draw_sw_blend_to_rgb565.c ****         }
 650:Lib/lvgl/src/draw/sw/blend/lv_draw_sw_blend_to_rgb565.c ****     }
 651:Lib/lvgl/src/draw/sw/blend/lv_draw_sw_blend_to_rgb565.c **** }
 652:Lib/lvgl/src/draw/sw/blend/lv_draw_sw_blend_to_rgb565.c **** 
 653:Lib/lvgl/src/draw/sw/blend/lv_draw_sw_blend_to_rgb565.c **** LV_ATTRIBUTE_FAST_MEM static inline uint16_t lv_color_24_16_mix(const uint8_t * c1, uint16_t c2, ui
 654:Lib/lvgl/src/draw/sw/blend/lv_draw_sw_blend_to_rgb565.c **** {
 110              		.loc 1 654 1 is_stmt 1 view -0
 111              		.cfi_startproc
 112              		@ args = 0, pretend = 0, frame = 0
 113              		@ frame_needed = 0, uses_anonymous_args = 0
 655:Lib/lvgl/src/draw/sw/blend/lv_draw_sw_blend_to_rgb565.c ****     if(mix == 0) {
 114              		.loc 1 655 5 view .LVU28
 115              		.loc 1 655 7 is_stmt 0 view .LVU29
 116 0000 002A     		cmp	r2, #0
 117 0002 3DD0     		beq	.L10
 654:Lib/lvgl/src/draw/sw/blend/lv_draw_sw_blend_to_rgb565.c ****     if(mix == 0) {
 118              		.loc 1 654 1 view .LVU30
 119 0004 10B5     		push	{r4, lr}
 120              	.LCFI0:
 121              		.cfi_def_cfa_offset 8
 122              		.cfi_offset 4, -8
ARM GAS  C:\Users\Alex\AppData\Local\Temp\ccUzeV0Q.s 			page 21


 123              		.cfi_offset 14, -4
 124 0006 8446     		mov	ip, r0
 125 0008 9646     		mov	lr, r2
 656:Lib/lvgl/src/draw/sw/blend/lv_draw_sw_blend_to_rgb565.c ****         return c2;
 657:Lib/lvgl/src/draw/sw/blend/lv_draw_sw_blend_to_rgb565.c ****     }
 658:Lib/lvgl/src/draw/sw/blend/lv_draw_sw_blend_to_rgb565.c ****     else if(mix == 255) {
 126              		.loc 1 658 10 is_stmt 1 view .LVU31
 127              		.loc 1 658 12 is_stmt 0 view .LVU32
 128 000a FF2A     		cmp	r2, #255
 129 000c 28D0     		beq	.L15
 130              	.LBB64:
 659:Lib/lvgl/src/draw/sw/blend/lv_draw_sw_blend_to_rgb565.c ****         return ((c1[2] & 0xF8) << 8)  + ((c1[1] & 0xFC) << 3) + ((c1[0] & 0xF8) >> 3);
 660:Lib/lvgl/src/draw/sw/blend/lv_draw_sw_blend_to_rgb565.c ****     }
 661:Lib/lvgl/src/draw/sw/blend/lv_draw_sw_blend_to_rgb565.c ****     else {
 662:Lib/lvgl/src/draw/sw/blend/lv_draw_sw_blend_to_rgb565.c ****         lv_opa_t mix_inv = 255 - mix;
 131              		.loc 1 662 9 is_stmt 1 view .LVU33
 132              		.loc 1 662 18 is_stmt 0 view .LVU34
 133 000e D243     		mvns	r2, r2
 134              	.LVL14:
 135              		.loc 1 662 18 view .LVU35
 136 0010 D2B2     		uxtb	r2, r2
 137              	.LVL15:
 663:Lib/lvgl/src/draw/sw/blend/lv_draw_sw_blend_to_rgb565.c **** 
 664:Lib/lvgl/src/draw/sw/blend/lv_draw_sw_blend_to_rgb565.c ****         return ((((c1[2] >> 3) * mix + ((c2 >> 11) & 0x1F) * mix_inv) << 3) & 0xF800) +
 138              		.loc 1 664 9 is_stmt 1 view .LVU36
 139              		.loc 1 664 22 is_stmt 0 view .LVU37
 140 0012 8078     		ldrb	r0, [r0, #2]	@ zero_extendqisi2
 141              	.LVL16:
 142              		.loc 1 664 26 view .LVU38
 143 0014 C008     		lsrs	r0, r0, #3
 144              		.loc 1 664 52 view .LVU39
 145 0016 CB0A     		lsrs	r3, r1, #11
 146              		.loc 1 664 60 view .LVU40
 147 0018 02FB03F3 		mul	r3, r2, r3
 148              		.loc 1 664 38 view .LVU41
 149 001c 0EFB0033 		mla	r3, lr, r0, r3
 150              		.loc 1 664 71 view .LVU42
 151 0020 DB00     		lsls	r3, r3, #3
 152              		.loc 1 664 77 view .LVU43
 153 0022 03F4FC33 		and	r3, r3, #129024
 154 0026 1BB2     		sxth	r3, r3
 665:Lib/lvgl/src/draw/sw/blend/lv_draw_sw_blend_to_rgb565.c ****                ((((c1[1] >> 2) * mix + ((c2 >> 5) & 0x3F) * mix_inv) >> 3) & 0x07E0) +
 155              		.loc 1 665 22 view .LVU44
 156 0028 9CF80140 		ldrb	r4, [ip, #1]	@ zero_extendqisi2
 157              		.loc 1 665 26 view .LVU45
 158 002c A408     		lsrs	r4, r4, #2
 159              		.loc 1 665 51 view .LVU46
 160 002e C1F34510 		ubfx	r0, r1, #5, #6
 161              		.loc 1 665 59 view .LVU47
 162 0032 02FB00F0 		mul	r0, r2, r0
 163              		.loc 1 665 38 view .LVU48
 164 0036 04FB0E00 		mla	r0, r4, lr, r0
 165              		.loc 1 665 70 view .LVU49
 166 003a C010     		asrs	r0, r0, #3
 167              		.loc 1 665 76 view .LVU50
 168 003c 00F4FC60 		and	r0, r0, #2016
 664:Lib/lvgl/src/draw/sw/blend/lv_draw_sw_blend_to_rgb565.c ****                ((((c1[1] >> 2) * mix + ((c2 >> 5) & 0x3F) * mix_inv) >> 3) & 0x07E0) +
ARM GAS  C:\Users\Alex\AppData\Local\Temp\ccUzeV0Q.s 			page 22


 169              		.loc 1 664 87 view .LVU51
 170 0040 0343     		orrs	r3, r3, r0
 171 0042 9BB2     		uxth	r3, r3
 666:Lib/lvgl/src/draw/sw/blend/lv_draw_sw_blend_to_rgb565.c ****                (((c1[0] >> 3) * mix + (c2 & 0x1F) * mix_inv) >> 8);
 172              		.loc 1 666 21 view .LVU52
 173 0044 9CF800C0 		ldrb	ip, [ip]	@ zero_extendqisi2
 174              	.LVL17:
 175              		.loc 1 666 25 view .LVU53
 176 0048 4FEADC0C 		lsr	ip, ip, #3
 177              		.loc 1 666 43 view .LVU54
 178 004c 01F01F01 		and	r1, r1, #31
 179              	.LVL18:
 180              		.loc 1 666 51 view .LVU55
 181 0050 01FB02F2 		mul	r2, r1, r2
 182              	.LVL19:
 183              		.loc 1 666 37 view .LVU56
 184 0054 0CFB0E22 		mla	r2, ip, lr, r2
 665:Lib/lvgl/src/draw/sw/blend/lv_draw_sw_blend_to_rgb565.c ****                ((((c1[1] >> 2) * mix + ((c2 >> 5) & 0x3F) * mix_inv) >> 3) & 0x07E0) +
 185              		.loc 1 665 86 view .LVU57
 186 0058 03EB2220 		add	r0, r3, r2, asr #8
 187 005c 80B2     		uxth	r0, r0
 188              	.LVL20:
 189              	.L8:
 665:Lib/lvgl/src/draw/sw/blend/lv_draw_sw_blend_to_rgb565.c ****                ((((c1[1] >> 2) * mix + ((c2 >> 5) & 0x3F) * mix_inv) >> 3) & 0x07E0) +
 190              		.loc 1 665 86 view .LVU58
 191              	.LBE64:
 667:Lib/lvgl/src/draw/sw/blend/lv_draw_sw_blend_to_rgb565.c ****     }
 668:Lib/lvgl/src/draw/sw/blend/lv_draw_sw_blend_to_rgb565.c **** }
 192              		.loc 1 668 1 view .LVU59
 193 005e 10BD     		pop	{r4, pc}
 194              	.LVL21:
 195              	.L15:
 659:Lib/lvgl/src/draw/sw/blend/lv_draw_sw_blend_to_rgb565.c ****     }
 196              		.loc 1 659 9 is_stmt 1 view .LVU60
 659:Lib/lvgl/src/draw/sw/blend/lv_draw_sw_blend_to_rgb565.c ****     }
 197              		.loc 1 659 20 is_stmt 0 view .LVU61
 198 0060 8178     		ldrb	r1, [r0, #2]	@ zero_extendqisi2
 199              	.LVL22:
 659:Lib/lvgl/src/draw/sw/blend/lv_draw_sw_blend_to_rgb565.c ****     }
 200              		.loc 1 659 32 view .LVU62
 201 0062 0902     		lsls	r1, r1, #8
 202 0064 01F47841 		and	r1, r1, #63488
 203 0068 09B2     		sxth	r1, r1
 659:Lib/lvgl/src/draw/sw/blend/lv_draw_sw_blend_to_rgb565.c ****     }
 204              		.loc 1 659 45 view .LVU63
 205 006a 4378     		ldrb	r3, [r0, #1]	@ zero_extendqisi2
 659:Lib/lvgl/src/draw/sw/blend/lv_draw_sw_blend_to_rgb565.c ****     }
 206              		.loc 1 659 57 view .LVU64
 207 006c DB00     		lsls	r3, r3, #3
 208 006e 03F4FC63 		and	r3, r3, #2016
 659:Lib/lvgl/src/draw/sw/blend/lv_draw_sw_blend_to_rgb565.c ****     }
 209              		.loc 1 659 39 view .LVU65
 210 0072 1943     		orrs	r1, r1, r3
 211 0074 89B2     		uxth	r1, r1
 659:Lib/lvgl/src/draw/sw/blend/lv_draw_sw_blend_to_rgb565.c ****     }
 212              		.loc 1 659 69 view .LVU66
 213 0076 0378     		ldrb	r3, [r0]	@ zero_extendqisi2
ARM GAS  C:\Users\Alex\AppData\Local\Temp\ccUzeV0Q.s 			page 23


 659:Lib/lvgl/src/draw/sw/blend/lv_draw_sw_blend_to_rgb565.c ****     }
 214              		.loc 1 659 63 view .LVU67
 215 0078 01EBD300 		add	r0, r1, r3, lsr #3
 216              	.LVL23:
 659:Lib/lvgl/src/draw/sw/blend/lv_draw_sw_blend_to_rgb565.c ****     }
 217              		.loc 1 659 63 view .LVU68
 218 007c 80B2     		uxth	r0, r0
 219 007e EEE7     		b	.L8
 220              	.LVL24:
 221              	.L10:
 222              	.LCFI1:
 223              		.cfi_def_cfa_offset 0
 224              		.cfi_restore 4
 225              		.cfi_restore 14
 656:Lib/lvgl/src/draw/sw/blend/lv_draw_sw_blend_to_rgb565.c ****     }
 226              		.loc 1 656 16 view .LVU69
 227 0080 0846     		mov	r0, r1
 228              	.LVL25:
 229              		.loc 1 668 1 view .LVU70
 230 0082 7047     		bx	lr
 231              		.cfi_endproc
 232              	.LFE238:
 234              		.section	.text.rgb888_image_blend,"ax",%progbits
 235              		.align	1
 236              		.syntax unified
 237              		.thumb
 238              		.thumb_func
 240              	rgb888_image_blend:
 241              	.LVL26:
 242              	.LFB236:
 433:Lib/lvgl/src/draw/sw/blend/lv_draw_sw_blend_to_rgb565.c ****     int32_t w = dsc->dest_w;
 243              		.loc 1 433 1 is_stmt 1 view -0
 244              		.cfi_startproc
 245              		@ args = 0, pretend = 0, frame = 24
 246              		@ frame_needed = 0, uses_anonymous_args = 0
 433:Lib/lvgl/src/draw/sw/blend/lv_draw_sw_blend_to_rgb565.c ****     int32_t w = dsc->dest_w;
 247              		.loc 1 433 1 is_stmt 0 view .LVU72
 248 0000 2DE9F04F 		push	{r4, r5, r6, r7, r8, r9, r10, fp, lr}
 249              	.LCFI2:
 250              		.cfi_def_cfa_offset 36
 251              		.cfi_offset 4, -36
 252              		.cfi_offset 5, -32
 253              		.cfi_offset 6, -28
 254              		.cfi_offset 7, -24
 255              		.cfi_offset 8, -20
 256              		.cfi_offset 9, -16
 257              		.cfi_offset 10, -12
 258              		.cfi_offset 11, -8
 259              		.cfi_offset 14, -4
 260 0004 87B0     		sub	sp, sp, #28
 261              	.LCFI3:
 262              		.cfi_def_cfa_offset 64
 263 0006 8A46     		mov	r10, r1
 434:Lib/lvgl/src/draw/sw/blend/lv_draw_sw_blend_to_rgb565.c ****     int32_t h = dsc->dest_h;
 264              		.loc 1 434 5 is_stmt 1 view .LVU73
 434:Lib/lvgl/src/draw/sw/blend/lv_draw_sw_blend_to_rgb565.c ****     int32_t h = dsc->dest_h;
 265              		.loc 1 434 13 is_stmt 0 view .LVU74
ARM GAS  C:\Users\Alex\AppData\Local\Temp\ccUzeV0Q.s 			page 24


 266 0008 4768     		ldr	r7, [r0, #4]
 267              	.LVL27:
 435:Lib/lvgl/src/draw/sw/blend/lv_draw_sw_blend_to_rgb565.c ****     lv_opa_t opa = dsc->opa;
 268              		.loc 1 435 5 is_stmt 1 view .LVU75
 435:Lib/lvgl/src/draw/sw/blend/lv_draw_sw_blend_to_rgb565.c ****     lv_opa_t opa = dsc->opa;
 269              		.loc 1 435 13 is_stmt 0 view .LVU76
 270 000a 8168     		ldr	r1, [r0, #8]
 271              	.LVL28:
 436:Lib/lvgl/src/draw/sw/blend/lv_draw_sw_blend_to_rgb565.c ****     uint16_t * dest_buf_u16 = dsc->dest_buf;
 272              		.loc 1 436 5 is_stmt 1 view .LVU77
 436:Lib/lvgl/src/draw/sw/blend/lv_draw_sw_blend_to_rgb565.c ****     uint16_t * dest_buf_u16 = dsc->dest_buf;
 273              		.loc 1 436 14 is_stmt 0 view .LVU78
 274 000c 90F821B0 		ldrb	fp, [r0, #33]	@ zero_extendqisi2
 275              	.LVL29:
 437:Lib/lvgl/src/draw/sw/blend/lv_draw_sw_blend_to_rgb565.c ****     int32_t dest_stride = dsc->dest_stride;
 276              		.loc 1 437 5 is_stmt 1 view .LVU79
 437:Lib/lvgl/src/draw/sw/blend/lv_draw_sw_blend_to_rgb565.c ****     int32_t dest_stride = dsc->dest_stride;
 277              		.loc 1 437 16 is_stmt 0 view .LVU80
 278 0010 0468     		ldr	r4, [r0]
 279              	.LVL30:
 438:Lib/lvgl/src/draw/sw/blend/lv_draw_sw_blend_to_rgb565.c ****     const uint8_t * src_buf_u8 = dsc->src_buf;
 280              		.loc 1 438 5 is_stmt 1 view .LVU81
 438:Lib/lvgl/src/draw/sw/blend/lv_draw_sw_blend_to_rgb565.c ****     const uint8_t * src_buf_u8 = dsc->src_buf;
 281              		.loc 1 438 13 is_stmt 0 view .LVU82
 282 0012 D0F80CE0 		ldr	lr, [r0, #12]
 283              	.LVL31:
 439:Lib/lvgl/src/draw/sw/blend/lv_draw_sw_blend_to_rgb565.c ****     int32_t src_stride = dsc->src_stride;
 284              		.loc 1 439 5 is_stmt 1 view .LVU83
 439:Lib/lvgl/src/draw/sw/blend/lv_draw_sw_blend_to_rgb565.c ****     int32_t src_stride = dsc->src_stride;
 285              		.loc 1 439 21 is_stmt 0 view .LVU84
 286 0016 8669     		ldr	r6, [r0, #24]
 287              	.LVL32:
 440:Lib/lvgl/src/draw/sw/blend/lv_draw_sw_blend_to_rgb565.c ****     const lv_opa_t * mask_buf = dsc->mask_buf;
 288              		.loc 1 440 5 is_stmt 1 view .LVU85
 440:Lib/lvgl/src/draw/sw/blend/lv_draw_sw_blend_to_rgb565.c ****     const lv_opa_t * mask_buf = dsc->mask_buf;
 289              		.loc 1 440 13 is_stmt 0 view .LVU86
 290 0018 C369     		ldr	r3, [r0, #28]
 291              	.LVL33:
 441:Lib/lvgl/src/draw/sw/blend/lv_draw_sw_blend_to_rgb565.c ****     int32_t mask_stride = dsc->mask_stride;
 292              		.loc 1 441 5 is_stmt 1 view .LVU87
 441:Lib/lvgl/src/draw/sw/blend/lv_draw_sw_blend_to_rgb565.c ****     int32_t mask_stride = dsc->mask_stride;
 293              		.loc 1 441 22 is_stmt 0 view .LVU88
 294 001a D0F81090 		ldr	r9, [r0, #16]
 295              	.LVL34:
 442:Lib/lvgl/src/draw/sw/blend/lv_draw_sw_blend_to_rgb565.c **** 
 296              		.loc 1 442 5 is_stmt 1 view .LVU89
 442:Lib/lvgl/src/draw/sw/blend/lv_draw_sw_blend_to_rgb565.c **** 
 297              		.loc 1 442 13 is_stmt 0 view .LVU90
 298 001e 4269     		ldr	r2, [r0, #20]
 299 0020 0092     		str	r2, [sp]
 300              	.LVL35:
 444:Lib/lvgl/src/draw/sw/blend/lv_draw_sw_blend_to_rgb565.c ****     int32_t src_x;
 301              		.loc 1 444 5 is_stmt 1 view .LVU91
 445:Lib/lvgl/src/draw/sw/blend/lv_draw_sw_blend_to_rgb565.c ****     int32_t y;
 302              		.loc 1 445 5 view .LVU92
 446:Lib/lvgl/src/draw/sw/blend/lv_draw_sw_blend_to_rgb565.c **** 
 303              		.loc 1 446 5 view .LVU93
ARM GAS  C:\Users\Alex\AppData\Local\Temp\ccUzeV0Q.s 			page 25


 448:Lib/lvgl/src/draw/sw/blend/lv_draw_sw_blend_to_rgb565.c ****         if(mask_buf == NULL && opa >= LV_OPA_MAX) {
 304              		.loc 1 448 5 view .LVU94
 448:Lib/lvgl/src/draw/sw/blend/lv_draw_sw_blend_to_rgb565.c ****         if(mask_buf == NULL && opa >= LV_OPA_MAX) {
 305              		.loc 1 448 11 is_stmt 0 view .LVU95
 306 0022 90F82220 		ldrb	r2, [r0, #34]	@ zero_extendqisi2
 307              	.LVL36:
 448:Lib/lvgl/src/draw/sw/blend/lv_draw_sw_blend_to_rgb565.c ****         if(mask_buf == NULL && opa >= LV_OPA_MAX) {
 308              		.loc 1 448 7 view .LVU96
 309 0026 002A     		cmp	r2, #0
 310 0028 40F06E81 		bne	.L42
 449:Lib/lvgl/src/draw/sw/blend/lv_draw_sw_blend_to_rgb565.c ****             if(LV_RESULT_INVALID == LV_DRAW_SW_RGB888_BLEND_NORMAL_TO_RGB565(dsc, src_px_size)) {
 311              		.loc 1 449 9 is_stmt 1 view .LVU97
 449:Lib/lvgl/src/draw/sw/blend/lv_draw_sw_blend_to_rgb565.c ****             if(LV_RESULT_INVALID == LV_DRAW_SW_RGB888_BLEND_NORMAL_TO_RGB565(dsc, src_px_size)) {
 312              		.loc 1 449 11 is_stmt 0 view .LVU98
 313 002c B9F1000F 		cmp	r9, #0
 314 0030 18D0     		beq	.L52
 315              	.LVL37:
 316              	.L18:
 473:Lib/lvgl/src/draw/sw/blend/lv_draw_sw_blend_to_rgb565.c ****             if(LV_RESULT_INVALID == LV_DRAW_SW_RGB888_BLEND_NORMAL_TO_RGB565_WITH_MASK(dsc, src_px_
 317              		.loc 1 473 9 is_stmt 1 view .LVU99
 473:Lib/lvgl/src/draw/sw/blend/lv_draw_sw_blend_to_rgb565.c ****             if(LV_RESULT_INVALID == LV_DRAW_SW_RGB888_BLEND_NORMAL_TO_RGB565_WITH_MASK(dsc, src_px_
 318              		.loc 1 473 11 is_stmt 0 view .LVU100
 319 0032 B9F1000F 		cmp	r9, #0
 320 0036 03D0     		beq	.L25
 473:Lib/lvgl/src/draw/sw/blend/lv_draw_sw_blend_to_rgb565.c ****             if(LV_RESULT_INVALID == LV_DRAW_SW_RGB888_BLEND_NORMAL_TO_RGB565_WITH_MASK(dsc, src_px_
 321              		.loc 1 473 21 discriminator 1 view .LVU101
 322 0038 BBF1FC0F 		cmp	fp, #252
 323 003c 00F28280 		bhi	.L46
 324              	.LVL38:
 325              	.L25:
 485:Lib/lvgl/src/draw/sw/blend/lv_draw_sw_blend_to_rgb565.c ****             if(LV_RESULT_INVALID == LV_DRAW_SW_RGB888_BLEND_NORMAL_TO_RGB565_MIX_MASK_OPA(dsc, src_
 326              		.loc 1 485 9 is_stmt 1 view .LVU102
 485:Lib/lvgl/src/draw/sw/blend/lv_draw_sw_blend_to_rgb565.c ****             if(LV_RESULT_INVALID == LV_DRAW_SW_RGB888_BLEND_NORMAL_TO_RGB565_MIX_MASK_OPA(dsc, src_
 327              		.loc 1 485 11 is_stmt 0 view .LVU103
 328 0040 B9F1000F 		cmp	r9, #0
 329 0044 00F0F380 		beq	.L16
 485:Lib/lvgl/src/draw/sw/blend/lv_draw_sw_blend_to_rgb565.c ****             if(LV_RESULT_INVALID == LV_DRAW_SW_RGB888_BLEND_NORMAL_TO_RGB565_MIX_MASK_OPA(dsc, src_
 330              		.loc 1 485 21 discriminator 1 view .LVU104
 331 0048 BBF1FC0F 		cmp	fp, #252
 332 004c 00F2EF80 		bhi	.L16
 487:Lib/lvgl/src/draw/sw/blend/lv_draw_sw_blend_to_rgb565.c ****                     for(dest_x = 0, src_x = 0; dest_x < w; dest_x++, src_x += src_px_size) {
 333              		.loc 1 487 23 view .LVU105
 334 0050 4FF0000C 		mov	ip, #0
 335 0054 4A46     		mov	r2, r9
 336 0056 B146     		mov	r9, r6
 337              	.LVL39:
 487:Lib/lvgl/src/draw/sw/blend/lv_draw_sw_blend_to_rgb565.c ****                     for(dest_x = 0, src_x = 0; dest_x < w; dest_x++, src_x += src_px_size) {
 338              		.loc 1 487 23 view .LVU106
 339 0058 0291     		str	r1, [sp, #8]
 340 005a CDF80CE0 		str	lr, [sp, #12]
 341 005e 0493     		str	r3, [sp, #16]
 342 0060 1646     		mov	r6, r2
 343              	.LVL40:
 487:Lib/lvgl/src/draw/sw/blend/lv_draw_sw_blend_to_rgb565.c ****                     for(dest_x = 0, src_x = 0; dest_x < w; dest_x++, src_x += src_px_size) {
 344              		.loc 1 487 23 view .LVU107
 345 0062 99E0     		b	.L30
 346              	.LVL41:
ARM GAS  C:\Users\Alex\AppData\Local\Temp\ccUzeV0Q.s 			page 26


 347              	.L52:
 449:Lib/lvgl/src/draw/sw/blend/lv_draw_sw_blend_to_rgb565.c ****             if(LV_RESULT_INVALID == LV_DRAW_SW_RGB888_BLEND_NORMAL_TO_RGB565(dsc, src_px_size)) {
 348              		.loc 1 449 29 discriminator 1 view .LVU108
 349 0064 BBF1FC0F 		cmp	fp, #252
 350 0068 2BD8     		bhi	.L43
 351 006a CDF81090 		str	r9, [sp, #16]
 352 006e 9146     		mov	r9, r2
 353              	.LVL42:
 449:Lib/lvgl/src/draw/sw/blend/lv_draw_sw_blend_to_rgb565.c ****             if(LV_RESULT_INVALID == LV_DRAW_SW_RGB888_BLEND_NORMAL_TO_RGB565(dsc, src_px_size)) {
 354              		.loc 1 449 29 discriminator 1 view .LVU109
 355 0070 0191     		str	r1, [sp, #4]
 356 0072 CDF808E0 		str	lr, [sp, #8]
 357 0076 0393     		str	r3, [sp, #12]
 358 0078 39E0     		b	.L20
 359              	.LVL43:
 360              	.L21:
 453:Lib/lvgl/src/draw/sw/blend/lv_draw_sw_blend_to_rgb565.c ****                                                 ((src_buf_u8[src_x + 1] & 0xFC) << 3) +
 361              		.loc 1 453 25 is_stmt 1 discriminator 3 view .LVU110
 453:Lib/lvgl/src/draw/sw/blend/lv_draw_sw_blend_to_rgb565.c ****                                                 ((src_buf_u8[src_x + 1] & 0xFC) << 3) +
 362              		.loc 1 453 61 is_stmt 0 discriminator 3 view .LVU111
 363 007a 06EB0508 		add	r8, r6, r5
 364 007e 98F80220 		ldrb	r2, [r8, #2]	@ zero_extendqisi2
 453:Lib/lvgl/src/draw/sw/blend/lv_draw_sw_blend_to_rgb565.c ****                                                 ((src_buf_u8[src_x + 1] & 0xFC) << 3) +
 365              		.loc 1 453 81 discriminator 3 view .LVU112
 366 0082 1202     		lsls	r2, r2, #8
 367 0084 02F47842 		and	r2, r2, #63488
 368 0088 12B2     		sxth	r2, r2
 454:Lib/lvgl/src/draw/sw/blend/lv_draw_sw_blend_to_rgb565.c ****                                                 ((src_buf_u8[src_x + 0] & 0xF8) >> 3);
 369              		.loc 1 454 61 discriminator 3 view .LVU113
 370 008a 98F80180 		ldrb	r8, [r8, #1]	@ zero_extendqisi2
 454:Lib/lvgl/src/draw/sw/blend/lv_draw_sw_blend_to_rgb565.c ****                                                 ((src_buf_u8[src_x + 0] & 0xF8) >> 3);
 371              		.loc 1 454 81 discriminator 3 view .LVU114
 372 008e 4FEAC808 		lsl	r8, r8, #3
 373 0092 08F4FC68 		and	r8, r8, #2016
 453:Lib/lvgl/src/draw/sw/blend/lv_draw_sw_blend_to_rgb565.c ****                                                 ((src_buf_u8[src_x + 1] & 0xFC) << 3) +
 374              		.loc 1 453 87 discriminator 3 view .LVU115
 375 0096 42EA0802 		orr	r2, r2, r8
 376 009a 92B2     		uxth	r2, r2
 455:Lib/lvgl/src/draw/sw/blend/lv_draw_sw_blend_to_rgb565.c ****                     }
 377              		.loc 1 455 61 discriminator 3 view .LVU116
 378 009c 16F80580 		ldrb	r8, [r6, r5]	@ zero_extendqisi2
 454:Lib/lvgl/src/draw/sw/blend/lv_draw_sw_blend_to_rgb565.c ****                                                 ((src_buf_u8[src_x + 0] & 0xF8) >> 3);
 379              		.loc 1 454 87 discriminator 3 view .LVU117
 380 00a0 02EBD802 		add	r2, r2, r8, lsr #3
 453:Lib/lvgl/src/draw/sw/blend/lv_draw_sw_blend_to_rgb565.c ****                                                 ((src_buf_u8[src_x + 1] & 0xFC) << 3) +
 381              		.loc 1 453 47 discriminator 3 view .LVU118
 382 00a4 24F81020 		strh	r2, [r4, r0, lsl #1]	@ movhi
 452:Lib/lvgl/src/draw/sw/blend/lv_draw_sw_blend_to_rgb565.c ****                         dest_buf_u16[dest_x]  = ((src_buf_u8[src_x + 2] & 0xF8) << 8) +
 383              		.loc 1 452 68 is_stmt 1 discriminator 3 view .LVU119
 452:Lib/lvgl/src/draw/sw/blend/lv_draw_sw_blend_to_rgb565.c ****                         dest_buf_u16[dest_x]  = ((src_buf_u8[src_x + 2] & 0xF8) << 8) +
 384              		.loc 1 452 66 is_stmt 0 discriminator 3 view .LVU120
 385 00a8 0130     		adds	r0, r0, #1
 386              	.LVL44:
 452:Lib/lvgl/src/draw/sw/blend/lv_draw_sw_blend_to_rgb565.c ****                         dest_buf_u16[dest_x]  = ((src_buf_u8[src_x + 2] & 0xF8) << 8) +
 387              		.loc 1 452 76 discriminator 3 view .LVU121
 388 00aa 5544     		add	r5, r5, r10
 389              	.LVL45:
ARM GAS  C:\Users\Alex\AppData\Local\Temp\ccUzeV0Q.s 			page 27


 390              	.L22:
 452:Lib/lvgl/src/draw/sw/blend/lv_draw_sw_blend_to_rgb565.c ****                         dest_buf_u16[dest_x]  = ((src_buf_u8[src_x + 2] & 0xF8) << 8) +
 391              		.loc 1 452 55 is_stmt 1 discriminator 1 view .LVU122
 392 00ac B842     		cmp	r0, r7
 393 00ae E4DB     		blt	.L21
 457:Lib/lvgl/src/draw/sw/blend/lv_draw_sw_blend_to_rgb565.c ****                     src_buf_u8 += src_stride;
 394              		.loc 1 457 21 discriminator 2 view .LVU123
 395              	.LVL46:
 396              	.LBB65:
 397              	.LBI65:
 669:Lib/lvgl/src/draw/sw/blend/lv_draw_sw_blend_to_rgb565.c **** 
 670:Lib/lvgl/src/draw/sw/blend/lv_draw_sw_blend_to_rgb565.c **** LV_ATTRIBUTE_FAST_MEM static inline void * drawbuf_next_row(const void * buf, uint32_t stride)
 398              		.loc 1 670 44 discriminator 2 view .LVU124
 399              	.LBB66:
 671:Lib/lvgl/src/draw/sw/blend/lv_draw_sw_blend_to_rgb565.c **** {
 672:Lib/lvgl/src/draw/sw/blend/lv_draw_sw_blend_to_rgb565.c ****     return (void *)((uint8_t *)buf + stride);
 400              		.loc 1 672 5 discriminator 2 view .LVU125
 401              		.loc 1 672 12 is_stmt 0 discriminator 2 view .LVU126
 402 00b0 7444     		add	r4, r4, lr
 403              	.LVL47:
 404              		.loc 1 672 12 discriminator 2 view .LVU127
 405              	.LBE66:
 406              	.LBE65:
 458:Lib/lvgl/src/draw/sw/blend/lv_draw_sw_blend_to_rgb565.c ****                 }
 407              		.loc 1 458 21 is_stmt 1 discriminator 2 view .LVU128
 458:Lib/lvgl/src/draw/sw/blend/lv_draw_sw_blend_to_rgb565.c ****                 }
 408              		.loc 1 458 32 is_stmt 0 discriminator 2 view .LVU129
 409 00b2 1E44     		add	r6, r6, r3
 410              	.LVL48:
 451:Lib/lvgl/src/draw/sw/blend/lv_draw_sw_blend_to_rgb565.c ****                     for(dest_x = 0, src_x = 0; dest_x < w; dest_x++, src_x += src_px_size) {
 411              		.loc 1 451 36 is_stmt 1 discriminator 2 view .LVU130
 412 00b4 0CF1010C 		add	ip, ip, #1
 413              	.LVL49:
 414              	.L19:
 451:Lib/lvgl/src/draw/sw/blend/lv_draw_sw_blend_to_rgb565.c ****                     for(dest_x = 0, src_x = 0; dest_x < w; dest_x++, src_x += src_px_size) {
 415              		.loc 1 451 30 discriminator 1 view .LVU131
 416 00b8 8C45     		cmp	ip, r1
 417 00ba BADA     		bge	.L18
 452:Lib/lvgl/src/draw/sw/blend/lv_draw_sw_blend_to_rgb565.c ****                         dest_buf_u16[dest_x]  = ((src_buf_u8[src_x + 2] & 0xF8) << 8) +
 418              		.loc 1 452 43 is_stmt 0 view .LVU132
 419 00bc 0025     		movs	r5, #0
 452:Lib/lvgl/src/draw/sw/blend/lv_draw_sw_blend_to_rgb565.c ****                         dest_buf_u16[dest_x]  = ((src_buf_u8[src_x + 2] & 0xF8) << 8) +
 420              		.loc 1 452 32 view .LVU133
 421 00be 2846     		mov	r0, r5
 422 00c0 F4E7     		b	.L22
 423              	.LVL50:
 424              	.L43:
 451:Lib/lvgl/src/draw/sw/blend/lv_draw_sw_blend_to_rgb565.c ****                     for(dest_x = 0, src_x = 0; dest_x < w; dest_x++, src_x += src_px_size) {
 425              		.loc 1 451 23 view .LVU134
 426 00c2 4FF0000C 		mov	ip, #0
 427 00c6 F7E7     		b	.L19
 428              	.LVL51:
 429              	.L23:
 466:Lib/lvgl/src/draw/sw/blend/lv_draw_sw_blend_to_rgb565.c ****                     }
 430              		.loc 1 466 25 is_stmt 1 discriminator 3 view .LVU135
 466:Lib/lvgl/src/draw/sw/blend/lv_draw_sw_blend_to_rgb565.c ****                     }
 431              		.loc 1 466 48 is_stmt 0 discriminator 3 view .LVU136
ARM GAS  C:\Users\Alex\AppData\Local\Temp\ccUzeV0Q.s 			page 28


 432 00c8 5A46     		mov	r2, fp
 433 00ca 34F81510 		ldrh	r1, [r4, r5, lsl #1]
 434 00ce 06EB0800 		add	r0, r6, r8
 435 00d2 FFF7FEFF 		bl	lv_color_24_16_mix
 436              	.LVL52:
 466:Lib/lvgl/src/draw/sw/blend/lv_draw_sw_blend_to_rgb565.c ****                     }
 437              		.loc 1 466 46 discriminator 3 view .LVU137
 438 00d6 24F81500 		strh	r0, [r4, r5, lsl #1]	@ movhi
 465:Lib/lvgl/src/draw/sw/blend/lv_draw_sw_blend_to_rgb565.c ****                         dest_buf_u16[dest_x] = lv_color_24_16_mix(&src_buf_u8[src_x], dest_buf_u16[
 439              		.loc 1 465 68 is_stmt 1 discriminator 3 view .LVU138
 465:Lib/lvgl/src/draw/sw/blend/lv_draw_sw_blend_to_rgb565.c ****                         dest_buf_u16[dest_x] = lv_color_24_16_mix(&src_buf_u8[src_x], dest_buf_u16[
 440              		.loc 1 465 66 is_stmt 0 discriminator 3 view .LVU139
 441 00da 0135     		adds	r5, r5, #1
 442              	.LVL53:
 465:Lib/lvgl/src/draw/sw/blend/lv_draw_sw_blend_to_rgb565.c ****                         dest_buf_u16[dest_x] = lv_color_24_16_mix(&src_buf_u8[src_x], dest_buf_u16[
 443              		.loc 1 465 76 discriminator 3 view .LVU140
 444 00dc D044     		add	r8, r8, r10
 445              	.LVL54:
 446              	.L24:
 465:Lib/lvgl/src/draw/sw/blend/lv_draw_sw_blend_to_rgb565.c ****                         dest_buf_u16[dest_x] = lv_color_24_16_mix(&src_buf_u8[src_x], dest_buf_u16[
 447              		.loc 1 465 55 is_stmt 1 discriminator 1 view .LVU141
 448 00de BD42     		cmp	r5, r7
 449 00e0 F2DB     		blt	.L23
 468:Lib/lvgl/src/draw/sw/blend/lv_draw_sw_blend_to_rgb565.c ****                     src_buf_u8 += src_stride;
 450              		.loc 1 468 21 discriminator 2 view .LVU142
 451              	.LVL55:
 452              	.LBB67:
 453              	.LBI67:
 670:Lib/lvgl/src/draw/sw/blend/lv_draw_sw_blend_to_rgb565.c **** {
 454              		.loc 1 670 44 discriminator 2 view .LVU143
 455              	.LBB68:
 456              		.loc 1 672 5 discriminator 2 view .LVU144
 457              		.loc 1 672 12 is_stmt 0 discriminator 2 view .LVU145
 458 00e2 029B     		ldr	r3, [sp, #8]
 459 00e4 1C44     		add	r4, r4, r3
 460              	.LVL56:
 461              		.loc 1 672 12 discriminator 2 view .LVU146
 462              	.LBE68:
 463              	.LBE67:
 469:Lib/lvgl/src/draw/sw/blend/lv_draw_sw_blend_to_rgb565.c ****                 }
 464              		.loc 1 469 21 is_stmt 1 discriminator 2 view .LVU147
 469:Lib/lvgl/src/draw/sw/blend/lv_draw_sw_blend_to_rgb565.c ****                 }
 465              		.loc 1 469 32 is_stmt 0 discriminator 2 view .LVU148
 466 00e6 039B     		ldr	r3, [sp, #12]
 467 00e8 1E44     		add	r6, r6, r3
 468              	.LVL57:
 464:Lib/lvgl/src/draw/sw/blend/lv_draw_sw_blend_to_rgb565.c ****                     for(dest_x = 0, src_x = 0; dest_x < w; dest_x++, src_x += src_px_size) {
 469              		.loc 1 464 36 is_stmt 1 discriminator 2 view .LVU149
 470 00ea 09F10109 		add	r9, r9, #1
 471              	.LVL58:
 472              	.L20:
 464:Lib/lvgl/src/draw/sw/blend/lv_draw_sw_blend_to_rgb565.c ****                     for(dest_x = 0, src_x = 0; dest_x < w; dest_x++, src_x += src_px_size) {
 473              		.loc 1 464 30 discriminator 1 view .LVU150
 474 00ee 019B     		ldr	r3, [sp, #4]
 475 00f0 9945     		cmp	r9, r3
 476 00f2 03DA     		bge	.L53
 465:Lib/lvgl/src/draw/sw/blend/lv_draw_sw_blend_to_rgb565.c ****                         dest_buf_u16[dest_x] = lv_color_24_16_mix(&src_buf_u8[src_x], dest_buf_u16[
ARM GAS  C:\Users\Alex\AppData\Local\Temp\ccUzeV0Q.s 			page 29


 477              		.loc 1 465 43 is_stmt 0 view .LVU151
 478 00f4 4FF00008 		mov	r8, #0
 465:Lib/lvgl/src/draw/sw/blend/lv_draw_sw_blend_to_rgb565.c ****                         dest_buf_u16[dest_x] = lv_color_24_16_mix(&src_buf_u8[src_x], dest_buf_u16[
 479              		.loc 1 465 32 view .LVU152
 480 00f8 4546     		mov	r5, r8
 481 00fa F0E7     		b	.L24
 482              	.L53:
 483 00fc DDF81090 		ldr	r9, [sp, #16]
 484              	.LVL59:
 465:Lib/lvgl/src/draw/sw/blend/lv_draw_sw_blend_to_rgb565.c ****                         dest_buf_u16[dest_x] = lv_color_24_16_mix(&src_buf_u8[src_x], dest_buf_u16[
 485              		.loc 1 465 32 view .LVU153
 486 0100 1946     		mov	r1, r3
 487 0102 DDF808E0 		ldr	lr, [sp, #8]
 488 0106 039B     		ldr	r3, [sp, #12]
 489 0108 93E7     		b	.L18
 490              	.LVL60:
 491              	.L27:
 477:Lib/lvgl/src/draw/sw/blend/lv_draw_sw_blend_to_rgb565.c ****                     }
 492              		.loc 1 477 25 is_stmt 1 discriminator 3 view .LVU154
 477:Lib/lvgl/src/draw/sw/blend/lv_draw_sw_blend_to_rgb565.c ****                     }
 493              		.loc 1 477 48 is_stmt 0 discriminator 3 view .LVU155
 494 010a 19F80520 		ldrb	r2, [r9, r5]	@ zero_extendqisi2
 495 010e 34F81510 		ldrh	r1, [r4, r5, lsl #1]
 496 0112 06EB0800 		add	r0, r6, r8
 497 0116 FFF7FEFF 		bl	lv_color_24_16_mix
 498              	.LVL61:
 477:Lib/lvgl/src/draw/sw/blend/lv_draw_sw_blend_to_rgb565.c ****                     }
 499              		.loc 1 477 46 discriminator 3 view .LVU156
 500 011a 24F81500 		strh	r0, [r4, r5, lsl #1]	@ movhi
 476:Lib/lvgl/src/draw/sw/blend/lv_draw_sw_blend_to_rgb565.c ****                         dest_buf_u16[dest_x] = lv_color_24_16_mix(&src_buf_u8[src_x], dest_buf_u16[
 501              		.loc 1 476 68 is_stmt 1 discriminator 3 view .LVU157
 476:Lib/lvgl/src/draw/sw/blend/lv_draw_sw_blend_to_rgb565.c ****                         dest_buf_u16[dest_x] = lv_color_24_16_mix(&src_buf_u8[src_x], dest_buf_u16[
 502              		.loc 1 476 66 is_stmt 0 discriminator 3 view .LVU158
 503 011e 0135     		adds	r5, r5, #1
 504              	.LVL62:
 476:Lib/lvgl/src/draw/sw/blend/lv_draw_sw_blend_to_rgb565.c ****                         dest_buf_u16[dest_x] = lv_color_24_16_mix(&src_buf_u8[src_x], dest_buf_u16[
 505              		.loc 1 476 76 discriminator 3 view .LVU159
 506 0120 D044     		add	r8, r8, r10
 507              	.LVL63:
 508              	.L28:
 476:Lib/lvgl/src/draw/sw/blend/lv_draw_sw_blend_to_rgb565.c ****                         dest_buf_u16[dest_x] = lv_color_24_16_mix(&src_buf_u8[src_x], dest_buf_u16[
 509              		.loc 1 476 55 is_stmt 1 discriminator 1 view .LVU160
 510 0122 BD42     		cmp	r5, r7
 511 0124 F1DB     		blt	.L27
 479:Lib/lvgl/src/draw/sw/blend/lv_draw_sw_blend_to_rgb565.c ****                     src_buf_u8 += src_stride;
 512              		.loc 1 479 21 discriminator 2 view .LVU161
 513              	.LVL64:
 514              	.LBB69:
 515              	.LBI69:
 670:Lib/lvgl/src/draw/sw/blend/lv_draw_sw_blend_to_rgb565.c **** {
 516              		.loc 1 670 44 discriminator 2 view .LVU162
 517              	.LBB70:
 518              		.loc 1 672 5 discriminator 2 view .LVU163
 519              		.loc 1 672 12 is_stmt 0 discriminator 2 view .LVU164
 520 0126 029B     		ldr	r3, [sp, #8]
 521 0128 1C44     		add	r4, r4, r3
 522              	.LVL65:
ARM GAS  C:\Users\Alex\AppData\Local\Temp\ccUzeV0Q.s 			page 30


 523              		.loc 1 672 12 discriminator 2 view .LVU165
 524              	.LBE70:
 525              	.LBE69:
 480:Lib/lvgl/src/draw/sw/blend/lv_draw_sw_blend_to_rgb565.c ****                     mask_buf += mask_stride;
 526              		.loc 1 480 21 is_stmt 1 discriminator 2 view .LVU166
 480:Lib/lvgl/src/draw/sw/blend/lv_draw_sw_blend_to_rgb565.c ****                     mask_buf += mask_stride;
 527              		.loc 1 480 32 is_stmt 0 discriminator 2 view .LVU167
 528 012a 039B     		ldr	r3, [sp, #12]
 529 012c 1E44     		add	r6, r6, r3
 530              	.LVL66:
 481:Lib/lvgl/src/draw/sw/blend/lv_draw_sw_blend_to_rgb565.c ****                 }
 531              		.loc 1 481 21 is_stmt 1 discriminator 2 view .LVU168
 481:Lib/lvgl/src/draw/sw/blend/lv_draw_sw_blend_to_rgb565.c ****                 }
 532              		.loc 1 481 30 is_stmt 0 discriminator 2 view .LVU169
 533 012e 009B     		ldr	r3, [sp]
 534 0130 9944     		add	r9, r9, r3
 535              	.LVL67:
 475:Lib/lvgl/src/draw/sw/blend/lv_draw_sw_blend_to_rgb565.c ****                     for(dest_x = 0, src_x = 0; dest_x < w; dest_x++, src_x += src_px_size) {
 536              		.loc 1 475 36 is_stmt 1 discriminator 2 view .LVU170
 537 0132 0BF1010B 		add	fp, fp, #1
 538              	.LVL68:
 539              	.L26:
 475:Lib/lvgl/src/draw/sw/blend/lv_draw_sw_blend_to_rgb565.c ****                     for(dest_x = 0, src_x = 0; dest_x < w; dest_x++, src_x += src_px_size) {
 540              		.loc 1 475 30 discriminator 1 view .LVU171
 541 0136 019B     		ldr	r3, [sp, #4]
 542 0138 9B45     		cmp	fp, r3
 543 013a 0CDA     		bge	.L54
 476:Lib/lvgl/src/draw/sw/blend/lv_draw_sw_blend_to_rgb565.c ****                         dest_buf_u16[dest_x] = lv_color_24_16_mix(&src_buf_u8[src_x], dest_buf_u16[
 544              		.loc 1 476 43 is_stmt 0 view .LVU172
 545 013c 4FF00008 		mov	r8, #0
 476:Lib/lvgl/src/draw/sw/blend/lv_draw_sw_blend_to_rgb565.c ****                         dest_buf_u16[dest_x] = lv_color_24_16_mix(&src_buf_u8[src_x], dest_buf_u16[
 546              		.loc 1 476 32 view .LVU173
 547 0140 4546     		mov	r5, r8
 548 0142 EEE7     		b	.L28
 549              	.LVL69:
 550              	.L46:
 475:Lib/lvgl/src/draw/sw/blend/lv_draw_sw_blend_to_rgb565.c ****                     for(dest_x = 0, src_x = 0; dest_x < w; dest_x++, src_x += src_px_size) {
 551              		.loc 1 475 23 view .LVU174
 552 0144 0022     		movs	r2, #0
 553 0146 0191     		str	r1, [sp, #4]
 554 0148 CDF810B0 		str	fp, [sp, #16]
 555 014c 9346     		mov	fp, r2
 556              	.LVL70:
 475:Lib/lvgl/src/draw/sw/blend/lv_draw_sw_blend_to_rgb565.c ****                     for(dest_x = 0, src_x = 0; dest_x < w; dest_x++, src_x += src_px_size) {
 557              		.loc 1 475 23 view .LVU175
 558 014e CDF808E0 		str	lr, [sp, #8]
 559 0152 0393     		str	r3, [sp, #12]
 560 0154 EFE7     		b	.L26
 561              	.LVL71:
 562              	.L54:
 475:Lib/lvgl/src/draw/sw/blend/lv_draw_sw_blend_to_rgb565.c ****                     for(dest_x = 0, src_x = 0; dest_x < w; dest_x++, src_x += src_px_size) {
 563              		.loc 1 475 23 view .LVU176
 564 0156 1946     		mov	r1, r3
 565 0158 DDF810B0 		ldr	fp, [sp, #16]
 566              	.LVL72:
 475:Lib/lvgl/src/draw/sw/blend/lv_draw_sw_blend_to_rgb565.c ****                     for(dest_x = 0, src_x = 0; dest_x < w; dest_x++, src_x += src_px_size) {
 567              		.loc 1 475 23 view .LVU177
ARM GAS  C:\Users\Alex\AppData\Local\Temp\ccUzeV0Q.s 			page 31


 568 015c DDF808E0 		ldr	lr, [sp, #8]
 569 0160 039B     		ldr	r3, [sp, #12]
 570 0162 6DE7     		b	.L25
 571              	.LVL73:
 572              	.L31:
 489:Lib/lvgl/src/draw/sw/blend/lv_draw_sw_blend_to_rgb565.c ****                     }
 573              		.loc 1 489 25 is_stmt 1 discriminator 3 view .LVU178
 489:Lib/lvgl/src/draw/sw/blend/lv_draw_sw_blend_to_rgb565.c ****                     }
 574              		.loc 1 489 109 is_stmt 0 discriminator 3 view .LVU179
 575 0164 725D     		ldrb	r2, [r6, r5]	@ zero_extendqisi2
 576 0166 02FB0BF2 		mul	r2, r2, fp
 489:Lib/lvgl/src/draw/sw/blend/lv_draw_sw_blend_to_rgb565.c ****                     }
 577              		.loc 1 489 48 discriminator 3 view .LVU180
 578 016a 120A     		lsrs	r2, r2, #8
 579 016c 34F81510 		ldrh	r1, [r4, r5, lsl #1]
 580 0170 09EB0800 		add	r0, r9, r8
 581 0174 FFF7FEFF 		bl	lv_color_24_16_mix
 582              	.LVL74:
 489:Lib/lvgl/src/draw/sw/blend/lv_draw_sw_blend_to_rgb565.c ****                     }
 583              		.loc 1 489 46 discriminator 3 view .LVU181
 584 0178 24F81500 		strh	r0, [r4, r5, lsl #1]	@ movhi
 488:Lib/lvgl/src/draw/sw/blend/lv_draw_sw_blend_to_rgb565.c ****                         dest_buf_u16[dest_x] = lv_color_24_16_mix(&src_buf_u8[src_x], dest_buf_u16[
 585              		.loc 1 488 68 is_stmt 1 discriminator 3 view .LVU182
 488:Lib/lvgl/src/draw/sw/blend/lv_draw_sw_blend_to_rgb565.c ****                         dest_buf_u16[dest_x] = lv_color_24_16_mix(&src_buf_u8[src_x], dest_buf_u16[
 586              		.loc 1 488 66 is_stmt 0 discriminator 3 view .LVU183
 587 017c 0135     		adds	r5, r5, #1
 588              	.LVL75:
 488:Lib/lvgl/src/draw/sw/blend/lv_draw_sw_blend_to_rgb565.c ****                         dest_buf_u16[dest_x] = lv_color_24_16_mix(&src_buf_u8[src_x], dest_buf_u16[
 589              		.loc 1 488 76 discriminator 3 view .LVU184
 590 017e D044     		add	r8, r8, r10
 591              	.LVL76:
 592              	.L32:
 488:Lib/lvgl/src/draw/sw/blend/lv_draw_sw_blend_to_rgb565.c ****                         dest_buf_u16[dest_x] = lv_color_24_16_mix(&src_buf_u8[src_x], dest_buf_u16[
 593              		.loc 1 488 55 is_stmt 1 discriminator 1 view .LVU185
 594 0180 BD42     		cmp	r5, r7
 595 0182 EFDB     		blt	.L31
 596              	.LBB71:
 597              	.LBB72:
 598              		.loc 1 672 12 is_stmt 0 discriminator 2 view .LVU186
 599 0184 DDF804C0 		ldr	ip, [sp, #4]
 600              	.LBE72:
 601              	.LBE71:
 491:Lib/lvgl/src/draw/sw/blend/lv_draw_sw_blend_to_rgb565.c ****                     src_buf_u8 += src_stride;
 602              		.loc 1 491 21 is_stmt 1 discriminator 2 view .LVU187
 603              	.LVL77:
 604              	.LBB74:
 605              	.LBI71:
 670:Lib/lvgl/src/draw/sw/blend/lv_draw_sw_blend_to_rgb565.c **** {
 606              		.loc 1 670 44 discriminator 2 view .LVU188
 607              	.LBB73:
 608              		.loc 1 672 5 discriminator 2 view .LVU189
 609              		.loc 1 672 12 is_stmt 0 discriminator 2 view .LVU190
 610 0188 039B     		ldr	r3, [sp, #12]
 611 018a 1C44     		add	r4, r4, r3
 612              	.LVL78:
 613              		.loc 1 672 12 discriminator 2 view .LVU191
 614              	.LBE73:
ARM GAS  C:\Users\Alex\AppData\Local\Temp\ccUzeV0Q.s 			page 32


 615              	.LBE74:
 492:Lib/lvgl/src/draw/sw/blend/lv_draw_sw_blend_to_rgb565.c ****                     mask_buf += mask_stride;
 616              		.loc 1 492 21 is_stmt 1 discriminator 2 view .LVU192
 492:Lib/lvgl/src/draw/sw/blend/lv_draw_sw_blend_to_rgb565.c ****                     mask_buf += mask_stride;
 617              		.loc 1 492 32 is_stmt 0 discriminator 2 view .LVU193
 618 018c 049B     		ldr	r3, [sp, #16]
 619 018e 9944     		add	r9, r9, r3
 620              	.LVL79:
 493:Lib/lvgl/src/draw/sw/blend/lv_draw_sw_blend_to_rgb565.c ****                 }
 621              		.loc 1 493 21 is_stmt 1 discriminator 2 view .LVU194
 493:Lib/lvgl/src/draw/sw/blend/lv_draw_sw_blend_to_rgb565.c ****                 }
 622              		.loc 1 493 30 is_stmt 0 discriminator 2 view .LVU195
 623 0190 009B     		ldr	r3, [sp]
 624 0192 1E44     		add	r6, r6, r3
 625              	.LVL80:
 487:Lib/lvgl/src/draw/sw/blend/lv_draw_sw_blend_to_rgb565.c ****                     for(dest_x = 0, src_x = 0; dest_x < w; dest_x++, src_x += src_px_size) {
 626              		.loc 1 487 36 is_stmt 1 discriminator 2 view .LVU196
 627 0194 0CF1010C 		add	ip, ip, #1
 628              	.LVL81:
 629              	.L30:
 487:Lib/lvgl/src/draw/sw/blend/lv_draw_sw_blend_to_rgb565.c ****                     for(dest_x = 0, src_x = 0; dest_x < w; dest_x++, src_x += src_px_size) {
 630              		.loc 1 487 30 discriminator 1 view .LVU197
 631 0198 029B     		ldr	r3, [sp, #8]
 632 019a 9C45     		cmp	ip, r3
 633 019c 47DA     		bge	.L16
 488:Lib/lvgl/src/draw/sw/blend/lv_draw_sw_blend_to_rgb565.c ****                         dest_buf_u16[dest_x] = lv_color_24_16_mix(&src_buf_u8[src_x], dest_buf_u16[
 634              		.loc 1 488 43 is_stmt 0 view .LVU198
 635 019e 4FF00008 		mov	r8, #0
 488:Lib/lvgl/src/draw/sw/blend/lv_draw_sw_blend_to_rgb565.c ****                         dest_buf_u16[dest_x] = lv_color_24_16_mix(&src_buf_u8[src_x], dest_buf_u16[
 636              		.loc 1 488 32 view .LVU199
 637 01a2 4546     		mov	r5, r8
 638 01a4 CDF804C0 		str	ip, [sp, #4]
 639 01a8 EAE7     		b	.L32
 640              	.LVL82:
 641              	.L57:
 642              	.LBB75:
 643              	.LBB76:
 505:Lib/lvgl/src/draw/sw/blend/lv_draw_sw_blend_to_rgb565.c ****                         res += (LV_MIN(dest_buf_c16[dest_x].green + (src_buf_u8[src_x + 1] >> 2), 6
 644              		.loc 1 505 25 is_stmt 1 view .LVU200
 505:Lib/lvgl/src/draw/sw/blend/lv_draw_sw_blend_to_rgb565.c ****                         res += (LV_MIN(dest_buf_c16[dest_x].green + (src_buf_u8[src_x + 1] >> 2), 6
 645              		.loc 1 505 32 is_stmt 0 view .LVU201
 646 01aa 04EB4503 		add	r3, r4, r5, lsl #1
 647 01ae 5978     		ldrb	r1, [r3, #1]	@ zero_extendqisi2
 648 01b0 09EB0802 		add	r2, r9, r8
 649 01b4 9378     		ldrb	r3, [r2, #2]	@ zero_extendqisi2
 650 01b6 DB08     		lsrs	r3, r3, #3
 651 01b8 03EBD103 		add	r3, r3, r1, lsr #3
 505:Lib/lvgl/src/draw/sw/blend/lv_draw_sw_blend_to_rgb565.c ****                         res += (LV_MIN(dest_buf_c16[dest_x].green + (src_buf_u8[src_x + 1] >> 2), 6
 652              		.loc 1 505 101 view .LVU202
 653 01bc 1F2B     		cmp	r3, #31
 654 01be A8BF     		it	ge
 655 01c0 1F23     		movge	r3, #31
 505:Lib/lvgl/src/draw/sw/blend/lv_draw_sw_blend_to_rgb565.c ****                         res += (LV_MIN(dest_buf_c16[dest_x].green + (src_buf_u8[src_x + 1] >> 2), 6
 656              		.loc 1 505 29 view .LVU203
 657 01c2 DB02     		lsls	r3, r3, #11
 658 01c4 9BB2     		uxth	r3, r3
 659              	.LVL83:
ARM GAS  C:\Users\Alex\AppData\Local\Temp\ccUzeV0Q.s 			page 33


 506:Lib/lvgl/src/draw/sw/blend/lv_draw_sw_blend_to_rgb565.c ****                         res += LV_MIN(dest_buf_c16[dest_x].blue + (src_buf_u8[src_x + 0] >> 3), 31)
 660              		.loc 1 506 25 is_stmt 1 view .LVU204
 506:Lib/lvgl/src/draw/sw/blend/lv_draw_sw_blend_to_rgb565.c ****                         res += LV_MIN(dest_buf_c16[dest_x].blue + (src_buf_u8[src_x + 0] >> 3), 31)
 661              		.loc 1 506 33 is_stmt 0 view .LVU205
 662 01c6 34F81500 		ldrh	r0, [r4, r5, lsl #1]
 663 01ca C0F34510 		ubfx	r0, r0, #5, #6
 664 01ce 5278     		ldrb	r2, [r2, #1]	@ zero_extendqisi2
 665 01d0 00EB9200 		add	r0, r0, r2, lsr #2
 666 01d4 3F28     		cmp	r0, #63
 667 01d6 A8BF     		it	ge
 668 01d8 3F20     		movge	r0, #63
 506:Lib/lvgl/src/draw/sw/blend/lv_draw_sw_blend_to_rgb565.c ****                         res += LV_MIN(dest_buf_c16[dest_x].blue + (src_buf_u8[src_x + 0] >> 3), 31)
 669              		.loc 1 506 104 view .LVU206
 670 01da 4001     		lsls	r0, r0, #5
 671 01dc 80B2     		uxth	r0, r0
 506:Lib/lvgl/src/draw/sw/blend/lv_draw_sw_blend_to_rgb565.c ****                         res += LV_MIN(dest_buf_c16[dest_x].blue + (src_buf_u8[src_x + 0] >> 3), 31)
 672              		.loc 1 506 29 view .LVU207
 673 01de 1844     		add	r0, r0, r3
 674 01e0 80B2     		uxth	r0, r0
 675              	.LVL84:
 507:Lib/lvgl/src/draw/sw/blend/lv_draw_sw_blend_to_rgb565.c ****                         break;
 676              		.loc 1 507 25 is_stmt 1 view .LVU208
 507:Lib/lvgl/src/draw/sw/blend/lv_draw_sw_blend_to_rgb565.c ****                         break;
 677              		.loc 1 507 32 is_stmt 0 view .LVU209
 678 01e2 14F81530 		ldrb	r3, [r4, r5, lsl #1]	@ zero_extendqisi2
 679 01e6 03F01F03 		and	r3, r3, #31
 680 01ea 19F80820 		ldrb	r2, [r9, r8]	@ zero_extendqisi2
 681 01ee 03EBD203 		add	r3, r3, r2, lsr #3
 507:Lib/lvgl/src/draw/sw/blend/lv_draw_sw_blend_to_rgb565.c ****                         break;
 682              		.loc 1 507 29 view .LVU210
 683 01f2 1F2B     		cmp	r3, #31
 684 01f4 D4BF     		ite	le
 685 01f6 C018     		addle	r0, r0, r3
 686 01f8 1F30     		addgt	r0, r0, #31
 687              	.LVL85:
 507:Lib/lvgl/src/draw/sw/blend/lv_draw_sw_blend_to_rgb565.c ****                         break;
 688              		.loc 1 507 29 view .LVU211
 689 01fa 80B2     		uxth	r0, r0
 690              	.LVL86:
 508:Lib/lvgl/src/draw/sw/blend/lv_draw_sw_blend_to_rgb565.c ****                     case LV_BLEND_MODE_SUBTRACTIVE:
 691              		.loc 1 508 25 is_stmt 1 view .LVU212
 692              	.L35:
 524:Lib/lvgl/src/draw/sw/blend/lv_draw_sw_blend_to_rgb565.c ****                     dest_buf_u16[dest_x] = lv_color_16_16_mix(res, dest_buf_u16[dest_x], opa);
 693              		.loc 1 524 17 view .LVU213
 524:Lib/lvgl/src/draw/sw/blend/lv_draw_sw_blend_to_rgb565.c ****                     dest_buf_u16[dest_x] = lv_color_16_16_mix(res, dest_buf_u16[dest_x], opa);
 694              		.loc 1 524 19 is_stmt 0 view .LVU214
 695 01fc 002E     		cmp	r6, #0
 696 01fe 65D0     		beq	.L55
 528:Lib/lvgl/src/draw/sw/blend/lv_draw_sw_blend_to_rgb565.c ****                     else dest_buf_u16[dest_x] = lv_color_16_16_mix(res, dest_buf_u16[dest_x], LV_OP
 697              		.loc 1 528 21 is_stmt 1 view .LVU215
 528:Lib/lvgl/src/draw/sw/blend/lv_draw_sw_blend_to_rgb565.c ****                     else dest_buf_u16[dest_x] = lv_color_16_16_mix(res, dest_buf_u16[dest_x], LV_OP
 698              		.loc 1 528 23 is_stmt 0 view .LVU216
 699 0200 BBF1FC0F 		cmp	fp, #252
 700 0204 6AD9     		bls	.L38
 528:Lib/lvgl/src/draw/sw/blend/lv_draw_sw_blend_to_rgb565.c ****                     else dest_buf_u16[dest_x] = lv_color_16_16_mix(res, dest_buf_u16[dest_x], LV_OP
 701              		.loc 1 528 43 is_stmt 1 discriminator 1 view .LVU217
 528:Lib/lvgl/src/draw/sw/blend/lv_draw_sw_blend_to_rgb565.c ****                     else dest_buf_u16[dest_x] = lv_color_16_16_mix(res, dest_buf_u16[dest_x], LV_OP
ARM GAS  C:\Users\Alex\AppData\Local\Temp\ccUzeV0Q.s 			page 34


 702              		.loc 1 528 66 is_stmt 0 discriminator 1 view .LVU218
 703 0206 725D     		ldrb	r2, [r6, r5]	@ zero_extendqisi2
 704 0208 34F81510 		ldrh	r1, [r4, r5, lsl #1]
 705 020c FFF7FEFF 		bl	lv_color_16_16_mix
 706              	.LVL87:
 528:Lib/lvgl/src/draw/sw/blend/lv_draw_sw_blend_to_rgb565.c ****                     else dest_buf_u16[dest_x] = lv_color_16_16_mix(res, dest_buf_u16[dest_x], LV_OP
 707              		.loc 1 528 64 discriminator 1 view .LVU219
 708 0210 24F81500 		strh	r0, [r4, r5, lsl #1]	@ movhi
 709              	.L37:
 502:Lib/lvgl/src/draw/sw/blend/lv_draw_sw_blend_to_rgb565.c ****                 switch(dsc->blend_mode) {
 710              		.loc 1 502 60 is_stmt 1 discriminator 2 view .LVU220
 502:Lib/lvgl/src/draw/sw/blend/lv_draw_sw_blend_to_rgb565.c ****                 switch(dsc->blend_mode) {
 711              		.loc 1 502 58 is_stmt 0 discriminator 2 view .LVU221
 712 0214 0135     		adds	r5, r5, #1
 713              	.LVL88:
 502:Lib/lvgl/src/draw/sw/blend/lv_draw_sw_blend_to_rgb565.c ****                 switch(dsc->blend_mode) {
 714              		.loc 1 502 68 discriminator 2 view .LVU222
 715 0216 019B     		ldr	r3, [sp, #4]
 716 0218 9844     		add	r8, r8, r3
 717              	.LVL89:
 718              	.L41:
 502:Lib/lvgl/src/draw/sw/blend/lv_draw_sw_blend_to_rgb565.c ****                 switch(dsc->blend_mode) {
 719              		.loc 1 502 47 is_stmt 1 discriminator 1 view .LVU223
 720 021a BD42     		cmp	r5, r7
 721 021c 69DA     		bge	.L56
 503:Lib/lvgl/src/draw/sw/blend/lv_draw_sw_blend_to_rgb565.c ****                     case LV_BLEND_MODE_ADDITIVE:
 722              		.loc 1 503 17 view .LVU224
 503:Lib/lvgl/src/draw/sw/blend/lv_draw_sw_blend_to_rgb565.c ****                     case LV_BLEND_MODE_ADDITIVE:
 723              		.loc 1 503 27 is_stmt 0 view .LVU225
 724 021e 9AF82230 		ldrb	r3, [r10, #34]	@ zero_extendqisi2
 503:Lib/lvgl/src/draw/sw/blend/lv_draw_sw_blend_to_rgb565.c ****                     case LV_BLEND_MODE_ADDITIVE:
 725              		.loc 1 503 17 view .LVU226
 726 0222 022B     		cmp	r3, #2
 727 0224 06D0     		beq	.L33
 728 0226 032B     		cmp	r3, #3
 729 0228 2CD0     		beq	.L34
 730 022a 012B     		cmp	r3, #1
 731 022c BDD0     		beq	.L57
 732              	.LVL90:
 733              	.L16:
 503:Lib/lvgl/src/draw/sw/blend/lv_draw_sw_blend_to_rgb565.c ****                     case LV_BLEND_MODE_ADDITIVE:
 734              		.loc 1 503 17 view .LVU227
 735              	.LBE76:
 736              	.LBE75:
 538:Lib/lvgl/src/draw/sw/blend/lv_draw_sw_blend_to_rgb565.c **** 
 737              		.loc 1 538 1 view .LVU228
 738 022e 07B0     		add	sp, sp, #28
 739              	.LCFI4:
 740              		.cfi_remember_state
 741              		.cfi_def_cfa_offset 36
 742              	.LVL91:
 538:Lib/lvgl/src/draw/sw/blend/lv_draw_sw_blend_to_rgb565.c **** 
 743              		.loc 1 538 1 view .LVU229
 744              		@ sp needed
 745 0230 BDE8F08F 		pop	{r4, r5, r6, r7, r8, r9, r10, fp, pc}
 746              	.LVL92:
 747              	.L33:
ARM GAS  C:\Users\Alex\AppData\Local\Temp\ccUzeV0Q.s 			page 35


 748              	.LCFI5:
 749              		.cfi_restore_state
 750              	.LBB83:
 751              	.LBB81:
 510:Lib/lvgl/src/draw/sw/blend/lv_draw_sw_blend_to_rgb565.c ****                         res += (LV_MAX(dest_buf_c16[dest_x].green - (src_buf_u8[src_x + 1] >> 2), 0
 752              		.loc 1 510 25 is_stmt 1 view .LVU230
 510:Lib/lvgl/src/draw/sw/blend/lv_draw_sw_blend_to_rgb565.c ****                         res += (LV_MAX(dest_buf_c16[dest_x].green - (src_buf_u8[src_x + 1] >> 2), 0
 753              		.loc 1 510 32 is_stmt 0 view .LVU231
 754 0234 04EB4503 		add	r3, r4, r5, lsl #1
 755 0238 5978     		ldrb	r1, [r3, #1]	@ zero_extendqisi2
 756 023a 09EB0802 		add	r2, r9, r8
 757 023e 9378     		ldrb	r3, [r2, #2]	@ zero_extendqisi2
 758 0240 DB08     		lsrs	r3, r3, #3
 759 0242 C3EBD103 		rsb	r3, r3, r1, lsr #3
 760 0246 23EAE373 		bic	r3, r3, r3, asr #31
 510:Lib/lvgl/src/draw/sw/blend/lv_draw_sw_blend_to_rgb565.c ****                         res += (LV_MAX(dest_buf_c16[dest_x].green - (src_buf_u8[src_x + 1] >> 2), 0
 761              		.loc 1 510 100 view .LVU232
 762 024a 9BB2     		uxth	r3, r3
 510:Lib/lvgl/src/draw/sw/blend/lv_draw_sw_blend_to_rgb565.c ****                         res += (LV_MAX(dest_buf_c16[dest_x].green - (src_buf_u8[src_x + 1] >> 2), 0
 763              		.loc 1 510 29 view .LVU233
 764 024c DB02     		lsls	r3, r3, #11
 765 024e 9BB2     		uxth	r3, r3
 766              	.LVL93:
 511:Lib/lvgl/src/draw/sw/blend/lv_draw_sw_blend_to_rgb565.c ****                         res += LV_MAX(dest_buf_c16[dest_x].blue - (src_buf_u8[src_x + 0] >> 3), 0);
 767              		.loc 1 511 25 is_stmt 1 view .LVU234
 511:Lib/lvgl/src/draw/sw/blend/lv_draw_sw_blend_to_rgb565.c ****                         res += LV_MAX(dest_buf_c16[dest_x].blue - (src_buf_u8[src_x + 0] >> 3), 0);
 768              		.loc 1 511 33 is_stmt 0 view .LVU235
 769 0250 34F81500 		ldrh	r0, [r4, r5, lsl #1]
 770 0254 C0F34510 		ubfx	r0, r0, #5, #6
 771 0258 5278     		ldrb	r2, [r2, #1]	@ zero_extendqisi2
 772 025a A0EB9200 		sub	r0, r0, r2, lsr #2
 773 025e 20EAE070 		bic	r0, r0, r0, asr #31
 511:Lib/lvgl/src/draw/sw/blend/lv_draw_sw_blend_to_rgb565.c ****                         res += LV_MAX(dest_buf_c16[dest_x].blue - (src_buf_u8[src_x + 0] >> 3), 0);
 774              		.loc 1 511 103 view .LVU236
 775 0262 4001     		lsls	r0, r0, #5
 776 0264 80B2     		uxth	r0, r0
 511:Lib/lvgl/src/draw/sw/blend/lv_draw_sw_blend_to_rgb565.c ****                         res += LV_MAX(dest_buf_c16[dest_x].blue - (src_buf_u8[src_x + 0] >> 3), 0);
 777              		.loc 1 511 29 view .LVU237
 778 0266 1844     		add	r0, r0, r3
 779 0268 80B2     		uxth	r0, r0
 780              	.LVL94:
 512:Lib/lvgl/src/draw/sw/blend/lv_draw_sw_blend_to_rgb565.c ****                         break;
 781              		.loc 1 512 25 is_stmt 1 view .LVU238
 512:Lib/lvgl/src/draw/sw/blend/lv_draw_sw_blend_to_rgb565.c ****                         break;
 782              		.loc 1 512 32 is_stmt 0 view .LVU239
 783 026a 14F81530 		ldrb	r3, [r4, r5, lsl #1]	@ zero_extendqisi2
 784 026e 03F01F03 		and	r3, r3, #31
 785 0272 19F80820 		ldrb	r2, [r9, r8]	@ zero_extendqisi2
 786 0276 A3EBD203 		sub	r3, r3, r2, lsr #3
 512:Lib/lvgl/src/draw/sw/blend/lv_draw_sw_blend_to_rgb565.c ****                         break;
 787              		.loc 1 512 29 view .LVU240
 788 027a 002B     		cmp	r3, #0
 789 027c A8BF     		it	ge
 790 027e C018     		addge	r0, r0, r3
 791              	.LVL95:
 512:Lib/lvgl/src/draw/sw/blend/lv_draw_sw_blend_to_rgb565.c ****                         break;
 792              		.loc 1 512 29 view .LVU241
ARM GAS  C:\Users\Alex\AppData\Local\Temp\ccUzeV0Q.s 			page 36


 793 0280 80B2     		uxth	r0, r0
 794              	.LVL96:
 513:Lib/lvgl/src/draw/sw/blend/lv_draw_sw_blend_to_rgb565.c ****                     case LV_BLEND_MODE_MULTIPLY:
 795              		.loc 1 513 25 is_stmt 1 view .LVU242
 796 0282 BBE7     		b	.L35
 797              	.LVL97:
 798              	.L34:
 515:Lib/lvgl/src/draw/sw/blend/lv_draw_sw_blend_to_rgb565.c ****                         res += ((dest_buf_c16[dest_x].green * (src_buf_u8[src_x + 1] >> 2)) >> 6) <
 799              		.loc 1 515 25 view .LVU243
 515:Lib/lvgl/src/draw/sw/blend/lv_draw_sw_blend_to_rgb565.c ****                         res += ((dest_buf_c16[dest_x].green * (src_buf_u8[src_x + 1] >> 2)) >> 6) <
 800              		.loc 1 515 45 is_stmt 0 view .LVU244
 801 0284 04EB4503 		add	r3, r4, r5, lsl #1
 515:Lib/lvgl/src/draw/sw/blend/lv_draw_sw_blend_to_rgb565.c ****                         res += ((dest_buf_c16[dest_x].green * (src_buf_u8[src_x + 1] >> 2)) >> 6) <
 802              		.loc 1 515 53 view .LVU245
 803 0288 5A78     		ldrb	r2, [r3, #1]	@ zero_extendqisi2
 804 028a D208     		lsrs	r2, r2, #3
 515:Lib/lvgl/src/draw/sw/blend/lv_draw_sw_blend_to_rgb565.c ****                         res += ((dest_buf_c16[dest_x].green * (src_buf_u8[src_x + 1] >> 2)) >> 6) <
 805              		.loc 1 515 71 view .LVU246
 806 028c 09EB0803 		add	r3, r9, r8
 807 0290 9978     		ldrb	r1, [r3, #2]	@ zero_extendqisi2
 515:Lib/lvgl/src/draw/sw/blend/lv_draw_sw_blend_to_rgb565.c ****                         res += ((dest_buf_c16[dest_x].green * (src_buf_u8[src_x + 1] >> 2)) >> 6) <
 808              		.loc 1 515 83 view .LVU247
 809 0292 C908     		lsrs	r1, r1, #3
 515:Lib/lvgl/src/draw/sw/blend/lv_draw_sw_blend_to_rgb565.c ****                         res += ((dest_buf_c16[dest_x].green * (src_buf_u8[src_x + 1] >> 2)) >> 6) <
 810              		.loc 1 515 58 view .LVU248
 811 0294 01FB02F2 		mul	r2, r1, r2
 515:Lib/lvgl/src/draw/sw/blend/lv_draw_sw_blend_to_rgb565.c ****                         res += ((dest_buf_c16[dest_x].green * (src_buf_u8[src_x + 1] >> 2)) >> 6) <
 812              		.loc 1 515 96 view .LVU249
 813 0298 5209     		lsrs	r2, r2, #5
 814              	.LVL98:
 516:Lib/lvgl/src/draw/sw/blend/lv_draw_sw_blend_to_rgb565.c ****                         res += (dest_buf_c16[dest_x].blue * (src_buf_u8[src_x + 1] >> 3)) >> 5;
 815              		.loc 1 516 25 is_stmt 1 view .LVU250
 516:Lib/lvgl/src/draw/sw/blend/lv_draw_sw_blend_to_rgb565.c ****                         res += (dest_buf_c16[dest_x].blue * (src_buf_u8[src_x + 1] >> 3)) >> 5;
 816              		.loc 1 516 54 is_stmt 0 view .LVU251
 817 029a 34F81500 		ldrh	r0, [r4, r5, lsl #1]
 818 029e C0F34510 		ubfx	r0, r0, #5, #6
 516:Lib/lvgl/src/draw/sw/blend/lv_draw_sw_blend_to_rgb565.c ****                         res += (dest_buf_c16[dest_x].blue * (src_buf_u8[src_x + 1] >> 3)) >> 5;
 819              		.loc 1 516 74 view .LVU252
 820 02a2 5B78     		ldrb	r3, [r3, #1]	@ zero_extendqisi2
 516:Lib/lvgl/src/draw/sw/blend/lv_draw_sw_blend_to_rgb565.c ****                         res += (dest_buf_c16[dest_x].blue * (src_buf_u8[src_x + 1] >> 3)) >> 5;
 821              		.loc 1 516 86 view .LVU253
 822 02a4 9908     		lsrs	r1, r3, #2
 516:Lib/lvgl/src/draw/sw/blend/lv_draw_sw_blend_to_rgb565.c ****                         res += (dest_buf_c16[dest_x].blue * (src_buf_u8[src_x + 1] >> 3)) >> 5;
 823              		.loc 1 516 61 view .LVU254
 824 02a6 01FB00F0 		mul	r0, r1, r0
 516:Lib/lvgl/src/draw/sw/blend/lv_draw_sw_blend_to_rgb565.c ****                         res += (dest_buf_c16[dest_x].blue * (src_buf_u8[src_x + 1] >> 3)) >> 5;
 825              		.loc 1 516 93 view .LVU255
 826 02aa 8011     		asrs	r0, r0, #6
 516:Lib/lvgl/src/draw/sw/blend/lv_draw_sw_blend_to_rgb565.c ****                         res += (dest_buf_c16[dest_x].blue * (src_buf_u8[src_x + 1] >> 3)) >> 5;
 827              		.loc 1 516 99 view .LVU256
 828 02ac 4001     		lsls	r0, r0, #5
 829 02ae 80B2     		uxth	r0, r0
 516:Lib/lvgl/src/draw/sw/blend/lv_draw_sw_blend_to_rgb565.c ****                         res += (dest_buf_c16[dest_x].blue * (src_buf_u8[src_x + 1] >> 3)) >> 5;
 830              		.loc 1 516 29 view .LVU257
 831 02b0 00EBC220 		add	r0, r0, r2, lsl #11
 832 02b4 80B2     		uxth	r0, r0
 833              	.LVL99:
ARM GAS  C:\Users\Alex\AppData\Local\Temp\ccUzeV0Q.s 			page 37


 517:Lib/lvgl/src/draw/sw/blend/lv_draw_sw_blend_to_rgb565.c ****                         break;
 834              		.loc 1 517 25 is_stmt 1 view .LVU258
 517:Lib/lvgl/src/draw/sw/blend/lv_draw_sw_blend_to_rgb565.c ****                         break;
 835              		.loc 1 517 53 is_stmt 0 view .LVU259
 836 02b6 14F81520 		ldrb	r2, [r4, r5, lsl #1]	@ zero_extendqisi2
 837 02ba 02F01F02 		and	r2, r2, #31
 517:Lib/lvgl/src/draw/sw/blend/lv_draw_sw_blend_to_rgb565.c ****                         break;
 838              		.loc 1 517 84 view .LVU260
 839 02be DB08     		lsrs	r3, r3, #3
 517:Lib/lvgl/src/draw/sw/blend/lv_draw_sw_blend_to_rgb565.c ****                         break;
 840              		.loc 1 517 59 view .LVU261
 841 02c0 02FB03F3 		mul	r3, r2, r3
 517:Lib/lvgl/src/draw/sw/blend/lv_draw_sw_blend_to_rgb565.c ****                         break;
 842              		.loc 1 517 29 view .LVU262
 843 02c4 00EB6310 		add	r0, r0, r3, asr #5
 844              	.LVL100:
 517:Lib/lvgl/src/draw/sw/blend/lv_draw_sw_blend_to_rgb565.c ****                         break;
 845              		.loc 1 517 29 view .LVU263
 846 02c8 80B2     		uxth	r0, r0
 847              	.LVL101:
 518:Lib/lvgl/src/draw/sw/blend/lv_draw_sw_blend_to_rgb565.c ****                     default:
 848              		.loc 1 518 25 is_stmt 1 view .LVU264
 849 02ca 97E7     		b	.L35
 850              	.L55:
 525:Lib/lvgl/src/draw/sw/blend/lv_draw_sw_blend_to_rgb565.c ****                 }
 851              		.loc 1 525 21 view .LVU265
 525:Lib/lvgl/src/draw/sw/blend/lv_draw_sw_blend_to_rgb565.c ****                 }
 852              		.loc 1 525 44 is_stmt 0 view .LVU266
 853 02cc 5A46     		mov	r2, fp
 854 02ce 34F81510 		ldrh	r1, [r4, r5, lsl #1]
 855 02d2 FFF7FEFF 		bl	lv_color_16_16_mix
 856              	.LVL102:
 525:Lib/lvgl/src/draw/sw/blend/lv_draw_sw_blend_to_rgb565.c ****                 }
 857              		.loc 1 525 42 view .LVU267
 858 02d6 24F81500 		strh	r0, [r4, r5, lsl #1]	@ movhi
 859 02da 9BE7     		b	.L37
 860              	.LVL103:
 861              	.L38:
 529:Lib/lvgl/src/draw/sw/blend/lv_draw_sw_blend_to_rgb565.c ****                 }
 862              		.loc 1 529 26 is_stmt 1 view .LVU268
 529:Lib/lvgl/src/draw/sw/blend/lv_draw_sw_blend_to_rgb565.c ****                 }
 863              		.loc 1 529 95 is_stmt 0 view .LVU269
 864 02dc 725D     		ldrb	r2, [r6, r5]	@ zero_extendqisi2
 865 02de 02FB0BF2 		mul	r2, r2, fp
 529:Lib/lvgl/src/draw/sw/blend/lv_draw_sw_blend_to_rgb565.c ****                 }
 866              		.loc 1 529 49 view .LVU270
 867 02e2 120A     		lsrs	r2, r2, #8
 868 02e4 34F81510 		ldrh	r1, [r4, r5, lsl #1]
 869 02e8 FFF7FEFF 		bl	lv_color_16_16_mix
 870              	.LVL104:
 529:Lib/lvgl/src/draw/sw/blend/lv_draw_sw_blend_to_rgb565.c ****                 }
 871              		.loc 1 529 47 view .LVU271
 872 02ec 24F81500 		strh	r0, [r4, r5, lsl #1]	@ movhi
 873 02f0 90E7     		b	.L37
 874              	.LVL105:
 875              	.L56:
 876              	.LBB77:
ARM GAS  C:\Users\Alex\AppData\Local\Temp\ccUzeV0Q.s 			page 38


 877              	.LBB78:
 878              		.loc 1 672 12 view .LVU272
 879 02f2 029B     		ldr	r3, [sp, #8]
 880 02f4 0399     		ldr	r1, [sp, #12]
 881              	.LBE78:
 882              	.LBE77:
 532:Lib/lvgl/src/draw/sw/blend/lv_draw_sw_blend_to_rgb565.c ****             src_buf_u8 += src_stride;
 883              		.loc 1 532 13 is_stmt 1 view .LVU273
 884              	.LVL106:
 885              	.LBB80:
 886              	.LBI77:
 670:Lib/lvgl/src/draw/sw/blend/lv_draw_sw_blend_to_rgb565.c **** {
 887              		.loc 1 670 44 view .LVU274
 888              	.LBB79:
 889              		.loc 1 672 5 view .LVU275
 890              		.loc 1 672 12 is_stmt 0 view .LVU276
 891 02f6 049A     		ldr	r2, [sp, #16]
 892 02f8 1444     		add	r4, r4, r2
 893              	.LVL107:
 894              		.loc 1 672 12 view .LVU277
 895              	.LBE79:
 896              	.LBE80:
 533:Lib/lvgl/src/draw/sw/blend/lv_draw_sw_blend_to_rgb565.c ****             if(mask_buf) mask_buf += mask_stride;
 897              		.loc 1 533 13 is_stmt 1 view .LVU278
 533:Lib/lvgl/src/draw/sw/blend/lv_draw_sw_blend_to_rgb565.c ****             if(mask_buf) mask_buf += mask_stride;
 898              		.loc 1 533 24 is_stmt 0 view .LVU279
 899 02fa 059A     		ldr	r2, [sp, #20]
 900 02fc 9144     		add	r9, r9, r2
 901              	.LVL108:
 534:Lib/lvgl/src/draw/sw/blend/lv_draw_sw_blend_to_rgb565.c ****         }
 902              		.loc 1 534 13 is_stmt 1 view .LVU280
 534:Lib/lvgl/src/draw/sw/blend/lv_draw_sw_blend_to_rgb565.c ****         }
 903              		.loc 1 534 15 is_stmt 0 view .LVU281
 904 02fe 0EB1     		cbz	r6, .L40
 534:Lib/lvgl/src/draw/sw/blend/lv_draw_sw_blend_to_rgb565.c ****         }
 905              		.loc 1 534 26 is_stmt 1 discriminator 1 view .LVU282
 534:Lib/lvgl/src/draw/sw/blend/lv_draw_sw_blend_to_rgb565.c ****         }
 906              		.loc 1 534 35 is_stmt 0 discriminator 1 view .LVU283
 907 0300 009A     		ldr	r2, [sp]
 908 0302 1644     		add	r6, r6, r2
 909              	.LVL109:
 910              	.L40:
 534:Lib/lvgl/src/draw/sw/blend/lv_draw_sw_blend_to_rgb565.c ****         }
 911              		.loc 1 534 35 discriminator 1 view .LVU284
 912              	.LBE81:
 500:Lib/lvgl/src/draw/sw/blend/lv_draw_sw_blend_to_rgb565.c ****             lv_color16_t * dest_buf_c16 = (lv_color16_t *) dest_buf_u16;
 913              		.loc 1 500 28 is_stmt 1 discriminator 2 view .LVU285
 914 0304 0133     		adds	r3, r3, #1
 915              	.LVL110:
 500:Lib/lvgl/src/draw/sw/blend/lv_draw_sw_blend_to_rgb565.c ****             lv_color16_t * dest_buf_c16 = (lv_color16_t *) dest_buf_u16;
 916              		.loc 1 500 28 is_stmt 0 discriminator 2 view .LVU286
 917 0306 0BE0     		b	.L17
 918              	.LVL111:
 919              	.L42:
 500:Lib/lvgl/src/draw/sw/blend/lv_draw_sw_blend_to_rgb565.c ****             lv_color16_t * dest_buf_c16 = (lv_color16_t *) dest_buf_u16;
 920              		.loc 1 500 28 discriminator 2 view .LVU287
 921 0308 8446     		mov	ip, r0
ARM GAS  C:\Users\Alex\AppData\Local\Temp\ccUzeV0Q.s 			page 39


 500:Lib/lvgl/src/draw/sw/blend/lv_draw_sw_blend_to_rgb565.c ****             lv_color16_t * dest_buf_c16 = (lv_color16_t *) dest_buf_u16;
 922              		.loc 1 500 15 view .LVU288
 923 030a 0020     		movs	r0, #0
 924              	.LVL112:
 500:Lib/lvgl/src/draw/sw/blend/lv_draw_sw_blend_to_rgb565.c ****             lv_color16_t * dest_buf_c16 = (lv_color16_t *) dest_buf_u16;
 925              		.loc 1 500 15 view .LVU289
 926 030c 4A46     		mov	r2, r9
 927 030e B146     		mov	r9, r6
 928              	.LVL113:
 500:Lib/lvgl/src/draw/sw/blend/lv_draw_sw_blend_to_rgb565.c ****             lv_color16_t * dest_buf_c16 = (lv_color16_t *) dest_buf_u16;
 929              		.loc 1 500 15 view .LVU290
 930 0310 CDF810E0 		str	lr, [sp, #16]
 931 0314 0593     		str	r3, [sp, #20]
 932 0316 0346     		mov	r3, r0
 933              	.LVL114:
 500:Lib/lvgl/src/draw/sw/blend/lv_draw_sw_blend_to_rgb565.c ****             lv_color16_t * dest_buf_c16 = (lv_color16_t *) dest_buf_u16;
 934              		.loc 1 500 15 view .LVU291
 935 0318 CDF804A0 		str	r10, [sp, #4]
 936 031c E246     		mov	r10, ip
 937 031e 1646     		mov	r6, r2
 938              	.LVL115:
 939              	.L17:
 500:Lib/lvgl/src/draw/sw/blend/lv_draw_sw_blend_to_rgb565.c ****             lv_color16_t * dest_buf_c16 = (lv_color16_t *) dest_buf_u16;
 940              		.loc 1 500 22 is_stmt 1 discriminator 1 view .LVU292
 941 0320 8B42     		cmp	r3, r1
 942 0322 84DA     		bge	.L16
 943              	.LBB82:
 502:Lib/lvgl/src/draw/sw/blend/lv_draw_sw_blend_to_rgb565.c ****                 switch(dsc->blend_mode) {
 944              		.loc 1 502 35 is_stmt 0 view .LVU293
 945 0324 4FF00008 		mov	r8, #0
 502:Lib/lvgl/src/draw/sw/blend/lv_draw_sw_blend_to_rgb565.c ****                 switch(dsc->blend_mode) {
 946              		.loc 1 502 24 view .LVU294
 947 0328 4546     		mov	r5, r8
 948 032a 0293     		str	r3, [sp, #8]
 949 032c 0391     		str	r1, [sp, #12]
 950 032e 74E7     		b	.L41
 951              	.LBE82:
 952              	.LBE83:
 953              		.cfi_endproc
 954              	.LFE236:
 956              		.section	.text.argb8888_image_blend,"ax",%progbits
 957              		.align	1
 958              		.syntax unified
 959              		.thumb
 960              		.thumb_func
 962              	argb8888_image_blend:
 963              	.LVL116:
 964              	.LFB237:
 541:Lib/lvgl/src/draw/sw/blend/lv_draw_sw_blend_to_rgb565.c ****     int32_t w = dsc->dest_w;
 965              		.loc 1 541 1 is_stmt 1 view -0
 966              		.cfi_startproc
 967              		@ args = 0, pretend = 0, frame = 24
 968              		@ frame_needed = 0, uses_anonymous_args = 0
 541:Lib/lvgl/src/draw/sw/blend/lv_draw_sw_blend_to_rgb565.c ****     int32_t w = dsc->dest_w;
 969              		.loc 1 541 1 is_stmt 0 view .LVU296
 970 0000 2DE9F04F 		push	{r4, r5, r6, r7, r8, r9, r10, fp, lr}
 971              	.LCFI6:
ARM GAS  C:\Users\Alex\AppData\Local\Temp\ccUzeV0Q.s 			page 40


 972              		.cfi_def_cfa_offset 36
 973              		.cfi_offset 4, -36
 974              		.cfi_offset 5, -32
 975              		.cfi_offset 6, -28
 976              		.cfi_offset 7, -24
 977              		.cfi_offset 8, -20
 978              		.cfi_offset 9, -16
 979              		.cfi_offset 10, -12
 980              		.cfi_offset 11, -8
 981              		.cfi_offset 14, -4
 982 0004 87B0     		sub	sp, sp, #28
 983              	.LCFI7:
 984              		.cfi_def_cfa_offset 64
 542:Lib/lvgl/src/draw/sw/blend/lv_draw_sw_blend_to_rgb565.c ****     int32_t h = dsc->dest_h;
 985              		.loc 1 542 5 is_stmt 1 view .LVU297
 542:Lib/lvgl/src/draw/sw/blend/lv_draw_sw_blend_to_rgb565.c ****     int32_t h = dsc->dest_h;
 986              		.loc 1 542 13 is_stmt 0 view .LVU298
 987 0006 4768     		ldr	r7, [r0, #4]
 988              	.LVL117:
 543:Lib/lvgl/src/draw/sw/blend/lv_draw_sw_blend_to_rgb565.c ****     lv_opa_t opa = dsc->opa;
 989              		.loc 1 543 5 is_stmt 1 view .LVU299
 543:Lib/lvgl/src/draw/sw/blend/lv_draw_sw_blend_to_rgb565.c ****     lv_opa_t opa = dsc->opa;
 990              		.loc 1 543 13 is_stmt 0 view .LVU300
 991 0008 D0F808A0 		ldr	r10, [r0, #8]
 992              	.LVL118:
 544:Lib/lvgl/src/draw/sw/blend/lv_draw_sw_blend_to_rgb565.c ****     uint16_t * dest_buf_u16 = dsc->dest_buf;
 993              		.loc 1 544 5 is_stmt 1 view .LVU301
 544:Lib/lvgl/src/draw/sw/blend/lv_draw_sw_blend_to_rgb565.c ****     uint16_t * dest_buf_u16 = dsc->dest_buf;
 994              		.loc 1 544 14 is_stmt 0 view .LVU302
 995 000c 90F821B0 		ldrb	fp, [r0, #33]	@ zero_extendqisi2
 996              	.LVL119:
 545:Lib/lvgl/src/draw/sw/blend/lv_draw_sw_blend_to_rgb565.c ****     int32_t dest_stride = dsc->dest_stride;
 997              		.loc 1 545 5 is_stmt 1 view .LVU303
 545:Lib/lvgl/src/draw/sw/blend/lv_draw_sw_blend_to_rgb565.c ****     int32_t dest_stride = dsc->dest_stride;
 998              		.loc 1 545 16 is_stmt 0 view .LVU304
 999 0010 0468     		ldr	r4, [r0]
 1000              	.LVL120:
 546:Lib/lvgl/src/draw/sw/blend/lv_draw_sw_blend_to_rgb565.c ****     const uint8_t * src_buf_u8 = dsc->src_buf;
 1001              		.loc 1 546 5 is_stmt 1 view .LVU305
 546:Lib/lvgl/src/draw/sw/blend/lv_draw_sw_blend_to_rgb565.c ****     const uint8_t * src_buf_u8 = dsc->src_buf;
 1002              		.loc 1 546 13 is_stmt 0 view .LVU306
 1003 0012 C368     		ldr	r3, [r0, #12]
 1004 0014 0193     		str	r3, [sp, #4]
 1005              	.LVL121:
 547:Lib/lvgl/src/draw/sw/blend/lv_draw_sw_blend_to_rgb565.c ****     int32_t src_stride = dsc->src_stride;
 1006              		.loc 1 547 5 is_stmt 1 view .LVU307
 547:Lib/lvgl/src/draw/sw/blend/lv_draw_sw_blend_to_rgb565.c ****     int32_t src_stride = dsc->src_stride;
 1007              		.loc 1 547 21 is_stmt 0 view .LVU308
 1008 0016 8669     		ldr	r6, [r0, #24]
 1009              	.LVL122:
 548:Lib/lvgl/src/draw/sw/blend/lv_draw_sw_blend_to_rgb565.c ****     const lv_opa_t * mask_buf = dsc->mask_buf;
 1010              		.loc 1 548 5 is_stmt 1 view .LVU309
 548:Lib/lvgl/src/draw/sw/blend/lv_draw_sw_blend_to_rgb565.c ****     const lv_opa_t * mask_buf = dsc->mask_buf;
 1011              		.loc 1 548 13 is_stmt 0 view .LVU310
 1012 0018 C369     		ldr	r3, [r0, #28]
 1013              	.LVL123:
 548:Lib/lvgl/src/draw/sw/blend/lv_draw_sw_blend_to_rgb565.c ****     const lv_opa_t * mask_buf = dsc->mask_buf;
ARM GAS  C:\Users\Alex\AppData\Local\Temp\ccUzeV0Q.s 			page 41


 1014              		.loc 1 548 13 view .LVU311
 1015 001a 0293     		str	r3, [sp, #8]
 1016              	.LVL124:
 549:Lib/lvgl/src/draw/sw/blend/lv_draw_sw_blend_to_rgb565.c ****     int32_t mask_stride = dsc->mask_stride;
 1017              		.loc 1 549 5 is_stmt 1 view .LVU312
 549:Lib/lvgl/src/draw/sw/blend/lv_draw_sw_blend_to_rgb565.c ****     int32_t mask_stride = dsc->mask_stride;
 1018              		.loc 1 549 22 is_stmt 0 view .LVU313
 1019 001c D0F81090 		ldr	r9, [r0, #16]
 1020              	.LVL125:
 550:Lib/lvgl/src/draw/sw/blend/lv_draw_sw_blend_to_rgb565.c **** 
 1021              		.loc 1 550 5 is_stmt 1 view .LVU314
 550:Lib/lvgl/src/draw/sw/blend/lv_draw_sw_blend_to_rgb565.c **** 
 1022              		.loc 1 550 13 is_stmt 0 view .LVU315
 1023 0020 4169     		ldr	r1, [r0, #20]
 1024              	.LVL126:
 552:Lib/lvgl/src/draw/sw/blend/lv_draw_sw_blend_to_rgb565.c ****     int32_t src_x;
 1025              		.loc 1 552 5 is_stmt 1 view .LVU316
 553:Lib/lvgl/src/draw/sw/blend/lv_draw_sw_blend_to_rgb565.c ****     int32_t y;
 1026              		.loc 1 553 5 view .LVU317
 554:Lib/lvgl/src/draw/sw/blend/lv_draw_sw_blend_to_rgb565.c **** 
 1027              		.loc 1 554 5 view .LVU318
 556:Lib/lvgl/src/draw/sw/blend/lv_draw_sw_blend_to_rgb565.c ****         if(mask_buf == NULL && opa >= LV_OPA_MAX) {
 1028              		.loc 1 556 5 view .LVU319
 556:Lib/lvgl/src/draw/sw/blend/lv_draw_sw_blend_to_rgb565.c ****         if(mask_buf == NULL && opa >= LV_OPA_MAX) {
 1029              		.loc 1 556 11 is_stmt 0 view .LVU320
 1030 0022 90F82220 		ldrb	r2, [r0, #34]	@ zero_extendqisi2
 556:Lib/lvgl/src/draw/sw/blend/lv_draw_sw_blend_to_rgb565.c ****         if(mask_buf == NULL && opa >= LV_OPA_MAX) {
 1031              		.loc 1 556 7 view .LVU321
 1032 0026 002A     		cmp	r2, #0
 1033 0028 40F06A81 		bne	.L85
 557:Lib/lvgl/src/draw/sw/blend/lv_draw_sw_blend_to_rgb565.c ****             if(LV_RESULT_INVALID == LV_DRAW_SW_ARGB8888_BLEND_NORMAL_TO_RGB565(dsc)) {
 1034              		.loc 1 557 9 is_stmt 1 view .LVU322
 557:Lib/lvgl/src/draw/sw/blend/lv_draw_sw_blend_to_rgb565.c ****             if(LV_RESULT_INVALID == LV_DRAW_SW_ARGB8888_BLEND_NORMAL_TO_RGB565(dsc)) {
 1035              		.loc 1 557 11 is_stmt 0 view .LVU323
 1036 002c B9F1000F 		cmp	r9, #0
 1037 0030 11D0     		beq	.L96
 580:Lib/lvgl/src/draw/sw/blend/lv_draw_sw_blend_to_rgb565.c ****             if(LV_RESULT_INVALID == LV_DRAW_SW_ARGB8888_BLEND_NORMAL_TO_RGB565_WITH_MASK(dsc)) {
 1038              		.loc 1 580 14 is_stmt 1 view .LVU324
 580:Lib/lvgl/src/draw/sw/blend/lv_draw_sw_blend_to_rgb565.c ****             if(LV_RESULT_INVALID == LV_DRAW_SW_ARGB8888_BLEND_NORMAL_TO_RGB565_WITH_MASK(dsc)) {
 1039              		.loc 1 580 16 is_stmt 0 view .LVU325
 1040 0032 B9F1000F 		cmp	r9, #0
 1041 0036 00F0DC80 		beq	.L58
 580:Lib/lvgl/src/draw/sw/blend/lv_draw_sw_blend_to_rgb565.c ****             if(LV_RESULT_INVALID == LV_DRAW_SW_ARGB8888_BLEND_NORMAL_TO_RGB565_WITH_MASK(dsc)) {
 1042              		.loc 1 580 26 discriminator 1 view .LVU326
 1043 003a BBF1FC0F 		cmp	fp, #252
 1044 003e 6DD8     		bhi	.L89
 593:Lib/lvgl/src/draw/sw/blend/lv_draw_sw_blend_to_rgb565.c ****             if(LV_RESULT_INVALID == LV_DRAW_SW_ARGB8888_BLEND_NORMAL_TO_RGB565_MIX_MASK_OPA(dsc)) {
 1045              		.loc 1 593 14 is_stmt 1 view .LVU327
 593:Lib/lvgl/src/draw/sw/blend/lv_draw_sw_blend_to_rgb565.c ****             if(LV_RESULT_INVALID == LV_DRAW_SW_ARGB8888_BLEND_NORMAL_TO_RGB565_MIX_MASK_OPA(dsc)) {
 1046              		.loc 1 593 16 is_stmt 0 view .LVU328
 1047 0040 B9F1000F 		cmp	r9, #0
 1048 0044 00F0D580 		beq	.L58
 595:Lib/lvgl/src/draw/sw/blend/lv_draw_sw_blend_to_rgb565.c ****                     for(dest_x = 0, src_x = 0; dest_x < w; dest_x++, src_x += 4) {
 1049              		.loc 1 595 23 view .LVU329
 1050 0048 4FF0000C 		mov	ip, #0
 1051 004c CDF80CA0 		str	r10, [sp, #12]
 1052 0050 E246     		mov	r10, ip
ARM GAS  C:\Users\Alex\AppData\Local\Temp\ccUzeV0Q.s 			page 42


 1053              	.LVL127:
 595:Lib/lvgl/src/draw/sw/blend/lv_draw_sw_blend_to_rgb565.c ****                     for(dest_x = 0, src_x = 0; dest_x < w; dest_x++, src_x += 4) {
 1054              		.loc 1 595 23 view .LVU330
 1055 0052 0491     		str	r1, [sp, #16]
 1056 0054 83E0     		b	.L72
 1057              	.LVL128:
 1058              	.L96:
 557:Lib/lvgl/src/draw/sw/blend/lv_draw_sw_blend_to_rgb565.c ****             if(LV_RESULT_INVALID == LV_DRAW_SW_ARGB8888_BLEND_NORMAL_TO_RGB565(dsc)) {
 1059              		.loc 1 557 29 discriminator 1 view .LVU331
 1060 0056 BBF1FC0F 		cmp	fp, #252
 1061 005a 37D9     		bls	.L62
 559:Lib/lvgl/src/draw/sw/blend/lv_draw_sw_blend_to_rgb565.c ****                     for(dest_x = 0, src_x = 0; dest_x < w; dest_x++, src_x += 4) {
 1062              		.loc 1 559 23 view .LVU332
 1063 005c 4FF00009 		mov	r9, #0
 1064              	.LVL129:
 559:Lib/lvgl/src/draw/sw/blend/lv_draw_sw_blend_to_rgb565.c ****                     for(dest_x = 0, src_x = 0; dest_x < w; dest_x++, src_x += 4) {
 1065              		.loc 1 559 23 view .LVU333
 1066 0060 DDF808B0 		ldr	fp, [sp, #8]
 1067              	.LVL130:
 559:Lib/lvgl/src/draw/sw/blend/lv_draw_sw_blend_to_rgb565.c ****                     for(dest_x = 0, src_x = 0; dest_x < w; dest_x++, src_x += 4) {
 1068              		.loc 1 559 23 view .LVU334
 1069 0064 14E0     		b	.L61
 1070              	.LVL131:
 1071              	.L63:
 561:Lib/lvgl/src/draw/sw/blend/lv_draw_sw_blend_to_rgb565.c ****                     }
 1072              		.loc 1 561 25 is_stmt 1 discriminator 3 view .LVU335
 561:Lib/lvgl/src/draw/sw/blend/lv_draw_sw_blend_to_rgb565.c ****                     }
 1073              		.loc 1 561 119 is_stmt 0 discriminator 3 view .LVU336
 1074 0066 08F10303 		add	r3, r8, #3
 561:Lib/lvgl/src/draw/sw/blend/lv_draw_sw_blend_to_rgb565.c ****                     }
 1075              		.loc 1 561 48 discriminator 3 view .LVU337
 1076 006a F25C     		ldrb	r2, [r6, r3]	@ zero_extendqisi2
 1077 006c 34F81510 		ldrh	r1, [r4, r5, lsl #1]
 1078 0070 06EB0800 		add	r0, r6, r8
 1079 0074 FFF7FEFF 		bl	lv_color_24_16_mix
 1080              	.LVL132:
 561:Lib/lvgl/src/draw/sw/blend/lv_draw_sw_blend_to_rgb565.c ****                     }
 1081              		.loc 1 561 46 discriminator 3 view .LVU338
 1082 0078 24F81500 		strh	r0, [r4, r5, lsl #1]	@ movhi
 560:Lib/lvgl/src/draw/sw/blend/lv_draw_sw_blend_to_rgb565.c ****                         dest_buf_u16[dest_x] = lv_color_24_16_mix(&src_buf_u8[src_x], dest_buf_u16[
 1083              		.loc 1 560 68 is_stmt 1 discriminator 3 view .LVU339
 560:Lib/lvgl/src/draw/sw/blend/lv_draw_sw_blend_to_rgb565.c ****                         dest_buf_u16[dest_x] = lv_color_24_16_mix(&src_buf_u8[src_x], dest_buf_u16[
 1084              		.loc 1 560 66 is_stmt 0 discriminator 3 view .LVU340
 1085 007c 0135     		adds	r5, r5, #1
 1086              	.LVL133:
 560:Lib/lvgl/src/draw/sw/blend/lv_draw_sw_blend_to_rgb565.c ****                         dest_buf_u16[dest_x] = lv_color_24_16_mix(&src_buf_u8[src_x], dest_buf_u16[
 1087              		.loc 1 560 76 discriminator 3 view .LVU341
 1088 007e 08F10408 		add	r8, r8, #4
 1089              	.LVL134:
 1090              	.L64:
 560:Lib/lvgl/src/draw/sw/blend/lv_draw_sw_blend_to_rgb565.c ****                         dest_buf_u16[dest_x] = lv_color_24_16_mix(&src_buf_u8[src_x], dest_buf_u16[
 1091              		.loc 1 560 55 is_stmt 1 discriminator 1 view .LVU342
 1092 0082 BD42     		cmp	r5, r7
 1093 0084 EFDB     		blt	.L63
 563:Lib/lvgl/src/draw/sw/blend/lv_draw_sw_blend_to_rgb565.c ****                     src_buf_u8 += src_stride;
 1094              		.loc 1 563 21 discriminator 2 view .LVU343
 1095              	.LVL135:
ARM GAS  C:\Users\Alex\AppData\Local\Temp\ccUzeV0Q.s 			page 43


 1096              	.LBB84:
 1097              	.LBI84:
 670:Lib/lvgl/src/draw/sw/blend/lv_draw_sw_blend_to_rgb565.c **** {
 1098              		.loc 1 670 44 discriminator 2 view .LVU344
 1099              	.LBB85:
 1100              		.loc 1 672 5 discriminator 2 view .LVU345
 1101              		.loc 1 672 12 is_stmt 0 discriminator 2 view .LVU346
 1102 0086 019B     		ldr	r3, [sp, #4]
 1103 0088 1C44     		add	r4, r4, r3
 1104              	.LVL136:
 1105              		.loc 1 672 12 discriminator 2 view .LVU347
 1106              	.LBE85:
 1107              	.LBE84:
 564:Lib/lvgl/src/draw/sw/blend/lv_draw_sw_blend_to_rgb565.c ****                 }
 1108              		.loc 1 564 21 is_stmt 1 discriminator 2 view .LVU348
 564:Lib/lvgl/src/draw/sw/blend/lv_draw_sw_blend_to_rgb565.c ****                 }
 1109              		.loc 1 564 32 is_stmt 0 discriminator 2 view .LVU349
 1110 008a 5E44     		add	r6, r6, fp
 1111              	.LVL137:
 559:Lib/lvgl/src/draw/sw/blend/lv_draw_sw_blend_to_rgb565.c ****                     for(dest_x = 0, src_x = 0; dest_x < w; dest_x++, src_x += 4) {
 1112              		.loc 1 559 36 is_stmt 1 discriminator 2 view .LVU350
 1113 008c 09F10109 		add	r9, r9, #1
 1114              	.LVL138:
 1115              	.L61:
 559:Lib/lvgl/src/draw/sw/blend/lv_draw_sw_blend_to_rgb565.c ****                     for(dest_x = 0, src_x = 0; dest_x < w; dest_x++, src_x += 4) {
 1116              		.loc 1 559 30 discriminator 1 view .LVU351
 1117 0090 D145     		cmp	r9, r10
 1118 0092 80F2AE80 		bge	.L58
 560:Lib/lvgl/src/draw/sw/blend/lv_draw_sw_blend_to_rgb565.c ****                         dest_buf_u16[dest_x] = lv_color_24_16_mix(&src_buf_u8[src_x], dest_buf_u16[
 1119              		.loc 1 560 43 is_stmt 0 view .LVU352
 1120 0096 4FF00008 		mov	r8, #0
 560:Lib/lvgl/src/draw/sw/blend/lv_draw_sw_blend_to_rgb565.c ****                         dest_buf_u16[dest_x] = lv_color_24_16_mix(&src_buf_u8[src_x], dest_buf_u16[
 1121              		.loc 1 560 32 view .LVU353
 1122 009a 4546     		mov	r5, r8
 1123 009c F1E7     		b	.L64
 1124              	.LVL139:
 1125              	.L66:
 572:Lib/lvgl/src/draw/sw/blend/lv_draw_sw_blend_to_rgb565.c ****                                                                                                    
 1126              		.loc 1 572 25 is_stmt 1 discriminator 3 view .LVU354
 572:Lib/lvgl/src/draw/sw/blend/lv_draw_sw_blend_to_rgb565.c ****                                                                                                    
 1127              		.loc 1 572 109 is_stmt 0 discriminator 3 view .LVU355
 1128 009e 06EB0800 		add	r0, r6, r8
 1129 00a2 C278     		ldrb	r2, [r0, #3]	@ zero_extendqisi2
 1130 00a4 02FB0BF2 		mul	r2, r2, fp
 572:Lib/lvgl/src/draw/sw/blend/lv_draw_sw_blend_to_rgb565.c ****                                                                                                    
 1131              		.loc 1 572 48 discriminator 3 view .LVU356
 1132 00a8 120A     		lsrs	r2, r2, #8
 1133 00aa 34F81510 		ldrh	r1, [r4, r5, lsl #1]
 1134 00ae FFF7FEFF 		bl	lv_color_24_16_mix
 1135              	.LVL140:
 572:Lib/lvgl/src/draw/sw/blend/lv_draw_sw_blend_to_rgb565.c ****                                                                                                    
 1136              		.loc 1 572 46 discriminator 3 view .LVU357
 1137 00b2 24F81500 		strh	r0, [r4, r5, lsl #1]	@ movhi
 571:Lib/lvgl/src/draw/sw/blend/lv_draw_sw_blend_to_rgb565.c ****                         dest_buf_u16[dest_x] = lv_color_24_16_mix(&src_buf_u8[src_x], dest_buf_u16[
 1138              		.loc 1 571 68 is_stmt 1 discriminator 3 view .LVU358
 571:Lib/lvgl/src/draw/sw/blend/lv_draw_sw_blend_to_rgb565.c ****                         dest_buf_u16[dest_x] = lv_color_24_16_mix(&src_buf_u8[src_x], dest_buf_u16[
 1139              		.loc 1 571 66 is_stmt 0 discriminator 3 view .LVU359
ARM GAS  C:\Users\Alex\AppData\Local\Temp\ccUzeV0Q.s 			page 44


 1140 00b6 0135     		adds	r5, r5, #1
 1141              	.LVL141:
 571:Lib/lvgl/src/draw/sw/blend/lv_draw_sw_blend_to_rgb565.c ****                         dest_buf_u16[dest_x] = lv_color_24_16_mix(&src_buf_u8[src_x], dest_buf_u16[
 1142              		.loc 1 571 76 discriminator 3 view .LVU360
 1143 00b8 08F10408 		add	r8, r8, #4
 1144              	.LVL142:
 1145              	.L67:
 571:Lib/lvgl/src/draw/sw/blend/lv_draw_sw_blend_to_rgb565.c ****                         dest_buf_u16[dest_x] = lv_color_24_16_mix(&src_buf_u8[src_x], dest_buf_u16[
 1146              		.loc 1 571 55 is_stmt 1 discriminator 1 view .LVU361
 1147 00bc BD42     		cmp	r5, r7
 1148 00be EEDB     		blt	.L66
 575:Lib/lvgl/src/draw/sw/blend/lv_draw_sw_blend_to_rgb565.c ****                     src_buf_u8 += src_stride;
 1149              		.loc 1 575 21 discriminator 2 view .LVU362
 1150              	.LVL143:
 1151              	.LBB86:
 1152              	.LBI86:
 670:Lib/lvgl/src/draw/sw/blend/lv_draw_sw_blend_to_rgb565.c **** {
 1153              		.loc 1 670 44 discriminator 2 view .LVU363
 1154              	.LBB87:
 1155              		.loc 1 672 5 discriminator 2 view .LVU364
 1156              		.loc 1 672 12 is_stmt 0 discriminator 2 view .LVU365
 1157 00c0 019B     		ldr	r3, [sp, #4]
 1158 00c2 1C44     		add	r4, r4, r3
 1159              	.LVL144:
 1160              		.loc 1 672 12 discriminator 2 view .LVU366
 1161              	.LBE87:
 1162              	.LBE86:
 576:Lib/lvgl/src/draw/sw/blend/lv_draw_sw_blend_to_rgb565.c ****                 }
 1163              		.loc 1 576 21 is_stmt 1 discriminator 2 view .LVU367
 576:Lib/lvgl/src/draw/sw/blend/lv_draw_sw_blend_to_rgb565.c ****                 }
 1164              		.loc 1 576 32 is_stmt 0 discriminator 2 view .LVU368
 1165 00c4 029B     		ldr	r3, [sp, #8]
 1166 00c6 1E44     		add	r6, r6, r3
 1167              	.LVL145:
 570:Lib/lvgl/src/draw/sw/blend/lv_draw_sw_blend_to_rgb565.c ****                     for(dest_x = 0, src_x = 0; dest_x < w; dest_x++, src_x += 4) {
 1168              		.loc 1 570 36 is_stmt 1 discriminator 2 view .LVU369
 1169 00c8 09F10109 		add	r9, r9, #1
 1170              	.LVL146:
 1171              	.L62:
 570:Lib/lvgl/src/draw/sw/blend/lv_draw_sw_blend_to_rgb565.c ****                     for(dest_x = 0, src_x = 0; dest_x < w; dest_x++, src_x += 4) {
 1172              		.loc 1 570 30 discriminator 1 view .LVU370
 1173 00cc D145     		cmp	r9, r10
 1174 00ce 80F29080 		bge	.L58
 571:Lib/lvgl/src/draw/sw/blend/lv_draw_sw_blend_to_rgb565.c ****                         dest_buf_u16[dest_x] = lv_color_24_16_mix(&src_buf_u8[src_x], dest_buf_u16[
 1175              		.loc 1 571 43 is_stmt 0 view .LVU371
 1176 00d2 4FF00008 		mov	r8, #0
 571:Lib/lvgl/src/draw/sw/blend/lv_draw_sw_blend_to_rgb565.c ****                         dest_buf_u16[dest_x] = lv_color_24_16_mix(&src_buf_u8[src_x], dest_buf_u16[
 1177              		.loc 1 571 32 view .LVU372
 1178 00d6 4546     		mov	r5, r8
 1179 00d8 F0E7     		b	.L67
 1180              	.LVL147:
 1181              	.L70:
 584:Lib/lvgl/src/draw/sw/blend/lv_draw_sw_blend_to_rgb565.c ****                                                                   LV_OPA_MIX2(src_buf_u8[src_x + 3]
 1182              		.loc 1 584 25 is_stmt 1 discriminator 3 view .LVU373
 585:Lib/lvgl/src/draw/sw/blend/lv_draw_sw_blend_to_rgb565.c ****                     }
 1183              		.loc 1 585 67 is_stmt 0 discriminator 3 view .LVU374
 1184 00da 06EB0800 		add	r0, r6, r8
ARM GAS  C:\Users\Alex\AppData\Local\Temp\ccUzeV0Q.s 			page 45


 1185 00de C278     		ldrb	r2, [r0, #3]	@ zero_extendqisi2
 1186 00e0 19F80530 		ldrb	r3, [r9, r5]	@ zero_extendqisi2
 1187 00e4 03FB02F2 		mul	r2, r3, r2
 584:Lib/lvgl/src/draw/sw/blend/lv_draw_sw_blend_to_rgb565.c ****                                                                   LV_OPA_MIX2(src_buf_u8[src_x + 3]
 1188              		.loc 1 584 48 discriminator 3 view .LVU375
 1189 00e8 120A     		lsrs	r2, r2, #8
 1190 00ea 34F81510 		ldrh	r1, [r4, r5, lsl #1]
 1191 00ee FFF7FEFF 		bl	lv_color_24_16_mix
 1192              	.LVL148:
 584:Lib/lvgl/src/draw/sw/blend/lv_draw_sw_blend_to_rgb565.c ****                                                                   LV_OPA_MIX2(src_buf_u8[src_x + 3]
 1193              		.loc 1 584 46 discriminator 3 view .LVU376
 1194 00f2 24F81500 		strh	r0, [r4, r5, lsl #1]	@ movhi
 583:Lib/lvgl/src/draw/sw/blend/lv_draw_sw_blend_to_rgb565.c ****                         dest_buf_u16[dest_x] = lv_color_24_16_mix(&src_buf_u8[src_x], dest_buf_u16[
 1195              		.loc 1 583 68 is_stmt 1 discriminator 3 view .LVU377
 583:Lib/lvgl/src/draw/sw/blend/lv_draw_sw_blend_to_rgb565.c ****                         dest_buf_u16[dest_x] = lv_color_24_16_mix(&src_buf_u8[src_x], dest_buf_u16[
 1196              		.loc 1 583 66 is_stmt 0 discriminator 3 view .LVU378
 1197 00f6 0135     		adds	r5, r5, #1
 1198              	.LVL149:
 583:Lib/lvgl/src/draw/sw/blend/lv_draw_sw_blend_to_rgb565.c ****                         dest_buf_u16[dest_x] = lv_color_24_16_mix(&src_buf_u8[src_x], dest_buf_u16[
 1199              		.loc 1 583 76 discriminator 3 view .LVU379
 1200 00f8 08F10408 		add	r8, r8, #4
 1201              	.LVL150:
 1202              	.L71:
 583:Lib/lvgl/src/draw/sw/blend/lv_draw_sw_blend_to_rgb565.c ****                         dest_buf_u16[dest_x] = lv_color_24_16_mix(&src_buf_u8[src_x], dest_buf_u16[
 1203              		.loc 1 583 55 is_stmt 1 discriminator 1 view .LVU380
 1204 00fc BD42     		cmp	r5, r7
 1205 00fe ECDB     		blt	.L70
 587:Lib/lvgl/src/draw/sw/blend/lv_draw_sw_blend_to_rgb565.c ****                     src_buf_u8 += src_stride;
 1206              		.loc 1 587 21 discriminator 2 view .LVU381
 1207              	.LVL151:
 1208              	.LBB88:
 1209              	.LBI88:
 670:Lib/lvgl/src/draw/sw/blend/lv_draw_sw_blend_to_rgb565.c **** {
 1210              		.loc 1 670 44 discriminator 2 view .LVU382
 1211              	.LBB89:
 1212              		.loc 1 672 5 discriminator 2 view .LVU383
 1213              		.loc 1 672 12 is_stmt 0 discriminator 2 view .LVU384
 1214 0100 019B     		ldr	r3, [sp, #4]
 1215 0102 1C44     		add	r4, r4, r3
 1216              	.LVL152:
 1217              		.loc 1 672 12 discriminator 2 view .LVU385
 1218              	.LBE89:
 1219              	.LBE88:
 588:Lib/lvgl/src/draw/sw/blend/lv_draw_sw_blend_to_rgb565.c ****                     mask_buf += mask_stride;
 1220              		.loc 1 588 21 is_stmt 1 discriminator 2 view .LVU386
 588:Lib/lvgl/src/draw/sw/blend/lv_draw_sw_blend_to_rgb565.c ****                     mask_buf += mask_stride;
 1221              		.loc 1 588 32 is_stmt 0 discriminator 2 view .LVU387
 1222 0104 029B     		ldr	r3, [sp, #8]
 1223 0106 1E44     		add	r6, r6, r3
 1224              	.LVL153:
 589:Lib/lvgl/src/draw/sw/blend/lv_draw_sw_blend_to_rgb565.c ****                 }
 1225              		.loc 1 589 21 is_stmt 1 discriminator 2 view .LVU388
 589:Lib/lvgl/src/draw/sw/blend/lv_draw_sw_blend_to_rgb565.c ****                 }
 1226              		.loc 1 589 30 is_stmt 0 discriminator 2 view .LVU389
 1227 0108 039B     		ldr	r3, [sp, #12]
 1228 010a 9944     		add	r9, r9, r3
 1229              	.LVL154:
ARM GAS  C:\Users\Alex\AppData\Local\Temp\ccUzeV0Q.s 			page 46


 582:Lib/lvgl/src/draw/sw/blend/lv_draw_sw_blend_to_rgb565.c ****                     for(dest_x = 0, src_x = 0; dest_x < w; dest_x++, src_x += 4) {
 1230              		.loc 1 582 36 is_stmt 1 discriminator 2 view .LVU390
 1231 010c 0BF1010B 		add	fp, fp, #1
 1232              	.LVL155:
 1233              	.L68:
 582:Lib/lvgl/src/draw/sw/blend/lv_draw_sw_blend_to_rgb565.c ****                     for(dest_x = 0, src_x = 0; dest_x < w; dest_x++, src_x += 4) {
 1234              		.loc 1 582 30 discriminator 1 view .LVU391
 1235 0110 D345     		cmp	fp, r10
 1236 0112 6EDA     		bge	.L58
 583:Lib/lvgl/src/draw/sw/blend/lv_draw_sw_blend_to_rgb565.c ****                         dest_buf_u16[dest_x] = lv_color_24_16_mix(&src_buf_u8[src_x], dest_buf_u16[
 1237              		.loc 1 583 43 is_stmt 0 view .LVU392
 1238 0114 4FF00008 		mov	r8, #0
 583:Lib/lvgl/src/draw/sw/blend/lv_draw_sw_blend_to_rgb565.c ****                         dest_buf_u16[dest_x] = lv_color_24_16_mix(&src_buf_u8[src_x], dest_buf_u16[
 1239              		.loc 1 583 32 view .LVU393
 1240 0118 4546     		mov	r5, r8
 1241 011a EFE7     		b	.L71
 1242              	.LVL156:
 1243              	.L89:
 582:Lib/lvgl/src/draw/sw/blend/lv_draw_sw_blend_to_rgb565.c ****                     for(dest_x = 0, src_x = 0; dest_x < w; dest_x++, src_x += 4) {
 1244              		.loc 1 582 23 view .LVU394
 1245 011c 4FF0000B 		mov	fp, #0
 1246              	.LVL157:
 582:Lib/lvgl/src/draw/sw/blend/lv_draw_sw_blend_to_rgb565.c ****                     for(dest_x = 0, src_x = 0; dest_x < w; dest_x++, src_x += 4) {
 1247              		.loc 1 582 23 view .LVU395
 1248 0120 0391     		str	r1, [sp, #12]
 1249 0122 F5E7     		b	.L68
 1250              	.LVL158:
 1251              	.L73:
 597:Lib/lvgl/src/draw/sw/blend/lv_draw_sw_blend_to_rgb565.c ****                                                                   LV_OPA_MIX3(src_buf_u8[src_x + 3]
 1252              		.loc 1 597 25 is_stmt 1 discriminator 3 view .LVU396
 598:Lib/lvgl/src/draw/sw/blend/lv_draw_sw_blend_to_rgb565.c ****                     }
 1253              		.loc 1 598 67 is_stmt 0 discriminator 3 view .LVU397
 1254 0124 06EB0800 		add	r0, r6, r8
 1255 0128 C278     		ldrb	r2, [r0, #3]	@ zero_extendqisi2
 1256 012a 19F80530 		ldrb	r3, [r9, r5]	@ zero_extendqisi2
 1257 012e 03FB02F2 		mul	r2, r3, r2
 1258 0132 02FB0BF2 		mul	r2, r2, fp
 597:Lib/lvgl/src/draw/sw/blend/lv_draw_sw_blend_to_rgb565.c ****                                                                   LV_OPA_MIX3(src_buf_u8[src_x + 3]
 1259              		.loc 1 597 48 discriminator 3 view .LVU398
 1260 0136 120C     		lsrs	r2, r2, #16
 1261 0138 34F81510 		ldrh	r1, [r4, r5, lsl #1]
 1262 013c FFF7FEFF 		bl	lv_color_24_16_mix
 1263              	.LVL159:
 597:Lib/lvgl/src/draw/sw/blend/lv_draw_sw_blend_to_rgb565.c ****                                                                   LV_OPA_MIX3(src_buf_u8[src_x + 3]
 1264              		.loc 1 597 46 discriminator 3 view .LVU399
 1265 0140 24F81500 		strh	r0, [r4, r5, lsl #1]	@ movhi
 596:Lib/lvgl/src/draw/sw/blend/lv_draw_sw_blend_to_rgb565.c ****                         dest_buf_u16[dest_x] = lv_color_24_16_mix(&src_buf_u8[src_x], dest_buf_u16[
 1266              		.loc 1 596 68 is_stmt 1 discriminator 3 view .LVU400
 596:Lib/lvgl/src/draw/sw/blend/lv_draw_sw_blend_to_rgb565.c ****                         dest_buf_u16[dest_x] = lv_color_24_16_mix(&src_buf_u8[src_x], dest_buf_u16[
 1267              		.loc 1 596 66 is_stmt 0 discriminator 3 view .LVU401
 1268 0144 0135     		adds	r5, r5, #1
 1269              	.LVL160:
 596:Lib/lvgl/src/draw/sw/blend/lv_draw_sw_blend_to_rgb565.c ****                         dest_buf_u16[dest_x] = lv_color_24_16_mix(&src_buf_u8[src_x], dest_buf_u16[
 1270              		.loc 1 596 76 discriminator 3 view .LVU402
 1271 0146 08F10408 		add	r8, r8, #4
 1272              	.LVL161:
 1273              	.L74:
ARM GAS  C:\Users\Alex\AppData\Local\Temp\ccUzeV0Q.s 			page 47


 596:Lib/lvgl/src/draw/sw/blend/lv_draw_sw_blend_to_rgb565.c ****                         dest_buf_u16[dest_x] = lv_color_24_16_mix(&src_buf_u8[src_x], dest_buf_u16[
 1274              		.loc 1 596 55 is_stmt 1 discriminator 1 view .LVU403
 1275 014a BD42     		cmp	r5, r7
 1276 014c EADB     		blt	.L73
 600:Lib/lvgl/src/draw/sw/blend/lv_draw_sw_blend_to_rgb565.c ****                     src_buf_u8 += src_stride;
 1277              		.loc 1 600 21 discriminator 2 view .LVU404
 1278              	.LVL162:
 1279              	.LBB90:
 1280              	.LBI90:
 670:Lib/lvgl/src/draw/sw/blend/lv_draw_sw_blend_to_rgb565.c **** {
 1281              		.loc 1 670 44 discriminator 2 view .LVU405
 1282              	.LBB91:
 1283              		.loc 1 672 5 discriminator 2 view .LVU406
 1284              		.loc 1 672 12 is_stmt 0 discriminator 2 view .LVU407
 1285 014e 019B     		ldr	r3, [sp, #4]
 1286 0150 1C44     		add	r4, r4, r3
 1287              	.LVL163:
 1288              		.loc 1 672 12 discriminator 2 view .LVU408
 1289              	.LBE91:
 1290              	.LBE90:
 601:Lib/lvgl/src/draw/sw/blend/lv_draw_sw_blend_to_rgb565.c ****                     mask_buf += mask_stride;
 1291              		.loc 1 601 21 is_stmt 1 discriminator 2 view .LVU409
 601:Lib/lvgl/src/draw/sw/blend/lv_draw_sw_blend_to_rgb565.c ****                     mask_buf += mask_stride;
 1292              		.loc 1 601 32 is_stmt 0 discriminator 2 view .LVU410
 1293 0152 029B     		ldr	r3, [sp, #8]
 1294 0154 1E44     		add	r6, r6, r3
 1295              	.LVL164:
 602:Lib/lvgl/src/draw/sw/blend/lv_draw_sw_blend_to_rgb565.c ****                 }
 1296              		.loc 1 602 21 is_stmt 1 discriminator 2 view .LVU411
 602:Lib/lvgl/src/draw/sw/blend/lv_draw_sw_blend_to_rgb565.c ****                 }
 1297              		.loc 1 602 30 is_stmt 0 discriminator 2 view .LVU412
 1298 0156 049B     		ldr	r3, [sp, #16]
 1299 0158 9944     		add	r9, r9, r3
 1300              	.LVL165:
 595:Lib/lvgl/src/draw/sw/blend/lv_draw_sw_blend_to_rgb565.c ****                     for(dest_x = 0, src_x = 0; dest_x < w; dest_x++, src_x += 4) {
 1301              		.loc 1 595 36 is_stmt 1 discriminator 2 view .LVU413
 1302 015a 0AF1010A 		add	r10, r10, #1
 1303              	.LVL166:
 1304              	.L72:
 595:Lib/lvgl/src/draw/sw/blend/lv_draw_sw_blend_to_rgb565.c ****                     for(dest_x = 0, src_x = 0; dest_x < w; dest_x++, src_x += 4) {
 1305              		.loc 1 595 30 discriminator 1 view .LVU414
 1306 015e 039B     		ldr	r3, [sp, #12]
 1307 0160 9A45     		cmp	r10, r3
 1308 0162 46DA     		bge	.L58
 596:Lib/lvgl/src/draw/sw/blend/lv_draw_sw_blend_to_rgb565.c ****                         dest_buf_u16[dest_x] = lv_color_24_16_mix(&src_buf_u8[src_x], dest_buf_u16[
 1309              		.loc 1 596 43 is_stmt 0 view .LVU415
 1310 0164 4FF00008 		mov	r8, #0
 596:Lib/lvgl/src/draw/sw/blend/lv_draw_sw_blend_to_rgb565.c ****                         dest_buf_u16[dest_x] = lv_color_24_16_mix(&src_buf_u8[src_x], dest_buf_u16[
 1311              		.loc 1 596 32 view .LVU416
 1312 0168 4546     		mov	r5, r8
 1313 016a EEE7     		b	.L74
 1314              	.LVL167:
 1315              	.L99:
 1316              	.LBB92:
 1317              	.LBB93:
 614:Lib/lvgl/src/draw/sw/blend/lv_draw_sw_blend_to_rgb565.c ****                         res += (LV_MIN(dest_buf_c16[dest_x].green + (src_buf_u8[src_x + 1] >> 2), 6
 1318              		.loc 1 614 25 is_stmt 1 view .LVU417
ARM GAS  C:\Users\Alex\AppData\Local\Temp\ccUzeV0Q.s 			page 48


 614:Lib/lvgl/src/draw/sw/blend/lv_draw_sw_blend_to_rgb565.c ****                         res += (LV_MIN(dest_buf_c16[dest_x].green + (src_buf_u8[src_x + 1] >> 2), 6
 1319              		.loc 1 614 32 is_stmt 0 view .LVU418
 1320 016c 04EB4503 		add	r3, r4, r5, lsl #1
 1321 0170 5978     		ldrb	r1, [r3, #1]	@ zero_extendqisi2
 1322 0172 06EB0802 		add	r2, r6, r8
 1323 0176 9378     		ldrb	r3, [r2, #2]	@ zero_extendqisi2
 1324 0178 DB08     		lsrs	r3, r3, #3
 1325 017a 03EBD103 		add	r3, r3, r1, lsr #3
 614:Lib/lvgl/src/draw/sw/blend/lv_draw_sw_blend_to_rgb565.c ****                         res += (LV_MIN(dest_buf_c16[dest_x].green + (src_buf_u8[src_x + 1] >> 2), 6
 1326              		.loc 1 614 101 view .LVU419
 1327 017e 1F2B     		cmp	r3, #31
 1328 0180 A8BF     		it	ge
 1329 0182 1F23     		movge	r3, #31
 614:Lib/lvgl/src/draw/sw/blend/lv_draw_sw_blend_to_rgb565.c ****                         res += (LV_MIN(dest_buf_c16[dest_x].green + (src_buf_u8[src_x + 1] >> 2), 6
 1330              		.loc 1 614 29 view .LVU420
 1331 0184 DB02     		lsls	r3, r3, #11
 1332 0186 9BB2     		uxth	r3, r3
 1333              	.LVL168:
 615:Lib/lvgl/src/draw/sw/blend/lv_draw_sw_blend_to_rgb565.c ****                         res += LV_MIN(dest_buf_c16[dest_x].blue + (src_buf_u8[src_x + 0] >> 3), 31)
 1334              		.loc 1 615 25 is_stmt 1 view .LVU421
 615:Lib/lvgl/src/draw/sw/blend/lv_draw_sw_blend_to_rgb565.c ****                         res += LV_MIN(dest_buf_c16[dest_x].blue + (src_buf_u8[src_x + 0] >> 3), 31)
 1335              		.loc 1 615 33 is_stmt 0 view .LVU422
 1336 0188 34F81500 		ldrh	r0, [r4, r5, lsl #1]
 1337 018c C0F34510 		ubfx	r0, r0, #5, #6
 1338 0190 5278     		ldrb	r2, [r2, #1]	@ zero_extendqisi2
 1339 0192 00EB9200 		add	r0, r0, r2, lsr #2
 1340 0196 3F28     		cmp	r0, #63
 1341 0198 A8BF     		it	ge
 1342 019a 3F20     		movge	r0, #63
 615:Lib/lvgl/src/draw/sw/blend/lv_draw_sw_blend_to_rgb565.c ****                         res += LV_MIN(dest_buf_c16[dest_x].blue + (src_buf_u8[src_x + 0] >> 3), 31)
 1343              		.loc 1 615 104 view .LVU423
 1344 019c 4001     		lsls	r0, r0, #5
 1345 019e 80B2     		uxth	r0, r0
 615:Lib/lvgl/src/draw/sw/blend/lv_draw_sw_blend_to_rgb565.c ****                         res += LV_MIN(dest_buf_c16[dest_x].blue + (src_buf_u8[src_x + 0] >> 3), 31)
 1346              		.loc 1 615 29 view .LVU424
 1347 01a0 1844     		add	r0, r0, r3
 1348 01a2 80B2     		uxth	r0, r0
 1349              	.LVL169:
 616:Lib/lvgl/src/draw/sw/blend/lv_draw_sw_blend_to_rgb565.c ****                         break;
 1350              		.loc 1 616 25 is_stmt 1 view .LVU425
 616:Lib/lvgl/src/draw/sw/blend/lv_draw_sw_blend_to_rgb565.c ****                         break;
 1351              		.loc 1 616 32 is_stmt 0 view .LVU426
 1352 01a4 14F81530 		ldrb	r3, [r4, r5, lsl #1]	@ zero_extendqisi2
 1353 01a8 03F01F03 		and	r3, r3, #31
 1354 01ac 16F80820 		ldrb	r2, [r6, r8]	@ zero_extendqisi2
 1355 01b0 03EBD203 		add	r3, r3, r2, lsr #3
 616:Lib/lvgl/src/draw/sw/blend/lv_draw_sw_blend_to_rgb565.c ****                         break;
 1356              		.loc 1 616 29 view .LVU427
 1357 01b4 1F2B     		cmp	r3, #31
 1358 01b6 D4BF     		ite	le
 1359 01b8 C018     		addle	r0, r0, r3
 1360 01ba 1F30     		addgt	r0, r0, #31
 1361              	.LVL170:
 616:Lib/lvgl/src/draw/sw/blend/lv_draw_sw_blend_to_rgb565.c ****                         break;
 1362              		.loc 1 616 29 view .LVU428
 1363 01bc 80B2     		uxth	r0, r0
 1364              	.LVL171:
ARM GAS  C:\Users\Alex\AppData\Local\Temp\ccUzeV0Q.s 			page 49


 617:Lib/lvgl/src/draw/sw/blend/lv_draw_sw_blend_to_rgb565.c ****                     case LV_BLEND_MODE_SUBTRACTIVE:
 1365              		.loc 1 617 25 is_stmt 1 view .LVU429
 1366              	.L77:
 633:Lib/lvgl/src/draw/sw/blend/lv_draw_sw_blend_to_rgb565.c ****                     dest_buf_u16[dest_x] = lv_color_16_16_mix(res, dest_buf_u16[dest_x], src_buf_u8
 1367              		.loc 1 633 17 view .LVU430
 633:Lib/lvgl/src/draw/sw/blend/lv_draw_sw_blend_to_rgb565.c ****                     dest_buf_u16[dest_x] = lv_color_16_16_mix(res, dest_buf_u16[dest_x], src_buf_u8
 1368              		.loc 1 633 19 is_stmt 0 view .LVU431
 1369 01be 002F     		cmp	r7, #0
 1370 01c0 68D0     		beq	.L97
 640:Lib/lvgl/src/draw/sw/blend/lv_draw_sw_blend_to_rgb565.c ****                     else dest_buf_u16[dest_x] = lv_color_16_16_mix(res, dest_buf_u16[dest_x], LV_OP
 1371              		.loc 1 640 21 is_stmt 1 view .LVU432
 640:Lib/lvgl/src/draw/sw/blend/lv_draw_sw_blend_to_rgb565.c ****                     else dest_buf_u16[dest_x] = lv_color_16_16_mix(res, dest_buf_u16[dest_x], LV_OP
 1372              		.loc 1 640 23 is_stmt 0 view .LVU433
 1373 01c2 BBF1FC0F 		cmp	fp, #252
 1374 01c6 7FD9     		bls	.L81
 640:Lib/lvgl/src/draw/sw/blend/lv_draw_sw_blend_to_rgb565.c ****                     else dest_buf_u16[dest_x] = lv_color_16_16_mix(res, dest_buf_u16[dest_x], LV_OP
 1375              		.loc 1 640 43 is_stmt 1 discriminator 1 view .LVU434
 640:Lib/lvgl/src/draw/sw/blend/lv_draw_sw_blend_to_rgb565.c ****                     else dest_buf_u16[dest_x] = lv_color_16_16_mix(res, dest_buf_u16[dest_x], LV_OP
 1376              		.loc 1 640 66 is_stmt 0 discriminator 1 view .LVU435
 1377 01c8 7A5D     		ldrb	r2, [r7, r5]	@ zero_extendqisi2
 1378 01ca 34F81510 		ldrh	r1, [r4, r5, lsl #1]
 1379 01ce FFF7FEFF 		bl	lv_color_16_16_mix
 1380              	.LVL172:
 640:Lib/lvgl/src/draw/sw/blend/lv_draw_sw_blend_to_rgb565.c ****                     else dest_buf_u16[dest_x] = lv_color_16_16_mix(res, dest_buf_u16[dest_x], LV_OP
 1381              		.loc 1 640 64 discriminator 1 view .LVU436
 1382 01d2 24F81500 		strh	r0, [r4, r5, lsl #1]	@ movhi
 1383              	.L80:
 611:Lib/lvgl/src/draw/sw/blend/lv_draw_sw_blend_to_rgb565.c ****                 switch(dsc->blend_mode) {
 1384              		.loc 1 611 60 is_stmt 1 discriminator 2 view .LVU437
 611:Lib/lvgl/src/draw/sw/blend/lv_draw_sw_blend_to_rgb565.c ****                 switch(dsc->blend_mode) {
 1385              		.loc 1 611 58 is_stmt 0 discriminator 2 view .LVU438
 1386 01d6 0135     		adds	r5, r5, #1
 1387              	.LVL173:
 611:Lib/lvgl/src/draw/sw/blend/lv_draw_sw_blend_to_rgb565.c ****                 switch(dsc->blend_mode) {
 1388              		.loc 1 611 68 discriminator 2 view .LVU439
 1389 01d8 08F10408 		add	r8, r8, #4
 1390              	.LVL174:
 1391              	.L84:
 611:Lib/lvgl/src/draw/sw/blend/lv_draw_sw_blend_to_rgb565.c ****                 switch(dsc->blend_mode) {
 1392              		.loc 1 611 47 is_stmt 1 discriminator 1 view .LVU440
 1393 01dc 4D45     		cmp	r5, r9
 1394 01de 80F28380 		bge	.L98
 612:Lib/lvgl/src/draw/sw/blend/lv_draw_sw_blend_to_rgb565.c ****                     case LV_BLEND_MODE_ADDITIVE:
 1395              		.loc 1 612 17 view .LVU441
 612:Lib/lvgl/src/draw/sw/blend/lv_draw_sw_blend_to_rgb565.c ****                     case LV_BLEND_MODE_ADDITIVE:
 1396              		.loc 1 612 27 is_stmt 0 view .LVU442
 1397 01e2 9AF82230 		ldrb	r3, [r10, #34]	@ zero_extendqisi2
 612:Lib/lvgl/src/draw/sw/blend/lv_draw_sw_blend_to_rgb565.c ****                     case LV_BLEND_MODE_ADDITIVE:
 1398              		.loc 1 612 17 view .LVU443
 1399 01e6 022B     		cmp	r3, #2
 1400 01e8 06D0     		beq	.L75
 1401 01ea 032B     		cmp	r3, #3
 1402 01ec 2CD0     		beq	.L76
 1403 01ee 012B     		cmp	r3, #1
 1404 01f0 BCD0     		beq	.L99
 1405              	.LVL175:
 1406              	.L58:
ARM GAS  C:\Users\Alex\AppData\Local\Temp\ccUzeV0Q.s 			page 50


 612:Lib/lvgl/src/draw/sw/blend/lv_draw_sw_blend_to_rgb565.c ****                     case LV_BLEND_MODE_ADDITIVE:
 1407              		.loc 1 612 17 view .LVU444
 1408              	.LBE93:
 1409              	.LBE92:
 651:Lib/lvgl/src/draw/sw/blend/lv_draw_sw_blend_to_rgb565.c **** 
 1410              		.loc 1 651 1 view .LVU445
 1411 01f2 07B0     		add	sp, sp, #28
 1412              	.LCFI8:
 1413              		.cfi_remember_state
 1414              		.cfi_def_cfa_offset 36
 1415              		@ sp needed
 1416 01f4 BDE8F08F 		pop	{r4, r5, r6, r7, r8, r9, r10, fp, pc}
 1417              	.LVL176:
 1418              	.L75:
 1419              	.LCFI9:
 1420              		.cfi_restore_state
 1421              	.LBB100:
 1422              	.LBB98:
 619:Lib/lvgl/src/draw/sw/blend/lv_draw_sw_blend_to_rgb565.c ****                         res += (LV_MAX(dest_buf_c16[dest_x].green - (src_buf_u8[src_x + 1] >> 2), 0
 1423              		.loc 1 619 25 is_stmt 1 view .LVU446
 619:Lib/lvgl/src/draw/sw/blend/lv_draw_sw_blend_to_rgb565.c ****                         res += (LV_MAX(dest_buf_c16[dest_x].green - (src_buf_u8[src_x + 1] >> 2), 0
 1424              		.loc 1 619 32 is_stmt 0 view .LVU447
 1425 01f8 04EB4503 		add	r3, r4, r5, lsl #1
 1426 01fc 5978     		ldrb	r1, [r3, #1]	@ zero_extendqisi2
 1427 01fe 06EB0802 		add	r2, r6, r8
 1428 0202 9378     		ldrb	r3, [r2, #2]	@ zero_extendqisi2
 1429 0204 DB08     		lsrs	r3, r3, #3
 1430 0206 C3EBD103 		rsb	r3, r3, r1, lsr #3
 1431 020a 23EAE373 		bic	r3, r3, r3, asr #31
 619:Lib/lvgl/src/draw/sw/blend/lv_draw_sw_blend_to_rgb565.c ****                         res += (LV_MAX(dest_buf_c16[dest_x].green - (src_buf_u8[src_x + 1] >> 2), 0
 1432              		.loc 1 619 100 view .LVU448
 1433 020e 9BB2     		uxth	r3, r3
 619:Lib/lvgl/src/draw/sw/blend/lv_draw_sw_blend_to_rgb565.c ****                         res += (LV_MAX(dest_buf_c16[dest_x].green - (src_buf_u8[src_x + 1] >> 2), 0
 1434              		.loc 1 619 29 view .LVU449
 1435 0210 DB02     		lsls	r3, r3, #11
 1436 0212 9BB2     		uxth	r3, r3
 1437              	.LVL177:
 620:Lib/lvgl/src/draw/sw/blend/lv_draw_sw_blend_to_rgb565.c ****                         res += LV_MAX(dest_buf_c16[dest_x].blue - (src_buf_u8[src_x + 0] >> 3), 0);
 1438              		.loc 1 620 25 is_stmt 1 view .LVU450
 620:Lib/lvgl/src/draw/sw/blend/lv_draw_sw_blend_to_rgb565.c ****                         res += LV_MAX(dest_buf_c16[dest_x].blue - (src_buf_u8[src_x + 0] >> 3), 0);
 1439              		.loc 1 620 33 is_stmt 0 view .LVU451
 1440 0214 34F81500 		ldrh	r0, [r4, r5, lsl #1]
 1441 0218 C0F34510 		ubfx	r0, r0, #5, #6
 1442 021c 5278     		ldrb	r2, [r2, #1]	@ zero_extendqisi2
 1443 021e A0EB9200 		sub	r0, r0, r2, lsr #2
 1444 0222 20EAE070 		bic	r0, r0, r0, asr #31
 620:Lib/lvgl/src/draw/sw/blend/lv_draw_sw_blend_to_rgb565.c ****                         res += LV_MAX(dest_buf_c16[dest_x].blue - (src_buf_u8[src_x + 0] >> 3), 0);
 1445              		.loc 1 620 103 view .LVU452
 1446 0226 4001     		lsls	r0, r0, #5
 1447 0228 80B2     		uxth	r0, r0
 620:Lib/lvgl/src/draw/sw/blend/lv_draw_sw_blend_to_rgb565.c ****                         res += LV_MAX(dest_buf_c16[dest_x].blue - (src_buf_u8[src_x + 0] >> 3), 0);
 1448              		.loc 1 620 29 view .LVU453
 1449 022a 1844     		add	r0, r0, r3
 1450 022c 80B2     		uxth	r0, r0
 1451              	.LVL178:
 621:Lib/lvgl/src/draw/sw/blend/lv_draw_sw_blend_to_rgb565.c ****                         break;
 1452              		.loc 1 621 25 is_stmt 1 view .LVU454
ARM GAS  C:\Users\Alex\AppData\Local\Temp\ccUzeV0Q.s 			page 51


 621:Lib/lvgl/src/draw/sw/blend/lv_draw_sw_blend_to_rgb565.c ****                         break;
 1453              		.loc 1 621 32 is_stmt 0 view .LVU455
 1454 022e 14F81530 		ldrb	r3, [r4, r5, lsl #1]	@ zero_extendqisi2
 1455 0232 03F01F03 		and	r3, r3, #31
 1456 0236 16F80820 		ldrb	r2, [r6, r8]	@ zero_extendqisi2
 1457 023a A3EBD203 		sub	r3, r3, r2, lsr #3
 621:Lib/lvgl/src/draw/sw/blend/lv_draw_sw_blend_to_rgb565.c ****                         break;
 1458              		.loc 1 621 29 view .LVU456
 1459 023e 002B     		cmp	r3, #0
 1460 0240 A8BF     		it	ge
 1461 0242 C018     		addge	r0, r0, r3
 1462              	.LVL179:
 621:Lib/lvgl/src/draw/sw/blend/lv_draw_sw_blend_to_rgb565.c ****                         break;
 1463              		.loc 1 621 29 view .LVU457
 1464 0244 80B2     		uxth	r0, r0
 1465              	.LVL180:
 622:Lib/lvgl/src/draw/sw/blend/lv_draw_sw_blend_to_rgb565.c ****                     case LV_BLEND_MODE_MULTIPLY:
 1466              		.loc 1 622 25 is_stmt 1 view .LVU458
 1467 0246 BAE7     		b	.L77
 1468              	.LVL181:
 1469              	.L76:
 624:Lib/lvgl/src/draw/sw/blend/lv_draw_sw_blend_to_rgb565.c ****                         res += ((dest_buf_c16[dest_x].green * (src_buf_u8[src_x + 1] >> 2)) >> 6) <
 1470              		.loc 1 624 25 view .LVU459
 624:Lib/lvgl/src/draw/sw/blend/lv_draw_sw_blend_to_rgb565.c ****                         res += ((dest_buf_c16[dest_x].green * (src_buf_u8[src_x + 1] >> 2)) >> 6) <
 1471              		.loc 1 624 45 is_stmt 0 view .LVU460
 1472 0248 04EB4503 		add	r3, r4, r5, lsl #1
 624:Lib/lvgl/src/draw/sw/blend/lv_draw_sw_blend_to_rgb565.c ****                         res += ((dest_buf_c16[dest_x].green * (src_buf_u8[src_x + 1] >> 2)) >> 6) <
 1473              		.loc 1 624 53 view .LVU461
 1474 024c 5B78     		ldrb	r3, [r3, #1]	@ zero_extendqisi2
 1475 024e DB08     		lsrs	r3, r3, #3
 624:Lib/lvgl/src/draw/sw/blend/lv_draw_sw_blend_to_rgb565.c ****                         res += ((dest_buf_c16[dest_x].green * (src_buf_u8[src_x + 1] >> 2)) >> 6) <
 1476              		.loc 1 624 71 view .LVU462
 1477 0250 06EB0802 		add	r2, r6, r8
 1478 0254 9178     		ldrb	r1, [r2, #2]	@ zero_extendqisi2
 624:Lib/lvgl/src/draw/sw/blend/lv_draw_sw_blend_to_rgb565.c ****                         res += ((dest_buf_c16[dest_x].green * (src_buf_u8[src_x + 1] >> 2)) >> 6) <
 1479              		.loc 1 624 83 view .LVU463
 1480 0256 C908     		lsrs	r1, r1, #3
 624:Lib/lvgl/src/draw/sw/blend/lv_draw_sw_blend_to_rgb565.c ****                         res += ((dest_buf_c16[dest_x].green * (src_buf_u8[src_x + 1] >> 2)) >> 6) <
 1481              		.loc 1 624 58 view .LVU464
 1482 0258 01FB03F3 		mul	r3, r1, r3
 624:Lib/lvgl/src/draw/sw/blend/lv_draw_sw_blend_to_rgb565.c ****                         res += ((dest_buf_c16[dest_x].green * (src_buf_u8[src_x + 1] >> 2)) >> 6) <
 1483              		.loc 1 624 96 view .LVU465
 1484 025c 5B09     		lsrs	r3, r3, #5
 1485              	.LVL182:
 625:Lib/lvgl/src/draw/sw/blend/lv_draw_sw_blend_to_rgb565.c ****                         res += (dest_buf_c16[dest_x].blue * (src_buf_u8[src_x + 0] >> 3)) >> 5;
 1486              		.loc 1 625 25 is_stmt 1 view .LVU466
 625:Lib/lvgl/src/draw/sw/blend/lv_draw_sw_blend_to_rgb565.c ****                         res += (dest_buf_c16[dest_x].blue * (src_buf_u8[src_x + 0] >> 3)) >> 5;
 1487              		.loc 1 625 54 is_stmt 0 view .LVU467
 1488 025e 34F81500 		ldrh	r0, [r4, r5, lsl #1]
 1489 0262 C0F34510 		ubfx	r0, r0, #5, #6
 625:Lib/lvgl/src/draw/sw/blend/lv_draw_sw_blend_to_rgb565.c ****                         res += (dest_buf_c16[dest_x].blue * (src_buf_u8[src_x + 0] >> 3)) >> 5;
 1490              		.loc 1 625 74 view .LVU468
 1491 0266 5278     		ldrb	r2, [r2, #1]	@ zero_extendqisi2
 625:Lib/lvgl/src/draw/sw/blend/lv_draw_sw_blend_to_rgb565.c ****                         res += (dest_buf_c16[dest_x].blue * (src_buf_u8[src_x + 0] >> 3)) >> 5;
 1492              		.loc 1 625 86 view .LVU469
 1493 0268 9208     		lsrs	r2, r2, #2
 625:Lib/lvgl/src/draw/sw/blend/lv_draw_sw_blend_to_rgb565.c ****                         res += (dest_buf_c16[dest_x].blue * (src_buf_u8[src_x + 0] >> 3)) >> 5;
ARM GAS  C:\Users\Alex\AppData\Local\Temp\ccUzeV0Q.s 			page 52


 1494              		.loc 1 625 61 view .LVU470
 1495 026a 02FB00F0 		mul	r0, r2, r0
 625:Lib/lvgl/src/draw/sw/blend/lv_draw_sw_blend_to_rgb565.c ****                         res += (dest_buf_c16[dest_x].blue * (src_buf_u8[src_x + 0] >> 3)) >> 5;
 1496              		.loc 1 625 93 view .LVU471
 1497 026e 8011     		asrs	r0, r0, #6
 625:Lib/lvgl/src/draw/sw/blend/lv_draw_sw_blend_to_rgb565.c ****                         res += (dest_buf_c16[dest_x].blue * (src_buf_u8[src_x + 0] >> 3)) >> 5;
 1498              		.loc 1 625 99 view .LVU472
 1499 0270 4001     		lsls	r0, r0, #5
 1500 0272 80B2     		uxth	r0, r0
 625:Lib/lvgl/src/draw/sw/blend/lv_draw_sw_blend_to_rgb565.c ****                         res += (dest_buf_c16[dest_x].blue * (src_buf_u8[src_x + 0] >> 3)) >> 5;
 1501              		.loc 1 625 29 view .LVU473
 1502 0274 00EBC320 		add	r0, r0, r3, lsl #11
 1503 0278 80B2     		uxth	r0, r0
 1504              	.LVL183:
 626:Lib/lvgl/src/draw/sw/blend/lv_draw_sw_blend_to_rgb565.c ****                         break;
 1505              		.loc 1 626 25 is_stmt 1 view .LVU474
 626:Lib/lvgl/src/draw/sw/blend/lv_draw_sw_blend_to_rgb565.c ****                         break;
 1506              		.loc 1 626 53 is_stmt 0 view .LVU475
 1507 027a 14F81530 		ldrb	r3, [r4, r5, lsl #1]	@ zero_extendqisi2
 1508 027e 03F01F03 		and	r3, r3, #31
 626:Lib/lvgl/src/draw/sw/blend/lv_draw_sw_blend_to_rgb565.c ****                         break;
 1509              		.loc 1 626 72 view .LVU476
 1510 0282 16F80820 		ldrb	r2, [r6, r8]	@ zero_extendqisi2
 626:Lib/lvgl/src/draw/sw/blend/lv_draw_sw_blend_to_rgb565.c ****                         break;
 1511              		.loc 1 626 84 view .LVU477
 1512 0286 D208     		lsrs	r2, r2, #3
 626:Lib/lvgl/src/draw/sw/blend/lv_draw_sw_blend_to_rgb565.c ****                         break;
 1513              		.loc 1 626 59 view .LVU478
 1514 0288 02FB03F3 		mul	r3, r2, r3
 626:Lib/lvgl/src/draw/sw/blend/lv_draw_sw_blend_to_rgb565.c ****                         break;
 1515              		.loc 1 626 29 view .LVU479
 1516 028c 00EB6310 		add	r0, r0, r3, asr #5
 1517              	.LVL184:
 626:Lib/lvgl/src/draw/sw/blend/lv_draw_sw_blend_to_rgb565.c ****                         break;
 1518              		.loc 1 626 29 view .LVU480
 1519 0290 80B2     		uxth	r0, r0
 1520              	.LVL185:
 627:Lib/lvgl/src/draw/sw/blend/lv_draw_sw_blend_to_rgb565.c ****                     default:
 1521              		.loc 1 627 25 is_stmt 1 view .LVU481
 1522 0292 94E7     		b	.L77
 1523              	.L97:
 633:Lib/lvgl/src/draw/sw/blend/lv_draw_sw_blend_to_rgb565.c ****                     dest_buf_u16[dest_x] = lv_color_16_16_mix(res, dest_buf_u16[dest_x], src_buf_u8
 1524              		.loc 1 633 37 is_stmt 0 discriminator 1 view .LVU482
 1525 0294 BBF1FC0F 		cmp	fp, #252
 1526 0298 09D9     		bls	.L79
 634:Lib/lvgl/src/draw/sw/blend/lv_draw_sw_blend_to_rgb565.c ****                 }
 1527              		.loc 1 634 21 is_stmt 1 view .LVU483
 634:Lib/lvgl/src/draw/sw/blend/lv_draw_sw_blend_to_rgb565.c ****                 }
 1528              		.loc 1 634 100 is_stmt 0 view .LVU484
 1529 029a 08F10303 		add	r3, r8, #3
 634:Lib/lvgl/src/draw/sw/blend/lv_draw_sw_blend_to_rgb565.c ****                 }
 1530              		.loc 1 634 44 view .LVU485
 1531 029e F25C     		ldrb	r2, [r6, r3]	@ zero_extendqisi2
 1532 02a0 34F81510 		ldrh	r1, [r4, r5, lsl #1]
 1533 02a4 FFF7FEFF 		bl	lv_color_16_16_mix
 1534              	.LVL186:
 634:Lib/lvgl/src/draw/sw/blend/lv_draw_sw_blend_to_rgb565.c ****                 }
ARM GAS  C:\Users\Alex\AppData\Local\Temp\ccUzeV0Q.s 			page 53


 1535              		.loc 1 634 42 view .LVU486
 1536 02a8 24F81500 		strh	r0, [r4, r5, lsl #1]	@ movhi
 1537 02ac 93E7     		b	.L80
 1538              	.LVL187:
 1539              	.L79:
 636:Lib/lvgl/src/draw/sw/blend/lv_draw_sw_blend_to_rgb565.c ****                     dest_buf_u16[dest_x] = lv_color_16_16_mix(res, dest_buf_u16[dest_x], LV_OPA_MIX
 1540              		.loc 1 636 22 is_stmt 1 view .LVU487
 637:Lib/lvgl/src/draw/sw/blend/lv_draw_sw_blend_to_rgb565.c ****                 }
 1541              		.loc 1 637 21 view .LVU488
 637:Lib/lvgl/src/draw/sw/blend/lv_draw_sw_blend_to_rgb565.c ****                 }
 1542              		.loc 1 637 90 is_stmt 0 view .LVU489
 1543 02ae 06EB0803 		add	r3, r6, r8
 1544 02b2 DA78     		ldrb	r2, [r3, #3]	@ zero_extendqisi2
 1545 02b4 02FB0BF2 		mul	r2, r2, fp
 637:Lib/lvgl/src/draw/sw/blend/lv_draw_sw_blend_to_rgb565.c ****                 }
 1546              		.loc 1 637 44 view .LVU490
 1547 02b8 120A     		lsrs	r2, r2, #8
 1548 02ba 34F81510 		ldrh	r1, [r4, r5, lsl #1]
 1549 02be FFF7FEFF 		bl	lv_color_16_16_mix
 1550              	.LVL188:
 637:Lib/lvgl/src/draw/sw/blend/lv_draw_sw_blend_to_rgb565.c ****                 }
 1551              		.loc 1 637 42 view .LVU491
 1552 02c2 24F81500 		strh	r0, [r4, r5, lsl #1]	@ movhi
 1553 02c6 86E7     		b	.L80
 1554              	.LVL189:
 1555              	.L81:
 641:Lib/lvgl/src/draw/sw/blend/lv_draw_sw_blend_to_rgb565.c ****                                                                                                    
 1556              		.loc 1 641 26 is_stmt 1 view .LVU492
 641:Lib/lvgl/src/draw/sw/blend/lv_draw_sw_blend_to_rgb565.c ****                                                                                                    
 1557              		.loc 1 641 95 is_stmt 0 view .LVU493
 1558 02c8 7A5D     		ldrb	r2, [r7, r5]	@ zero_extendqisi2
 1559 02ca 02FB0BF2 		mul	r2, r2, fp
 1560 02ce 06EB0803 		add	r3, r6, r8
 1561 02d2 DB78     		ldrb	r3, [r3, #3]	@ zero_extendqisi2
 1562 02d4 03FB02F2 		mul	r2, r3, r2
 641:Lib/lvgl/src/draw/sw/blend/lv_draw_sw_blend_to_rgb565.c ****                                                                                                    
 1563              		.loc 1 641 49 view .LVU494
 1564 02d8 120C     		lsrs	r2, r2, #16
 1565 02da 34F81510 		ldrh	r1, [r4, r5, lsl #1]
 1566 02de FFF7FEFF 		bl	lv_color_16_16_mix
 1567              	.LVL190:
 641:Lib/lvgl/src/draw/sw/blend/lv_draw_sw_blend_to_rgb565.c ****                                                                                                    
 1568              		.loc 1 641 47 view .LVU495
 1569 02e2 24F81500 		strh	r0, [r4, r5, lsl #1]	@ movhi
 1570 02e6 76E7     		b	.L80
 1571              	.LVL191:
 1572              	.L98:
 1573              	.LBB94:
 1574              	.LBB95:
 1575              		.loc 1 672 12 view .LVU496
 1576 02e8 0399     		ldr	r1, [sp, #12]
 1577 02ea DDF810E0 		ldr	lr, [sp, #16]
 1578              	.LBE95:
 1579              	.LBE94:
 646:Lib/lvgl/src/draw/sw/blend/lv_draw_sw_blend_to_rgb565.c ****             src_buf_u8 += src_stride;
 1580              		.loc 1 646 13 is_stmt 1 view .LVU497
 1581              	.LVL192:
ARM GAS  C:\Users\Alex\AppData\Local\Temp\ccUzeV0Q.s 			page 54


 1582              	.LBB97:
 1583              	.LBI94:
 670:Lib/lvgl/src/draw/sw/blend/lv_draw_sw_blend_to_rgb565.c **** {
 1584              		.loc 1 670 44 view .LVU498
 1585              	.LBB96:
 1586              		.loc 1 672 5 view .LVU499
 1587              		.loc 1 672 12 is_stmt 0 view .LVU500
 1588 02ee 019B     		ldr	r3, [sp, #4]
 1589 02f0 1C44     		add	r4, r4, r3
 1590              	.LVL193:
 1591              		.loc 1 672 12 view .LVU501
 1592              	.LBE96:
 1593              	.LBE97:
 647:Lib/lvgl/src/draw/sw/blend/lv_draw_sw_blend_to_rgb565.c ****             if(mask_buf) mask_buf += mask_stride;
 1594              		.loc 1 647 13 is_stmt 1 view .LVU502
 647:Lib/lvgl/src/draw/sw/blend/lv_draw_sw_blend_to_rgb565.c ****             if(mask_buf) mask_buf += mask_stride;
 1595              		.loc 1 647 24 is_stmt 0 view .LVU503
 1596 02f2 029B     		ldr	r3, [sp, #8]
 1597 02f4 1E44     		add	r6, r6, r3
 1598              	.LVL194:
 648:Lib/lvgl/src/draw/sw/blend/lv_draw_sw_blend_to_rgb565.c ****         }
 1599              		.loc 1 648 13 is_stmt 1 view .LVU504
 648:Lib/lvgl/src/draw/sw/blend/lv_draw_sw_blend_to_rgb565.c ****         }
 1600              		.loc 1 648 15 is_stmt 0 view .LVU505
 1601 02f6 0FB1     		cbz	r7, .L83
 648:Lib/lvgl/src/draw/sw/blend/lv_draw_sw_blend_to_rgb565.c ****         }
 1602              		.loc 1 648 26 is_stmt 1 discriminator 1 view .LVU506
 648:Lib/lvgl/src/draw/sw/blend/lv_draw_sw_blend_to_rgb565.c ****         }
 1603              		.loc 1 648 35 is_stmt 0 discriminator 1 view .LVU507
 1604 02f8 059B     		ldr	r3, [sp, #20]
 1605 02fa 1F44     		add	r7, r7, r3
 1606              	.LVL195:
 1607              	.L83:
 648:Lib/lvgl/src/draw/sw/blend/lv_draw_sw_blend_to_rgb565.c ****         }
 1608              		.loc 1 648 35 discriminator 1 view .LVU508
 1609              	.LBE98:
 609:Lib/lvgl/src/draw/sw/blend/lv_draw_sw_blend_to_rgb565.c ****             lv_color16_t * dest_buf_c16 = (lv_color16_t *) dest_buf_u16;
 1610              		.loc 1 609 28 is_stmt 1 discriminator 2 view .LVU509
 1611 02fc 0131     		adds	r1, r1, #1
 1612              	.LVL196:
 609:Lib/lvgl/src/draw/sw/blend/lv_draw_sw_blend_to_rgb565.c ****             lv_color16_t * dest_buf_c16 = (lv_color16_t *) dest_buf_u16;
 1613              		.loc 1 609 28 is_stmt 0 discriminator 2 view .LVU510
 1614 02fe 08E0     		b	.L59
 1615              	.LVL197:
 1616              	.L85:
 609:Lib/lvgl/src/draw/sw/blend/lv_draw_sw_blend_to_rgb565.c ****             lv_color16_t * dest_buf_c16 = (lv_color16_t *) dest_buf_u16;
 1617              		.loc 1 609 28 discriminator 2 view .LVU511
 1618 0300 8446     		mov	ip, r0
 609:Lib/lvgl/src/draw/sw/blend/lv_draw_sw_blend_to_rgb565.c ****             lv_color16_t * dest_buf_c16 = (lv_color16_t *) dest_buf_u16;
 1619              		.loc 1 609 15 view .LVU512
 1620 0302 0020     		movs	r0, #0
 1621              	.LVL198:
 609:Lib/lvgl/src/draw/sw/blend/lv_draw_sw_blend_to_rgb565.c ****             lv_color16_t * dest_buf_c16 = (lv_color16_t *) dest_buf_u16;
 1622              		.loc 1 609 15 view .LVU513
 1623 0304 3B46     		mov	r3, r7
 1624              	.LVL199:
 609:Lib/lvgl/src/draw/sw/blend/lv_draw_sw_blend_to_rgb565.c ****             lv_color16_t * dest_buf_c16 = (lv_color16_t *) dest_buf_u16;
ARM GAS  C:\Users\Alex\AppData\Local\Temp\ccUzeV0Q.s 			page 55


 1625              		.loc 1 609 15 view .LVU514
 1626 0306 4F46     		mov	r7, r9
 1627              	.LVL200:
 609:Lib/lvgl/src/draw/sw/blend/lv_draw_sw_blend_to_rgb565.c ****             lv_color16_t * dest_buf_c16 = (lv_color16_t *) dest_buf_u16;
 1628              		.loc 1 609 15 view .LVU515
 1629 0308 D646     		mov	lr, r10
 1630 030a 0591     		str	r1, [sp, #20]
 1631 030c 0146     		mov	r1, r0
 1632              	.LVL201:
 609:Lib/lvgl/src/draw/sw/blend/lv_draw_sw_blend_to_rgb565.c ****             lv_color16_t * dest_buf_c16 = (lv_color16_t *) dest_buf_u16;
 1633              		.loc 1 609 15 view .LVU516
 1634 030e E246     		mov	r10, ip
 1635              	.LVL202:
 609:Lib/lvgl/src/draw/sw/blend/lv_draw_sw_blend_to_rgb565.c ****             lv_color16_t * dest_buf_c16 = (lv_color16_t *) dest_buf_u16;
 1636              		.loc 1 609 15 view .LVU517
 1637 0310 9946     		mov	r9, r3
 1638              	.LVL203:
 1639              	.L59:
 609:Lib/lvgl/src/draw/sw/blend/lv_draw_sw_blend_to_rgb565.c ****             lv_color16_t * dest_buf_c16 = (lv_color16_t *) dest_buf_u16;
 1640              		.loc 1 609 22 is_stmt 1 discriminator 1 view .LVU518
 1641 0312 7145     		cmp	r1, lr
 1642 0314 BFF66DAF 		bge	.L58
 1643              	.LBB99:
 611:Lib/lvgl/src/draw/sw/blend/lv_draw_sw_blend_to_rgb565.c ****                 switch(dsc->blend_mode) {
 1644              		.loc 1 611 35 is_stmt 0 view .LVU519
 1645 0318 4FF00008 		mov	r8, #0
 611:Lib/lvgl/src/draw/sw/blend/lv_draw_sw_blend_to_rgb565.c ****                 switch(dsc->blend_mode) {
 1646              		.loc 1 611 24 view .LVU520
 1647 031c 4546     		mov	r5, r8
 1648 031e 0391     		str	r1, [sp, #12]
 1649 0320 CDF810E0 		str	lr, [sp, #16]
 1650 0324 5AE7     		b	.L84
 1651              	.LBE99:
 1652              	.LBE100:
 1653              		.cfi_endproc
 1654              	.LFE237:
 1656              		.section	.text.rgb565_image_blend,"ax",%progbits
 1657              		.align	1
 1658              		.syntax unified
 1659              		.thumb
 1660              		.thumb_func
 1662              	rgb565_image_blend:
 1663              	.LVL204:
 1664              	.LFB235:
 325:Lib/lvgl/src/draw/sw/blend/lv_draw_sw_blend_to_rgb565.c ****     int32_t w = dsc->dest_w;
 1665              		.loc 1 325 1 is_stmt 1 view -0
 1666              		.cfi_startproc
 1667              		@ args = 0, pretend = 0, frame = 16
 1668              		@ frame_needed = 0, uses_anonymous_args = 0
 325:Lib/lvgl/src/draw/sw/blend/lv_draw_sw_blend_to_rgb565.c ****     int32_t w = dsc->dest_w;
 1669              		.loc 1 325 1 is_stmt 0 view .LVU522
 1670 0000 2DE9F04F 		push	{r4, r5, r6, r7, r8, r9, r10, fp, lr}
 1671              	.LCFI10:
 1672              		.cfi_def_cfa_offset 36
 1673              		.cfi_offset 4, -36
 1674              		.cfi_offset 5, -32
 1675              		.cfi_offset 6, -28
ARM GAS  C:\Users\Alex\AppData\Local\Temp\ccUzeV0Q.s 			page 56


 1676              		.cfi_offset 7, -24
 1677              		.cfi_offset 8, -20
 1678              		.cfi_offset 9, -16
 1679              		.cfi_offset 10, -12
 1680              		.cfi_offset 11, -8
 1681              		.cfi_offset 14, -4
 1682 0004 85B0     		sub	sp, sp, #20
 1683              	.LCFI11:
 1684              		.cfi_def_cfa_offset 56
 326:Lib/lvgl/src/draw/sw/blend/lv_draw_sw_blend_to_rgb565.c ****     int32_t h = dsc->dest_h;
 1685              		.loc 1 326 5 is_stmt 1 view .LVU523
 326:Lib/lvgl/src/draw/sw/blend/lv_draw_sw_blend_to_rgb565.c ****     int32_t h = dsc->dest_h;
 1686              		.loc 1 326 13 is_stmt 0 view .LVU524
 1687 0006 4768     		ldr	r7, [r0, #4]
 1688              	.LVL205:
 327:Lib/lvgl/src/draw/sw/blend/lv_draw_sw_blend_to_rgb565.c ****     lv_opa_t opa = dsc->opa;
 1689              		.loc 1 327 5 is_stmt 1 view .LVU525
 327:Lib/lvgl/src/draw/sw/blend/lv_draw_sw_blend_to_rgb565.c ****     lv_opa_t opa = dsc->opa;
 1690              		.loc 1 327 13 is_stmt 0 view .LVU526
 1691 0008 D0F80890 		ldr	r9, [r0, #8]
 1692              	.LVL206:
 328:Lib/lvgl/src/draw/sw/blend/lv_draw_sw_blend_to_rgb565.c ****     uint16_t * dest_buf_u16 = dsc->dest_buf;
 1693              		.loc 1 328 5 is_stmt 1 view .LVU527
 328:Lib/lvgl/src/draw/sw/blend/lv_draw_sw_blend_to_rgb565.c ****     uint16_t * dest_buf_u16 = dsc->dest_buf;
 1694              		.loc 1 328 14 is_stmt 0 view .LVU528
 1695 000c 90F821A0 		ldrb	r10, [r0, #33]	@ zero_extendqisi2
 1696              	.LVL207:
 329:Lib/lvgl/src/draw/sw/blend/lv_draw_sw_blend_to_rgb565.c ****     int32_t dest_stride = dsc->dest_stride;
 1697              		.loc 1 329 5 is_stmt 1 view .LVU529
 329:Lib/lvgl/src/draw/sw/blend/lv_draw_sw_blend_to_rgb565.c ****     int32_t dest_stride = dsc->dest_stride;
 1698              		.loc 1 329 16 is_stmt 0 view .LVU530
 1699 0010 0568     		ldr	r5, [r0]
 1700              	.LVL208:
 330:Lib/lvgl/src/draw/sw/blend/lv_draw_sw_blend_to_rgb565.c ****     const uint16_t * src_buf_u16 = dsc->src_buf;
 1701              		.loc 1 330 5 is_stmt 1 view .LVU531
 330:Lib/lvgl/src/draw/sw/blend/lv_draw_sw_blend_to_rgb565.c ****     const uint16_t * src_buf_u16 = dsc->src_buf;
 1702              		.loc 1 330 13 is_stmt 0 view .LVU532
 1703 0012 C368     		ldr	r3, [r0, #12]
 1704 0014 0093     		str	r3, [sp]
 1705              	.LVL209:
 331:Lib/lvgl/src/draw/sw/blend/lv_draw_sw_blend_to_rgb565.c ****     int32_t src_stride = dsc->src_stride;
 1706              		.loc 1 331 5 is_stmt 1 view .LVU533
 331:Lib/lvgl/src/draw/sw/blend/lv_draw_sw_blend_to_rgb565.c ****     int32_t src_stride = dsc->src_stride;
 1707              		.loc 1 331 22 is_stmt 0 view .LVU534
 1708 0016 8669     		ldr	r6, [r0, #24]
 1709              	.LVL210:
 332:Lib/lvgl/src/draw/sw/blend/lv_draw_sw_blend_to_rgb565.c ****     const lv_opa_t * mask_buf = dsc->mask_buf;
 1710              		.loc 1 332 5 is_stmt 1 view .LVU535
 332:Lib/lvgl/src/draw/sw/blend/lv_draw_sw_blend_to_rgb565.c ****     const lv_opa_t * mask_buf = dsc->mask_buf;
 1711              		.loc 1 332 13 is_stmt 0 view .LVU536
 1712 0018 C369     		ldr	r3, [r0, #28]
 1713              	.LVL211:
 332:Lib/lvgl/src/draw/sw/blend/lv_draw_sw_blend_to_rgb565.c ****     const lv_opa_t * mask_buf = dsc->mask_buf;
 1714              		.loc 1 332 13 view .LVU537
 1715 001a 0193     		str	r3, [sp, #4]
 1716              	.LVL212:
 333:Lib/lvgl/src/draw/sw/blend/lv_draw_sw_blend_to_rgb565.c ****     int32_t mask_stride = dsc->mask_stride;
ARM GAS  C:\Users\Alex\AppData\Local\Temp\ccUzeV0Q.s 			page 57


 1717              		.loc 1 333 5 is_stmt 1 view .LVU538
 333:Lib/lvgl/src/draw/sw/blend/lv_draw_sw_blend_to_rgb565.c ****     int32_t mask_stride = dsc->mask_stride;
 1718              		.loc 1 333 22 is_stmt 0 view .LVU539
 1719 001c D0F81080 		ldr	r8, [r0, #16]
 1720              	.LVL213:
 334:Lib/lvgl/src/draw/sw/blend/lv_draw_sw_blend_to_rgb565.c **** 
 1721              		.loc 1 334 5 is_stmt 1 view .LVU540
 334:Lib/lvgl/src/draw/sw/blend/lv_draw_sw_blend_to_rgb565.c **** 
 1722              		.loc 1 334 13 is_stmt 0 view .LVU541
 1723 0020 4369     		ldr	r3, [r0, #20]
 1724              	.LVL214:
 336:Lib/lvgl/src/draw/sw/blend/lv_draw_sw_blend_to_rgb565.c ****     int32_t y;
 1725              		.loc 1 336 5 is_stmt 1 view .LVU542
 337:Lib/lvgl/src/draw/sw/blend/lv_draw_sw_blend_to_rgb565.c **** 
 1726              		.loc 1 337 5 view .LVU543
 339:Lib/lvgl/src/draw/sw/blend/lv_draw_sw_blend_to_rgb565.c ****         if(mask_buf == NULL && opa >= LV_OPA_MAX) {
 1727              		.loc 1 339 5 view .LVU544
 339:Lib/lvgl/src/draw/sw/blend/lv_draw_sw_blend_to_rgb565.c ****         if(mask_buf == NULL && opa >= LV_OPA_MAX) {
 1728              		.loc 1 339 11 is_stmt 0 view .LVU545
 1729 0022 90F82220 		ldrb	r2, [r0, #34]	@ zero_extendqisi2
 339:Lib/lvgl/src/draw/sw/blend/lv_draw_sw_blend_to_rgb565.c ****         if(mask_buf == NULL && opa >= LV_OPA_MAX) {
 1730              		.loc 1 339 7 view .LVU546
 1731 0026 002A     		cmp	r2, #0
 1732 0028 40F04C81 		bne	.L125
 340:Lib/lvgl/src/draw/sw/blend/lv_draw_sw_blend_to_rgb565.c ****             if(LV_RESULT_INVALID == LV_DRAW_SW_RGB565_BLEND_NORMAL_TO_RGB565(dsc)) {
 1733              		.loc 1 340 9 is_stmt 1 view .LVU547
 340:Lib/lvgl/src/draw/sw/blend/lv_draw_sw_blend_to_rgb565.c ****             if(LV_RESULT_INVALID == LV_DRAW_SW_RGB565_BLEND_NORMAL_TO_RGB565(dsc)) {
 1734              		.loc 1 340 11 is_stmt 0 view .LVU548
 1735 002c B8F1000F 		cmp	r8, #0
 1736 0030 09D0     		beq	.L134
 361:Lib/lvgl/src/draw/sw/blend/lv_draw_sw_blend_to_rgb565.c ****             if(LV_RESULT_INVALID == LV_DRAW_SW_RGB565_BLEND_NORMAL_TO_RGB565_WITH_MASK(dsc)) {
 1737              		.loc 1 361 14 is_stmt 1 view .LVU549
 361:Lib/lvgl/src/draw/sw/blend/lv_draw_sw_blend_to_rgb565.c ****             if(LV_RESULT_INVALID == LV_DRAW_SW_RGB565_BLEND_NORMAL_TO_RGB565_WITH_MASK(dsc)) {
 1738              		.loc 1 361 16 is_stmt 0 view .LVU550
 1739 0032 B8F1000F 		cmp	r8, #0
 1740 0036 72D0     		beq	.L128
 361:Lib/lvgl/src/draw/sw/blend/lv_draw_sw_blend_to_rgb565.c ****             if(LV_RESULT_INVALID == LV_DRAW_SW_RGB565_BLEND_NORMAL_TO_RGB565_WITH_MASK(dsc)) {
 1741              		.loc 1 361 26 discriminator 1 view .LVU551
 1742 0038 BAF1FC0F 		cmp	r10, #252
 1743 003c 4BD8     		bhi	.L129
 1744 003e 4FF0000B 		mov	fp, #0
 1745 0042 0293     		str	r3, [sp, #8]
 1746 0044 66E0     		b	.L114
 1747              	.L134:
 340:Lib/lvgl/src/draw/sw/blend/lv_draw_sw_blend_to_rgb565.c ****             if(LV_RESULT_INVALID == LV_DRAW_SW_RGB565_BLEND_NORMAL_TO_RGB565(dsc)) {
 1748              		.loc 1 340 29 discriminator 1 view .LVU552
 1749 0046 BAF1FC0F 		cmp	r10, #252
 1750 004a 27D9     		bls	.L126
 341:Lib/lvgl/src/draw/sw/blend/lv_draw_sw_blend_to_rgb565.c ****                 uint32_t line_in_bytes = w * 2;
 1751              		.loc 1 341 13 is_stmt 1 view .LVU553
 1752              	.LBB101:
 342:Lib/lvgl/src/draw/sw/blend/lv_draw_sw_blend_to_rgb565.c ****                 for(y = 0; y < h; y++) {
 1753              		.loc 1 342 17 view .LVU554
 342:Lib/lvgl/src/draw/sw/blend/lv_draw_sw_blend_to_rgb565.c ****                 for(y = 0; y < h; y++) {
 1754              		.loc 1 342 44 is_stmt 0 view .LVU555
 1755 004c 7F00     		lsls	r7, r7, #1
 1756              	.LVL215:
ARM GAS  C:\Users\Alex\AppData\Local\Temp\ccUzeV0Q.s 			page 58


 343:Lib/lvgl/src/draw/sw/blend/lv_draw_sw_blend_to_rgb565.c ****                     lv_memcpy(dest_buf_u16, src_buf_u16, line_in_bytes);
 1757              		.loc 1 343 17 is_stmt 1 view .LVU556
 343:Lib/lvgl/src/draw/sw/blend/lv_draw_sw_blend_to_rgb565.c ****                     lv_memcpy(dest_buf_u16, src_buf_u16, line_in_bytes);
 1758              		.loc 1 343 23 is_stmt 0 view .LVU557
 1759 004e 0024     		movs	r4, #0
 1760 0050 DDF80080 		ldr	r8, [sp]
 1761              	.LVL216:
 343:Lib/lvgl/src/draw/sw/blend/lv_draw_sw_blend_to_rgb565.c ****                     lv_memcpy(dest_buf_u16, src_buf_u16, line_in_bytes);
 1762              		.loc 1 343 23 view .LVU558
 1763 0054 DDF804A0 		ldr	r10, [sp, #4]
 1764              	.LVL217:
 343:Lib/lvgl/src/draw/sw/blend/lv_draw_sw_blend_to_rgb565.c ****                     lv_memcpy(dest_buf_u16, src_buf_u16, line_in_bytes);
 1765              		.loc 1 343 17 view .LVU559
 1766 0058 07E0     		b	.L104
 1767              	.LVL218:
 1768              	.L105:
 344:Lib/lvgl/src/draw/sw/blend/lv_draw_sw_blend_to_rgb565.c ****                     dest_buf_u16 = drawbuf_next_row(dest_buf_u16, dest_stride);
 1769              		.loc 1 344 21 is_stmt 1 discriminator 3 view .LVU560
 1770 005a 3A46     		mov	r2, r7
 1771 005c 3146     		mov	r1, r6
 1772 005e 2846     		mov	r0, r5
 1773 0060 FFF7FEFF 		bl	lv_memcpy
 1774              	.LVL219:
 345:Lib/lvgl/src/draw/sw/blend/lv_draw_sw_blend_to_rgb565.c ****                     src_buf_u16 = drawbuf_next_row(src_buf_u16, src_stride);
 1775              		.loc 1 345 21 discriminator 3 view .LVU561
 1776              	.LBB102:
 1777              	.LBI102:
 670:Lib/lvgl/src/draw/sw/blend/lv_draw_sw_blend_to_rgb565.c **** {
 1778              		.loc 1 670 44 discriminator 3 view .LVU562
 1779              	.LBB103:
 1780              		.loc 1 672 5 discriminator 3 view .LVU563
 1781              		.loc 1 672 12 is_stmt 0 discriminator 3 view .LVU564
 1782 0064 4544     		add	r5, r5, r8
 1783              	.LVL220:
 1784              		.loc 1 672 12 discriminator 3 view .LVU565
 1785              	.LBE103:
 1786              	.LBE102:
 346:Lib/lvgl/src/draw/sw/blend/lv_draw_sw_blend_to_rgb565.c ****                 }
 1787              		.loc 1 346 21 is_stmt 1 discriminator 3 view .LVU566
 1788              	.LBB104:
 1789              	.LBI104:
 670:Lib/lvgl/src/draw/sw/blend/lv_draw_sw_blend_to_rgb565.c **** {
 1790              		.loc 1 670 44 discriminator 3 view .LVU567
 1791              	.LBB105:
 1792              		.loc 1 672 5 discriminator 3 view .LVU568
 1793              		.loc 1 672 12 is_stmt 0 discriminator 3 view .LVU569
 1794 0066 5644     		add	r6, r6, r10
 1795              	.LVL221:
 1796              		.loc 1 672 12 discriminator 3 view .LVU570
 1797              	.LBE105:
 1798              	.LBE104:
 343:Lib/lvgl/src/draw/sw/blend/lv_draw_sw_blend_to_rgb565.c ****                     lv_memcpy(dest_buf_u16, src_buf_u16, line_in_bytes);
 1799              		.loc 1 343 36 is_stmt 1 discriminator 3 view .LVU571
 1800 0068 0134     		adds	r4, r4, #1
 1801              	.LVL222:
 1802              	.L104:
 343:Lib/lvgl/src/draw/sw/blend/lv_draw_sw_blend_to_rgb565.c ****                     lv_memcpy(dest_buf_u16, src_buf_u16, line_in_bytes);
ARM GAS  C:\Users\Alex\AppData\Local\Temp\ccUzeV0Q.s 			page 59


 1803              		.loc 1 343 30 discriminator 1 view .LVU572
 1804 006a 4C45     		cmp	r4, r9
 1805 006c F5DB     		blt	.L105
 343:Lib/lvgl/src/draw/sw/blend/lv_draw_sw_blend_to_rgb565.c ****                     lv_memcpy(dest_buf_u16, src_buf_u16, line_in_bytes);
 1806              		.loc 1 343 30 is_stmt 0 discriminator 1 view .LVU573
 1807 006e 03E1     		b	.L100
 1808              	.LVL223:
 1809              	.L107:
 343:Lib/lvgl/src/draw/sw/blend/lv_draw_sw_blend_to_rgb565.c ****                     lv_memcpy(dest_buf_u16, src_buf_u16, line_in_bytes);
 1810              		.loc 1 343 30 discriminator 1 view .LVU574
 1811              	.LBE101:
 354:Lib/lvgl/src/draw/sw/blend/lv_draw_sw_blend_to_rgb565.c ****                     }
 1812              		.loc 1 354 25 is_stmt 1 discriminator 3 view .LVU575
 354:Lib/lvgl/src/draw/sw/blend/lv_draw_sw_blend_to_rgb565.c ****                     }
 1813              		.loc 1 354 43 is_stmt 0 discriminator 3 view .LVU576
 1814 0070 5246     		mov	r2, r10
 1815 0072 35F81410 		ldrh	r1, [r5, r4, lsl #1]
 1816 0076 36F81400 		ldrh	r0, [r6, r4, lsl #1]
 1817 007a FFF7FEFF 		bl	lv_color_16_16_mix
 1818              	.LVL224:
 354:Lib/lvgl/src/draw/sw/blend/lv_draw_sw_blend_to_rgb565.c ****                     }
 1819              		.loc 1 354 41 discriminator 3 view .LVU577
 1820 007e 25F81400 		strh	r0, [r5, r4, lsl #1]	@ movhi
 353:Lib/lvgl/src/draw/sw/blend/lv_draw_sw_blend_to_rgb565.c ****                         dest_buf_u16[x] = lv_color_16_16_mix(src_buf_u16[x], dest_buf_u16[x], opa);
 1821              		.loc 1 353 40 is_stmt 1 discriminator 3 view .LVU578
 1822 0082 0134     		adds	r4, r4, #1
 1823              	.LVL225:
 1824              	.L108:
 353:Lib/lvgl/src/draw/sw/blend/lv_draw_sw_blend_to_rgb565.c ****                         dest_buf_u16[x] = lv_color_16_16_mix(src_buf_u16[x], dest_buf_u16[x], opa);
 1825              		.loc 1 353 34 discriminator 1 view .LVU579
 1826 0084 BC42     		cmp	r4, r7
 1827 0086 F3DB     		blt	.L107
 356:Lib/lvgl/src/draw/sw/blend/lv_draw_sw_blend_to_rgb565.c ****                     src_buf_u16 = drawbuf_next_row(src_buf_u16, src_stride);
 1828              		.loc 1 356 21 discriminator 2 view .LVU580
 1829              	.LVL226:
 1830              	.LBB106:
 1831              	.LBI106:
 670:Lib/lvgl/src/draw/sw/blend/lv_draw_sw_blend_to_rgb565.c **** {
 1832              		.loc 1 670 44 discriminator 2 view .LVU581
 1833              	.LBB107:
 1834              		.loc 1 672 5 discriminator 2 view .LVU582
 1835              		.loc 1 672 12 is_stmt 0 discriminator 2 view .LVU583
 1836 0088 009B     		ldr	r3, [sp]
 1837 008a 1D44     		add	r5, r5, r3
 1838              	.LVL227:
 1839              		.loc 1 672 12 discriminator 2 view .LVU584
 1840              	.LBE107:
 1841              	.LBE106:
 357:Lib/lvgl/src/draw/sw/blend/lv_draw_sw_blend_to_rgb565.c ****                 }
 1842              		.loc 1 357 21 is_stmt 1 discriminator 2 view .LVU585
 1843              	.LBB108:
 1844              	.LBI108:
 670:Lib/lvgl/src/draw/sw/blend/lv_draw_sw_blend_to_rgb565.c **** {
 1845              		.loc 1 670 44 discriminator 2 view .LVU586
 1846              	.LBB109:
 1847              		.loc 1 672 5 discriminator 2 view .LVU587
 1848              		.loc 1 672 12 is_stmt 0 discriminator 2 view .LVU588
ARM GAS  C:\Users\Alex\AppData\Local\Temp\ccUzeV0Q.s 			page 60


 1849 008c 5E44     		add	r6, r6, fp
 1850              	.LVL228:
 1851              		.loc 1 672 12 discriminator 2 view .LVU589
 1852              	.LBE109:
 1853              	.LBE108:
 352:Lib/lvgl/src/draw/sw/blend/lv_draw_sw_blend_to_rgb565.c ****                     for(x = 0; x < w; x++) {
 1854              		.loc 1 352 36 is_stmt 1 discriminator 2 view .LVU590
 1855 008e 08F10108 		add	r8, r8, #1
 1856              	.LVL229:
 1857              	.L103:
 352:Lib/lvgl/src/draw/sw/blend/lv_draw_sw_blend_to_rgb565.c ****                     for(x = 0; x < w; x++) {
 1858              		.loc 1 352 30 discriminator 1 view .LVU591
 1859 0092 C845     		cmp	r8, r9
 1860 0094 80F2F080 		bge	.L100
 353:Lib/lvgl/src/draw/sw/blend/lv_draw_sw_blend_to_rgb565.c ****                         dest_buf_u16[x] = lv_color_16_16_mix(src_buf_u16[x], dest_buf_u16[x], opa);
 1861              		.loc 1 353 27 is_stmt 0 view .LVU592
 1862 0098 0024     		movs	r4, #0
 1863 009a F3E7     		b	.L108
 1864              	.LVL230:
 1865              	.L126:
 352:Lib/lvgl/src/draw/sw/blend/lv_draw_sw_blend_to_rgb565.c ****                     for(x = 0; x < w; x++) {
 1866              		.loc 1 352 23 view .LVU593
 1867 009c 4FF00008 		mov	r8, #0
 1868              	.LVL231:
 352:Lib/lvgl/src/draw/sw/blend/lv_draw_sw_blend_to_rgb565.c ****                     for(x = 0; x < w; x++) {
 1869              		.loc 1 352 23 view .LVU594
 1870 00a0 DDF804B0 		ldr	fp, [sp, #4]
 1871 00a4 F5E7     		b	.L103
 1872              	.LVL232:
 1873              	.L135:
 367:Lib/lvgl/src/draw/sw/blend/lv_draw_sw_blend_to_rgb565.c ****                     src_buf_u16 = drawbuf_next_row(src_buf_u16, src_stride);
 1874              		.loc 1 367 21 is_stmt 1 discriminator 2 view .LVU595
 1875              	.LBB110:
 1876              	.LBI110:
 670:Lib/lvgl/src/draw/sw/blend/lv_draw_sw_blend_to_rgb565.c **** {
 1877              		.loc 1 670 44 discriminator 2 view .LVU596
 1878              	.LBB111:
 1879              		.loc 1 672 5 discriminator 2 view .LVU597
 1880              		.loc 1 672 12 is_stmt 0 discriminator 2 view .LVU598
 1881 00a6 009B     		ldr	r3, [sp]
 1882 00a8 1D44     		add	r5, r5, r3
 1883              	.LVL233:
 1884              		.loc 1 672 12 discriminator 2 view .LVU599
 1885              	.LBE111:
 1886              	.LBE110:
 368:Lib/lvgl/src/draw/sw/blend/lv_draw_sw_blend_to_rgb565.c ****                     mask_buf += mask_stride;
 1887              		.loc 1 368 21 is_stmt 1 discriminator 2 view .LVU600
 1888              	.LBB112:
 1889              	.LBI112:
 670:Lib/lvgl/src/draw/sw/blend/lv_draw_sw_blend_to_rgb565.c **** {
 1890              		.loc 1 670 44 discriminator 2 view .LVU601
 1891              	.LBB113:
 1892              		.loc 1 672 5 discriminator 2 view .LVU602
 1893              		.loc 1 672 12 is_stmt 0 discriminator 2 view .LVU603
 1894 00aa 019B     		ldr	r3, [sp, #4]
 1895 00ac 9B44     		add	fp, fp, r3
 1896              	.LVL234:
ARM GAS  C:\Users\Alex\AppData\Local\Temp\ccUzeV0Q.s 			page 61


 1897              		.loc 1 672 12 discriminator 2 view .LVU604
 1898              	.LBE113:
 1899              	.LBE112:
 369:Lib/lvgl/src/draw/sw/blend/lv_draw_sw_blend_to_rgb565.c ****                 }
 1900              		.loc 1 369 21 is_stmt 1 discriminator 2 view .LVU605
 369:Lib/lvgl/src/draw/sw/blend/lv_draw_sw_blend_to_rgb565.c ****                 }
 1901              		.loc 1 369 30 is_stmt 0 discriminator 2 view .LVU606
 1902 00ae 4644     		add	r6, r6, r8
 1903              	.LVL235:
 363:Lib/lvgl/src/draw/sw/blend/lv_draw_sw_blend_to_rgb565.c ****                     for(x = 0; x < w; x++) {
 1904              		.loc 1 363 36 is_stmt 1 discriminator 2 view .LVU607
 1905 00b0 0AF1010A 		add	r10, r10, #1
 1906              	.LVL236:
 1907              	.L110:
 363:Lib/lvgl/src/draw/sw/blend/lv_draw_sw_blend_to_rgb565.c ****                     for(x = 0; x < w; x++) {
 1908              		.loc 1 363 30 discriminator 1 view .LVU608
 1909 00b4 CA45     		cmp	r10, r9
 1910 00b6 80F2DF80 		bge	.L100
 364:Lib/lvgl/src/draw/sw/blend/lv_draw_sw_blend_to_rgb565.c ****                         dest_buf_u16[x] = lv_color_16_16_mix(src_buf_u16[x], dest_buf_u16[x], mask_
 1911              		.loc 1 364 27 is_stmt 0 view .LVU609
 1912 00ba 0024     		movs	r4, #0
 1913              	.L112:
 1914              	.LVL237:
 364:Lib/lvgl/src/draw/sw/blend/lv_draw_sw_blend_to_rgb565.c ****                         dest_buf_u16[x] = lv_color_16_16_mix(src_buf_u16[x], dest_buf_u16[x], mask_
 1915              		.loc 1 364 34 is_stmt 1 discriminator 1 view .LVU610
 1916 00bc BC42     		cmp	r4, r7
 1917 00be F2DA     		bge	.L135
 365:Lib/lvgl/src/draw/sw/blend/lv_draw_sw_blend_to_rgb565.c ****                     }
 1918              		.loc 1 365 25 discriminator 3 view .LVU611
 365:Lib/lvgl/src/draw/sw/blend/lv_draw_sw_blend_to_rgb565.c ****                     }
 1919              		.loc 1 365 43 is_stmt 0 discriminator 3 view .LVU612
 1920 00c0 325D     		ldrb	r2, [r6, r4]	@ zero_extendqisi2
 1921 00c2 35F81410 		ldrh	r1, [r5, r4, lsl #1]
 1922 00c6 3BF81400 		ldrh	r0, [fp, r4, lsl #1]
 1923 00ca FFF7FEFF 		bl	lv_color_16_16_mix
 1924              	.LVL238:
 365:Lib/lvgl/src/draw/sw/blend/lv_draw_sw_blend_to_rgb565.c ****                     }
 1925              		.loc 1 365 41 discriminator 3 view .LVU613
 1926 00ce 25F81400 		strh	r0, [r5, r4, lsl #1]	@ movhi
 364:Lib/lvgl/src/draw/sw/blend/lv_draw_sw_blend_to_rgb565.c ****                         dest_buf_u16[x] = lv_color_16_16_mix(src_buf_u16[x], dest_buf_u16[x], mask_
 1927              		.loc 1 364 40 is_stmt 1 discriminator 3 view .LVU614
 1928 00d2 0134     		adds	r4, r4, #1
 1929              	.LVL239:
 364:Lib/lvgl/src/draw/sw/blend/lv_draw_sw_blend_to_rgb565.c ****                         dest_buf_u16[x] = lv_color_16_16_mix(src_buf_u16[x], dest_buf_u16[x], mask_
 1930              		.loc 1 364 40 is_stmt 0 discriminator 3 view .LVU615
 1931 00d4 F2E7     		b	.L112
 1932              	.LVL240:
 1933              	.L129:
 363:Lib/lvgl/src/draw/sw/blend/lv_draw_sw_blend_to_rgb565.c ****                     for(x = 0; x < w; x++) {
 1934              		.loc 1 363 23 view .LVU616
 1935 00d6 4FF0000B 		mov	fp, #0
 1936 00da DA46     		mov	r10, fp
 1937              	.LVL241:
 363:Lib/lvgl/src/draw/sw/blend/lv_draw_sw_blend_to_rgb565.c ****                     for(x = 0; x < w; x++) {
 1938              		.loc 1 363 23 view .LVU617
 1939 00dc B346     		mov	fp, r6
 1940 00de 4646     		mov	r6, r8
ARM GAS  C:\Users\Alex\AppData\Local\Temp\ccUzeV0Q.s 			page 62


 1941              	.LVL242:
 363:Lib/lvgl/src/draw/sw/blend/lv_draw_sw_blend_to_rgb565.c ****                     for(x = 0; x < w; x++) {
 1942              		.loc 1 363 23 view .LVU618
 1943 00e0 9846     		mov	r8, r3
 1944              	.LVL243:
 363:Lib/lvgl/src/draw/sw/blend/lv_draw_sw_blend_to_rgb565.c ****                     for(x = 0; x < w; x++) {
 1945              		.loc 1 363 23 view .LVU619
 1946 00e2 E7E7     		b	.L110
 1947              	.LVL244:
 1948              	.L113:
 377:Lib/lvgl/src/draw/sw/blend/lv_draw_sw_blend_to_rgb565.c ****                     }
 1949              		.loc 1 377 25 is_stmt 1 discriminator 3 view .LVU620
 377:Lib/lvgl/src/draw/sw/blend/lv_draw_sw_blend_to_rgb565.c ****                     }
 1950              		.loc 1 377 95 is_stmt 0 discriminator 3 view .LVU621
 1951 00e4 18F80420 		ldrb	r2, [r8, r4]	@ zero_extendqisi2
 1952 00e8 02FB0AF2 		mul	r2, r2, r10
 377:Lib/lvgl/src/draw/sw/blend/lv_draw_sw_blend_to_rgb565.c ****                     }
 1953              		.loc 1 377 43 discriminator 3 view .LVU622
 1954 00ec 120A     		lsrs	r2, r2, #8
 1955 00ee 35F81410 		ldrh	r1, [r5, r4, lsl #1]
 1956 00f2 36F81400 		ldrh	r0, [r6, r4, lsl #1]
 1957 00f6 FFF7FEFF 		bl	lv_color_16_16_mix
 1958              	.LVL245:
 377:Lib/lvgl/src/draw/sw/blend/lv_draw_sw_blend_to_rgb565.c ****                     }
 1959              		.loc 1 377 41 discriminator 3 view .LVU623
 1960 00fa 25F81400 		strh	r0, [r5, r4, lsl #1]	@ movhi
 376:Lib/lvgl/src/draw/sw/blend/lv_draw_sw_blend_to_rgb565.c ****                         dest_buf_u16[x] = lv_color_16_16_mix(src_buf_u16[x], dest_buf_u16[x], LV_OP
 1961              		.loc 1 376 40 is_stmt 1 discriminator 3 view .LVU624
 1962 00fe 0134     		adds	r4, r4, #1
 1963              	.LVL246:
 1964              	.L115:
 376:Lib/lvgl/src/draw/sw/blend/lv_draw_sw_blend_to_rgb565.c ****                         dest_buf_u16[x] = lv_color_16_16_mix(src_buf_u16[x], dest_buf_u16[x], LV_OP
 1965              		.loc 1 376 34 discriminator 1 view .LVU625
 1966 0100 BC42     		cmp	r4, r7
 1967 0102 EFDB     		blt	.L113
 379:Lib/lvgl/src/draw/sw/blend/lv_draw_sw_blend_to_rgb565.c ****                     src_buf_u16 = drawbuf_next_row(src_buf_u16, src_stride);
 1968              		.loc 1 379 21 discriminator 2 view .LVU626
 1969              	.LVL247:
 1970              	.LBB114:
 1971              	.LBI114:
 670:Lib/lvgl/src/draw/sw/blend/lv_draw_sw_blend_to_rgb565.c **** {
 1972              		.loc 1 670 44 discriminator 2 view .LVU627
 1973              	.LBB115:
 1974              		.loc 1 672 5 discriminator 2 view .LVU628
 1975              		.loc 1 672 12 is_stmt 0 discriminator 2 view .LVU629
 1976 0104 009B     		ldr	r3, [sp]
 1977 0106 1D44     		add	r5, r5, r3
 1978              	.LVL248:
 1979              		.loc 1 672 12 discriminator 2 view .LVU630
 1980              	.LBE115:
 1981              	.LBE114:
 380:Lib/lvgl/src/draw/sw/blend/lv_draw_sw_blend_to_rgb565.c ****                     mask_buf += mask_stride;
 1982              		.loc 1 380 21 is_stmt 1 discriminator 2 view .LVU631
 1983              	.LBB116:
 1984              	.LBI116:
 670:Lib/lvgl/src/draw/sw/blend/lv_draw_sw_blend_to_rgb565.c **** {
 1985              		.loc 1 670 44 discriminator 2 view .LVU632
ARM GAS  C:\Users\Alex\AppData\Local\Temp\ccUzeV0Q.s 			page 63


 1986              	.LBB117:
 1987              		.loc 1 672 5 discriminator 2 view .LVU633
 1988              		.loc 1 672 12 is_stmt 0 discriminator 2 view .LVU634
 1989 0108 019B     		ldr	r3, [sp, #4]
 1990 010a 1E44     		add	r6, r6, r3
 1991              	.LVL249:
 1992              		.loc 1 672 12 discriminator 2 view .LVU635
 1993              	.LBE117:
 1994              	.LBE116:
 381:Lib/lvgl/src/draw/sw/blend/lv_draw_sw_blend_to_rgb565.c ****                 }
 1995              		.loc 1 381 21 is_stmt 1 discriminator 2 view .LVU636
 381:Lib/lvgl/src/draw/sw/blend/lv_draw_sw_blend_to_rgb565.c ****                 }
 1996              		.loc 1 381 30 is_stmt 0 discriminator 2 view .LVU637
 1997 010c 029B     		ldr	r3, [sp, #8]
 1998 010e 9844     		add	r8, r8, r3
 1999              	.LVL250:
 375:Lib/lvgl/src/draw/sw/blend/lv_draw_sw_blend_to_rgb565.c ****                     for(x = 0; x < w; x++) {
 2000              		.loc 1 375 36 is_stmt 1 discriminator 2 view .LVU638
 2001 0110 0BF1010B 		add	fp, fp, #1
 2002              	.LVL251:
 2003              	.L114:
 375:Lib/lvgl/src/draw/sw/blend/lv_draw_sw_blend_to_rgb565.c ****                     for(x = 0; x < w; x++) {
 2004              		.loc 1 375 30 discriminator 1 view .LVU639
 2005 0114 CB45     		cmp	fp, r9
 2006 0116 80F2AF80 		bge	.L100
 376:Lib/lvgl/src/draw/sw/blend/lv_draw_sw_blend_to_rgb565.c ****                         dest_buf_u16[x] = lv_color_16_16_mix(src_buf_u16[x], dest_buf_u16[x], LV_OP
 2007              		.loc 1 376 27 is_stmt 0 view .LVU640
 2008 011a 0024     		movs	r4, #0
 2009 011c F0E7     		b	.L115
 2010              	.LVL252:
 2011              	.L128:
 376:Lib/lvgl/src/draw/sw/blend/lv_draw_sw_blend_to_rgb565.c ****                         dest_buf_u16[x] = lv_color_16_16_mix(src_buf_u16[x], dest_buf_u16[x], LV_OP
 2012              		.loc 1 376 27 view .LVU641
 2013 011e 4FF0000B 		mov	fp, #0
 2014 0122 0293     		str	r3, [sp, #8]
 2015 0124 F6E7     		b	.L114
 2016              	.LVL253:
 2017              	.L138:
 2018              	.LBB118:
 2019              	.LBB119:
 394:Lib/lvgl/src/draw/sw/blend/lv_draw_sw_blend_to_rgb565.c ****                         res = (LV_MIN(dest_buf_c16[x].red + src_buf_c16[x].red, 31)) << 11;
 2020              		.loc 1 394 25 is_stmt 1 view .LVU642
 394:Lib/lvgl/src/draw/sw/blend/lv_draw_sw_blend_to_rgb565.c ****                         res = (LV_MIN(dest_buf_c16[x].red + src_buf_c16[x].red, 31)) << 11;
 2021              		.loc 1 394 39 is_stmt 0 view .LVU643
 2022 0126 6300     		lsls	r3, r4, #1
 2023 0128 06EB4401 		add	r1, r6, r4, lsl #1
 2024 012c 36F81420 		ldrh	r2, [r6, r4, lsl #1]
 394:Lib/lvgl/src/draw/sw/blend/lv_draw_sw_blend_to_rgb565.c ****                         res = (LV_MIN(dest_buf_c16[x].red + src_buf_c16[x].red, 31)) << 11;
 2025              		.loc 1 394 27 view .LVU644
 2026 0130 002A     		cmp	r2, #0
 2027 0132 00F09580 		beq	.L118
 395:Lib/lvgl/src/draw/sw/blend/lv_draw_sw_blend_to_rgb565.c ****                         res += (LV_MIN(dest_buf_c16[x].green + src_buf_c16[x].green, 63)) << 5;
 2028              		.loc 1 395 25 is_stmt 1 view .LVU645
 395:Lib/lvgl/src/draw/sw/blend/lv_draw_sw_blend_to_rgb565.c ****                         res += (LV_MIN(dest_buf_c16[x].green + src_buf_c16[x].green, 63)) << 5;
 2029              		.loc 1 395 32 is_stmt 0 view .LVU646
 2030 0136 2B44     		add	r3, r3, r5
 2031 0138 5A78     		ldrb	r2, [r3, #1]	@ zero_extendqisi2
ARM GAS  C:\Users\Alex\AppData\Local\Temp\ccUzeV0Q.s 			page 64


 2032 013a 4B78     		ldrb	r3, [r1, #1]	@ zero_extendqisi2
 2033 013c DB08     		lsrs	r3, r3, #3
 2034 013e 03EBD203 		add	r3, r3, r2, lsr #3
 395:Lib/lvgl/src/draw/sw/blend/lv_draw_sw_blend_to_rgb565.c ****                         res += (LV_MIN(dest_buf_c16[x].green + src_buf_c16[x].green, 63)) << 5;
 2035              		.loc 1 395 86 view .LVU647
 2036 0142 1F2B     		cmp	r3, #31
 2037 0144 A8BF     		it	ge
 2038 0146 1F23     		movge	r3, #31
 395:Lib/lvgl/src/draw/sw/blend/lv_draw_sw_blend_to_rgb565.c ****                         res += (LV_MIN(dest_buf_c16[x].green + src_buf_c16[x].green, 63)) << 5;
 2039              		.loc 1 395 29 view .LVU648
 2040 0148 DB02     		lsls	r3, r3, #11
 2041 014a 9BB2     		uxth	r3, r3
 2042              	.LVL254:
 396:Lib/lvgl/src/draw/sw/blend/lv_draw_sw_blend_to_rgb565.c ****                         res += LV_MIN(dest_buf_c16[x].blue + src_buf_c16[x].blue, 31);
 2043              		.loc 1 396 25 is_stmt 1 view .LVU649
 396:Lib/lvgl/src/draw/sw/blend/lv_draw_sw_blend_to_rgb565.c ****                         res += LV_MIN(dest_buf_c16[x].blue + src_buf_c16[x].blue, 31);
 2044              		.loc 1 396 33 is_stmt 0 view .LVU650
 2045 014c 35F81400 		ldrh	r0, [r5, r4, lsl #1]
 2046 0150 C0F34510 		ubfx	r0, r0, #5, #6
 2047 0154 36F81420 		ldrh	r2, [r6, r4, lsl #1]
 2048 0158 C2F34512 		ubfx	r2, r2, #5, #6
 2049 015c 1044     		add	r0, r0, r2
 2050 015e 3F28     		cmp	r0, #63
 2051 0160 A8BF     		it	ge
 2052 0162 3F20     		movge	r0, #63
 396:Lib/lvgl/src/draw/sw/blend/lv_draw_sw_blend_to_rgb565.c ****                         res += LV_MIN(dest_buf_c16[x].blue + src_buf_c16[x].blue, 31);
 2053              		.loc 1 396 91 view .LVU651
 2054 0164 4001     		lsls	r0, r0, #5
 2055 0166 80B2     		uxth	r0, r0
 396:Lib/lvgl/src/draw/sw/blend/lv_draw_sw_blend_to_rgb565.c ****                         res += LV_MIN(dest_buf_c16[x].blue + src_buf_c16[x].blue, 31);
 2056              		.loc 1 396 29 view .LVU652
 2057 0168 1844     		add	r0, r0, r3
 2058 016a 80B2     		uxth	r0, r0
 2059              	.LVL255:
 397:Lib/lvgl/src/draw/sw/blend/lv_draw_sw_blend_to_rgb565.c ****                         break;
 2060              		.loc 1 397 25 is_stmt 1 view .LVU653
 397:Lib/lvgl/src/draw/sw/blend/lv_draw_sw_blend_to_rgb565.c ****                         break;
 2061              		.loc 1 397 32 is_stmt 0 view .LVU654
 2062 016c 15F81430 		ldrb	r3, [r5, r4, lsl #1]	@ zero_extendqisi2
 2063 0170 03F01F03 		and	r3, r3, #31
 2064 0174 16F81420 		ldrb	r2, [r6, r4, lsl #1]	@ zero_extendqisi2
 2065 0178 02F01F02 		and	r2, r2, #31
 2066 017c 1344     		add	r3, r3, r2
 397:Lib/lvgl/src/draw/sw/blend/lv_draw_sw_blend_to_rgb565.c ****                         break;
 2067              		.loc 1 397 29 view .LVU655
 2068 017e 1F2B     		cmp	r3, #31
 2069 0180 D4BF     		ite	le
 2070 0182 C018     		addle	r0, r0, r3
 2071 0184 1F30     		addgt	r0, r0, #31
 2072              	.LVL256:
 397:Lib/lvgl/src/draw/sw/blend/lv_draw_sw_blend_to_rgb565.c ****                         break;
 2073              		.loc 1 397 29 view .LVU656
 2074 0186 80B2     		uxth	r0, r0
 2075              	.LVL257:
 398:Lib/lvgl/src/draw/sw/blend/lv_draw_sw_blend_to_rgb565.c ****                     case LV_BLEND_MODE_SUBTRACTIVE:
 2076              		.loc 1 398 25 is_stmt 1 view .LVU657
 2077 0188 5CE0     		b	.L119
ARM GAS  C:\Users\Alex\AppData\Local\Temp\ccUzeV0Q.s 			page 65


 2078              	.LVL258:
 2079              	.L116:
 400:Lib/lvgl/src/draw/sw/blend/lv_draw_sw_blend_to_rgb565.c ****                         res = (LV_MAX(dest_buf_c16[x].red - src_buf_c16[x].red, 0)) << 11;
 2080              		.loc 1 400 25 view .LVU658
 400:Lib/lvgl/src/draw/sw/blend/lv_draw_sw_blend_to_rgb565.c ****                         res = (LV_MAX(dest_buf_c16[x].red - src_buf_c16[x].red, 0)) << 11;
 2081              		.loc 1 400 39 is_stmt 0 view .LVU659
 2082 018a 6300     		lsls	r3, r4, #1
 2083 018c 06EB4401 		add	r1, r6, r4, lsl #1
 2084 0190 36F81420 		ldrh	r2, [r6, r4, lsl #1]
 400:Lib/lvgl/src/draw/sw/blend/lv_draw_sw_blend_to_rgb565.c ****                         res = (LV_MAX(dest_buf_c16[x].red - src_buf_c16[x].red, 0)) << 11;
 2085              		.loc 1 400 27 view .LVU660
 2086 0194 002A     		cmp	r2, #0
 2087 0196 63D0     		beq	.L118
 401:Lib/lvgl/src/draw/sw/blend/lv_draw_sw_blend_to_rgb565.c ****                         res += (LV_MAX(dest_buf_c16[x].green - src_buf_c16[x].green, 0)) << 5;
 2088              		.loc 1 401 25 is_stmt 1 view .LVU661
 401:Lib/lvgl/src/draw/sw/blend/lv_draw_sw_blend_to_rgb565.c ****                         res += (LV_MAX(dest_buf_c16[x].green - src_buf_c16[x].green, 0)) << 5;
 2089              		.loc 1 401 32 is_stmt 0 view .LVU662
 2090 0198 2B44     		add	r3, r3, r5
 2091 019a 5A78     		ldrb	r2, [r3, #1]	@ zero_extendqisi2
 2092 019c 4B78     		ldrb	r3, [r1, #1]	@ zero_extendqisi2
 2093 019e DB08     		lsrs	r3, r3, #3
 2094 01a0 C3EBD203 		rsb	r3, r3, r2, lsr #3
 2095 01a4 23EAE373 		bic	r3, r3, r3, asr #31
 401:Lib/lvgl/src/draw/sw/blend/lv_draw_sw_blend_to_rgb565.c ****                         res += (LV_MAX(dest_buf_c16[x].green - src_buf_c16[x].green, 0)) << 5;
 2096              		.loc 1 401 85 view .LVU663
 2097 01a8 9BB2     		uxth	r3, r3
 401:Lib/lvgl/src/draw/sw/blend/lv_draw_sw_blend_to_rgb565.c ****                         res += (LV_MAX(dest_buf_c16[x].green - src_buf_c16[x].green, 0)) << 5;
 2098              		.loc 1 401 29 view .LVU664
 2099 01aa DB02     		lsls	r3, r3, #11
 2100 01ac 9BB2     		uxth	r3, r3
 2101              	.LVL259:
 402:Lib/lvgl/src/draw/sw/blend/lv_draw_sw_blend_to_rgb565.c ****                         res += LV_MAX(dest_buf_c16[x].blue - src_buf_c16[x].blue, 0);
 2102              		.loc 1 402 25 is_stmt 1 view .LVU665
 402:Lib/lvgl/src/draw/sw/blend/lv_draw_sw_blend_to_rgb565.c ****                         res += LV_MAX(dest_buf_c16[x].blue - src_buf_c16[x].blue, 0);
 2103              		.loc 1 402 33 is_stmt 0 view .LVU666
 2104 01ae 35F81400 		ldrh	r0, [r5, r4, lsl #1]
 2105 01b2 C0F34510 		ubfx	r0, r0, #5, #6
 2106 01b6 36F81420 		ldrh	r2, [r6, r4, lsl #1]
 2107 01ba C2F34512 		ubfx	r2, r2, #5, #6
 2108 01be 801A     		subs	r0, r0, r2
 2109 01c0 20EAE070 		bic	r0, r0, r0, asr #31
 402:Lib/lvgl/src/draw/sw/blend/lv_draw_sw_blend_to_rgb565.c ****                         res += LV_MAX(dest_buf_c16[x].blue - src_buf_c16[x].blue, 0);
 2110              		.loc 1 402 90 view .LVU667
 2111 01c4 4001     		lsls	r0, r0, #5
 2112 01c6 80B2     		uxth	r0, r0
 402:Lib/lvgl/src/draw/sw/blend/lv_draw_sw_blend_to_rgb565.c ****                         res += LV_MAX(dest_buf_c16[x].blue - src_buf_c16[x].blue, 0);
 2113              		.loc 1 402 29 view .LVU668
 2114 01c8 1844     		add	r0, r0, r3
 2115 01ca 80B2     		uxth	r0, r0
 2116              	.LVL260:
 403:Lib/lvgl/src/draw/sw/blend/lv_draw_sw_blend_to_rgb565.c ****                         break;
 2117              		.loc 1 403 25 is_stmt 1 view .LVU669
 403:Lib/lvgl/src/draw/sw/blend/lv_draw_sw_blend_to_rgb565.c ****                         break;
 2118              		.loc 1 403 32 is_stmt 0 view .LVU670
 2119 01cc 15F81430 		ldrb	r3, [r5, r4, lsl #1]	@ zero_extendqisi2
 2120 01d0 03F01F03 		and	r3, r3, #31
 2121 01d4 16F81420 		ldrb	r2, [r6, r4, lsl #1]	@ zero_extendqisi2
ARM GAS  C:\Users\Alex\AppData\Local\Temp\ccUzeV0Q.s 			page 66


 2122 01d8 02F01F02 		and	r2, r2, #31
 2123 01dc 9B1A     		subs	r3, r3, r2
 403:Lib/lvgl/src/draw/sw/blend/lv_draw_sw_blend_to_rgb565.c ****                         break;
 2124              		.loc 1 403 29 view .LVU671
 2125 01de 002B     		cmp	r3, #0
 2126 01e0 A8BF     		it	ge
 2127 01e2 C018     		addge	r0, r0, r3
 2128              	.LVL261:
 403:Lib/lvgl/src/draw/sw/blend/lv_draw_sw_blend_to_rgb565.c ****                         break;
 2129              		.loc 1 403 29 view .LVU672
 2130 01e4 80B2     		uxth	r0, r0
 2131              	.LVL262:
 404:Lib/lvgl/src/draw/sw/blend/lv_draw_sw_blend_to_rgb565.c ****                     case LV_BLEND_MODE_MULTIPLY:
 2132              		.loc 1 404 25 is_stmt 1 view .LVU673
 2133 01e6 2DE0     		b	.L119
 2134              	.LVL263:
 2135              	.L117:
 406:Lib/lvgl/src/draw/sw/blend/lv_draw_sw_blend_to_rgb565.c ****                         res = ((dest_buf_c16[x].red * src_buf_c16[x].red) >> 5) << 11;
 2136              		.loc 1 406 25 view .LVU674
 406:Lib/lvgl/src/draw/sw/blend/lv_draw_sw_blend_to_rgb565.c ****                         res = ((dest_buf_c16[x].red * src_buf_c16[x].red) >> 5) << 11;
 2137              		.loc 1 406 39 is_stmt 0 view .LVU675
 2138 01e8 6300     		lsls	r3, r4, #1
 2139 01ea 06EB4401 		add	r1, r6, r4, lsl #1
 2140 01ee 36F81400 		ldrh	r0, [r6, r4, lsl #1]
 406:Lib/lvgl/src/draw/sw/blend/lv_draw_sw_blend_to_rgb565.c ****                         res = ((dest_buf_c16[x].red * src_buf_c16[x].red) >> 5) << 11;
 2141              		.loc 1 406 27 view .LVU676
 2142 01f2 4FF6FF72 		movw	r2, #65535
 2143 01f6 9042     		cmp	r0, r2
 2144 01f8 32D0     		beq	.L118
 407:Lib/lvgl/src/draw/sw/blend/lv_draw_sw_blend_to_rgb565.c ****                         res += ((dest_buf_c16[x].green * src_buf_c16[x].green) >> 6) << 5;
 2145              		.loc 1 407 25 is_stmt 1 view .LVU677
 407:Lib/lvgl/src/draw/sw/blend/lv_draw_sw_blend_to_rgb565.c ****                         res += ((dest_buf_c16[x].green * src_buf_c16[x].green) >> 6) << 5;
 2146              		.loc 1 407 45 is_stmt 0 view .LVU678
 2147 01fa 2B44     		add	r3, r3, r5
 407:Lib/lvgl/src/draw/sw/blend/lv_draw_sw_blend_to_rgb565.c ****                         res += ((dest_buf_c16[x].green * src_buf_c16[x].green) >> 6) << 5;
 2148              		.loc 1 407 48 view .LVU679
 2149 01fc 5B78     		ldrb	r3, [r3, #1]	@ zero_extendqisi2
 2150 01fe DB08     		lsrs	r3, r3, #3
 407:Lib/lvgl/src/draw/sw/blend/lv_draw_sw_blend_to_rgb565.c ****                         res += ((dest_buf_c16[x].green * src_buf_c16[x].green) >> 6) << 5;
 2151              		.loc 1 407 69 view .LVU680
 2152 0200 4A78     		ldrb	r2, [r1, #1]	@ zero_extendqisi2
 2153 0202 D208     		lsrs	r2, r2, #3
 407:Lib/lvgl/src/draw/sw/blend/lv_draw_sw_blend_to_rgb565.c ****                         res += ((dest_buf_c16[x].green * src_buf_c16[x].green) >> 6) << 5;
 2154              		.loc 1 407 53 view .LVU681
 2155 0204 02FB03F3 		mul	r3, r2, r3
 407:Lib/lvgl/src/draw/sw/blend/lv_draw_sw_blend_to_rgb565.c ****                         res += ((dest_buf_c16[x].green * src_buf_c16[x].green) >> 6) << 5;
 2156              		.loc 1 407 81 view .LVU682
 2157 0208 5B09     		lsrs	r3, r3, #5
 2158              	.LVL264:
 408:Lib/lvgl/src/draw/sw/blend/lv_draw_sw_blend_to_rgb565.c ****                         res += (dest_buf_c16[x].blue * src_buf_c16[x].blue) >> 5;
 2159              		.loc 1 408 25 is_stmt 1 view .LVU683
 408:Lib/lvgl/src/draw/sw/blend/lv_draw_sw_blend_to_rgb565.c ****                         res += (dest_buf_c16[x].blue * src_buf_c16[x].blue) >> 5;
 2160              		.loc 1 408 49 is_stmt 0 view .LVU684
 2161 020a 35F81400 		ldrh	r0, [r5, r4, lsl #1]
 2162 020e C0F34510 		ubfx	r0, r0, #5, #6
 408:Lib/lvgl/src/draw/sw/blend/lv_draw_sw_blend_to_rgb565.c ****                         res += (dest_buf_c16[x].blue * src_buf_c16[x].blue) >> 5;
 2163              		.loc 1 408 72 view .LVU685
ARM GAS  C:\Users\Alex\AppData\Local\Temp\ccUzeV0Q.s 			page 67


 2164 0212 36F81420 		ldrh	r2, [r6, r4, lsl #1]
 2165 0216 C2F34512 		ubfx	r2, r2, #5, #6
 408:Lib/lvgl/src/draw/sw/blend/lv_draw_sw_blend_to_rgb565.c ****                         res += (dest_buf_c16[x].blue * src_buf_c16[x].blue) >> 5;
 2166              		.loc 1 408 56 view .LVU686
 2167 021a 02FB00F0 		mul	r0, r2, r0
 408:Lib/lvgl/src/draw/sw/blend/lv_draw_sw_blend_to_rgb565.c ****                         res += (dest_buf_c16[x].blue * src_buf_c16[x].blue) >> 5;
 2168              		.loc 1 408 80 view .LVU687
 2169 021e 8011     		asrs	r0, r0, #6
 408:Lib/lvgl/src/draw/sw/blend/lv_draw_sw_blend_to_rgb565.c ****                         res += (dest_buf_c16[x].blue * src_buf_c16[x].blue) >> 5;
 2170              		.loc 1 408 86 view .LVU688
 2171 0220 4001     		lsls	r0, r0, #5
 2172 0222 80B2     		uxth	r0, r0
 408:Lib/lvgl/src/draw/sw/blend/lv_draw_sw_blend_to_rgb565.c ****                         res += (dest_buf_c16[x].blue * src_buf_c16[x].blue) >> 5;
 2173              		.loc 1 408 29 view .LVU689
 2174 0224 00EBC320 		add	r0, r0, r3, lsl #11
 2175 0228 80B2     		uxth	r0, r0
 2176              	.LVL265:
 409:Lib/lvgl/src/draw/sw/blend/lv_draw_sw_blend_to_rgb565.c ****                         break;
 2177              		.loc 1 409 25 is_stmt 1 view .LVU690
 409:Lib/lvgl/src/draw/sw/blend/lv_draw_sw_blend_to_rgb565.c ****                         break;
 2178              		.loc 1 409 48 is_stmt 0 view .LVU691
 2179 022a 15F81430 		ldrb	r3, [r5, r4, lsl #1]	@ zero_extendqisi2
 2180 022e 03F01F03 		and	r3, r3, #31
 409:Lib/lvgl/src/draw/sw/blend/lv_draw_sw_blend_to_rgb565.c ****                         break;
 2181              		.loc 1 409 70 view .LVU692
 2182 0232 16F81420 		ldrb	r2, [r6, r4, lsl #1]	@ zero_extendqisi2
 2183 0236 02F01F02 		and	r2, r2, #31
 409:Lib/lvgl/src/draw/sw/blend/lv_draw_sw_blend_to_rgb565.c ****                         break;
 2184              		.loc 1 409 54 view .LVU693
 2185 023a 02FB03F3 		mul	r3, r2, r3
 409:Lib/lvgl/src/draw/sw/blend/lv_draw_sw_blend_to_rgb565.c ****                         break;
 2186              		.loc 1 409 29 view .LVU694
 2187 023e 00EB6310 		add	r0, r0, r3, asr #5
 2188              	.LVL266:
 409:Lib/lvgl/src/draw/sw/blend/lv_draw_sw_blend_to_rgb565.c ****                         break;
 2189              		.loc 1 409 29 view .LVU695
 2190 0242 80B2     		uxth	r0, r0
 2191              	.LVL267:
 410:Lib/lvgl/src/draw/sw/blend/lv_draw_sw_blend_to_rgb565.c ****                     default:
 2192              		.loc 1 410 25 is_stmt 1 view .LVU696
 2193              	.L119:
 416:Lib/lvgl/src/draw/sw/blend/lv_draw_sw_blend_to_rgb565.c ****                     dest_buf_u16[x] = lv_color_16_16_mix(res, dest_buf_u16[x], opa);
 2194              		.loc 1 416 17 view .LVU697
 416:Lib/lvgl/src/draw/sw/blend/lv_draw_sw_blend_to_rgb565.c ****                     dest_buf_u16[x] = lv_color_16_16_mix(res, dest_buf_u16[x], opa);
 2195              		.loc 1 416 19 is_stmt 0 view .LVU698
 2196 0244 B8F1000F 		cmp	r8, #0
 2197 0248 19D0     		beq	.L136
 420:Lib/lvgl/src/draw/sw/blend/lv_draw_sw_blend_to_rgb565.c ****                     else dest_buf_u16[x] = lv_color_16_16_mix(res, dest_buf_u16[x], LV_OPA_MIX2(mas
 2198              		.loc 1 420 21 is_stmt 1 view .LVU699
 420:Lib/lvgl/src/draw/sw/blend/lv_draw_sw_blend_to_rgb565.c ****                     else dest_buf_u16[x] = lv_color_16_16_mix(res, dest_buf_u16[x], LV_OPA_MIX2(mas
 2199              		.loc 1 420 23 is_stmt 0 view .LVU700
 2200 024a BAF1FC0F 		cmp	r10, #252
 2201 024e 1ED9     		bls	.L121
 420:Lib/lvgl/src/draw/sw/blend/lv_draw_sw_blend_to_rgb565.c ****                     else dest_buf_u16[x] = lv_color_16_16_mix(res, dest_buf_u16[x], LV_OPA_MIX2(mas
 2202              		.loc 1 420 43 is_stmt 1 discriminator 1 view .LVU701
 420:Lib/lvgl/src/draw/sw/blend/lv_draw_sw_blend_to_rgb565.c ****                     else dest_buf_u16[x] = lv_color_16_16_mix(res, dest_buf_u16[x], LV_OPA_MIX2(mas
 2203              		.loc 1 420 61 is_stmt 0 discriminator 1 view .LVU702
ARM GAS  C:\Users\Alex\AppData\Local\Temp\ccUzeV0Q.s 			page 68


 2204 0250 18F80420 		ldrb	r2, [r8, r4]	@ zero_extendqisi2
 2205 0254 35F81410 		ldrh	r1, [r5, r4, lsl #1]
 2206 0258 FFF7FEFF 		bl	lv_color_16_16_mix
 2207              	.LVL268:
 420:Lib/lvgl/src/draw/sw/blend/lv_draw_sw_blend_to_rgb565.c ****                     else dest_buf_u16[x] = lv_color_16_16_mix(res, dest_buf_u16[x], LV_OPA_MIX2(mas
 2208              		.loc 1 420 59 discriminator 1 view .LVU703
 2209 025c 25F81400 		strh	r0, [r5, r4, lsl #1]	@ movhi
 2210              	.LVL269:
 2211              	.L118:
 391:Lib/lvgl/src/draw/sw/blend/lv_draw_sw_blend_to_rgb565.c ****                 switch(dsc->blend_mode) {
 2212              		.loc 1 391 32 is_stmt 1 discriminator 2 view .LVU704
 2213 0260 0134     		adds	r4, r4, #1
 2214              	.LVL270:
 2215              	.L124:
 391:Lib/lvgl/src/draw/sw/blend/lv_draw_sw_blend_to_rgb565.c ****                 switch(dsc->blend_mode) {
 2216              		.loc 1 391 26 discriminator 1 view .LVU705
 2217 0262 BC42     		cmp	r4, r7
 2218 0264 1FDA     		bge	.L137
 392:Lib/lvgl/src/draw/sw/blend/lv_draw_sw_blend_to_rgb565.c ****                     case LV_BLEND_MODE_ADDITIVE:
 2219              		.loc 1 392 17 view .LVU706
 392:Lib/lvgl/src/draw/sw/blend/lv_draw_sw_blend_to_rgb565.c ****                     case LV_BLEND_MODE_ADDITIVE:
 2220              		.loc 1 392 27 is_stmt 0 view .LVU707
 2221 0266 9BF82230 		ldrb	r3, [fp, #34]	@ zero_extendqisi2
 392:Lib/lvgl/src/draw/sw/blend/lv_draw_sw_blend_to_rgb565.c ****                     case LV_BLEND_MODE_ADDITIVE:
 2222              		.loc 1 392 17 view .LVU708
 2223 026a 022B     		cmp	r3, #2
 2224 026c 8DD0     		beq	.L116
 2225 026e 032B     		cmp	r3, #3
 2226 0270 BAD0     		beq	.L117
 2227 0272 012B     		cmp	r3, #1
 2228 0274 3FF457AF 		beq	.L138
 2229              	.LVL271:
 2230              	.L100:
 392:Lib/lvgl/src/draw/sw/blend/lv_draw_sw_blend_to_rgb565.c ****                     case LV_BLEND_MODE_ADDITIVE:
 2231              		.loc 1 392 17 view .LVU709
 2232              	.LBE119:
 2233              	.LBE118:
 430:Lib/lvgl/src/draw/sw/blend/lv_draw_sw_blend_to_rgb565.c **** 
 2234              		.loc 1 430 1 view .LVU710
 2235 0278 05B0     		add	sp, sp, #20
 2236              	.LCFI12:
 2237              		.cfi_remember_state
 2238              		.cfi_def_cfa_offset 36
 2239              	.LVL272:
 430:Lib/lvgl/src/draw/sw/blend/lv_draw_sw_blend_to_rgb565.c **** 
 2240              		.loc 1 430 1 view .LVU711
 2241              		@ sp needed
 2242 027a BDE8F08F 		pop	{r4, r5, r6, r7, r8, r9, r10, fp, pc}
 2243              	.LVL273:
 2244              	.L136:
 2245              	.LCFI13:
 2246              		.cfi_restore_state
 2247              	.LBB128:
 2248              	.LBB126:
 417:Lib/lvgl/src/draw/sw/blend/lv_draw_sw_blend_to_rgb565.c ****                 }
 2249              		.loc 1 417 21 is_stmt 1 view .LVU712
 417:Lib/lvgl/src/draw/sw/blend/lv_draw_sw_blend_to_rgb565.c ****                 }
ARM GAS  C:\Users\Alex\AppData\Local\Temp\ccUzeV0Q.s 			page 69


 2250              		.loc 1 417 39 is_stmt 0 view .LVU713
 2251 027e 5246     		mov	r2, r10
 2252 0280 35F81410 		ldrh	r1, [r5, r4, lsl #1]
 2253 0284 FFF7FEFF 		bl	lv_color_16_16_mix
 2254              	.LVL274:
 417:Lib/lvgl/src/draw/sw/blend/lv_draw_sw_blend_to_rgb565.c ****                 }
 2255              		.loc 1 417 37 view .LVU714
 2256 0288 25F81400 		strh	r0, [r5, r4, lsl #1]	@ movhi
 2257 028c E8E7     		b	.L118
 2258              	.LVL275:
 2259              	.L121:
 421:Lib/lvgl/src/draw/sw/blend/lv_draw_sw_blend_to_rgb565.c ****                 }
 2260              		.loc 1 421 26 is_stmt 1 view .LVU715
 421:Lib/lvgl/src/draw/sw/blend/lv_draw_sw_blend_to_rgb565.c ****                 }
 2261              		.loc 1 421 85 is_stmt 0 view .LVU716
 2262 028e 18F80420 		ldrb	r2, [r8, r4]	@ zero_extendqisi2
 2263 0292 02FB0AF2 		mul	r2, r2, r10
 421:Lib/lvgl/src/draw/sw/blend/lv_draw_sw_blend_to_rgb565.c ****                 }
 2264              		.loc 1 421 44 view .LVU717
 2265 0296 120A     		lsrs	r2, r2, #8
 2266 0298 35F81410 		ldrh	r1, [r5, r4, lsl #1]
 2267 029c FFF7FEFF 		bl	lv_color_16_16_mix
 2268              	.LVL276:
 421:Lib/lvgl/src/draw/sw/blend/lv_draw_sw_blend_to_rgb565.c ****                 }
 2269              		.loc 1 421 42 view .LVU718
 2270 02a0 25F81400 		strh	r0, [r5, r4, lsl #1]	@ movhi
 2271 02a4 DCE7     		b	.L118
 2272              	.LVL277:
 2273              	.L137:
 2274              	.LBB120:
 2275              	.LBB121:
 2276              		.loc 1 672 12 view .LVU719
 2277 02a6 4946     		mov	r1, r9
 2278 02a8 DDF80890 		ldr	r9, [sp, #8]
 2279              	.LVL278:
 2280              		.loc 1 672 12 view .LVU720
 2281              	.LBE121:
 2282              	.LBE120:
 425:Lib/lvgl/src/draw/sw/blend/lv_draw_sw_blend_to_rgb565.c ****             src_buf_u16 = drawbuf_next_row(src_buf_u16, src_stride);
 2283              		.loc 1 425 13 is_stmt 1 view .LVU721
 2284              	.LBB123:
 2285              	.LBI120:
 670:Lib/lvgl/src/draw/sw/blend/lv_draw_sw_blend_to_rgb565.c **** {
 2286              		.loc 1 670 44 view .LVU722
 2287              	.LBB122:
 2288              		.loc 1 672 5 view .LVU723
 2289              		.loc 1 672 12 is_stmt 0 view .LVU724
 2290 02ac 009B     		ldr	r3, [sp]
 2291 02ae 1D44     		add	r5, r5, r3
 2292              	.LVL279:
 2293              		.loc 1 672 12 view .LVU725
 2294              	.LBE122:
 2295              	.LBE123:
 426:Lib/lvgl/src/draw/sw/blend/lv_draw_sw_blend_to_rgb565.c ****             if(mask_buf) mask_buf += mask_stride;
 2296              		.loc 1 426 13 is_stmt 1 view .LVU726
 2297              	.LBB124:
 2298              	.LBI124:
ARM GAS  C:\Users\Alex\AppData\Local\Temp\ccUzeV0Q.s 			page 70


 670:Lib/lvgl/src/draw/sw/blend/lv_draw_sw_blend_to_rgb565.c **** {
 2299              		.loc 1 670 44 view .LVU727
 2300              	.LBB125:
 2301              		.loc 1 672 5 view .LVU728
 2302              		.loc 1 672 12 is_stmt 0 view .LVU729
 2303 02b0 019B     		ldr	r3, [sp, #4]
 2304 02b2 1E44     		add	r6, r6, r3
 2305              	.LVL280:
 2306              		.loc 1 672 12 view .LVU730
 2307              	.LBE125:
 2308              	.LBE124:
 427:Lib/lvgl/src/draw/sw/blend/lv_draw_sw_blend_to_rgb565.c ****         }
 2309              		.loc 1 427 13 is_stmt 1 view .LVU731
 427:Lib/lvgl/src/draw/sw/blend/lv_draw_sw_blend_to_rgb565.c ****         }
 2310              		.loc 1 427 15 is_stmt 0 view .LVU732
 2311 02b4 B8F1000F 		cmp	r8, #0
 2312 02b8 01D0     		beq	.L123
 427:Lib/lvgl/src/draw/sw/blend/lv_draw_sw_blend_to_rgb565.c ****         }
 2313              		.loc 1 427 26 is_stmt 1 discriminator 1 view .LVU733
 427:Lib/lvgl/src/draw/sw/blend/lv_draw_sw_blend_to_rgb565.c ****         }
 2314              		.loc 1 427 35 is_stmt 0 discriminator 1 view .LVU734
 2315 02ba 039B     		ldr	r3, [sp, #12]
 2316 02bc 9844     		add	r8, r8, r3
 2317              	.LVL281:
 2318              	.L123:
 427:Lib/lvgl/src/draw/sw/blend/lv_draw_sw_blend_to_rgb565.c ****         }
 2319              		.loc 1 427 35 discriminator 1 view .LVU735
 2320              	.LBE126:
 388:Lib/lvgl/src/draw/sw/blend/lv_draw_sw_blend_to_rgb565.c ****             lv_color16_t * dest_buf_c16 = (lv_color16_t *) dest_buf_u16;
 2321              		.loc 1 388 28 is_stmt 1 discriminator 2 view .LVU736
 2322 02be 09F10109 		add	r9, r9, #1
 2323              	.LVL282:
 388:Lib/lvgl/src/draw/sw/blend/lv_draw_sw_blend_to_rgb565.c ****             lv_color16_t * dest_buf_c16 = (lv_color16_t *) dest_buf_u16;
 2324              		.loc 1 388 28 is_stmt 0 discriminator 2 view .LVU737
 2325 02c2 05E0     		b	.L101
 2326              	.LVL283:
 2327              	.L125:
 388:Lib/lvgl/src/draw/sw/blend/lv_draw_sw_blend_to_rgb565.c ****             lv_color16_t * dest_buf_c16 = (lv_color16_t *) dest_buf_u16;
 2328              		.loc 1 388 28 discriminator 2 view .LVU738
 2329 02c4 8346     		mov	fp, r0
 388:Lib/lvgl/src/draw/sw/blend/lv_draw_sw_blend_to_rgb565.c ****             lv_color16_t * dest_buf_c16 = (lv_color16_t *) dest_buf_u16;
 2330              		.loc 1 388 15 view .LVU739
 2331 02c6 4FF0000E 		mov	lr, #0
 2332 02ca 4946     		mov	r1, r9
 2333 02cc F146     		mov	r9, lr
 2334              	.LVL284:
 388:Lib/lvgl/src/draw/sw/blend/lv_draw_sw_blend_to_rgb565.c ****             lv_color16_t * dest_buf_c16 = (lv_color16_t *) dest_buf_u16;
 2335              		.loc 1 388 15 view .LVU740
 2336 02ce 0393     		str	r3, [sp, #12]
 2337              	.LVL285:
 2338              	.L101:
 388:Lib/lvgl/src/draw/sw/blend/lv_draw_sw_blend_to_rgb565.c ****             lv_color16_t * dest_buf_c16 = (lv_color16_t *) dest_buf_u16;
 2339              		.loc 1 388 22 is_stmt 1 discriminator 1 view .LVU741
 2340 02d0 8945     		cmp	r9, r1
 2341 02d2 D1DA     		bge	.L100
 2342              	.LBB127:
 391:Lib/lvgl/src/draw/sw/blend/lv_draw_sw_blend_to_rgb565.c ****                 switch(dsc->blend_mode) {
ARM GAS  C:\Users\Alex\AppData\Local\Temp\ccUzeV0Q.s 			page 71


 2343              		.loc 1 391 19 is_stmt 0 view .LVU742
 2344 02d4 0024     		movs	r4, #0
 2345 02d6 CDF80890 		str	r9, [sp, #8]
 2346 02da 8946     		mov	r9, r1
 2347              	.LVL286:
 391:Lib/lvgl/src/draw/sw/blend/lv_draw_sw_blend_to_rgb565.c ****                 switch(dsc->blend_mode) {
 2348              		.loc 1 391 19 view .LVU743
 2349 02dc C1E7     		b	.L124
 2350              	.LBE127:
 2351              	.LBE128:
 2352              		.cfi_endproc
 2353              	.LFE235:
 2355              		.section	.text.lv_draw_sw_blend_color_to_rgb565,"ax",%progbits
 2356              		.align	1
 2357              		.global	lv_draw_sw_blend_color_to_rgb565
 2358              		.syntax unified
 2359              		.thumb
 2360              		.thumb_func
 2362              	lv_draw_sw_blend_color_to_rgb565:
 2363              	.LVL287:
 2364              	.LFB233:
 139:Lib/lvgl/src/draw/sw/blend/lv_draw_sw_blend_to_rgb565.c ****     int32_t w = dsc->dest_w;
 2365              		.loc 1 139 1 is_stmt 1 view -0
 2366              		.cfi_startproc
 2367              		@ args = 0, pretend = 0, frame = 24
 2368              		@ frame_needed = 0, uses_anonymous_args = 0
 139:Lib/lvgl/src/draw/sw/blend/lv_draw_sw_blend_to_rgb565.c ****     int32_t w = dsc->dest_w;
 2369              		.loc 1 139 1 is_stmt 0 view .LVU745
 2370 0000 2DE9F04F 		push	{r4, r5, r6, r7, r8, r9, r10, fp, lr}
 2371              	.LCFI14:
 2372              		.cfi_def_cfa_offset 36
 2373              		.cfi_offset 4, -36
 2374              		.cfi_offset 5, -32
 2375              		.cfi_offset 6, -28
 2376              		.cfi_offset 7, -24
 2377              		.cfi_offset 8, -20
 2378              		.cfi_offset 9, -16
 2379              		.cfi_offset 10, -12
 2380              		.cfi_offset 11, -8
 2381              		.cfi_offset 14, -4
 2382 0004 87B0     		sub	sp, sp, #28
 2383              	.LCFI15:
 2384              		.cfi_def_cfa_offset 64
 2385 0006 0646     		mov	r6, r0
 140:Lib/lvgl/src/draw/sw/blend/lv_draw_sw_blend_to_rgb565.c ****     int32_t h = dsc->dest_h;
 2386              		.loc 1 140 5 is_stmt 1 view .LVU746
 140:Lib/lvgl/src/draw/sw/blend/lv_draw_sw_blend_to_rgb565.c ****     int32_t h = dsc->dest_h;
 2387              		.loc 1 140 13 is_stmt 0 view .LVU747
 2388 0008 4768     		ldr	r7, [r0, #4]
 2389              	.LVL288:
 141:Lib/lvgl/src/draw/sw/blend/lv_draw_sw_blend_to_rgb565.c ****     uint16_t color16 = lv_color_to_u16(dsc->color);
 2390              		.loc 1 141 5 is_stmt 1 view .LVU748
 141:Lib/lvgl/src/draw/sw/blend/lv_draw_sw_blend_to_rgb565.c ****     uint16_t color16 = lv_color_to_u16(dsc->color);
 2391              		.loc 1 141 13 is_stmt 0 view .LVU749
 2392 000a D0F808B0 		ldr	fp, [r0, #8]
 2393              	.LVL289:
 142:Lib/lvgl/src/draw/sw/blend/lv_draw_sw_blend_to_rgb565.c ****     lv_opa_t opa = dsc->opa;
ARM GAS  C:\Users\Alex\AppData\Local\Temp\ccUzeV0Q.s 			page 72


 2394              		.loc 1 142 5 is_stmt 1 view .LVU750
 142:Lib/lvgl/src/draw/sw/blend/lv_draw_sw_blend_to_rgb565.c ****     lv_opa_t opa = dsc->opa;
 2395              		.loc 1 142 24 is_stmt 0 view .LVU751
 2396 000e 8069     		ldr	r0, [r0, #24]
 2397              	.LVL290:
 142:Lib/lvgl/src/draw/sw/blend/lv_draw_sw_blend_to_rgb565.c ****     lv_opa_t opa = dsc->opa;
 2398              		.loc 1 142 24 view .LVU752
 2399 0010 FFF7FEFF 		bl	lv_color_to_u16
 2400              	.LVL291:
 2401 0014 0546     		mov	r5, r0
 2402              	.LVL292:
 143:Lib/lvgl/src/draw/sw/blend/lv_draw_sw_blend_to_rgb565.c ****     const lv_opa_t * mask = dsc->mask_buf;
 2403              		.loc 1 143 5 is_stmt 1 view .LVU753
 143:Lib/lvgl/src/draw/sw/blend/lv_draw_sw_blend_to_rgb565.c ****     const lv_opa_t * mask = dsc->mask_buf;
 2404              		.loc 1 143 14 is_stmt 0 view .LVU754
 2405 0016 96F81B90 		ldrb	r9, [r6, #27]	@ zero_extendqisi2
 2406              	.LVL293:
 144:Lib/lvgl/src/draw/sw/blend/lv_draw_sw_blend_to_rgb565.c ****     int32_t mask_stride = dsc->mask_stride;
 2407              		.loc 1 144 5 is_stmt 1 view .LVU755
 144:Lib/lvgl/src/draw/sw/blend/lv_draw_sw_blend_to_rgb565.c ****     int32_t mask_stride = dsc->mask_stride;
 2408              		.loc 1 144 22 is_stmt 0 view .LVU756
 2409 001a D6F81080 		ldr	r8, [r6, #16]
 2410              	.LVL294:
 145:Lib/lvgl/src/draw/sw/blend/lv_draw_sw_blend_to_rgb565.c ****     uint16_t * dest_buf_u16 = dsc->dest_buf;
 2411              		.loc 1 145 5 is_stmt 1 view .LVU757
 145:Lib/lvgl/src/draw/sw/blend/lv_draw_sw_blend_to_rgb565.c ****     uint16_t * dest_buf_u16 = dsc->dest_buf;
 2412              		.loc 1 145 13 is_stmt 0 view .LVU758
 2413 001e 7169     		ldr	r1, [r6, #20]
 2414              	.LVL295:
 146:Lib/lvgl/src/draw/sw/blend/lv_draw_sw_blend_to_rgb565.c ****     int32_t dest_stride = dsc->dest_stride;
 2415              		.loc 1 146 5 is_stmt 1 view .LVU759
 146:Lib/lvgl/src/draw/sw/blend/lv_draw_sw_blend_to_rgb565.c ****     int32_t dest_stride = dsc->dest_stride;
 2416              		.loc 1 146 16 is_stmt 0 view .LVU760
 2417 0020 3468     		ldr	r4, [r6]
 2418              	.LVL296:
 147:Lib/lvgl/src/draw/sw/blend/lv_draw_sw_blend_to_rgb565.c **** 
 2419              		.loc 1 147 5 is_stmt 1 view .LVU761
 147:Lib/lvgl/src/draw/sw/blend/lv_draw_sw_blend_to_rgb565.c **** 
 2420              		.loc 1 147 13 is_stmt 0 view .LVU762
 2421 0022 F368     		ldr	r3, [r6, #12]
 2422 0024 0293     		str	r3, [sp, #8]
 2423              	.LVL297:
 149:Lib/lvgl/src/draw/sw/blend/lv_draw_sw_blend_to_rgb565.c ****     int32_t y;
 2424              		.loc 1 149 5 is_stmt 1 view .LVU763
 150:Lib/lvgl/src/draw/sw/blend/lv_draw_sw_blend_to_rgb565.c **** 
 2425              		.loc 1 150 5 view .LVU764
 152:Lib/lvgl/src/draw/sw/blend/lv_draw_sw_blend_to_rgb565.c ****     LV_UNUSED(h);
 2426              		.loc 1 152 5 view .LVU765
 153:Lib/lvgl/src/draw/sw/blend/lv_draw_sw_blend_to_rgb565.c ****     LV_UNUSED(x);
 2427              		.loc 1 153 5 view .LVU766
 154:Lib/lvgl/src/draw/sw/blend/lv_draw_sw_blend_to_rgb565.c ****     LV_UNUSED(y);
 2428              		.loc 1 154 5 view .LVU767
 155:Lib/lvgl/src/draw/sw/blend/lv_draw_sw_blend_to_rgb565.c ****     LV_UNUSED(opa);
 2429              		.loc 1 155 5 view .LVU768
 156:Lib/lvgl/src/draw/sw/blend/lv_draw_sw_blend_to_rgb565.c ****     LV_UNUSED(mask);
 2430              		.loc 1 156 5 view .LVU769
 157:Lib/lvgl/src/draw/sw/blend/lv_draw_sw_blend_to_rgb565.c ****     LV_UNUSED(color16);
ARM GAS  C:\Users\Alex\AppData\Local\Temp\ccUzeV0Q.s 			page 73


 2431              		.loc 1 157 5 view .LVU770
 158:Lib/lvgl/src/draw/sw/blend/lv_draw_sw_blend_to_rgb565.c ****     LV_UNUSED(mask_stride);
 2432              		.loc 1 158 5 view .LVU771
 159:Lib/lvgl/src/draw/sw/blend/lv_draw_sw_blend_to_rgb565.c ****     LV_UNUSED(dest_stride);
 2433              		.loc 1 159 5 view .LVU772
 160:Lib/lvgl/src/draw/sw/blend/lv_draw_sw_blend_to_rgb565.c ****     LV_UNUSED(dest_buf_u16);
 2434              		.loc 1 160 5 view .LVU773
 161:Lib/lvgl/src/draw/sw/blend/lv_draw_sw_blend_to_rgb565.c **** 
 2435              		.loc 1 161 5 view .LVU774
 164:Lib/lvgl/src/draw/sw/blend/lv_draw_sw_blend_to_rgb565.c ****         if(LV_RESULT_INVALID == LV_DRAW_SW_COLOR_BLEND_TO_RGB565(dsc)) {
 2436              		.loc 1 164 5 view .LVU775
 164:Lib/lvgl/src/draw/sw/blend/lv_draw_sw_blend_to_rgb565.c ****         if(LV_RESULT_INVALID == LV_DRAW_SW_COLOR_BLEND_TO_RGB565(dsc)) {
 2437              		.loc 1 164 7 is_stmt 0 view .LVU776
 2438 0026 B8F1000F 		cmp	r8, #0
 2439 002a 0FD0     		beq	.L183
 245:Lib/lvgl/src/draw/sw/blend/lv_draw_sw_blend_to_rgb565.c ****         if(LV_RESULT_INVALID == LV_DRAW_SW_COLOR_BLEND_TO_RGB565_WITH_MASK(dsc)) {
 2440              		.loc 1 245 10 is_stmt 1 view .LVU777
 245:Lib/lvgl/src/draw/sw/blend/lv_draw_sw_blend_to_rgb565.c ****         if(LV_RESULT_INVALID == LV_DRAW_SW_COLOR_BLEND_TO_RGB565_WITH_MASK(dsc)) {
 2441              		.loc 1 245 12 is_stmt 0 view .LVU778
 2442 002c B8F1000F 		cmp	r8, #0
 2443 0030 00F04B81 		beq	.L139
 245:Lib/lvgl/src/draw/sw/blend/lv_draw_sw_blend_to_rgb565.c ****         if(LV_RESULT_INVALID == LV_DRAW_SW_COLOR_BLEND_TO_RGB565_WITH_MASK(dsc)) {
 2444              		.loc 1 245 18 discriminator 1 view .LVU779
 2445 0034 B9F1FC0F 		cmp	r9, #252
 2446 0038 40F22481 		bls	.L160
 246:Lib/lvgl/src/draw/sw/blend/lv_draw_sw_blend_to_rgb565.c ****             uint32_t c32 = color16 + ((uint32_t)color16 << 16);
 2447              		.loc 1 246 9 is_stmt 1 view .LVU780
 2448              	.LBB129:
 247:Lib/lvgl/src/draw/sw/blend/lv_draw_sw_blend_to_rgb565.c ****             for(y = 0; y < h; y++) {
 2449              		.loc 1 247 13 view .LVU781
 247:Lib/lvgl/src/draw/sw/blend/lv_draw_sw_blend_to_rgb565.c ****             for(y = 0; y < h; y++) {
 2450              		.loc 1 247 22 is_stmt 0 view .LVU782
 2451 003c 00EB0043 		add	r3, r0, r0, lsl #16
 2452              	.LVL298:
 248:Lib/lvgl/src/draw/sw/blend/lv_draw_sw_blend_to_rgb565.c ****                 for(x = 0; x < w && ((lv_uintptr_t)(mask) & 0x3); x++) {
 2453              		.loc 1 248 13 is_stmt 1 view .LVU783
 248:Lib/lvgl/src/draw/sw/blend/lv_draw_sw_blend_to_rgb565.c ****                 for(x = 0; x < w && ((lv_uintptr_t)(mask) & 0x3); x++) {
 2454              		.loc 1 248 19 is_stmt 0 view .LVU784
 2455 0040 4FF0000A 		mov	r10, #0
 2456 0044 D946     		mov	r9, fp
 2457              	.LVL299:
 248:Lib/lvgl/src/draw/sw/blend/lv_draw_sw_blend_to_rgb565.c ****                 for(x = 0; x < w && ((lv_uintptr_t)(mask) & 0x3); x++) {
 2458              		.loc 1 248 19 view .LVU785
 2459 0046 0491     		str	r1, [sp, #16]
 2460 0048 9B46     		mov	fp, r3
 2461              	.LVL300:
 248:Lib/lvgl/src/draw/sw/blend/lv_draw_sw_blend_to_rgb565.c ****                 for(x = 0; x < w && ((lv_uintptr_t)(mask) & 0x3); x++) {
 2462              		.loc 1 248 13 view .LVU786
 2463 004a 17E1     		b	.L161
 2464              	.LVL301:
 2465              	.L183:
 248:Lib/lvgl/src/draw/sw/blend/lv_draw_sw_blend_to_rgb565.c ****                 for(x = 0; x < w && ((lv_uintptr_t)(mask) & 0x3); x++) {
 2466              		.loc 1 248 13 view .LVU787
 2467              	.LBE129:
 164:Lib/lvgl/src/draw/sw/blend/lv_draw_sw_blend_to_rgb565.c ****         if(LV_RESULT_INVALID == LV_DRAW_SW_COLOR_BLEND_TO_RGB565(dsc)) {
 2468              		.loc 1 164 21 discriminator 1 view .LVU788
 2469 004c B9F1FC0F 		cmp	r9, #252
ARM GAS  C:\Users\Alex\AppData\Local\Temp\ccUzeV0Q.s 			page 74


 2470 0050 2FD8     		bhi	.L175
 202:Lib/lvgl/src/draw/sw/blend/lv_draw_sw_blend_to_rgb565.c ****         if(LV_RESULT_INVALID == LV_DRAW_SW_COLOR_BLEND_TO_RGB565_WITH_OPA(dsc)) {
 2471              		.loc 1 202 10 is_stmt 1 view .LVU789
 203:Lib/lvgl/src/draw/sw/blend/lv_draw_sw_blend_to_rgb565.c ****             uint32_t last_dest32_color = dest_buf_u16[0] + 1; /*Set to value which is not equal to 
 2472              		.loc 1 203 9 view .LVU790
 2473              	.LBB136:
 204:Lib/lvgl/src/draw/sw/blend/lv_draw_sw_blend_to_rgb565.c ****             uint32_t last_res32_color = 0;
 2474              		.loc 1 204 13 view .LVU791
 204:Lib/lvgl/src/draw/sw/blend/lv_draw_sw_blend_to_rgb565.c ****             uint32_t last_res32_color = 0;
 2475              		.loc 1 204 54 is_stmt 0 view .LVU792
 2476 0052 2388     		ldrh	r3, [r4]
 2477              	.LVL302:
 204:Lib/lvgl/src/draw/sw/blend/lv_draw_sw_blend_to_rgb565.c ****             uint32_t last_res32_color = 0;
 2478              		.loc 1 204 58 view .LVU793
 2479 0054 0133     		adds	r3, r3, #1
 2480 0056 0193     		str	r3, [sp, #4]
 2481              	.LVL303:
 205:Lib/lvgl/src/draw/sw/blend/lv_draw_sw_blend_to_rgb565.c **** 
 2482              		.loc 1 205 13 is_stmt 1 view .LVU794
 207:Lib/lvgl/src/draw/sw/blend/lv_draw_sw_blend_to_rgb565.c ****                 x = 0;
 2483              		.loc 1 207 13 view .LVU795
 205:Lib/lvgl/src/draw/sw/blend/lv_draw_sw_blend_to_rgb565.c **** 
 2484              		.loc 1 205 22 is_stmt 0 view .LVU796
 2485 0058 0023     		movs	r3, #0
 2486              	.LVL304:
 205:Lib/lvgl/src/draw/sw/blend/lv_draw_sw_blend_to_rgb565.c **** 
 2487              		.loc 1 205 22 view .LVU797
 2488 005a 0393     		str	r3, [sp, #12]
 207:Lib/lvgl/src/draw/sw/blend/lv_draw_sw_blend_to_rgb565.c ****                 x = 0;
 2489              		.loc 1 207 19 view .LVU798
 2490 005c 9A46     		mov	r10, r3
 2491 005e DDF80880 		ldr	r8, [sp, #8]
 2492              	.LVL305:
 207:Lib/lvgl/src/draw/sw/blend/lv_draw_sw_blend_to_rgb565.c ****                 x = 0;
 2493              		.loc 1 207 13 view .LVU799
 2494 0062 7DE0     		b	.L150
 2495              	.LVL306:
 2496              	.L145:
 207:Lib/lvgl/src/draw/sw/blend/lv_draw_sw_blend_to_rgb565.c ****                 x = 0;
 2497              		.loc 1 207 13 view .LVU800
 2498              	.LBE136:
 2499              	.LBB141:
 177:Lib/lvgl/src/draw/sw/blend/lv_draw_sw_blend_to_rgb565.c ****                     dest32[1] = c32;
 2500              		.loc 1 177 21 is_stmt 1 view .LVU801
 177:Lib/lvgl/src/draw/sw/blend/lv_draw_sw_blend_to_rgb565.c ****                     dest32[1] = c32;
 2501              		.loc 1 177 31 is_stmt 0 view .LVU802
 2502 0064 2360     		str	r3, [r4]
 178:Lib/lvgl/src/draw/sw/blend/lv_draw_sw_blend_to_rgb565.c ****                     dest32[2] = c32;
 2503              		.loc 1 178 21 is_stmt 1 view .LVU803
 178:Lib/lvgl/src/draw/sw/blend/lv_draw_sw_blend_to_rgb565.c ****                     dest32[2] = c32;
 2504              		.loc 1 178 31 is_stmt 0 view .LVU804
 2505 0066 6360     		str	r3, [r4, #4]
 179:Lib/lvgl/src/draw/sw/blend/lv_draw_sw_blend_to_rgb565.c ****                     dest32[3] = c32;
 2506              		.loc 1 179 21 is_stmt 1 view .LVU805
 179:Lib/lvgl/src/draw/sw/blend/lv_draw_sw_blend_to_rgb565.c ****                     dest32[3] = c32;
 2507              		.loc 1 179 31 is_stmt 0 view .LVU806
 2508 0068 A360     		str	r3, [r4, #8]
ARM GAS  C:\Users\Alex\AppData\Local\Temp\ccUzeV0Q.s 			page 75


 180:Lib/lvgl/src/draw/sw/blend/lv_draw_sw_blend_to_rgb565.c ****                     dest32[4] = c32;
 2509              		.loc 1 180 21 is_stmt 1 view .LVU807
 180:Lib/lvgl/src/draw/sw/blend/lv_draw_sw_blend_to_rgb565.c ****                     dest32[4] = c32;
 2510              		.loc 1 180 31 is_stmt 0 view .LVU808
 2511 006a E360     		str	r3, [r4, #12]
 181:Lib/lvgl/src/draw/sw/blend/lv_draw_sw_blend_to_rgb565.c ****                     dest32[5] = c32;
 2512              		.loc 1 181 21 is_stmt 1 view .LVU809
 181:Lib/lvgl/src/draw/sw/blend/lv_draw_sw_blend_to_rgb565.c ****                     dest32[5] = c32;
 2513              		.loc 1 181 31 is_stmt 0 view .LVU810
 2514 006c 2361     		str	r3, [r4, #16]
 182:Lib/lvgl/src/draw/sw/blend/lv_draw_sw_blend_to_rgb565.c ****                     dest32[6] = c32;
 2515              		.loc 1 182 21 is_stmt 1 view .LVU811
 182:Lib/lvgl/src/draw/sw/blend/lv_draw_sw_blend_to_rgb565.c ****                     dest32[6] = c32;
 2516              		.loc 1 182 31 is_stmt 0 view .LVU812
 2517 006e 6361     		str	r3, [r4, #20]
 183:Lib/lvgl/src/draw/sw/blend/lv_draw_sw_blend_to_rgb565.c ****                     dest32[7] = c32;
 2518              		.loc 1 183 21 is_stmt 1 view .LVU813
 183:Lib/lvgl/src/draw/sw/blend/lv_draw_sw_blend_to_rgb565.c ****                     dest32[7] = c32;
 2519              		.loc 1 183 31 is_stmt 0 view .LVU814
 2520 0070 A361     		str	r3, [r4, #24]
 184:Lib/lvgl/src/draw/sw/blend/lv_draw_sw_blend_to_rgb565.c ****                     dest32 += 8;
 2521              		.loc 1 184 21 is_stmt 1 view .LVU815
 184:Lib/lvgl/src/draw/sw/blend/lv_draw_sw_blend_to_rgb565.c ****                     dest32 += 8;
 2522              		.loc 1 184 31 is_stmt 0 view .LVU816
 2523 0072 E361     		str	r3, [r4, #28]
 185:Lib/lvgl/src/draw/sw/blend/lv_draw_sw_blend_to_rgb565.c ****                 }
 2524              		.loc 1 185 21 is_stmt 1 view .LVU817
 185:Lib/lvgl/src/draw/sw/blend/lv_draw_sw_blend_to_rgb565.c ****                 }
 2525              		.loc 1 185 28 is_stmt 0 view .LVU818
 2526 0074 2034     		adds	r4, r4, #32
 2527              	.LVL307:
 2528              	.L144:
 176:Lib/lvgl/src/draw/sw/blend/lv_draw_sw_blend_to_rgb565.c ****                     dest32[0] = c32;
 2529              		.loc 1 176 30 is_stmt 1 view .LVU819
 2530 0076 9442     		cmp	r4, r2
 2531 0078 F4D3     		bcc	.L145
 176:Lib/lvgl/src/draw/sw/blend/lv_draw_sw_blend_to_rgb565.c ****                     dest32[0] = c32;
 2532              		.loc 1 176 30 is_stmt 0 view .LVU820
 2533 007a 01E0     		b	.L146
 2534              	.LVL308:
 2535              	.L147:
 191:Lib/lvgl/src/draw/sw/blend/lv_draw_sw_blend_to_rgb565.c ****                     dest_buf_u16++;
 2536              		.loc 1 191 21 is_stmt 1 view .LVU821
 191:Lib/lvgl/src/draw/sw/blend/lv_draw_sw_blend_to_rgb565.c ****                     dest_buf_u16++;
 2537              		.loc 1 191 35 is_stmt 0 view .LVU822
 2538 007c 24F8025B 		strh	r5, [r4], #2	@ movhi
 2539              	.LVL309:
 192:Lib/lvgl/src/draw/sw/blend/lv_draw_sw_blend_to_rgb565.c ****                 }
 2540              		.loc 1 192 21 is_stmt 1 view .LVU823
 2541              	.L146:
 190:Lib/lvgl/src/draw/sw/blend/lv_draw_sw_blend_to_rgb565.c ****                     *dest_buf_u16 = color16;
 2542              		.loc 1 190 36 view .LVU824
 2543 0080 8C42     		cmp	r4, r1
 2544 0082 FBD3     		bcc	.L147
 195:Lib/lvgl/src/draw/sw/blend/lv_draw_sw_blend_to_rgb565.c ****                 dest_buf_u16 -= w;
 2545              		.loc 1 195 17 discriminator 2 view .LVU825
 2546              	.LVL310:
ARM GAS  C:\Users\Alex\AppData\Local\Temp\ccUzeV0Q.s 			page 76


 196:Lib/lvgl/src/draw/sw/blend/lv_draw_sw_blend_to_rgb565.c ****             }
 2547              		.loc 1 196 17 discriminator 2 view .LVU826
 196:Lib/lvgl/src/draw/sw/blend/lv_draw_sw_blend_to_rgb565.c ****             }
 2548              		.loc 1 196 30 is_stmt 0 discriminator 2 view .LVU827
 2549 0084 ACEB0003 		sub	r3, ip, r0
 2550              	.LVL311:
 196:Lib/lvgl/src/draw/sw/blend/lv_draw_sw_blend_to_rgb565.c ****             }
 2551              		.loc 1 196 30 discriminator 2 view .LVU828
 2552 0088 1C44     		add	r4, r4, r3
 2553              	.LVL312:
 196:Lib/lvgl/src/draw/sw/blend/lv_draw_sw_blend_to_rgb565.c ****             }
 2554              		.loc 1 196 30 discriminator 2 view .LVU829
 2555              	.LBE141:
 166:Lib/lvgl/src/draw/sw/blend/lv_draw_sw_blend_to_rgb565.c ****                 uint16_t * dest_end_final = dest_buf_u16 + w;
 2556              		.loc 1 166 32 is_stmt 1 discriminator 2 view .LVU830
 2557 008a 0136     		adds	r6, r6, #1
 2558              	.LVL313:
 2559              	.L141:
 166:Lib/lvgl/src/draw/sw/blend/lv_draw_sw_blend_to_rgb565.c ****                 uint16_t * dest_end_final = dest_buf_u16 + w;
 2560              		.loc 1 166 26 discriminator 1 view .LVU831
 2561 008c 5E45     		cmp	r6, fp
 2562 008e 80F21C81 		bge	.L139
 2563              	.LBB142:
 167:Lib/lvgl/src/draw/sw/blend/lv_draw_sw_blend_to_rgb565.c ****                 uint32_t * dest_end_mid = (uint32_t *)((uint16_t *) dest_buf_u16 + ((w - 1) & ~(0xF
 2564              		.loc 1 167 17 view .LVU832
 167:Lib/lvgl/src/draw/sw/blend/lv_draw_sw_blend_to_rgb565.c ****                 uint32_t * dest_end_mid = (uint32_t *)((uint16_t *) dest_buf_u16 + ((w - 1) & ~(0xF
 2565              		.loc 1 167 58 is_stmt 0 view .LVU833
 2566 0092 7800     		lsls	r0, r7, #1
 167:Lib/lvgl/src/draw/sw/blend/lv_draw_sw_blend_to_rgb565.c ****                 uint32_t * dest_end_mid = (uint32_t *)((uint16_t *) dest_buf_u16 + ((w - 1) & ~(0xF
 2567              		.loc 1 167 28 view .LVU834
 2568 0094 04EB4701 		add	r1, r4, r7, lsl #1
 2569              	.LVL314:
 168:Lib/lvgl/src/draw/sw/blend/lv_draw_sw_blend_to_rgb565.c ****                 if((lv_uintptr_t)&dest_buf_u16[0] & 0x3) {
 2570              		.loc 1 168 17 is_stmt 1 view .LVU835
 168:Lib/lvgl/src/draw/sw/blend/lv_draw_sw_blend_to_rgb565.c ****                 if((lv_uintptr_t)&dest_buf_u16[0] & 0x3) {
 2571              		.loc 1 168 88 is_stmt 0 view .LVU836
 2572 0098 7A1E     		subs	r2, r7, #1
 168:Lib/lvgl/src/draw/sw/blend/lv_draw_sw_blend_to_rgb565.c ****                 if((lv_uintptr_t)&dest_buf_u16[0] & 0x3) {
 2573              		.loc 1 168 93 view .LVU837
 2574 009a 22F00F02 		bic	r2, r2, #15
 168:Lib/lvgl/src/draw/sw/blend/lv_draw_sw_blend_to_rgb565.c ****                 if((lv_uintptr_t)&dest_buf_u16[0] & 0x3) {
 2575              		.loc 1 168 28 view .LVU838
 2576 009e 04EB4202 		add	r2, r4, r2, lsl #1
 2577              	.LVL315:
 169:Lib/lvgl/src/draw/sw/blend/lv_draw_sw_blend_to_rgb565.c ****                     dest_buf_u16[0] = color16;
 2578              		.loc 1 169 17 is_stmt 1 view .LVU839
 169:Lib/lvgl/src/draw/sw/blend/lv_draw_sw_blend_to_rgb565.c ****                     dest_buf_u16[0] = color16;
 2579              		.loc 1 169 19 is_stmt 0 view .LVU840
 2580 00a2 14F0030F 		tst	r4, #3
 2581 00a6 01D0     		beq	.L143
 170:Lib/lvgl/src/draw/sw/blend/lv_draw_sw_blend_to_rgb565.c ****                     dest_buf_u16++;
 2582              		.loc 1 170 21 is_stmt 1 view .LVU841
 170:Lib/lvgl/src/draw/sw/blend/lv_draw_sw_blend_to_rgb565.c ****                     dest_buf_u16++;
 2583              		.loc 1 170 37 is_stmt 0 view .LVU842
 2584 00a8 24F8025B 		strh	r5, [r4], #2	@ movhi
 2585              	.LVL316:
 171:Lib/lvgl/src/draw/sw/blend/lv_draw_sw_blend_to_rgb565.c ****                 }
ARM GAS  C:\Users\Alex\AppData\Local\Temp\ccUzeV0Q.s 			page 77


 2586              		.loc 1 171 21 is_stmt 1 view .LVU843
 2587              	.L143:
 174:Lib/lvgl/src/draw/sw/blend/lv_draw_sw_blend_to_rgb565.c ****                 uint32_t * dest32 = (uint32_t *)dest_buf_u16;
 2588              		.loc 1 174 17 view .LVU844
 174:Lib/lvgl/src/draw/sw/blend/lv_draw_sw_blend_to_rgb565.c ****                 uint32_t * dest32 = (uint32_t *)dest_buf_u16;
 2589              		.loc 1 174 26 is_stmt 0 view .LVU845
 2590 00ac 05EB0543 		add	r3, r5, r5, lsl #16
 2591              	.LVL317:
 175:Lib/lvgl/src/draw/sw/blend/lv_draw_sw_blend_to_rgb565.c ****                 while(dest32 < dest_end_mid) {
 2592              		.loc 1 175 17 is_stmt 1 view .LVU846
 176:Lib/lvgl/src/draw/sw/blend/lv_draw_sw_blend_to_rgb565.c ****                     dest32[0] = c32;
 2593              		.loc 1 176 17 view .LVU847
 176:Lib/lvgl/src/draw/sw/blend/lv_draw_sw_blend_to_rgb565.c ****                     dest32[0] = c32;
 2594              		.loc 1 176 22 is_stmt 0 view .LVU848
 2595 00b0 E1E7     		b	.L144
 2596              	.LVL318:
 2597              	.L175:
 176:Lib/lvgl/src/draw/sw/blend/lv_draw_sw_blend_to_rgb565.c ****                     dest32[0] = c32;
 2598              		.loc 1 176 22 view .LVU849
 2599              	.LBE142:
 166:Lib/lvgl/src/draw/sw/blend/lv_draw_sw_blend_to_rgb565.c ****                 uint16_t * dest_end_final = dest_buf_u16 + w;
 2600              		.loc 1 166 19 view .LVU850
 2601 00b2 0026     		movs	r6, #0
 2602              	.LVL319:
 166:Lib/lvgl/src/draw/sw/blend/lv_draw_sw_blend_to_rgb565.c ****                 uint16_t * dest_end_final = dest_buf_u16 + w;
 2603              		.loc 1 166 19 view .LVU851
 2604 00b4 DDF808C0 		ldr	ip, [sp, #8]
 2605 00b8 E8E7     		b	.L141
 2606              	.LVL320:
 2607              	.L152:
 2608              	.LBB143:
 2609              	.LBB137:
 220:Lib/lvgl/src/draw/sw/blend/lv_draw_sw_blend_to_rgb565.c ****                         if(last_dest32_color == *dest32) {
 2610              		.loc 1 220 25 is_stmt 1 view .LVU852
 221:Lib/lvgl/src/draw/sw/blend/lv_draw_sw_blend_to_rgb565.c ****                             *dest32 = last_res32_color;
 2611              		.loc 1 221 25 view .LVU853
 221:Lib/lvgl/src/draw/sw/blend/lv_draw_sw_blend_to_rgb565.c ****                             *dest32 = last_res32_color;
 2612              		.loc 1 221 49 is_stmt 0 view .LVU854
 2613 00ba 54F81630 		ldr	r3, [r4, r6, lsl #1]
 221:Lib/lvgl/src/draw/sw/blend/lv_draw_sw_blend_to_rgb565.c ****                             *dest32 = last_res32_color;
 2614              		.loc 1 221 27 view .LVU855
 2615 00be 019A     		ldr	r2, [sp, #4]
 2616 00c0 9342     		cmp	r3, r2
 2617 00c2 2CD0     		beq	.L184
 225:Lib/lvgl/src/draw/sw/blend/lv_draw_sw_blend_to_rgb565.c **** 
 2618              		.loc 1 225 29 is_stmt 1 view .LVU856
 225:Lib/lvgl/src/draw/sw/blend/lv_draw_sw_blend_to_rgb565.c **** 
 2619              		.loc 1 225 47 is_stmt 0 view .LVU857
 2620 00c4 DAF80030 		ldr	r3, [r10]
 2621              	.LVL321:
 225:Lib/lvgl/src/draw/sw/blend/lv_draw_sw_blend_to_rgb565.c **** 
 2622              		.loc 1 225 47 view .LVU858
 2623 00c8 0193     		str	r3, [sp, #4]
 2624              	.LVL322:
 227:Lib/lvgl/src/draw/sw/blend/lv_draw_sw_blend_to_rgb565.c ****                             dest_buf_u16[x + 1] = dest_buf_u16[x];
 2625              		.loc 1 227 29 is_stmt 1 view .LVU859
 227:Lib/lvgl/src/draw/sw/blend/lv_draw_sw_blend_to_rgb565.c ****                             dest_buf_u16[x + 1] = dest_buf_u16[x];
ARM GAS  C:\Users\Alex\AppData\Local\Temp\ccUzeV0Q.s 			page 78


 2626              		.loc 1 227 47 is_stmt 0 view .LVU860
 2627 00ca 4A46     		mov	r2, r9
 2628 00cc 2846     		mov	r0, r5
 2629 00ce FFF7FEFF 		bl	lv_color_16_16_mix
 2630              	.LVL323:
 227:Lib/lvgl/src/draw/sw/blend/lv_draw_sw_blend_to_rgb565.c ****                             dest_buf_u16[x + 1] = dest_buf_u16[x];
 2631              		.loc 1 227 45 view .LVU861
 2632 00d2 AAF80000 		strh	r0, [r10]	@ movhi
 228:Lib/lvgl/src/draw/sw/blend/lv_draw_sw_blend_to_rgb565.c **** 
 2633              		.loc 1 228 29 is_stmt 1 view .LVU862
 228:Lib/lvgl/src/draw/sw/blend/lv_draw_sw_blend_to_rgb565.c **** 
 2634              		.loc 1 228 49 is_stmt 0 view .LVU863
 2635 00d6 ABF80000 		strh	r0, [fp]	@ movhi
 230:Lib/lvgl/src/draw/sw/blend/lv_draw_sw_blend_to_rgb565.c ****                         }
 2636              		.loc 1 230 29 is_stmt 1 view .LVU864
 230:Lib/lvgl/src/draw/sw/blend/lv_draw_sw_blend_to_rgb565.c ****                         }
 2637              		.loc 1 230 46 is_stmt 0 view .LVU865
 2638 00da DAF80030 		ldr	r3, [r10]
 2639              	.LVL324:
 230:Lib/lvgl/src/draw/sw/blend/lv_draw_sw_blend_to_rgb565.c ****                         }
 2640              		.loc 1 230 46 view .LVU866
 2641 00de 0393     		str	r3, [sp, #12]
 2642              	.LVL325:
 2643              	.L153:
 230:Lib/lvgl/src/draw/sw/blend/lv_draw_sw_blend_to_rgb565.c ****                         }
 2644              		.loc 1 230 46 view .LVU867
 2645              	.LBE137:
 214:Lib/lvgl/src/draw/sw/blend/lv_draw_sw_blend_to_rgb565.c ****                     if(dest_buf_u16[x] != dest_buf_u16[x + 1]) {
 2646              		.loc 1 214 36 is_stmt 1 view .LVU868
 2647 00e0 0236     		adds	r6, r6, #2
 2648              	.LVL326:
 2649              	.L155:
 214:Lib/lvgl/src/draw/sw/blend/lv_draw_sw_blend_to_rgb565.c ****                     if(dest_buf_u16[x] != dest_buf_u16[x + 1]) {
 2650              		.loc 1 214 25 discriminator 1 view .LVU869
 214:Lib/lvgl/src/draw/sw/blend/lv_draw_sw_blend_to_rgb565.c ****                     if(dest_buf_u16[x] != dest_buf_u16[x + 1]) {
 2651              		.loc 1 214 29 is_stmt 0 discriminator 1 view .LVU870
 2652 00e2 BB1E     		subs	r3, r7, #2
 214:Lib/lvgl/src/draw/sw/blend/lv_draw_sw_blend_to_rgb565.c ****                     if(dest_buf_u16[x] != dest_buf_u16[x + 1]) {
 2653              		.loc 1 214 25 discriminator 1 view .LVU871
 2654 00e4 B342     		cmp	r3, r6
 2655 00e6 26DD     		ble	.L185
 215:Lib/lvgl/src/draw/sw/blend/lv_draw_sw_blend_to_rgb565.c ****                         dest_buf_u16[x + 0] = lv_color_16_16_mix(color16, dest_buf_u16[x + 0], opa)
 2656              		.loc 1 215 21 is_stmt 1 view .LVU872
 215:Lib/lvgl/src/draw/sw/blend/lv_draw_sw_blend_to_rgb565.c ****                         dest_buf_u16[x + 0] = lv_color_16_16_mix(color16, dest_buf_u16[x + 0], opa)
 2657              		.loc 1 215 36 is_stmt 0 view .LVU873
 2658 00e8 04EB460A 		add	r10, r4, r6, lsl #1
 2659 00ec 34F81610 		ldrh	r1, [r4, r6, lsl #1]
 215:Lib/lvgl/src/draw/sw/blend/lv_draw_sw_blend_to_rgb565.c ****                         dest_buf_u16[x + 0] = lv_color_16_16_mix(color16, dest_buf_u16[x + 0], opa)
 2660              		.loc 1 215 55 view .LVU874
 2661 00f0 06F10108 		add	r8, r6, #1
 2662 00f4 04EB480B 		add	fp, r4, r8, lsl #1
 2663 00f8 34F81830 		ldrh	r3, [r4, r8, lsl #1]
 215:Lib/lvgl/src/draw/sw/blend/lv_draw_sw_blend_to_rgb565.c ****                         dest_buf_u16[x + 0] = lv_color_16_16_mix(color16, dest_buf_u16[x + 0], opa)
 2664              		.loc 1 215 23 view .LVU875
 2665 00fc 9942     		cmp	r1, r3
 2666 00fe DCD0     		beq	.L152
 216:Lib/lvgl/src/draw/sw/blend/lv_draw_sw_blend_to_rgb565.c ****                         dest_buf_u16[x + 1] = lv_color_16_16_mix(color16, dest_buf_u16[x + 1], opa)
ARM GAS  C:\Users\Alex\AppData\Local\Temp\ccUzeV0Q.s 			page 79


 2667              		.loc 1 216 25 is_stmt 1 view .LVU876
 216:Lib/lvgl/src/draw/sw/blend/lv_draw_sw_blend_to_rgb565.c ****                         dest_buf_u16[x + 1] = lv_color_16_16_mix(color16, dest_buf_u16[x + 1], opa)
 2668              		.loc 1 216 47 is_stmt 0 view .LVU877
 2669 0100 4A46     		mov	r2, r9
 2670 0102 2846     		mov	r0, r5
 2671 0104 FFF7FEFF 		bl	lv_color_16_16_mix
 2672              	.LVL327:
 216:Lib/lvgl/src/draw/sw/blend/lv_draw_sw_blend_to_rgb565.c ****                         dest_buf_u16[x + 1] = lv_color_16_16_mix(color16, dest_buf_u16[x + 1], opa)
 2673              		.loc 1 216 45 view .LVU878
 2674 0108 24F81600 		strh	r0, [r4, r6, lsl #1]	@ movhi
 217:Lib/lvgl/src/draw/sw/blend/lv_draw_sw_blend_to_rgb565.c ****                     }
 2675              		.loc 1 217 25 is_stmt 1 view .LVU879
 217:Lib/lvgl/src/draw/sw/blend/lv_draw_sw_blend_to_rgb565.c ****                     }
 2676              		.loc 1 217 47 is_stmt 0 view .LVU880
 2677 010c 4A46     		mov	r2, r9
 2678 010e 34F81810 		ldrh	r1, [r4, r8, lsl #1]
 2679 0112 2846     		mov	r0, r5
 2680 0114 FFF7FEFF 		bl	lv_color_16_16_mix
 2681              	.LVL328:
 217:Lib/lvgl/src/draw/sw/blend/lv_draw_sw_blend_to_rgb565.c ****                     }
 2682              		.loc 1 217 45 view .LVU881
 2683 0118 24F81800 		strh	r0, [r4, r8, lsl #1]	@ movhi
 2684 011c E0E7     		b	.L153
 2685              	.LVL329:
 2686              	.L184:
 2687              	.LBB138:
 222:Lib/lvgl/src/draw/sw/blend/lv_draw_sw_blend_to_rgb565.c ****                         }
 2688              		.loc 1 222 29 is_stmt 1 view .LVU882
 222:Lib/lvgl/src/draw/sw/blend/lv_draw_sw_blend_to_rgb565.c ****                         }
 2689              		.loc 1 222 37 is_stmt 0 view .LVU883
 2690 011e 039B     		ldr	r3, [sp, #12]
 2691 0120 CAF80030 		str	r3, [r10]
 2692 0124 DCE7     		b	.L153
 2693              	.LVL330:
 2694              	.L176:
 222:Lib/lvgl/src/draw/sw/blend/lv_draw_sw_blend_to_rgb565.c ****                         }
 2695              		.loc 1 222 37 view .LVU884
 2696              	.LBE138:
 208:Lib/lvgl/src/draw/sw/blend/lv_draw_sw_blend_to_rgb565.c ****                 if((lv_uintptr_t)&dest_buf_u16[0] & 0x3) {
 2697              		.loc 1 208 19 view .LVU885
 2698 0126 0026     		movs	r6, #0
 2699 0128 CDF808A0 		str	r10, [sp, #8]
 2700 012c CDF810B0 		str	fp, [sp, #16]
 2701 0130 CDF81480 		str	r8, [sp, #20]
 2702 0134 D5E7     		b	.L155
 2703              	.LVL331:
 2704              	.L185:
 208:Lib/lvgl/src/draw/sw/blend/lv_draw_sw_blend_to_rgb565.c ****                 if((lv_uintptr_t)&dest_buf_u16[0] & 0x3) {
 2705              		.loc 1 208 19 view .LVU886
 2706 0136 DDF808A0 		ldr	r10, [sp, #8]
 2707 013a DDF810B0 		ldr	fp, [sp, #16]
 2708 013e DDF81480 		ldr	r8, [sp, #20]
 2709              	.L157:
 235:Lib/lvgl/src/draw/sw/blend/lv_draw_sw_blend_to_rgb565.c ****                     dest_buf_u16[x] = lv_color_16_16_mix(color16, dest_buf_u16[x], opa);
 2710              		.loc 1 235 25 is_stmt 1 discriminator 1 view .LVU887
 2711 0142 BE42     		cmp	r6, r7
 2712 0144 09DA     		bge	.L186
ARM GAS  C:\Users\Alex\AppData\Local\Temp\ccUzeV0Q.s 			page 80


 236:Lib/lvgl/src/draw/sw/blend/lv_draw_sw_blend_to_rgb565.c ****                 }
 2713              		.loc 1 236 21 discriminator 2 view .LVU888
 236:Lib/lvgl/src/draw/sw/blend/lv_draw_sw_blend_to_rgb565.c ****                 }
 2714              		.loc 1 236 39 is_stmt 0 discriminator 2 view .LVU889
 2715 0146 4A46     		mov	r2, r9
 2716 0148 34F81610 		ldrh	r1, [r4, r6, lsl #1]
 2717 014c 2846     		mov	r0, r5
 2718 014e FFF7FEFF 		bl	lv_color_16_16_mix
 2719              	.LVL332:
 236:Lib/lvgl/src/draw/sw/blend/lv_draw_sw_blend_to_rgb565.c ****                 }
 2720              		.loc 1 236 37 discriminator 2 view .LVU890
 2721 0152 24F81600 		strh	r0, [r4, r6, lsl #1]	@ movhi
 235:Lib/lvgl/src/draw/sw/blend/lv_draw_sw_blend_to_rgb565.c ****                     dest_buf_u16[x] = lv_color_16_16_mix(color16, dest_buf_u16[x], opa);
 2722              		.loc 1 235 32 is_stmt 1 discriminator 2 view .LVU891
 2723 0156 0136     		adds	r6, r6, #1
 2724              	.LVL333:
 235:Lib/lvgl/src/draw/sw/blend/lv_draw_sw_blend_to_rgb565.c ****                     dest_buf_u16[x] = lv_color_16_16_mix(color16, dest_buf_u16[x], opa);
 2725              		.loc 1 235 32 is_stmt 0 discriminator 2 view .LVU892
 2726 0158 F3E7     		b	.L157
 2727              	.L186:
 238:Lib/lvgl/src/draw/sw/blend/lv_draw_sw_blend_to_rgb565.c ****             }
 2728              		.loc 1 238 17 is_stmt 1 discriminator 2 view .LVU893
 2729              	.LVL334:
 2730              	.LBB139:
 2731              	.LBI139:
 670:Lib/lvgl/src/draw/sw/blend/lv_draw_sw_blend_to_rgb565.c **** {
 2732              		.loc 1 670 44 discriminator 2 view .LVU894
 2733              	.LBB140:
 2734              		.loc 1 672 5 discriminator 2 view .LVU895
 2735              		.loc 1 672 12 is_stmt 0 discriminator 2 view .LVU896
 2736 015a 4444     		add	r4, r4, r8
 2737              	.LVL335:
 2738              		.loc 1 672 12 discriminator 2 view .LVU897
 2739              	.LBE140:
 2740              	.LBE139:
 207:Lib/lvgl/src/draw/sw/blend/lv_draw_sw_blend_to_rgb565.c ****                 x = 0;
 2741              		.loc 1 207 32 is_stmt 1 discriminator 2 view .LVU898
 2742 015c 0AF1010A 		add	r10, r10, #1
 2743              	.LVL336:
 2744              	.L150:
 207:Lib/lvgl/src/draw/sw/blend/lv_draw_sw_blend_to_rgb565.c ****                 x = 0;
 2745              		.loc 1 207 26 discriminator 1 view .LVU899
 2746 0160 DA45     		cmp	r10, fp
 2747 0162 80F2B280 		bge	.L139
 208:Lib/lvgl/src/draw/sw/blend/lv_draw_sw_blend_to_rgb565.c ****                 if((lv_uintptr_t)&dest_buf_u16[0] & 0x3) {
 2748              		.loc 1 208 17 view .LVU900
 2749              	.LVL337:
 209:Lib/lvgl/src/draw/sw/blend/lv_draw_sw_blend_to_rgb565.c ****                     dest_buf_u16[0] = lv_color_16_16_mix(color16, dest_buf_u16[0], opa);
 2750              		.loc 1 209 17 view .LVU901
 209:Lib/lvgl/src/draw/sw/blend/lv_draw_sw_blend_to_rgb565.c ****                     dest_buf_u16[0] = lv_color_16_16_mix(color16, dest_buf_u16[0], opa);
 2751              		.loc 1 209 19 is_stmt 0 view .LVU902
 2752 0166 14F0030F 		tst	r4, #3
 2753 016a DCD0     		beq	.L176
 210:Lib/lvgl/src/draw/sw/blend/lv_draw_sw_blend_to_rgb565.c ****                     x = 1;
 2754              		.loc 1 210 21 is_stmt 1 view .LVU903
 210:Lib/lvgl/src/draw/sw/blend/lv_draw_sw_blend_to_rgb565.c ****                     x = 1;
 2755              		.loc 1 210 39 is_stmt 0 view .LVU904
ARM GAS  C:\Users\Alex\AppData\Local\Temp\ccUzeV0Q.s 			page 81


 2756 016c 4A46     		mov	r2, r9
 2757 016e 2188     		ldrh	r1, [r4]
 2758 0170 2846     		mov	r0, r5
 2759 0172 FFF7FEFF 		bl	lv_color_16_16_mix
 2760              	.LVL338:
 210:Lib/lvgl/src/draw/sw/blend/lv_draw_sw_blend_to_rgb565.c ****                     x = 1;
 2761              		.loc 1 210 37 view .LVU905
 2762 0176 2080     		strh	r0, [r4]	@ movhi
 211:Lib/lvgl/src/draw/sw/blend/lv_draw_sw_blend_to_rgb565.c ****                 }
 2763              		.loc 1 211 21 is_stmt 1 view .LVU906
 2764              	.LVL339:
 211:Lib/lvgl/src/draw/sw/blend/lv_draw_sw_blend_to_rgb565.c ****                 }
 2765              		.loc 1 211 23 is_stmt 0 view .LVU907
 2766 0178 0126     		movs	r6, #1
 2767 017a CDF808A0 		str	r10, [sp, #8]
 2768 017e CDF810B0 		str	fp, [sp, #16]
 2769 0182 CDF81480 		str	r8, [sp, #20]
 2770 0186 ACE7     		b	.L155
 2771              	.LVL340:
 2772              	.L163:
 211:Lib/lvgl/src/draw/sw/blend/lv_draw_sw_blend_to_rgb565.c ****                 }
 2773              		.loc 1 211 23 view .LVU908
 2774              	.LBE143:
 2775              	.LBB144:
 250:Lib/lvgl/src/draw/sw/blend/lv_draw_sw_blend_to_rgb565.c ****                 }
 2776              		.loc 1 250 21 is_stmt 1 discriminator 4 view .LVU909
 250:Lib/lvgl/src/draw/sw/blend/lv_draw_sw_blend_to_rgb565.c ****                 }
 2777              		.loc 1 250 39 is_stmt 0 discriminator 4 view .LVU910
 2778 0188 18F80620 		ldrb	r2, [r8, r6]	@ zero_extendqisi2
 2779 018c 34F81610 		ldrh	r1, [r4, r6, lsl #1]
 2780 0190 2846     		mov	r0, r5
 2781 0192 FFF7FEFF 		bl	lv_color_16_16_mix
 2782              	.LVL341:
 250:Lib/lvgl/src/draw/sw/blend/lv_draw_sw_blend_to_rgb565.c ****                 }
 2783              		.loc 1 250 37 discriminator 4 view .LVU911
 2784 0196 24F81600 		strh	r0, [r4, r6, lsl #1]	@ movhi
 249:Lib/lvgl/src/draw/sw/blend/lv_draw_sw_blend_to_rgb565.c ****                     dest_buf_u16[x] = lv_color_16_16_mix(color16, dest_buf_u16[x], mask[x]);
 2785              		.loc 1 249 68 is_stmt 1 discriminator 4 view .LVU912
 2786 019a 0136     		adds	r6, r6, #1
 2787              	.LVL342:
 2788              	.L171:
 249:Lib/lvgl/src/draw/sw/blend/lv_draw_sw_blend_to_rgb565.c ****                     dest_buf_u16[x] = lv_color_16_16_mix(color16, dest_buf_u16[x], mask[x]);
 2789              		.loc 1 249 34 discriminator 1 view .LVU913
 2790 019c BE42     		cmp	r6, r7
 2791 019e 51DA     		bge	.L181
 249:Lib/lvgl/src/draw/sw/blend/lv_draw_sw_blend_to_rgb565.c ****                     dest_buf_u16[x] = lv_color_16_16_mix(color16, dest_buf_u16[x], mask[x]);
 2792              		.loc 1 249 34 is_stmt 0 discriminator 3 view .LVU914
 2793 01a0 18F0030F 		tst	r8, #3
 2794 01a4 F0D1     		bne	.L163
 249:Lib/lvgl/src/draw/sw/blend/lv_draw_sw_blend_to_rgb565.c ****                     dest_buf_u16[x] = lv_color_16_16_mix(color16, dest_buf_u16[x], mask[x]);
 2795              		.loc 1 249 34 discriminator 3 view .LVU915
 2796 01a6 CDF804A0 		str	r10, [sp, #4]
 2797 01aa CDF80C90 		str	r9, [sp, #12]
 2798 01ae 0EE0     		b	.L167
 2799              	.LVL343:
 2800              	.L188:
 2801              	.LBB130:
ARM GAS  C:\Users\Alex\AppData\Local\Temp\ccUzeV0Q.s 			page 82


 256:Lib/lvgl/src/draw/sw/blend/lv_draw_sw_blend_to_rgb565.c ****                             dest_buf_u16[x] = color16;
 2802              		.loc 1 256 25 is_stmt 1 view .LVU916
 256:Lib/lvgl/src/draw/sw/blend/lv_draw_sw_blend_to_rgb565.c ****                             dest_buf_u16[x] = color16;
 2803              		.loc 1 256 42 is_stmt 0 view .LVU917
 2804 01b0 04EB4603 		add	r3, r4, r6, lsl #1
 2805              	.LVL344:
 256:Lib/lvgl/src/draw/sw/blend/lv_draw_sw_blend_to_rgb565.c ****                             dest_buf_u16[x] = color16;
 2806              		.loc 1 256 27 view .LVU918
 2807 01b4 13F0030F 		tst	r3, #3
 2808 01b8 3FD0     		beq	.L165
 2809              	.LBB131:
 257:Lib/lvgl/src/draw/sw/blend/lv_draw_sw_blend_to_rgb565.c ****                             uint32_t * d32 = (uint32_t *)(&dest_buf_u16[x + 1]);
 2810              		.loc 1 257 29 is_stmt 1 view .LVU919
 257:Lib/lvgl/src/draw/sw/blend/lv_draw_sw_blend_to_rgb565.c ****                             uint32_t * d32 = (uint32_t *)(&dest_buf_u16[x + 1]);
 2811              		.loc 1 257 45 is_stmt 0 view .LVU920
 2812 01ba 24F81650 		strh	r5, [r4, r6, lsl #1]	@ movhi
 2813              	.LVL345:
 258:Lib/lvgl/src/draw/sw/blend/lv_draw_sw_blend_to_rgb565.c ****                             *d32 = c32;
 2814              		.loc 1 258 29 is_stmt 1 view .LVU921
 258:Lib/lvgl/src/draw/sw/blend/lv_draw_sw_blend_to_rgb565.c ****                             *d32 = c32;
 2815              		.loc 1 258 72 is_stmt 0 view .LVU922
 2816 01be 731C     		adds	r3, r6, #1
 2817              	.LVL346:
 259:Lib/lvgl/src/draw/sw/blend/lv_draw_sw_blend_to_rgb565.c ****                             dest_buf_u16[x + 3] = color16;
 2818              		.loc 1 259 29 is_stmt 1 view .LVU923
 259:Lib/lvgl/src/draw/sw/blend/lv_draw_sw_blend_to_rgb565.c ****                             dest_buf_u16[x + 3] = color16;
 2819              		.loc 1 259 34 is_stmt 0 view .LVU924
 2820 01c0 44F813B0 		str	fp, [r4, r3, lsl #1]
 260:Lib/lvgl/src/draw/sw/blend/lv_draw_sw_blend_to_rgb565.c ****                         }
 2821              		.loc 1 260 29 is_stmt 1 view .LVU925
 260:Lib/lvgl/src/draw/sw/blend/lv_draw_sw_blend_to_rgb565.c ****                         }
 2822              		.loc 1 260 41 is_stmt 0 view .LVU926
 2823 01c4 06F10309 		add	r9, r6, #3
 260:Lib/lvgl/src/draw/sw/blend/lv_draw_sw_blend_to_rgb565.c ****                         }
 2824              		.loc 1 260 49 view .LVU927
 2825 01c8 24F81950 		strh	r5, [r4, r9, lsl #1]	@ movhi
 2826              	.LVL347:
 2827              	.L166:
 260:Lib/lvgl/src/draw/sw/blend/lv_draw_sw_blend_to_rgb565.c ****                         }
 2828              		.loc 1 260 49 view .LVU928
 2829              	.LBE131:
 2830              	.LBE130:
 253:Lib/lvgl/src/draw/sw/blend/lv_draw_sw_blend_to_rgb565.c ****                     uint32_t mask32 = *((uint32_t *)&mask[x]);
 2831              		.loc 1 253 37 is_stmt 1 view .LVU929
 2832 01cc 0436     		adds	r6, r6, #4
 2833              	.LVL348:
 2834              	.L167:
 253:Lib/lvgl/src/draw/sw/blend/lv_draw_sw_blend_to_rgb565.c ****                     uint32_t mask32 = *((uint32_t *)&mask[x]);
 2835              		.loc 1 253 25 discriminator 1 view .LVU930
 2836 01ce FB1E     		subs	r3, r7, #3
 2837 01d0 B342     		cmp	r3, r6
 2838 01d2 3CDD     		ble	.L187
 2839              	.LBB133:
 254:Lib/lvgl/src/draw/sw/blend/lv_draw_sw_blend_to_rgb565.c ****                     if(mask32 == 0xFFFFFFFF) {
 2840              		.loc 1 254 21 view .LVU931
 254:Lib/lvgl/src/draw/sw/blend/lv_draw_sw_blend_to_rgb565.c ****                     if(mask32 == 0xFFFFFFFF) {
 2841              		.loc 1 254 53 is_stmt 0 view .LVU932
ARM GAS  C:\Users\Alex\AppData\Local\Temp\ccUzeV0Q.s 			page 83


 2842 01d4 08EB0602 		add	r2, r8, r6
 254:Lib/lvgl/src/draw/sw/blend/lv_draw_sw_blend_to_rgb565.c ****                     if(mask32 == 0xFFFFFFFF) {
 2843              		.loc 1 254 30 view .LVU933
 2844 01d8 58F80630 		ldr	r3, [r8, r6]
 2845              	.LVL349:
 255:Lib/lvgl/src/draw/sw/blend/lv_draw_sw_blend_to_rgb565.c ****                         if((lv_uintptr_t)&dest_buf_u16[x] & 0x3) {
 2846              		.loc 1 255 21 is_stmt 1 view .LVU934
 255:Lib/lvgl/src/draw/sw/blend/lv_draw_sw_blend_to_rgb565.c ****                         if((lv_uintptr_t)&dest_buf_u16[x] & 0x3) {
 2847              		.loc 1 255 23 is_stmt 0 view .LVU935
 2848 01dc B3F1FF3F 		cmp	r3, #-1
 2849 01e0 E6D0     		beq	.L188
 268:Lib/lvgl/src/draw/sw/blend/lv_draw_sw_blend_to_rgb565.c ****                         dest_buf_u16[x + 0] = lv_color_16_16_mix(color16, dest_buf_u16[x + 0], mask
 2850              		.loc 1 268 26 is_stmt 1 view .LVU936
 268:Lib/lvgl/src/draw/sw/blend/lv_draw_sw_blend_to_rgb565.c ****                         dest_buf_u16[x + 0] = lv_color_16_16_mix(color16, dest_buf_u16[x + 0], mask
 2851              		.loc 1 268 28 is_stmt 0 view .LVU937
 2852 01e2 002B     		cmp	r3, #0
 2853 01e4 F2D0     		beq	.L166
 269:Lib/lvgl/src/draw/sw/blend/lv_draw_sw_blend_to_rgb565.c ****                         dest_buf_u16[x + 1] = lv_color_16_16_mix(color16, dest_buf_u16[x + 1], mask
 2854              		.loc 1 269 25 is_stmt 1 view .LVU938
 269:Lib/lvgl/src/draw/sw/blend/lv_draw_sw_blend_to_rgb565.c ****                         dest_buf_u16[x + 1] = lv_color_16_16_mix(color16, dest_buf_u16[x + 1], mask
 2855              		.loc 1 269 47 is_stmt 0 view .LVU939
 2856 01e6 1278     		ldrb	r2, [r2]	@ zero_extendqisi2
 2857 01e8 34F81610 		ldrh	r1, [r4, r6, lsl #1]
 2858 01ec 2846     		mov	r0, r5
 2859 01ee FFF7FEFF 		bl	lv_color_16_16_mix
 2860              	.LVL350:
 269:Lib/lvgl/src/draw/sw/blend/lv_draw_sw_blend_to_rgb565.c ****                         dest_buf_u16[x + 1] = lv_color_16_16_mix(color16, dest_buf_u16[x + 1], mask
 2861              		.loc 1 269 45 view .LVU940
 2862 01f2 24F81600 		strh	r0, [r4, r6, lsl #1]	@ movhi
 270:Lib/lvgl/src/draw/sw/blend/lv_draw_sw_blend_to_rgb565.c ****                         dest_buf_u16[x + 2] = lv_color_16_16_mix(color16, dest_buf_u16[x + 2], mask
 2863              		.loc 1 270 25 is_stmt 1 view .LVU941
 270:Lib/lvgl/src/draw/sw/blend/lv_draw_sw_blend_to_rgb565.c ****                         dest_buf_u16[x + 2] = lv_color_16_16_mix(color16, dest_buf_u16[x + 2], mask
 2864              		.loc 1 270 87 is_stmt 0 view .LVU942
 2865 01f6 06F1010A 		add	r10, r6, #1
 270:Lib/lvgl/src/draw/sw/blend/lv_draw_sw_blend_to_rgb565.c ****                         dest_buf_u16[x + 2] = lv_color_16_16_mix(color16, dest_buf_u16[x + 2], mask
 2866              		.loc 1 270 47 view .LVU943
 2867 01fa 18F80A20 		ldrb	r2, [r8, r10]	@ zero_extendqisi2
 2868 01fe 34F81A10 		ldrh	r1, [r4, r10, lsl #1]
 2869 0202 2846     		mov	r0, r5
 2870 0204 FFF7FEFF 		bl	lv_color_16_16_mix
 2871              	.LVL351:
 270:Lib/lvgl/src/draw/sw/blend/lv_draw_sw_blend_to_rgb565.c ****                         dest_buf_u16[x + 2] = lv_color_16_16_mix(color16, dest_buf_u16[x + 2], mask
 2872              		.loc 1 270 45 view .LVU944
 2873 0208 24F81A00 		strh	r0, [r4, r10, lsl #1]	@ movhi
 271:Lib/lvgl/src/draw/sw/blend/lv_draw_sw_blend_to_rgb565.c ****                         dest_buf_u16[x + 3] = lv_color_16_16_mix(color16, dest_buf_u16[x + 3], mask
 2874              		.loc 1 271 25 is_stmt 1 view .LVU945
 271:Lib/lvgl/src/draw/sw/blend/lv_draw_sw_blend_to_rgb565.c ****                         dest_buf_u16[x + 3] = lv_color_16_16_mix(color16, dest_buf_u16[x + 3], mask
 2875              		.loc 1 271 87 is_stmt 0 view .LVU946
 2876 020c 06F1020A 		add	r10, r6, #2
 271:Lib/lvgl/src/draw/sw/blend/lv_draw_sw_blend_to_rgb565.c ****                         dest_buf_u16[x + 3] = lv_color_16_16_mix(color16, dest_buf_u16[x + 3], mask
 2877              		.loc 1 271 47 view .LVU947
 2878 0210 18F80A20 		ldrb	r2, [r8, r10]	@ zero_extendqisi2
 2879 0214 34F81A10 		ldrh	r1, [r4, r10, lsl #1]
 2880 0218 2846     		mov	r0, r5
 2881 021a FFF7FEFF 		bl	lv_color_16_16_mix
 2882              	.LVL352:
 271:Lib/lvgl/src/draw/sw/blend/lv_draw_sw_blend_to_rgb565.c ****                         dest_buf_u16[x + 3] = lv_color_16_16_mix(color16, dest_buf_u16[x + 3], mask
ARM GAS  C:\Users\Alex\AppData\Local\Temp\ccUzeV0Q.s 			page 84


 2883              		.loc 1 271 45 view .LVU948
 2884 021e 24F81A00 		strh	r0, [r4, r10, lsl #1]	@ movhi
 272:Lib/lvgl/src/draw/sw/blend/lv_draw_sw_blend_to_rgb565.c ****                     }
 2885              		.loc 1 272 25 is_stmt 1 view .LVU949
 272:Lib/lvgl/src/draw/sw/blend/lv_draw_sw_blend_to_rgb565.c ****                     }
 2886              		.loc 1 272 87 is_stmt 0 view .LVU950
 2887 0222 06F10309 		add	r9, r6, #3
 272:Lib/lvgl/src/draw/sw/blend/lv_draw_sw_blend_to_rgb565.c ****                     }
 2888              		.loc 1 272 47 view .LVU951
 2889 0226 18F80920 		ldrb	r2, [r8, r9]	@ zero_extendqisi2
 2890 022a 34F81910 		ldrh	r1, [r4, r9, lsl #1]
 2891 022e 2846     		mov	r0, r5
 2892 0230 FFF7FEFF 		bl	lv_color_16_16_mix
 2893              	.LVL353:
 272:Lib/lvgl/src/draw/sw/blend/lv_draw_sw_blend_to_rgb565.c ****                     }
 2894              		.loc 1 272 45 view .LVU952
 2895 0234 24F81900 		strh	r0, [r4, r9, lsl #1]	@ movhi
 2896 0238 C8E7     		b	.L166
 2897              	.LVL354:
 2898              	.L165:
 2899              	.LBB132:
 263:Lib/lvgl/src/draw/sw/blend/lv_draw_sw_blend_to_rgb565.c ****                             dest32[0] = c32;
 2900              		.loc 1 263 29 is_stmt 1 view .LVU953
 264:Lib/lvgl/src/draw/sw/blend/lv_draw_sw_blend_to_rgb565.c ****                             dest32[1] = c32;
 2901              		.loc 1 264 29 view .LVU954
 264:Lib/lvgl/src/draw/sw/blend/lv_draw_sw_blend_to_rgb565.c ****                             dest32[1] = c32;
 2902              		.loc 1 264 39 is_stmt 0 view .LVU955
 2903 023a 44F816B0 		str	fp, [r4, r6, lsl #1]
 2904              	.LVL355:
 265:Lib/lvgl/src/draw/sw/blend/lv_draw_sw_blend_to_rgb565.c ****                         }
 2905              		.loc 1 265 29 is_stmt 1 view .LVU956
 265:Lib/lvgl/src/draw/sw/blend/lv_draw_sw_blend_to_rgb565.c ****                         }
 2906              		.loc 1 265 39 is_stmt 0 view .LVU957
 2907 023e C3F804B0 		str	fp, [r3, #4]
 2908 0242 C3E7     		b	.L166
 2909              	.LVL356:
 2910              	.L181:
 265:Lib/lvgl/src/draw/sw/blend/lv_draw_sw_blend_to_rgb565.c ****                         }
 2911              		.loc 1 265 39 view .LVU958
 2912 0244 CDF804A0 		str	r10, [sp, #4]
 2913 0248 CDF80C90 		str	r9, [sp, #12]
 2914 024c BFE7     		b	.L167
 2915              	.LVL357:
 2916              	.L187:
 265:Lib/lvgl/src/draw/sw/blend/lv_draw_sw_blend_to_rgb565.c ****                         }
 2917              		.loc 1 265 39 view .LVU959
 2918              	.LBE132:
 2919              	.LBE133:
 2920 024e DDF804A0 		ldr	r10, [sp, #4]
 2921 0252 DDF80C90 		ldr	r9, [sp, #12]
 2922 0256 09E0     		b	.L169
 2923              	.L170:
 277:Lib/lvgl/src/draw/sw/blend/lv_draw_sw_blend_to_rgb565.c ****                 }
 2924              		.loc 1 277 21 is_stmt 1 discriminator 2 view .LVU960
 277:Lib/lvgl/src/draw/sw/blend/lv_draw_sw_blend_to_rgb565.c ****                 }
 2925              		.loc 1 277 39 is_stmt 0 discriminator 2 view .LVU961
 2926 0258 18F80620 		ldrb	r2, [r8, r6]	@ zero_extendqisi2
ARM GAS  C:\Users\Alex\AppData\Local\Temp\ccUzeV0Q.s 			page 85


 2927 025c 34F81610 		ldrh	r1, [r4, r6, lsl #1]
 2928 0260 2846     		mov	r0, r5
 2929 0262 FFF7FEFF 		bl	lv_color_16_16_mix
 2930              	.LVL358:
 277:Lib/lvgl/src/draw/sw/blend/lv_draw_sw_blend_to_rgb565.c ****                 }
 2931              		.loc 1 277 37 discriminator 2 view .LVU962
 2932 0266 24F81600 		strh	r0, [r4, r6, lsl #1]	@ movhi
 276:Lib/lvgl/src/draw/sw/blend/lv_draw_sw_blend_to_rgb565.c ****                     dest_buf_u16[x] = lv_color_16_16_mix(color16, dest_buf_u16[x], mask[x]);
 2933              		.loc 1 276 32 is_stmt 1 discriminator 2 view .LVU963
 2934 026a 0136     		adds	r6, r6, #1
 2935              	.LVL359:
 2936              	.L169:
 276:Lib/lvgl/src/draw/sw/blend/lv_draw_sw_blend_to_rgb565.c ****                     dest_buf_u16[x] = lv_color_16_16_mix(color16, dest_buf_u16[x], mask[x]);
 2937              		.loc 1 276 25 discriminator 1 view .LVU964
 2938 026c BE42     		cmp	r6, r7
 2939 026e F3DB     		blt	.L170
 279:Lib/lvgl/src/draw/sw/blend/lv_draw_sw_blend_to_rgb565.c ****                 mask += mask_stride;
 2940              		.loc 1 279 17 discriminator 2 view .LVU965
 2941              	.LVL360:
 2942              	.LBB134:
 2943              	.LBI134:
 670:Lib/lvgl/src/draw/sw/blend/lv_draw_sw_blend_to_rgb565.c **** {
 2944              		.loc 1 670 44 discriminator 2 view .LVU966
 2945              	.LBB135:
 2946              		.loc 1 672 5 discriminator 2 view .LVU967
 2947              		.loc 1 672 12 is_stmt 0 discriminator 2 view .LVU968
 2948 0270 029B     		ldr	r3, [sp, #8]
 2949 0272 1C44     		add	r4, r4, r3
 2950              	.LVL361:
 2951              		.loc 1 672 12 discriminator 2 view .LVU969
 2952              	.LBE135:
 2953              	.LBE134:
 280:Lib/lvgl/src/draw/sw/blend/lv_draw_sw_blend_to_rgb565.c ****             }
 2954              		.loc 1 280 17 is_stmt 1 discriminator 2 view .LVU970
 280:Lib/lvgl/src/draw/sw/blend/lv_draw_sw_blend_to_rgb565.c ****             }
 2955              		.loc 1 280 22 is_stmt 0 discriminator 2 view .LVU971
 2956 0274 049B     		ldr	r3, [sp, #16]
 2957 0276 9844     		add	r8, r8, r3
 2958              	.LVL362:
 248:Lib/lvgl/src/draw/sw/blend/lv_draw_sw_blend_to_rgb565.c ****                 for(x = 0; x < w && ((lv_uintptr_t)(mask) & 0x3); x++) {
 2959              		.loc 1 248 32 is_stmt 1 discriminator 2 view .LVU972
 2960 0278 0AF1010A 		add	r10, r10, #1
 2961              	.LVL363:
 2962              	.L161:
 248:Lib/lvgl/src/draw/sw/blend/lv_draw_sw_blend_to_rgb565.c ****                 for(x = 0; x < w && ((lv_uintptr_t)(mask) & 0x3); x++) {
 2963              		.loc 1 248 26 discriminator 1 view .LVU973
 2964 027c CA45     		cmp	r10, r9
 2965 027e 24DA     		bge	.L139
 249:Lib/lvgl/src/draw/sw/blend/lv_draw_sw_blend_to_rgb565.c ****                     dest_buf_u16[x] = lv_color_16_16_mix(color16, dest_buf_u16[x], mask[x]);
 2966              		.loc 1 249 23 is_stmt 0 view .LVU974
 2967 0280 0026     		movs	r6, #0
 2968 0282 8BE7     		b	.L171
 2969              	.LVL364:
 2970              	.L160:
 249:Lib/lvgl/src/draw/sw/blend/lv_draw_sw_blend_to_rgb565.c ****                     dest_buf_u16[x] = lv_color_16_16_mix(color16, dest_buf_u16[x], mask[x]);
 2971              		.loc 1 249 23 view .LVU975
 2972              	.LBE144:
ARM GAS  C:\Users\Alex\AppData\Local\Temp\ccUzeV0Q.s 			page 86


 286:Lib/lvgl/src/draw/sw/blend/lv_draw_sw_blend_to_rgb565.c ****         if(LV_RESULT_INVALID == LV_DRAW_SW_COLOR_BLEND_TO_RGB565_MIX_MASK_OPA(dsc)) {
 2973              		.loc 1 286 10 is_stmt 1 view .LVU976
 286:Lib/lvgl/src/draw/sw/blend/lv_draw_sw_blend_to_rgb565.c ****         if(LV_RESULT_INVALID == LV_DRAW_SW_COLOR_BLEND_TO_RGB565_MIX_MASK_OPA(dsc)) {
 2974              		.loc 1 286 12 is_stmt 0 view .LVU977
 2975 0284 B8F1000F 		cmp	r8, #0
 2976 0288 1FD0     		beq	.L139
 288:Lib/lvgl/src/draw/sw/blend/lv_draw_sw_blend_to_rgb565.c ****                 for(x = 0; x < w; x++) {
 2977              		.loc 1 288 19 view .LVU978
 2978 028a 4FF0000A 		mov	r10, #0
 2979 028e 5346     		mov	r3, r10
 2980              	.LVL365:
 288:Lib/lvgl/src/draw/sw/blend/lv_draw_sw_blend_to_rgb565.c ****                 for(x = 0; x < w; x++) {
 2981              		.loc 1 288 19 view .LVU979
 2982 0290 C246     		mov	r10, r8
 2983 0292 0191     		str	r1, [sp, #4]
 2984 0294 9846     		mov	r8, r3
 2985              	.LVL366:
 288:Lib/lvgl/src/draw/sw/blend/lv_draw_sw_blend_to_rgb565.c ****                 for(x = 0; x < w; x++) {
 2986              		.loc 1 288 19 view .LVU980
 2987 0296 14E0     		b	.L172
 2988              	.LVL367:
 2989              	.L173:
 290:Lib/lvgl/src/draw/sw/blend/lv_draw_sw_blend_to_rgb565.c ****                 }
 2990              		.loc 1 290 21 is_stmt 1 discriminator 3 view .LVU981
 290:Lib/lvgl/src/draw/sw/blend/lv_draw_sw_blend_to_rgb565.c ****                 }
 2991              		.loc 1 290 84 is_stmt 0 discriminator 3 view .LVU982
 2992 0298 1AF80620 		ldrb	r2, [r10, r6]	@ zero_extendqisi2
 2993 029c 02FB09F2 		mul	r2, r2, r9
 290:Lib/lvgl/src/draw/sw/blend/lv_draw_sw_blend_to_rgb565.c ****                 }
 2994              		.loc 1 290 39 discriminator 3 view .LVU983
 2995 02a0 120A     		lsrs	r2, r2, #8
 2996 02a2 34F81610 		ldrh	r1, [r4, r6, lsl #1]
 2997 02a6 2846     		mov	r0, r5
 2998 02a8 FFF7FEFF 		bl	lv_color_16_16_mix
 2999              	.LVL368:
 290:Lib/lvgl/src/draw/sw/blend/lv_draw_sw_blend_to_rgb565.c ****                 }
 3000              		.loc 1 290 37 discriminator 3 view .LVU984
 3001 02ac 24F81600 		strh	r0, [r4, r6, lsl #1]	@ movhi
 289:Lib/lvgl/src/draw/sw/blend/lv_draw_sw_blend_to_rgb565.c ****                     dest_buf_u16[x] = lv_color_16_16_mix(color16, dest_buf_u16[x], LV_OPA_MIX2(mask
 3002              		.loc 1 289 36 is_stmt 1 discriminator 3 view .LVU985
 3003 02b0 0136     		adds	r6, r6, #1
 3004              	.LVL369:
 3005              	.L174:
 289:Lib/lvgl/src/draw/sw/blend/lv_draw_sw_blend_to_rgb565.c ****                     dest_buf_u16[x] = lv_color_16_16_mix(color16, dest_buf_u16[x], LV_OPA_MIX2(mask
 3006              		.loc 1 289 30 discriminator 1 view .LVU986
 3007 02b2 BE42     		cmp	r6, r7
 3008 02b4 F0DB     		blt	.L173
 292:Lib/lvgl/src/draw/sw/blend/lv_draw_sw_blend_to_rgb565.c ****                 mask += mask_stride;
 3009              		.loc 1 292 17 discriminator 2 view .LVU987
 3010              	.LVL370:
 3011              	.LBB145:
 3012              	.LBI145:
 670:Lib/lvgl/src/draw/sw/blend/lv_draw_sw_blend_to_rgb565.c **** {
 3013              		.loc 1 670 44 discriminator 2 view .LVU988
 3014              	.LBB146:
 3015              		.loc 1 672 5 discriminator 2 view .LVU989
 3016              		.loc 1 672 12 is_stmt 0 discriminator 2 view .LVU990
ARM GAS  C:\Users\Alex\AppData\Local\Temp\ccUzeV0Q.s 			page 87


 3017 02b6 029B     		ldr	r3, [sp, #8]
 3018 02b8 1C44     		add	r4, r4, r3
 3019              	.LVL371:
 3020              		.loc 1 672 12 discriminator 2 view .LVU991
 3021              	.LBE146:
 3022              	.LBE145:
 293:Lib/lvgl/src/draw/sw/blend/lv_draw_sw_blend_to_rgb565.c ****             }
 3023              		.loc 1 293 17 is_stmt 1 discriminator 2 view .LVU992
 293:Lib/lvgl/src/draw/sw/blend/lv_draw_sw_blend_to_rgb565.c ****             }
 3024              		.loc 1 293 22 is_stmt 0 discriminator 2 view .LVU993
 3025 02ba 019B     		ldr	r3, [sp, #4]
 3026 02bc 9A44     		add	r10, r10, r3
 3027              	.LVL372:
 288:Lib/lvgl/src/draw/sw/blend/lv_draw_sw_blend_to_rgb565.c ****                 for(x = 0; x < w; x++) {
 3028              		.loc 1 288 32 is_stmt 1 discriminator 2 view .LVU994
 3029 02be 08F10108 		add	r8, r8, #1
 3030              	.LVL373:
 3031              	.L172:
 288:Lib/lvgl/src/draw/sw/blend/lv_draw_sw_blend_to_rgb565.c ****                 for(x = 0; x < w; x++) {
 3032              		.loc 1 288 26 discriminator 1 view .LVU995
 3033 02c2 D845     		cmp	r8, fp
 3034 02c4 01DA     		bge	.L139
 289:Lib/lvgl/src/draw/sw/blend/lv_draw_sw_blend_to_rgb565.c ****                     dest_buf_u16[x] = lv_color_16_16_mix(color16, dest_buf_u16[x], LV_OPA_MIX2(mask
 3035              		.loc 1 289 23 is_stmt 0 view .LVU996
 3036 02c6 0026     		movs	r6, #0
 3037 02c8 F3E7     		b	.L174
 3038              	.LVL374:
 3039              	.L139:
 297:Lib/lvgl/src/draw/sw/blend/lv_draw_sw_blend_to_rgb565.c **** 
 3040              		.loc 1 297 1 view .LVU997
 3041 02ca 07B0     		add	sp, sp, #28
 3042              	.LCFI16:
 3043              		.cfi_def_cfa_offset 36
 3044              		@ sp needed
 3045 02cc BDE8F08F 		pop	{r4, r5, r6, r7, r8, r9, r10, fp, pc}
 297:Lib/lvgl/src/draw/sw/blend/lv_draw_sw_blend_to_rgb565.c **** 
 3046              		.loc 1 297 1 view .LVU998
 3047              		.cfi_endproc
 3048              	.LFE233:
 3050              		.section	.text.lv_draw_sw_blend_image_to_rgb565,"ax",%progbits
 3051              		.align	1
 3052              		.global	lv_draw_sw_blend_image_to_rgb565
 3053              		.syntax unified
 3054              		.thumb
 3055              		.thumb_func
 3057              	lv_draw_sw_blend_image_to_rgb565:
 3058              	.LVL375:
 3059              	.LFB234:
 300:Lib/lvgl/src/draw/sw/blend/lv_draw_sw_blend_to_rgb565.c ****     switch(dsc->src_color_format) {
 3060              		.loc 1 300 1 is_stmt 1 view -0
 3061              		.cfi_startproc
 3062              		@ args = 0, pretend = 0, frame = 0
 3063              		@ frame_needed = 0, uses_anonymous_args = 0
 300:Lib/lvgl/src/draw/sw/blend/lv_draw_sw_blend_to_rgb565.c ****     switch(dsc->src_color_format) {
 3064              		.loc 1 300 1 is_stmt 0 view .LVU1000
 3065 0000 08B5     		push	{r3, lr}
 3066              	.LCFI17:
ARM GAS  C:\Users\Alex\AppData\Local\Temp\ccUzeV0Q.s 			page 88


 3067              		.cfi_def_cfa_offset 8
 3068              		.cfi_offset 3, -8
 3069              		.cfi_offset 14, -4
 301:Lib/lvgl/src/draw/sw/blend/lv_draw_sw_blend_to_rgb565.c ****         case LV_COLOR_FORMAT_RGB565:
 3070              		.loc 1 301 5 is_stmt 1 view .LVU1001
 301:Lib/lvgl/src/draw/sw/blend/lv_draw_sw_blend_to_rgb565.c ****         case LV_COLOR_FORMAT_RGB565:
 3071              		.loc 1 301 15 is_stmt 0 view .LVU1002
 3072 0002 90F82030 		ldrb	r3, [r0, #32]	@ zero_extendqisi2
 301:Lib/lvgl/src/draw/sw/blend/lv_draw_sw_blend_to_rgb565.c ****         case LV_COLOR_FORMAT_RGB565:
 3073              		.loc 1 301 5 view .LVU1003
 3074 0006 0F3B     		subs	r3, r3, #15
 3075 0008 032B     		cmp	r3, #3
 3076 000a 05D8     		bhi	.L189
 3077 000c DFE803F0 		tbb	[pc, r3]
 3078              	.L192:
 3079 0010 05       		.byte	(.L195-.L192)/2
 3080 0011 0D       		.byte	(.L194-.L192)/2
 3081 0012 09       		.byte	(.L193-.L192)/2
 3082 0013 02       		.byte	(.L191-.L192)/2
 3083              		.p2align 1
 3084              	.L191:
 303:Lib/lvgl/src/draw/sw/blend/lv_draw_sw_blend_to_rgb565.c ****             break;
 3085              		.loc 1 303 13 is_stmt 1 view .LVU1004
 3086 0014 FFF7FEFF 		bl	rgb565_image_blend
 3087              	.LVL376:
 304:Lib/lvgl/src/draw/sw/blend/lv_draw_sw_blend_to_rgb565.c ****         case LV_COLOR_FORMAT_RGB888:
 3088              		.loc 1 304 13 view .LVU1005
 3089              	.L189:
 318:Lib/lvgl/src/draw/sw/blend/lv_draw_sw_blend_to_rgb565.c **** 
 3090              		.loc 1 318 1 is_stmt 0 view .LVU1006
 3091 0018 08BD     		pop	{r3, pc}
 3092              	.LVL377:
 3093              	.L195:
 306:Lib/lvgl/src/draw/sw/blend/lv_draw_sw_blend_to_rgb565.c ****             break;
 3094              		.loc 1 306 13 is_stmt 1 view .LVU1007
 3095 001a 0321     		movs	r1, #3
 3096 001c FFF7FEFF 		bl	rgb888_image_blend
 3097              	.LVL378:
 307:Lib/lvgl/src/draw/sw/blend/lv_draw_sw_blend_to_rgb565.c ****         case LV_COLOR_FORMAT_XRGB8888:
 3098              		.loc 1 307 13 view .LVU1008
 3099 0020 FAE7     		b	.L189
 3100              	.LVL379:
 3101              	.L193:
 309:Lib/lvgl/src/draw/sw/blend/lv_draw_sw_blend_to_rgb565.c ****             break;
 3102              		.loc 1 309 13 view .LVU1009
 3103 0022 0421     		movs	r1, #4
 3104 0024 FFF7FEFF 		bl	rgb888_image_blend
 3105              	.LVL380:
 310:Lib/lvgl/src/draw/sw/blend/lv_draw_sw_blend_to_rgb565.c ****         case LV_COLOR_FORMAT_ARGB8888:
 3106              		.loc 1 310 13 view .LVU1010
 3107 0028 F6E7     		b	.L189
 3108              	.LVL381:
 3109              	.L194:
 312:Lib/lvgl/src/draw/sw/blend/lv_draw_sw_blend_to_rgb565.c ****             break;
 3110              		.loc 1 312 13 view .LVU1011
 3111 002a FFF7FEFF 		bl	argb8888_image_blend
 3112              	.LVL382:
ARM GAS  C:\Users\Alex\AppData\Local\Temp\ccUzeV0Q.s 			page 89


 313:Lib/lvgl/src/draw/sw/blend/lv_draw_sw_blend_to_rgb565.c ****         default:
 3113              		.loc 1 313 13 view .LVU1012
 318:Lib/lvgl/src/draw/sw/blend/lv_draw_sw_blend_to_rgb565.c **** 
 3114              		.loc 1 318 1 is_stmt 0 view .LVU1013
 3115 002e F3E7     		b	.L189
 3116              		.cfi_endproc
 3117              	.LFE234:
 3119              		.text
 3120              	.Letext0:
 3121              		.file 3 "e:\\programms\\gnu_mcu_eclipse\\toolchain\\arm-gnu-toolchain-12.2.mpacbti-bet1-mingw-w64-
 3122              		.file 4 "e:\\programms\\gnu_mcu_eclipse\\toolchain\\arm-gnu-toolchain-12.2.mpacbti-bet1-mingw-w64-
 3123              		.file 5 "Lib/lvgl/src/draw/sw/blend/../../../misc/lv_types.h"
 3124              		.file 6 "e:\\programms\\gnu_mcu_eclipse\\toolchain\\arm-gnu-toolchain-12.2.mpacbti-bet1-mingw-w64-
 3125              		.file 7 "Lib/lvgl/src/draw/sw/blend/../../../misc/lv_style.h"
 3126              		.file 8 "Lib/lvgl/src/draw/sw/blend/../blend/lv_draw_sw_blend.h"
 3127              		.file 9 "c:\\users\\alex\\eclipse-workspace\\lvgs_test\\lib\\lvgl\\src\\stdlib\\lv_string.h"
ARM GAS  C:\Users\Alex\AppData\Local\Temp\ccUzeV0Q.s 			page 90


DEFINED SYMBOLS
                            *ABS*:00000000 lv_draw_sw_blend_to_rgb565.c
C:\Users\Alex\AppData\Local\Temp\ccUzeV0Q.s:21     .text.lv_color_16_16_mix:00000000 $t
C:\Users\Alex\AppData\Local\Temp\ccUzeV0Q.s:26     .text.lv_color_16_16_mix:00000000 lv_color_16_16_mix
C:\Users\Alex\AppData\Local\Temp\ccUzeV0Q.s:97     .text.lv_color_16_16_mix:00000030 $d
C:\Users\Alex\AppData\Local\Temp\ccUzeV0Q.s:102    .text.lv_color_24_16_mix:00000000 $t
C:\Users\Alex\AppData\Local\Temp\ccUzeV0Q.s:107    .text.lv_color_24_16_mix:00000000 lv_color_24_16_mix
C:\Users\Alex\AppData\Local\Temp\ccUzeV0Q.s:235    .text.rgb888_image_blend:00000000 $t
C:\Users\Alex\AppData\Local\Temp\ccUzeV0Q.s:240    .text.rgb888_image_blend:00000000 rgb888_image_blend
C:\Users\Alex\AppData\Local\Temp\ccUzeV0Q.s:957    .text.argb8888_image_blend:00000000 $t
C:\Users\Alex\AppData\Local\Temp\ccUzeV0Q.s:962    .text.argb8888_image_blend:00000000 argb8888_image_blend
C:\Users\Alex\AppData\Local\Temp\ccUzeV0Q.s:1657   .text.rgb565_image_blend:00000000 $t
C:\Users\Alex\AppData\Local\Temp\ccUzeV0Q.s:1662   .text.rgb565_image_blend:00000000 rgb565_image_blend
C:\Users\Alex\AppData\Local\Temp\ccUzeV0Q.s:2356   .text.lv_draw_sw_blend_color_to_rgb565:00000000 $t
C:\Users\Alex\AppData\Local\Temp\ccUzeV0Q.s:2362   .text.lv_draw_sw_blend_color_to_rgb565:00000000 lv_draw_sw_blend_color_to_rgb565
C:\Users\Alex\AppData\Local\Temp\ccUzeV0Q.s:3051   .text.lv_draw_sw_blend_image_to_rgb565:00000000 $t
C:\Users\Alex\AppData\Local\Temp\ccUzeV0Q.s:3057   .text.lv_draw_sw_blend_image_to_rgb565:00000000 lv_draw_sw_blend_image_to_rgb565
C:\Users\Alex\AppData\Local\Temp\ccUzeV0Q.s:3079   .text.lv_draw_sw_blend_image_to_rgb565:00000010 $d
C:\Users\Alex\AppData\Local\Temp\ccUzeV0Q.s:3083   .text.lv_draw_sw_blend_image_to_rgb565:00000014 $t

UNDEFINED SYMBOLS
lv_memcpy
lv_color_to_u16
