ARM GAS  C:\Users\Alex\AppData\Local\Temp\cc8R0WAy.s 			page 1


   1              		.cpu cortex-m4
   2              		.arch armv7e-m
   3              		.fpu fpv4-sp-d16
   4              		.eabi_attribute 27, 1
   5              		.eabi_attribute 28, 1
   6              		.eabi_attribute 20, 1
   7              		.eabi_attribute 21, 1
   8              		.eabi_attribute 23, 3
   9              		.eabi_attribute 24, 1
  10              		.eabi_attribute 25, 1
  11              		.eabi_attribute 26, 1
  12              		.eabi_attribute 30, 1
  13              		.eabi_attribute 34, 1
  14              		.eabi_attribute 18, 4
  15              		.file	"lv_draw_sw_fill.c"
  16              		.text
  17              	.Ltext0:
  18              		.cfi_sections	.debug_frame
  19              		.file 1 "Lib/lvgl/src/draw/sw/lv_draw_sw_fill.c"
  20              		.section	.text.lv_draw_sw_fill,"ax",%progbits
  21              		.align	1
  22              		.global	lv_draw_sw_fill
  23              		.syntax unified
  24              		.thumb
  25              		.thumb_func
  27              	lv_draw_sw_fill:
  28              	.LVL0:
  29              	.LFB233:
   1:Lib/lvgl/src/draw/sw/lv_draw_sw_fill.c **** /**
   2:Lib/lvgl/src/draw/sw/lv_draw_sw_fill.c ****  * @file lv_draw_sw_fill.c
   3:Lib/lvgl/src/draw/sw/lv_draw_sw_fill.c ****  *
   4:Lib/lvgl/src/draw/sw/lv_draw_sw_fill.c ****  */
   5:Lib/lvgl/src/draw/sw/lv_draw_sw_fill.c **** 
   6:Lib/lvgl/src/draw/sw/lv_draw_sw_fill.c **** /*********************
   7:Lib/lvgl/src/draw/sw/lv_draw_sw_fill.c ****  *      INCLUDES
   8:Lib/lvgl/src/draw/sw/lv_draw_sw_fill.c ****  *********************/
   9:Lib/lvgl/src/draw/sw/lv_draw_sw_fill.c **** #include "lv_draw_sw.h"
  10:Lib/lvgl/src/draw/sw/lv_draw_sw_fill.c **** #if LV_USE_DRAW_SW
  11:Lib/lvgl/src/draw/sw/lv_draw_sw_fill.c **** 
  12:Lib/lvgl/src/draw/sw/lv_draw_sw_fill.c **** #include "blend/lv_draw_sw_blend.h"
  13:Lib/lvgl/src/draw/sw/lv_draw_sw_fill.c **** #include "lv_draw_sw_gradient.h"
  14:Lib/lvgl/src/draw/sw/lv_draw_sw_fill.c **** #include "../../misc/lv_math.h"
  15:Lib/lvgl/src/draw/sw/lv_draw_sw_fill.c **** #include "../../misc/lv_text_ap.h"
  16:Lib/lvgl/src/draw/sw/lv_draw_sw_fill.c **** #include "../../core/lv_refr.h"
  17:Lib/lvgl/src/draw/sw/lv_draw_sw_fill.c **** #include "../../misc/lv_assert.h"
  18:Lib/lvgl/src/draw/sw/lv_draw_sw_fill.c **** #include "../../stdlib/lv_string.h"
  19:Lib/lvgl/src/draw/sw/lv_draw_sw_fill.c **** #include "../lv_draw_mask.h"
  20:Lib/lvgl/src/draw/sw/lv_draw_sw_fill.c **** 
  21:Lib/lvgl/src/draw/sw/lv_draw_sw_fill.c **** /*********************
  22:Lib/lvgl/src/draw/sw/lv_draw_sw_fill.c ****  *      DEFINES
  23:Lib/lvgl/src/draw/sw/lv_draw_sw_fill.c ****  *********************/
  24:Lib/lvgl/src/draw/sw/lv_draw_sw_fill.c **** 
  25:Lib/lvgl/src/draw/sw/lv_draw_sw_fill.c **** /**********************
  26:Lib/lvgl/src/draw/sw/lv_draw_sw_fill.c ****  *      TYPEDEFS
  27:Lib/lvgl/src/draw/sw/lv_draw_sw_fill.c ****  **********************/
  28:Lib/lvgl/src/draw/sw/lv_draw_sw_fill.c **** 
  29:Lib/lvgl/src/draw/sw/lv_draw_sw_fill.c **** /**********************
ARM GAS  C:\Users\Alex\AppData\Local\Temp\cc8R0WAy.s 			page 2


  30:Lib/lvgl/src/draw/sw/lv_draw_sw_fill.c ****  *  STATIC PROTOTYPES
  31:Lib/lvgl/src/draw/sw/lv_draw_sw_fill.c ****  **********************/
  32:Lib/lvgl/src/draw/sw/lv_draw_sw_fill.c **** 
  33:Lib/lvgl/src/draw/sw/lv_draw_sw_fill.c **** /**********************
  34:Lib/lvgl/src/draw/sw/lv_draw_sw_fill.c ****  *  STATIC VARIABLES
  35:Lib/lvgl/src/draw/sw/lv_draw_sw_fill.c ****  **********************/
  36:Lib/lvgl/src/draw/sw/lv_draw_sw_fill.c **** 
  37:Lib/lvgl/src/draw/sw/lv_draw_sw_fill.c **** /**********************
  38:Lib/lvgl/src/draw/sw/lv_draw_sw_fill.c ****  *      MACROS
  39:Lib/lvgl/src/draw/sw/lv_draw_sw_fill.c ****  **********************/
  40:Lib/lvgl/src/draw/sw/lv_draw_sw_fill.c **** 
  41:Lib/lvgl/src/draw/sw/lv_draw_sw_fill.c **** /**********************
  42:Lib/lvgl/src/draw/sw/lv_draw_sw_fill.c ****  *   GLOBAL FUNCTIONS
  43:Lib/lvgl/src/draw/sw/lv_draw_sw_fill.c ****  **********************/
  44:Lib/lvgl/src/draw/sw/lv_draw_sw_fill.c **** 
  45:Lib/lvgl/src/draw/sw/lv_draw_sw_fill.c **** void lv_draw_sw_fill(lv_draw_unit_t * draw_unit, const lv_draw_fill_dsc_t * dsc, const lv_area_t * 
  46:Lib/lvgl/src/draw/sw/lv_draw_sw_fill.c **** {
  30              		.loc 1 46 1 view -0
  31              		.cfi_startproc
  32              		@ args = 0, pretend = 0, frame = 160
  33              		@ frame_needed = 0, uses_anonymous_args = 0
  34              		.loc 1 46 1 is_stmt 0 view .LVU1
  35 0000 2DE9F04F 		push	{r4, r5, r6, r7, r8, r9, r10, fp, lr}
  36              	.LCFI0:
  37              		.cfi_def_cfa_offset 36
  38              		.cfi_offset 4, -36
  39              		.cfi_offset 5, -32
  40              		.cfi_offset 6, -28
  41              		.cfi_offset 7, -24
  42              		.cfi_offset 8, -20
  43              		.cfi_offset 9, -16
  44              		.cfi_offset 10, -12
  45              		.cfi_offset 11, -8
  46              		.cfi_offset 14, -4
  47 0004 ABB0     		sub	sp, sp, #172
  48              	.LCFI1:
  49              		.cfi_def_cfa_offset 208
  50 0006 0290     		str	r0, [sp, #8]
  47:Lib/lvgl/src/draw/sw/lv_draw_sw_fill.c ****     if(dsc->opa <= LV_OPA_MIN) return;
  51              		.loc 1 47 5 is_stmt 1 view .LVU2
  52              		.loc 1 47 11 is_stmt 0 view .LVU3
  53 0008 91F82030 		ldrb	r3, [r1, #32]	@ zero_extendqisi2
  54              		.loc 1 47 7 view .LVU4
  55 000c 022B     		cmp	r3, #2
  56 000e 02D8     		bhi	.L50
  57              	.LVL1:
  58              	.L1:
  48:Lib/lvgl/src/draw/sw/lv_draw_sw_fill.c **** 
  49:Lib/lvgl/src/draw/sw/lv_draw_sw_fill.c ****     lv_area_t bg_coords;
  50:Lib/lvgl/src/draw/sw/lv_draw_sw_fill.c ****     lv_area_copy(&bg_coords, coords);
  51:Lib/lvgl/src/draw/sw/lv_draw_sw_fill.c **** 
  52:Lib/lvgl/src/draw/sw/lv_draw_sw_fill.c ****     lv_area_t clipped_coords;
  53:Lib/lvgl/src/draw/sw/lv_draw_sw_fill.c ****     if(!_lv_area_intersect(&clipped_coords, &bg_coords, draw_unit->clip_area)) return;
  54:Lib/lvgl/src/draw/sw/lv_draw_sw_fill.c **** 
  55:Lib/lvgl/src/draw/sw/lv_draw_sw_fill.c ****     lv_grad_dir_t grad_dir = dsc->grad.dir;
  56:Lib/lvgl/src/draw/sw/lv_draw_sw_fill.c ****     lv_color_t bg_color    = grad_dir == LV_GRAD_DIR_NONE ? dsc->color : dsc->grad.stops[0].color;
  57:Lib/lvgl/src/draw/sw/lv_draw_sw_fill.c **** 
ARM GAS  C:\Users\Alex\AppData\Local\Temp\cc8R0WAy.s 			page 3


  58:Lib/lvgl/src/draw/sw/lv_draw_sw_fill.c ****     lv_draw_sw_blend_dsc_t blend_dsc = {0};
  59:Lib/lvgl/src/draw/sw/lv_draw_sw_fill.c ****     blend_dsc.color = bg_color;
  60:Lib/lvgl/src/draw/sw/lv_draw_sw_fill.c **** 
  61:Lib/lvgl/src/draw/sw/lv_draw_sw_fill.c ****     /*Most simple case: just a plain rectangle*/
  62:Lib/lvgl/src/draw/sw/lv_draw_sw_fill.c ****     if(dsc->radius == 0 && (grad_dir == LV_GRAD_DIR_NONE)) {
  63:Lib/lvgl/src/draw/sw/lv_draw_sw_fill.c ****         blend_dsc.blend_area = &bg_coords;
  64:Lib/lvgl/src/draw/sw/lv_draw_sw_fill.c ****         blend_dsc.opa = dsc->opa;
  65:Lib/lvgl/src/draw/sw/lv_draw_sw_fill.c ****         lv_draw_sw_blend(draw_unit, &blend_dsc);
  66:Lib/lvgl/src/draw/sw/lv_draw_sw_fill.c ****         return;
  67:Lib/lvgl/src/draw/sw/lv_draw_sw_fill.c ****     }
  68:Lib/lvgl/src/draw/sw/lv_draw_sw_fill.c **** 
  69:Lib/lvgl/src/draw/sw/lv_draw_sw_fill.c ****     /*Complex case: there is gradient, mask, or radius*/
  70:Lib/lvgl/src/draw/sw/lv_draw_sw_fill.c **** #if LV_DRAW_SW_COMPLEX == 0
  71:Lib/lvgl/src/draw/sw/lv_draw_sw_fill.c ****     LV_LOG_WARN("Can't draw complex rectangle because LV_DRAW_SW_COMPLEX = 0");
  72:Lib/lvgl/src/draw/sw/lv_draw_sw_fill.c **** #else
  73:Lib/lvgl/src/draw/sw/lv_draw_sw_fill.c ****     lv_opa_t opa = dsc->opa >= LV_OPA_MAX ? LV_OPA_COVER : dsc->opa;
  74:Lib/lvgl/src/draw/sw/lv_draw_sw_fill.c **** 
  75:Lib/lvgl/src/draw/sw/lv_draw_sw_fill.c ****     /*Get the real radius. Can't be larger than the half of the shortest side */
  76:Lib/lvgl/src/draw/sw/lv_draw_sw_fill.c ****     int32_t coords_bg_w = lv_area_get_width(&bg_coords);
  77:Lib/lvgl/src/draw/sw/lv_draw_sw_fill.c ****     int32_t coords_bg_h = lv_area_get_height(&bg_coords);
  78:Lib/lvgl/src/draw/sw/lv_draw_sw_fill.c ****     int32_t short_side = LV_MIN(coords_bg_w, coords_bg_h);
  79:Lib/lvgl/src/draw/sw/lv_draw_sw_fill.c ****     int32_t rout = LV_MIN(dsc->radius, short_side >> 1);
  80:Lib/lvgl/src/draw/sw/lv_draw_sw_fill.c **** 
  81:Lib/lvgl/src/draw/sw/lv_draw_sw_fill.c ****     /*Add a radius mask if there is a radius*/
  82:Lib/lvgl/src/draw/sw/lv_draw_sw_fill.c ****     int32_t clipped_w = lv_area_get_width(&clipped_coords);
  83:Lib/lvgl/src/draw/sw/lv_draw_sw_fill.c ****     lv_opa_t * mask_buf = NULL;
  84:Lib/lvgl/src/draw/sw/lv_draw_sw_fill.c ****     lv_draw_sw_mask_radius_param_t mask_rout_param;
  85:Lib/lvgl/src/draw/sw/lv_draw_sw_fill.c ****     void * mask_list[2] = {NULL, NULL};
  86:Lib/lvgl/src/draw/sw/lv_draw_sw_fill.c ****     if(rout > 0) {
  87:Lib/lvgl/src/draw/sw/lv_draw_sw_fill.c ****         mask_buf = lv_malloc(clipped_w);
  88:Lib/lvgl/src/draw/sw/lv_draw_sw_fill.c ****         lv_draw_sw_mask_radius_init(&mask_rout_param, &bg_coords, rout, false);
  89:Lib/lvgl/src/draw/sw/lv_draw_sw_fill.c ****         mask_list[0] = &mask_rout_param;
  90:Lib/lvgl/src/draw/sw/lv_draw_sw_fill.c ****     }
  91:Lib/lvgl/src/draw/sw/lv_draw_sw_fill.c **** 
  92:Lib/lvgl/src/draw/sw/lv_draw_sw_fill.c ****     int32_t h;
  93:Lib/lvgl/src/draw/sw/lv_draw_sw_fill.c **** 
  94:Lib/lvgl/src/draw/sw/lv_draw_sw_fill.c ****     lv_area_t blend_area;
  95:Lib/lvgl/src/draw/sw/lv_draw_sw_fill.c ****     blend_area.x1 = clipped_coords.x1;
  96:Lib/lvgl/src/draw/sw/lv_draw_sw_fill.c ****     blend_area.x2 = clipped_coords.x2;
  97:Lib/lvgl/src/draw/sw/lv_draw_sw_fill.c **** 
  98:Lib/lvgl/src/draw/sw/lv_draw_sw_fill.c ****     blend_dsc.mask_buf = mask_buf;
  99:Lib/lvgl/src/draw/sw/lv_draw_sw_fill.c ****     blend_dsc.blend_area = &blend_area;
 100:Lib/lvgl/src/draw/sw/lv_draw_sw_fill.c ****     blend_dsc.mask_area = &blend_area;
 101:Lib/lvgl/src/draw/sw/lv_draw_sw_fill.c ****     blend_dsc.opa = LV_OPA_COVER;
 102:Lib/lvgl/src/draw/sw/lv_draw_sw_fill.c **** 
 103:Lib/lvgl/src/draw/sw/lv_draw_sw_fill.c ****     /*Get gradient if appropriate*/
 104:Lib/lvgl/src/draw/sw/lv_draw_sw_fill.c ****     lv_grad_t * grad = lv_gradient_get(&dsc->grad, coords_bg_w, coords_bg_h);
 105:Lib/lvgl/src/draw/sw/lv_draw_sw_fill.c ****     lv_opa_t * grad_opa_map = NULL;
 106:Lib/lvgl/src/draw/sw/lv_draw_sw_fill.c ****     if(grad && grad_dir == LV_GRAD_DIR_HOR) {
 107:Lib/lvgl/src/draw/sw/lv_draw_sw_fill.c ****         blend_dsc.src_area = &blend_area;
 108:Lib/lvgl/src/draw/sw/lv_draw_sw_fill.c ****         blend_dsc.src_buf = grad->color_map + clipped_coords.x1 - bg_coords.x1;
 109:Lib/lvgl/src/draw/sw/lv_draw_sw_fill.c ****         bool transp = false;
 110:Lib/lvgl/src/draw/sw/lv_draw_sw_fill.c ****         uint32_t s;
 111:Lib/lvgl/src/draw/sw/lv_draw_sw_fill.c ****         for(s = 0; s < dsc->grad.stops_count; s++) {
 112:Lib/lvgl/src/draw/sw/lv_draw_sw_fill.c ****             if(dsc->grad.stops[s].opa != LV_OPA_COVER) {
 113:Lib/lvgl/src/draw/sw/lv_draw_sw_fill.c ****                 transp = true;
 114:Lib/lvgl/src/draw/sw/lv_draw_sw_fill.c ****                 break;
ARM GAS  C:\Users\Alex\AppData\Local\Temp\cc8R0WAy.s 			page 4


 115:Lib/lvgl/src/draw/sw/lv_draw_sw_fill.c ****             }
 116:Lib/lvgl/src/draw/sw/lv_draw_sw_fill.c ****         }
 117:Lib/lvgl/src/draw/sw/lv_draw_sw_fill.c **** 
 118:Lib/lvgl/src/draw/sw/lv_draw_sw_fill.c ****         if(transp) grad_opa_map = grad->opa_map + clipped_coords.x1 - bg_coords.x1;
 119:Lib/lvgl/src/draw/sw/lv_draw_sw_fill.c **** 
 120:Lib/lvgl/src/draw/sw/lv_draw_sw_fill.c ****         blend_dsc.src_color_format = LV_COLOR_FORMAT_RGB888;
 121:Lib/lvgl/src/draw/sw/lv_draw_sw_fill.c ****     }
 122:Lib/lvgl/src/draw/sw/lv_draw_sw_fill.c **** 
 123:Lib/lvgl/src/draw/sw/lv_draw_sw_fill.c ****     /* Draw the top of the rectangle line by line and mirror it to the bottom. */
 124:Lib/lvgl/src/draw/sw/lv_draw_sw_fill.c ****     for(h = 0; h < rout; h++) {
 125:Lib/lvgl/src/draw/sw/lv_draw_sw_fill.c ****         int32_t top_y = bg_coords.y1 + h;
 126:Lib/lvgl/src/draw/sw/lv_draw_sw_fill.c ****         int32_t bottom_y = bg_coords.y2 - h;
 127:Lib/lvgl/src/draw/sw/lv_draw_sw_fill.c ****         if(top_y < clipped_coords.y1 && bottom_y > clipped_coords.y2) continue;   /*This line is cl
 128:Lib/lvgl/src/draw/sw/lv_draw_sw_fill.c **** 
 129:Lib/lvgl/src/draw/sw/lv_draw_sw_fill.c ****         /* Initialize the mask to opa instead of 0xFF and blend with LV_OPA_COVER.
 130:Lib/lvgl/src/draw/sw/lv_draw_sw_fill.c ****          * It saves calculating the final opa in lv_draw_sw_blend*/
 131:Lib/lvgl/src/draw/sw/lv_draw_sw_fill.c ****         lv_memset(mask_buf, opa, clipped_w);
 132:Lib/lvgl/src/draw/sw/lv_draw_sw_fill.c ****         blend_dsc.mask_res = lv_draw_sw_mask_apply(mask_list, mask_buf, blend_area.x1, top_y, clipp
 133:Lib/lvgl/src/draw/sw/lv_draw_sw_fill.c ****         if(blend_dsc.mask_res == LV_DRAW_SW_MASK_RES_FULL_COVER) blend_dsc.mask_res = LV_DRAW_SW_MA
 134:Lib/lvgl/src/draw/sw/lv_draw_sw_fill.c **** 
 135:Lib/lvgl/src/draw/sw/lv_draw_sw_fill.c ****         bool hor_grad_processed = false;
 136:Lib/lvgl/src/draw/sw/lv_draw_sw_fill.c ****         if(top_y >= clipped_coords.y1) {
 137:Lib/lvgl/src/draw/sw/lv_draw_sw_fill.c ****             blend_area.y1 = top_y;
 138:Lib/lvgl/src/draw/sw/lv_draw_sw_fill.c ****             blend_area.y2 = top_y;
 139:Lib/lvgl/src/draw/sw/lv_draw_sw_fill.c **** 
 140:Lib/lvgl/src/draw/sw/lv_draw_sw_fill.c ****             if(grad_dir == LV_GRAD_DIR_VER) {
 141:Lib/lvgl/src/draw/sw/lv_draw_sw_fill.c ****                 blend_dsc.color = grad->color_map[top_y - bg_coords.y1];
 142:Lib/lvgl/src/draw/sw/lv_draw_sw_fill.c ****                 blend_dsc.opa = grad->opa_map[top_y - bg_coords.y1];
 143:Lib/lvgl/src/draw/sw/lv_draw_sw_fill.c ****             }
 144:Lib/lvgl/src/draw/sw/lv_draw_sw_fill.c ****             else if(grad_dir == LV_GRAD_DIR_HOR) {
 145:Lib/lvgl/src/draw/sw/lv_draw_sw_fill.c ****                 hor_grad_processed = true;
 146:Lib/lvgl/src/draw/sw/lv_draw_sw_fill.c ****                 if(grad_opa_map) {
 147:Lib/lvgl/src/draw/sw/lv_draw_sw_fill.c ****                     int32_t i;
 148:Lib/lvgl/src/draw/sw/lv_draw_sw_fill.c ****                     for(i = 0; i < clipped_w; i++) {
 149:Lib/lvgl/src/draw/sw/lv_draw_sw_fill.c ****                         if(grad_opa_map[i] < LV_OPA_MAX) mask_buf[i] = (mask_buf[i] * grad_opa_map[
 150:Lib/lvgl/src/draw/sw/lv_draw_sw_fill.c ****                     }
 151:Lib/lvgl/src/draw/sw/lv_draw_sw_fill.c ****                     blend_dsc.mask_res = LV_DRAW_SW_MASK_RES_CHANGED;
 152:Lib/lvgl/src/draw/sw/lv_draw_sw_fill.c ****                 }
 153:Lib/lvgl/src/draw/sw/lv_draw_sw_fill.c ****             }
 154:Lib/lvgl/src/draw/sw/lv_draw_sw_fill.c ****             lv_draw_sw_blend(draw_unit, &blend_dsc);
 155:Lib/lvgl/src/draw/sw/lv_draw_sw_fill.c ****         }
 156:Lib/lvgl/src/draw/sw/lv_draw_sw_fill.c **** 
 157:Lib/lvgl/src/draw/sw/lv_draw_sw_fill.c ****         if(bottom_y <= clipped_coords.y2) {
 158:Lib/lvgl/src/draw/sw/lv_draw_sw_fill.c ****             blend_area.y1 = bottom_y;
 159:Lib/lvgl/src/draw/sw/lv_draw_sw_fill.c ****             blend_area.y2 = bottom_y;
 160:Lib/lvgl/src/draw/sw/lv_draw_sw_fill.c **** 
 161:Lib/lvgl/src/draw/sw/lv_draw_sw_fill.c ****             if(grad_dir == LV_GRAD_DIR_VER) {
 162:Lib/lvgl/src/draw/sw/lv_draw_sw_fill.c ****                 blend_dsc.color = grad->color_map[bottom_y - bg_coords.y1];
 163:Lib/lvgl/src/draw/sw/lv_draw_sw_fill.c ****                 blend_dsc.opa = grad->opa_map[bottom_y - bg_coords.y1];
 164:Lib/lvgl/src/draw/sw/lv_draw_sw_fill.c ****             }
 165:Lib/lvgl/src/draw/sw/lv_draw_sw_fill.c ****             else if(hor_grad_processed == false && grad_dir == LV_GRAD_DIR_HOR) {
 166:Lib/lvgl/src/draw/sw/lv_draw_sw_fill.c ****                 if(grad_opa_map) {
 167:Lib/lvgl/src/draw/sw/lv_draw_sw_fill.c ****                     int32_t i;
 168:Lib/lvgl/src/draw/sw/lv_draw_sw_fill.c ****                     for(i = 0; i < clipped_w; i++) {
 169:Lib/lvgl/src/draw/sw/lv_draw_sw_fill.c ****                         if(grad_opa_map[i] < LV_OPA_MAX) mask_buf[i] = (mask_buf[i] * grad_opa_map[
 170:Lib/lvgl/src/draw/sw/lv_draw_sw_fill.c ****                     }
 171:Lib/lvgl/src/draw/sw/lv_draw_sw_fill.c ****                     blend_dsc.mask_res = LV_DRAW_SW_MASK_RES_CHANGED;
ARM GAS  C:\Users\Alex\AppData\Local\Temp\cc8R0WAy.s 			page 5


 172:Lib/lvgl/src/draw/sw/lv_draw_sw_fill.c ****                 }
 173:Lib/lvgl/src/draw/sw/lv_draw_sw_fill.c ****             }
 174:Lib/lvgl/src/draw/sw/lv_draw_sw_fill.c ****             lv_draw_sw_blend(draw_unit, &blend_dsc);
 175:Lib/lvgl/src/draw/sw/lv_draw_sw_fill.c ****         }
 176:Lib/lvgl/src/draw/sw/lv_draw_sw_fill.c ****     }
 177:Lib/lvgl/src/draw/sw/lv_draw_sw_fill.c **** 
 178:Lib/lvgl/src/draw/sw/lv_draw_sw_fill.c ****     /* Draw the center of the rectangle.*/
 179:Lib/lvgl/src/draw/sw/lv_draw_sw_fill.c **** 
 180:Lib/lvgl/src/draw/sw/lv_draw_sw_fill.c ****     /*If no gradient, the center is a simple rectangle*/
 181:Lib/lvgl/src/draw/sw/lv_draw_sw_fill.c ****     if(grad_dir == LV_GRAD_DIR_NONE) {
 182:Lib/lvgl/src/draw/sw/lv_draw_sw_fill.c ****         blend_area.y1 = bg_coords.y1 + rout;
 183:Lib/lvgl/src/draw/sw/lv_draw_sw_fill.c ****         blend_area.y2 = bg_coords.y2 - rout;
 184:Lib/lvgl/src/draw/sw/lv_draw_sw_fill.c ****         blend_dsc.opa = opa;
 185:Lib/lvgl/src/draw/sw/lv_draw_sw_fill.c ****         blend_dsc.mask_buf = NULL;
 186:Lib/lvgl/src/draw/sw/lv_draw_sw_fill.c ****         lv_draw_sw_blend(draw_unit, &blend_dsc);
 187:Lib/lvgl/src/draw/sw/lv_draw_sw_fill.c ****     }
 188:Lib/lvgl/src/draw/sw/lv_draw_sw_fill.c ****     /*With gradient draw line by line*/
 189:Lib/lvgl/src/draw/sw/lv_draw_sw_fill.c ****     else {
 190:Lib/lvgl/src/draw/sw/lv_draw_sw_fill.c ****         blend_dsc.opa = opa;
 191:Lib/lvgl/src/draw/sw/lv_draw_sw_fill.c ****         if(grad_dir == LV_GRAD_DIR_VER) {
 192:Lib/lvgl/src/draw/sw/lv_draw_sw_fill.c ****             blend_dsc.mask_res = LV_DRAW_SW_MASK_RES_FULL_COVER;
 193:Lib/lvgl/src/draw/sw/lv_draw_sw_fill.c ****         }
 194:Lib/lvgl/src/draw/sw/lv_draw_sw_fill.c ****         else if(grad_dir == LV_GRAD_DIR_HOR) {
 195:Lib/lvgl/src/draw/sw/lv_draw_sw_fill.c ****             blend_dsc.mask_res = LV_DRAW_SW_MASK_RES_CHANGED;
 196:Lib/lvgl/src/draw/sw/lv_draw_sw_fill.c ****             blend_dsc.mask_buf = grad_opa_map;
 197:Lib/lvgl/src/draw/sw/lv_draw_sw_fill.c ****         }
 198:Lib/lvgl/src/draw/sw/lv_draw_sw_fill.c **** 
 199:Lib/lvgl/src/draw/sw/lv_draw_sw_fill.c ****         int32_t h_end = bg_coords.y2 - rout;
 200:Lib/lvgl/src/draw/sw/lv_draw_sw_fill.c ****         for(h = bg_coords.y1 + rout; h <= h_end; h++) {
 201:Lib/lvgl/src/draw/sw/lv_draw_sw_fill.c ****             blend_area.y1 = h;
 202:Lib/lvgl/src/draw/sw/lv_draw_sw_fill.c ****             blend_area.y2 = h;
 203:Lib/lvgl/src/draw/sw/lv_draw_sw_fill.c **** 
 204:Lib/lvgl/src/draw/sw/lv_draw_sw_fill.c ****             if(grad_dir == LV_GRAD_DIR_VER) {
 205:Lib/lvgl/src/draw/sw/lv_draw_sw_fill.c ****                 blend_dsc.color = grad->color_map[h - bg_coords.y1];
 206:Lib/lvgl/src/draw/sw/lv_draw_sw_fill.c ****                 if(opa >= LV_OPA_MAX) blend_dsc.opa = grad->opa_map[h - bg_coords.y1];
 207:Lib/lvgl/src/draw/sw/lv_draw_sw_fill.c ****                 else blend_dsc.opa = LV_OPA_MIX2(grad->opa_map[h - bg_coords.y1], opa);
 208:Lib/lvgl/src/draw/sw/lv_draw_sw_fill.c ****             }
 209:Lib/lvgl/src/draw/sw/lv_draw_sw_fill.c ****             lv_draw_sw_blend(draw_unit, &blend_dsc);
 210:Lib/lvgl/src/draw/sw/lv_draw_sw_fill.c ****         }
 211:Lib/lvgl/src/draw/sw/lv_draw_sw_fill.c ****     }
 212:Lib/lvgl/src/draw/sw/lv_draw_sw_fill.c **** 
 213:Lib/lvgl/src/draw/sw/lv_draw_sw_fill.c ****     if(mask_buf) {
 214:Lib/lvgl/src/draw/sw/lv_draw_sw_fill.c ****         lv_free(mask_buf);
 215:Lib/lvgl/src/draw/sw/lv_draw_sw_fill.c ****         lv_draw_sw_mask_free_param(&mask_rout_param);
 216:Lib/lvgl/src/draw/sw/lv_draw_sw_fill.c ****     }
 217:Lib/lvgl/src/draw/sw/lv_draw_sw_fill.c ****     if(grad) {
 218:Lib/lvgl/src/draw/sw/lv_draw_sw_fill.c ****         lv_gradient_cleanup(grad);
 219:Lib/lvgl/src/draw/sw/lv_draw_sw_fill.c ****     }
 220:Lib/lvgl/src/draw/sw/lv_draw_sw_fill.c **** 
 221:Lib/lvgl/src/draw/sw/lv_draw_sw_fill.c **** #endif
 222:Lib/lvgl/src/draw/sw/lv_draw_sw_fill.c **** }
  59              		.loc 1 222 1 view .LVU5
  60 0010 2BB0     		add	sp, sp, #172
  61              	.LCFI2:
  62              		.cfi_remember_state
  63              		.cfi_def_cfa_offset 36
  64              		@ sp needed
ARM GAS  C:\Users\Alex\AppData\Local\Temp\cc8R0WAy.s 			page 6


  65 0012 BDE8F08F 		pop	{r4, r5, r6, r7, r8, r9, r10, fp, pc}
  66              	.LVL2:
  67              	.L50:
  68              	.LCFI3:
  69              		.cfi_restore_state
  70              		.loc 1 222 1 view .LVU6
  71 0016 0C46     		mov	r4, r1
  49:Lib/lvgl/src/draw/sw/lv_draw_sw_fill.c ****     lv_area_copy(&bg_coords, coords);
  72              		.loc 1 49 5 is_stmt 1 view .LVU7
  50:Lib/lvgl/src/draw/sw/lv_draw_sw_fill.c **** 
  73              		.loc 1 50 5 view .LVU8
  74              	.LVL3:
  75              	.LBB15:
  76              	.LBI15:
  77              		.file 2 "Lib/lvgl/src/draw/sw/../../misc/../font/../draw/../misc/lv_area.h"
   1:Lib/lvgl/src/draw/sw/../../misc/../font/../draw/../misc/lv_area.h **** /**
   2:Lib/lvgl/src/draw/sw/../../misc/../font/../draw/../misc/lv_area.h ****  * @file lv_area.h
   3:Lib/lvgl/src/draw/sw/../../misc/../font/../draw/../misc/lv_area.h ****  *
   4:Lib/lvgl/src/draw/sw/../../misc/../font/../draw/../misc/lv_area.h ****  */
   5:Lib/lvgl/src/draw/sw/../../misc/../font/../draw/../misc/lv_area.h **** 
   6:Lib/lvgl/src/draw/sw/../../misc/../font/../draw/../misc/lv_area.h **** #ifndef LV_AREA_H
   7:Lib/lvgl/src/draw/sw/../../misc/../font/../draw/../misc/lv_area.h **** #define LV_AREA_H
   8:Lib/lvgl/src/draw/sw/../../misc/../font/../draw/../misc/lv_area.h **** 
   9:Lib/lvgl/src/draw/sw/../../misc/../font/../draw/../misc/lv_area.h **** #ifdef __cplusplus
  10:Lib/lvgl/src/draw/sw/../../misc/../font/../draw/../misc/lv_area.h **** extern "C" {
  11:Lib/lvgl/src/draw/sw/../../misc/../font/../draw/../misc/lv_area.h **** #endif
  12:Lib/lvgl/src/draw/sw/../../misc/../font/../draw/../misc/lv_area.h **** 
  13:Lib/lvgl/src/draw/sw/../../misc/../font/../draw/../misc/lv_area.h **** /*********************
  14:Lib/lvgl/src/draw/sw/../../misc/../font/../draw/../misc/lv_area.h ****  *      INCLUDES
  15:Lib/lvgl/src/draw/sw/../../misc/../font/../draw/../misc/lv_area.h ****  *********************/
  16:Lib/lvgl/src/draw/sw/../../misc/../font/../draw/../misc/lv_area.h **** #include "../lv_conf_internal.h"
  17:Lib/lvgl/src/draw/sw/../../misc/../font/../draw/../misc/lv_area.h **** #include "lv_types.h"
  18:Lib/lvgl/src/draw/sw/../../misc/../font/../draw/../misc/lv_area.h **** #include <stdbool.h>
  19:Lib/lvgl/src/draw/sw/../../misc/../font/../draw/../misc/lv_area.h **** #include <stdint.h>
  20:Lib/lvgl/src/draw/sw/../../misc/../font/../draw/../misc/lv_area.h **** 
  21:Lib/lvgl/src/draw/sw/../../misc/../font/../draw/../misc/lv_area.h **** /*********************
  22:Lib/lvgl/src/draw/sw/../../misc/../font/../draw/../misc/lv_area.h ****  *      DEFINES
  23:Lib/lvgl/src/draw/sw/../../misc/../font/../draw/../misc/lv_area.h ****  *********************/
  24:Lib/lvgl/src/draw/sw/../../misc/../font/../draw/../misc/lv_area.h **** 
  25:Lib/lvgl/src/draw/sw/../../misc/../font/../draw/../misc/lv_area.h **** /**********************
  26:Lib/lvgl/src/draw/sw/../../misc/../font/../draw/../misc/lv_area.h ****  *      TYPEDEFS
  27:Lib/lvgl/src/draw/sw/../../misc/../font/../draw/../misc/lv_area.h ****  **********************/
  28:Lib/lvgl/src/draw/sw/../../misc/../font/../draw/../misc/lv_area.h **** 
  29:Lib/lvgl/src/draw/sw/../../misc/../font/../draw/../misc/lv_area.h **** /**
  30:Lib/lvgl/src/draw/sw/../../misc/../font/../draw/../misc/lv_area.h ****  * Represents a point on the screen.
  31:Lib/lvgl/src/draw/sw/../../misc/../font/../draw/../misc/lv_area.h ****  */
  32:Lib/lvgl/src/draw/sw/../../misc/../font/../draw/../misc/lv_area.h **** typedef struct {
  33:Lib/lvgl/src/draw/sw/../../misc/../font/../draw/../misc/lv_area.h ****     int32_t x;
  34:Lib/lvgl/src/draw/sw/../../misc/../font/../draw/../misc/lv_area.h ****     int32_t y;
  35:Lib/lvgl/src/draw/sw/../../misc/../font/../draw/../misc/lv_area.h **** } lv_point_t;
  36:Lib/lvgl/src/draw/sw/../../misc/../font/../draw/../misc/lv_area.h **** 
  37:Lib/lvgl/src/draw/sw/../../misc/../font/../draw/../misc/lv_area.h **** typedef struct {
  38:Lib/lvgl/src/draw/sw/../../misc/../font/../draw/../misc/lv_area.h ****     lv_value_precise_t x;
  39:Lib/lvgl/src/draw/sw/../../misc/../font/../draw/../misc/lv_area.h ****     lv_value_precise_t y;
  40:Lib/lvgl/src/draw/sw/../../misc/../font/../draw/../misc/lv_area.h **** } lv_point_precise_t;
  41:Lib/lvgl/src/draw/sw/../../misc/../font/../draw/../misc/lv_area.h **** 
  42:Lib/lvgl/src/draw/sw/../../misc/../font/../draw/../misc/lv_area.h **** /** Represents an area of the screen.*/
ARM GAS  C:\Users\Alex\AppData\Local\Temp\cc8R0WAy.s 			page 7


  43:Lib/lvgl/src/draw/sw/../../misc/../font/../draw/../misc/lv_area.h **** typedef struct {
  44:Lib/lvgl/src/draw/sw/../../misc/../font/../draw/../misc/lv_area.h ****     int32_t x1;
  45:Lib/lvgl/src/draw/sw/../../misc/../font/../draw/../misc/lv_area.h ****     int32_t y1;
  46:Lib/lvgl/src/draw/sw/../../misc/../font/../draw/../misc/lv_area.h ****     int32_t x2;
  47:Lib/lvgl/src/draw/sw/../../misc/../font/../draw/../misc/lv_area.h ****     int32_t y2;
  48:Lib/lvgl/src/draw/sw/../../misc/../font/../draw/../misc/lv_area.h **** } lv_area_t;
  49:Lib/lvgl/src/draw/sw/../../misc/../font/../draw/../misc/lv_area.h **** 
  50:Lib/lvgl/src/draw/sw/../../misc/../font/../draw/../misc/lv_area.h **** /** Alignments*/
  51:Lib/lvgl/src/draw/sw/../../misc/../font/../draw/../misc/lv_area.h **** 
  52:Lib/lvgl/src/draw/sw/../../misc/../font/../draw/../misc/lv_area.h **** enum _lv_align_t {
  53:Lib/lvgl/src/draw/sw/../../misc/../font/../draw/../misc/lv_area.h ****     LV_ALIGN_DEFAULT = 0,
  54:Lib/lvgl/src/draw/sw/../../misc/../font/../draw/../misc/lv_area.h ****     LV_ALIGN_TOP_LEFT,
  55:Lib/lvgl/src/draw/sw/../../misc/../font/../draw/../misc/lv_area.h ****     LV_ALIGN_TOP_MID,
  56:Lib/lvgl/src/draw/sw/../../misc/../font/../draw/../misc/lv_area.h ****     LV_ALIGN_TOP_RIGHT,
  57:Lib/lvgl/src/draw/sw/../../misc/../font/../draw/../misc/lv_area.h ****     LV_ALIGN_BOTTOM_LEFT,
  58:Lib/lvgl/src/draw/sw/../../misc/../font/../draw/../misc/lv_area.h ****     LV_ALIGN_BOTTOM_MID,
  59:Lib/lvgl/src/draw/sw/../../misc/../font/../draw/../misc/lv_area.h ****     LV_ALIGN_BOTTOM_RIGHT,
  60:Lib/lvgl/src/draw/sw/../../misc/../font/../draw/../misc/lv_area.h ****     LV_ALIGN_LEFT_MID,
  61:Lib/lvgl/src/draw/sw/../../misc/../font/../draw/../misc/lv_area.h ****     LV_ALIGN_RIGHT_MID,
  62:Lib/lvgl/src/draw/sw/../../misc/../font/../draw/../misc/lv_area.h ****     LV_ALIGN_CENTER,
  63:Lib/lvgl/src/draw/sw/../../misc/../font/../draw/../misc/lv_area.h **** 
  64:Lib/lvgl/src/draw/sw/../../misc/../font/../draw/../misc/lv_area.h ****     LV_ALIGN_OUT_TOP_LEFT,
  65:Lib/lvgl/src/draw/sw/../../misc/../font/../draw/../misc/lv_area.h ****     LV_ALIGN_OUT_TOP_MID,
  66:Lib/lvgl/src/draw/sw/../../misc/../font/../draw/../misc/lv_area.h ****     LV_ALIGN_OUT_TOP_RIGHT,
  67:Lib/lvgl/src/draw/sw/../../misc/../font/../draw/../misc/lv_area.h ****     LV_ALIGN_OUT_BOTTOM_LEFT,
  68:Lib/lvgl/src/draw/sw/../../misc/../font/../draw/../misc/lv_area.h ****     LV_ALIGN_OUT_BOTTOM_MID,
  69:Lib/lvgl/src/draw/sw/../../misc/../font/../draw/../misc/lv_area.h ****     LV_ALIGN_OUT_BOTTOM_RIGHT,
  70:Lib/lvgl/src/draw/sw/../../misc/../font/../draw/../misc/lv_area.h ****     LV_ALIGN_OUT_LEFT_TOP,
  71:Lib/lvgl/src/draw/sw/../../misc/../font/../draw/../misc/lv_area.h ****     LV_ALIGN_OUT_LEFT_MID,
  72:Lib/lvgl/src/draw/sw/../../misc/../font/../draw/../misc/lv_area.h ****     LV_ALIGN_OUT_LEFT_BOTTOM,
  73:Lib/lvgl/src/draw/sw/../../misc/../font/../draw/../misc/lv_area.h ****     LV_ALIGN_OUT_RIGHT_TOP,
  74:Lib/lvgl/src/draw/sw/../../misc/../font/../draw/../misc/lv_area.h ****     LV_ALIGN_OUT_RIGHT_MID,
  75:Lib/lvgl/src/draw/sw/../../misc/../font/../draw/../misc/lv_area.h ****     LV_ALIGN_OUT_RIGHT_BOTTOM,
  76:Lib/lvgl/src/draw/sw/../../misc/../font/../draw/../misc/lv_area.h **** };
  77:Lib/lvgl/src/draw/sw/../../misc/../font/../draw/../misc/lv_area.h **** 
  78:Lib/lvgl/src/draw/sw/../../misc/../font/../draw/../misc/lv_area.h **** #ifdef DOXYGEN
  79:Lib/lvgl/src/draw/sw/../../misc/../font/../draw/../misc/lv_area.h **** typedef _lv_align_t lv_align_t;
  80:Lib/lvgl/src/draw/sw/../../misc/../font/../draw/../misc/lv_area.h **** #else
  81:Lib/lvgl/src/draw/sw/../../misc/../font/../draw/../misc/lv_area.h **** typedef uint8_t lv_align_t;
  82:Lib/lvgl/src/draw/sw/../../misc/../font/../draw/../misc/lv_area.h **** #endif /*DOXYGEN*/
  83:Lib/lvgl/src/draw/sw/../../misc/../font/../draw/../misc/lv_area.h **** 
  84:Lib/lvgl/src/draw/sw/../../misc/../font/../draw/../misc/lv_area.h **** enum _lv_dir_t {
  85:Lib/lvgl/src/draw/sw/../../misc/../font/../draw/../misc/lv_area.h ****     LV_DIR_NONE     = 0x00,
  86:Lib/lvgl/src/draw/sw/../../misc/../font/../draw/../misc/lv_area.h ****     LV_DIR_LEFT     = (1 << 0),
  87:Lib/lvgl/src/draw/sw/../../misc/../font/../draw/../misc/lv_area.h ****     LV_DIR_RIGHT    = (1 << 1),
  88:Lib/lvgl/src/draw/sw/../../misc/../font/../draw/../misc/lv_area.h ****     LV_DIR_TOP      = (1 << 2),
  89:Lib/lvgl/src/draw/sw/../../misc/../font/../draw/../misc/lv_area.h ****     LV_DIR_BOTTOM   = (1 << 3),
  90:Lib/lvgl/src/draw/sw/../../misc/../font/../draw/../misc/lv_area.h ****     LV_DIR_HOR      = LV_DIR_LEFT | LV_DIR_RIGHT,
  91:Lib/lvgl/src/draw/sw/../../misc/../font/../draw/../misc/lv_area.h ****     LV_DIR_VER      = LV_DIR_TOP | LV_DIR_BOTTOM,
  92:Lib/lvgl/src/draw/sw/../../misc/../font/../draw/../misc/lv_area.h ****     LV_DIR_ALL      = LV_DIR_HOR | LV_DIR_VER,
  93:Lib/lvgl/src/draw/sw/../../misc/../font/../draw/../misc/lv_area.h **** };
  94:Lib/lvgl/src/draw/sw/../../misc/../font/../draw/../misc/lv_area.h **** 
  95:Lib/lvgl/src/draw/sw/../../misc/../font/../draw/../misc/lv_area.h **** #ifdef DOXYGEN
  96:Lib/lvgl/src/draw/sw/../../misc/../font/../draw/../misc/lv_area.h **** typedef _lv_dir_t lv_dir_t;
  97:Lib/lvgl/src/draw/sw/../../misc/../font/../draw/../misc/lv_area.h **** #else
  98:Lib/lvgl/src/draw/sw/../../misc/../font/../draw/../misc/lv_area.h **** typedef uint8_t lv_dir_t;
  99:Lib/lvgl/src/draw/sw/../../misc/../font/../draw/../misc/lv_area.h **** #endif /*DOXYGEN*/
ARM GAS  C:\Users\Alex\AppData\Local\Temp\cc8R0WAy.s 			page 8


 100:Lib/lvgl/src/draw/sw/../../misc/../font/../draw/../misc/lv_area.h **** 
 101:Lib/lvgl/src/draw/sw/../../misc/../font/../draw/../misc/lv_area.h **** typedef struct  {
 102:Lib/lvgl/src/draw/sw/../../misc/../font/../draw/../misc/lv_area.h ****     int32_t angle_prev;
 103:Lib/lvgl/src/draw/sw/../../misc/../font/../draw/../misc/lv_area.h ****     int32_t sinma;
 104:Lib/lvgl/src/draw/sw/../../misc/../font/../draw/../misc/lv_area.h ****     int32_t cosma;
 105:Lib/lvgl/src/draw/sw/../../misc/../font/../draw/../misc/lv_area.h **** } lv_area_transform_cache_t;
 106:Lib/lvgl/src/draw/sw/../../misc/../font/../draw/../misc/lv_area.h **** 
 107:Lib/lvgl/src/draw/sw/../../misc/../font/../draw/../misc/lv_area.h **** /**********************
 108:Lib/lvgl/src/draw/sw/../../misc/../font/../draw/../misc/lv_area.h ****  * GLOBAL PROTOTYPES
 109:Lib/lvgl/src/draw/sw/../../misc/../font/../draw/../misc/lv_area.h ****  **********************/
 110:Lib/lvgl/src/draw/sw/../../misc/../font/../draw/../misc/lv_area.h **** 
 111:Lib/lvgl/src/draw/sw/../../misc/../font/../draw/../misc/lv_area.h **** /**
 112:Lib/lvgl/src/draw/sw/../../misc/../font/../draw/../misc/lv_area.h ****  * Initialize an area
 113:Lib/lvgl/src/draw/sw/../../misc/../font/../draw/../misc/lv_area.h ****  * @param area_p pointer to an area
 114:Lib/lvgl/src/draw/sw/../../misc/../font/../draw/../misc/lv_area.h ****  * @param x1 left coordinate of the area
 115:Lib/lvgl/src/draw/sw/../../misc/../font/../draw/../misc/lv_area.h ****  * @param y1 top coordinate of the area
 116:Lib/lvgl/src/draw/sw/../../misc/../font/../draw/../misc/lv_area.h ****  * @param x2 right coordinate of the area
 117:Lib/lvgl/src/draw/sw/../../misc/../font/../draw/../misc/lv_area.h ****  * @param y2 bottom coordinate of the area
 118:Lib/lvgl/src/draw/sw/../../misc/../font/../draw/../misc/lv_area.h ****  */
 119:Lib/lvgl/src/draw/sw/../../misc/../font/../draw/../misc/lv_area.h **** void lv_area_set(lv_area_t * area_p, int32_t x1, int32_t y1, int32_t x2, int32_t y2);
 120:Lib/lvgl/src/draw/sw/../../misc/../font/../draw/../misc/lv_area.h **** 
 121:Lib/lvgl/src/draw/sw/../../misc/../font/../draw/../misc/lv_area.h **** /**
 122:Lib/lvgl/src/draw/sw/../../misc/../font/../draw/../misc/lv_area.h ****  * Copy an area
 123:Lib/lvgl/src/draw/sw/../../misc/../font/../draw/../misc/lv_area.h ****  * @param dest pointer to the destination area
 124:Lib/lvgl/src/draw/sw/../../misc/../font/../draw/../misc/lv_area.h ****  * @param src pointer to the source area
 125:Lib/lvgl/src/draw/sw/../../misc/../font/../draw/../misc/lv_area.h ****  */
 126:Lib/lvgl/src/draw/sw/../../misc/../font/../draw/../misc/lv_area.h **** inline static void lv_area_copy(lv_area_t * dest, const lv_area_t * src)
  78              		.loc 2 126 20 view .LVU9
  79              	.LBB16:
 127:Lib/lvgl/src/draw/sw/../../misc/../font/../draw/../misc/lv_area.h **** {
 128:Lib/lvgl/src/draw/sw/../../misc/../font/../draw/../misc/lv_area.h ****     dest->x1 = src->x1;
  80              		.loc 2 128 5 view .LVU10
  81              		.loc 2 128 19 is_stmt 0 view .LVU11
  82 0018 1368     		ldr	r3, [r2]
  83              		.loc 2 128 14 view .LVU12
  84 001a 2693     		str	r3, [sp, #152]
 129:Lib/lvgl/src/draw/sw/../../misc/../font/../draw/../misc/lv_area.h ****     dest->y1 = src->y1;
  85              		.loc 2 129 5 is_stmt 1 view .LVU13
  86              		.loc 2 129 19 is_stmt 0 view .LVU14
  87 001c 5368     		ldr	r3, [r2, #4]
  88              		.loc 2 129 14 view .LVU15
  89 001e 2793     		str	r3, [sp, #156]
 130:Lib/lvgl/src/draw/sw/../../misc/../font/../draw/../misc/lv_area.h ****     dest->x2 = src->x2;
  90              		.loc 2 130 5 is_stmt 1 view .LVU16
  91              		.loc 2 130 19 is_stmt 0 view .LVU17
  92 0020 9368     		ldr	r3, [r2, #8]
  93              		.loc 2 130 14 view .LVU18
  94 0022 2893     		str	r3, [sp, #160]
 131:Lib/lvgl/src/draw/sw/../../misc/../font/../draw/../misc/lv_area.h ****     dest->y2 = src->y2;
  95              		.loc 2 131 5 is_stmt 1 view .LVU19
  96              		.loc 2 131 19 is_stmt 0 view .LVU20
  97 0024 D368     		ldr	r3, [r2, #12]
  98              		.loc 2 131 14 view .LVU21
  99 0026 2993     		str	r3, [sp, #164]
 100              	.LVL4:
 101              		.loc 2 131 14 view .LVU22
 102              	.LBE16:
ARM GAS  C:\Users\Alex\AppData\Local\Temp\cc8R0WAy.s 			page 9


 103              	.LBE15:
  52:Lib/lvgl/src/draw/sw/lv_draw_sw_fill.c ****     if(!_lv_area_intersect(&clipped_coords, &bg_coords, draw_unit->clip_area)) return;
 104              		.loc 1 52 5 is_stmt 1 view .LVU23
  53:Lib/lvgl/src/draw/sw/lv_draw_sw_fill.c **** 
 105              		.loc 1 53 5 view .LVU24
  53:Lib/lvgl/src/draw/sw/lv_draw_sw_fill.c **** 
 106              		.loc 1 53 9 is_stmt 0 view .LVU25
 107 0028 8268     		ldr	r2, [r0, #8]
 108              	.LVL5:
  53:Lib/lvgl/src/draw/sw/lv_draw_sw_fill.c **** 
 109              		.loc 1 53 9 view .LVU26
 110 002a 26A9     		add	r1, sp, #152
 111              	.LVL6:
  53:Lib/lvgl/src/draw/sw/lv_draw_sw_fill.c **** 
 112              		.loc 1 53 9 view .LVU27
 113 002c 22A8     		add	r0, sp, #136
 114              	.LVL7:
  53:Lib/lvgl/src/draw/sw/lv_draw_sw_fill.c **** 
 115              		.loc 1 53 9 view .LVU28
 116 002e FFF7FEFF 		bl	_lv_area_intersect
 117              	.LVL8:
  53:Lib/lvgl/src/draw/sw/lv_draw_sw_fill.c **** 
 118              		.loc 1 53 7 view .LVU29
 119 0032 0590     		str	r0, [sp, #20]
 120 0034 0028     		cmp	r0, #0
 121 0036 EBD0     		beq	.L1
  55:Lib/lvgl/src/draw/sw/lv_draw_sw_fill.c ****     lv_color_t bg_color    = grad_dir == LV_GRAD_DIR_NONE ? dsc->color : dsc->grad.stops[0].color;
 122              		.loc 1 55 5 is_stmt 1 view .LVU30
  55:Lib/lvgl/src/draw/sw/lv_draw_sw_fill.c ****     lv_color_t bg_color    = grad_dir == LV_GRAD_DIR_NONE ? dsc->color : dsc->grad.stops[0].color;
 123              		.loc 1 55 39 is_stmt 0 view .LVU31
 124 0038 94F82F80 		ldrb	r8, [r4, #47]	@ zero_extendqisi2
 125              	.LVL9:
  56:Lib/lvgl/src/draw/sw/lv_draw_sw_fill.c **** 
 126              		.loc 1 56 5 is_stmt 1 view .LVU32
  56:Lib/lvgl/src/draw/sw/lv_draw_sw_fill.c **** 
 127              		.loc 1 56 72 is_stmt 0 view .LVU33
 128 003c 18F00708 		ands	r8, r8, #7
 129              	.LVL10:
  56:Lib/lvgl/src/draw/sw/lv_draw_sw_fill.c **** 
 130              		.loc 1 56 72 view .LVU34
 131 0040 5CD1     		bne	.L3
  56:Lib/lvgl/src/draw/sw/lv_draw_sw_fill.c **** 
 132              		.loc 1 56 16 discriminator 1 view .LVU35
 133 0042 B4F82120 		ldrh	r2, [r4, #33]	@ unaligned
 134 0046 94F82330 		ldrb	r3, [r4, #35]	@ zero_extendqisi2
 135 004a ADF88420 		strh	r2, [sp, #132]	@ unaligned
 136 004e 8DF88630 		strb	r3, [sp, #134]
 137              	.L4:
  58:Lib/lvgl/src/draw/sw/lv_draw_sw_fill.c ****     blend_dsc.color = bg_color;
 138              		.loc 1 58 5 is_stmt 1 view .LVU36
  58:Lib/lvgl/src/draw/sw/lv_draw_sw_fill.c ****     blend_dsc.color = bg_color;
 139              		.loc 1 58 28 is_stmt 0 view .LVU37
 140 0052 2C22     		movs	r2, #44
 141 0054 0021     		movs	r1, #0
 142 0056 16A8     		add	r0, sp, #88
 143 0058 FFF7FEFF 		bl	memset
 144              	.LVL11:
ARM GAS  C:\Users\Alex\AppData\Local\Temp\cc8R0WAy.s 			page 10


  59:Lib/lvgl/src/draw/sw/lv_draw_sw_fill.c **** 
 145              		.loc 1 59 5 is_stmt 1 view .LVU38
  59:Lib/lvgl/src/draw/sw/lv_draw_sw_fill.c **** 
 146              		.loc 1 59 21 is_stmt 0 view .LVU39
 147 005c BDF88420 		ldrh	r2, [sp, #132]	@ unaligned
 148 0060 9DF88630 		ldrb	r3, [sp, #134]	@ zero_extendqisi2
 149 0064 ADF86D20 		strh	r2, [sp, #109]	@ unaligned
 150 0068 8DF86F30 		strb	r3, [sp, #111]
  62:Lib/lvgl/src/draw/sw/lv_draw_sw_fill.c ****         blend_dsc.blend_area = &bg_coords;
 151              		.loc 1 62 5 is_stmt 1 view .LVU40
  62:Lib/lvgl/src/draw/sw/lv_draw_sw_fill.c ****         blend_dsc.blend_area = &bg_coords;
 152              		.loc 1 62 11 is_stmt 0 view .LVU41
 153 006c E269     		ldr	r2, [r4, #28]
  62:Lib/lvgl/src/draw/sw/lv_draw_sw_fill.c ****         blend_dsc.blend_area = &bg_coords;
 154              		.loc 1 62 7 view .LVU42
 155 006e 12B9     		cbnz	r2, .L5
  62:Lib/lvgl/src/draw/sw/lv_draw_sw_fill.c ****         blend_dsc.blend_area = &bg_coords;
 156              		.loc 1 62 25 discriminator 1 view .LVU43
 157 0070 B8F1000F 		cmp	r8, #0
 158 0074 49D0     		beq	.L51
 159              	.L5:
  73:Lib/lvgl/src/draw/sw/lv_draw_sw_fill.c **** 
 160              		.loc 1 73 5 is_stmt 1 view .LVU44
  73:Lib/lvgl/src/draw/sw/lv_draw_sw_fill.c **** 
 161              		.loc 1 73 23 is_stmt 0 view .LVU45
 162 0076 94F82030 		ldrb	r3, [r4, #32]	@ zero_extendqisi2
 163 007a 0393     		str	r3, [sp, #12]
  73:Lib/lvgl/src/draw/sw/lv_draw_sw_fill.c **** 
 164              		.loc 1 73 14 view .LVU46
 165 007c FC2B     		cmp	r3, #252
 166 007e 01D9     		bls	.L6
 167 0080 FF23     		movs	r3, #255
 168 0082 0393     		str	r3, [sp, #12]
 169              	.L6:
 170              	.LVL12:
  76:Lib/lvgl/src/draw/sw/lv_draw_sw_fill.c ****     int32_t coords_bg_h = lv_area_get_height(&bg_coords);
 171              		.loc 1 76 5 is_stmt 1 discriminator 4 view .LVU47
 172              	.LBB17:
 173              	.LBI17:
 132:Lib/lvgl/src/draw/sw/../../misc/../font/../draw/../misc/lv_area.h **** }
 133:Lib/lvgl/src/draw/sw/../../misc/../font/../draw/../misc/lv_area.h **** 
 134:Lib/lvgl/src/draw/sw/../../misc/../font/../draw/../misc/lv_area.h **** /**
 135:Lib/lvgl/src/draw/sw/../../misc/../font/../draw/../misc/lv_area.h ****  * Get the width of an area
 136:Lib/lvgl/src/draw/sw/../../misc/../font/../draw/../misc/lv_area.h ****  * @param area_p pointer to an area
 137:Lib/lvgl/src/draw/sw/../../misc/../font/../draw/../misc/lv_area.h ****  * @return the width of the area (if x1 == x2 -> width = 1)
 138:Lib/lvgl/src/draw/sw/../../misc/../font/../draw/../misc/lv_area.h ****  */
 139:Lib/lvgl/src/draw/sw/../../misc/../font/../draw/../misc/lv_area.h **** static inline int32_t lv_area_get_width(const lv_area_t * area_p)
 174              		.loc 2 139 23 discriminator 4 view .LVU48
 175              	.LBB18:
 140:Lib/lvgl/src/draw/sw/../../misc/../font/../draw/../misc/lv_area.h **** {
 141:Lib/lvgl/src/draw/sw/../../misc/../font/../draw/../misc/lv_area.h ****     return (int32_t)(area_p->x2 - area_p->x1 + 1);
 176              		.loc 2 141 5 discriminator 4 view .LVU49
 177              		.loc 2 141 33 is_stmt 0 discriminator 4 view .LVU50
 178 0084 289D     		ldr	r5, [sp, #160]
 179 0086 269B     		ldr	r3, [sp, #152]
 180 0088 ED1A     		subs	r5, r5, r3
 181              		.loc 2 141 12 discriminator 4 view .LVU51
ARM GAS  C:\Users\Alex\AppData\Local\Temp\cc8R0WAy.s 			page 11


 182 008a 0135     		adds	r5, r5, #1
 183              	.LVL13:
 184              		.loc 2 141 12 discriminator 4 view .LVU52
 185              	.LBE18:
 186              	.LBE17:
  77:Lib/lvgl/src/draw/sw/lv_draw_sw_fill.c ****     int32_t short_side = LV_MIN(coords_bg_w, coords_bg_h);
 187              		.loc 1 77 5 is_stmt 1 discriminator 4 view .LVU53
 188              	.LBB19:
 189              	.LBI19:
 142:Lib/lvgl/src/draw/sw/../../misc/../font/../draw/../misc/lv_area.h **** }
 143:Lib/lvgl/src/draw/sw/../../misc/../font/../draw/../misc/lv_area.h **** 
 144:Lib/lvgl/src/draw/sw/../../misc/../font/../draw/../misc/lv_area.h **** /**
 145:Lib/lvgl/src/draw/sw/../../misc/../font/../draw/../misc/lv_area.h ****  * Get the height of an area
 146:Lib/lvgl/src/draw/sw/../../misc/../font/../draw/../misc/lv_area.h ****  * @param area_p pointer to an area
 147:Lib/lvgl/src/draw/sw/../../misc/../font/../draw/../misc/lv_area.h ****  * @return the height of the area (if y1 == y2 -> height = 1)
 148:Lib/lvgl/src/draw/sw/../../misc/../font/../draw/../misc/lv_area.h ****  */
 149:Lib/lvgl/src/draw/sw/../../misc/../font/../draw/../misc/lv_area.h **** static inline int32_t lv_area_get_height(const lv_area_t * area_p)
 190              		.loc 2 149 23 discriminator 4 view .LVU54
 191              	.LBB20:
 150:Lib/lvgl/src/draw/sw/../../misc/../font/../draw/../misc/lv_area.h **** {
 151:Lib/lvgl/src/draw/sw/../../misc/../font/../draw/../misc/lv_area.h ****     return (int32_t)(area_p->y2 - area_p->y1 + 1);
 192              		.loc 2 151 5 discriminator 4 view .LVU55
 193              		.loc 2 151 33 is_stmt 0 discriminator 4 view .LVU56
 194 008c 299E     		ldr	r6, [sp, #164]
 195 008e 279B     		ldr	r3, [sp, #156]
 196 0090 F61A     		subs	r6, r6, r3
 197              		.loc 2 151 12 discriminator 4 view .LVU57
 198 0092 0136     		adds	r6, r6, #1
 199              	.LVL14:
 200              		.loc 2 151 12 discriminator 4 view .LVU58
 201              	.LBE20:
 202              	.LBE19:
  78:Lib/lvgl/src/draw/sw/lv_draw_sw_fill.c ****     int32_t rout = LV_MIN(dsc->radius, short_side >> 1);
 203              		.loc 1 78 5 is_stmt 1 discriminator 4 view .LVU59
  78:Lib/lvgl/src/draw/sw/lv_draw_sw_fill.c ****     int32_t rout = LV_MIN(dsc->radius, short_side >> 1);
 204              		.loc 1 78 13 is_stmt 0 discriminator 4 view .LVU60
 205 0094 3346     		mov	r3, r6
 206 0096 AE42     		cmp	r6, r5
 207 0098 A8BF     		it	ge
 208 009a 2B46     		movge	r3, r5
 209              	.LVL15:
  79:Lib/lvgl/src/draw/sw/lv_draw_sw_fill.c **** 
 210              		.loc 1 79 5 is_stmt 1 discriminator 4 view .LVU61
  79:Lib/lvgl/src/draw/sw/lv_draw_sw_fill.c **** 
 211              		.loc 1 79 20 is_stmt 0 discriminator 4 view .LVU62
 212 009c 5B10     		asrs	r3, r3, #1
 213              	.LVL16:
  79:Lib/lvgl/src/draw/sw/lv_draw_sw_fill.c **** 
 214              		.loc 1 79 13 discriminator 4 view .LVU63
 215 009e 9A42     		cmp	r2, r3
 216              	.LVL17:
  79:Lib/lvgl/src/draw/sw/lv_draw_sw_fill.c **** 
 217              		.loc 1 79 13 discriminator 4 view .LVU64
 218 00a0 A8BF     		it	ge
 219 00a2 1A46     		movge	r2, r3
 220 00a4 1746     		mov	r7, r2
 221              	.LVL18:
ARM GAS  C:\Users\Alex\AppData\Local\Temp\cc8R0WAy.s 			page 12


  82:Lib/lvgl/src/draw/sw/lv_draw_sw_fill.c ****     lv_opa_t * mask_buf = NULL;
 222              		.loc 1 82 5 is_stmt 1 discriminator 4 view .LVU65
 223              	.LBB21:
 224              	.LBI21:
 139:Lib/lvgl/src/draw/sw/../../misc/../font/../draw/../misc/lv_area.h **** {
 225              		.loc 2 139 23 discriminator 4 view .LVU66
 226              	.LBB22:
 141:Lib/lvgl/src/draw/sw/../../misc/../font/../draw/../misc/lv_area.h **** }
 227              		.loc 2 141 5 discriminator 4 view .LVU67
 141:Lib/lvgl/src/draw/sw/../../misc/../font/../draw/../misc/lv_area.h **** }
 228              		.loc 2 141 33 is_stmt 0 discriminator 4 view .LVU68
 229 00a6 249B     		ldr	r3, [sp, #144]
 230 00a8 229A     		ldr	r2, [sp, #136]
 231              	.LVL19:
 141:Lib/lvgl/src/draw/sw/../../misc/../font/../draw/../misc/lv_area.h **** }
 232              		.loc 2 141 33 discriminator 4 view .LVU69
 233 00aa 9B1A     		subs	r3, r3, r2
 141:Lib/lvgl/src/draw/sw/../../misc/../font/../draw/../misc/lv_area.h **** }
 234              		.loc 2 141 12 discriminator 4 view .LVU70
 235 00ac 03F10109 		add	r9, r3, #1
 236              	.LVL20:
 141:Lib/lvgl/src/draw/sw/../../misc/../font/../draw/../misc/lv_area.h **** }
 237              		.loc 2 141 12 discriminator 4 view .LVU71
 238              	.LBE22:
 239              	.LBE21:
  83:Lib/lvgl/src/draw/sw/lv_draw_sw_fill.c ****     lv_draw_sw_mask_radius_param_t mask_rout_param;
 240              		.loc 1 83 5 is_stmt 1 discriminator 4 view .LVU72
  84:Lib/lvgl/src/draw/sw/lv_draw_sw_fill.c ****     void * mask_list[2] = {NULL, NULL};
 241              		.loc 1 84 5 discriminator 4 view .LVU73
  85:Lib/lvgl/src/draw/sw/lv_draw_sw_fill.c ****     if(rout > 0) {
 242              		.loc 1 85 5 discriminator 4 view .LVU74
  85:Lib/lvgl/src/draw/sw/lv_draw_sw_fill.c ****     if(rout > 0) {
 243              		.loc 1 85 12 is_stmt 0 discriminator 4 view .LVU75
 244 00b0 0023     		movs	r3, #0
 245 00b2 0B93     		str	r3, [sp, #44]
 246 00b4 0C93     		str	r3, [sp, #48]
  86:Lib/lvgl/src/draw/sw/lv_draw_sw_fill.c ****         mask_buf = lv_malloc(clipped_w);
 247              		.loc 1 86 5 is_stmt 1 discriminator 4 view .LVU76
  86:Lib/lvgl/src/draw/sw/lv_draw_sw_fill.c ****         mask_buf = lv_malloc(clipped_w);
 248              		.loc 1 86 7 is_stmt 0 discriminator 4 view .LVU77
 249 00b6 9F42     		cmp	r7, r3
 250 00b8 32DC     		bgt	.L52
  83:Lib/lvgl/src/draw/sw/lv_draw_sw_fill.c ****     lv_draw_sw_mask_radius_param_t mask_rout_param;
 251              		.loc 1 83 16 view .LVU78
 252 00ba 4FF0000A 		mov	r10, #0
 253              	.LVL21:
 254              	.L7:
  92:Lib/lvgl/src/draw/sw/lv_draw_sw_fill.c **** 
 255              		.loc 1 92 5 is_stmt 1 view .LVU79
  94:Lib/lvgl/src/draw/sw/lv_draw_sw_fill.c ****     blend_area.x1 = clipped_coords.x1;
 256              		.loc 1 94 5 view .LVU80
  95:Lib/lvgl/src/draw/sw/lv_draw_sw_fill.c ****     blend_area.x2 = clipped_coords.x2;
 257              		.loc 1 95 5 view .LVU81
  95:Lib/lvgl/src/draw/sw/lv_draw_sw_fill.c ****     blend_area.x2 = clipped_coords.x2;
 258              		.loc 1 95 35 is_stmt 0 view .LVU82
 259 00be 229B     		ldr	r3, [sp, #136]
  95:Lib/lvgl/src/draw/sw/lv_draw_sw_fill.c ****     blend_area.x2 = clipped_coords.x2;
ARM GAS  C:\Users\Alex\AppData\Local\Temp\cc8R0WAy.s 			page 13


 260              		.loc 1 95 19 view .LVU83
 261 00c0 0793     		str	r3, [sp, #28]
  96:Lib/lvgl/src/draw/sw/lv_draw_sw_fill.c **** 
 262              		.loc 1 96 5 is_stmt 1 view .LVU84
  96:Lib/lvgl/src/draw/sw/lv_draw_sw_fill.c **** 
 263              		.loc 1 96 35 is_stmt 0 view .LVU85
 264 00c2 249B     		ldr	r3, [sp, #144]
  96:Lib/lvgl/src/draw/sw/lv_draw_sw_fill.c **** 
 265              		.loc 1 96 19 view .LVU86
 266 00c4 0993     		str	r3, [sp, #36]
  98:Lib/lvgl/src/draw/sw/lv_draw_sw_fill.c ****     blend_dsc.blend_area = &blend_area;
 267              		.loc 1 98 5 is_stmt 1 view .LVU87
  98:Lib/lvgl/src/draw/sw/lv_draw_sw_fill.c ****     blend_dsc.blend_area = &blend_area;
 268              		.loc 1 98 24 is_stmt 0 view .LVU88
 269 00c6 CDF870A0 		str	r10, [sp, #112]
  99:Lib/lvgl/src/draw/sw/lv_draw_sw_fill.c ****     blend_dsc.mask_area = &blend_area;
 270              		.loc 1 99 5 is_stmt 1 view .LVU89
  99:Lib/lvgl/src/draw/sw/lv_draw_sw_fill.c ****     blend_dsc.mask_area = &blend_area;
 271              		.loc 1 99 26 is_stmt 0 view .LVU90
 272 00ca 07AB     		add	r3, sp, #28
 273 00cc 1693     		str	r3, [sp, #88]
 100:Lib/lvgl/src/draw/sw/lv_draw_sw_fill.c ****     blend_dsc.opa = LV_OPA_COVER;
 274              		.loc 1 100 5 is_stmt 1 view .LVU91
 100:Lib/lvgl/src/draw/sw/lv_draw_sw_fill.c ****     blend_dsc.opa = LV_OPA_COVER;
 275              		.loc 1 100 25 is_stmt 0 view .LVU92
 276 00ce 1E93     		str	r3, [sp, #120]
 101:Lib/lvgl/src/draw/sw/lv_draw_sw_fill.c **** 
 277              		.loc 1 101 5 is_stmt 1 view .LVU93
 101:Lib/lvgl/src/draw/sw/lv_draw_sw_fill.c **** 
 278              		.loc 1 101 19 is_stmt 0 view .LVU94
 279 00d0 FF23     		movs	r3, #255
 280 00d2 8DF86C30 		strb	r3, [sp, #108]
 104:Lib/lvgl/src/draw/sw/lv_draw_sw_fill.c ****     lv_opa_t * grad_opa_map = NULL;
 281              		.loc 1 104 5 is_stmt 1 view .LVU95
 104:Lib/lvgl/src/draw/sw/lv_draw_sw_fill.c ****     lv_opa_t * grad_opa_map = NULL;
 282              		.loc 1 104 24 is_stmt 0 view .LVU96
 283 00d6 3246     		mov	r2, r6
 284 00d8 2946     		mov	r1, r5
 285 00da 04F12400 		add	r0, r4, #36
 286 00de FFF7FEFF 		bl	lv_gradient_get
 287              	.LVL22:
 105:Lib/lvgl/src/draw/sw/lv_draw_sw_fill.c ****     if(grad && grad_dir == LV_GRAD_DIR_HOR) {
 288              		.loc 1 105 5 is_stmt 1 view .LVU97
 106:Lib/lvgl/src/draw/sw/lv_draw_sw_fill.c ****         blend_dsc.src_area = &blend_area;
 289              		.loc 1 106 5 view .LVU98
 106:Lib/lvgl/src/draw/sw/lv_draw_sw_fill.c ****         blend_dsc.src_area = &blend_area;
 290              		.loc 1 106 7 is_stmt 0 view .LVU99
 291 00e2 8346     		mov	fp, r0
 292 00e4 0028     		cmp	r0, #0
 293 00e6 51D0     		beq	.L41
 106:Lib/lvgl/src/draw/sw/lv_draw_sw_fill.c ****         blend_dsc.src_area = &blend_area;
 294              		.loc 1 106 13 discriminator 1 view .LVU100
 295 00e8 B8F1020F 		cmp	r8, #2
 296 00ec 27D0     		beq	.L53
 105:Lib/lvgl/src/draw/sw/lv_draw_sw_fill.c ****     if(grad && grad_dir == LV_GRAD_DIR_HOR) {
 297              		.loc 1 105 16 view .LVU101
 298 00ee 0023     		movs	r3, #0
ARM GAS  C:\Users\Alex\AppData\Local\Temp\cc8R0WAy.s 			page 14


 299 00f0 0493     		str	r3, [sp, #16]
 300              	.LVL23:
 301              	.L8:
 124:Lib/lvgl/src/draw/sw/lv_draw_sw_fill.c ****         int32_t top_y = bg_coords.y1 + h;
 302              		.loc 1 124 5 is_stmt 1 view .LVU102
 124:Lib/lvgl/src/draw/sw/lv_draw_sw_fill.c ****         int32_t top_y = bg_coords.y1 + h;
 303              		.loc 1 124 11 is_stmt 0 view .LVU103
 304 00f2 0026     		movs	r6, #0
 305              	.LVL24:
 124:Lib/lvgl/src/draw/sw/lv_draw_sw_fill.c ****         int32_t top_y = bg_coords.y1 + h;
 306              		.loc 1 124 11 view .LVU104
 307 00f4 4B46     		mov	r3, r9
 308 00f6 B946     		mov	r9, r7
 309              	.LVL25:
 124:Lib/lvgl/src/draw/sw/lv_draw_sw_fill.c ****         int32_t top_y = bg_coords.y1 + h;
 310              		.loc 1 124 11 view .LVU105
 311 00f8 1F46     		mov	r7, r3
 312              	.LVL26:
 124:Lib/lvgl/src/draw/sw/lv_draw_sw_fill.c ****         int32_t top_y = bg_coords.y1 + h;
 313              		.loc 1 124 5 view .LVU106
 314 00fa A4E0     		b	.L13
 315              	.LVL27:
 316              	.L3:
  56:Lib/lvgl/src/draw/sw/lv_draw_sw_fill.c **** 
 317              		.loc 1 56 16 discriminator 2 view .LVU107
 318 00fc 636A     		ldr	r3, [r4, #36]
 319 00fe ADF88430 		strh	r3, [sp, #132]	@ movhi
 320 0102 1B0C     		lsrs	r3, r3, #16
 321 0104 8DF88630 		strb	r3, [sp, #134]
 322 0108 A3E7     		b	.L4
 323              	.LVL28:
 324              	.L51:
  63:Lib/lvgl/src/draw/sw/lv_draw_sw_fill.c ****         blend_dsc.opa = dsc->opa;
 325              		.loc 1 63 9 is_stmt 1 view .LVU108
  63:Lib/lvgl/src/draw/sw/lv_draw_sw_fill.c ****         blend_dsc.opa = dsc->opa;
 326              		.loc 1 63 30 is_stmt 0 view .LVU109
 327 010a 26AB     		add	r3, sp, #152
 328 010c 1693     		str	r3, [sp, #88]
  64:Lib/lvgl/src/draw/sw/lv_draw_sw_fill.c ****         lv_draw_sw_blend(draw_unit, &blend_dsc);
 329              		.loc 1 64 9 is_stmt 1 view .LVU110
  64:Lib/lvgl/src/draw/sw/lv_draw_sw_fill.c ****         lv_draw_sw_blend(draw_unit, &blend_dsc);
 330              		.loc 1 64 28 is_stmt 0 view .LVU111
 331 010e 94F82030 		ldrb	r3, [r4, #32]	@ zero_extendqisi2
  64:Lib/lvgl/src/draw/sw/lv_draw_sw_fill.c ****         lv_draw_sw_blend(draw_unit, &blend_dsc);
 332              		.loc 1 64 23 view .LVU112
 333 0112 8DF86C30 		strb	r3, [sp, #108]
  65:Lib/lvgl/src/draw/sw/lv_draw_sw_fill.c ****         return;
 334              		.loc 1 65 9 is_stmt 1 view .LVU113
 335 0116 16A9     		add	r1, sp, #88
 336 0118 0298     		ldr	r0, [sp, #8]
 337 011a FFF7FEFF 		bl	lv_draw_sw_blend
 338              	.LVL29:
  66:Lib/lvgl/src/draw/sw/lv_draw_sw_fill.c ****     }
 339              		.loc 1 66 9 view .LVU114
 340 011e 77E7     		b	.L1
 341              	.LVL30:
 342              	.L52:
ARM GAS  C:\Users\Alex\AppData\Local\Temp\cc8R0WAy.s 			page 15


  87:Lib/lvgl/src/draw/sw/lv_draw_sw_fill.c ****         lv_draw_sw_mask_radius_init(&mask_rout_param, &bg_coords, rout, false);
 343              		.loc 1 87 9 view .LVU115
  87:Lib/lvgl/src/draw/sw/lv_draw_sw_fill.c ****         lv_draw_sw_mask_radius_init(&mask_rout_param, &bg_coords, rout, false);
 344              		.loc 1 87 20 is_stmt 0 view .LVU116
 345 0120 4846     		mov	r0, r9
 346 0122 FFF7FEFF 		bl	lv_malloc
 347              	.LVL31:
 348 0126 8246     		mov	r10, r0
 349              	.LVL32:
  88:Lib/lvgl/src/draw/sw/lv_draw_sw_fill.c ****         mask_list[0] = &mask_rout_param;
 350              		.loc 1 88 9 is_stmt 1 view .LVU117
 351 0128 0DF1340B 		add	fp, sp, #52
 352 012c 0023     		movs	r3, #0
 353 012e 3A46     		mov	r2, r7
 354 0130 26A9     		add	r1, sp, #152
 355 0132 5846     		mov	r0, fp
 356              	.LVL33:
  88:Lib/lvgl/src/draw/sw/lv_draw_sw_fill.c ****         mask_list[0] = &mask_rout_param;
 357              		.loc 1 88 9 is_stmt 0 view .LVU118
 358 0134 FFF7FEFF 		bl	lv_draw_sw_mask_radius_init
 359              	.LVL34:
  89:Lib/lvgl/src/draw/sw/lv_draw_sw_fill.c ****     }
 360              		.loc 1 89 9 is_stmt 1 view .LVU119
  89:Lib/lvgl/src/draw/sw/lv_draw_sw_fill.c ****     }
 361              		.loc 1 89 22 is_stmt 0 view .LVU120
 362 0138 CDF82CB0 		str	fp, [sp, #44]
 363 013c BFE7     		b	.L7
 364              	.LVL35:
 365              	.L53:
 366              	.LBB23:
 107:Lib/lvgl/src/draw/sw/lv_draw_sw_fill.c ****         blend_dsc.src_buf = grad->color_map + clipped_coords.x1 - bg_coords.x1;
 367              		.loc 1 107 9 is_stmt 1 view .LVU121
 107:Lib/lvgl/src/draw/sw/lv_draw_sw_fill.c ****         blend_dsc.src_buf = grad->color_map + clipped_coords.x1 - bg_coords.x1;
 368              		.loc 1 107 28 is_stmt 0 view .LVU122
 369 013e 07AB     		add	r3, sp, #28
 370 0140 1A93     		str	r3, [sp, #104]
 108:Lib/lvgl/src/draw/sw/lv_draw_sw_fill.c ****         bool transp = false;
 371              		.loc 1 108 9 is_stmt 1 view .LVU123
 108:Lib/lvgl/src/draw/sw/lv_draw_sw_fill.c ****         bool transp = false;
 372              		.loc 1 108 33 is_stmt 0 view .LVU124
 373 0142 0368     		ldr	r3, [r0]
 108:Lib/lvgl/src/draw/sw/lv_draw_sw_fill.c ****         bool transp = false;
 374              		.loc 1 108 65 view .LVU125
 375 0144 2299     		ldr	r1, [sp, #136]
 376 0146 269A     		ldr	r2, [sp, #152]
 377 0148 891A     		subs	r1, r1, r2
 378 014a 01EB4102 		add	r2, r1, r1, lsl #1
 379 014e 1344     		add	r3, r3, r2
 108:Lib/lvgl/src/draw/sw/lv_draw_sw_fill.c ****         bool transp = false;
 380              		.loc 1 108 27 view .LVU126
 381 0150 1793     		str	r3, [sp, #92]
 109:Lib/lvgl/src/draw/sw/lv_draw_sw_fill.c ****         uint32_t s;
 382              		.loc 1 109 9 is_stmt 1 view .LVU127
 383              	.LVL36:
 110:Lib/lvgl/src/draw/sw/lv_draw_sw_fill.c ****         for(s = 0; s < dsc->grad.stops_count; s++) {
 384              		.loc 1 110 9 view .LVU128
 111:Lib/lvgl/src/draw/sw/lv_draw_sw_fill.c ****             if(dsc->grad.stops[s].opa != LV_OPA_COVER) {
ARM GAS  C:\Users\Alex\AppData\Local\Temp\cc8R0WAy.s 			page 16


 385              		.loc 1 111 9 view .LVU129
 111:Lib/lvgl/src/draw/sw/lv_draw_sw_fill.c ****             if(dsc->grad.stops[s].opa != LV_OPA_COVER) {
 386              		.loc 1 111 15 is_stmt 0 view .LVU130
 387 0152 0023     		movs	r3, #0
 111:Lib/lvgl/src/draw/sw/lv_draw_sw_fill.c ****             if(dsc->grad.stops[s].opa != LV_OPA_COVER) {
 388              		.loc 1 111 9 view .LVU131
 389 0154 00E0     		b	.L9
 390              	.LVL37:
 391              	.L55:
 111:Lib/lvgl/src/draw/sw/lv_draw_sw_fill.c ****             if(dsc->grad.stops[s].opa != LV_OPA_COVER) {
 392              		.loc 1 111 48 is_stmt 1 discriminator 2 view .LVU132
 393 0156 0133     		adds	r3, r3, #1
 394              	.LVL38:
 395              	.L9:
 111:Lib/lvgl/src/draw/sw/lv_draw_sw_fill.c ****             if(dsc->grad.stops[s].opa != LV_OPA_COVER) {
 396              		.loc 1 111 22 discriminator 1 view .LVU133
 111:Lib/lvgl/src/draw/sw/lv_draw_sw_fill.c ****             if(dsc->grad.stops[s].opa != LV_OPA_COVER) {
 397              		.loc 1 111 33 is_stmt 0 discriminator 1 view .LVU134
 398 0158 94F82E20 		ldrb	r2, [r4, #46]	@ zero_extendqisi2
 111:Lib/lvgl/src/draw/sw/lv_draw_sw_fill.c ****             if(dsc->grad.stops[s].opa != LV_OPA_COVER) {
 399              		.loc 1 111 22 discriminator 1 view .LVU135
 400 015c 9A42     		cmp	r2, r3
 401 015e 08D9     		bls	.L54
 112:Lib/lvgl/src/draw/sw/lv_draw_sw_fill.c ****                 transp = true;
 402              		.loc 1 112 13 is_stmt 1 view .LVU136
 112:Lib/lvgl/src/draw/sw/lv_draw_sw_fill.c ****                 transp = true;
 403              		.loc 1 112 34 is_stmt 0 view .LVU137
 404 0160 03EB8302 		add	r2, r3, r3, lsl #2
 405 0164 2244     		add	r2, r2, r4
 406 0166 92F82720 		ldrb	r2, [r2, #39]	@ zero_extendqisi2
 112:Lib/lvgl/src/draw/sw/lv_draw_sw_fill.c ****                 transp = true;
 407              		.loc 1 112 15 view .LVU138
 408 016a FF2A     		cmp	r2, #255
 409 016c F3D0     		beq	.L55
 113:Lib/lvgl/src/draw/sw/lv_draw_sw_fill.c ****                 break;
 410              		.loc 1 113 24 view .LVU139
 411 016e 059B     		ldr	r3, [sp, #20]
 412              	.LVL39:
 113:Lib/lvgl/src/draw/sw/lv_draw_sw_fill.c ****                 break;
 413              		.loc 1 113 24 view .LVU140
 414 0170 00E0     		b	.L10
 415              	.LVL40:
 416              	.L54:
 109:Lib/lvgl/src/draw/sw/lv_draw_sw_fill.c ****         uint32_t s;
 417              		.loc 1 109 14 view .LVU141
 418 0172 0023     		movs	r3, #0
 419              	.LVL41:
 420              	.L10:
 118:Lib/lvgl/src/draw/sw/lv_draw_sw_fill.c **** 
 421              		.loc 1 118 9 is_stmt 1 view .LVU142
 118:Lib/lvgl/src/draw/sw/lv_draw_sw_fill.c **** 
 422              		.loc 1 118 11 is_stmt 0 view .LVU143
 423 0174 3BB1     		cbz	r3, .L44
 118:Lib/lvgl/src/draw/sw/lv_draw_sw_fill.c **** 
 424              		.loc 1 118 20 is_stmt 1 discriminator 1 view .LVU144
 118:Lib/lvgl/src/draw/sw/lv_draw_sw_fill.c **** 
 425              		.loc 1 118 39 is_stmt 0 discriminator 1 view .LVU145
ARM GAS  C:\Users\Alex\AppData\Local\Temp\cc8R0WAy.s 			page 17


 426 0176 DBF80430 		ldr	r3, [fp, #4]
 427              	.LVL42:
 118:Lib/lvgl/src/draw/sw/lv_draw_sw_fill.c **** 
 428              		.loc 1 118 33 discriminator 1 view .LVU146
 429 017a 0B44     		add	r3, r3, r1
 430 017c 0493     		str	r3, [sp, #16]
 431              	.LVL43:
 432              	.L12:
 120:Lib/lvgl/src/draw/sw/lv_draw_sw_fill.c ****     }
 433              		.loc 1 120 9 is_stmt 1 view .LVU147
 120:Lib/lvgl/src/draw/sw/lv_draw_sw_fill.c ****     }
 434              		.loc 1 120 36 is_stmt 0 view .LVU148
 435 017e 0F23     		movs	r3, #15
 436 0180 8DF86430 		strb	r3, [sp, #100]
 437 0184 B5E7     		b	.L8
 438              	.LVL44:
 439              	.L44:
 120:Lib/lvgl/src/draw/sw/lv_draw_sw_fill.c ****     }
 440              		.loc 1 120 36 view .LVU149
 441              	.LBE23:
 105:Lib/lvgl/src/draw/sw/lv_draw_sw_fill.c ****     if(grad && grad_dir == LV_GRAD_DIR_HOR) {
 442              		.loc 1 105 16 view .LVU150
 443 0186 0023     		movs	r3, #0
 444              	.LVL45:
 105:Lib/lvgl/src/draw/sw/lv_draw_sw_fill.c ****     if(grad && grad_dir == LV_GRAD_DIR_HOR) {
 445              		.loc 1 105 16 view .LVU151
 446 0188 0493     		str	r3, [sp, #16]
 447 018a F8E7     		b	.L12
 448              	.LVL46:
 449              	.L41:
 105:Lib/lvgl/src/draw/sw/lv_draw_sw_fill.c ****     if(grad && grad_dir == LV_GRAD_DIR_HOR) {
 450              		.loc 1 105 16 view .LVU152
 451 018c 0490     		str	r0, [sp, #16]
 452 018e B0E7     		b	.L8
 453              	.LVL47:
 454              	.L59:
 455              	.LBB24:
 133:Lib/lvgl/src/draw/sw/lv_draw_sw_fill.c **** 
 456              		.loc 1 133 66 is_stmt 1 discriminator 1 view .LVU153
 133:Lib/lvgl/src/draw/sw/lv_draw_sw_fill.c **** 
 457              		.loc 1 133 85 is_stmt 0 discriminator 1 view .LVU154
 458 0190 0223     		movs	r3, #2
 459 0192 8DF87430 		strb	r3, [sp, #116]
 460 0196 72E0     		b	.L16
 461              	.LVL48:
 462              	.L60:
 141:Lib/lvgl/src/draw/sw/lv_draw_sw_fill.c ****                 blend_dsc.opa = grad->opa_map[top_y - bg_coords.y1];
 463              		.loc 1 141 17 is_stmt 1 view .LVU155
 141:Lib/lvgl/src/draw/sw/lv_draw_sw_fill.c ****                 blend_dsc.opa = grad->opa_map[top_y - bg_coords.y1];
 464              		.loc 1 141 39 is_stmt 0 view .LVU156
 465 0198 DBF80010 		ldr	r1, [fp]
 141:Lib/lvgl/src/draw/sw/lv_draw_sw_fill.c ****                 blend_dsc.opa = grad->opa_map[top_y - bg_coords.y1];
 466              		.loc 1 141 68 view .LVU157
 467 019c 279B     		ldr	r3, [sp, #156]
 141:Lib/lvgl/src/draw/sw/lv_draw_sw_fill.c ****                 blend_dsc.opa = grad->opa_map[top_y - bg_coords.y1];
 468              		.loc 1 141 57 view .LVU158
 469 019e E31A     		subs	r3, r4, r3
ARM GAS  C:\Users\Alex\AppData\Local\Temp\cc8R0WAy.s 			page 18


 141:Lib/lvgl/src/draw/sw/lv_draw_sw_fill.c ****                 blend_dsc.opa = grad->opa_map[top_y - bg_coords.y1];
 470              		.loc 1 141 50 view .LVU159
 471 01a0 03EB4302 		add	r2, r3, r3, lsl #1
 472 01a4 8818     		adds	r0, r1, r2
 141:Lib/lvgl/src/draw/sw/lv_draw_sw_fill.c ****                 blend_dsc.opa = grad->opa_map[top_y - bg_coords.y1];
 473              		.loc 1 141 33 view .LVU160
 474 01a6 895A     		ldrh	r1, [r1, r2]	@ unaligned
 475 01a8 8278     		ldrb	r2, [r0, #2]	@ zero_extendqisi2
 476 01aa ADF86D10 		strh	r1, [sp, #109]	@ unaligned
 477 01ae 8DF86F20 		strb	r2, [sp, #111]
 142:Lib/lvgl/src/draw/sw/lv_draw_sw_fill.c ****             }
 478              		.loc 1 142 17 is_stmt 1 view .LVU161
 142:Lib/lvgl/src/draw/sw/lv_draw_sw_fill.c ****             }
 479              		.loc 1 142 37 is_stmt 0 view .LVU162
 480 01b2 DBF80420 		ldr	r2, [fp, #4]
 142:Lib/lvgl/src/draw/sw/lv_draw_sw_fill.c ****             }
 481              		.loc 1 142 46 view .LVU163
 482 01b6 D35C     		ldrb	r3, [r2, r3]	@ zero_extendqisi2
 142:Lib/lvgl/src/draw/sw/lv_draw_sw_fill.c ****             }
 483              		.loc 1 142 31 view .LVU164
 484 01b8 8DF86C30 		strb	r3, [sp, #108]
 135:Lib/lvgl/src/draw/sw/lv_draw_sw_fill.c ****         if(top_y >= clipped_coords.y1) {
 485              		.loc 1 135 14 view .LVU165
 486 01bc 0024     		movs	r4, #0
 487              	.LVL49:
 135:Lib/lvgl/src/draw/sw/lv_draw_sw_fill.c ****         if(top_y >= clipped_coords.y1) {
 488              		.loc 1 135 14 view .LVU166
 489 01be 6AE0     		b	.L19
 490              	.LVL50:
 491              	.L61:
 145:Lib/lvgl/src/draw/sw/lv_draw_sw_fill.c ****                 if(grad_opa_map) {
 492              		.loc 1 145 17 is_stmt 1 view .LVU167
 146:Lib/lvgl/src/draw/sw/lv_draw_sw_fill.c ****                     int32_t i;
 493              		.loc 1 146 17 view .LVU168
 146:Lib/lvgl/src/draw/sw/lv_draw_sw_fill.c ****                     int32_t i;
 494              		.loc 1 146 19 is_stmt 0 view .LVU169
 495 01c0 049B     		ldr	r3, [sp, #16]
 496 01c2 7BB9     		cbnz	r3, .L47
 145:Lib/lvgl/src/draw/sw/lv_draw_sw_fill.c ****                 if(grad_opa_map) {
 497              		.loc 1 145 36 view .LVU170
 498 01c4 059C     		ldr	r4, [sp, #20]
 499              	.LVL51:
 145:Lib/lvgl/src/draw/sw/lv_draw_sw_fill.c ****                 if(grad_opa_map) {
 500              		.loc 1 145 36 view .LVU171
 501 01c6 66E0     		b	.L19
 502              	.LVL52:
 503              	.L21:
 504              	.LBB25:
 148:Lib/lvgl/src/draw/sw/lv_draw_sw_fill.c ****                         if(grad_opa_map[i] < LV_OPA_MAX) mask_buf[i] = (mask_buf[i] * grad_opa_map[
 505              		.loc 1 148 48 is_stmt 1 discriminator 2 view .LVU172
 506 01c8 0133     		adds	r3, r3, #1
 507              	.LVL53:
 508              	.L20:
 148:Lib/lvgl/src/draw/sw/lv_draw_sw_fill.c ****                         if(grad_opa_map[i] < LV_OPA_MAX) mask_buf[i] = (mask_buf[i] * grad_opa_map[
 509              		.loc 1 148 34 discriminator 1 view .LVU173
 510 01ca BB42     		cmp	r3, r7
 511 01cc 0DDA     		bge	.L56
ARM GAS  C:\Users\Alex\AppData\Local\Temp\cc8R0WAy.s 			page 19


 149:Lib/lvgl/src/draw/sw/lv_draw_sw_fill.c ****                     }
 512              		.loc 1 149 25 view .LVU174
 149:Lib/lvgl/src/draw/sw/lv_draw_sw_fill.c ****                     }
 513              		.loc 1 149 40 is_stmt 0 view .LVU175
 514 01ce C15C     		ldrb	r1, [r0, r3]	@ zero_extendqisi2
 149:Lib/lvgl/src/draw/sw/lv_draw_sw_fill.c ****                     }
 515              		.loc 1 149 27 view .LVU176
 516 01d0 FC29     		cmp	r1, #252
 517 01d2 F9D8     		bhi	.L21
 149:Lib/lvgl/src/draw/sw/lv_draw_sw_fill.c ****                     }
 518              		.loc 1 149 58 is_stmt 1 discriminator 1 view .LVU177
 149:Lib/lvgl/src/draw/sw/lv_draw_sw_fill.c ****                     }
 519              		.loc 1 149 81 is_stmt 0 discriminator 1 view .LVU178
 520 01d4 1AF80320 		ldrb	r2, [r10, r3]	@ zero_extendqisi2
 149:Lib/lvgl/src/draw/sw/lv_draw_sw_fill.c ****                     }
 521              		.loc 1 149 85 discriminator 1 view .LVU179
 522 01d8 01FB02F2 		mul	r2, r1, r2
 149:Lib/lvgl/src/draw/sw/lv_draw_sw_fill.c ****                     }
 523              		.loc 1 149 104 discriminator 1 view .LVU180
 524 01dc 1212     		asrs	r2, r2, #8
 149:Lib/lvgl/src/draw/sw/lv_draw_sw_fill.c ****                     }
 525              		.loc 1 149 70 discriminator 1 view .LVU181
 526 01de 0AF80320 		strb	r2, [r10, r3]
 527 01e2 F1E7     		b	.L21
 528              	.LVL54:
 529              	.L47:
 148:Lib/lvgl/src/draw/sw/lv_draw_sw_fill.c ****                         if(grad_opa_map[i] < LV_OPA_MAX) mask_buf[i] = (mask_buf[i] * grad_opa_map[
 530              		.loc 1 148 27 view .LVU182
 531 01e4 0023     		movs	r3, #0
 532 01e6 0498     		ldr	r0, [sp, #16]
 533 01e8 EFE7     		b	.L20
 534              	.LVL55:
 535              	.L56:
 151:Lib/lvgl/src/draw/sw/lv_draw_sw_fill.c ****                 }
 536              		.loc 1 151 21 is_stmt 1 view .LVU183
 151:Lib/lvgl/src/draw/sw/lv_draw_sw_fill.c ****                 }
 537              		.loc 1 151 40 is_stmt 0 view .LVU184
 538 01ea 0223     		movs	r3, #2
 539              	.LVL56:
 151:Lib/lvgl/src/draw/sw/lv_draw_sw_fill.c ****                 }
 540              		.loc 1 151 40 view .LVU185
 541 01ec 8DF87430 		strb	r3, [sp, #116]
 542              	.LBE25:
 145:Lib/lvgl/src/draw/sw/lv_draw_sw_fill.c ****                 if(grad_opa_map) {
 543              		.loc 1 145 36 view .LVU186
 544 01f0 059C     		ldr	r4, [sp, #20]
 545              	.LVL57:
 145:Lib/lvgl/src/draw/sw/lv_draw_sw_fill.c ****                 if(grad_opa_map) {
 546              		.loc 1 145 36 view .LVU187
 547 01f2 50E0     		b	.L19
 548              	.LVL58:
 549              	.L45:
 135:Lib/lvgl/src/draw/sw/lv_draw_sw_fill.c ****         if(top_y >= clipped_coords.y1) {
 550              		.loc 1 135 14 view .LVU188
 551 01f4 0024     		movs	r4, #0
 552              	.LVL59:
 553              	.L17:
ARM GAS  C:\Users\Alex\AppData\Local\Temp\cc8R0WAy.s 			page 20


 157:Lib/lvgl/src/draw/sw/lv_draw_sw_fill.c ****             blend_area.y1 = bottom_y;
 554              		.loc 1 157 9 is_stmt 1 view .LVU189
 157:Lib/lvgl/src/draw/sw/lv_draw_sw_fill.c ****             blend_area.y1 = bottom_y;
 555              		.loc 1 157 38 is_stmt 0 view .LVU190
 556 01f6 259B     		ldr	r3, [sp, #148]
 157:Lib/lvgl/src/draw/sw/lv_draw_sw_fill.c ****             blend_area.y1 = bottom_y;
 557              		.loc 1 157 11 view .LVU191
 558 01f8 AB42     		cmp	r3, r5
 559 01fa 23DB     		blt	.L15
 158:Lib/lvgl/src/draw/sw/lv_draw_sw_fill.c ****             blend_area.y2 = bottom_y;
 560              		.loc 1 158 13 is_stmt 1 view .LVU192
 158:Lib/lvgl/src/draw/sw/lv_draw_sw_fill.c ****             blend_area.y2 = bottom_y;
 561              		.loc 1 158 27 is_stmt 0 view .LVU193
 562 01fc 0895     		str	r5, [sp, #32]
 159:Lib/lvgl/src/draw/sw/lv_draw_sw_fill.c **** 
 563              		.loc 1 159 13 is_stmt 1 view .LVU194
 159:Lib/lvgl/src/draw/sw/lv_draw_sw_fill.c **** 
 564              		.loc 1 159 27 is_stmt 0 view .LVU195
 565 01fe 0A95     		str	r5, [sp, #40]
 161:Lib/lvgl/src/draw/sw/lv_draw_sw_fill.c ****                 blend_dsc.color = grad->color_map[bottom_y - bg_coords.y1];
 566              		.loc 1 161 13 is_stmt 1 view .LVU196
 161:Lib/lvgl/src/draw/sw/lv_draw_sw_fill.c ****                 blend_dsc.color = grad->color_map[bottom_y - bg_coords.y1];
 567              		.loc 1 161 15 is_stmt 0 view .LVU197
 568 0200 B8F1010F 		cmp	r8, #1
 569 0204 08D0     		beq	.L57
 165:Lib/lvgl/src/draw/sw/lv_draw_sw_fill.c ****                 if(grad_opa_map) {
 570              		.loc 1 165 18 is_stmt 1 view .LVU198
 165:Lib/lvgl/src/draw/sw/lv_draw_sw_fill.c ****                 if(grad_opa_map) {
 571              		.loc 1 165 20 is_stmt 0 view .LVU199
 572 0206 CCB9     		cbnz	r4, .L24
 165:Lib/lvgl/src/draw/sw/lv_draw_sw_fill.c ****                 if(grad_opa_map) {
 573              		.loc 1 165 49 discriminator 1 view .LVU200
 574 0208 B8F1020F 		cmp	r8, #2
 575 020c 16D1     		bne	.L24
 166:Lib/lvgl/src/draw/sw/lv_draw_sw_fill.c ****                     int32_t i;
 576              		.loc 1 166 17 is_stmt 1 view .LVU201
 166:Lib/lvgl/src/draw/sw/lv_draw_sw_fill.c ****                     int32_t i;
 577              		.loc 1 166 19 is_stmt 0 view .LVU202
 578 020e 049B     		ldr	r3, [sp, #16]
 579 0210 A3B1     		cbz	r3, .L24
 580              	.LBB26:
 168:Lib/lvgl/src/draw/sw/lv_draw_sw_fill.c ****                         if(grad_opa_map[i] < LV_OPA_MAX) mask_buf[i] = (mask_buf[i] * grad_opa_map[
 581              		.loc 1 168 27 view .LVU203
 582 0212 0023     		movs	r3, #0
 583 0214 0498     		ldr	r0, [sp, #16]
 584 0216 44E0     		b	.L25
 585              	.L57:
 586              	.LBE26:
 162:Lib/lvgl/src/draw/sw/lv_draw_sw_fill.c ****                 blend_dsc.opa = grad->opa_map[bottom_y - bg_coords.y1];
 587              		.loc 1 162 17 is_stmt 1 view .LVU204
 162:Lib/lvgl/src/draw/sw/lv_draw_sw_fill.c ****                 blend_dsc.opa = grad->opa_map[bottom_y - bg_coords.y1];
 588              		.loc 1 162 39 is_stmt 0 view .LVU205
 589 0218 DBF80010 		ldr	r1, [fp]
 162:Lib/lvgl/src/draw/sw/lv_draw_sw_fill.c ****                 blend_dsc.opa = grad->opa_map[bottom_y - bg_coords.y1];
 590              		.loc 1 162 71 view .LVU206
 591 021c 279B     		ldr	r3, [sp, #156]
 162:Lib/lvgl/src/draw/sw/lv_draw_sw_fill.c ****                 blend_dsc.opa = grad->opa_map[bottom_y - bg_coords.y1];
ARM GAS  C:\Users\Alex\AppData\Local\Temp\cc8R0WAy.s 			page 21


 592              		.loc 1 162 60 view .LVU207
 593 021e EB1A     		subs	r3, r5, r3
 162:Lib/lvgl/src/draw/sw/lv_draw_sw_fill.c ****                 blend_dsc.opa = grad->opa_map[bottom_y - bg_coords.y1];
 594              		.loc 1 162 50 view .LVU208
 595 0220 03EB4302 		add	r2, r3, r3, lsl #1
 596 0224 8818     		adds	r0, r1, r2
 162:Lib/lvgl/src/draw/sw/lv_draw_sw_fill.c ****                 blend_dsc.opa = grad->opa_map[bottom_y - bg_coords.y1];
 597              		.loc 1 162 33 view .LVU209
 598 0226 895A     		ldrh	r1, [r1, r2]	@ unaligned
 599 0228 8278     		ldrb	r2, [r0, #2]	@ zero_extendqisi2
 600 022a ADF86D10 		strh	r1, [sp, #109]	@ unaligned
 601 022e 8DF86F20 		strb	r2, [sp, #111]
 163:Lib/lvgl/src/draw/sw/lv_draw_sw_fill.c ****             }
 602              		.loc 1 163 17 is_stmt 1 view .LVU210
 163:Lib/lvgl/src/draw/sw/lv_draw_sw_fill.c ****             }
 603              		.loc 1 163 37 is_stmt 0 view .LVU211
 604 0232 DBF80420 		ldr	r2, [fp, #4]
 163:Lib/lvgl/src/draw/sw/lv_draw_sw_fill.c ****             }
 605              		.loc 1 163 46 view .LVU212
 606 0236 D35C     		ldrb	r3, [r2, r3]	@ zero_extendqisi2
 163:Lib/lvgl/src/draw/sw/lv_draw_sw_fill.c ****             }
 607              		.loc 1 163 31 view .LVU213
 608 0238 8DF86C30 		strb	r3, [sp, #108]
 609              	.L24:
 174:Lib/lvgl/src/draw/sw/lv_draw_sw_fill.c ****         }
 610              		.loc 1 174 13 is_stmt 1 view .LVU214
 611 023c 16A9     		add	r1, sp, #88
 612 023e 0298     		ldr	r0, [sp, #8]
 613 0240 FFF7FEFF 		bl	lv_draw_sw_blend
 614              	.LVL60:
 615              	.L15:
 174:Lib/lvgl/src/draw/sw/lv_draw_sw_fill.c ****         }
 616              		.loc 1 174 13 is_stmt 0 view .LVU215
 617              	.LBE24:
 124:Lib/lvgl/src/draw/sw/lv_draw_sw_fill.c ****         int32_t top_y = bg_coords.y1 + h;
 618              		.loc 1 124 27 is_stmt 1 discriminator 2 view .LVU216
 619 0244 0136     		adds	r6, r6, #1
 620              	.LVL61:
 621              	.L13:
 124:Lib/lvgl/src/draw/sw/lv_draw_sw_fill.c ****         int32_t top_y = bg_coords.y1 + h;
 622              		.loc 1 124 18 discriminator 1 view .LVU217
 623 0246 4E45     		cmp	r6, r9
 624 0248 3CDA     		bge	.L58
 625              	.LBB28:
 125:Lib/lvgl/src/draw/sw/lv_draw_sw_fill.c ****         int32_t bottom_y = bg_coords.y2 - h;
 626              		.loc 1 125 9 view .LVU218
 125:Lib/lvgl/src/draw/sw/lv_draw_sw_fill.c ****         int32_t bottom_y = bg_coords.y2 - h;
 627              		.loc 1 125 34 is_stmt 0 view .LVU219
 628 024a 279C     		ldr	r4, [sp, #156]
 125:Lib/lvgl/src/draw/sw/lv_draw_sw_fill.c ****         int32_t bottom_y = bg_coords.y2 - h;
 629              		.loc 1 125 17 view .LVU220
 630 024c 3444     		add	r4, r4, r6
 631              	.LVL62:
 126:Lib/lvgl/src/draw/sw/lv_draw_sw_fill.c ****         if(top_y < clipped_coords.y1 && bottom_y > clipped_coords.y2) continue;   /*This line is cl
 632              		.loc 1 126 9 is_stmt 1 view .LVU221
 126:Lib/lvgl/src/draw/sw/lv_draw_sw_fill.c ****         if(top_y < clipped_coords.y1 && bottom_y > clipped_coords.y2) continue;   /*This line is cl
 633              		.loc 1 126 37 is_stmt 0 view .LVU222
ARM GAS  C:\Users\Alex\AppData\Local\Temp\cc8R0WAy.s 			page 22


 634 024e 299D     		ldr	r5, [sp, #164]
 126:Lib/lvgl/src/draw/sw/lv_draw_sw_fill.c ****         if(top_y < clipped_coords.y1 && bottom_y > clipped_coords.y2) continue;   /*This line is cl
 635              		.loc 1 126 17 view .LVU223
 636 0250 AD1B     		subs	r5, r5, r6
 637              	.LVL63:
 127:Lib/lvgl/src/draw/sw/lv_draw_sw_fill.c **** 
 638              		.loc 1 127 9 is_stmt 1 view .LVU224
 127:Lib/lvgl/src/draw/sw/lv_draw_sw_fill.c **** 
 639              		.loc 1 127 34 is_stmt 0 view .LVU225
 640 0252 239B     		ldr	r3, [sp, #140]
 127:Lib/lvgl/src/draw/sw/lv_draw_sw_fill.c **** 
 641              		.loc 1 127 11 view .LVU226
 642 0254 A342     		cmp	r3, r4
 643 0256 02DD     		ble	.L14
 127:Lib/lvgl/src/draw/sw/lv_draw_sw_fill.c **** 
 644              		.loc 1 127 66 discriminator 1 view .LVU227
 645 0258 259B     		ldr	r3, [sp, #148]
 127:Lib/lvgl/src/draw/sw/lv_draw_sw_fill.c **** 
 646              		.loc 1 127 38 discriminator 1 view .LVU228
 647 025a AB42     		cmp	r3, r5
 648 025c F2DB     		blt	.L15
 649              	.L14:
 131:Lib/lvgl/src/draw/sw/lv_draw_sw_fill.c ****         blend_dsc.mask_res = lv_draw_sw_mask_apply(mask_list, mask_buf, blend_area.x1, top_y, clipp
 650              		.loc 1 131 9 is_stmt 1 view .LVU229
 651 025e 3A46     		mov	r2, r7
 652 0260 0399     		ldr	r1, [sp, #12]
 653 0262 5046     		mov	r0, r10
 654 0264 FFF7FEFF 		bl	lv_memset
 655              	.LVL64:
 132:Lib/lvgl/src/draw/sw/lv_draw_sw_fill.c ****         if(blend_dsc.mask_res == LV_DRAW_SW_MASK_RES_FULL_COVER) blend_dsc.mask_res = LV_DRAW_SW_MA
 656              		.loc 1 132 9 view .LVU230
 132:Lib/lvgl/src/draw/sw/lv_draw_sw_fill.c ****         if(blend_dsc.mask_res == LV_DRAW_SW_MASK_RES_FULL_COVER) blend_dsc.mask_res = LV_DRAW_SW_MA
 657              		.loc 1 132 30 is_stmt 0 view .LVU231
 658 0268 0097     		str	r7, [sp]
 659 026a 2346     		mov	r3, r4
 660 026c 079A     		ldr	r2, [sp, #28]
 661 026e 5146     		mov	r1, r10
 662 0270 0BA8     		add	r0, sp, #44
 663 0272 FFF7FEFF 		bl	lv_draw_sw_mask_apply
 664              	.LVL65:
 132:Lib/lvgl/src/draw/sw/lv_draw_sw_fill.c ****         if(blend_dsc.mask_res == LV_DRAW_SW_MASK_RES_FULL_COVER) blend_dsc.mask_res = LV_DRAW_SW_MA
 665              		.loc 1 132 28 view .LVU232
 666 0276 8DF87400 		strb	r0, [sp, #116]
 133:Lib/lvgl/src/draw/sw/lv_draw_sw_fill.c **** 
 667              		.loc 1 133 9 is_stmt 1 view .LVU233
 133:Lib/lvgl/src/draw/sw/lv_draw_sw_fill.c **** 
 668              		.loc 1 133 11 is_stmt 0 view .LVU234
 669 027a 0128     		cmp	r0, #1
 670 027c 88D0     		beq	.L59
 671              	.L16:
 135:Lib/lvgl/src/draw/sw/lv_draw_sw_fill.c ****         if(top_y >= clipped_coords.y1) {
 672              		.loc 1 135 9 is_stmt 1 view .LVU235
 673              	.LVL66:
 136:Lib/lvgl/src/draw/sw/lv_draw_sw_fill.c ****             blend_area.y1 = top_y;
 674              		.loc 1 136 9 view .LVU236
 136:Lib/lvgl/src/draw/sw/lv_draw_sw_fill.c ****             blend_area.y1 = top_y;
 675              		.loc 1 136 35 is_stmt 0 view .LVU237
ARM GAS  C:\Users\Alex\AppData\Local\Temp\cc8R0WAy.s 			page 23


 676 027e 239B     		ldr	r3, [sp, #140]
 136:Lib/lvgl/src/draw/sw/lv_draw_sw_fill.c ****             blend_area.y1 = top_y;
 677              		.loc 1 136 11 view .LVU238
 678 0280 A342     		cmp	r3, r4
 679 0282 B7DC     		bgt	.L45
 137:Lib/lvgl/src/draw/sw/lv_draw_sw_fill.c ****             blend_area.y2 = top_y;
 680              		.loc 1 137 13 is_stmt 1 view .LVU239
 137:Lib/lvgl/src/draw/sw/lv_draw_sw_fill.c ****             blend_area.y2 = top_y;
 681              		.loc 1 137 27 is_stmt 0 view .LVU240
 682 0284 0894     		str	r4, [sp, #32]
 138:Lib/lvgl/src/draw/sw/lv_draw_sw_fill.c **** 
 683              		.loc 1 138 13 is_stmt 1 view .LVU241
 138:Lib/lvgl/src/draw/sw/lv_draw_sw_fill.c **** 
 684              		.loc 1 138 27 is_stmt 0 view .LVU242
 685 0286 0A94     		str	r4, [sp, #40]
 140:Lib/lvgl/src/draw/sw/lv_draw_sw_fill.c ****                 blend_dsc.color = grad->color_map[top_y - bg_coords.y1];
 686              		.loc 1 140 13 is_stmt 1 view .LVU243
 140:Lib/lvgl/src/draw/sw/lv_draw_sw_fill.c ****                 blend_dsc.color = grad->color_map[top_y - bg_coords.y1];
 687              		.loc 1 140 15 is_stmt 0 view .LVU244
 688 0288 B8F1010F 		cmp	r8, #1
 689 028c 84D0     		beq	.L60
 144:Lib/lvgl/src/draw/sw/lv_draw_sw_fill.c ****                 hor_grad_processed = true;
 690              		.loc 1 144 18 is_stmt 1 view .LVU245
 144:Lib/lvgl/src/draw/sw/lv_draw_sw_fill.c ****                 hor_grad_processed = true;
 691              		.loc 1 144 20 is_stmt 0 view .LVU246
 692 028e B8F1020F 		cmp	r8, #2
 693 0292 95D0     		beq	.L61
 135:Lib/lvgl/src/draw/sw/lv_draw_sw_fill.c ****         if(top_y >= clipped_coords.y1) {
 694              		.loc 1 135 14 view .LVU247
 695 0294 0024     		movs	r4, #0
 696              	.LVL67:
 697              	.L19:
 154:Lib/lvgl/src/draw/sw/lv_draw_sw_fill.c ****         }
 698              		.loc 1 154 13 is_stmt 1 view .LVU248
 699 0296 16A9     		add	r1, sp, #88
 700 0298 0298     		ldr	r0, [sp, #8]
 701 029a FFF7FEFF 		bl	lv_draw_sw_blend
 702              	.LVL68:
 703 029e AAE7     		b	.L17
 704              	.LVL69:
 705              	.L26:
 706              	.LBB27:
 168:Lib/lvgl/src/draw/sw/lv_draw_sw_fill.c ****                         if(grad_opa_map[i] < LV_OPA_MAX) mask_buf[i] = (mask_buf[i] * grad_opa_map[
 707              		.loc 1 168 48 discriminator 2 view .LVU249
 708 02a0 0133     		adds	r3, r3, #1
 709              	.LVL70:
 710              	.L25:
 168:Lib/lvgl/src/draw/sw/lv_draw_sw_fill.c ****                         if(grad_opa_map[i] < LV_OPA_MAX) mask_buf[i] = (mask_buf[i] * grad_opa_map[
 711              		.loc 1 168 34 discriminator 1 view .LVU250
 712 02a2 BB42     		cmp	r3, r7
 713 02a4 0ADA     		bge	.L62
 169:Lib/lvgl/src/draw/sw/lv_draw_sw_fill.c ****                     }
 714              		.loc 1 169 25 view .LVU251
 169:Lib/lvgl/src/draw/sw/lv_draw_sw_fill.c ****                     }
 715              		.loc 1 169 40 is_stmt 0 view .LVU252
 716 02a6 C15C     		ldrb	r1, [r0, r3]	@ zero_extendqisi2
 169:Lib/lvgl/src/draw/sw/lv_draw_sw_fill.c ****                     }
ARM GAS  C:\Users\Alex\AppData\Local\Temp\cc8R0WAy.s 			page 24


 717              		.loc 1 169 27 view .LVU253
 718 02a8 FC29     		cmp	r1, #252
 719 02aa F9D8     		bhi	.L26
 169:Lib/lvgl/src/draw/sw/lv_draw_sw_fill.c ****                     }
 720              		.loc 1 169 58 is_stmt 1 discriminator 1 view .LVU254
 169:Lib/lvgl/src/draw/sw/lv_draw_sw_fill.c ****                     }
 721              		.loc 1 169 81 is_stmt 0 discriminator 1 view .LVU255
 722 02ac 1AF80320 		ldrb	r2, [r10, r3]	@ zero_extendqisi2
 169:Lib/lvgl/src/draw/sw/lv_draw_sw_fill.c ****                     }
 723              		.loc 1 169 85 discriminator 1 view .LVU256
 724 02b0 01FB02F2 		mul	r2, r1, r2
 169:Lib/lvgl/src/draw/sw/lv_draw_sw_fill.c ****                     }
 725              		.loc 1 169 104 discriminator 1 view .LVU257
 726 02b4 1212     		asrs	r2, r2, #8
 169:Lib/lvgl/src/draw/sw/lv_draw_sw_fill.c ****                     }
 727              		.loc 1 169 70 discriminator 1 view .LVU258
 728 02b6 0AF80320 		strb	r2, [r10, r3]
 729 02ba F1E7     		b	.L26
 730              	.L62:
 171:Lib/lvgl/src/draw/sw/lv_draw_sw_fill.c ****                 }
 731              		.loc 1 171 21 is_stmt 1 view .LVU259
 171:Lib/lvgl/src/draw/sw/lv_draw_sw_fill.c ****                 }
 732              		.loc 1 171 40 is_stmt 0 view .LVU260
 733 02bc 0223     		movs	r3, #2
 734              	.LVL71:
 171:Lib/lvgl/src/draw/sw/lv_draw_sw_fill.c ****                 }
 735              		.loc 1 171 40 view .LVU261
 736 02be 8DF87430 		strb	r3, [sp, #116]
 737 02c2 BBE7     		b	.L24
 738              	.LVL72:
 739              	.L58:
 171:Lib/lvgl/src/draw/sw/lv_draw_sw_fill.c ****                 }
 740              		.loc 1 171 40 view .LVU262
 741              	.LBE27:
 742              	.LBE28:
 181:Lib/lvgl/src/draw/sw/lv_draw_sw_fill.c ****         blend_area.y1 = bg_coords.y1 + rout;
 743              		.loc 1 181 7 view .LVU263
 744 02c4 4F46     		mov	r7, r9
 745              	.LVL73:
 181:Lib/lvgl/src/draw/sw/lv_draw_sw_fill.c ****         blend_area.y1 = bg_coords.y1 + rout;
 746              		.loc 1 181 5 is_stmt 1 view .LVU264
 181:Lib/lvgl/src/draw/sw/lv_draw_sw_fill.c ****         blend_area.y1 = bg_coords.y1 + rout;
 747              		.loc 1 181 7 is_stmt 0 view .LVU265
 748 02c6 B8F1000F 		cmp	r8, #0
 749 02ca 0FD0     		beq	.L63
 750              	.LVL74:
 751              	.LBB29:
 190:Lib/lvgl/src/draw/sw/lv_draw_sw_fill.c ****         if(grad_dir == LV_GRAD_DIR_VER) {
 752              		.loc 1 190 9 is_stmt 1 view .LVU266
 190:Lib/lvgl/src/draw/sw/lv_draw_sw_fill.c ****         if(grad_dir == LV_GRAD_DIR_VER) {
 753              		.loc 1 190 23 is_stmt 0 view .LVU267
 754 02cc 039B     		ldr	r3, [sp, #12]
 755 02ce 8DF86C30 		strb	r3, [sp, #108]
 191:Lib/lvgl/src/draw/sw/lv_draw_sw_fill.c ****             blend_dsc.mask_res = LV_DRAW_SW_MASK_RES_FULL_COVER;
 756              		.loc 1 191 9 is_stmt 1 view .LVU268
 191:Lib/lvgl/src/draw/sw/lv_draw_sw_fill.c ****             blend_dsc.mask_res = LV_DRAW_SW_MASK_RES_FULL_COVER;
 757              		.loc 1 191 11 is_stmt 0 view .LVU269
ARM GAS  C:\Users\Alex\AppData\Local\Temp\cc8R0WAy.s 			page 25


 758 02d2 B8F1010F 		cmp	r8, #1
 759 02d6 29D0     		beq	.L64
 194:Lib/lvgl/src/draw/sw/lv_draw_sw_fill.c ****             blend_dsc.mask_res = LV_DRAW_SW_MASK_RES_CHANGED;
 760              		.loc 1 194 14 is_stmt 1 view .LVU270
 194:Lib/lvgl/src/draw/sw/lv_draw_sw_fill.c ****             blend_dsc.mask_res = LV_DRAW_SW_MASK_RES_CHANGED;
 761              		.loc 1 194 16 is_stmt 0 view .LVU271
 762 02d8 B8F1020F 		cmp	r8, #2
 763 02dc 2AD0     		beq	.L65
 764              	.L32:
 199:Lib/lvgl/src/draw/sw/lv_draw_sw_fill.c ****         for(h = bg_coords.y1 + rout; h <= h_end; h++) {
 765              		.loc 1 199 9 is_stmt 1 view .LVU272
 199:Lib/lvgl/src/draw/sw/lv_draw_sw_fill.c ****         for(h = bg_coords.y1 + rout; h <= h_end; h++) {
 766              		.loc 1 199 34 is_stmt 0 view .LVU273
 767 02de 299D     		ldr	r5, [sp, #164]
 199:Lib/lvgl/src/draw/sw/lv_draw_sw_fill.c ****         for(h = bg_coords.y1 + rout; h <= h_end; h++) {
 768              		.loc 1 199 17 view .LVU274
 769 02e0 ED1B     		subs	r5, r5, r7
 770              	.LVL75:
 200:Lib/lvgl/src/draw/sw/lv_draw_sw_fill.c ****             blend_area.y1 = h;
 771              		.loc 1 200 9 is_stmt 1 view .LVU275
 200:Lib/lvgl/src/draw/sw/lv_draw_sw_fill.c ****             blend_area.y1 = h;
 772              		.loc 1 200 26 is_stmt 0 view .LVU276
 773 02e2 279C     		ldr	r4, [sp, #156]
 200:Lib/lvgl/src/draw/sw/lv_draw_sw_fill.c ****             blend_area.y1 = h;
 774              		.loc 1 200 15 view .LVU277
 775 02e4 3C44     		add	r4, r4, r7
 776              	.LVL76:
 200:Lib/lvgl/src/draw/sw/lv_draw_sw_fill.c ****             blend_area.y1 = h;
 777              		.loc 1 200 15 view .LVU278
 778 02e6 039F     		ldr	r7, [sp, #12]
 779              	.LVL77:
 200:Lib/lvgl/src/draw/sw/lv_draw_sw_fill.c ****             blend_area.y1 = h;
 780              		.loc 1 200 15 view .LVU279
 781 02e8 029E     		ldr	r6, [sp, #8]
 200:Lib/lvgl/src/draw/sw/lv_draw_sw_fill.c ****             blend_area.y1 = h;
 782              		.loc 1 200 9 view .LVU280
 783 02ea 36E0     		b	.L33
 784              	.LVL78:
 785              	.L63:
 200:Lib/lvgl/src/draw/sw/lv_draw_sw_fill.c ****             blend_area.y1 = h;
 786              		.loc 1 200 9 view .LVU281
 787              	.LBE29:
 182:Lib/lvgl/src/draw/sw/lv_draw_sw_fill.c ****         blend_area.y2 = bg_coords.y2 - rout;
 788              		.loc 1 182 9 is_stmt 1 view .LVU282
 182:Lib/lvgl/src/draw/sw/lv_draw_sw_fill.c ****         blend_area.y2 = bg_coords.y2 - rout;
 789              		.loc 1 182 34 is_stmt 0 view .LVU283
 790 02ec 279B     		ldr	r3, [sp, #156]
 182:Lib/lvgl/src/draw/sw/lv_draw_sw_fill.c ****         blend_area.y2 = bg_coords.y2 - rout;
 791              		.loc 1 182 38 view .LVU284
 792 02ee 4B44     		add	r3, r3, r9
 182:Lib/lvgl/src/draw/sw/lv_draw_sw_fill.c ****         blend_area.y2 = bg_coords.y2 - rout;
 793              		.loc 1 182 23 view .LVU285
 794 02f0 0893     		str	r3, [sp, #32]
 183:Lib/lvgl/src/draw/sw/lv_draw_sw_fill.c ****         blend_dsc.opa = opa;
 795              		.loc 1 183 9 is_stmt 1 view .LVU286
 183:Lib/lvgl/src/draw/sw/lv_draw_sw_fill.c ****         blend_dsc.opa = opa;
 796              		.loc 1 183 34 is_stmt 0 view .LVU287
ARM GAS  C:\Users\Alex\AppData\Local\Temp\cc8R0WAy.s 			page 26


 797 02f2 299B     		ldr	r3, [sp, #164]
 183:Lib/lvgl/src/draw/sw/lv_draw_sw_fill.c ****         blend_dsc.opa = opa;
 798              		.loc 1 183 38 view .LVU288
 799 02f4 DB1B     		subs	r3, r3, r7
 183:Lib/lvgl/src/draw/sw/lv_draw_sw_fill.c ****         blend_dsc.opa = opa;
 800              		.loc 1 183 23 view .LVU289
 801 02f6 0A93     		str	r3, [sp, #40]
 184:Lib/lvgl/src/draw/sw/lv_draw_sw_fill.c ****         blend_dsc.mask_buf = NULL;
 802              		.loc 1 184 9 is_stmt 1 view .LVU290
 184:Lib/lvgl/src/draw/sw/lv_draw_sw_fill.c ****         blend_dsc.mask_buf = NULL;
 803              		.loc 1 184 23 is_stmt 0 view .LVU291
 804 02f8 039B     		ldr	r3, [sp, #12]
 805 02fa 8DF86C30 		strb	r3, [sp, #108]
 185:Lib/lvgl/src/draw/sw/lv_draw_sw_fill.c ****         lv_draw_sw_blend(draw_unit, &blend_dsc);
 806              		.loc 1 185 9 is_stmt 1 view .LVU292
 185:Lib/lvgl/src/draw/sw/lv_draw_sw_fill.c ****         lv_draw_sw_blend(draw_unit, &blend_dsc);
 807              		.loc 1 185 28 is_stmt 0 view .LVU293
 808 02fe 0023     		movs	r3, #0
 809 0300 1C93     		str	r3, [sp, #112]
 186:Lib/lvgl/src/draw/sw/lv_draw_sw_fill.c ****     }
 810              		.loc 1 186 9 is_stmt 1 view .LVU294
 811 0302 16A9     		add	r1, sp, #88
 812 0304 0298     		ldr	r0, [sp, #8]
 813 0306 FFF7FEFF 		bl	lv_draw_sw_blend
 814              	.LVL79:
 815              	.L30:
 213:Lib/lvgl/src/draw/sw/lv_draw_sw_fill.c ****         lv_free(mask_buf);
 816              		.loc 1 213 5 view .LVU295
 213:Lib/lvgl/src/draw/sw/lv_draw_sw_fill.c ****         lv_free(mask_buf);
 817              		.loc 1 213 7 is_stmt 0 view .LVU296
 818 030a BAF1000F 		cmp	r10, #0
 819 030e 05D0     		beq	.L37
 214:Lib/lvgl/src/draw/sw/lv_draw_sw_fill.c ****         lv_draw_sw_mask_free_param(&mask_rout_param);
 820              		.loc 1 214 9 is_stmt 1 view .LVU297
 821 0310 5046     		mov	r0, r10
 822 0312 FFF7FEFF 		bl	lv_free
 823              	.LVL80:
 215:Lib/lvgl/src/draw/sw/lv_draw_sw_fill.c ****     }
 824              		.loc 1 215 9 view .LVU298
 825 0316 0DA8     		add	r0, sp, #52
 826 0318 FFF7FEFF 		bl	lv_draw_sw_mask_free_param
 827              	.LVL81:
 828              	.L37:
 217:Lib/lvgl/src/draw/sw/lv_draw_sw_fill.c ****         lv_gradient_cleanup(grad);
 829              		.loc 1 217 5 view .LVU299
 217:Lib/lvgl/src/draw/sw/lv_draw_sw_fill.c ****         lv_gradient_cleanup(grad);
 830              		.loc 1 217 7 is_stmt 0 view .LVU300
 831 031c BBF1000F 		cmp	fp, #0
 832 0320 3FF476AE 		beq	.L1
 218:Lib/lvgl/src/draw/sw/lv_draw_sw_fill.c ****     }
 833              		.loc 1 218 9 is_stmt 1 view .LVU301
 834 0324 5846     		mov	r0, fp
 835 0326 FFF7FEFF 		bl	lv_gradient_cleanup
 836              	.LVL82:
 837 032a 71E6     		b	.L1
 838              	.LVL83:
 839              	.L64:
ARM GAS  C:\Users\Alex\AppData\Local\Temp\cc8R0WAy.s 			page 27


 840              	.LBB30:
 192:Lib/lvgl/src/draw/sw/lv_draw_sw_fill.c ****         }
 841              		.loc 1 192 13 view .LVU302
 192:Lib/lvgl/src/draw/sw/lv_draw_sw_fill.c ****         }
 842              		.loc 1 192 32 is_stmt 0 view .LVU303
 843 032c 0123     		movs	r3, #1
 844 032e 8DF87430 		strb	r3, [sp, #116]
 845 0332 D4E7     		b	.L32
 846              	.L65:
 195:Lib/lvgl/src/draw/sw/lv_draw_sw_fill.c ****             blend_dsc.mask_buf = grad_opa_map;
 847              		.loc 1 195 13 is_stmt 1 view .LVU304
 195:Lib/lvgl/src/draw/sw/lv_draw_sw_fill.c ****             blend_dsc.mask_buf = grad_opa_map;
 848              		.loc 1 195 32 is_stmt 0 view .LVU305
 849 0334 0223     		movs	r3, #2
 850 0336 8DF87430 		strb	r3, [sp, #116]
 196:Lib/lvgl/src/draw/sw/lv_draw_sw_fill.c ****         }
 851              		.loc 1 196 13 is_stmt 1 view .LVU306
 196:Lib/lvgl/src/draw/sw/lv_draw_sw_fill.c ****         }
 852              		.loc 1 196 32 is_stmt 0 view .LVU307
 853 033a 049B     		ldr	r3, [sp, #16]
 854 033c 1C93     		str	r3, [sp, #112]
 855 033e CEE7     		b	.L32
 856              	.LVL84:
 857              	.L35:
 207:Lib/lvgl/src/draw/sw/lv_draw_sw_fill.c ****             }
 858              		.loc 1 207 22 is_stmt 1 view .LVU308
 207:Lib/lvgl/src/draw/sw/lv_draw_sw_fill.c ****             }
 859              		.loc 1 207 38 is_stmt 0 view .LVU309
 860 0340 DBF80420 		ldr	r2, [fp, #4]
 861 0344 D35C     		ldrb	r3, [r2, r3]	@ zero_extendqisi2
 862 0346 07FB03F3 		mul	r3, r7, r3
 863 034a 1B12     		asrs	r3, r3, #8
 207:Lib/lvgl/src/draw/sw/lv_draw_sw_fill.c ****             }
 864              		.loc 1 207 36 view .LVU310
 865 034c 8DF86C30 		strb	r3, [sp, #108]
 866              	.L34:
 209:Lib/lvgl/src/draw/sw/lv_draw_sw_fill.c ****         }
 867              		.loc 1 209 13 is_stmt 1 discriminator 2 view .LVU311
 868 0350 16A9     		add	r1, sp, #88
 869 0352 3046     		mov	r0, r6
 870 0354 FFF7FEFF 		bl	lv_draw_sw_blend
 871              	.LVL85:
 200:Lib/lvgl/src/draw/sw/lv_draw_sw_fill.c ****             blend_area.y1 = h;
 872              		.loc 1 200 51 discriminator 2 view .LVU312
 873 0358 0134     		adds	r4, r4, #1
 874              	.LVL86:
 875              	.L33:
 200:Lib/lvgl/src/draw/sw/lv_draw_sw_fill.c ****             blend_area.y1 = h;
 876              		.loc 1 200 40 discriminator 1 view .LVU313
 877 035a AC42     		cmp	r4, r5
 878 035c D5DC     		bgt	.L30
 201:Lib/lvgl/src/draw/sw/lv_draw_sw_fill.c ****             blend_area.y2 = h;
 879              		.loc 1 201 13 view .LVU314
 201:Lib/lvgl/src/draw/sw/lv_draw_sw_fill.c ****             blend_area.y2 = h;
 880              		.loc 1 201 27 is_stmt 0 view .LVU315
 881 035e 0894     		str	r4, [sp, #32]
 202:Lib/lvgl/src/draw/sw/lv_draw_sw_fill.c **** 
ARM GAS  C:\Users\Alex\AppData\Local\Temp\cc8R0WAy.s 			page 28


 882              		.loc 1 202 13 is_stmt 1 view .LVU316
 202:Lib/lvgl/src/draw/sw/lv_draw_sw_fill.c **** 
 883              		.loc 1 202 27 is_stmt 0 view .LVU317
 884 0360 0A94     		str	r4, [sp, #40]
 204:Lib/lvgl/src/draw/sw/lv_draw_sw_fill.c ****                 blend_dsc.color = grad->color_map[h - bg_coords.y1];
 885              		.loc 1 204 13 is_stmt 1 view .LVU318
 204:Lib/lvgl/src/draw/sw/lv_draw_sw_fill.c ****                 blend_dsc.color = grad->color_map[h - bg_coords.y1];
 886              		.loc 1 204 15 is_stmt 0 view .LVU319
 887 0362 B8F1010F 		cmp	r8, #1
 888 0366 F3D1     		bne	.L34
 205:Lib/lvgl/src/draw/sw/lv_draw_sw_fill.c ****                 if(opa >= LV_OPA_MAX) blend_dsc.opa = grad->opa_map[h - bg_coords.y1];
 889              		.loc 1 205 17 is_stmt 1 view .LVU320
 205:Lib/lvgl/src/draw/sw/lv_draw_sw_fill.c ****                 if(opa >= LV_OPA_MAX) blend_dsc.opa = grad->opa_map[h - bg_coords.y1];
 890              		.loc 1 205 39 is_stmt 0 view .LVU321
 891 0368 DBF80010 		ldr	r1, [fp]
 205:Lib/lvgl/src/draw/sw/lv_draw_sw_fill.c ****                 if(opa >= LV_OPA_MAX) blend_dsc.opa = grad->opa_map[h - bg_coords.y1];
 892              		.loc 1 205 64 view .LVU322
 893 036c 279B     		ldr	r3, [sp, #156]
 205:Lib/lvgl/src/draw/sw/lv_draw_sw_fill.c ****                 if(opa >= LV_OPA_MAX) blend_dsc.opa = grad->opa_map[h - bg_coords.y1];
 894              		.loc 1 205 53 view .LVU323
 895 036e E31A     		subs	r3, r4, r3
 205:Lib/lvgl/src/draw/sw/lv_draw_sw_fill.c ****                 if(opa >= LV_OPA_MAX) blend_dsc.opa = grad->opa_map[h - bg_coords.y1];
 896              		.loc 1 205 50 view .LVU324
 897 0370 03EB4302 		add	r2, r3, r3, lsl #1
 898 0374 8818     		adds	r0, r1, r2
 205:Lib/lvgl/src/draw/sw/lv_draw_sw_fill.c ****                 if(opa >= LV_OPA_MAX) blend_dsc.opa = grad->opa_map[h - bg_coords.y1];
 899              		.loc 1 205 33 view .LVU325
 900 0376 895A     		ldrh	r1, [r1, r2]	@ unaligned
 901 0378 8278     		ldrb	r2, [r0, #2]	@ zero_extendqisi2
 902 037a ADF86D10 		strh	r1, [sp, #109]	@ unaligned
 903 037e 8DF86F20 		strb	r2, [sp, #111]
 206:Lib/lvgl/src/draw/sw/lv_draw_sw_fill.c ****                 else blend_dsc.opa = LV_OPA_MIX2(grad->opa_map[h - bg_coords.y1], opa);
 904              		.loc 1 206 17 is_stmt 1 view .LVU326
 206:Lib/lvgl/src/draw/sw/lv_draw_sw_fill.c ****                 else blend_dsc.opa = LV_OPA_MIX2(grad->opa_map[h - bg_coords.y1], opa);
 905              		.loc 1 206 19 is_stmt 0 view .LVU327
 906 0382 FC2F     		cmp	r7, #252
 907 0384 DCD9     		bls	.L35
 206:Lib/lvgl/src/draw/sw/lv_draw_sw_fill.c ****                 else blend_dsc.opa = LV_OPA_MIX2(grad->opa_map[h - bg_coords.y1], opa);
 908              		.loc 1 206 39 is_stmt 1 discriminator 1 view .LVU328
 206:Lib/lvgl/src/draw/sw/lv_draw_sw_fill.c ****                 else blend_dsc.opa = LV_OPA_MIX2(grad->opa_map[h - bg_coords.y1], opa);
 909              		.loc 1 206 59 is_stmt 0 discriminator 1 view .LVU329
 910 0386 DBF80420 		ldr	r2, [fp, #4]
 206:Lib/lvgl/src/draw/sw/lv_draw_sw_fill.c ****                 else blend_dsc.opa = LV_OPA_MIX2(grad->opa_map[h - bg_coords.y1], opa);
 911              		.loc 1 206 68 discriminator 1 view .LVU330
 912 038a D35C     		ldrb	r3, [r2, r3]	@ zero_extendqisi2
 206:Lib/lvgl/src/draw/sw/lv_draw_sw_fill.c ****                 else blend_dsc.opa = LV_OPA_MIX2(grad->opa_map[h - bg_coords.y1], opa);
 913              		.loc 1 206 53 discriminator 1 view .LVU331
 914 038c 8DF86C30 		strb	r3, [sp, #108]
 915 0390 DEE7     		b	.L34
 916              	.LBE30:
 917              		.cfi_endproc
 918              	.LFE233:
 920              		.text
 921              	.Letext0:
 922              		.file 3 "e:\\programms\\gnu_mcu_eclipse\\toolchain\\arm-gnu-toolchain-12.2.mpacbti-bet1-mingw-w64-
 923              		.file 4 "e:\\programms\\gnu_mcu_eclipse\\toolchain\\arm-gnu-toolchain-12.2.mpacbti-bet1-mingw-w64-
 924              		.file 5 "Lib/lvgl/src/draw/sw/../../misc/lv_types.h"
ARM GAS  C:\Users\Alex\AppData\Local\Temp\cc8R0WAy.s 			page 29


 925              		.file 6 "Lib/lvgl/src/draw/sw/../../core/lv_obj.h"
 926              		.file 7 "Lib/lvgl/src/draw/sw/../../core/lv_obj_class.h"
 927              		.file 8 "Lib/lvgl/src/draw/sw/../../core/../indev/../core/lv_group.h"
 928              		.file 9 "Lib/lvgl/src/draw/sw/../lv_draw.h"
 929              		.file 10 "Lib/lvgl/src/draw/sw/../../display/../misc/lv_event.h"
 930              		.file 11 "e:\\programms\\gnu_mcu_eclipse\\toolchain\\arm-gnu-toolchain-12.2.mpacbti-bet1-mingw-w64
 931              		.file 12 "Lib/lvgl/src/draw/sw/../../misc/../font/../draw/../misc/lv_color.h"
 932              		.file 13 "Lib/lvgl/src/draw/sw/../../misc/../font/../draw/lv_image_buf.h"
 933              		.file 14 "Lib/lvgl/src/draw/sw/../../misc/../font/../draw/lv_draw_buf.h"
 934              		.file 15 "Lib/lvgl/src/draw/sw/../../misc/lv_ll.h"
 935              		.file 16 "Lib/lvgl/src/draw/sw/../../misc/lv_style.h"
 936              		.file 17 "Lib/lvgl/src/draw/sw/../sw/lv_draw_sw_gradient.h"
 937              		.file 18 "Lib/lvgl/src/draw/sw/../lv_draw_rect.h"
 938              		.file 19 "Lib/lvgl/src/draw/sw/../../display/../misc/lv_array.h"
 939              		.file 20 "Lib/lvgl/src/draw/sw/blend/../lv_draw_sw_mask.h"
 940              		.file 21 "Lib/lvgl/src/draw/sw/blend/lv_draw_sw_blend.h"
 941              		.file 22 "Lib/lvgl/src/draw/sw/../../core/lv_obj_style.h"
 942              		.file 23 "c:\\users\\alex\\eclipse-workspace\\lvgs_test\\lib\\lvgl\\src\\stdlib\\lv_mem.h"
 943              		.file 24 "Lib/lvgl/src/draw/sw/../../misc/../font/../draw/../stdlib/lv_string.h"
 944              		.file 25 "<built-in>"
ARM GAS  C:\Users\Alex\AppData\Local\Temp\cc8R0WAy.s 			page 30

