ARM GAS  C:\Users\Alex\AppData\Local\Temp\cc0G22cc.s 			page 1


   1              		.cpu cortex-m4
   2              		.arch armv7e-m
   3              		.fpu fpv4-sp-d16
   4              		.eabi_attribute 27, 1
   5              		.eabi_attribute 28, 1
   6              		.eabi_attribute 20, 1
   7              		.eabi_attribute 21, 1
   8              		.eabi_attribute 23, 3
   9              		.eabi_attribute 24, 1
  10              		.eabi_attribute 25, 1
  11              		.eabi_attribute 26, 1
  12              		.eabi_attribute 30, 1
  13              		.eabi_attribute 34, 1
  14              		.eabi_attribute 18, 4
  15              		.file	"lv_display.c"
  16              		.text
  17              	.Ltext0:
  18              		.cfi_sections	.debug_frame
  19              		.file 1 "Lib/lvgl/src/display/lv_display.c"
  20              		.section	.text.is_out_anim,"ax",%progbits
  21              		.align	1
  22              		.syntax unified
  23              		.thumb
  24              		.thumb_func
  26              	is_out_anim:
  27              	.LVL0:
  28              	.LFB297:
   1:Lib/lvgl/src/display/lv_display.c **** /**
   2:Lib/lvgl/src/display/lv_display.c ****  * @file lv_disp.c
   3:Lib/lvgl/src/display/lv_display.c ****  *
   4:Lib/lvgl/src/display/lv_display.c ****  */
   5:Lib/lvgl/src/display/lv_display.c **** 
   6:Lib/lvgl/src/display/lv_display.c **** /*********************
   7:Lib/lvgl/src/display/lv_display.c ****  *      INCLUDES
   8:Lib/lvgl/src/display/lv_display.c ****  *********************/
   9:Lib/lvgl/src/display/lv_display.c **** #include "lv_display.h"
  10:Lib/lvgl/src/display/lv_display.c **** #include "../misc/lv_math.h"
  11:Lib/lvgl/src/display/lv_display.c **** #include "../core/lv_refr.h"
  12:Lib/lvgl/src/display/lv_display.c **** #include "../display/lv_display_private.h"
  13:Lib/lvgl/src/display/lv_display.c **** #include "../stdlib/lv_string.h"
  14:Lib/lvgl/src/display/lv_display.c **** #include "../themes/lv_theme.h"
  15:Lib/lvgl/src/display/lv_display.c **** #include "../core/lv_global.h"
  16:Lib/lvgl/src/display/lv_display.c **** 
  17:Lib/lvgl/src/display/lv_display.c **** #if LV_USE_DRAW_SW
  18:Lib/lvgl/src/display/lv_display.c ****     #include "../draw/sw/lv_draw_sw.h"
  19:Lib/lvgl/src/display/lv_display.c **** #endif
  20:Lib/lvgl/src/display/lv_display.c **** 
  21:Lib/lvgl/src/display/lv_display.c **** /*********************
  22:Lib/lvgl/src/display/lv_display.c ****  *      DEFINES
  23:Lib/lvgl/src/display/lv_display.c ****  *********************/
  24:Lib/lvgl/src/display/lv_display.c **** #define disp_def LV_GLOBAL_DEFAULT()->disp_default
  25:Lib/lvgl/src/display/lv_display.c **** #define disp_ll_p &(LV_GLOBAL_DEFAULT()->disp_ll)
  26:Lib/lvgl/src/display/lv_display.c **** 
  27:Lib/lvgl/src/display/lv_display.c **** /**********************
  28:Lib/lvgl/src/display/lv_display.c ****  *      TYPEDEFS
  29:Lib/lvgl/src/display/lv_display.c ****  **********************/
  30:Lib/lvgl/src/display/lv_display.c **** 
ARM GAS  C:\Users\Alex\AppData\Local\Temp\cc0G22cc.s 			page 2


  31:Lib/lvgl/src/display/lv_display.c **** /**********************
  32:Lib/lvgl/src/display/lv_display.c ****  *  STATIC PROTOTYPES
  33:Lib/lvgl/src/display/lv_display.c ****  **********************/
  34:Lib/lvgl/src/display/lv_display.c **** static lv_obj_tree_walk_res_t invalidate_layout_cb(lv_obj_t * obj, void * user_data);
  35:Lib/lvgl/src/display/lv_display.c **** static void update_resolution(lv_display_t * disp);
  36:Lib/lvgl/src/display/lv_display.c **** static void scr_load_internal(lv_obj_t * scr);
  37:Lib/lvgl/src/display/lv_display.c **** static void scr_load_anim_start(lv_anim_t * a);
  38:Lib/lvgl/src/display/lv_display.c **** static void opa_scale_anim(void * obj, int32_t v);
  39:Lib/lvgl/src/display/lv_display.c **** static void set_x_anim(void * obj, int32_t v);
  40:Lib/lvgl/src/display/lv_display.c **** static void set_y_anim(void * obj, int32_t v);
  41:Lib/lvgl/src/display/lv_display.c **** static void scr_anim_completed(lv_anim_t * a);
  42:Lib/lvgl/src/display/lv_display.c **** static bool is_out_anim(lv_screen_load_anim_t a);
  43:Lib/lvgl/src/display/lv_display.c **** static void disp_event_cb(lv_event_t * e);
  44:Lib/lvgl/src/display/lv_display.c **** 
  45:Lib/lvgl/src/display/lv_display.c **** /**********************
  46:Lib/lvgl/src/display/lv_display.c ****  *  STATIC VARIABLES
  47:Lib/lvgl/src/display/lv_display.c ****  **********************/
  48:Lib/lvgl/src/display/lv_display.c **** 
  49:Lib/lvgl/src/display/lv_display.c **** /**********************
  50:Lib/lvgl/src/display/lv_display.c ****  *      MACROS
  51:Lib/lvgl/src/display/lv_display.c ****  **********************/
  52:Lib/lvgl/src/display/lv_display.c **** 
  53:Lib/lvgl/src/display/lv_display.c **** /**********************
  54:Lib/lvgl/src/display/lv_display.c ****  *   GLOBAL FUNCTIONS
  55:Lib/lvgl/src/display/lv_display.c ****  **********************/
  56:Lib/lvgl/src/display/lv_display.c **** 
  57:Lib/lvgl/src/display/lv_display.c **** lv_display_t * lv_display_create(int32_t hor_res, int32_t ver_res)
  58:Lib/lvgl/src/display/lv_display.c **** {
  59:Lib/lvgl/src/display/lv_display.c ****     lv_display_t * disp = _lv_ll_ins_head(disp_ll_p);
  60:Lib/lvgl/src/display/lv_display.c ****     LV_ASSERT_MALLOC(disp);
  61:Lib/lvgl/src/display/lv_display.c ****     if(!disp) return NULL;
  62:Lib/lvgl/src/display/lv_display.c **** 
  63:Lib/lvgl/src/display/lv_display.c ****     lv_memzero(disp, sizeof(lv_display_t));
  64:Lib/lvgl/src/display/lv_display.c **** 
  65:Lib/lvgl/src/display/lv_display.c ****     disp->hor_res          = hor_res;
  66:Lib/lvgl/src/display/lv_display.c ****     disp->ver_res          = ver_res;
  67:Lib/lvgl/src/display/lv_display.c ****     disp->physical_hor_res = -1;
  68:Lib/lvgl/src/display/lv_display.c ****     disp->physical_ver_res = -1;
  69:Lib/lvgl/src/display/lv_display.c ****     disp->offset_x         = 0;
  70:Lib/lvgl/src/display/lv_display.c ****     disp->offset_y         = 0;
  71:Lib/lvgl/src/display/lv_display.c ****     disp->antialiasing     = LV_COLOR_DEPTH > 8 ? 1 : 0;
  72:Lib/lvgl/src/display/lv_display.c ****     disp->dpi              = LV_DPI_DEF;
  73:Lib/lvgl/src/display/lv_display.c ****     disp->color_format = LV_COLOR_FORMAT_NATIVE;
  74:Lib/lvgl/src/display/lv_display.c **** 
  75:Lib/lvgl/src/display/lv_display.c ****     disp->layer_head = lv_malloc_zeroed(sizeof(lv_layer_t));
  76:Lib/lvgl/src/display/lv_display.c ****     LV_ASSERT_MALLOC(disp->layer_head);
  77:Lib/lvgl/src/display/lv_display.c ****     if(disp->layer_head == NULL) return NULL;
  78:Lib/lvgl/src/display/lv_display.c **** 
  79:Lib/lvgl/src/display/lv_display.c ****     if(disp->layer_init) disp->layer_init(disp, disp->layer_head);
  80:Lib/lvgl/src/display/lv_display.c ****     disp->layer_head->buf_area.x1 = 0;
  81:Lib/lvgl/src/display/lv_display.c ****     disp->layer_head->buf_area.y1 = 0;
  82:Lib/lvgl/src/display/lv_display.c ****     disp->layer_head->buf_area.x2 = hor_res - 1;
  83:Lib/lvgl/src/display/lv_display.c ****     disp->layer_head->buf_area.y2 = ver_res - 1;
  84:Lib/lvgl/src/display/lv_display.c ****     disp->layer_head->color_format = disp->color_format;
  85:Lib/lvgl/src/display/lv_display.c **** 
  86:Lib/lvgl/src/display/lv_display.c ****     disp->inv_en_cnt = 1;
  87:Lib/lvgl/src/display/lv_display.c **** 
ARM GAS  C:\Users\Alex\AppData\Local\Temp\cc0G22cc.s 			page 3


  88:Lib/lvgl/src/display/lv_display.c ****     _lv_ll_init(&disp->sync_areas, sizeof(lv_area_t));
  89:Lib/lvgl/src/display/lv_display.c **** 
  90:Lib/lvgl/src/display/lv_display.c ****     lv_display_t * disp_def_tmp = disp_def;
  91:Lib/lvgl/src/display/lv_display.c ****     disp_def                 = disp; /*Temporarily change the default screen to create the default 
  92:Lib/lvgl/src/display/lv_display.c ****                                         new display*/
  93:Lib/lvgl/src/display/lv_display.c ****     /*Create a refresh timer*/
  94:Lib/lvgl/src/display/lv_display.c ****     disp->refr_timer = lv_timer_create(_lv_display_refr_timer, LV_DEF_REFR_PERIOD, disp);
  95:Lib/lvgl/src/display/lv_display.c ****     LV_ASSERT_MALLOC(disp->refr_timer);
  96:Lib/lvgl/src/display/lv_display.c ****     if(disp->refr_timer == NULL) {
  97:Lib/lvgl/src/display/lv_display.c ****         lv_free(disp);
  98:Lib/lvgl/src/display/lv_display.c ****         return NULL;
  99:Lib/lvgl/src/display/lv_display.c ****     }
 100:Lib/lvgl/src/display/lv_display.c **** 
 101:Lib/lvgl/src/display/lv_display.c **** #if LV_USE_THEME_DEFAULT
 102:Lib/lvgl/src/display/lv_display.c ****     if(lv_theme_default_is_inited() == false) {
 103:Lib/lvgl/src/display/lv_display.c ****         disp->theme = lv_theme_default_init(disp, lv_palette_main(LV_PALETTE_BLUE), lv_palette_main
 104:Lib/lvgl/src/display/lv_display.c ****                                             LV_THEME_DEFAULT_DARK, LV_FONT_DEFAULT);
 105:Lib/lvgl/src/display/lv_display.c ****     }
 106:Lib/lvgl/src/display/lv_display.c ****     else {
 107:Lib/lvgl/src/display/lv_display.c ****         disp->theme = lv_theme_default_get();
 108:Lib/lvgl/src/display/lv_display.c ****     }
 109:Lib/lvgl/src/display/lv_display.c **** #elif LV_USE_THEME_SIMPLE
 110:Lib/lvgl/src/display/lv_display.c ****     if(lv_theme_simple_is_inited() == false) {
 111:Lib/lvgl/src/display/lv_display.c ****         disp->theme = lv_theme_simple_init(disp);
 112:Lib/lvgl/src/display/lv_display.c ****     }
 113:Lib/lvgl/src/display/lv_display.c ****     else {
 114:Lib/lvgl/src/display/lv_display.c ****         disp->theme = lv_theme_simple_get();
 115:Lib/lvgl/src/display/lv_display.c ****     }
 116:Lib/lvgl/src/display/lv_display.c **** #endif
 117:Lib/lvgl/src/display/lv_display.c **** 
 118:Lib/lvgl/src/display/lv_display.c ****     disp->bottom_layer = lv_obj_create(NULL); /*Create bottom layer on the display*/
 119:Lib/lvgl/src/display/lv_display.c ****     disp->act_scr   = lv_obj_create(NULL); /*Create a default screen on the display*/
 120:Lib/lvgl/src/display/lv_display.c ****     disp->top_layer = lv_obj_create(NULL); /*Create top layer on the display*/
 121:Lib/lvgl/src/display/lv_display.c ****     disp->sys_layer = lv_obj_create(NULL); /*Create sys layer on the display*/
 122:Lib/lvgl/src/display/lv_display.c ****     lv_obj_remove_style_all(disp->bottom_layer);
 123:Lib/lvgl/src/display/lv_display.c ****     lv_obj_remove_style_all(disp->top_layer);
 124:Lib/lvgl/src/display/lv_display.c ****     lv_obj_remove_style_all(disp->sys_layer);
 125:Lib/lvgl/src/display/lv_display.c ****     lv_obj_remove_flag(disp->top_layer, LV_OBJ_FLAG_CLICKABLE);
 126:Lib/lvgl/src/display/lv_display.c ****     lv_obj_remove_flag(disp->sys_layer, LV_OBJ_FLAG_CLICKABLE);
 127:Lib/lvgl/src/display/lv_display.c **** 
 128:Lib/lvgl/src/display/lv_display.c ****     lv_obj_set_scrollbar_mode(disp->bottom_layer, LV_SCROLLBAR_MODE_OFF);
 129:Lib/lvgl/src/display/lv_display.c ****     lv_obj_set_scrollbar_mode(disp->top_layer, LV_SCROLLBAR_MODE_OFF);
 130:Lib/lvgl/src/display/lv_display.c ****     lv_obj_set_scrollbar_mode(disp->sys_layer, LV_SCROLLBAR_MODE_OFF);
 131:Lib/lvgl/src/display/lv_display.c **** 
 132:Lib/lvgl/src/display/lv_display.c ****     lv_obj_invalidate(disp->act_scr);
 133:Lib/lvgl/src/display/lv_display.c **** 
 134:Lib/lvgl/src/display/lv_display.c ****     disp_def = disp_def_tmp; /*Revert the default display*/
 135:Lib/lvgl/src/display/lv_display.c ****     if(disp_def == NULL) disp_def = disp; /*Initialize the default display*/
 136:Lib/lvgl/src/display/lv_display.c **** 
 137:Lib/lvgl/src/display/lv_display.c ****     lv_display_add_event_cb(disp, disp_event_cb, LV_EVENT_REFR_REQUEST, NULL);
 138:Lib/lvgl/src/display/lv_display.c **** 
 139:Lib/lvgl/src/display/lv_display.c ****     lv_timer_ready(disp->refr_timer); /*Be sure the screen will be refreshed immediately on start u
 140:Lib/lvgl/src/display/lv_display.c **** 
 141:Lib/lvgl/src/display/lv_display.c ****     return disp;
 142:Lib/lvgl/src/display/lv_display.c **** }
 143:Lib/lvgl/src/display/lv_display.c **** 
 144:Lib/lvgl/src/display/lv_display.c **** void lv_display_delete(lv_display_t * disp)
ARM GAS  C:\Users\Alex\AppData\Local\Temp\cc0G22cc.s 			page 4


 145:Lib/lvgl/src/display/lv_display.c **** {
 146:Lib/lvgl/src/display/lv_display.c ****     bool was_default = false;
 147:Lib/lvgl/src/display/lv_display.c ****     if(disp == lv_display_get_default()) was_default = true;
 148:Lib/lvgl/src/display/lv_display.c **** 
 149:Lib/lvgl/src/display/lv_display.c ****     lv_display_send_event(disp, LV_EVENT_DELETE, NULL);
 150:Lib/lvgl/src/display/lv_display.c ****     lv_event_remove_all(&(disp->event_list));
 151:Lib/lvgl/src/display/lv_display.c **** 
 152:Lib/lvgl/src/display/lv_display.c ****     /*Detach the input devices*/
 153:Lib/lvgl/src/display/lv_display.c ****     lv_indev_t * indev;
 154:Lib/lvgl/src/display/lv_display.c ****     indev = lv_indev_get_next(NULL);
 155:Lib/lvgl/src/display/lv_display.c ****     while(indev) {
 156:Lib/lvgl/src/display/lv_display.c ****         if(lv_indev_get_display(indev) == disp) {
 157:Lib/lvgl/src/display/lv_display.c ****             lv_indev_set_display(indev, NULL);
 158:Lib/lvgl/src/display/lv_display.c ****         }
 159:Lib/lvgl/src/display/lv_display.c ****         indev = lv_indev_get_next(indev);
 160:Lib/lvgl/src/display/lv_display.c ****     }
 161:Lib/lvgl/src/display/lv_display.c **** 
 162:Lib/lvgl/src/display/lv_display.c ****     /* Delete screen and other obj */
 163:Lib/lvgl/src/display/lv_display.c ****     if(disp->sys_layer) {
 164:Lib/lvgl/src/display/lv_display.c ****         lv_obj_delete(disp->sys_layer);
 165:Lib/lvgl/src/display/lv_display.c ****         disp->sys_layer = NULL;
 166:Lib/lvgl/src/display/lv_display.c ****     }
 167:Lib/lvgl/src/display/lv_display.c ****     if(disp->top_layer) {
 168:Lib/lvgl/src/display/lv_display.c ****         lv_obj_delete(disp->top_layer);
 169:Lib/lvgl/src/display/lv_display.c ****         disp->top_layer = NULL;
 170:Lib/lvgl/src/display/lv_display.c ****     }
 171:Lib/lvgl/src/display/lv_display.c **** 
 172:Lib/lvgl/src/display/lv_display.c ****     if(disp->bottom_layer) {
 173:Lib/lvgl/src/display/lv_display.c ****         lv_obj_delete(disp->bottom_layer);
 174:Lib/lvgl/src/display/lv_display.c ****         disp->bottom_layer = NULL;
 175:Lib/lvgl/src/display/lv_display.c ****     }
 176:Lib/lvgl/src/display/lv_display.c **** 
 177:Lib/lvgl/src/display/lv_display.c ****     disp->act_scr = NULL;
 178:Lib/lvgl/src/display/lv_display.c **** 
 179:Lib/lvgl/src/display/lv_display.c ****     while(disp->screen_cnt != 0) {
 180:Lib/lvgl/src/display/lv_display.c ****         /*Delete the screenst*/
 181:Lib/lvgl/src/display/lv_display.c ****         lv_obj_delete(disp->screens[0]);
 182:Lib/lvgl/src/display/lv_display.c ****     }
 183:Lib/lvgl/src/display/lv_display.c **** 
 184:Lib/lvgl/src/display/lv_display.c ****     _lv_ll_clear(&disp->sync_areas);
 185:Lib/lvgl/src/display/lv_display.c ****     _lv_ll_remove(disp_ll_p, disp);
 186:Lib/lvgl/src/display/lv_display.c ****     if(disp->refr_timer) lv_timer_delete(disp->refr_timer);
 187:Lib/lvgl/src/display/lv_display.c **** 
 188:Lib/lvgl/src/display/lv_display.c ****     if(disp->layer_deinit) disp->layer_deinit(disp, disp->layer_head);
 189:Lib/lvgl/src/display/lv_display.c ****     lv_free(disp->layer_head);
 190:Lib/lvgl/src/display/lv_display.c **** 
 191:Lib/lvgl/src/display/lv_display.c ****     lv_free(disp);
 192:Lib/lvgl/src/display/lv_display.c **** 
 193:Lib/lvgl/src/display/lv_display.c ****     if(was_default) lv_display_set_default(_lv_ll_get_head(disp_ll_p));
 194:Lib/lvgl/src/display/lv_display.c **** }
 195:Lib/lvgl/src/display/lv_display.c **** 
 196:Lib/lvgl/src/display/lv_display.c **** void lv_display_set_default(lv_display_t * disp)
 197:Lib/lvgl/src/display/lv_display.c **** {
 198:Lib/lvgl/src/display/lv_display.c ****     disp_def = disp;
 199:Lib/lvgl/src/display/lv_display.c **** }
 200:Lib/lvgl/src/display/lv_display.c **** 
 201:Lib/lvgl/src/display/lv_display.c **** lv_display_t * lv_display_get_default(void)
ARM GAS  C:\Users\Alex\AppData\Local\Temp\cc0G22cc.s 			page 5


 202:Lib/lvgl/src/display/lv_display.c **** {
 203:Lib/lvgl/src/display/lv_display.c ****     return disp_def;
 204:Lib/lvgl/src/display/lv_display.c **** }
 205:Lib/lvgl/src/display/lv_display.c **** 
 206:Lib/lvgl/src/display/lv_display.c **** lv_display_t * lv_display_get_next(lv_display_t * disp)
 207:Lib/lvgl/src/display/lv_display.c **** {
 208:Lib/lvgl/src/display/lv_display.c ****     if(disp == NULL)
 209:Lib/lvgl/src/display/lv_display.c ****         return _lv_ll_get_head(disp_ll_p);
 210:Lib/lvgl/src/display/lv_display.c ****     else
 211:Lib/lvgl/src/display/lv_display.c ****         return _lv_ll_get_next(disp_ll_p, disp);
 212:Lib/lvgl/src/display/lv_display.c **** }
 213:Lib/lvgl/src/display/lv_display.c **** 
 214:Lib/lvgl/src/display/lv_display.c **** /*---------------------
 215:Lib/lvgl/src/display/lv_display.c ****  * RESOLUTION
 216:Lib/lvgl/src/display/lv_display.c ****  *--------------------*/
 217:Lib/lvgl/src/display/lv_display.c **** 
 218:Lib/lvgl/src/display/lv_display.c **** void lv_display_set_resolution(lv_display_t * disp, int32_t hor_res, int32_t ver_res)
 219:Lib/lvgl/src/display/lv_display.c **** {
 220:Lib/lvgl/src/display/lv_display.c ****     if(disp == NULL) disp = lv_display_get_default();
 221:Lib/lvgl/src/display/lv_display.c ****     if(disp == NULL) return;
 222:Lib/lvgl/src/display/lv_display.c **** 
 223:Lib/lvgl/src/display/lv_display.c ****     if(disp->hor_res == hor_res && disp->ver_res == ver_res) return;
 224:Lib/lvgl/src/display/lv_display.c **** 
 225:Lib/lvgl/src/display/lv_display.c ****     disp->hor_res = hor_res;
 226:Lib/lvgl/src/display/lv_display.c ****     disp->ver_res = ver_res;
 227:Lib/lvgl/src/display/lv_display.c **** 
 228:Lib/lvgl/src/display/lv_display.c ****     update_resolution(disp);
 229:Lib/lvgl/src/display/lv_display.c **** }
 230:Lib/lvgl/src/display/lv_display.c **** 
 231:Lib/lvgl/src/display/lv_display.c **** void lv_display_set_physical_resolution(lv_display_t * disp, int32_t hor_res, int32_t ver_res)
 232:Lib/lvgl/src/display/lv_display.c **** {
 233:Lib/lvgl/src/display/lv_display.c ****     if(disp == NULL) disp = lv_display_get_default();
 234:Lib/lvgl/src/display/lv_display.c ****     if(disp == NULL) return;
 235:Lib/lvgl/src/display/lv_display.c **** 
 236:Lib/lvgl/src/display/lv_display.c ****     disp->physical_hor_res = hor_res;
 237:Lib/lvgl/src/display/lv_display.c ****     disp->physical_ver_res = ver_res;
 238:Lib/lvgl/src/display/lv_display.c **** 
 239:Lib/lvgl/src/display/lv_display.c ****     lv_obj_invalidate(disp->sys_layer);
 240:Lib/lvgl/src/display/lv_display.c **** 
 241:Lib/lvgl/src/display/lv_display.c **** }
 242:Lib/lvgl/src/display/lv_display.c **** 
 243:Lib/lvgl/src/display/lv_display.c **** void lv_display_set_offset(lv_display_t * disp, int32_t x, int32_t y)
 244:Lib/lvgl/src/display/lv_display.c **** {
 245:Lib/lvgl/src/display/lv_display.c ****     if(disp == NULL) disp = lv_display_get_default();
 246:Lib/lvgl/src/display/lv_display.c ****     if(disp == NULL) return;
 247:Lib/lvgl/src/display/lv_display.c **** 
 248:Lib/lvgl/src/display/lv_display.c ****     disp->offset_x = x;
 249:Lib/lvgl/src/display/lv_display.c ****     disp->offset_y = y;
 250:Lib/lvgl/src/display/lv_display.c **** 
 251:Lib/lvgl/src/display/lv_display.c ****     lv_obj_invalidate(disp->sys_layer);
 252:Lib/lvgl/src/display/lv_display.c **** 
 253:Lib/lvgl/src/display/lv_display.c **** }
 254:Lib/lvgl/src/display/lv_display.c **** 
 255:Lib/lvgl/src/display/lv_display.c **** void lv_display_set_dpi(lv_display_t * disp, int32_t dpi)
 256:Lib/lvgl/src/display/lv_display.c **** {
 257:Lib/lvgl/src/display/lv_display.c ****     if(disp == NULL) disp = lv_display_get_default();
 258:Lib/lvgl/src/display/lv_display.c ****     if(disp == NULL) return;
ARM GAS  C:\Users\Alex\AppData\Local\Temp\cc0G22cc.s 			page 6


 259:Lib/lvgl/src/display/lv_display.c **** 
 260:Lib/lvgl/src/display/lv_display.c ****     disp->dpi = dpi;
 261:Lib/lvgl/src/display/lv_display.c **** }
 262:Lib/lvgl/src/display/lv_display.c **** 
 263:Lib/lvgl/src/display/lv_display.c **** int32_t lv_display_get_horizontal_resolution(const lv_display_t * disp)
 264:Lib/lvgl/src/display/lv_display.c **** {
 265:Lib/lvgl/src/display/lv_display.c ****     if(disp == NULL) disp = lv_display_get_default();
 266:Lib/lvgl/src/display/lv_display.c **** 
 267:Lib/lvgl/src/display/lv_display.c ****     if(disp == NULL) {
 268:Lib/lvgl/src/display/lv_display.c ****         return 0;
 269:Lib/lvgl/src/display/lv_display.c ****     }
 270:Lib/lvgl/src/display/lv_display.c ****     else {
 271:Lib/lvgl/src/display/lv_display.c ****         switch(disp->rotation) {
 272:Lib/lvgl/src/display/lv_display.c ****             case LV_DISPLAY_ROTATION_90:
 273:Lib/lvgl/src/display/lv_display.c ****             case LV_DISPLAY_ROTATION_270:
 274:Lib/lvgl/src/display/lv_display.c ****                 return disp->ver_res;
 275:Lib/lvgl/src/display/lv_display.c ****             default:
 276:Lib/lvgl/src/display/lv_display.c ****                 return disp->hor_res;
 277:Lib/lvgl/src/display/lv_display.c ****         }
 278:Lib/lvgl/src/display/lv_display.c ****     }
 279:Lib/lvgl/src/display/lv_display.c **** }
 280:Lib/lvgl/src/display/lv_display.c **** 
 281:Lib/lvgl/src/display/lv_display.c **** int32_t lv_display_get_vertical_resolution(const lv_display_t * disp)
 282:Lib/lvgl/src/display/lv_display.c **** {
 283:Lib/lvgl/src/display/lv_display.c ****     if(disp == NULL) disp = lv_display_get_default();
 284:Lib/lvgl/src/display/lv_display.c **** 
 285:Lib/lvgl/src/display/lv_display.c ****     if(disp == NULL) {
 286:Lib/lvgl/src/display/lv_display.c ****         return 0;
 287:Lib/lvgl/src/display/lv_display.c ****     }
 288:Lib/lvgl/src/display/lv_display.c ****     else {
 289:Lib/lvgl/src/display/lv_display.c ****         switch(disp->rotation) {
 290:Lib/lvgl/src/display/lv_display.c ****             case LV_DISPLAY_ROTATION_90:
 291:Lib/lvgl/src/display/lv_display.c ****             case LV_DISPLAY_ROTATION_270:
 292:Lib/lvgl/src/display/lv_display.c ****                 return disp->hor_res;
 293:Lib/lvgl/src/display/lv_display.c ****             default:
 294:Lib/lvgl/src/display/lv_display.c ****                 return disp->ver_res;
 295:Lib/lvgl/src/display/lv_display.c ****         }
 296:Lib/lvgl/src/display/lv_display.c ****     }
 297:Lib/lvgl/src/display/lv_display.c **** }
 298:Lib/lvgl/src/display/lv_display.c **** 
 299:Lib/lvgl/src/display/lv_display.c **** int32_t lv_display_get_physical_horizontal_resolution(const lv_display_t * disp)
 300:Lib/lvgl/src/display/lv_display.c **** {
 301:Lib/lvgl/src/display/lv_display.c ****     if(disp == NULL) disp = lv_display_get_default();
 302:Lib/lvgl/src/display/lv_display.c **** 
 303:Lib/lvgl/src/display/lv_display.c ****     if(disp == NULL) {
 304:Lib/lvgl/src/display/lv_display.c ****         return 0;
 305:Lib/lvgl/src/display/lv_display.c ****     }
 306:Lib/lvgl/src/display/lv_display.c ****     else {
 307:Lib/lvgl/src/display/lv_display.c ****         switch(disp->rotation) {
 308:Lib/lvgl/src/display/lv_display.c ****             case LV_DISPLAY_ROTATION_90:
 309:Lib/lvgl/src/display/lv_display.c ****             case LV_DISPLAY_ROTATION_270:
 310:Lib/lvgl/src/display/lv_display.c ****                 return disp->physical_ver_res > 0 ? disp->physical_ver_res : disp->ver_res;
 311:Lib/lvgl/src/display/lv_display.c ****             default:
 312:Lib/lvgl/src/display/lv_display.c ****                 return disp->physical_hor_res > 0 ? disp->physical_hor_res : disp->hor_res;
 313:Lib/lvgl/src/display/lv_display.c ****         }
 314:Lib/lvgl/src/display/lv_display.c ****     }
 315:Lib/lvgl/src/display/lv_display.c **** }
ARM GAS  C:\Users\Alex\AppData\Local\Temp\cc0G22cc.s 			page 7


 316:Lib/lvgl/src/display/lv_display.c **** 
 317:Lib/lvgl/src/display/lv_display.c **** int32_t lv_display_get_physical_vertical_resolution(const lv_display_t * disp)
 318:Lib/lvgl/src/display/lv_display.c **** {
 319:Lib/lvgl/src/display/lv_display.c ****     if(disp == NULL) disp = lv_display_get_default();
 320:Lib/lvgl/src/display/lv_display.c **** 
 321:Lib/lvgl/src/display/lv_display.c ****     if(disp == NULL) {
 322:Lib/lvgl/src/display/lv_display.c ****         return 0;
 323:Lib/lvgl/src/display/lv_display.c ****     }
 324:Lib/lvgl/src/display/lv_display.c ****     else {
 325:Lib/lvgl/src/display/lv_display.c ****         switch(disp->rotation) {
 326:Lib/lvgl/src/display/lv_display.c ****             case LV_DISPLAY_ROTATION_90:
 327:Lib/lvgl/src/display/lv_display.c ****             case LV_DISPLAY_ROTATION_270:
 328:Lib/lvgl/src/display/lv_display.c ****                 return disp->physical_hor_res > 0 ? disp->physical_hor_res : disp->hor_res;
 329:Lib/lvgl/src/display/lv_display.c ****             default:
 330:Lib/lvgl/src/display/lv_display.c ****                 return disp->physical_ver_res > 0 ? disp->physical_ver_res : disp->ver_res;
 331:Lib/lvgl/src/display/lv_display.c ****         }
 332:Lib/lvgl/src/display/lv_display.c ****     }
 333:Lib/lvgl/src/display/lv_display.c **** }
 334:Lib/lvgl/src/display/lv_display.c **** 
 335:Lib/lvgl/src/display/lv_display.c **** int32_t lv_display_get_offset_x(const lv_display_t * disp)
 336:Lib/lvgl/src/display/lv_display.c **** {
 337:Lib/lvgl/src/display/lv_display.c ****     if(disp == NULL) disp = lv_display_get_default();
 338:Lib/lvgl/src/display/lv_display.c **** 
 339:Lib/lvgl/src/display/lv_display.c ****     if(disp == NULL) {
 340:Lib/lvgl/src/display/lv_display.c ****         return 0;
 341:Lib/lvgl/src/display/lv_display.c ****     }
 342:Lib/lvgl/src/display/lv_display.c ****     else {
 343:Lib/lvgl/src/display/lv_display.c ****         switch(disp->rotation) {
 344:Lib/lvgl/src/display/lv_display.c ****             case LV_DISPLAY_ROTATION_90:
 345:Lib/lvgl/src/display/lv_display.c ****                 return disp->offset_y;
 346:Lib/lvgl/src/display/lv_display.c ****             case LV_DISPLAY_ROTATION_180:
 347:Lib/lvgl/src/display/lv_display.c ****                 return lv_display_get_physical_horizontal_resolution(disp) - disp->offset_x;
 348:Lib/lvgl/src/display/lv_display.c ****             case LV_DISPLAY_ROTATION_270:
 349:Lib/lvgl/src/display/lv_display.c ****                 return lv_display_get_physical_horizontal_resolution(disp) - disp->offset_y;
 350:Lib/lvgl/src/display/lv_display.c ****             default:
 351:Lib/lvgl/src/display/lv_display.c ****                 return disp->offset_x;
 352:Lib/lvgl/src/display/lv_display.c ****         }
 353:Lib/lvgl/src/display/lv_display.c ****     }
 354:Lib/lvgl/src/display/lv_display.c **** }
 355:Lib/lvgl/src/display/lv_display.c **** 
 356:Lib/lvgl/src/display/lv_display.c **** int32_t lv_display_get_offset_y(const lv_display_t * disp)
 357:Lib/lvgl/src/display/lv_display.c **** {
 358:Lib/lvgl/src/display/lv_display.c ****     if(disp == NULL) disp = lv_display_get_default();
 359:Lib/lvgl/src/display/lv_display.c **** 
 360:Lib/lvgl/src/display/lv_display.c ****     if(disp == NULL) {
 361:Lib/lvgl/src/display/lv_display.c ****         return 0;
 362:Lib/lvgl/src/display/lv_display.c ****     }
 363:Lib/lvgl/src/display/lv_display.c ****     else {
 364:Lib/lvgl/src/display/lv_display.c ****         switch(disp->rotation) {
 365:Lib/lvgl/src/display/lv_display.c ****             case LV_DISPLAY_ROTATION_90:
 366:Lib/lvgl/src/display/lv_display.c ****                 return disp->offset_x;
 367:Lib/lvgl/src/display/lv_display.c ****             case LV_DISPLAY_ROTATION_180:
 368:Lib/lvgl/src/display/lv_display.c ****                 return lv_display_get_physical_vertical_resolution(disp) - disp->offset_y;
 369:Lib/lvgl/src/display/lv_display.c ****             case LV_DISPLAY_ROTATION_270:
 370:Lib/lvgl/src/display/lv_display.c ****                 return lv_display_get_physical_vertical_resolution(disp) - disp->offset_x;
 371:Lib/lvgl/src/display/lv_display.c ****             default:
 372:Lib/lvgl/src/display/lv_display.c ****                 return disp->offset_y;
ARM GAS  C:\Users\Alex\AppData\Local\Temp\cc0G22cc.s 			page 8


 373:Lib/lvgl/src/display/lv_display.c ****         }
 374:Lib/lvgl/src/display/lv_display.c ****     }
 375:Lib/lvgl/src/display/lv_display.c **** }
 376:Lib/lvgl/src/display/lv_display.c **** 
 377:Lib/lvgl/src/display/lv_display.c **** int32_t lv_display_get_dpi(const lv_display_t * disp)
 378:Lib/lvgl/src/display/lv_display.c **** {
 379:Lib/lvgl/src/display/lv_display.c ****     if(disp == NULL) disp = lv_display_get_default();
 380:Lib/lvgl/src/display/lv_display.c ****     if(disp == NULL) return LV_DPI_DEF;  /*Do not return 0 because it might be a divider*/
 381:Lib/lvgl/src/display/lv_display.c ****     return disp->dpi;
 382:Lib/lvgl/src/display/lv_display.c **** }
 383:Lib/lvgl/src/display/lv_display.c **** 
 384:Lib/lvgl/src/display/lv_display.c **** /*---------------------
 385:Lib/lvgl/src/display/lv_display.c ****  * BUFFERING
 386:Lib/lvgl/src/display/lv_display.c ****  *--------------------*/
 387:Lib/lvgl/src/display/lv_display.c **** 
 388:Lib/lvgl/src/display/lv_display.c **** void lv_display_set_draw_buffers(lv_display_t * disp, lv_draw_buf_t * buf1, lv_draw_buf_t * buf2)
 389:Lib/lvgl/src/display/lv_display.c **** {
 390:Lib/lvgl/src/display/lv_display.c ****     if(disp == NULL) disp = lv_display_get_default();
 391:Lib/lvgl/src/display/lv_display.c ****     if(disp == NULL) return;
 392:Lib/lvgl/src/display/lv_display.c **** 
 393:Lib/lvgl/src/display/lv_display.c ****     disp->buf_1 = buf1;
 394:Lib/lvgl/src/display/lv_display.c ****     disp->buf_2 = buf2;
 395:Lib/lvgl/src/display/lv_display.c ****     disp->buf_act = disp->buf_1;
 396:Lib/lvgl/src/display/lv_display.c **** }
 397:Lib/lvgl/src/display/lv_display.c **** 
 398:Lib/lvgl/src/display/lv_display.c **** void lv_display_set_buffers(lv_display_t * disp, void * buf1, void * buf2, uint32_t buf_size,
 399:Lib/lvgl/src/display/lv_display.c ****                             lv_display_render_mode_t render_mode)
 400:Lib/lvgl/src/display/lv_display.c **** {
 401:Lib/lvgl/src/display/lv_display.c ****     uint32_t w = lv_display_get_horizontal_resolution(disp);
 402:Lib/lvgl/src/display/lv_display.c ****     uint32_t h = lv_display_get_vertical_resolution(disp);
 403:Lib/lvgl/src/display/lv_display.c ****     LV_ASSERT(w != 0 && h != 0);
 404:Lib/lvgl/src/display/lv_display.c **** 
 405:Lib/lvgl/src/display/lv_display.c ****     lv_color_format_t cf = lv_display_get_color_format(disp);
 406:Lib/lvgl/src/display/lv_display.c ****     uint32_t stride = lv_draw_buf_width_to_stride(w, cf);
 407:Lib/lvgl/src/display/lv_display.c ****     if(render_mode == LV_DISPLAY_RENDER_MODE_PARTIAL) {
 408:Lib/lvgl/src/display/lv_display.c ****         /* for partial mode, we calculate the height based on the buf_size and stride */
 409:Lib/lvgl/src/display/lv_display.c ****         h = buf_size / stride;
 410:Lib/lvgl/src/display/lv_display.c ****     }
 411:Lib/lvgl/src/display/lv_display.c ****     else if(stride * h > buf_size) {
 412:Lib/lvgl/src/display/lv_display.c ****         LV_LOG_ERROR("%s mode requires screen sized buffer(s)",
 413:Lib/lvgl/src/display/lv_display.c ****                      render_mode == LV_DISPLAY_RENDER_MODE_FULL ? "FULL" : "DIRECT");
 414:Lib/lvgl/src/display/lv_display.c ****         LV_ASSERT(0);
 415:Lib/lvgl/src/display/lv_display.c ****         return;
 416:Lib/lvgl/src/display/lv_display.c ****     }
 417:Lib/lvgl/src/display/lv_display.c **** 
 418:Lib/lvgl/src/display/lv_display.c ****     if(h == 0) {
 419:Lib/lvgl/src/display/lv_display.c ****         LV_ASSERT_MSG(h != 0, "the buffer is too small");
 420:Lib/lvgl/src/display/lv_display.c ****         return;
 421:Lib/lvgl/src/display/lv_display.c ****     }
 422:Lib/lvgl/src/display/lv_display.c **** 
 423:Lib/lvgl/src/display/lv_display.c ****     lv_draw_buf_init(&disp->_static_buf1, w, h, cf, stride, buf1, buf_size);
 424:Lib/lvgl/src/display/lv_display.c ****     lv_draw_buf_init(&disp->_static_buf2, w, h, cf, stride, buf2, buf_size);
 425:Lib/lvgl/src/display/lv_display.c ****     lv_display_set_draw_buffers(disp, &disp->_static_buf1, buf2 ? &disp->_static_buf2 : NULL);
 426:Lib/lvgl/src/display/lv_display.c ****     lv_display_set_render_mode(disp, render_mode);
 427:Lib/lvgl/src/display/lv_display.c **** }
 428:Lib/lvgl/src/display/lv_display.c **** 
 429:Lib/lvgl/src/display/lv_display.c **** void lv_display_set_render_mode(lv_display_t * disp, lv_display_render_mode_t render_mode)
ARM GAS  C:\Users\Alex\AppData\Local\Temp\cc0G22cc.s 			page 9


 430:Lib/lvgl/src/display/lv_display.c **** {
 431:Lib/lvgl/src/display/lv_display.c ****     if(disp == NULL) disp = lv_display_get_default();
 432:Lib/lvgl/src/display/lv_display.c ****     if(disp == NULL) return;
 433:Lib/lvgl/src/display/lv_display.c ****     disp->render_mode = render_mode;
 434:Lib/lvgl/src/display/lv_display.c **** }
 435:Lib/lvgl/src/display/lv_display.c **** 
 436:Lib/lvgl/src/display/lv_display.c **** void lv_display_set_flush_cb(lv_display_t * disp, lv_display_flush_cb_t flush_cb)
 437:Lib/lvgl/src/display/lv_display.c **** {
 438:Lib/lvgl/src/display/lv_display.c ****     if(disp == NULL) disp = lv_display_get_default();
 439:Lib/lvgl/src/display/lv_display.c ****     if(disp == NULL) return;
 440:Lib/lvgl/src/display/lv_display.c **** 
 441:Lib/lvgl/src/display/lv_display.c ****     disp->flush_cb = flush_cb;
 442:Lib/lvgl/src/display/lv_display.c **** }
 443:Lib/lvgl/src/display/lv_display.c **** 
 444:Lib/lvgl/src/display/lv_display.c **** void lv_display_set_flush_wait_cb(lv_display_t * disp, lv_display_flush_wait_cb_t wait_cb)
 445:Lib/lvgl/src/display/lv_display.c **** {
 446:Lib/lvgl/src/display/lv_display.c ****     if(disp == NULL) disp = lv_display_get_default();
 447:Lib/lvgl/src/display/lv_display.c ****     if(disp == NULL) return;
 448:Lib/lvgl/src/display/lv_display.c **** 
 449:Lib/lvgl/src/display/lv_display.c ****     disp->flush_wait_cb = wait_cb;
 450:Lib/lvgl/src/display/lv_display.c **** }
 451:Lib/lvgl/src/display/lv_display.c **** 
 452:Lib/lvgl/src/display/lv_display.c **** void lv_display_set_color_format(lv_display_t * disp, lv_color_format_t color_format)
 453:Lib/lvgl/src/display/lv_display.c **** {
 454:Lib/lvgl/src/display/lv_display.c ****     if(disp == NULL) disp = lv_display_get_default();
 455:Lib/lvgl/src/display/lv_display.c ****     if(disp == NULL) return;
 456:Lib/lvgl/src/display/lv_display.c **** 
 457:Lib/lvgl/src/display/lv_display.c ****     disp->color_format = color_format;
 458:Lib/lvgl/src/display/lv_display.c ****     disp->layer_head->color_format = color_format;
 459:Lib/lvgl/src/display/lv_display.c **** 
 460:Lib/lvgl/src/display/lv_display.c ****     lv_display_send_event(disp, LV_EVENT_COLOR_FORMAT_CHANGED, NULL);
 461:Lib/lvgl/src/display/lv_display.c **** }
 462:Lib/lvgl/src/display/lv_display.c **** 
 463:Lib/lvgl/src/display/lv_display.c **** lv_color_format_t lv_display_get_color_format(lv_display_t * disp)
 464:Lib/lvgl/src/display/lv_display.c **** {
 465:Lib/lvgl/src/display/lv_display.c ****     if(disp == NULL) disp = lv_display_get_default();
 466:Lib/lvgl/src/display/lv_display.c ****     if(disp == NULL) return LV_COLOR_FORMAT_UNKNOWN;
 467:Lib/lvgl/src/display/lv_display.c **** 
 468:Lib/lvgl/src/display/lv_display.c ****     return disp->color_format;
 469:Lib/lvgl/src/display/lv_display.c **** }
 470:Lib/lvgl/src/display/lv_display.c **** 
 471:Lib/lvgl/src/display/lv_display.c **** void lv_display_set_antialiasing(lv_display_t * disp, bool en)
 472:Lib/lvgl/src/display/lv_display.c **** {
 473:Lib/lvgl/src/display/lv_display.c ****     if(disp == NULL) disp = lv_display_get_default();
 474:Lib/lvgl/src/display/lv_display.c ****     if(disp == NULL) return;
 475:Lib/lvgl/src/display/lv_display.c **** 
 476:Lib/lvgl/src/display/lv_display.c ****     disp->antialiasing = en;
 477:Lib/lvgl/src/display/lv_display.c **** }
 478:Lib/lvgl/src/display/lv_display.c **** 
 479:Lib/lvgl/src/display/lv_display.c **** bool lv_display_get_antialiasing(lv_display_t * disp)
 480:Lib/lvgl/src/display/lv_display.c **** {
 481:Lib/lvgl/src/display/lv_display.c ****     if(disp == NULL) disp = lv_display_get_default();
 482:Lib/lvgl/src/display/lv_display.c ****     if(disp == NULL) return false;
 483:Lib/lvgl/src/display/lv_display.c **** 
 484:Lib/lvgl/src/display/lv_display.c ****     return disp->antialiasing;
 485:Lib/lvgl/src/display/lv_display.c **** }
 486:Lib/lvgl/src/display/lv_display.c **** 
ARM GAS  C:\Users\Alex\AppData\Local\Temp\cc0G22cc.s 			page 10


 487:Lib/lvgl/src/display/lv_display.c **** LV_ATTRIBUTE_FLUSH_READY void lv_display_flush_ready(lv_display_t * disp)
 488:Lib/lvgl/src/display/lv_display.c **** {
 489:Lib/lvgl/src/display/lv_display.c ****     disp->flushing = 0;
 490:Lib/lvgl/src/display/lv_display.c **** }
 491:Lib/lvgl/src/display/lv_display.c **** 
 492:Lib/lvgl/src/display/lv_display.c **** LV_ATTRIBUTE_FLUSH_READY bool lv_display_flush_is_last(lv_display_t * disp)
 493:Lib/lvgl/src/display/lv_display.c **** {
 494:Lib/lvgl/src/display/lv_display.c ****     return disp->flushing_last;
 495:Lib/lvgl/src/display/lv_display.c **** }
 496:Lib/lvgl/src/display/lv_display.c **** 
 497:Lib/lvgl/src/display/lv_display.c **** bool lv_display_is_double_buffered(lv_display_t * disp)
 498:Lib/lvgl/src/display/lv_display.c **** {
 499:Lib/lvgl/src/display/lv_display.c ****     return disp->buf_2 != NULL;
 500:Lib/lvgl/src/display/lv_display.c **** }
 501:Lib/lvgl/src/display/lv_display.c **** 
 502:Lib/lvgl/src/display/lv_display.c **** /*---------------------
 503:Lib/lvgl/src/display/lv_display.c ****   * SCREENS
 504:Lib/lvgl/src/display/lv_display.c ****   *--------------------*/
 505:Lib/lvgl/src/display/lv_display.c **** 
 506:Lib/lvgl/src/display/lv_display.c **** lv_obj_t * lv_display_get_screen_active(lv_display_t * disp)
 507:Lib/lvgl/src/display/lv_display.c **** {
 508:Lib/lvgl/src/display/lv_display.c ****     if(!disp) disp = lv_display_get_default();
 509:Lib/lvgl/src/display/lv_display.c ****     if(!disp) {
 510:Lib/lvgl/src/display/lv_display.c ****         LV_LOG_WARN("no display registered to get its active screen");
 511:Lib/lvgl/src/display/lv_display.c ****         return NULL;
 512:Lib/lvgl/src/display/lv_display.c ****     }
 513:Lib/lvgl/src/display/lv_display.c **** 
 514:Lib/lvgl/src/display/lv_display.c ****     return disp->act_scr;
 515:Lib/lvgl/src/display/lv_display.c **** }
 516:Lib/lvgl/src/display/lv_display.c **** 
 517:Lib/lvgl/src/display/lv_display.c **** lv_obj_t * lv_display_get_screen_prev(lv_display_t * disp)
 518:Lib/lvgl/src/display/lv_display.c **** {
 519:Lib/lvgl/src/display/lv_display.c ****     if(!disp) disp = lv_display_get_default();
 520:Lib/lvgl/src/display/lv_display.c ****     if(!disp) {
 521:Lib/lvgl/src/display/lv_display.c ****         LV_LOG_WARN("no display registered to get its previous screen");
 522:Lib/lvgl/src/display/lv_display.c ****         return NULL;
 523:Lib/lvgl/src/display/lv_display.c ****     }
 524:Lib/lvgl/src/display/lv_display.c **** 
 525:Lib/lvgl/src/display/lv_display.c ****     return disp->prev_scr;
 526:Lib/lvgl/src/display/lv_display.c **** }
 527:Lib/lvgl/src/display/lv_display.c **** 
 528:Lib/lvgl/src/display/lv_display.c **** lv_obj_t * lv_display_get_layer_top(lv_display_t * disp)
 529:Lib/lvgl/src/display/lv_display.c **** {
 530:Lib/lvgl/src/display/lv_display.c ****     if(!disp) disp = lv_display_get_default();
 531:Lib/lvgl/src/display/lv_display.c ****     if(!disp) {
 532:Lib/lvgl/src/display/lv_display.c ****         LV_LOG_WARN("lv_layer_top: no display registered to get its top layer");
 533:Lib/lvgl/src/display/lv_display.c ****         return NULL;
 534:Lib/lvgl/src/display/lv_display.c ****     }
 535:Lib/lvgl/src/display/lv_display.c **** 
 536:Lib/lvgl/src/display/lv_display.c ****     return disp->top_layer;
 537:Lib/lvgl/src/display/lv_display.c **** }
 538:Lib/lvgl/src/display/lv_display.c **** 
 539:Lib/lvgl/src/display/lv_display.c **** lv_obj_t * lv_display_get_layer_sys(lv_display_t * disp)
 540:Lib/lvgl/src/display/lv_display.c **** {
 541:Lib/lvgl/src/display/lv_display.c ****     if(!disp) disp = lv_display_get_default();
 542:Lib/lvgl/src/display/lv_display.c ****     if(!disp) {
 543:Lib/lvgl/src/display/lv_display.c ****         LV_LOG_WARN("lv_layer_sys: no display registered to get its sys. layer");
ARM GAS  C:\Users\Alex\AppData\Local\Temp\cc0G22cc.s 			page 11


 544:Lib/lvgl/src/display/lv_display.c ****         return NULL;
 545:Lib/lvgl/src/display/lv_display.c ****     }
 546:Lib/lvgl/src/display/lv_display.c **** 
 547:Lib/lvgl/src/display/lv_display.c ****     return disp->sys_layer;
 548:Lib/lvgl/src/display/lv_display.c **** }
 549:Lib/lvgl/src/display/lv_display.c **** 
 550:Lib/lvgl/src/display/lv_display.c **** lv_obj_t * lv_display_get_layer_bottom(lv_display_t * disp)
 551:Lib/lvgl/src/display/lv_display.c **** {
 552:Lib/lvgl/src/display/lv_display.c ****     if(!disp) disp = lv_display_get_default();
 553:Lib/lvgl/src/display/lv_display.c ****     if(!disp) {
 554:Lib/lvgl/src/display/lv_display.c ****         LV_LOG_WARN("lv_layer_bottom: no display registered to get its bottom layer");
 555:Lib/lvgl/src/display/lv_display.c ****         return NULL;
 556:Lib/lvgl/src/display/lv_display.c ****     }
 557:Lib/lvgl/src/display/lv_display.c **** 
 558:Lib/lvgl/src/display/lv_display.c ****     return disp->bottom_layer;
 559:Lib/lvgl/src/display/lv_display.c **** }
 560:Lib/lvgl/src/display/lv_display.c **** 
 561:Lib/lvgl/src/display/lv_display.c **** void lv_screen_load(struct _lv_obj_t * scr)
 562:Lib/lvgl/src/display/lv_display.c **** {
 563:Lib/lvgl/src/display/lv_display.c ****     lv_screen_load_anim(scr, LV_SCR_LOAD_ANIM_NONE, 0, 0, false);
 564:Lib/lvgl/src/display/lv_display.c **** }
 565:Lib/lvgl/src/display/lv_display.c **** 
 566:Lib/lvgl/src/display/lv_display.c **** void lv_screen_load_anim(lv_obj_t * new_scr, lv_screen_load_anim_t anim_type, uint32_t time, uint32
 567:Lib/lvgl/src/display/lv_display.c ****                          bool auto_del)
 568:Lib/lvgl/src/display/lv_display.c **** {
 569:Lib/lvgl/src/display/lv_display.c ****     lv_display_t * d = lv_obj_get_display(new_scr);
 570:Lib/lvgl/src/display/lv_display.c ****     lv_obj_t * act_scr = lv_screen_active();
 571:Lib/lvgl/src/display/lv_display.c **** 
 572:Lib/lvgl/src/display/lv_display.c ****     if(act_scr == new_scr || d->scr_to_load == new_scr) {
 573:Lib/lvgl/src/display/lv_display.c ****         return;
 574:Lib/lvgl/src/display/lv_display.c ****     }
 575:Lib/lvgl/src/display/lv_display.c **** 
 576:Lib/lvgl/src/display/lv_display.c ****     /*If another screen load animation is in progress
 577:Lib/lvgl/src/display/lv_display.c ****      *make target screen loaded immediately. */
 578:Lib/lvgl/src/display/lv_display.c ****     if(d->scr_to_load && act_scr != d->scr_to_load) {
 579:Lib/lvgl/src/display/lv_display.c ****         lv_anim_delete(d->scr_to_load, NULL);
 580:Lib/lvgl/src/display/lv_display.c ****         lv_obj_set_pos(d->scr_to_load, 0, 0);
 581:Lib/lvgl/src/display/lv_display.c ****         lv_obj_remove_local_style_prop(d->scr_to_load, LV_STYLE_OPA, 0);
 582:Lib/lvgl/src/display/lv_display.c **** 
 583:Lib/lvgl/src/display/lv_display.c ****         if(d->del_prev) {
 584:Lib/lvgl/src/display/lv_display.c ****             lv_obj_delete(act_scr);
 585:Lib/lvgl/src/display/lv_display.c ****         }
 586:Lib/lvgl/src/display/lv_display.c ****         act_scr = lv_screen_active(); /*Active screen changed.*/
 587:Lib/lvgl/src/display/lv_display.c **** 
 588:Lib/lvgl/src/display/lv_display.c ****         scr_load_internal(d->scr_to_load);
 589:Lib/lvgl/src/display/lv_display.c ****     }
 590:Lib/lvgl/src/display/lv_display.c **** 
 591:Lib/lvgl/src/display/lv_display.c ****     d->scr_to_load = new_scr;
 592:Lib/lvgl/src/display/lv_display.c **** 
 593:Lib/lvgl/src/display/lv_display.c ****     if(d->prev_scr && d->del_prev) {
 594:Lib/lvgl/src/display/lv_display.c ****         lv_obj_delete(d->prev_scr);
 595:Lib/lvgl/src/display/lv_display.c ****         d->prev_scr = NULL;
 596:Lib/lvgl/src/display/lv_display.c ****     }
 597:Lib/lvgl/src/display/lv_display.c **** 
 598:Lib/lvgl/src/display/lv_display.c ****     d->draw_prev_over_act = is_out_anim(anim_type);
 599:Lib/lvgl/src/display/lv_display.c ****     d->del_prev = auto_del;
 600:Lib/lvgl/src/display/lv_display.c **** 
ARM GAS  C:\Users\Alex\AppData\Local\Temp\cc0G22cc.s 			page 12


 601:Lib/lvgl/src/display/lv_display.c ****     /*Be sure there is no other animation on the screens*/
 602:Lib/lvgl/src/display/lv_display.c ****     lv_anim_delete(new_scr, NULL);
 603:Lib/lvgl/src/display/lv_display.c ****     if(act_scr) lv_anim_delete(act_scr, NULL);
 604:Lib/lvgl/src/display/lv_display.c **** 
 605:Lib/lvgl/src/display/lv_display.c ****     /*Be sure both screens are in a normal position*/
 606:Lib/lvgl/src/display/lv_display.c ****     lv_obj_set_pos(new_scr, 0, 0);
 607:Lib/lvgl/src/display/lv_display.c ****     if(act_scr) lv_obj_set_pos(act_scr, 0, 0);
 608:Lib/lvgl/src/display/lv_display.c ****     lv_obj_remove_local_style_prop(new_scr, LV_STYLE_OPA, 0);
 609:Lib/lvgl/src/display/lv_display.c ****     if(act_scr) lv_obj_remove_local_style_prop(act_scr, LV_STYLE_OPA, 0);
 610:Lib/lvgl/src/display/lv_display.c **** 
 611:Lib/lvgl/src/display/lv_display.c ****     /*Shortcut for immediate load*/
 612:Lib/lvgl/src/display/lv_display.c ****     if(time == 0 && delay == 0) {
 613:Lib/lvgl/src/display/lv_display.c ****         scr_load_internal(new_scr);
 614:Lib/lvgl/src/display/lv_display.c ****         if(auto_del && act_scr) lv_obj_delete(act_scr);
 615:Lib/lvgl/src/display/lv_display.c ****         return;
 616:Lib/lvgl/src/display/lv_display.c ****     }
 617:Lib/lvgl/src/display/lv_display.c **** 
 618:Lib/lvgl/src/display/lv_display.c ****     lv_anim_t a_new;
 619:Lib/lvgl/src/display/lv_display.c ****     lv_anim_init(&a_new);
 620:Lib/lvgl/src/display/lv_display.c ****     lv_anim_set_var(&a_new, new_scr);
 621:Lib/lvgl/src/display/lv_display.c ****     lv_anim_set_start_cb(&a_new, scr_load_anim_start);
 622:Lib/lvgl/src/display/lv_display.c ****     lv_anim_set_completed_cb(&a_new, scr_anim_completed);
 623:Lib/lvgl/src/display/lv_display.c ****     lv_anim_set_duration(&a_new, time);
 624:Lib/lvgl/src/display/lv_display.c ****     lv_anim_set_delay(&a_new, delay);
 625:Lib/lvgl/src/display/lv_display.c **** 
 626:Lib/lvgl/src/display/lv_display.c ****     lv_anim_t a_old;
 627:Lib/lvgl/src/display/lv_display.c ****     lv_anim_init(&a_old);
 628:Lib/lvgl/src/display/lv_display.c ****     lv_anim_set_var(&a_old, act_scr);
 629:Lib/lvgl/src/display/lv_display.c ****     lv_anim_set_duration(&a_old, time);
 630:Lib/lvgl/src/display/lv_display.c ****     lv_anim_set_delay(&a_old, delay);
 631:Lib/lvgl/src/display/lv_display.c **** 
 632:Lib/lvgl/src/display/lv_display.c ****     switch(anim_type) {
 633:Lib/lvgl/src/display/lv_display.c ****         case LV_SCR_LOAD_ANIM_NONE:
 634:Lib/lvgl/src/display/lv_display.c ****             /*Create a dummy animation to apply the delay*/
 635:Lib/lvgl/src/display/lv_display.c ****             lv_anim_set_exec_cb(&a_new, set_x_anim);
 636:Lib/lvgl/src/display/lv_display.c ****             lv_anim_set_values(&a_new, 0, 0);
 637:Lib/lvgl/src/display/lv_display.c ****             break;
 638:Lib/lvgl/src/display/lv_display.c ****         case LV_SCR_LOAD_ANIM_OVER_LEFT:
 639:Lib/lvgl/src/display/lv_display.c ****             lv_anim_set_exec_cb(&a_new, set_x_anim);
 640:Lib/lvgl/src/display/lv_display.c ****             lv_anim_set_values(&a_new, lv_display_get_horizontal_resolution(d), 0);
 641:Lib/lvgl/src/display/lv_display.c ****             break;
 642:Lib/lvgl/src/display/lv_display.c ****         case LV_SCR_LOAD_ANIM_OVER_RIGHT:
 643:Lib/lvgl/src/display/lv_display.c ****             lv_anim_set_exec_cb(&a_new, set_x_anim);
 644:Lib/lvgl/src/display/lv_display.c ****             lv_anim_set_values(&a_new, -lv_display_get_horizontal_resolution(d), 0);
 645:Lib/lvgl/src/display/lv_display.c ****             break;
 646:Lib/lvgl/src/display/lv_display.c ****         case LV_SCR_LOAD_ANIM_OVER_TOP:
 647:Lib/lvgl/src/display/lv_display.c ****             lv_anim_set_exec_cb(&a_new, set_y_anim);
 648:Lib/lvgl/src/display/lv_display.c ****             lv_anim_set_values(&a_new, lv_display_get_vertical_resolution(d), 0);
 649:Lib/lvgl/src/display/lv_display.c ****             break;
 650:Lib/lvgl/src/display/lv_display.c ****         case LV_SCR_LOAD_ANIM_OVER_BOTTOM:
 651:Lib/lvgl/src/display/lv_display.c ****             lv_anim_set_exec_cb(&a_new, set_y_anim);
 652:Lib/lvgl/src/display/lv_display.c ****             lv_anim_set_values(&a_new, -lv_display_get_vertical_resolution(d), 0);
 653:Lib/lvgl/src/display/lv_display.c ****             break;
 654:Lib/lvgl/src/display/lv_display.c ****         case LV_SCR_LOAD_ANIM_MOVE_LEFT:
 655:Lib/lvgl/src/display/lv_display.c ****             lv_anim_set_exec_cb(&a_new, set_x_anim);
 656:Lib/lvgl/src/display/lv_display.c ****             lv_anim_set_values(&a_new, lv_display_get_horizontal_resolution(d), 0);
 657:Lib/lvgl/src/display/lv_display.c **** 
ARM GAS  C:\Users\Alex\AppData\Local\Temp\cc0G22cc.s 			page 13


 658:Lib/lvgl/src/display/lv_display.c ****             lv_anim_set_exec_cb(&a_old, set_x_anim);
 659:Lib/lvgl/src/display/lv_display.c ****             lv_anim_set_values(&a_old, 0, -lv_display_get_horizontal_resolution(d));
 660:Lib/lvgl/src/display/lv_display.c ****             break;
 661:Lib/lvgl/src/display/lv_display.c ****         case LV_SCR_LOAD_ANIM_MOVE_RIGHT:
 662:Lib/lvgl/src/display/lv_display.c ****             lv_anim_set_exec_cb(&a_new, set_x_anim);
 663:Lib/lvgl/src/display/lv_display.c ****             lv_anim_set_values(&a_new, -lv_display_get_horizontal_resolution(d), 0);
 664:Lib/lvgl/src/display/lv_display.c **** 
 665:Lib/lvgl/src/display/lv_display.c ****             lv_anim_set_exec_cb(&a_old, set_x_anim);
 666:Lib/lvgl/src/display/lv_display.c ****             lv_anim_set_values(&a_old, 0, lv_display_get_horizontal_resolution(d));
 667:Lib/lvgl/src/display/lv_display.c ****             break;
 668:Lib/lvgl/src/display/lv_display.c ****         case LV_SCR_LOAD_ANIM_MOVE_TOP:
 669:Lib/lvgl/src/display/lv_display.c ****             lv_anim_set_exec_cb(&a_new, set_y_anim);
 670:Lib/lvgl/src/display/lv_display.c ****             lv_anim_set_values(&a_new, lv_display_get_vertical_resolution(d), 0);
 671:Lib/lvgl/src/display/lv_display.c **** 
 672:Lib/lvgl/src/display/lv_display.c ****             lv_anim_set_exec_cb(&a_old, set_y_anim);
 673:Lib/lvgl/src/display/lv_display.c ****             lv_anim_set_values(&a_old, 0, -lv_display_get_vertical_resolution(d));
 674:Lib/lvgl/src/display/lv_display.c ****             break;
 675:Lib/lvgl/src/display/lv_display.c ****         case LV_SCR_LOAD_ANIM_MOVE_BOTTOM:
 676:Lib/lvgl/src/display/lv_display.c ****             lv_anim_set_exec_cb(&a_new, set_y_anim);
 677:Lib/lvgl/src/display/lv_display.c ****             lv_anim_set_values(&a_new, -lv_display_get_vertical_resolution(d), 0);
 678:Lib/lvgl/src/display/lv_display.c **** 
 679:Lib/lvgl/src/display/lv_display.c ****             lv_anim_set_exec_cb(&a_old, set_y_anim);
 680:Lib/lvgl/src/display/lv_display.c ****             lv_anim_set_values(&a_old, 0, lv_display_get_vertical_resolution(d));
 681:Lib/lvgl/src/display/lv_display.c ****             break;
 682:Lib/lvgl/src/display/lv_display.c ****         case LV_SCR_LOAD_ANIM_FADE_IN:
 683:Lib/lvgl/src/display/lv_display.c ****             lv_anim_set_exec_cb(&a_new, opa_scale_anim);
 684:Lib/lvgl/src/display/lv_display.c ****             lv_anim_set_values(&a_new, LV_OPA_TRANSP, LV_OPA_COVER);
 685:Lib/lvgl/src/display/lv_display.c ****             break;
 686:Lib/lvgl/src/display/lv_display.c ****         case LV_SCR_LOAD_ANIM_FADE_OUT:
 687:Lib/lvgl/src/display/lv_display.c ****             lv_anim_set_exec_cb(&a_old, opa_scale_anim);
 688:Lib/lvgl/src/display/lv_display.c ****             lv_anim_set_values(&a_old, LV_OPA_COVER, LV_OPA_TRANSP);
 689:Lib/lvgl/src/display/lv_display.c ****             break;
 690:Lib/lvgl/src/display/lv_display.c ****         case LV_SCR_LOAD_ANIM_OUT_LEFT:
 691:Lib/lvgl/src/display/lv_display.c ****             lv_anim_set_exec_cb(&a_old, set_x_anim);
 692:Lib/lvgl/src/display/lv_display.c ****             lv_anim_set_values(&a_old, 0, -lv_display_get_horizontal_resolution(d));
 693:Lib/lvgl/src/display/lv_display.c ****             break;
 694:Lib/lvgl/src/display/lv_display.c ****         case LV_SCR_LOAD_ANIM_OUT_RIGHT:
 695:Lib/lvgl/src/display/lv_display.c ****             lv_anim_set_exec_cb(&a_old, set_x_anim);
 696:Lib/lvgl/src/display/lv_display.c ****             lv_anim_set_values(&a_old, 0, lv_display_get_horizontal_resolution(d));
 697:Lib/lvgl/src/display/lv_display.c ****             break;
 698:Lib/lvgl/src/display/lv_display.c ****         case LV_SCR_LOAD_ANIM_OUT_TOP:
 699:Lib/lvgl/src/display/lv_display.c ****             lv_anim_set_exec_cb(&a_old, set_y_anim);
 700:Lib/lvgl/src/display/lv_display.c ****             lv_anim_set_values(&a_old, 0, -lv_display_get_vertical_resolution(d));
 701:Lib/lvgl/src/display/lv_display.c ****             break;
 702:Lib/lvgl/src/display/lv_display.c ****         case LV_SCR_LOAD_ANIM_OUT_BOTTOM:
 703:Lib/lvgl/src/display/lv_display.c ****             lv_anim_set_exec_cb(&a_old, set_y_anim);
 704:Lib/lvgl/src/display/lv_display.c ****             lv_anim_set_values(&a_old, 0, lv_display_get_vertical_resolution(d));
 705:Lib/lvgl/src/display/lv_display.c ****             break;
 706:Lib/lvgl/src/display/lv_display.c ****     }
 707:Lib/lvgl/src/display/lv_display.c **** 
 708:Lib/lvgl/src/display/lv_display.c ****     if(act_scr) lv_obj_send_event(act_scr, LV_EVENT_SCREEN_UNLOAD_START, NULL);
 709:Lib/lvgl/src/display/lv_display.c **** 
 710:Lib/lvgl/src/display/lv_display.c ****     lv_anim_start(&a_new);
 711:Lib/lvgl/src/display/lv_display.c ****     if(act_scr) lv_anim_start(&a_old);
 712:Lib/lvgl/src/display/lv_display.c **** }
 713:Lib/lvgl/src/display/lv_display.c **** 
 714:Lib/lvgl/src/display/lv_display.c **** /*---------------------
ARM GAS  C:\Users\Alex\AppData\Local\Temp\cc0G22cc.s 			page 14


 715:Lib/lvgl/src/display/lv_display.c ****  * OTHERS
 716:Lib/lvgl/src/display/lv_display.c ****  *--------------------*/
 717:Lib/lvgl/src/display/lv_display.c **** 
 718:Lib/lvgl/src/display/lv_display.c **** void lv_display_add_event_cb(lv_display_t * disp, lv_event_cb_t event_cb, lv_event_code_t filter, v
 719:Lib/lvgl/src/display/lv_display.c **** {
 720:Lib/lvgl/src/display/lv_display.c ****     LV_ASSERT_NULL(disp);
 721:Lib/lvgl/src/display/lv_display.c **** 
 722:Lib/lvgl/src/display/lv_display.c ****     lv_event_add(&disp->event_list, event_cb, filter, user_data);
 723:Lib/lvgl/src/display/lv_display.c **** }
 724:Lib/lvgl/src/display/lv_display.c **** 
 725:Lib/lvgl/src/display/lv_display.c **** uint32_t lv_display_get_event_count(lv_display_t * disp)
 726:Lib/lvgl/src/display/lv_display.c **** {
 727:Lib/lvgl/src/display/lv_display.c ****     LV_ASSERT_NULL(disp);
 728:Lib/lvgl/src/display/lv_display.c ****     return lv_event_get_count(&disp->event_list);
 729:Lib/lvgl/src/display/lv_display.c **** }
 730:Lib/lvgl/src/display/lv_display.c **** 
 731:Lib/lvgl/src/display/lv_display.c **** lv_event_dsc_t * lv_display_get_event_dsc(lv_display_t * disp, uint32_t index)
 732:Lib/lvgl/src/display/lv_display.c **** {
 733:Lib/lvgl/src/display/lv_display.c ****     LV_ASSERT_NULL(disp);
 734:Lib/lvgl/src/display/lv_display.c ****     return lv_event_get_dsc(&disp->event_list, index);
 735:Lib/lvgl/src/display/lv_display.c **** 
 736:Lib/lvgl/src/display/lv_display.c **** }
 737:Lib/lvgl/src/display/lv_display.c **** 
 738:Lib/lvgl/src/display/lv_display.c **** bool lv_display_delete_event(lv_display_t * disp, uint32_t index)
 739:Lib/lvgl/src/display/lv_display.c **** {
 740:Lib/lvgl/src/display/lv_display.c ****     LV_ASSERT_NULL(disp);
 741:Lib/lvgl/src/display/lv_display.c **** 
 742:Lib/lvgl/src/display/lv_display.c ****     return lv_event_remove(&disp->event_list, index);
 743:Lib/lvgl/src/display/lv_display.c **** }
 744:Lib/lvgl/src/display/lv_display.c **** 
 745:Lib/lvgl/src/display/lv_display.c **** uint32_t lv_display_remove_event_cb_with_user_data(lv_display_t * disp, lv_event_cb_t event_cb, voi
 746:Lib/lvgl/src/display/lv_display.c **** {
 747:Lib/lvgl/src/display/lv_display.c ****     LV_ASSERT_NULL(disp);
 748:Lib/lvgl/src/display/lv_display.c **** 
 749:Lib/lvgl/src/display/lv_display.c ****     uint32_t event_cnt = lv_display_get_event_count(disp);
 750:Lib/lvgl/src/display/lv_display.c ****     uint32_t removed_count = 0;
 751:Lib/lvgl/src/display/lv_display.c ****     int32_t i;
 752:Lib/lvgl/src/display/lv_display.c **** 
 753:Lib/lvgl/src/display/lv_display.c ****     for(i = event_cnt - 1; i >= 0; i--) {
 754:Lib/lvgl/src/display/lv_display.c ****         lv_event_dsc_t * dsc = lv_display_get_event_dsc(disp, i);
 755:Lib/lvgl/src/display/lv_display.c ****         if(dsc && dsc->cb == event_cb && dsc->user_data == user_data) {
 756:Lib/lvgl/src/display/lv_display.c ****             lv_display_delete_event(disp, i);
 757:Lib/lvgl/src/display/lv_display.c ****             removed_count ++;
 758:Lib/lvgl/src/display/lv_display.c ****         }
 759:Lib/lvgl/src/display/lv_display.c ****     }
 760:Lib/lvgl/src/display/lv_display.c **** 
 761:Lib/lvgl/src/display/lv_display.c ****     return removed_count;
 762:Lib/lvgl/src/display/lv_display.c **** }
 763:Lib/lvgl/src/display/lv_display.c **** 
 764:Lib/lvgl/src/display/lv_display.c **** lv_result_t lv_display_send_event(lv_display_t * disp, lv_event_code_t code, void * param)
 765:Lib/lvgl/src/display/lv_display.c **** {
 766:Lib/lvgl/src/display/lv_display.c **** 
 767:Lib/lvgl/src/display/lv_display.c ****     lv_event_t e;
 768:Lib/lvgl/src/display/lv_display.c ****     lv_memzero(&e, sizeof(e));
 769:Lib/lvgl/src/display/lv_display.c ****     e.code = code;
 770:Lib/lvgl/src/display/lv_display.c ****     e.current_target = disp;
 771:Lib/lvgl/src/display/lv_display.c ****     e.original_target = disp;
ARM GAS  C:\Users\Alex\AppData\Local\Temp\cc0G22cc.s 			page 15


 772:Lib/lvgl/src/display/lv_display.c ****     e.param = param;
 773:Lib/lvgl/src/display/lv_display.c ****     lv_result_t res;
 774:Lib/lvgl/src/display/lv_display.c ****     res = lv_event_send(&disp->event_list, &e, true);
 775:Lib/lvgl/src/display/lv_display.c ****     if(res != LV_RESULT_OK) return res;
 776:Lib/lvgl/src/display/lv_display.c **** 
 777:Lib/lvgl/src/display/lv_display.c ****     res = lv_event_send(&disp->event_list, &e, false);
 778:Lib/lvgl/src/display/lv_display.c ****     if(res != LV_RESULT_OK) return res;
 779:Lib/lvgl/src/display/lv_display.c **** 
 780:Lib/lvgl/src/display/lv_display.c ****     return res;
 781:Lib/lvgl/src/display/lv_display.c **** }
 782:Lib/lvgl/src/display/lv_display.c **** 
 783:Lib/lvgl/src/display/lv_display.c **** void lv_display_set_rotation(lv_display_t * disp, lv_display_rotation_t rotation)
 784:Lib/lvgl/src/display/lv_display.c **** {
 785:Lib/lvgl/src/display/lv_display.c ****     if(disp == NULL) disp = lv_display_get_default();
 786:Lib/lvgl/src/display/lv_display.c ****     if(disp == NULL) return;
 787:Lib/lvgl/src/display/lv_display.c **** 
 788:Lib/lvgl/src/display/lv_display.c ****     disp->rotation = rotation;
 789:Lib/lvgl/src/display/lv_display.c ****     update_resolution(disp);
 790:Lib/lvgl/src/display/lv_display.c **** }
 791:Lib/lvgl/src/display/lv_display.c **** 
 792:Lib/lvgl/src/display/lv_display.c **** lv_display_rotation_t lv_display_get_rotation(lv_display_t * disp)
 793:Lib/lvgl/src/display/lv_display.c **** {
 794:Lib/lvgl/src/display/lv_display.c ****     if(disp == NULL) disp = lv_display_get_default();
 795:Lib/lvgl/src/display/lv_display.c ****     if(disp == NULL) return LV_DISPLAY_ROTATION_0;
 796:Lib/lvgl/src/display/lv_display.c ****     return disp->rotation;
 797:Lib/lvgl/src/display/lv_display.c **** }
 798:Lib/lvgl/src/display/lv_display.c **** 
 799:Lib/lvgl/src/display/lv_display.c **** void lv_display_set_theme(lv_display_t * disp, lv_theme_t * th)
 800:Lib/lvgl/src/display/lv_display.c **** {
 801:Lib/lvgl/src/display/lv_display.c ****     if(!disp) disp = lv_display_get_default();
 802:Lib/lvgl/src/display/lv_display.c ****     if(!disp) {
 803:Lib/lvgl/src/display/lv_display.c ****         LV_LOG_WARN("no display registered");
 804:Lib/lvgl/src/display/lv_display.c ****         return;
 805:Lib/lvgl/src/display/lv_display.c ****     }
 806:Lib/lvgl/src/display/lv_display.c **** 
 807:Lib/lvgl/src/display/lv_display.c ****     disp->theme = th;
 808:Lib/lvgl/src/display/lv_display.c **** 
 809:Lib/lvgl/src/display/lv_display.c ****     if(disp->screen_cnt == 4 &&
 810:Lib/lvgl/src/display/lv_display.c ****        lv_obj_get_child_count(disp->screens[0]) == 0 &&
 811:Lib/lvgl/src/display/lv_display.c ****        lv_obj_get_child_count(disp->screens[1]) == 0 &&
 812:Lib/lvgl/src/display/lv_display.c ****        lv_obj_get_child_count(disp->screens[2]) == 0) {
 813:Lib/lvgl/src/display/lv_display.c ****         lv_theme_apply(disp->screens[0]);
 814:Lib/lvgl/src/display/lv_display.c ****     }
 815:Lib/lvgl/src/display/lv_display.c **** }
 816:Lib/lvgl/src/display/lv_display.c **** 
 817:Lib/lvgl/src/display/lv_display.c **** lv_theme_t * lv_display_get_theme(lv_display_t * disp)
 818:Lib/lvgl/src/display/lv_display.c **** {
 819:Lib/lvgl/src/display/lv_display.c ****     if(disp == NULL) disp = lv_display_get_default();
 820:Lib/lvgl/src/display/lv_display.c ****     return disp->theme;
 821:Lib/lvgl/src/display/lv_display.c **** }
 822:Lib/lvgl/src/display/lv_display.c **** 
 823:Lib/lvgl/src/display/lv_display.c **** uint32_t lv_display_get_inactive_time(const lv_display_t * disp)
 824:Lib/lvgl/src/display/lv_display.c **** {
 825:Lib/lvgl/src/display/lv_display.c ****     if(disp) return lv_tick_elaps(disp->last_activity_time);
 826:Lib/lvgl/src/display/lv_display.c **** 
 827:Lib/lvgl/src/display/lv_display.c ****     lv_display_t * d;
 828:Lib/lvgl/src/display/lv_display.c ****     uint32_t t = UINT32_MAX;
ARM GAS  C:\Users\Alex\AppData\Local\Temp\cc0G22cc.s 			page 16


 829:Lib/lvgl/src/display/lv_display.c ****     d          = lv_display_get_next(NULL);
 830:Lib/lvgl/src/display/lv_display.c ****     while(d) {
 831:Lib/lvgl/src/display/lv_display.c ****         uint32_t elaps = lv_tick_elaps(d->last_activity_time);
 832:Lib/lvgl/src/display/lv_display.c ****         t = LV_MIN(t, elaps);
 833:Lib/lvgl/src/display/lv_display.c ****         d = lv_display_get_next(d);
 834:Lib/lvgl/src/display/lv_display.c ****     }
 835:Lib/lvgl/src/display/lv_display.c **** 
 836:Lib/lvgl/src/display/lv_display.c ****     return t;
 837:Lib/lvgl/src/display/lv_display.c **** }
 838:Lib/lvgl/src/display/lv_display.c **** 
 839:Lib/lvgl/src/display/lv_display.c **** void lv_display_trigger_activity(lv_display_t * disp)
 840:Lib/lvgl/src/display/lv_display.c **** {
 841:Lib/lvgl/src/display/lv_display.c ****     if(!disp) disp = lv_display_get_default();
 842:Lib/lvgl/src/display/lv_display.c ****     if(!disp) {
 843:Lib/lvgl/src/display/lv_display.c ****         LV_LOG_WARN("lv_display_trigger_activity: no display registered");
 844:Lib/lvgl/src/display/lv_display.c ****         return;
 845:Lib/lvgl/src/display/lv_display.c ****     }
 846:Lib/lvgl/src/display/lv_display.c **** 
 847:Lib/lvgl/src/display/lv_display.c ****     disp->last_activity_time = lv_tick_get();
 848:Lib/lvgl/src/display/lv_display.c **** }
 849:Lib/lvgl/src/display/lv_display.c **** 
 850:Lib/lvgl/src/display/lv_display.c **** void lv_display_enable_invalidation(lv_display_t * disp, bool en)
 851:Lib/lvgl/src/display/lv_display.c **** {
 852:Lib/lvgl/src/display/lv_display.c ****     if(!disp) disp = lv_display_get_default();
 853:Lib/lvgl/src/display/lv_display.c ****     if(!disp) {
 854:Lib/lvgl/src/display/lv_display.c ****         LV_LOG_WARN("no display registered");
 855:Lib/lvgl/src/display/lv_display.c ****         return;
 856:Lib/lvgl/src/display/lv_display.c ****     }
 857:Lib/lvgl/src/display/lv_display.c **** 
 858:Lib/lvgl/src/display/lv_display.c ****     disp->inv_en_cnt += en ? 1 : -1;
 859:Lib/lvgl/src/display/lv_display.c **** }
 860:Lib/lvgl/src/display/lv_display.c **** 
 861:Lib/lvgl/src/display/lv_display.c **** bool lv_display_is_invalidation_enabled(lv_display_t * disp)
 862:Lib/lvgl/src/display/lv_display.c **** {
 863:Lib/lvgl/src/display/lv_display.c ****     if(!disp) disp = lv_display_get_default();
 864:Lib/lvgl/src/display/lv_display.c ****     if(!disp) {
 865:Lib/lvgl/src/display/lv_display.c ****         LV_LOG_WARN("no display registered");
 866:Lib/lvgl/src/display/lv_display.c ****         return false;
 867:Lib/lvgl/src/display/lv_display.c ****     }
 868:Lib/lvgl/src/display/lv_display.c **** 
 869:Lib/lvgl/src/display/lv_display.c ****     return (disp->inv_en_cnt > 0);
 870:Lib/lvgl/src/display/lv_display.c **** }
 871:Lib/lvgl/src/display/lv_display.c **** 
 872:Lib/lvgl/src/display/lv_display.c **** lv_timer_t * lv_display_get_refr_timer(lv_display_t * disp)
 873:Lib/lvgl/src/display/lv_display.c **** {
 874:Lib/lvgl/src/display/lv_display.c ****     if(!disp) disp = lv_display_get_default();
 875:Lib/lvgl/src/display/lv_display.c ****     if(!disp) return NULL;
 876:Lib/lvgl/src/display/lv_display.c **** 
 877:Lib/lvgl/src/display/lv_display.c ****     return disp->refr_timer;
 878:Lib/lvgl/src/display/lv_display.c **** }
 879:Lib/lvgl/src/display/lv_display.c **** 
 880:Lib/lvgl/src/display/lv_display.c **** void lv_display_delete_refr_timer(lv_display_t * disp)
 881:Lib/lvgl/src/display/lv_display.c **** {
 882:Lib/lvgl/src/display/lv_display.c ****     if(!disp) disp = lv_display_get_default();
 883:Lib/lvgl/src/display/lv_display.c ****     if(!disp || !disp->refr_timer) return;
 884:Lib/lvgl/src/display/lv_display.c **** 
 885:Lib/lvgl/src/display/lv_display.c ****     lv_timer_delete(disp->refr_timer);
ARM GAS  C:\Users\Alex\AppData\Local\Temp\cc0G22cc.s 			page 17


 886:Lib/lvgl/src/display/lv_display.c ****     disp->refr_timer = NULL;
 887:Lib/lvgl/src/display/lv_display.c **** }
 888:Lib/lvgl/src/display/lv_display.c **** 
 889:Lib/lvgl/src/display/lv_display.c **** void lv_display_set_user_data(lv_display_t * disp, void * user_data)
 890:Lib/lvgl/src/display/lv_display.c **** {
 891:Lib/lvgl/src/display/lv_display.c ****     if(!disp) disp = lv_display_get_default();
 892:Lib/lvgl/src/display/lv_display.c ****     if(!disp) return;
 893:Lib/lvgl/src/display/lv_display.c ****     disp->user_data = user_data;
 894:Lib/lvgl/src/display/lv_display.c **** }
 895:Lib/lvgl/src/display/lv_display.c **** 
 896:Lib/lvgl/src/display/lv_display.c **** void lv_display_set_driver_data(lv_display_t * disp, void * driver_data)
 897:Lib/lvgl/src/display/lv_display.c **** {
 898:Lib/lvgl/src/display/lv_display.c ****     if(!disp) disp = lv_display_get_default();
 899:Lib/lvgl/src/display/lv_display.c ****     if(!disp) return;
 900:Lib/lvgl/src/display/lv_display.c **** 
 901:Lib/lvgl/src/display/lv_display.c ****     disp->driver_data = driver_data;
 902:Lib/lvgl/src/display/lv_display.c **** }
 903:Lib/lvgl/src/display/lv_display.c **** 
 904:Lib/lvgl/src/display/lv_display.c **** void * lv_display_get_user_data(lv_display_t * disp)
 905:Lib/lvgl/src/display/lv_display.c **** {
 906:Lib/lvgl/src/display/lv_display.c ****     if(!disp) disp = lv_display_get_default();
 907:Lib/lvgl/src/display/lv_display.c ****     if(!disp) return NULL;
 908:Lib/lvgl/src/display/lv_display.c ****     return disp->user_data;
 909:Lib/lvgl/src/display/lv_display.c **** }
 910:Lib/lvgl/src/display/lv_display.c **** 
 911:Lib/lvgl/src/display/lv_display.c **** void * lv_display_get_driver_data(lv_display_t * disp)
 912:Lib/lvgl/src/display/lv_display.c **** {
 913:Lib/lvgl/src/display/lv_display.c ****     if(!disp) disp = lv_display_get_default();
 914:Lib/lvgl/src/display/lv_display.c ****     if(!disp) return NULL;
 915:Lib/lvgl/src/display/lv_display.c **** 
 916:Lib/lvgl/src/display/lv_display.c ****     return disp->driver_data;
 917:Lib/lvgl/src/display/lv_display.c **** }
 918:Lib/lvgl/src/display/lv_display.c **** 
 919:Lib/lvgl/src/display/lv_display.c **** /**********************
 920:Lib/lvgl/src/display/lv_display.c ****  *   STATIC FUNCTIONS
 921:Lib/lvgl/src/display/lv_display.c ****  **********************/
 922:Lib/lvgl/src/display/lv_display.c **** 
 923:Lib/lvgl/src/display/lv_display.c **** static void update_resolution(lv_display_t * disp)
 924:Lib/lvgl/src/display/lv_display.c **** {
 925:Lib/lvgl/src/display/lv_display.c ****     int32_t hor_res = lv_display_get_horizontal_resolution(disp);
 926:Lib/lvgl/src/display/lv_display.c ****     int32_t ver_res = lv_display_get_vertical_resolution(disp);
 927:Lib/lvgl/src/display/lv_display.c **** 
 928:Lib/lvgl/src/display/lv_display.c ****     lv_area_t prev_coords;
 929:Lib/lvgl/src/display/lv_display.c ****     lv_obj_get_coords(disp->sys_layer, &prev_coords);
 930:Lib/lvgl/src/display/lv_display.c ****     uint32_t i;
 931:Lib/lvgl/src/display/lv_display.c ****     for(i = 0; i < disp->screen_cnt; i++) {
 932:Lib/lvgl/src/display/lv_display.c ****         lv_area_set_width(&disp->screens[i]->coords, hor_res);
 933:Lib/lvgl/src/display/lv_display.c ****         lv_area_set_height(&disp->screens[i]->coords, ver_res);
 934:Lib/lvgl/src/display/lv_display.c ****         lv_obj_send_event(disp->screens[i], LV_EVENT_SIZE_CHANGED, &prev_coords);
 935:Lib/lvgl/src/display/lv_display.c ****     }
 936:Lib/lvgl/src/display/lv_display.c **** 
 937:Lib/lvgl/src/display/lv_display.c ****     lv_area_set_width(&disp->top_layer->coords, hor_res);
 938:Lib/lvgl/src/display/lv_display.c ****     lv_area_set_height(&disp->top_layer->coords, ver_res);
 939:Lib/lvgl/src/display/lv_display.c ****     lv_obj_send_event(disp->top_layer, LV_EVENT_SIZE_CHANGED, &prev_coords);
 940:Lib/lvgl/src/display/lv_display.c **** 
 941:Lib/lvgl/src/display/lv_display.c ****     lv_area_set_width(&disp->sys_layer->coords, hor_res);
 942:Lib/lvgl/src/display/lv_display.c ****     lv_area_set_height(&disp->sys_layer->coords, ver_res);
ARM GAS  C:\Users\Alex\AppData\Local\Temp\cc0G22cc.s 			page 18


 943:Lib/lvgl/src/display/lv_display.c ****     lv_obj_send_event(disp->sys_layer, LV_EVENT_SIZE_CHANGED, &prev_coords);
 944:Lib/lvgl/src/display/lv_display.c **** 
 945:Lib/lvgl/src/display/lv_display.c ****     lv_area_set_width(&disp->bottom_layer->coords, hor_res);
 946:Lib/lvgl/src/display/lv_display.c ****     lv_area_set_height(&disp->bottom_layer->coords, ver_res);
 947:Lib/lvgl/src/display/lv_display.c ****     lv_obj_send_event(disp->bottom_layer, LV_EVENT_SIZE_CHANGED, &prev_coords);
 948:Lib/lvgl/src/display/lv_display.c **** 
 949:Lib/lvgl/src/display/lv_display.c ****     lv_memzero(disp->inv_areas, sizeof(disp->inv_areas));
 950:Lib/lvgl/src/display/lv_display.c ****     lv_memzero(disp->inv_area_joined, sizeof(disp->inv_area_joined));
 951:Lib/lvgl/src/display/lv_display.c ****     disp->inv_p = 0;
 952:Lib/lvgl/src/display/lv_display.c ****     lv_obj_invalidate(disp->sys_layer);
 953:Lib/lvgl/src/display/lv_display.c **** 
 954:Lib/lvgl/src/display/lv_display.c ****     lv_obj_tree_walk(NULL, invalidate_layout_cb, NULL);
 955:Lib/lvgl/src/display/lv_display.c **** 
 956:Lib/lvgl/src/display/lv_display.c ****     lv_display_send_event(disp, LV_EVENT_RESOLUTION_CHANGED, NULL);
 957:Lib/lvgl/src/display/lv_display.c **** }
 958:Lib/lvgl/src/display/lv_display.c **** 
 959:Lib/lvgl/src/display/lv_display.c **** static lv_obj_tree_walk_res_t invalidate_layout_cb(lv_obj_t * obj, void * user_data)
 960:Lib/lvgl/src/display/lv_display.c **** {
 961:Lib/lvgl/src/display/lv_display.c ****     LV_UNUSED(user_data);
 962:Lib/lvgl/src/display/lv_display.c ****     lv_obj_mark_layout_as_dirty(obj);
 963:Lib/lvgl/src/display/lv_display.c ****     return LV_OBJ_TREE_WALK_NEXT;
 964:Lib/lvgl/src/display/lv_display.c **** }
 965:Lib/lvgl/src/display/lv_display.c **** 
 966:Lib/lvgl/src/display/lv_display.c **** static void scr_load_internal(lv_obj_t * scr)
 967:Lib/lvgl/src/display/lv_display.c **** {
 968:Lib/lvgl/src/display/lv_display.c ****     /*scr must not be NULL, but d->act_scr might be*/
 969:Lib/lvgl/src/display/lv_display.c ****     LV_ASSERT_NULL(scr);
 970:Lib/lvgl/src/display/lv_display.c ****     if(scr == NULL) return;
 971:Lib/lvgl/src/display/lv_display.c **** 
 972:Lib/lvgl/src/display/lv_display.c ****     lv_display_t * d = lv_obj_get_display(scr);
 973:Lib/lvgl/src/display/lv_display.c ****     if(!d) return;  /*Shouldn't happen, just to be sure*/
 974:Lib/lvgl/src/display/lv_display.c **** 
 975:Lib/lvgl/src/display/lv_display.c ****     lv_obj_t * old_scr = d->act_scr;
 976:Lib/lvgl/src/display/lv_display.c **** 
 977:Lib/lvgl/src/display/lv_display.c ****     if(old_scr) lv_obj_send_event(old_scr, LV_EVENT_SCREEN_UNLOAD_START, NULL);
 978:Lib/lvgl/src/display/lv_display.c ****     lv_obj_send_event(scr, LV_EVENT_SCREEN_LOAD_START, NULL);
 979:Lib/lvgl/src/display/lv_display.c **** 
 980:Lib/lvgl/src/display/lv_display.c ****     d->act_scr = scr;
 981:Lib/lvgl/src/display/lv_display.c ****     d->scr_to_load = NULL;
 982:Lib/lvgl/src/display/lv_display.c **** 
 983:Lib/lvgl/src/display/lv_display.c ****     lv_obj_send_event(scr, LV_EVENT_SCREEN_LOADED, NULL);
 984:Lib/lvgl/src/display/lv_display.c ****     if(old_scr) lv_obj_send_event(old_scr, LV_EVENT_SCREEN_UNLOADED, NULL);
 985:Lib/lvgl/src/display/lv_display.c **** 
 986:Lib/lvgl/src/display/lv_display.c ****     lv_obj_invalidate(scr);
 987:Lib/lvgl/src/display/lv_display.c **** }
 988:Lib/lvgl/src/display/lv_display.c **** 
 989:Lib/lvgl/src/display/lv_display.c **** static void scr_load_anim_start(lv_anim_t * a)
 990:Lib/lvgl/src/display/lv_display.c **** {
 991:Lib/lvgl/src/display/lv_display.c ****     lv_display_t * d = lv_obj_get_display(a->var);
 992:Lib/lvgl/src/display/lv_display.c **** 
 993:Lib/lvgl/src/display/lv_display.c ****     d->prev_scr = lv_screen_active();
 994:Lib/lvgl/src/display/lv_display.c ****     d->act_scr = a->var;
 995:Lib/lvgl/src/display/lv_display.c **** 
 996:Lib/lvgl/src/display/lv_display.c ****     lv_obj_send_event(d->act_scr, LV_EVENT_SCREEN_LOAD_START, NULL);
 997:Lib/lvgl/src/display/lv_display.c **** }
 998:Lib/lvgl/src/display/lv_display.c **** 
 999:Lib/lvgl/src/display/lv_display.c **** static void opa_scale_anim(void * obj, int32_t v)
ARM GAS  C:\Users\Alex\AppData\Local\Temp\cc0G22cc.s 			page 19


1000:Lib/lvgl/src/display/lv_display.c **** {
1001:Lib/lvgl/src/display/lv_display.c ****     lv_obj_set_style_opa(obj, v, 0);
1002:Lib/lvgl/src/display/lv_display.c **** }
1003:Lib/lvgl/src/display/lv_display.c **** 
1004:Lib/lvgl/src/display/lv_display.c **** static void set_x_anim(void * obj, int32_t v)
1005:Lib/lvgl/src/display/lv_display.c **** {
1006:Lib/lvgl/src/display/lv_display.c ****     lv_obj_set_x(obj, v);
1007:Lib/lvgl/src/display/lv_display.c **** }
1008:Lib/lvgl/src/display/lv_display.c **** 
1009:Lib/lvgl/src/display/lv_display.c **** static void set_y_anim(void * obj, int32_t v)
1010:Lib/lvgl/src/display/lv_display.c **** {
1011:Lib/lvgl/src/display/lv_display.c ****     lv_obj_set_y(obj, v);
1012:Lib/lvgl/src/display/lv_display.c **** }
1013:Lib/lvgl/src/display/lv_display.c **** 
1014:Lib/lvgl/src/display/lv_display.c **** static void scr_anim_completed(lv_anim_t * a)
1015:Lib/lvgl/src/display/lv_display.c **** {
1016:Lib/lvgl/src/display/lv_display.c ****     lv_display_t * d = lv_obj_get_display(a->var);
1017:Lib/lvgl/src/display/lv_display.c **** 
1018:Lib/lvgl/src/display/lv_display.c ****     lv_obj_send_event(d->act_scr, LV_EVENT_SCREEN_LOADED, NULL);
1019:Lib/lvgl/src/display/lv_display.c ****     lv_obj_send_event(d->prev_scr, LV_EVENT_SCREEN_UNLOADED, NULL);
1020:Lib/lvgl/src/display/lv_display.c **** 
1021:Lib/lvgl/src/display/lv_display.c ****     if(d->prev_scr && d->del_prev) lv_obj_delete(d->prev_scr);
1022:Lib/lvgl/src/display/lv_display.c ****     d->prev_scr = NULL;
1023:Lib/lvgl/src/display/lv_display.c ****     d->draw_prev_over_act = false;
1024:Lib/lvgl/src/display/lv_display.c ****     d->scr_to_load = NULL;
1025:Lib/lvgl/src/display/lv_display.c ****     lv_obj_remove_local_style_prop(a->var, LV_STYLE_OPA, 0);
1026:Lib/lvgl/src/display/lv_display.c ****     lv_obj_invalidate(d->act_scr);
1027:Lib/lvgl/src/display/lv_display.c **** }
1028:Lib/lvgl/src/display/lv_display.c **** 
1029:Lib/lvgl/src/display/lv_display.c **** static bool is_out_anim(lv_screen_load_anim_t anim_type)
1030:Lib/lvgl/src/display/lv_display.c **** {
  29              		.loc 1 1030 1 view -0
  30              		.cfi_startproc
  31              		@ args = 0, pretend = 0, frame = 0
  32              		@ frame_needed = 0, uses_anonymous_args = 0
  33              		@ link register save eliminated.
1031:Lib/lvgl/src/display/lv_display.c ****     return anim_type == LV_SCR_LOAD_ANIM_FADE_OUT  ||
  34              		.loc 1 1031 5 view .LVU1
1032:Lib/lvgl/src/display/lv_display.c ****            anim_type == LV_SCR_LOAD_ANIM_OUT_LEFT  ||
1033:Lib/lvgl/src/display/lv_display.c ****            anim_type == LV_SCR_LOAD_ANIM_OUT_RIGHT ||
1034:Lib/lvgl/src/display/lv_display.c ****            anim_type == LV_SCR_LOAD_ANIM_OUT_TOP   ||
  35              		.loc 1 1034 52 is_stmt 0 view .LVU2
  36 0000 0A38     		subs	r0, r0, #10
  37              	.LVL1:
  38              		.loc 1 1034 52 view .LVU3
  39 0002 C0B2     		uxtb	r0, r0
1035:Lib/lvgl/src/display/lv_display.c ****            anim_type == LV_SCR_LOAD_ANIM_OUT_BOTTOM;
1036:Lib/lvgl/src/display/lv_display.c **** }
  40              		.loc 1 1036 1 view .LVU4
  41 0004 0428     		cmp	r0, #4
  42 0006 8CBF     		ite	hi
  43 0008 0020     		movhi	r0, #0
  44 000a 0120     		movls	r0, #1
  45 000c 7047     		bx	lr
  46              		.cfi_endproc
  47              	.LFE297:
  49              		.section	.text.disp_event_cb,"ax",%progbits
ARM GAS  C:\Users\Alex\AppData\Local\Temp\cc0G22cc.s 			page 20


  50              		.align	1
  51              		.syntax unified
  52              		.thumb
  53              		.thumb_func
  55              	disp_event_cb:
  56              	.LVL2:
  57              	.LFB298:
1037:Lib/lvgl/src/display/lv_display.c **** 
1038:Lib/lvgl/src/display/lv_display.c **** static void disp_event_cb(lv_event_t * e)
1039:Lib/lvgl/src/display/lv_display.c **** {
  58              		.loc 1 1039 1 is_stmt 1 view -0
  59              		.cfi_startproc
  60              		@ args = 0, pretend = 0, frame = 0
  61              		@ frame_needed = 0, uses_anonymous_args = 0
  62              		.loc 1 1039 1 is_stmt 0 view .LVU6
  63 0000 38B5     		push	{r3, r4, r5, lr}
  64              	.LCFI0:
  65              		.cfi_def_cfa_offset 16
  66              		.cfi_offset 3, -16
  67              		.cfi_offset 4, -12
  68              		.cfi_offset 5, -8
  69              		.cfi_offset 14, -4
  70 0002 0546     		mov	r5, r0
1040:Lib/lvgl/src/display/lv_display.c ****     lv_event_code_t code = lv_event_get_code(e);
  71              		.loc 1 1040 5 is_stmt 1 view .LVU7
  72              		.loc 1 1040 28 is_stmt 0 view .LVU8
  73 0004 FFF7FEFF 		bl	lv_event_get_code
  74              	.LVL3:
  75              		.loc 1 1040 28 view .LVU9
  76 0008 0446     		mov	r4, r0
  77              	.LVL4:
1041:Lib/lvgl/src/display/lv_display.c ****     lv_display_t * disp = lv_event_get_target(e);
  78              		.loc 1 1041 5 is_stmt 1 view .LVU10
  79              		.loc 1 1041 27 is_stmt 0 view .LVU11
  80 000a 2846     		mov	r0, r5
  81 000c FFF7FEFF 		bl	lv_event_get_target
  82              	.LVL5:
1042:Lib/lvgl/src/display/lv_display.c ****     switch(code) {
  83              		.loc 1 1042 5 is_stmt 1 view .LVU12
  84 0010 322C     		cmp	r4, #50
  85 0012 00D0     		beq	.L5
  86              	.LVL6:
  87              	.L2:
1043:Lib/lvgl/src/display/lv_display.c ****         case LV_EVENT_REFR_REQUEST:
1044:Lib/lvgl/src/display/lv_display.c ****             if(disp->refr_timer) lv_timer_resume(disp->refr_timer);
1045:Lib/lvgl/src/display/lv_display.c ****             break;
1046:Lib/lvgl/src/display/lv_display.c **** 
1047:Lib/lvgl/src/display/lv_display.c ****         default:
1048:Lib/lvgl/src/display/lv_display.c ****             break;
1049:Lib/lvgl/src/display/lv_display.c ****     }
1050:Lib/lvgl/src/display/lv_display.c **** }
  88              		.loc 1 1050 1 is_stmt 0 view .LVU13
  89 0014 38BD     		pop	{r3, r4, r5, pc}
  90              	.LVL7:
  91              	.L5:
1044:Lib/lvgl/src/display/lv_display.c ****             break;
  92              		.loc 1 1044 13 is_stmt 1 view .LVU14
ARM GAS  C:\Users\Alex\AppData\Local\Temp\cc0G22cc.s 			page 21


1044:Lib/lvgl/src/display/lv_display.c ****             break;
  93              		.loc 1 1044 20 is_stmt 0 view .LVU15
  94 0016 D0F8F002 		ldr	r0, [r0, #752]
  95              	.LVL8:
1044:Lib/lvgl/src/display/lv_display.c ****             break;
  96              		.loc 1 1044 15 view .LVU16
  97 001a 0028     		cmp	r0, #0
  98 001c FAD0     		beq	.L2
1044:Lib/lvgl/src/display/lv_display.c ****             break;
  99              		.loc 1 1044 34 is_stmt 1 discriminator 1 view .LVU17
 100 001e FFF7FEFF 		bl	lv_timer_resume
 101              	.LVL9:
 102              		.loc 1 1050 1 is_stmt 0 discriminator 1 view .LVU18
 103 0022 F7E7     		b	.L2
 104              		.cfi_endproc
 105              	.LFE298:
 107              		.section	.text.invalidate_layout_cb,"ax",%progbits
 108              		.align	1
 109              		.syntax unified
 110              		.thumb
 111              		.thumb_func
 113              	invalidate_layout_cb:
 114              	.LVL10:
 115              	.LFB290:
 960:Lib/lvgl/src/display/lv_display.c ****     LV_UNUSED(user_data);
 116              		.loc 1 960 1 is_stmt 1 view -0
 117              		.cfi_startproc
 118              		@ args = 0, pretend = 0, frame = 0
 119              		@ frame_needed = 0, uses_anonymous_args = 0
 960:Lib/lvgl/src/display/lv_display.c ****     LV_UNUSED(user_data);
 120              		.loc 1 960 1 is_stmt 0 view .LVU20
 121 0000 08B5     		push	{r3, lr}
 122              	.LCFI1:
 123              		.cfi_def_cfa_offset 8
 124              		.cfi_offset 3, -8
 125              		.cfi_offset 14, -4
 961:Lib/lvgl/src/display/lv_display.c ****     lv_obj_mark_layout_as_dirty(obj);
 126              		.loc 1 961 5 is_stmt 1 view .LVU21
 962:Lib/lvgl/src/display/lv_display.c ****     return LV_OBJ_TREE_WALK_NEXT;
 127              		.loc 1 962 5 view .LVU22
 128 0002 FFF7FEFF 		bl	lv_obj_mark_layout_as_dirty
 129              	.LVL11:
 963:Lib/lvgl/src/display/lv_display.c **** }
 130              		.loc 1 963 5 view .LVU23
 964:Lib/lvgl/src/display/lv_display.c **** 
 131              		.loc 1 964 1 is_stmt 0 view .LVU24
 132 0006 0020     		movs	r0, #0
 133 0008 08BD     		pop	{r3, pc}
 134              		.cfi_endproc
 135              	.LFE290:
 137              		.section	.text.scr_load_internal,"ax",%progbits
 138              		.align	1
 139              		.syntax unified
 140              		.thumb
 141              		.thumb_func
 143              	scr_load_internal:
 144              	.LVL12:
ARM GAS  C:\Users\Alex\AppData\Local\Temp\cc0G22cc.s 			page 22


 145              	.LFB291:
 967:Lib/lvgl/src/display/lv_display.c ****     /*scr must not be NULL, but d->act_scr might be*/
 146              		.loc 1 967 1 is_stmt 1 view -0
 147              		.cfi_startproc
 148              		@ args = 0, pretend = 0, frame = 0
 149              		@ frame_needed = 0, uses_anonymous_args = 0
 969:Lib/lvgl/src/display/lv_display.c ****     if(scr == NULL) return;
 150              		.loc 1 969 5 view .LVU26
 969:Lib/lvgl/src/display/lv_display.c ****     if(scr == NULL) return;
 151              		.loc 1 969 5 view .LVU27
 152 0000 28B3     		cbz	r0, .L10
 967:Lib/lvgl/src/display/lv_display.c ****     /*scr must not be NULL, but d->act_scr might be*/
 153              		.loc 1 967 1 is_stmt 0 view .LVU28
 154 0002 70B5     		push	{r4, r5, r6, lr}
 155              	.LCFI2:
 156              		.cfi_def_cfa_offset 16
 157              		.cfi_offset 4, -16
 158              		.cfi_offset 5, -12
 159              		.cfi_offset 6, -8
 160              		.cfi_offset 14, -4
 161 0004 0446     		mov	r4, r0
 969:Lib/lvgl/src/display/lv_display.c ****     if(scr == NULL) return;
 162              		.loc 1 969 5 is_stmt 1 view .LVU29
 969:Lib/lvgl/src/display/lv_display.c ****     if(scr == NULL) return;
 163              		.loc 1 969 24 view .LVU30
 970:Lib/lvgl/src/display/lv_display.c **** 
 164              		.loc 1 970 5 view .LVU31
 972:Lib/lvgl/src/display/lv_display.c ****     if(!d) return;  /*Shouldn't happen, just to be sure*/
 165              		.loc 1 972 5 view .LVU32
 972:Lib/lvgl/src/display/lv_display.c ****     if(!d) return;  /*Shouldn't happen, just to be sure*/
 166              		.loc 1 972 24 is_stmt 0 view .LVU33
 167 0006 FFF7FEFF 		bl	lv_obj_get_display
 168              	.LVL13:
 973:Lib/lvgl/src/display/lv_display.c **** 
 169              		.loc 1 973 5 is_stmt 1 view .LVU34
 973:Lib/lvgl/src/display/lv_display.c **** 
 170              		.loc 1 973 7 is_stmt 0 view .LVU35
 171 000a 0546     		mov	r5, r0
 172 000c F0B1     		cbz	r0, .L8
 975:Lib/lvgl/src/display/lv_display.c **** 
 173              		.loc 1 975 5 is_stmt 1 view .LVU36
 975:Lib/lvgl/src/display/lv_display.c **** 
 174              		.loc 1 975 16 is_stmt 0 view .LVU37
 175 000e D0F8B062 		ldr	r6, [r0, #688]
 176              	.LVL14:
 977:Lib/lvgl/src/display/lv_display.c ****     lv_obj_send_event(scr, LV_EVENT_SCREEN_LOAD_START, NULL);
 177              		.loc 1 977 5 is_stmt 1 view .LVU38
 977:Lib/lvgl/src/display/lv_display.c ****     lv_obj_send_event(scr, LV_EVENT_SCREEN_LOAD_START, NULL);
 178              		.loc 1 977 7 is_stmt 0 view .LVU39
 179 0012 26B1     		cbz	r6, .L12
 977:Lib/lvgl/src/display/lv_display.c ****     lv_obj_send_event(scr, LV_EVENT_SCREEN_LOAD_START, NULL);
 180              		.loc 1 977 17 is_stmt 1 discriminator 1 view .LVU40
 181 0014 0022     		movs	r2, #0
 182 0016 2721     		movs	r1, #39
 183 0018 3046     		mov	r0, r6
 184              	.LVL15:
 977:Lib/lvgl/src/display/lv_display.c ****     lv_obj_send_event(scr, LV_EVENT_SCREEN_LOAD_START, NULL);
ARM GAS  C:\Users\Alex\AppData\Local\Temp\cc0G22cc.s 			page 23


 185              		.loc 1 977 17 is_stmt 0 discriminator 1 view .LVU41
 186 001a FFF7FEFF 		bl	lv_obj_send_event
 187              	.LVL16:
 188              	.L12:
 978:Lib/lvgl/src/display/lv_display.c **** 
 189              		.loc 1 978 5 is_stmt 1 view .LVU42
 190 001e 0022     		movs	r2, #0
 191 0020 2821     		movs	r1, #40
 192 0022 2046     		mov	r0, r4
 193 0024 FFF7FEFF 		bl	lv_obj_send_event
 194              	.LVL17:
 980:Lib/lvgl/src/display/lv_display.c ****     d->scr_to_load = NULL;
 195              		.loc 1 980 5 view .LVU43
 980:Lib/lvgl/src/display/lv_display.c ****     d->scr_to_load = NULL;
 196              		.loc 1 980 16 is_stmt 0 view .LVU44
 197 0028 C5F8B042 		str	r4, [r5, #688]
 981:Lib/lvgl/src/display/lv_display.c **** 
 198              		.loc 1 981 5 is_stmt 1 view .LVU45
 981:Lib/lvgl/src/display/lv_display.c **** 
 199              		.loc 1 981 20 is_stmt 0 view .LVU46
 200 002c 0022     		movs	r2, #0
 201 002e C5F8B822 		str	r2, [r5, #696]
 983:Lib/lvgl/src/display/lv_display.c ****     if(old_scr) lv_obj_send_event(old_scr, LV_EVENT_SCREEN_UNLOADED, NULL);
 202              		.loc 1 983 5 is_stmt 1 view .LVU47
 203 0032 2921     		movs	r1, #41
 204 0034 2046     		mov	r0, r4
 205 0036 FFF7FEFF 		bl	lv_obj_send_event
 206              	.LVL18:
 984:Lib/lvgl/src/display/lv_display.c **** 
 207              		.loc 1 984 5 view .LVU48
 984:Lib/lvgl/src/display/lv_display.c **** 
 208              		.loc 1 984 7 is_stmt 0 view .LVU49
 209 003a 26B1     		cbz	r6, .L13
 984:Lib/lvgl/src/display/lv_display.c **** 
 210              		.loc 1 984 17 is_stmt 1 discriminator 1 view .LVU50
 211 003c 0022     		movs	r2, #0
 212 003e 2A21     		movs	r1, #42
 213 0040 3046     		mov	r0, r6
 214 0042 FFF7FEFF 		bl	lv_obj_send_event
 215              	.LVL19:
 216              	.L13:
 986:Lib/lvgl/src/display/lv_display.c **** }
 217              		.loc 1 986 5 view .LVU51
 218 0046 2046     		mov	r0, r4
 219 0048 FFF7FEFF 		bl	lv_obj_invalidate
 220              	.LVL20:
 221              	.L8:
 987:Lib/lvgl/src/display/lv_display.c **** 
 222              		.loc 1 987 1 is_stmt 0 view .LVU52
 223 004c 70BD     		pop	{r4, r5, r6, pc}
 224              	.LVL21:
 225              	.L10:
 226              	.LCFI3:
 227              		.cfi_def_cfa_offset 0
 228              		.cfi_restore 4
 229              		.cfi_restore 5
 230              		.cfi_restore 6
ARM GAS  C:\Users\Alex\AppData\Local\Temp\cc0G22cc.s 			page 24


 231              		.cfi_restore 14
 969:Lib/lvgl/src/display/lv_display.c ****     if(scr == NULL) return;
 232              		.loc 1 969 5 is_stmt 1 discriminator 1 view .LVU53
 969:Lib/lvgl/src/display/lv_display.c ****     if(scr == NULL) return;
 233              		.loc 1 969 5 discriminator 1 view .LVU54
 969:Lib/lvgl/src/display/lv_display.c ****     if(scr == NULL) return;
 234              		.loc 1 969 5 discriminator 1 view .LVU55
 969:Lib/lvgl/src/display/lv_display.c ****     if(scr == NULL) return;
 235              		.loc 1 969 5 discriminator 1 view .LVU56
 969:Lib/lvgl/src/display/lv_display.c ****     if(scr == NULL) return;
 236              		.loc 1 969 5 discriminator 1 view .LVU57
 237 004e FEE7     		b	.L10
 238              		.cfi_endproc
 239              	.LFE291:
 241              		.section	.text.scr_anim_completed,"ax",%progbits
 242              		.align	1
 243              		.syntax unified
 244              		.thumb
 245              		.thumb_func
 247              	scr_anim_completed:
 248              	.LVL22:
 249              	.LFB296:
1015:Lib/lvgl/src/display/lv_display.c ****     lv_display_t * d = lv_obj_get_display(a->var);
 250              		.loc 1 1015 1 view -0
 251              		.cfi_startproc
 252              		@ args = 0, pretend = 0, frame = 0
 253              		@ frame_needed = 0, uses_anonymous_args = 0
1015:Lib/lvgl/src/display/lv_display.c ****     lv_display_t * d = lv_obj_get_display(a->var);
 254              		.loc 1 1015 1 is_stmt 0 view .LVU59
 255 0000 38B5     		push	{r3, r4, r5, lr}
 256              	.LCFI4:
 257              		.cfi_def_cfa_offset 16
 258              		.cfi_offset 3, -16
 259              		.cfi_offset 4, -12
 260              		.cfi_offset 5, -8
 261              		.cfi_offset 14, -4
 262 0002 0546     		mov	r5, r0
1016:Lib/lvgl/src/display/lv_display.c **** 
 263              		.loc 1 1016 5 is_stmt 1 view .LVU60
1016:Lib/lvgl/src/display/lv_display.c **** 
 264              		.loc 1 1016 24 is_stmt 0 view .LVU61
 265 0004 0068     		ldr	r0, [r0]
 266              	.LVL23:
1016:Lib/lvgl/src/display/lv_display.c **** 
 267              		.loc 1 1016 24 view .LVU62
 268 0006 FFF7FEFF 		bl	lv_obj_get_display
 269              	.LVL24:
 270 000a 0446     		mov	r4, r0
 271              	.LVL25:
1018:Lib/lvgl/src/display/lv_display.c ****     lv_obj_send_event(d->prev_scr, LV_EVENT_SCREEN_UNLOADED, NULL);
 272              		.loc 1 1018 5 is_stmt 1 view .LVU63
 273 000c 0022     		movs	r2, #0
 274 000e 2921     		movs	r1, #41
 275 0010 D0F8B002 		ldr	r0, [r0, #688]
 276              	.LVL26:
1018:Lib/lvgl/src/display/lv_display.c ****     lv_obj_send_event(d->prev_scr, LV_EVENT_SCREEN_UNLOADED, NULL);
 277              		.loc 1 1018 5 is_stmt 0 view .LVU64
ARM GAS  C:\Users\Alex\AppData\Local\Temp\cc0G22cc.s 			page 25


 278 0014 FFF7FEFF 		bl	lv_obj_send_event
 279              	.LVL27:
1019:Lib/lvgl/src/display/lv_display.c **** 
 280              		.loc 1 1019 5 is_stmt 1 view .LVU65
 281 0018 0022     		movs	r2, #0
 282 001a 2A21     		movs	r1, #42
 283 001c D4F8B402 		ldr	r0, [r4, #692]
 284 0020 FFF7FEFF 		bl	lv_obj_send_event
 285              	.LVL28:
1021:Lib/lvgl/src/display/lv_display.c ****     d->prev_scr = NULL;
 286              		.loc 1 1021 5 view .LVU66
1021:Lib/lvgl/src/display/lv_display.c ****     d->prev_scr = NULL;
 287              		.loc 1 1021 9 is_stmt 0 view .LVU67
 288 0024 D4F8B402 		ldr	r0, [r4, #692]
1021:Lib/lvgl/src/display/lv_display.c ****     d->prev_scr = NULL;
 289              		.loc 1 1021 7 view .LVU68
 290 0028 20B1     		cbz	r0, .L17
1021:Lib/lvgl/src/display/lv_display.c ****     d->prev_scr = NULL;
 291              		.loc 1 1021 20 discriminator 1 view .LVU69
 292 002a 94F8CC32 		ldrb	r3, [r4, #716]	@ zero_extendqisi2
 293 002e 13F0020F 		tst	r3, #2
 294 0032 13D1     		bne	.L19
 295              	.L17:
1022:Lib/lvgl/src/display/lv_display.c ****     d->draw_prev_over_act = false;
 296              		.loc 1 1022 5 is_stmt 1 view .LVU70
1022:Lib/lvgl/src/display/lv_display.c ****     d->draw_prev_over_act = false;
 297              		.loc 1 1022 17 is_stmt 0 view .LVU71
 298 0034 0022     		movs	r2, #0
 299 0036 C4F8B422 		str	r2, [r4, #692]
1023:Lib/lvgl/src/display/lv_display.c ****     d->scr_to_load = NULL;
 300              		.loc 1 1023 5 is_stmt 1 view .LVU72
1023:Lib/lvgl/src/display/lv_display.c ****     d->scr_to_load = NULL;
 301              		.loc 1 1023 27 is_stmt 0 view .LVU73
 302 003a 94F8CC32 		ldrb	r3, [r4, #716]	@ zero_extendqisi2
 303 003e 62F30003 		bfi	r3, r2, #0, #1
 304 0042 84F8CC32 		strb	r3, [r4, #716]
1024:Lib/lvgl/src/display/lv_display.c ****     lv_obj_remove_local_style_prop(a->var, LV_STYLE_OPA, 0);
 305              		.loc 1 1024 5 is_stmt 1 view .LVU74
1024:Lib/lvgl/src/display/lv_display.c ****     lv_obj_remove_local_style_prop(a->var, LV_STYLE_OPA, 0);
 306              		.loc 1 1024 20 is_stmt 0 view .LVU75
 307 0046 C4F8B822 		str	r2, [r4, #696]
1025:Lib/lvgl/src/display/lv_display.c ****     lv_obj_invalidate(d->act_scr);
 308              		.loc 1 1025 5 is_stmt 1 view .LVU76
 309 004a 5F21     		movs	r1, #95
 310 004c 2868     		ldr	r0, [r5]
 311 004e FFF7FEFF 		bl	lv_obj_remove_local_style_prop
 312              	.LVL29:
1026:Lib/lvgl/src/display/lv_display.c **** }
 313              		.loc 1 1026 5 view .LVU77
 314 0052 D4F8B002 		ldr	r0, [r4, #688]
 315 0056 FFF7FEFF 		bl	lv_obj_invalidate
 316              	.LVL30:
1027:Lib/lvgl/src/display/lv_display.c **** 
 317              		.loc 1 1027 1 is_stmt 0 view .LVU78
 318 005a 38BD     		pop	{r3, r4, r5, pc}
 319              	.LVL31:
 320              	.L19:
ARM GAS  C:\Users\Alex\AppData\Local\Temp\cc0G22cc.s 			page 26


1021:Lib/lvgl/src/display/lv_display.c ****     d->prev_scr = NULL;
 321              		.loc 1 1021 36 is_stmt 1 discriminator 2 view .LVU79
 322 005c FFF7FEFF 		bl	lv_obj_delete
 323              	.LVL32:
 324 0060 E8E7     		b	.L17
 325              		.cfi_endproc
 326              	.LFE296:
 328              		.section	.text.opa_scale_anim,"ax",%progbits
 329              		.align	1
 330              		.syntax unified
 331              		.thumb
 332              		.thumb_func
 334              	opa_scale_anim:
 335              	.LVL33:
 336              	.LFB293:
1000:Lib/lvgl/src/display/lv_display.c ****     lv_obj_set_style_opa(obj, v, 0);
 337              		.loc 1 1000 1 view -0
 338              		.cfi_startproc
 339              		@ args = 0, pretend = 0, frame = 0
 340              		@ frame_needed = 0, uses_anonymous_args = 0
1000:Lib/lvgl/src/display/lv_display.c ****     lv_obj_set_style_opa(obj, v, 0);
 341              		.loc 1 1000 1 is_stmt 0 view .LVU81
 342 0000 08B5     		push	{r3, lr}
 343              	.LCFI5:
 344              		.cfi_def_cfa_offset 8
 345              		.cfi_offset 3, -8
 346              		.cfi_offset 14, -4
1001:Lib/lvgl/src/display/lv_display.c **** }
 347              		.loc 1 1001 5 is_stmt 1 view .LVU82
 348 0002 0022     		movs	r2, #0
 349 0004 C9B2     		uxtb	r1, r1
 350              	.LVL34:
1001:Lib/lvgl/src/display/lv_display.c **** }
 351              		.loc 1 1001 5 is_stmt 0 view .LVU83
 352 0006 FFF7FEFF 		bl	lv_obj_set_style_opa
 353              	.LVL35:
1002:Lib/lvgl/src/display/lv_display.c **** 
 354              		.loc 1 1002 1 view .LVU84
 355 000a 08BD     		pop	{r3, pc}
 356              		.cfi_endproc
 357              	.LFE293:
 359              		.section	.text.set_y_anim,"ax",%progbits
 360              		.align	1
 361              		.syntax unified
 362              		.thumb
 363              		.thumb_func
 365              	set_y_anim:
 366              	.LVL36:
 367              	.LFB295:
1010:Lib/lvgl/src/display/lv_display.c ****     lv_obj_set_y(obj, v);
 368              		.loc 1 1010 1 is_stmt 1 view -0
 369              		.cfi_startproc
 370              		@ args = 0, pretend = 0, frame = 0
 371              		@ frame_needed = 0, uses_anonymous_args = 0
1010:Lib/lvgl/src/display/lv_display.c ****     lv_obj_set_y(obj, v);
 372              		.loc 1 1010 1 is_stmt 0 view .LVU86
 373 0000 08B5     		push	{r3, lr}
ARM GAS  C:\Users\Alex\AppData\Local\Temp\cc0G22cc.s 			page 27


 374              	.LCFI6:
 375              		.cfi_def_cfa_offset 8
 376              		.cfi_offset 3, -8
 377              		.cfi_offset 14, -4
1011:Lib/lvgl/src/display/lv_display.c **** }
 378              		.loc 1 1011 5 is_stmt 1 view .LVU87
 379 0002 FFF7FEFF 		bl	lv_obj_set_y
 380              	.LVL37:
1012:Lib/lvgl/src/display/lv_display.c **** 
 381              		.loc 1 1012 1 is_stmt 0 view .LVU88
 382 0006 08BD     		pop	{r3, pc}
 383              		.cfi_endproc
 384              	.LFE295:
 386              		.section	.text.set_x_anim,"ax",%progbits
 387              		.align	1
 388              		.syntax unified
 389              		.thumb
 390              		.thumb_func
 392              	set_x_anim:
 393              	.LVL38:
 394              	.LFB294:
1005:Lib/lvgl/src/display/lv_display.c ****     lv_obj_set_x(obj, v);
 395              		.loc 1 1005 1 is_stmt 1 view -0
 396              		.cfi_startproc
 397              		@ args = 0, pretend = 0, frame = 0
 398              		@ frame_needed = 0, uses_anonymous_args = 0
1005:Lib/lvgl/src/display/lv_display.c ****     lv_obj_set_x(obj, v);
 399              		.loc 1 1005 1 is_stmt 0 view .LVU90
 400 0000 08B5     		push	{r3, lr}
 401              	.LCFI7:
 402              		.cfi_def_cfa_offset 8
 403              		.cfi_offset 3, -8
 404              		.cfi_offset 14, -4
1006:Lib/lvgl/src/display/lv_display.c **** }
 405              		.loc 1 1006 5 is_stmt 1 view .LVU91
 406 0002 FFF7FEFF 		bl	lv_obj_set_x
 407              	.LVL39:
1007:Lib/lvgl/src/display/lv_display.c **** 
 408              		.loc 1 1007 1 is_stmt 0 view .LVU92
 409 0006 08BD     		pop	{r3, pc}
 410              		.cfi_endproc
 411              	.LFE294:
 413              		.section	.text.lv_display_set_default,"ax",%progbits
 414              		.align	1
 415              		.global	lv_display_set_default
 416              		.syntax unified
 417              		.thumb
 418              		.thumb_func
 420              	lv_display_set_default:
 421              	.LVL40:
 422              	.LFB236:
 197:Lib/lvgl/src/display/lv_display.c ****     disp_def = disp;
 423              		.loc 1 197 1 is_stmt 1 view -0
 424              		.cfi_startproc
 425              		@ args = 0, pretend = 0, frame = 0
 426              		@ frame_needed = 0, uses_anonymous_args = 0
 427              		@ link register save eliminated.
ARM GAS  C:\Users\Alex\AppData\Local\Temp\cc0G22cc.s 			page 28


 198:Lib/lvgl/src/display/lv_display.c **** }
 428              		.loc 1 198 5 view .LVU94
 198:Lib/lvgl/src/display/lv_display.c **** }
 429              		.loc 1 198 14 is_stmt 0 view .LVU95
 430 0000 014B     		ldr	r3, .L27
 431 0002 5861     		str	r0, [r3, #20]
 199:Lib/lvgl/src/display/lv_display.c **** 
 432              		.loc 1 199 1 view .LVU96
 433 0004 7047     		bx	lr
 434              	.L28:
 435 0006 00BF     		.align	2
 436              	.L27:
 437 0008 00000000 		.word	lv_global
 438              		.cfi_endproc
 439              	.LFE236:
 441              		.section	.text.lv_display_get_default,"ax",%progbits
 442              		.align	1
 443              		.global	lv_display_get_default
 444              		.syntax unified
 445              		.thumb
 446              		.thumb_func
 448              	lv_display_get_default:
 449              	.LFB237:
 202:Lib/lvgl/src/display/lv_display.c ****     return disp_def;
 450              		.loc 1 202 1 is_stmt 1 view -0
 451              		.cfi_startproc
 452              		@ args = 0, pretend = 0, frame = 0
 453              		@ frame_needed = 0, uses_anonymous_args = 0
 454              		@ link register save eliminated.
 203:Lib/lvgl/src/display/lv_display.c **** }
 455              		.loc 1 203 5 view .LVU98
 204:Lib/lvgl/src/display/lv_display.c **** 
 456              		.loc 1 204 1 is_stmt 0 view .LVU99
 457 0000 014B     		ldr	r3, .L30
 458 0002 5869     		ldr	r0, [r3, #20]
 459 0004 7047     		bx	lr
 460              	.L31:
 461 0006 00BF     		.align	2
 462              	.L30:
 463 0008 00000000 		.word	lv_global
 464              		.cfi_endproc
 465              	.LFE237:
 467              		.section	.text.lv_display_get_next,"ax",%progbits
 468              		.align	1
 469              		.global	lv_display_get_next
 470              		.syntax unified
 471              		.thumb
 472              		.thumb_func
 474              	lv_display_get_next:
 475              	.LVL41:
 476              	.LFB238:
 207:Lib/lvgl/src/display/lv_display.c ****     if(disp == NULL)
 477              		.loc 1 207 1 is_stmt 1 view -0
 478              		.cfi_startproc
 479              		@ args = 0, pretend = 0, frame = 0
 480              		@ frame_needed = 0, uses_anonymous_args = 0
 207:Lib/lvgl/src/display/lv_display.c ****     if(disp == NULL)
ARM GAS  C:\Users\Alex\AppData\Local\Temp\cc0G22cc.s 			page 29


 481              		.loc 1 207 1 is_stmt 0 view .LVU101
 482 0000 08B5     		push	{r3, lr}
 483              	.LCFI8:
 484              		.cfi_def_cfa_offset 8
 485              		.cfi_offset 3, -8
 486              		.cfi_offset 14, -4
 208:Lib/lvgl/src/display/lv_display.c ****         return _lv_ll_get_head(disp_ll_p);
 487              		.loc 1 208 5 is_stmt 1 view .LVU102
 208:Lib/lvgl/src/display/lv_display.c ****         return _lv_ll_get_head(disp_ll_p);
 488              		.loc 1 208 7 is_stmt 0 view .LVU103
 489 0002 20B1     		cbz	r0, .L36
 490 0004 0146     		mov	r1, r0
 211:Lib/lvgl/src/display/lv_display.c **** }
 491              		.loc 1 211 9 is_stmt 1 view .LVU104
 211:Lib/lvgl/src/display/lv_display.c **** }
 492              		.loc 1 211 16 is_stmt 0 view .LVU105
 493 0006 0448     		ldr	r0, .L37
 494              	.LVL42:
 211:Lib/lvgl/src/display/lv_display.c **** }
 495              		.loc 1 211 16 view .LVU106
 496 0008 FFF7FEFF 		bl	_lv_ll_get_next
 497              	.LVL43:
 498              	.L32:
 212:Lib/lvgl/src/display/lv_display.c **** 
 499              		.loc 1 212 1 view .LVU107
 500 000c 08BD     		pop	{r3, pc}
 501              	.LVL44:
 502              	.L36:
 209:Lib/lvgl/src/display/lv_display.c ****     else
 503              		.loc 1 209 9 is_stmt 1 view .LVU108
 209:Lib/lvgl/src/display/lv_display.c ****     else
 504              		.loc 1 209 16 is_stmt 0 view .LVU109
 505 000e 0248     		ldr	r0, .L37
 506              	.LVL45:
 209:Lib/lvgl/src/display/lv_display.c ****     else
 507              		.loc 1 209 16 view .LVU110
 508 0010 FFF7FEFF 		bl	_lv_ll_get_head
 509              	.LVL46:
 510 0014 FAE7     		b	.L32
 511              	.L38:
 512 0016 00BF     		.align	2
 513              	.L37:
 514 0018 04000000 		.word	lv_global+4
 515              		.cfi_endproc
 516              	.LFE238:
 518              		.section	.text.lv_display_set_physical_resolution,"ax",%progbits
 519              		.align	1
 520              		.global	lv_display_set_physical_resolution
 521              		.syntax unified
 522              		.thumb
 523              		.thumb_func
 525              	lv_display_set_physical_resolution:
 526              	.LVL47:
 527              	.LFB240:
 232:Lib/lvgl/src/display/lv_display.c ****     if(disp == NULL) disp = lv_display_get_default();
 528              		.loc 1 232 1 is_stmt 1 view -0
 529              		.cfi_startproc
ARM GAS  C:\Users\Alex\AppData\Local\Temp\cc0G22cc.s 			page 30


 530              		@ args = 0, pretend = 0, frame = 0
 531              		@ frame_needed = 0, uses_anonymous_args = 0
 232:Lib/lvgl/src/display/lv_display.c ****     if(disp == NULL) disp = lv_display_get_default();
 532              		.loc 1 232 1 is_stmt 0 view .LVU112
 533 0000 38B5     		push	{r3, r4, r5, lr}
 534              	.LCFI9:
 535              		.cfi_def_cfa_offset 16
 536              		.cfi_offset 3, -16
 537              		.cfi_offset 4, -12
 538              		.cfi_offset 5, -8
 539              		.cfi_offset 14, -4
 540 0002 0D46     		mov	r5, r1
 541 0004 1446     		mov	r4, r2
 233:Lib/lvgl/src/display/lv_display.c ****     if(disp == NULL) return;
 542              		.loc 1 233 5 is_stmt 1 view .LVU113
 233:Lib/lvgl/src/display/lv_display.c ****     if(disp == NULL) return;
 543              		.loc 1 233 7 is_stmt 0 view .LVU114
 544 0006 0346     		mov	r3, r0
 545 0008 30B1     		cbz	r0, .L43
 546              	.LVL48:
 547              	.L40:
 236:Lib/lvgl/src/display/lv_display.c ****     disp->physical_ver_res = ver_res;
 548              		.loc 1 236 5 is_stmt 1 view .LVU115
 236:Lib/lvgl/src/display/lv_display.c ****     disp->physical_ver_res = ver_res;
 549              		.loc 1 236 28 is_stmt 0 view .LVU116
 550 000a 9D60     		str	r5, [r3, #8]
 237:Lib/lvgl/src/display/lv_display.c **** 
 551              		.loc 1 237 5 is_stmt 1 view .LVU117
 237:Lib/lvgl/src/display/lv_display.c **** 
 552              		.loc 1 237 28 is_stmt 0 view .LVU118
 553 000c DC60     		str	r4, [r3, #12]
 239:Lib/lvgl/src/display/lv_display.c **** 
 554              		.loc 1 239 5 is_stmt 1 view .LVU119
 555 000e D3F8C402 		ldr	r0, [r3, #708]
 556 0012 FFF7FEFF 		bl	lv_obj_invalidate
 557              	.LVL49:
 558              	.L39:
 241:Lib/lvgl/src/display/lv_display.c **** 
 559              		.loc 1 241 1 is_stmt 0 view .LVU120
 560 0016 38BD     		pop	{r3, r4, r5, pc}
 561              	.LVL50:
 562              	.L43:
 233:Lib/lvgl/src/display/lv_display.c ****     if(disp == NULL) return;
 563              		.loc 1 233 22 is_stmt 1 discriminator 1 view .LVU121
 233:Lib/lvgl/src/display/lv_display.c ****     if(disp == NULL) return;
 564              		.loc 1 233 29 is_stmt 0 discriminator 1 view .LVU122
 565 0018 FFF7FEFF 		bl	lv_display_get_default
 566              	.LVL51:
 234:Lib/lvgl/src/display/lv_display.c **** 
 567              		.loc 1 234 5 is_stmt 1 discriminator 1 view .LVU123
 234:Lib/lvgl/src/display/lv_display.c **** 
 568              		.loc 1 234 7 is_stmt 0 discriminator 1 view .LVU124
 569 001c 0346     		mov	r3, r0
 570 001e 0028     		cmp	r0, #0
 571 0020 F3D1     		bne	.L40
 572 0022 F8E7     		b	.L39
 573              		.cfi_endproc
ARM GAS  C:\Users\Alex\AppData\Local\Temp\cc0G22cc.s 			page 31


 574              	.LFE240:
 576              		.section	.text.lv_display_set_offset,"ax",%progbits
 577              		.align	1
 578              		.global	lv_display_set_offset
 579              		.syntax unified
 580              		.thumb
 581              		.thumb_func
 583              	lv_display_set_offset:
 584              	.LVL52:
 585              	.LFB241:
 244:Lib/lvgl/src/display/lv_display.c ****     if(disp == NULL) disp = lv_display_get_default();
 586              		.loc 1 244 1 is_stmt 1 view -0
 587              		.cfi_startproc
 588              		@ args = 0, pretend = 0, frame = 0
 589              		@ frame_needed = 0, uses_anonymous_args = 0
 244:Lib/lvgl/src/display/lv_display.c ****     if(disp == NULL) disp = lv_display_get_default();
 590              		.loc 1 244 1 is_stmt 0 view .LVU126
 591 0000 38B5     		push	{r3, r4, r5, lr}
 592              	.LCFI10:
 593              		.cfi_def_cfa_offset 16
 594              		.cfi_offset 3, -16
 595              		.cfi_offset 4, -12
 596              		.cfi_offset 5, -8
 597              		.cfi_offset 14, -4
 598 0002 0D46     		mov	r5, r1
 599 0004 1446     		mov	r4, r2
 245:Lib/lvgl/src/display/lv_display.c ****     if(disp == NULL) return;
 600              		.loc 1 245 5 is_stmt 1 view .LVU127
 245:Lib/lvgl/src/display/lv_display.c ****     if(disp == NULL) return;
 601              		.loc 1 245 7 is_stmt 0 view .LVU128
 602 0006 0346     		mov	r3, r0
 603 0008 30B1     		cbz	r0, .L48
 604              	.LVL53:
 605              	.L45:
 248:Lib/lvgl/src/display/lv_display.c ****     disp->offset_y = y;
 606              		.loc 1 248 5 is_stmt 1 view .LVU129
 248:Lib/lvgl/src/display/lv_display.c ****     disp->offset_y = y;
 607              		.loc 1 248 20 is_stmt 0 view .LVU130
 608 000a 1D61     		str	r5, [r3, #16]
 249:Lib/lvgl/src/display/lv_display.c **** 
 609              		.loc 1 249 5 is_stmt 1 view .LVU131
 249:Lib/lvgl/src/display/lv_display.c **** 
 610              		.loc 1 249 20 is_stmt 0 view .LVU132
 611 000c 5C61     		str	r4, [r3, #20]
 251:Lib/lvgl/src/display/lv_display.c **** 
 612              		.loc 1 251 5 is_stmt 1 view .LVU133
 613 000e D3F8C402 		ldr	r0, [r3, #708]
 614 0012 FFF7FEFF 		bl	lv_obj_invalidate
 615              	.LVL54:
 616              	.L44:
 253:Lib/lvgl/src/display/lv_display.c **** 
 617              		.loc 1 253 1 is_stmt 0 view .LVU134
 618 0016 38BD     		pop	{r3, r4, r5, pc}
 619              	.LVL55:
 620              	.L48:
 245:Lib/lvgl/src/display/lv_display.c ****     if(disp == NULL) return;
 621              		.loc 1 245 22 is_stmt 1 discriminator 1 view .LVU135
ARM GAS  C:\Users\Alex\AppData\Local\Temp\cc0G22cc.s 			page 32


 245:Lib/lvgl/src/display/lv_display.c ****     if(disp == NULL) return;
 622              		.loc 1 245 29 is_stmt 0 discriminator 1 view .LVU136
 623 0018 FFF7FEFF 		bl	lv_display_get_default
 624              	.LVL56:
 246:Lib/lvgl/src/display/lv_display.c **** 
 625              		.loc 1 246 5 is_stmt 1 discriminator 1 view .LVU137
 246:Lib/lvgl/src/display/lv_display.c **** 
 626              		.loc 1 246 7 is_stmt 0 discriminator 1 view .LVU138
 627 001c 0346     		mov	r3, r0
 628 001e 0028     		cmp	r0, #0
 629 0020 F3D1     		bne	.L45
 630 0022 F8E7     		b	.L44
 631              		.cfi_endproc
 632              	.LFE241:
 634              		.section	.text.lv_display_set_dpi,"ax",%progbits
 635              		.align	1
 636              		.global	lv_display_set_dpi
 637              		.syntax unified
 638              		.thumb
 639              		.thumb_func
 641              	lv_display_set_dpi:
 642              	.LVL57:
 643              	.LFB242:
 256:Lib/lvgl/src/display/lv_display.c ****     if(disp == NULL) disp = lv_display_get_default();
 644              		.loc 1 256 1 is_stmt 1 view -0
 645              		.cfi_startproc
 646              		@ args = 0, pretend = 0, frame = 0
 647              		@ frame_needed = 0, uses_anonymous_args = 0
 256:Lib/lvgl/src/display/lv_display.c ****     if(disp == NULL) disp = lv_display_get_default();
 648              		.loc 1 256 1 is_stmt 0 view .LVU140
 649 0000 10B5     		push	{r4, lr}
 650              	.LCFI11:
 651              		.cfi_def_cfa_offset 8
 652              		.cfi_offset 4, -8
 653              		.cfi_offset 14, -4
 654 0002 0C46     		mov	r4, r1
 257:Lib/lvgl/src/display/lv_display.c ****     if(disp == NULL) return;
 655              		.loc 1 257 5 is_stmt 1 view .LVU141
 257:Lib/lvgl/src/display/lv_display.c ****     if(disp == NULL) return;
 656              		.loc 1 257 7 is_stmt 0 view .LVU142
 657 0004 0346     		mov	r3, r0
 658 0006 08B1     		cbz	r0, .L53
 659              	.LVL58:
 660              	.L50:
 260:Lib/lvgl/src/display/lv_display.c **** }
 661              		.loc 1 260 5 is_stmt 1 view .LVU143
 260:Lib/lvgl/src/display/lv_display.c **** }
 662              		.loc 1 260 15 is_stmt 0 view .LVU144
 663 0008 9C61     		str	r4, [r3, #24]
 664              	.L49:
 261:Lib/lvgl/src/display/lv_display.c **** 
 665              		.loc 1 261 1 view .LVU145
 666 000a 10BD     		pop	{r4, pc}
 667              	.LVL59:
 668              	.L53:
 257:Lib/lvgl/src/display/lv_display.c ****     if(disp == NULL) return;
 669              		.loc 1 257 22 is_stmt 1 discriminator 1 view .LVU146
ARM GAS  C:\Users\Alex\AppData\Local\Temp\cc0G22cc.s 			page 33


 257:Lib/lvgl/src/display/lv_display.c ****     if(disp == NULL) return;
 670              		.loc 1 257 29 is_stmt 0 discriminator 1 view .LVU147
 671 000c FFF7FEFF 		bl	lv_display_get_default
 672              	.LVL60:
 258:Lib/lvgl/src/display/lv_display.c **** 
 673              		.loc 1 258 5 is_stmt 1 discriminator 1 view .LVU148
 258:Lib/lvgl/src/display/lv_display.c **** 
 674              		.loc 1 258 7 is_stmt 0 discriminator 1 view .LVU149
 675 0010 0346     		mov	r3, r0
 676 0012 0028     		cmp	r0, #0
 677 0014 F8D1     		bne	.L50
 678 0016 F8E7     		b	.L49
 679              		.cfi_endproc
 680              	.LFE242:
 682              		.section	.text.lv_display_get_horizontal_resolution,"ax",%progbits
 683              		.align	1
 684              		.global	lv_display_get_horizontal_resolution
 685              		.syntax unified
 686              		.thumb
 687              		.thumb_func
 689              	lv_display_get_horizontal_resolution:
 690              	.LVL61:
 691              	.LFB243:
 264:Lib/lvgl/src/display/lv_display.c ****     if(disp == NULL) disp = lv_display_get_default();
 692              		.loc 1 264 1 is_stmt 1 view -0
 693              		.cfi_startproc
 694              		@ args = 0, pretend = 0, frame = 0
 695              		@ frame_needed = 0, uses_anonymous_args = 0
 264:Lib/lvgl/src/display/lv_display.c ****     if(disp == NULL) disp = lv_display_get_default();
 696              		.loc 1 264 1 is_stmt 0 view .LVU151
 697 0000 08B5     		push	{r3, lr}
 698              	.LCFI12:
 699              		.cfi_def_cfa_offset 8
 700              		.cfi_offset 3, -8
 701              		.cfi_offset 14, -4
 265:Lib/lvgl/src/display/lv_display.c **** 
 702              		.loc 1 265 5 is_stmt 1 view .LVU152
 265:Lib/lvgl/src/display/lv_display.c **** 
 703              		.loc 1 265 7 is_stmt 0 view .LVU153
 704 0002 0246     		mov	r2, r0
 705 0004 48B1     		cbz	r0, .L61
 706              	.L55:
 707              	.LVL62:
 271:Lib/lvgl/src/display/lv_display.c ****             case LV_DISPLAY_ROTATION_90:
 708              		.loc 1 271 9 is_stmt 1 view .LVU154
 271:Lib/lvgl/src/display/lv_display.c ****             case LV_DISPLAY_ROTATION_90:
 709              		.loc 1 271 20 is_stmt 0 view .LVU155
 710 0006 92F8E832 		ldrb	r3, [r2, #744]	@ zero_extendqisi2
 711 000a C3F34103 		ubfx	r3, r3, #1, #2
 271:Lib/lvgl/src/display/lv_display.c ****             case LV_DISPLAY_ROTATION_90:
 712              		.loc 1 271 9 view .LVU156
 713 000e 012B     		cmp	r3, #1
 714 0010 0AD0     		beq	.L57
 715 0012 032B     		cmp	r3, #3
 716 0014 08D0     		beq	.L57
 276:Lib/lvgl/src/display/lv_display.c ****         }
 717              		.loc 1 276 17 is_stmt 1 view .LVU157
ARM GAS  C:\Users\Alex\AppData\Local\Temp\cc0G22cc.s 			page 34


 276:Lib/lvgl/src/display/lv_display.c ****         }
 718              		.loc 1 276 28 is_stmt 0 view .LVU158
 719 0016 1068     		ldr	r0, [r2]
 720 0018 07E0     		b	.L54
 721              	.LVL63:
 722              	.L61:
 265:Lib/lvgl/src/display/lv_display.c **** 
 723              		.loc 1 265 22 is_stmt 1 discriminator 1 view .LVU159
 265:Lib/lvgl/src/display/lv_display.c **** 
 724              		.loc 1 265 29 is_stmt 0 discriminator 1 view .LVU160
 725 001a FFF7FEFF 		bl	lv_display_get_default
 726              	.LVL64:
 267:Lib/lvgl/src/display/lv_display.c ****         return 0;
 727              		.loc 1 267 5 is_stmt 1 discriminator 1 view .LVU161
 267:Lib/lvgl/src/display/lv_display.c ****         return 0;
 728              		.loc 1 267 7 is_stmt 0 discriminator 1 view .LVU162
 729 001e 0246     		mov	r2, r0
 730 0020 0028     		cmp	r0, #0
 731 0022 F0D1     		bne	.L55
 268:Lib/lvgl/src/display/lv_display.c ****     }
 732              		.loc 1 268 16 view .LVU163
 733 0024 0020     		movs	r0, #0
 734              	.LVL65:
 268:Lib/lvgl/src/display/lv_display.c ****     }
 735              		.loc 1 268 16 view .LVU164
 736 0026 00E0     		b	.L54
 737              	.LVL66:
 738              	.L57:
 274:Lib/lvgl/src/display/lv_display.c ****             default:
 739              		.loc 1 274 17 is_stmt 1 view .LVU165
 274:Lib/lvgl/src/display/lv_display.c ****             default:
 740              		.loc 1 274 28 is_stmt 0 view .LVU166
 741 0028 5068     		ldr	r0, [r2, #4]
 742              	.L54:
 279:Lib/lvgl/src/display/lv_display.c **** 
 743              		.loc 1 279 1 view .LVU167
 744 002a 08BD     		pop	{r3, pc}
 745              		.cfi_endproc
 746              	.LFE243:
 748              		.section	.text.lv_display_get_vertical_resolution,"ax",%progbits
 749              		.align	1
 750              		.global	lv_display_get_vertical_resolution
 751              		.syntax unified
 752              		.thumb
 753              		.thumb_func
 755              	lv_display_get_vertical_resolution:
 756              	.LVL67:
 757              	.LFB244:
 282:Lib/lvgl/src/display/lv_display.c ****     if(disp == NULL) disp = lv_display_get_default();
 758              		.loc 1 282 1 is_stmt 1 view -0
 759              		.cfi_startproc
 760              		@ args = 0, pretend = 0, frame = 0
 761              		@ frame_needed = 0, uses_anonymous_args = 0
 282:Lib/lvgl/src/display/lv_display.c ****     if(disp == NULL) disp = lv_display_get_default();
 762              		.loc 1 282 1 is_stmt 0 view .LVU169
 763 0000 08B5     		push	{r3, lr}
 764              	.LCFI13:
ARM GAS  C:\Users\Alex\AppData\Local\Temp\cc0G22cc.s 			page 35


 765              		.cfi_def_cfa_offset 8
 766              		.cfi_offset 3, -8
 767              		.cfi_offset 14, -4
 283:Lib/lvgl/src/display/lv_display.c **** 
 768              		.loc 1 283 5 is_stmt 1 view .LVU170
 283:Lib/lvgl/src/display/lv_display.c **** 
 769              		.loc 1 283 7 is_stmt 0 view .LVU171
 770 0002 0246     		mov	r2, r0
 771 0004 48B1     		cbz	r0, .L69
 772              	.L63:
 773              	.LVL68:
 289:Lib/lvgl/src/display/lv_display.c ****             case LV_DISPLAY_ROTATION_90:
 774              		.loc 1 289 9 is_stmt 1 view .LVU172
 289:Lib/lvgl/src/display/lv_display.c ****             case LV_DISPLAY_ROTATION_90:
 775              		.loc 1 289 20 is_stmt 0 view .LVU173
 776 0006 92F8E832 		ldrb	r3, [r2, #744]	@ zero_extendqisi2
 777 000a C3F34103 		ubfx	r3, r3, #1, #2
 289:Lib/lvgl/src/display/lv_display.c ****             case LV_DISPLAY_ROTATION_90:
 778              		.loc 1 289 9 view .LVU174
 779 000e 012B     		cmp	r3, #1
 780 0010 0AD0     		beq	.L65
 781 0012 032B     		cmp	r3, #3
 782 0014 08D0     		beq	.L65
 294:Lib/lvgl/src/display/lv_display.c ****         }
 783              		.loc 1 294 17 is_stmt 1 view .LVU175
 294:Lib/lvgl/src/display/lv_display.c ****         }
 784              		.loc 1 294 28 is_stmt 0 view .LVU176
 785 0016 5068     		ldr	r0, [r2, #4]
 786 0018 07E0     		b	.L62
 787              	.LVL69:
 788              	.L69:
 283:Lib/lvgl/src/display/lv_display.c **** 
 789              		.loc 1 283 22 is_stmt 1 discriminator 1 view .LVU177
 283:Lib/lvgl/src/display/lv_display.c **** 
 790              		.loc 1 283 29 is_stmt 0 discriminator 1 view .LVU178
 791 001a FFF7FEFF 		bl	lv_display_get_default
 792              	.LVL70:
 285:Lib/lvgl/src/display/lv_display.c ****         return 0;
 793              		.loc 1 285 5 is_stmt 1 discriminator 1 view .LVU179
 285:Lib/lvgl/src/display/lv_display.c ****         return 0;
 794              		.loc 1 285 7 is_stmt 0 discriminator 1 view .LVU180
 795 001e 0246     		mov	r2, r0
 796 0020 0028     		cmp	r0, #0
 797 0022 F0D1     		bne	.L63
 286:Lib/lvgl/src/display/lv_display.c ****     }
 798              		.loc 1 286 16 view .LVU181
 799 0024 0020     		movs	r0, #0
 800              	.LVL71:
 286:Lib/lvgl/src/display/lv_display.c ****     }
 801              		.loc 1 286 16 view .LVU182
 802 0026 00E0     		b	.L62
 803              	.LVL72:
 804              	.L65:
 292:Lib/lvgl/src/display/lv_display.c ****             default:
 805              		.loc 1 292 17 is_stmt 1 view .LVU183
 292:Lib/lvgl/src/display/lv_display.c ****             default:
 806              		.loc 1 292 28 is_stmt 0 view .LVU184
ARM GAS  C:\Users\Alex\AppData\Local\Temp\cc0G22cc.s 			page 36


 807 0028 1068     		ldr	r0, [r2]
 808              	.L62:
 297:Lib/lvgl/src/display/lv_display.c **** 
 809              		.loc 1 297 1 view .LVU185
 810 002a 08BD     		pop	{r3, pc}
 811              		.cfi_endproc
 812              	.LFE244:
 814              		.section	.text.lv_display_get_physical_horizontal_resolution,"ax",%progbits
 815              		.align	1
 816              		.global	lv_display_get_physical_horizontal_resolution
 817              		.syntax unified
 818              		.thumb
 819              		.thumb_func
 821              	lv_display_get_physical_horizontal_resolution:
 822              	.LVL73:
 823              	.LFB245:
 300:Lib/lvgl/src/display/lv_display.c ****     if(disp == NULL) disp = lv_display_get_default();
 824              		.loc 1 300 1 is_stmt 1 view -0
 825              		.cfi_startproc
 826              		@ args = 0, pretend = 0, frame = 0
 827              		@ frame_needed = 0, uses_anonymous_args = 0
 300:Lib/lvgl/src/display/lv_display.c ****     if(disp == NULL) disp = lv_display_get_default();
 828              		.loc 1 300 1 is_stmt 0 view .LVU187
 829 0000 08B5     		push	{r3, lr}
 830              	.LCFI14:
 831              		.cfi_def_cfa_offset 8
 832              		.cfi_offset 3, -8
 833              		.cfi_offset 14, -4
 301:Lib/lvgl/src/display/lv_display.c **** 
 834              		.loc 1 301 5 is_stmt 1 view .LVU188
 301:Lib/lvgl/src/display/lv_display.c **** 
 835              		.loc 1 301 7 is_stmt 0 view .LVU189
 836 0002 0246     		mov	r2, r0
 837 0004 60B1     		cbz	r0, .L79
 838              	.L71:
 839              	.LVL74:
 307:Lib/lvgl/src/display/lv_display.c ****             case LV_DISPLAY_ROTATION_90:
 840              		.loc 1 307 9 is_stmt 1 view .LVU190
 307:Lib/lvgl/src/display/lv_display.c ****             case LV_DISPLAY_ROTATION_90:
 841              		.loc 1 307 20 is_stmt 0 view .LVU191
 842 0006 92F8E832 		ldrb	r3, [r2, #744]	@ zero_extendqisi2
 843 000a C3F34103 		ubfx	r3, r3, #1, #2
 307:Lib/lvgl/src/display/lv_display.c ****             case LV_DISPLAY_ROTATION_90:
 844              		.loc 1 307 9 view .LVU192
 845 000e 012B     		cmp	r3, #1
 846 0010 0DD0     		beq	.L73
 847 0012 032B     		cmp	r3, #3
 848 0014 0BD0     		beq	.L73
 312:Lib/lvgl/src/display/lv_display.c ****         }
 849              		.loc 1 312 17 is_stmt 1 view .LVU193
 312:Lib/lvgl/src/display/lv_display.c ****         }
 850              		.loc 1 312 28 is_stmt 0 view .LVU194
 851 0016 9068     		ldr	r0, [r2, #8]
 312:Lib/lvgl/src/display/lv_display.c ****         }
 852              		.loc 1 312 76 view .LVU195
 853 0018 0028     		cmp	r0, #0
 854 001a 0BDC     		bgt	.L70
ARM GAS  C:\Users\Alex\AppData\Local\Temp\cc0G22cc.s 			page 37


 312:Lib/lvgl/src/display/lv_display.c ****         }
 855              		.loc 1 312 76 discriminator 2 view .LVU196
 856 001c 1068     		ldr	r0, [r2]
 857 001e 09E0     		b	.L70
 858              	.LVL75:
 859              	.L79:
 301:Lib/lvgl/src/display/lv_display.c **** 
 860              		.loc 1 301 22 is_stmt 1 discriminator 1 view .LVU197
 301:Lib/lvgl/src/display/lv_display.c **** 
 861              		.loc 1 301 29 is_stmt 0 discriminator 1 view .LVU198
 862 0020 FFF7FEFF 		bl	lv_display_get_default
 863              	.LVL76:
 303:Lib/lvgl/src/display/lv_display.c ****         return 0;
 864              		.loc 1 303 5 is_stmt 1 discriminator 1 view .LVU199
 303:Lib/lvgl/src/display/lv_display.c ****         return 0;
 865              		.loc 1 303 7 is_stmt 0 discriminator 1 view .LVU200
 866 0024 0246     		mov	r2, r0
 867 0026 0028     		cmp	r0, #0
 868 0028 EDD1     		bne	.L71
 304:Lib/lvgl/src/display/lv_display.c ****     }
 869              		.loc 1 304 16 view .LVU201
 870 002a 0020     		movs	r0, #0
 871              	.LVL77:
 304:Lib/lvgl/src/display/lv_display.c ****     }
 872              		.loc 1 304 16 view .LVU202
 873 002c 02E0     		b	.L70
 874              	.LVL78:
 875              	.L73:
 310:Lib/lvgl/src/display/lv_display.c ****             default:
 876              		.loc 1 310 17 is_stmt 1 view .LVU203
 310:Lib/lvgl/src/display/lv_display.c ****             default:
 877              		.loc 1 310 28 is_stmt 0 view .LVU204
 878 002e D068     		ldr	r0, [r2, #12]
 310:Lib/lvgl/src/display/lv_display.c ****             default:
 879              		.loc 1 310 76 view .LVU205
 880 0030 0028     		cmp	r0, #0
 881 0032 00DD     		ble	.L80
 882              	.L70:
 315:Lib/lvgl/src/display/lv_display.c **** 
 883              		.loc 1 315 1 view .LVU206
 884 0034 08BD     		pop	{r3, pc}
 885              	.L80:
 310:Lib/lvgl/src/display/lv_display.c ****             default:
 886              		.loc 1 310 76 discriminator 2 view .LVU207
 887 0036 5068     		ldr	r0, [r2, #4]
 888 0038 FCE7     		b	.L70
 889              		.cfi_endproc
 890              	.LFE245:
 892              		.section	.text.lv_display_get_physical_vertical_resolution,"ax",%progbits
 893              		.align	1
 894              		.global	lv_display_get_physical_vertical_resolution
 895              		.syntax unified
 896              		.thumb
 897              		.thumb_func
 899              	lv_display_get_physical_vertical_resolution:
 900              	.LVL79:
 901              	.LFB246:
ARM GAS  C:\Users\Alex\AppData\Local\Temp\cc0G22cc.s 			page 38


 318:Lib/lvgl/src/display/lv_display.c ****     if(disp == NULL) disp = lv_display_get_default();
 902              		.loc 1 318 1 is_stmt 1 view -0
 903              		.cfi_startproc
 904              		@ args = 0, pretend = 0, frame = 0
 905              		@ frame_needed = 0, uses_anonymous_args = 0
 318:Lib/lvgl/src/display/lv_display.c ****     if(disp == NULL) disp = lv_display_get_default();
 906              		.loc 1 318 1 is_stmt 0 view .LVU209
 907 0000 08B5     		push	{r3, lr}
 908              	.LCFI15:
 909              		.cfi_def_cfa_offset 8
 910              		.cfi_offset 3, -8
 911              		.cfi_offset 14, -4
 319:Lib/lvgl/src/display/lv_display.c **** 
 912              		.loc 1 319 5 is_stmt 1 view .LVU210
 319:Lib/lvgl/src/display/lv_display.c **** 
 913              		.loc 1 319 7 is_stmt 0 view .LVU211
 914 0002 0246     		mov	r2, r0
 915 0004 60B1     		cbz	r0, .L90
 916              	.L82:
 917              	.LVL80:
 325:Lib/lvgl/src/display/lv_display.c ****             case LV_DISPLAY_ROTATION_90:
 918              		.loc 1 325 9 is_stmt 1 view .LVU212
 325:Lib/lvgl/src/display/lv_display.c ****             case LV_DISPLAY_ROTATION_90:
 919              		.loc 1 325 20 is_stmt 0 view .LVU213
 920 0006 92F8E832 		ldrb	r3, [r2, #744]	@ zero_extendqisi2
 921 000a C3F34103 		ubfx	r3, r3, #1, #2
 325:Lib/lvgl/src/display/lv_display.c ****             case LV_DISPLAY_ROTATION_90:
 922              		.loc 1 325 9 view .LVU214
 923 000e 012B     		cmp	r3, #1
 924 0010 0DD0     		beq	.L84
 925 0012 032B     		cmp	r3, #3
 926 0014 0BD0     		beq	.L84
 330:Lib/lvgl/src/display/lv_display.c ****         }
 927              		.loc 1 330 17 is_stmt 1 view .LVU215
 330:Lib/lvgl/src/display/lv_display.c ****         }
 928              		.loc 1 330 28 is_stmt 0 view .LVU216
 929 0016 D068     		ldr	r0, [r2, #12]
 330:Lib/lvgl/src/display/lv_display.c ****         }
 930              		.loc 1 330 76 view .LVU217
 931 0018 0028     		cmp	r0, #0
 932 001a 0BDC     		bgt	.L81
 330:Lib/lvgl/src/display/lv_display.c ****         }
 933              		.loc 1 330 76 discriminator 2 view .LVU218
 934 001c 5068     		ldr	r0, [r2, #4]
 935 001e 09E0     		b	.L81
 936              	.LVL81:
 937              	.L90:
 319:Lib/lvgl/src/display/lv_display.c **** 
 938              		.loc 1 319 22 is_stmt 1 discriminator 1 view .LVU219
 319:Lib/lvgl/src/display/lv_display.c **** 
 939              		.loc 1 319 29 is_stmt 0 discriminator 1 view .LVU220
 940 0020 FFF7FEFF 		bl	lv_display_get_default
 941              	.LVL82:
 321:Lib/lvgl/src/display/lv_display.c ****         return 0;
 942              		.loc 1 321 5 is_stmt 1 discriminator 1 view .LVU221
 321:Lib/lvgl/src/display/lv_display.c ****         return 0;
 943              		.loc 1 321 7 is_stmt 0 discriminator 1 view .LVU222
ARM GAS  C:\Users\Alex\AppData\Local\Temp\cc0G22cc.s 			page 39


 944 0024 0246     		mov	r2, r0
 945 0026 0028     		cmp	r0, #0
 946 0028 EDD1     		bne	.L82
 322:Lib/lvgl/src/display/lv_display.c ****     }
 947              		.loc 1 322 16 view .LVU223
 948 002a 0020     		movs	r0, #0
 949              	.LVL83:
 322:Lib/lvgl/src/display/lv_display.c ****     }
 950              		.loc 1 322 16 view .LVU224
 951 002c 02E0     		b	.L81
 952              	.LVL84:
 953              	.L84:
 328:Lib/lvgl/src/display/lv_display.c ****             default:
 954              		.loc 1 328 17 is_stmt 1 view .LVU225
 328:Lib/lvgl/src/display/lv_display.c ****             default:
 955              		.loc 1 328 28 is_stmt 0 view .LVU226
 956 002e 9068     		ldr	r0, [r2, #8]
 328:Lib/lvgl/src/display/lv_display.c ****             default:
 957              		.loc 1 328 76 view .LVU227
 958 0030 0028     		cmp	r0, #0
 959 0032 00DD     		ble	.L91
 960              	.L81:
 333:Lib/lvgl/src/display/lv_display.c **** 
 961              		.loc 1 333 1 view .LVU228
 962 0034 08BD     		pop	{r3, pc}
 963              	.L91:
 328:Lib/lvgl/src/display/lv_display.c ****             default:
 964              		.loc 1 328 76 discriminator 2 view .LVU229
 965 0036 1068     		ldr	r0, [r2]
 966 0038 FCE7     		b	.L81
 967              		.cfi_endproc
 968              	.LFE246:
 970              		.section	.text.lv_display_get_offset_x,"ax",%progbits
 971              		.align	1
 972              		.global	lv_display_get_offset_x
 973              		.syntax unified
 974              		.thumb
 975              		.thumb_func
 977              	lv_display_get_offset_x:
 978              	.LVL85:
 979              	.LFB247:
 336:Lib/lvgl/src/display/lv_display.c ****     if(disp == NULL) disp = lv_display_get_default();
 980              		.loc 1 336 1 is_stmt 1 view -0
 981              		.cfi_startproc
 982              		@ args = 0, pretend = 0, frame = 0
 983              		@ frame_needed = 0, uses_anonymous_args = 0
 336:Lib/lvgl/src/display/lv_display.c ****     if(disp == NULL) disp = lv_display_get_default();
 984              		.loc 1 336 1 is_stmt 0 view .LVU231
 985 0000 10B5     		push	{r4, lr}
 986              	.LCFI16:
 987              		.cfi_def_cfa_offset 8
 988              		.cfi_offset 4, -8
 989              		.cfi_offset 14, -4
 337:Lib/lvgl/src/display/lv_display.c **** 
 990              		.loc 1 337 5 is_stmt 1 view .LVU232
 337:Lib/lvgl/src/display/lv_display.c **** 
 991              		.loc 1 337 7 is_stmt 0 view .LVU233
ARM GAS  C:\Users\Alex\AppData\Local\Temp\cc0G22cc.s 			page 40


 992 0002 0446     		mov	r4, r0
 993 0004 58B1     		cbz	r0, .L100
 994              	.L93:
 995              	.LVL86:
 343:Lib/lvgl/src/display/lv_display.c ****             case LV_DISPLAY_ROTATION_90:
 996              		.loc 1 343 9 is_stmt 1 view .LVU234
 343:Lib/lvgl/src/display/lv_display.c ****             case LV_DISPLAY_ROTATION_90:
 997              		.loc 1 343 20 is_stmt 0 view .LVU235
 998 0006 94F8E832 		ldrb	r3, [r4, #744]	@ zero_extendqisi2
 999 000a C3F34103 		ubfx	r3, r3, #1, #2
 343:Lib/lvgl/src/display/lv_display.c ****             case LV_DISPLAY_ROTATION_90:
 1000              		.loc 1 343 9 view .LVU236
 1001 000e 022B     		cmp	r3, #2
 1002 0010 0ED0     		beq	.L95
 1003 0012 032B     		cmp	r3, #3
 1004 0014 12D0     		beq	.L96
 1005 0016 012B     		cmp	r3, #1
 1006 0018 08D0     		beq	.L101
 351:Lib/lvgl/src/display/lv_display.c ****         }
 1007              		.loc 1 351 17 is_stmt 1 view .LVU237
 351:Lib/lvgl/src/display/lv_display.c ****         }
 1008              		.loc 1 351 28 is_stmt 0 view .LVU238
 1009 001a 2069     		ldr	r0, [r4, #16]
 1010 001c 07E0     		b	.L92
 1011              	.LVL87:
 1012              	.L100:
 337:Lib/lvgl/src/display/lv_display.c **** 
 1013              		.loc 1 337 22 is_stmt 1 discriminator 1 view .LVU239
 337:Lib/lvgl/src/display/lv_display.c **** 
 1014              		.loc 1 337 29 is_stmt 0 discriminator 1 view .LVU240
 1015 001e FFF7FEFF 		bl	lv_display_get_default
 1016              	.LVL88:
 339:Lib/lvgl/src/display/lv_display.c ****         return 0;
 1017              		.loc 1 339 5 is_stmt 1 discriminator 1 view .LVU241
 339:Lib/lvgl/src/display/lv_display.c ****         return 0;
 1018              		.loc 1 339 7 is_stmt 0 discriminator 1 view .LVU242
 1019 0022 0446     		mov	r4, r0
 1020 0024 0028     		cmp	r0, #0
 1021 0026 EED1     		bne	.L93
 340:Lib/lvgl/src/display/lv_display.c ****     }
 1022              		.loc 1 340 16 view .LVU243
 1023 0028 0020     		movs	r0, #0
 1024              	.LVL89:
 340:Lib/lvgl/src/display/lv_display.c ****     }
 1025              		.loc 1 340 16 view .LVU244
 1026 002a 00E0     		b	.L92
 1027              	.LVL90:
 1028              	.L101:
 345:Lib/lvgl/src/display/lv_display.c ****             case LV_DISPLAY_ROTATION_180:
 1029              		.loc 1 345 17 is_stmt 1 view .LVU245
 345:Lib/lvgl/src/display/lv_display.c ****             case LV_DISPLAY_ROTATION_180:
 1030              		.loc 1 345 28 is_stmt 0 view .LVU246
 1031 002c 6069     		ldr	r0, [r4, #20]
 1032              	.L92:
 354:Lib/lvgl/src/display/lv_display.c **** 
 1033              		.loc 1 354 1 view .LVU247
 1034 002e 10BD     		pop	{r4, pc}
ARM GAS  C:\Users\Alex\AppData\Local\Temp\cc0G22cc.s 			page 41


 1035              	.L95:
 347:Lib/lvgl/src/display/lv_display.c ****             case LV_DISPLAY_ROTATION_270:
 1036              		.loc 1 347 17 is_stmt 1 view .LVU248
 347:Lib/lvgl/src/display/lv_display.c ****             case LV_DISPLAY_ROTATION_270:
 1037              		.loc 1 347 24 is_stmt 0 view .LVU249
 1038 0030 2046     		mov	r0, r4
 1039 0032 FFF7FEFF 		bl	lv_display_get_physical_horizontal_resolution
 1040              	.LVL91:
 347:Lib/lvgl/src/display/lv_display.c ****             case LV_DISPLAY_ROTATION_270:
 1041              		.loc 1 347 82 view .LVU250
 1042 0036 2369     		ldr	r3, [r4, #16]
 347:Lib/lvgl/src/display/lv_display.c ****             case LV_DISPLAY_ROTATION_270:
 1043              		.loc 1 347 76 view .LVU251
 1044 0038 C01A     		subs	r0, r0, r3
 1045 003a F8E7     		b	.L92
 1046              	.L96:
 349:Lib/lvgl/src/display/lv_display.c ****             default:
 1047              		.loc 1 349 17 is_stmt 1 view .LVU252
 349:Lib/lvgl/src/display/lv_display.c ****             default:
 1048              		.loc 1 349 24 is_stmt 0 view .LVU253
 1049 003c 2046     		mov	r0, r4
 1050 003e FFF7FEFF 		bl	lv_display_get_physical_horizontal_resolution
 1051              	.LVL92:
 349:Lib/lvgl/src/display/lv_display.c ****             default:
 1052              		.loc 1 349 82 view .LVU254
 1053 0042 6369     		ldr	r3, [r4, #20]
 349:Lib/lvgl/src/display/lv_display.c ****             default:
 1054              		.loc 1 349 76 view .LVU255
 1055 0044 C01A     		subs	r0, r0, r3
 1056 0046 F2E7     		b	.L92
 1057              		.cfi_endproc
 1058              	.LFE247:
 1060              		.section	.text.lv_display_get_offset_y,"ax",%progbits
 1061              		.align	1
 1062              		.global	lv_display_get_offset_y
 1063              		.syntax unified
 1064              		.thumb
 1065              		.thumb_func
 1067              	lv_display_get_offset_y:
 1068              	.LVL93:
 1069              	.LFB248:
 357:Lib/lvgl/src/display/lv_display.c ****     if(disp == NULL) disp = lv_display_get_default();
 1070              		.loc 1 357 1 is_stmt 1 view -0
 1071              		.cfi_startproc
 1072              		@ args = 0, pretend = 0, frame = 0
 1073              		@ frame_needed = 0, uses_anonymous_args = 0
 357:Lib/lvgl/src/display/lv_display.c ****     if(disp == NULL) disp = lv_display_get_default();
 1074              		.loc 1 357 1 is_stmt 0 view .LVU257
 1075 0000 10B5     		push	{r4, lr}
 1076              	.LCFI17:
 1077              		.cfi_def_cfa_offset 8
 1078              		.cfi_offset 4, -8
 1079              		.cfi_offset 14, -4
 358:Lib/lvgl/src/display/lv_display.c **** 
 1080              		.loc 1 358 5 is_stmt 1 view .LVU258
 358:Lib/lvgl/src/display/lv_display.c **** 
 1081              		.loc 1 358 7 is_stmt 0 view .LVU259
ARM GAS  C:\Users\Alex\AppData\Local\Temp\cc0G22cc.s 			page 42


 1082 0002 0446     		mov	r4, r0
 1083 0004 58B1     		cbz	r0, .L110
 1084              	.L103:
 1085              	.LVL94:
 364:Lib/lvgl/src/display/lv_display.c ****             case LV_DISPLAY_ROTATION_90:
 1086              		.loc 1 364 9 is_stmt 1 view .LVU260
 364:Lib/lvgl/src/display/lv_display.c ****             case LV_DISPLAY_ROTATION_90:
 1087              		.loc 1 364 20 is_stmt 0 view .LVU261
 1088 0006 94F8E832 		ldrb	r3, [r4, #744]	@ zero_extendqisi2
 1089 000a C3F34103 		ubfx	r3, r3, #1, #2
 364:Lib/lvgl/src/display/lv_display.c ****             case LV_DISPLAY_ROTATION_90:
 1090              		.loc 1 364 9 view .LVU262
 1091 000e 022B     		cmp	r3, #2
 1092 0010 0ED0     		beq	.L105
 1093 0012 032B     		cmp	r3, #3
 1094 0014 12D0     		beq	.L106
 1095 0016 012B     		cmp	r3, #1
 1096 0018 08D0     		beq	.L111
 372:Lib/lvgl/src/display/lv_display.c ****         }
 1097              		.loc 1 372 17 is_stmt 1 view .LVU263
 372:Lib/lvgl/src/display/lv_display.c ****         }
 1098              		.loc 1 372 28 is_stmt 0 view .LVU264
 1099 001a 6069     		ldr	r0, [r4, #20]
 1100 001c 07E0     		b	.L102
 1101              	.LVL95:
 1102              	.L110:
 358:Lib/lvgl/src/display/lv_display.c **** 
 1103              		.loc 1 358 22 is_stmt 1 discriminator 1 view .LVU265
 358:Lib/lvgl/src/display/lv_display.c **** 
 1104              		.loc 1 358 29 is_stmt 0 discriminator 1 view .LVU266
 1105 001e FFF7FEFF 		bl	lv_display_get_default
 1106              	.LVL96:
 360:Lib/lvgl/src/display/lv_display.c ****         return 0;
 1107              		.loc 1 360 5 is_stmt 1 discriminator 1 view .LVU267
 360:Lib/lvgl/src/display/lv_display.c ****         return 0;
 1108              		.loc 1 360 7 is_stmt 0 discriminator 1 view .LVU268
 1109 0022 0446     		mov	r4, r0
 1110 0024 0028     		cmp	r0, #0
 1111 0026 EED1     		bne	.L103
 361:Lib/lvgl/src/display/lv_display.c ****     }
 1112              		.loc 1 361 16 view .LVU269
 1113 0028 0020     		movs	r0, #0
 1114              	.LVL97:
 361:Lib/lvgl/src/display/lv_display.c ****     }
 1115              		.loc 1 361 16 view .LVU270
 1116 002a 00E0     		b	.L102
 1117              	.LVL98:
 1118              	.L111:
 366:Lib/lvgl/src/display/lv_display.c ****             case LV_DISPLAY_ROTATION_180:
 1119              		.loc 1 366 17 is_stmt 1 view .LVU271
 366:Lib/lvgl/src/display/lv_display.c ****             case LV_DISPLAY_ROTATION_180:
 1120              		.loc 1 366 28 is_stmt 0 view .LVU272
 1121 002c 2069     		ldr	r0, [r4, #16]
 1122              	.L102:
 375:Lib/lvgl/src/display/lv_display.c **** 
 1123              		.loc 1 375 1 view .LVU273
 1124 002e 10BD     		pop	{r4, pc}
ARM GAS  C:\Users\Alex\AppData\Local\Temp\cc0G22cc.s 			page 43


 1125              	.L105:
 368:Lib/lvgl/src/display/lv_display.c ****             case LV_DISPLAY_ROTATION_270:
 1126              		.loc 1 368 17 is_stmt 1 view .LVU274
 368:Lib/lvgl/src/display/lv_display.c ****             case LV_DISPLAY_ROTATION_270:
 1127              		.loc 1 368 24 is_stmt 0 view .LVU275
 1128 0030 2046     		mov	r0, r4
 1129 0032 FFF7FEFF 		bl	lv_display_get_physical_vertical_resolution
 1130              	.LVL99:
 368:Lib/lvgl/src/display/lv_display.c ****             case LV_DISPLAY_ROTATION_270:
 1131              		.loc 1 368 80 view .LVU276
 1132 0036 6369     		ldr	r3, [r4, #20]
 368:Lib/lvgl/src/display/lv_display.c ****             case LV_DISPLAY_ROTATION_270:
 1133              		.loc 1 368 74 view .LVU277
 1134 0038 C01A     		subs	r0, r0, r3
 1135 003a F8E7     		b	.L102
 1136              	.L106:
 370:Lib/lvgl/src/display/lv_display.c ****             default:
 1137              		.loc 1 370 17 is_stmt 1 view .LVU278
 370:Lib/lvgl/src/display/lv_display.c ****             default:
 1138              		.loc 1 370 24 is_stmt 0 view .LVU279
 1139 003c 2046     		mov	r0, r4
 1140 003e FFF7FEFF 		bl	lv_display_get_physical_vertical_resolution
 1141              	.LVL100:
 370:Lib/lvgl/src/display/lv_display.c ****             default:
 1142              		.loc 1 370 80 view .LVU280
 1143 0042 2369     		ldr	r3, [r4, #16]
 370:Lib/lvgl/src/display/lv_display.c ****             default:
 1144              		.loc 1 370 74 view .LVU281
 1145 0044 C01A     		subs	r0, r0, r3
 1146 0046 F2E7     		b	.L102
 1147              		.cfi_endproc
 1148              	.LFE248:
 1150              		.section	.text.lv_display_get_dpi,"ax",%progbits
 1151              		.align	1
 1152              		.global	lv_display_get_dpi
 1153              		.syntax unified
 1154              		.thumb
 1155              		.thumb_func
 1157              	lv_display_get_dpi:
 1158              	.LVL101:
 1159              	.LFB249:
 378:Lib/lvgl/src/display/lv_display.c ****     if(disp == NULL) disp = lv_display_get_default();
 1160              		.loc 1 378 1 is_stmt 1 view -0
 1161              		.cfi_startproc
 1162              		@ args = 0, pretend = 0, frame = 0
 1163              		@ frame_needed = 0, uses_anonymous_args = 0
 378:Lib/lvgl/src/display/lv_display.c ****     if(disp == NULL) disp = lv_display_get_default();
 1164              		.loc 1 378 1 is_stmt 0 view .LVU283
 1165 0000 08B5     		push	{r3, lr}
 1166              	.LCFI18:
 1167              		.cfi_def_cfa_offset 8
 1168              		.cfi_offset 3, -8
 1169              		.cfi_offset 14, -4
 379:Lib/lvgl/src/display/lv_display.c ****     if(disp == NULL) return LV_DPI_DEF;  /*Do not return 0 because it might be a divider*/
 1170              		.loc 1 379 5 is_stmt 1 view .LVU284
 379:Lib/lvgl/src/display/lv_display.c ****     if(disp == NULL) return LV_DPI_DEF;  /*Do not return 0 because it might be a divider*/
 1171              		.loc 1 379 7 is_stmt 0 view .LVU285
ARM GAS  C:\Users\Alex\AppData\Local\Temp\cc0G22cc.s 			page 44


 1172 0002 0346     		mov	r3, r0
 1173 0004 08B1     		cbz	r0, .L117
 1174              	.L113:
 1175              	.LVL102:
 381:Lib/lvgl/src/display/lv_display.c **** }
 1176              		.loc 1 381 5 is_stmt 1 view .LVU286
 381:Lib/lvgl/src/display/lv_display.c **** }
 1177              		.loc 1 381 16 is_stmt 0 view .LVU287
 1178 0006 9869     		ldr	r0, [r3, #24]
 1179              	.L112:
 382:Lib/lvgl/src/display/lv_display.c **** 
 1180              		.loc 1 382 1 view .LVU288
 1181 0008 08BD     		pop	{r3, pc}
 1182              	.LVL103:
 1183              	.L117:
 379:Lib/lvgl/src/display/lv_display.c ****     if(disp == NULL) return LV_DPI_DEF;  /*Do not return 0 because it might be a divider*/
 1184              		.loc 1 379 22 is_stmt 1 discriminator 1 view .LVU289
 379:Lib/lvgl/src/display/lv_display.c ****     if(disp == NULL) return LV_DPI_DEF;  /*Do not return 0 because it might be a divider*/
 1185              		.loc 1 379 29 is_stmt 0 discriminator 1 view .LVU290
 1186 000a FFF7FEFF 		bl	lv_display_get_default
 1187              	.LVL104:
 380:Lib/lvgl/src/display/lv_display.c ****     return disp->dpi;
 1188              		.loc 1 380 5 is_stmt 1 discriminator 1 view .LVU291
 380:Lib/lvgl/src/display/lv_display.c ****     return disp->dpi;
 1189              		.loc 1 380 7 is_stmt 0 discriminator 1 view .LVU292
 1190 000e 0346     		mov	r3, r0
 1191 0010 0028     		cmp	r0, #0
 1192 0012 F8D1     		bne	.L113
 380:Lib/lvgl/src/display/lv_display.c ****     return disp->dpi;
 1193              		.loc 1 380 29 view .LVU293
 1194 0014 8220     		movs	r0, #130
 1195              	.LVL105:
 380:Lib/lvgl/src/display/lv_display.c ****     return disp->dpi;
 1196              		.loc 1 380 29 view .LVU294
 1197 0016 F7E7     		b	.L112
 1198              		.cfi_endproc
 1199              	.LFE249:
 1201              		.section	.text.lv_display_set_draw_buffers,"ax",%progbits
 1202              		.align	1
 1203              		.global	lv_display_set_draw_buffers
 1204              		.syntax unified
 1205              		.thumb
 1206              		.thumb_func
 1208              	lv_display_set_draw_buffers:
 1209              	.LVL106:
 1210              	.LFB250:
 389:Lib/lvgl/src/display/lv_display.c ****     if(disp == NULL) disp = lv_display_get_default();
 1211              		.loc 1 389 1 is_stmt 1 view -0
 1212              		.cfi_startproc
 1213              		@ args = 0, pretend = 0, frame = 0
 1214              		@ frame_needed = 0, uses_anonymous_args = 0
 389:Lib/lvgl/src/display/lv_display.c ****     if(disp == NULL) disp = lv_display_get_default();
 1215              		.loc 1 389 1 is_stmt 0 view .LVU296
 1216 0000 38B5     		push	{r3, r4, r5, lr}
 1217              	.LCFI19:
 1218              		.cfi_def_cfa_offset 16
 1219              		.cfi_offset 3, -16
ARM GAS  C:\Users\Alex\AppData\Local\Temp\cc0G22cc.s 			page 45


 1220              		.cfi_offset 4, -12
 1221              		.cfi_offset 5, -8
 1222              		.cfi_offset 14, -4
 1223 0002 0C46     		mov	r4, r1
 1224 0004 1546     		mov	r5, r2
 390:Lib/lvgl/src/display/lv_display.c ****     if(disp == NULL) return;
 1225              		.loc 1 390 5 is_stmt 1 view .LVU297
 390:Lib/lvgl/src/display/lv_display.c ****     if(disp == NULL) return;
 1226              		.loc 1 390 7 is_stmt 0 view .LVU298
 1227 0006 0346     		mov	r3, r0
 1228 0008 18B1     		cbz	r0, .L122
 1229              	.LVL107:
 1230              	.L119:
 393:Lib/lvgl/src/display/lv_display.c ****     disp->buf_2 = buf2;
 1231              		.loc 1 393 5 is_stmt 1 view .LVU299
 393:Lib/lvgl/src/display/lv_display.c ****     disp->buf_2 = buf2;
 1232              		.loc 1 393 17 is_stmt 0 view .LVU300
 1233 000a DC61     		str	r4, [r3, #28]
 394:Lib/lvgl/src/display/lv_display.c ****     disp->buf_act = disp->buf_1;
 1234              		.loc 1 394 5 is_stmt 1 view .LVU301
 394:Lib/lvgl/src/display/lv_display.c ****     disp->buf_act = disp->buf_1;
 1235              		.loc 1 394 17 is_stmt 0 view .LVU302
 1236 000c 1D62     		str	r5, [r3, #32]
 395:Lib/lvgl/src/display/lv_display.c **** }
 1237              		.loc 1 395 5 is_stmt 1 view .LVU303
 395:Lib/lvgl/src/display/lv_display.c **** }
 1238              		.loc 1 395 19 is_stmt 0 view .LVU304
 1239 000e 5C62     		str	r4, [r3, #36]
 1240              	.L118:
 396:Lib/lvgl/src/display/lv_display.c **** 
 1241              		.loc 1 396 1 view .LVU305
 1242 0010 38BD     		pop	{r3, r4, r5, pc}
 1243              	.LVL108:
 1244              	.L122:
 390:Lib/lvgl/src/display/lv_display.c ****     if(disp == NULL) return;
 1245              		.loc 1 390 22 is_stmt 1 discriminator 1 view .LVU306
 390:Lib/lvgl/src/display/lv_display.c ****     if(disp == NULL) return;
 1246              		.loc 1 390 29 is_stmt 0 discriminator 1 view .LVU307
 1247 0012 FFF7FEFF 		bl	lv_display_get_default
 1248              	.LVL109:
 391:Lib/lvgl/src/display/lv_display.c **** 
 1249              		.loc 1 391 5 is_stmt 1 discriminator 1 view .LVU308
 391:Lib/lvgl/src/display/lv_display.c **** 
 1250              		.loc 1 391 7 is_stmt 0 discriminator 1 view .LVU309
 1251 0016 0346     		mov	r3, r0
 1252 0018 0028     		cmp	r0, #0
 1253 001a F6D1     		bne	.L119
 1254 001c F8E7     		b	.L118
 1255              		.cfi_endproc
 1256              	.LFE250:
 1258              		.section	.text.lv_display_set_render_mode,"ax",%progbits
 1259              		.align	1
 1260              		.global	lv_display_set_render_mode
 1261              		.syntax unified
 1262              		.thumb
 1263              		.thumb_func
 1265              	lv_display_set_render_mode:
ARM GAS  C:\Users\Alex\AppData\Local\Temp\cc0G22cc.s 			page 46


 1266              	.LVL110:
 1267              	.LFB252:
 430:Lib/lvgl/src/display/lv_display.c ****     if(disp == NULL) disp = lv_display_get_default();
 1268              		.loc 1 430 1 is_stmt 1 view -0
 1269              		.cfi_startproc
 1270              		@ args = 0, pretend = 0, frame = 0
 1271              		@ frame_needed = 0, uses_anonymous_args = 0
 430:Lib/lvgl/src/display/lv_display.c ****     if(disp == NULL) disp = lv_display_get_default();
 1272              		.loc 1 430 1 is_stmt 0 view .LVU311
 1273 0000 10B5     		push	{r4, lr}
 1274              	.LCFI20:
 1275              		.cfi_def_cfa_offset 8
 1276              		.cfi_offset 4, -8
 1277              		.cfi_offset 14, -4
 1278 0002 0C46     		mov	r4, r1
 431:Lib/lvgl/src/display/lv_display.c ****     if(disp == NULL) return;
 1279              		.loc 1 431 5 is_stmt 1 view .LVU312
 431:Lib/lvgl/src/display/lv_display.c ****     if(disp == NULL) return;
 1280              		.loc 1 431 7 is_stmt 0 view .LVU313
 1281 0004 0346     		mov	r3, r0
 1282 0006 10B1     		cbz	r0, .L127
 1283              	.LVL111:
 1284              	.L124:
 433:Lib/lvgl/src/display/lv_display.c **** }
 1285              		.loc 1 433 5 is_stmt 1 view .LVU314
 433:Lib/lvgl/src/display/lv_display.c **** }
 1286              		.loc 1 433 23 is_stmt 0 view .LVU315
 1287 0008 83F83940 		strb	r4, [r3, #57]
 1288              	.L123:
 434:Lib/lvgl/src/display/lv_display.c **** 
 1289              		.loc 1 434 1 view .LVU316
 1290 000c 10BD     		pop	{r4, pc}
 1291              	.LVL112:
 1292              	.L127:
 431:Lib/lvgl/src/display/lv_display.c ****     if(disp == NULL) return;
 1293              		.loc 1 431 22 is_stmt 1 discriminator 1 view .LVU317
 431:Lib/lvgl/src/display/lv_display.c ****     if(disp == NULL) return;
 1294              		.loc 1 431 29 is_stmt 0 discriminator 1 view .LVU318
 1295 000e FFF7FEFF 		bl	lv_display_get_default
 1296              	.LVL113:
 432:Lib/lvgl/src/display/lv_display.c ****     disp->render_mode = render_mode;
 1297              		.loc 1 432 5 is_stmt 1 discriminator 1 view .LVU319
 432:Lib/lvgl/src/display/lv_display.c ****     disp->render_mode = render_mode;
 1298              		.loc 1 432 7 is_stmt 0 discriminator 1 view .LVU320
 1299 0012 0346     		mov	r3, r0
 1300 0014 0028     		cmp	r0, #0
 1301 0016 F7D1     		bne	.L124
 1302 0018 F8E7     		b	.L123
 1303              		.cfi_endproc
 1304              	.LFE252:
 1306              		.section	.text.lv_display_set_flush_cb,"ax",%progbits
 1307              		.align	1
 1308              		.global	lv_display_set_flush_cb
 1309              		.syntax unified
 1310              		.thumb
 1311              		.thumb_func
 1313              	lv_display_set_flush_cb:
ARM GAS  C:\Users\Alex\AppData\Local\Temp\cc0G22cc.s 			page 47


 1314              	.LVL114:
 1315              	.LFB253:
 437:Lib/lvgl/src/display/lv_display.c ****     if(disp == NULL) disp = lv_display_get_default();
 1316              		.loc 1 437 1 is_stmt 1 view -0
 1317              		.cfi_startproc
 1318              		@ args = 0, pretend = 0, frame = 0
 1319              		@ frame_needed = 0, uses_anonymous_args = 0
 437:Lib/lvgl/src/display/lv_display.c ****     if(disp == NULL) disp = lv_display_get_default();
 1320              		.loc 1 437 1 is_stmt 0 view .LVU322
 1321 0000 10B5     		push	{r4, lr}
 1322              	.LCFI21:
 1323              		.cfi_def_cfa_offset 8
 1324              		.cfi_offset 4, -8
 1325              		.cfi_offset 14, -4
 1326 0002 0C46     		mov	r4, r1
 438:Lib/lvgl/src/display/lv_display.c ****     if(disp == NULL) return;
 1327              		.loc 1 438 5 is_stmt 1 view .LVU323
 438:Lib/lvgl/src/display/lv_display.c ****     if(disp == NULL) return;
 1328              		.loc 1 438 7 is_stmt 0 view .LVU324
 1329 0004 0346     		mov	r3, r0
 1330 0006 08B1     		cbz	r0, .L132
 1331              	.LVL115:
 1332              	.L129:
 441:Lib/lvgl/src/display/lv_display.c **** }
 1333              		.loc 1 441 5 is_stmt 1 view .LVU325
 441:Lib/lvgl/src/display/lv_display.c **** }
 1334              		.loc 1 441 20 is_stmt 0 view .LVU326
 1335 0008 9C62     		str	r4, [r3, #40]
 1336              	.L128:
 442:Lib/lvgl/src/display/lv_display.c **** 
 1337              		.loc 1 442 1 view .LVU327
 1338 000a 10BD     		pop	{r4, pc}
 1339              	.LVL116:
 1340              	.L132:
 438:Lib/lvgl/src/display/lv_display.c ****     if(disp == NULL) return;
 1341              		.loc 1 438 22 is_stmt 1 discriminator 1 view .LVU328
 438:Lib/lvgl/src/display/lv_display.c ****     if(disp == NULL) return;
 1342              		.loc 1 438 29 is_stmt 0 discriminator 1 view .LVU329
 1343 000c FFF7FEFF 		bl	lv_display_get_default
 1344              	.LVL117:
 439:Lib/lvgl/src/display/lv_display.c **** 
 1345              		.loc 1 439 5 is_stmt 1 discriminator 1 view .LVU330
 439:Lib/lvgl/src/display/lv_display.c **** 
 1346              		.loc 1 439 7 is_stmt 0 discriminator 1 view .LVU331
 1347 0010 0346     		mov	r3, r0
 1348 0012 0028     		cmp	r0, #0
 1349 0014 F8D1     		bne	.L129
 1350 0016 F8E7     		b	.L128
 1351              		.cfi_endproc
 1352              	.LFE253:
 1354              		.section	.text.lv_display_set_flush_wait_cb,"ax",%progbits
 1355              		.align	1
 1356              		.global	lv_display_set_flush_wait_cb
 1357              		.syntax unified
 1358              		.thumb
 1359              		.thumb_func
 1361              	lv_display_set_flush_wait_cb:
ARM GAS  C:\Users\Alex\AppData\Local\Temp\cc0G22cc.s 			page 48


 1362              	.LVL118:
 1363              	.LFB254:
 445:Lib/lvgl/src/display/lv_display.c ****     if(disp == NULL) disp = lv_display_get_default();
 1364              		.loc 1 445 1 is_stmt 1 view -0
 1365              		.cfi_startproc
 1366              		@ args = 0, pretend = 0, frame = 0
 1367              		@ frame_needed = 0, uses_anonymous_args = 0
 445:Lib/lvgl/src/display/lv_display.c ****     if(disp == NULL) disp = lv_display_get_default();
 1368              		.loc 1 445 1 is_stmt 0 view .LVU333
 1369 0000 10B5     		push	{r4, lr}
 1370              	.LCFI22:
 1371              		.cfi_def_cfa_offset 8
 1372              		.cfi_offset 4, -8
 1373              		.cfi_offset 14, -4
 1374 0002 0C46     		mov	r4, r1
 446:Lib/lvgl/src/display/lv_display.c ****     if(disp == NULL) return;
 1375              		.loc 1 446 5 is_stmt 1 view .LVU334
 446:Lib/lvgl/src/display/lv_display.c ****     if(disp == NULL) return;
 1376              		.loc 1 446 7 is_stmt 0 view .LVU335
 1377 0004 0346     		mov	r3, r0
 1378 0006 08B1     		cbz	r0, .L137
 1379              	.LVL119:
 1380              	.L134:
 449:Lib/lvgl/src/display/lv_display.c **** }
 1381              		.loc 1 449 5 is_stmt 1 view .LVU336
 449:Lib/lvgl/src/display/lv_display.c **** }
 1382              		.loc 1 449 25 is_stmt 0 view .LVU337
 1383 0008 DC62     		str	r4, [r3, #44]
 1384              	.L133:
 450:Lib/lvgl/src/display/lv_display.c **** 
 1385              		.loc 1 450 1 view .LVU338
 1386 000a 10BD     		pop	{r4, pc}
 1387              	.LVL120:
 1388              	.L137:
 446:Lib/lvgl/src/display/lv_display.c ****     if(disp == NULL) return;
 1389              		.loc 1 446 22 is_stmt 1 discriminator 1 view .LVU339
 446:Lib/lvgl/src/display/lv_display.c ****     if(disp == NULL) return;
 1390              		.loc 1 446 29 is_stmt 0 discriminator 1 view .LVU340
 1391 000c FFF7FEFF 		bl	lv_display_get_default
 1392              	.LVL121:
 447:Lib/lvgl/src/display/lv_display.c **** 
 1393              		.loc 1 447 5 is_stmt 1 discriminator 1 view .LVU341
 447:Lib/lvgl/src/display/lv_display.c **** 
 1394              		.loc 1 447 7 is_stmt 0 discriminator 1 view .LVU342
 1395 0010 0346     		mov	r3, r0
 1396 0012 0028     		cmp	r0, #0
 1397 0014 F8D1     		bne	.L134
 1398 0016 F8E7     		b	.L133
 1399              		.cfi_endproc
 1400              	.LFE254:
 1402              		.section	.text.lv_display_get_color_format,"ax",%progbits
 1403              		.align	1
 1404              		.global	lv_display_get_color_format
 1405              		.syntax unified
 1406              		.thumb
 1407              		.thumb_func
 1409              	lv_display_get_color_format:
ARM GAS  C:\Users\Alex\AppData\Local\Temp\cc0G22cc.s 			page 49


 1410              	.LVL122:
 1411              	.LFB256:
 464:Lib/lvgl/src/display/lv_display.c ****     if(disp == NULL) disp = lv_display_get_default();
 1412              		.loc 1 464 1 is_stmt 1 view -0
 1413              		.cfi_startproc
 1414              		@ args = 0, pretend = 0, frame = 0
 1415              		@ frame_needed = 0, uses_anonymous_args = 0
 464:Lib/lvgl/src/display/lv_display.c ****     if(disp == NULL) disp = lv_display_get_default();
 1416              		.loc 1 464 1 is_stmt 0 view .LVU344
 1417 0000 08B5     		push	{r3, lr}
 1418              	.LCFI23:
 1419              		.cfi_def_cfa_offset 8
 1420              		.cfi_offset 3, -8
 1421              		.cfi_offset 14, -4
 465:Lib/lvgl/src/display/lv_display.c ****     if(disp == NULL) return LV_COLOR_FORMAT_UNKNOWN;
 1422              		.loc 1 465 5 is_stmt 1 view .LVU345
 465:Lib/lvgl/src/display/lv_display.c ****     if(disp == NULL) return LV_COLOR_FORMAT_UNKNOWN;
 1423              		.loc 1 465 7 is_stmt 0 view .LVU346
 1424 0002 0346     		mov	r3, r0
 1425 0004 10B1     		cbz	r0, .L143
 1426              	.L139:
 1427              	.LVL123:
 468:Lib/lvgl/src/display/lv_display.c **** }
 1428              		.loc 1 468 5 is_stmt 1 view .LVU347
 468:Lib/lvgl/src/display/lv_display.c **** }
 1429              		.loc 1 468 16 is_stmt 0 view .LVU348
 1430 0006 93F83B00 		ldrb	r0, [r3, #59]	@ zero_extendqisi2
 1431              	.L140:
 469:Lib/lvgl/src/display/lv_display.c **** 
 1432              		.loc 1 469 1 view .LVU349
 1433 000a 08BD     		pop	{r3, pc}
 1434              	.LVL124:
 1435              	.L143:
 465:Lib/lvgl/src/display/lv_display.c ****     if(disp == NULL) return LV_COLOR_FORMAT_UNKNOWN;
 1436              		.loc 1 465 22 is_stmt 1 discriminator 1 view .LVU350
 465:Lib/lvgl/src/display/lv_display.c ****     if(disp == NULL) return LV_COLOR_FORMAT_UNKNOWN;
 1437              		.loc 1 465 29 is_stmt 0 discriminator 1 view .LVU351
 1438 000c FFF7FEFF 		bl	lv_display_get_default
 1439              	.LVL125:
 466:Lib/lvgl/src/display/lv_display.c **** 
 1440              		.loc 1 466 5 is_stmt 1 discriminator 1 view .LVU352
 466:Lib/lvgl/src/display/lv_display.c **** 
 1441              		.loc 1 466 7 is_stmt 0 discriminator 1 view .LVU353
 1442 0010 0346     		mov	r3, r0
 1443 0012 0028     		cmp	r0, #0
 1444 0014 F7D1     		bne	.L139
 466:Lib/lvgl/src/display/lv_display.c **** 
 1445              		.loc 1 466 29 view .LVU354
 1446 0016 0020     		movs	r0, #0
 1447              	.LVL126:
 466:Lib/lvgl/src/display/lv_display.c **** 
 1448              		.loc 1 466 29 view .LVU355
 1449 0018 F7E7     		b	.L140
 1450              		.cfi_endproc
 1451              	.LFE256:
 1453              		.section	.text.lv_display_set_buffers,"ax",%progbits
 1454              		.align	1
ARM GAS  C:\Users\Alex\AppData\Local\Temp\cc0G22cc.s 			page 50


 1455              		.global	lv_display_set_buffers
 1456              		.syntax unified
 1457              		.thumb
 1458              		.thumb_func
 1460              	lv_display_set_buffers:
 1461              	.LVL127:
 1462              	.LFB251:
 400:Lib/lvgl/src/display/lv_display.c ****     uint32_t w = lv_display_get_horizontal_resolution(disp);
 1463              		.loc 1 400 1 is_stmt 1 view -0
 1464              		.cfi_startproc
 1465              		@ args = 4, pretend = 0, frame = 8
 1466              		@ frame_needed = 0, uses_anonymous_args = 0
 400:Lib/lvgl/src/display/lv_display.c ****     uint32_t w = lv_display_get_horizontal_resolution(disp);
 1467              		.loc 1 400 1 is_stmt 0 view .LVU357
 1468 0000 2DE9F04F 		push	{r4, r5, r6, r7, r8, r9, r10, fp, lr}
 1469              	.LCFI24:
 1470              		.cfi_def_cfa_offset 36
 1471              		.cfi_offset 4, -36
 1472              		.cfi_offset 5, -32
 1473              		.cfi_offset 6, -28
 1474              		.cfi_offset 7, -24
 1475              		.cfi_offset 8, -20
 1476              		.cfi_offset 9, -16
 1477              		.cfi_offset 10, -12
 1478              		.cfi_offset 11, -8
 1479              		.cfi_offset 14, -4
 1480 0004 87B0     		sub	sp, sp, #28
 1481              	.LCFI25:
 1482              		.cfi_def_cfa_offset 64
 1483 0006 0446     		mov	r4, r0
 1484 0008 8846     		mov	r8, r1
 1485 000a 0492     		str	r2, [sp, #16]
 1486 000c 1F46     		mov	r7, r3
 1487 000e 9DF84090 		ldrb	r9, [sp, #64]	@ zero_extendqisi2
 401:Lib/lvgl/src/display/lv_display.c ****     uint32_t h = lv_display_get_vertical_resolution(disp);
 1488              		.loc 1 401 5 is_stmt 1 view .LVU358
 401:Lib/lvgl/src/display/lv_display.c ****     uint32_t h = lv_display_get_vertical_resolution(disp);
 1489              		.loc 1 401 18 is_stmt 0 view .LVU359
 1490 0012 FFF7FEFF 		bl	lv_display_get_horizontal_resolution
 1491              	.LVL128:
 401:Lib/lvgl/src/display/lv_display.c ****     uint32_t h = lv_display_get_vertical_resolution(disp);
 1492              		.loc 1 401 18 view .LVU360
 1493 0016 0546     		mov	r5, r0
 1494              	.LVL129:
 402:Lib/lvgl/src/display/lv_display.c ****     LV_ASSERT(w != 0 && h != 0);
 1495              		.loc 1 402 5 is_stmt 1 view .LVU361
 402:Lib/lvgl/src/display/lv_display.c ****     LV_ASSERT(w != 0 && h != 0);
 1496              		.loc 1 402 18 is_stmt 0 view .LVU362
 1497 0018 2046     		mov	r0, r4
 1498              	.LVL130:
 402:Lib/lvgl/src/display/lv_display.c ****     LV_ASSERT(w != 0 && h != 0);
 1499              		.loc 1 402 18 view .LVU363
 1500 001a FFF7FEFF 		bl	lv_display_get_vertical_resolution
 1501              	.LVL131:
 403:Lib/lvgl/src/display/lv_display.c **** 
 1502              		.loc 1 403 5 is_stmt 1 view .LVU364
 403:Lib/lvgl/src/display/lv_display.c **** 
ARM GAS  C:\Users\Alex\AppData\Local\Temp\cc0G22cc.s 			page 51


 1503              		.loc 1 403 5 view .LVU365
 1504 001e 0DB1     		cbz	r5, .L145
 1505 0020 0646     		mov	r6, r0
 403:Lib/lvgl/src/display/lv_display.c **** 
 1506              		.loc 1 403 5 is_stmt 0 discriminator 2 view .LVU366
 1507 0022 00B9     		cbnz	r0, .L146
 1508              	.L145:
 403:Lib/lvgl/src/display/lv_display.c **** 
 1509              		.loc 1 403 5 is_stmt 1 discriminator 1 view .LVU367
 403:Lib/lvgl/src/display/lv_display.c **** 
 1510              		.loc 1 403 5 discriminator 1 view .LVU368
 403:Lib/lvgl/src/display/lv_display.c **** 
 1511              		.loc 1 403 5 discriminator 1 view .LVU369
 403:Lib/lvgl/src/display/lv_display.c **** 
 1512              		.loc 1 403 5 discriminator 1 view .LVU370
 403:Lib/lvgl/src/display/lv_display.c **** 
 1513              		.loc 1 403 5 discriminator 1 view .LVU371
 1514 0024 FEE7     		b	.L145
 1515              	.L146:
 403:Lib/lvgl/src/display/lv_display.c **** 
 1516              		.loc 1 403 5 discriminator 4 view .LVU372
 405:Lib/lvgl/src/display/lv_display.c ****     uint32_t stride = lv_draw_buf_width_to_stride(w, cf);
 1517              		.loc 1 405 5 discriminator 4 view .LVU373
 405:Lib/lvgl/src/display/lv_display.c ****     uint32_t stride = lv_draw_buf_width_to_stride(w, cf);
 1518              		.loc 1 405 28 is_stmt 0 discriminator 4 view .LVU374
 1519 0026 2046     		mov	r0, r4
 1520              	.LVL132:
 405:Lib/lvgl/src/display/lv_display.c ****     uint32_t stride = lv_draw_buf_width_to_stride(w, cf);
 1521              		.loc 1 405 28 discriminator 4 view .LVU375
 1522 0028 FFF7FEFF 		bl	lv_display_get_color_format
 1523              	.LVL133:
 1524 002c 8246     		mov	r10, r0
 1525              	.LVL134:
 406:Lib/lvgl/src/display/lv_display.c ****     if(render_mode == LV_DISPLAY_RENDER_MODE_PARTIAL) {
 1526              		.loc 1 406 5 is_stmt 1 discriminator 4 view .LVU376
 406:Lib/lvgl/src/display/lv_display.c ****     if(render_mode == LV_DISPLAY_RENDER_MODE_PARTIAL) {
 1527              		.loc 1 406 23 is_stmt 0 discriminator 4 view .LVU377
 1528 002e 0146     		mov	r1, r0
 1529 0030 2846     		mov	r0, r5
 1530              	.LVL135:
 406:Lib/lvgl/src/display/lv_display.c ****     if(render_mode == LV_DISPLAY_RENDER_MODE_PARTIAL) {
 1531              		.loc 1 406 23 discriminator 4 view .LVU378
 1532 0032 FFF7FEFF 		bl	lv_draw_buf_width_to_stride
 1533              	.LVL136:
 1534 0036 8346     		mov	fp, r0
 1535              	.LVL137:
 407:Lib/lvgl/src/display/lv_display.c ****         /* for partial mode, we calculate the height based on the buf_size and stride */
 1536              		.loc 1 407 5 is_stmt 1 discriminator 4 view .LVU379
 407:Lib/lvgl/src/display/lv_display.c ****         /* for partial mode, we calculate the height based on the buf_size and stride */
 1537              		.loc 1 407 7 is_stmt 0 discriminator 4 view .LVU380
 1538 0038 B9F1000F 		cmp	r9, #0
 1539 003c 03D1     		bne	.L147
 409:Lib/lvgl/src/display/lv_display.c ****     }
 1540              		.loc 1 409 9 is_stmt 1 view .LVU381
 409:Lib/lvgl/src/display/lv_display.c ****     }
 1541              		.loc 1 409 11 is_stmt 0 view .LVU382
 1542 003e B7FBF0F6 		udiv	r6, r7, r0
ARM GAS  C:\Users\Alex\AppData\Local\Temp\cc0G22cc.s 			page 52


 1543              	.LVL138:
 1544              	.L148:
 418:Lib/lvgl/src/display/lv_display.c ****         LV_ASSERT_MSG(h != 0, "the buffer is too small");
 1545              		.loc 1 418 5 is_stmt 1 view .LVU383
 418:Lib/lvgl/src/display/lv_display.c ****         LV_ASSERT_MSG(h != 0, "the buffer is too small");
 1546              		.loc 1 418 7 is_stmt 0 view .LVU384
 1547 0042 2EB9     		cbnz	r6, .L150
 1548              	.L151:
 419:Lib/lvgl/src/display/lv_display.c ****         return;
 1549              		.loc 1 419 9 is_stmt 1 discriminator 3 view .LVU385
 419:Lib/lvgl/src/display/lv_display.c ****         return;
 1550              		.loc 1 419 9 discriminator 3 view .LVU386
 419:Lib/lvgl/src/display/lv_display.c ****         return;
 1551              		.loc 1 419 9 discriminator 3 view .LVU387
 419:Lib/lvgl/src/display/lv_display.c ****         return;
 1552              		.loc 1 419 9 discriminator 3 view .LVU388
 419:Lib/lvgl/src/display/lv_display.c ****         return;
 1553              		.loc 1 419 9 discriminator 3 view .LVU389
 1554 0044 FEE7     		b	.L151
 1555              	.L147:
 411:Lib/lvgl/src/display/lv_display.c ****         LV_LOG_ERROR("%s mode requires screen sized buffer(s)",
 1556              		.loc 1 411 10 view .LVU390
 411:Lib/lvgl/src/display/lv_display.c ****         LV_LOG_ERROR("%s mode requires screen sized buffer(s)",
 1557              		.loc 1 411 20 is_stmt 0 view .LVU391
 1558 0046 00FB06F3 		mul	r3, r0, r6
 411:Lib/lvgl/src/display/lv_display.c ****         LV_LOG_ERROR("%s mode requires screen sized buffer(s)",
 1559              		.loc 1 411 12 view .LVU392
 1560 004a BB42     		cmp	r3, r7
 1561 004c F9D9     		bls	.L148
 1562              	.L149:
 414:Lib/lvgl/src/display/lv_display.c ****         return;
 1563              		.loc 1 414 9 is_stmt 1 discriminator 2 view .LVU393
 414:Lib/lvgl/src/display/lv_display.c ****         return;
 1564              		.loc 1 414 9 discriminator 2 view .LVU394
 414:Lib/lvgl/src/display/lv_display.c ****         return;
 1565              		.loc 1 414 9 discriminator 2 view .LVU395
 414:Lib/lvgl/src/display/lv_display.c ****         return;
 1566              		.loc 1 414 9 discriminator 2 view .LVU396
 414:Lib/lvgl/src/display/lv_display.c ****         return;
 1567              		.loc 1 414 9 discriminator 2 view .LVU397
 1568 004e FEE7     		b	.L149
 1569              	.L150:
 423:Lib/lvgl/src/display/lv_display.c ****     lv_draw_buf_init(&disp->_static_buf2, w, h, cf, stride, buf2, buf_size);
 1570              		.loc 1 423 5 view .LVU398
 1571 0050 04F51C73 		add	r3, r4, #624
 1572 0054 1846     		mov	r0, r3
 1573              	.LVL139:
 423:Lib/lvgl/src/display/lv_display.c ****     lv_draw_buf_init(&disp->_static_buf2, w, h, cf, stride, buf2, buf_size);
 1574              		.loc 1 423 5 is_stmt 0 view .LVU399
 1575 0056 0593     		str	r3, [sp, #20]
 1576 0058 0297     		str	r7, [sp, #8]
 1577 005a CDF80480 		str	r8, [sp, #4]
 1578 005e CDF800B0 		str	fp, [sp]
 1579 0062 5346     		mov	r3, r10
 1580 0064 3246     		mov	r2, r6
 1581 0066 2946     		mov	r1, r5
 1582 0068 FFF7FEFF 		bl	lv_draw_buf_init
ARM GAS  C:\Users\Alex\AppData\Local\Temp\cc0G22cc.s 			page 53


 1583              	.LVL140:
 424:Lib/lvgl/src/display/lv_display.c ****     lv_display_set_draw_buffers(disp, &disp->_static_buf1, buf2 ? &disp->_static_buf2 : NULL);
 1584              		.loc 1 424 5 is_stmt 1 view .LVU400
 1585 006c 04F52278 		add	r8, r4, #648
 1586              	.LVL141:
 424:Lib/lvgl/src/display/lv_display.c ****     lv_display_set_draw_buffers(disp, &disp->_static_buf1, buf2 ? &disp->_static_buf2 : NULL);
 1587              		.loc 1 424 5 is_stmt 0 view .LVU401
 1588 0070 0297     		str	r7, [sp, #8]
 1589 0072 049F     		ldr	r7, [sp, #16]
 1590              	.LVL142:
 424:Lib/lvgl/src/display/lv_display.c ****     lv_display_set_draw_buffers(disp, &disp->_static_buf1, buf2 ? &disp->_static_buf2 : NULL);
 1591              		.loc 1 424 5 view .LVU402
 1592 0074 0197     		str	r7, [sp, #4]
 1593 0076 CDF800B0 		str	fp, [sp]
 1594 007a 5346     		mov	r3, r10
 1595 007c 3246     		mov	r2, r6
 1596 007e 2946     		mov	r1, r5
 1597 0080 4046     		mov	r0, r8
 1598 0082 FFF7FEFF 		bl	lv_draw_buf_init
 1599              	.LVL143:
 425:Lib/lvgl/src/display/lv_display.c ****     lv_display_set_render_mode(disp, render_mode);
 1600              		.loc 1 425 5 is_stmt 1 view .LVU403
 1601 0086 5FB1     		cbz	r7, .L154
 1602              	.L152:
 425:Lib/lvgl/src/display/lv_display.c ****     lv_display_set_render_mode(disp, render_mode);
 1603              		.loc 1 425 5 is_stmt 0 discriminator 4 view .LVU404
 1604 0088 4246     		mov	r2, r8
 1605 008a 0599     		ldr	r1, [sp, #20]
 1606 008c 2046     		mov	r0, r4
 1607 008e FFF7FEFF 		bl	lv_display_set_draw_buffers
 1608              	.LVL144:
 426:Lib/lvgl/src/display/lv_display.c **** }
 1609              		.loc 1 426 5 is_stmt 1 discriminator 4 view .LVU405
 1610 0092 4946     		mov	r1, r9
 1611 0094 2046     		mov	r0, r4
 1612 0096 FFF7FEFF 		bl	lv_display_set_render_mode
 1613              	.LVL145:
 427:Lib/lvgl/src/display/lv_display.c **** 
 1614              		.loc 1 427 1 is_stmt 0 discriminator 4 view .LVU406
 1615 009a 07B0     		add	sp, sp, #28
 1616              	.LCFI26:
 1617              		.cfi_remember_state
 1618              		.cfi_def_cfa_offset 36
 1619              		@ sp needed
 1620 009c BDE8F08F 		pop	{r4, r5, r6, r7, r8, r9, r10, fp, pc}
 1621              	.LVL146:
 1622              	.L154:
 1623              	.LCFI27:
 1624              		.cfi_restore_state
 425:Lib/lvgl/src/display/lv_display.c ****     lv_display_set_render_mode(disp, render_mode);
 1625              		.loc 1 425 5 view .LVU407
 1626 00a0 DDF81080 		ldr	r8, [sp, #16]
 1627 00a4 F0E7     		b	.L152
 1628              		.cfi_endproc
 1629              	.LFE251:
 1631              		.section	.text.lv_display_set_antialiasing,"ax",%progbits
 1632              		.align	1
ARM GAS  C:\Users\Alex\AppData\Local\Temp\cc0G22cc.s 			page 54


 1633              		.global	lv_display_set_antialiasing
 1634              		.syntax unified
 1635              		.thumb
 1636              		.thumb_func
 1638              	lv_display_set_antialiasing:
 1639              	.LVL147:
 1640              	.LFB257:
 472:Lib/lvgl/src/display/lv_display.c ****     if(disp == NULL) disp = lv_display_get_default();
 1641              		.loc 1 472 1 is_stmt 1 view -0
 1642              		.cfi_startproc
 1643              		@ args = 0, pretend = 0, frame = 0
 1644              		@ frame_needed = 0, uses_anonymous_args = 0
 472:Lib/lvgl/src/display/lv_display.c ****     if(disp == NULL) disp = lv_display_get_default();
 1645              		.loc 1 472 1 is_stmt 0 view .LVU409
 1646 0000 10B5     		push	{r4, lr}
 1647              	.LCFI28:
 1648              		.cfi_def_cfa_offset 8
 1649              		.cfi_offset 4, -8
 1650              		.cfi_offset 14, -4
 1651 0002 0C46     		mov	r4, r1
 473:Lib/lvgl/src/display/lv_display.c ****     if(disp == NULL) return;
 1652              		.loc 1 473 5 is_stmt 1 view .LVU410
 473:Lib/lvgl/src/display/lv_display.c ****     if(disp == NULL) return;
 1653              		.loc 1 473 7 is_stmt 0 view .LVU411
 1654 0004 0346     		mov	r3, r0
 1655 0006 30B1     		cbz	r0, .L159
 1656              	.LVL148:
 1657              	.L156:
 476:Lib/lvgl/src/display/lv_display.c **** }
 1658              		.loc 1 476 5 is_stmt 1 view .LVU412
 476:Lib/lvgl/src/display/lv_display.c **** }
 1659              		.loc 1 476 24 is_stmt 0 view .LVU413
 1660 0008 93F83A20 		ldrb	r2, [r3, #58]	@ zero_extendqisi2
 1661 000c 64F30002 		bfi	r2, r4, #0, #1
 1662 0010 83F83A20 		strb	r2, [r3, #58]
 1663              	.L155:
 477:Lib/lvgl/src/display/lv_display.c **** 
 1664              		.loc 1 477 1 view .LVU414
 1665 0014 10BD     		pop	{r4, pc}
 1666              	.LVL149:
 1667              	.L159:
 473:Lib/lvgl/src/display/lv_display.c ****     if(disp == NULL) return;
 1668              		.loc 1 473 22 is_stmt 1 discriminator 1 view .LVU415
 473:Lib/lvgl/src/display/lv_display.c ****     if(disp == NULL) return;
 1669              		.loc 1 473 29 is_stmt 0 discriminator 1 view .LVU416
 1670 0016 FFF7FEFF 		bl	lv_display_get_default
 1671              	.LVL150:
 474:Lib/lvgl/src/display/lv_display.c **** 
 1672              		.loc 1 474 5 is_stmt 1 discriminator 1 view .LVU417
 474:Lib/lvgl/src/display/lv_display.c **** 
 1673              		.loc 1 474 7 is_stmt 0 discriminator 1 view .LVU418
 1674 001a 0346     		mov	r3, r0
 1675 001c 0028     		cmp	r0, #0
 1676 001e F3D1     		bne	.L156
 1677 0020 F8E7     		b	.L155
 1678              		.cfi_endproc
 1679              	.LFE257:
ARM GAS  C:\Users\Alex\AppData\Local\Temp\cc0G22cc.s 			page 55


 1681              		.section	.text.lv_display_get_antialiasing,"ax",%progbits
 1682              		.align	1
 1683              		.global	lv_display_get_antialiasing
 1684              		.syntax unified
 1685              		.thumb
 1686              		.thumb_func
 1688              	lv_display_get_antialiasing:
 1689              	.LVL151:
 1690              	.LFB258:
 480:Lib/lvgl/src/display/lv_display.c ****     if(disp == NULL) disp = lv_display_get_default();
 1691              		.loc 1 480 1 is_stmt 1 view -0
 1692              		.cfi_startproc
 1693              		@ args = 0, pretend = 0, frame = 0
 1694              		@ frame_needed = 0, uses_anonymous_args = 0
 480:Lib/lvgl/src/display/lv_display.c ****     if(disp == NULL) disp = lv_display_get_default();
 1695              		.loc 1 480 1 is_stmt 0 view .LVU420
 1696 0000 08B5     		push	{r3, lr}
 1697              	.LCFI29:
 1698              		.cfi_def_cfa_offset 8
 1699              		.cfi_offset 3, -8
 1700              		.cfi_offset 14, -4
 481:Lib/lvgl/src/display/lv_display.c ****     if(disp == NULL) return false;
 1701              		.loc 1 481 5 is_stmt 1 view .LVU421
 481:Lib/lvgl/src/display/lv_display.c ****     if(disp == NULL) return false;
 1702              		.loc 1 481 7 is_stmt 0 view .LVU422
 1703 0002 0346     		mov	r3, r0
 1704 0004 20B1     		cbz	r0, .L165
 1705              	.L161:
 1706              	.LVL152:
 484:Lib/lvgl/src/display/lv_display.c **** }
 1707              		.loc 1 484 5 is_stmt 1 view .LVU423
 484:Lib/lvgl/src/display/lv_display.c **** }
 1708              		.loc 1 484 16 is_stmt 0 view .LVU424
 1709 0006 93F83A00 		ldrb	r0, [r3, #58]	@ zero_extendqisi2
 1710 000a 00F00100 		and	r0, r0, #1
 1711              	.L162:
 485:Lib/lvgl/src/display/lv_display.c **** 
 1712              		.loc 1 485 1 view .LVU425
 1713 000e 08BD     		pop	{r3, pc}
 1714              	.LVL153:
 1715              	.L165:
 481:Lib/lvgl/src/display/lv_display.c ****     if(disp == NULL) return false;
 1716              		.loc 1 481 22 is_stmt 1 discriminator 1 view .LVU426
 481:Lib/lvgl/src/display/lv_display.c ****     if(disp == NULL) return false;
 1717              		.loc 1 481 29 is_stmt 0 discriminator 1 view .LVU427
 1718 0010 FFF7FEFF 		bl	lv_display_get_default
 1719              	.LVL154:
 482:Lib/lvgl/src/display/lv_display.c **** 
 1720              		.loc 1 482 5 is_stmt 1 discriminator 1 view .LVU428
 482:Lib/lvgl/src/display/lv_display.c **** 
 1721              		.loc 1 482 7 is_stmt 0 discriminator 1 view .LVU429
 1722 0014 0346     		mov	r3, r0
 1723 0016 0028     		cmp	r0, #0
 1724 0018 F5D1     		bne	.L161
 482:Lib/lvgl/src/display/lv_display.c **** 
 1725              		.loc 1 482 29 view .LVU430
 1726 001a 0020     		movs	r0, #0
ARM GAS  C:\Users\Alex\AppData\Local\Temp\cc0G22cc.s 			page 56


 1727              	.LVL155:
 482:Lib/lvgl/src/display/lv_display.c **** 
 1728              		.loc 1 482 29 view .LVU431
 1729 001c F7E7     		b	.L162
 1730              		.cfi_endproc
 1731              	.LFE258:
 1733              		.section	.text.lv_display_flush_ready,"ax",%progbits
 1734              		.align	1
 1735              		.global	lv_display_flush_ready
 1736              		.syntax unified
 1737              		.thumb
 1738              		.thumb_func
 1740              	lv_display_flush_ready:
 1741              	.LVL156:
 1742              	.LFB259:
 488:Lib/lvgl/src/display/lv_display.c ****     disp->flushing = 0;
 1743              		.loc 1 488 1 is_stmt 1 view -0
 1744              		.cfi_startproc
 1745              		@ args = 0, pretend = 0, frame = 0
 1746              		@ frame_needed = 0, uses_anonymous_args = 0
 1747              		@ link register save eliminated.
 489:Lib/lvgl/src/display/lv_display.c **** }
 1748              		.loc 1 489 5 view .LVU433
 489:Lib/lvgl/src/display/lv_display.c **** }
 1749              		.loc 1 489 20 is_stmt 0 view .LVU434
 1750 0000 0023     		movs	r3, #0
 1751 0002 0363     		str	r3, [r0, #48]
 490:Lib/lvgl/src/display/lv_display.c **** 
 1752              		.loc 1 490 1 view .LVU435
 1753 0004 7047     		bx	lr
 1754              		.cfi_endproc
 1755              	.LFE259:
 1757              		.section	.text.lv_display_flush_is_last,"ax",%progbits
 1758              		.align	1
 1759              		.global	lv_display_flush_is_last
 1760              		.syntax unified
 1761              		.thumb
 1762              		.thumb_func
 1764              	lv_display_flush_is_last:
 1765              	.LVL157:
 1766              	.LFB260:
 493:Lib/lvgl/src/display/lv_display.c ****     return disp->flushing_last;
 1767              		.loc 1 493 1 is_stmt 1 view -0
 1768              		.cfi_startproc
 1769              		@ args = 0, pretend = 0, frame = 0
 1770              		@ frame_needed = 0, uses_anonymous_args = 0
 1771              		@ link register save eliminated.
 494:Lib/lvgl/src/display/lv_display.c **** }
 1772              		.loc 1 494 5 view .LVU437
 494:Lib/lvgl/src/display/lv_display.c **** }
 1773              		.loc 1 494 16 is_stmt 0 view .LVU438
 1774 0000 406B     		ldr	r0, [r0, #52]
 1775              	.LVL158:
 495:Lib/lvgl/src/display/lv_display.c **** 
 1776              		.loc 1 495 1 view .LVU439
 1777 0002 0038     		subs	r0, r0, #0
 1778 0004 18BF     		it	ne
ARM GAS  C:\Users\Alex\AppData\Local\Temp\cc0G22cc.s 			page 57


 1779 0006 0120     		movne	r0, #1
 1780 0008 7047     		bx	lr
 1781              		.cfi_endproc
 1782              	.LFE260:
 1784              		.section	.text.lv_display_is_double_buffered,"ax",%progbits
 1785              		.align	1
 1786              		.global	lv_display_is_double_buffered
 1787              		.syntax unified
 1788              		.thumb
 1789              		.thumb_func
 1791              	lv_display_is_double_buffered:
 1792              	.LVL159:
 1793              	.LFB261:
 498:Lib/lvgl/src/display/lv_display.c ****     return disp->buf_2 != NULL;
 1794              		.loc 1 498 1 is_stmt 1 view -0
 1795              		.cfi_startproc
 1796              		@ args = 0, pretend = 0, frame = 0
 1797              		@ frame_needed = 0, uses_anonymous_args = 0
 1798              		@ link register save eliminated.
 499:Lib/lvgl/src/display/lv_display.c **** }
 1799              		.loc 1 499 5 view .LVU441
 499:Lib/lvgl/src/display/lv_display.c **** }
 1800              		.loc 1 499 16 is_stmt 0 view .LVU442
 1801 0000 006A     		ldr	r0, [r0, #32]
 1802              	.LVL160:
 500:Lib/lvgl/src/display/lv_display.c **** 
 1803              		.loc 1 500 1 view .LVU443
 1804 0002 0038     		subs	r0, r0, #0
 1805 0004 18BF     		it	ne
 1806 0006 0120     		movne	r0, #1
 1807 0008 7047     		bx	lr
 1808              		.cfi_endproc
 1809              	.LFE261:
 1811              		.section	.text.lv_display_get_screen_active,"ax",%progbits
 1812              		.align	1
 1813              		.global	lv_display_get_screen_active
 1814              		.syntax unified
 1815              		.thumb
 1816              		.thumb_func
 1818              	lv_display_get_screen_active:
 1819              	.LVL161:
 1820              	.LFB262:
 507:Lib/lvgl/src/display/lv_display.c ****     if(!disp) disp = lv_display_get_default();
 1821              		.loc 1 507 1 is_stmt 1 view -0
 1822              		.cfi_startproc
 1823              		@ args = 0, pretend = 0, frame = 0
 1824              		@ frame_needed = 0, uses_anonymous_args = 0
 507:Lib/lvgl/src/display/lv_display.c ****     if(!disp) disp = lv_display_get_default();
 1825              		.loc 1 507 1 is_stmt 0 view .LVU445
 1826 0000 08B5     		push	{r3, lr}
 1827              	.LCFI30:
 1828              		.cfi_def_cfa_offset 8
 1829              		.cfi_offset 3, -8
 1830              		.cfi_offset 14, -4
 508:Lib/lvgl/src/display/lv_display.c ****     if(!disp) {
 1831              		.loc 1 508 5 is_stmt 1 view .LVU446
 508:Lib/lvgl/src/display/lv_display.c ****     if(!disp) {
ARM GAS  C:\Users\Alex\AppData\Local\Temp\cc0G22cc.s 			page 58


 1832              		.loc 1 508 7 is_stmt 0 view .LVU447
 1833 0002 0346     		mov	r3, r0
 1834 0004 10B1     		cbz	r0, .L174
 1835              	.L170:
 1836              	.LVL162:
 514:Lib/lvgl/src/display/lv_display.c **** }
 1837              		.loc 1 514 5 is_stmt 1 view .LVU448
 514:Lib/lvgl/src/display/lv_display.c **** }
 1838              		.loc 1 514 16 is_stmt 0 view .LVU449
 1839 0006 D3F8B002 		ldr	r0, [r3, #688]
 1840              	.L169:
 515:Lib/lvgl/src/display/lv_display.c **** 
 1841              		.loc 1 515 1 view .LVU450
 1842 000a 08BD     		pop	{r3, pc}
 1843              	.LVL163:
 1844              	.L174:
 508:Lib/lvgl/src/display/lv_display.c ****     if(!disp) {
 1845              		.loc 1 508 15 is_stmt 1 discriminator 1 view .LVU451
 508:Lib/lvgl/src/display/lv_display.c ****     if(!disp) {
 1846              		.loc 1 508 22 is_stmt 0 discriminator 1 view .LVU452
 1847 000c FFF7FEFF 		bl	lv_display_get_default
 1848              	.LVL164:
 509:Lib/lvgl/src/display/lv_display.c ****         LV_LOG_WARN("no display registered to get its active screen");
 1849              		.loc 1 509 5 is_stmt 1 discriminator 1 view .LVU453
 509:Lib/lvgl/src/display/lv_display.c ****         LV_LOG_WARN("no display registered to get its active screen");
 1850              		.loc 1 509 7 is_stmt 0 discriminator 1 view .LVU454
 1851 0010 0346     		mov	r3, r0
 1852 0012 0028     		cmp	r0, #0
 1853 0014 F7D1     		bne	.L170
 1854 0016 F8E7     		b	.L169
 1855              		.cfi_endproc
 1856              	.LFE262:
 1858              		.section	.text.lv_screen_active,"ax",%progbits
 1859              		.align	1
 1860              		.syntax unified
 1861              		.thumb
 1862              		.thumb_func
 1864              	lv_screen_active:
 1865              	.LFB89:
 1866              		.file 2 "Lib/lvgl/src/display/lv_display.h"
   1:Lib/lvgl/src/display/lv_display.h **** /**
   2:Lib/lvgl/src/display/lv_display.h ****  * @file lv_disp.h
   3:Lib/lvgl/src/display/lv_display.h ****  *
   4:Lib/lvgl/src/display/lv_display.h ****  */
   5:Lib/lvgl/src/display/lv_display.h **** 
   6:Lib/lvgl/src/display/lv_display.h **** #ifndef LV_DISPLAY_H
   7:Lib/lvgl/src/display/lv_display.h **** #define LV_DISPLAY_H
   8:Lib/lvgl/src/display/lv_display.h **** 
   9:Lib/lvgl/src/display/lv_display.h **** #ifdef __cplusplus
  10:Lib/lvgl/src/display/lv_display.h **** extern "C" {
  11:Lib/lvgl/src/display/lv_display.h **** #endif
  12:Lib/lvgl/src/display/lv_display.h **** 
  13:Lib/lvgl/src/display/lv_display.h **** /*********************
  14:Lib/lvgl/src/display/lv_display.h ****  *      INCLUDES
  15:Lib/lvgl/src/display/lv_display.h ****  *********************/
  16:Lib/lvgl/src/display/lv_display.h **** #include "../misc/lv_types.h"
  17:Lib/lvgl/src/display/lv_display.h **** #include "../misc/lv_timer.h"
ARM GAS  C:\Users\Alex\AppData\Local\Temp\cc0G22cc.s 			page 59


  18:Lib/lvgl/src/display/lv_display.h **** #include "../misc/lv_event.h"
  19:Lib/lvgl/src/display/lv_display.h **** #include "../misc/lv_color.h"
  20:Lib/lvgl/src/display/lv_display.h **** #include "../draw/lv_draw.h"
  21:Lib/lvgl/src/display/lv_display.h **** 
  22:Lib/lvgl/src/display/lv_display.h **** /*********************
  23:Lib/lvgl/src/display/lv_display.h ****  *      DEFINES
  24:Lib/lvgl/src/display/lv_display.h ****  *********************/
  25:Lib/lvgl/src/display/lv_display.h **** 
  26:Lib/lvgl/src/display/lv_display.h **** #ifndef LV_ATTRIBUTE_FLUSH_READY
  27:Lib/lvgl/src/display/lv_display.h **** #define LV_ATTRIBUTE_FLUSH_READY
  28:Lib/lvgl/src/display/lv_display.h **** #endif
  29:Lib/lvgl/src/display/lv_display.h **** 
  30:Lib/lvgl/src/display/lv_display.h **** /**********************
  31:Lib/lvgl/src/display/lv_display.h ****  *      TYPEDEFS
  32:Lib/lvgl/src/display/lv_display.h ****  **********************/
  33:Lib/lvgl/src/display/lv_display.h **** 
  34:Lib/lvgl/src/display/lv_display.h **** typedef enum {
  35:Lib/lvgl/src/display/lv_display.h ****     LV_DISPLAY_ROTATION_0 = 0,
  36:Lib/lvgl/src/display/lv_display.h ****     LV_DISPLAY_ROTATION_90,
  37:Lib/lvgl/src/display/lv_display.h ****     LV_DISPLAY_ROTATION_180,
  38:Lib/lvgl/src/display/lv_display.h ****     LV_DISPLAY_ROTATION_270
  39:Lib/lvgl/src/display/lv_display.h **** } lv_display_rotation_t;
  40:Lib/lvgl/src/display/lv_display.h **** 
  41:Lib/lvgl/src/display/lv_display.h **** typedef enum {
  42:Lib/lvgl/src/display/lv_display.h ****     /**
  43:Lib/lvgl/src/display/lv_display.h ****      * Use the buffer(s) to render the screen is smaller parts.
  44:Lib/lvgl/src/display/lv_display.h ****      * This way the buffers can be smaller then the display to save RAM. At least 1/10 screen size 
  45:Lib/lvgl/src/display/lv_display.h ****      */
  46:Lib/lvgl/src/display/lv_display.h ****     LV_DISPLAY_RENDER_MODE_PARTIAL,
  47:Lib/lvgl/src/display/lv_display.h **** 
  48:Lib/lvgl/src/display/lv_display.h ****     /**
  49:Lib/lvgl/src/display/lv_display.h ****      * The buffer(s) has to be screen sized and LVGL will render into the correct location of the b
  50:Lib/lvgl/src/display/lv_display.h ****      * This way the buffer always contain the whole image. Only the changed ares will be updated.
  51:Lib/lvgl/src/display/lv_display.h ****      * With 2 buffers the buffers' content are kept in sync automatically and in flush_cb only addr
  52:Lib/lvgl/src/display/lv_display.h ****      */
  53:Lib/lvgl/src/display/lv_display.h ****     LV_DISPLAY_RENDER_MODE_DIRECT,
  54:Lib/lvgl/src/display/lv_display.h **** 
  55:Lib/lvgl/src/display/lv_display.h ****     /**
  56:Lib/lvgl/src/display/lv_display.h ****      * Always redraw the whole screen even if only one pixel has been changed.
  57:Lib/lvgl/src/display/lv_display.h ****      * With 2 buffers in flush_cb only and address change is required.
  58:Lib/lvgl/src/display/lv_display.h ****      */
  59:Lib/lvgl/src/display/lv_display.h ****     LV_DISPLAY_RENDER_MODE_FULL,
  60:Lib/lvgl/src/display/lv_display.h **** } lv_display_render_mode_t;
  61:Lib/lvgl/src/display/lv_display.h **** 
  62:Lib/lvgl/src/display/lv_display.h **** typedef enum {
  63:Lib/lvgl/src/display/lv_display.h ****     LV_SCR_LOAD_ANIM_NONE,
  64:Lib/lvgl/src/display/lv_display.h ****     LV_SCR_LOAD_ANIM_OVER_LEFT,
  65:Lib/lvgl/src/display/lv_display.h ****     LV_SCR_LOAD_ANIM_OVER_RIGHT,
  66:Lib/lvgl/src/display/lv_display.h ****     LV_SCR_LOAD_ANIM_OVER_TOP,
  67:Lib/lvgl/src/display/lv_display.h ****     LV_SCR_LOAD_ANIM_OVER_BOTTOM,
  68:Lib/lvgl/src/display/lv_display.h ****     LV_SCR_LOAD_ANIM_MOVE_LEFT,
  69:Lib/lvgl/src/display/lv_display.h ****     LV_SCR_LOAD_ANIM_MOVE_RIGHT,
  70:Lib/lvgl/src/display/lv_display.h ****     LV_SCR_LOAD_ANIM_MOVE_TOP,
  71:Lib/lvgl/src/display/lv_display.h ****     LV_SCR_LOAD_ANIM_MOVE_BOTTOM,
  72:Lib/lvgl/src/display/lv_display.h ****     LV_SCR_LOAD_ANIM_FADE_IN,
  73:Lib/lvgl/src/display/lv_display.h ****     LV_SCR_LOAD_ANIM_FADE_ON = LV_SCR_LOAD_ANIM_FADE_IN, /*For backward compatibility*/
  74:Lib/lvgl/src/display/lv_display.h ****     LV_SCR_LOAD_ANIM_FADE_OUT,
ARM GAS  C:\Users\Alex\AppData\Local\Temp\cc0G22cc.s 			page 60


  75:Lib/lvgl/src/display/lv_display.h ****     LV_SCR_LOAD_ANIM_OUT_LEFT,
  76:Lib/lvgl/src/display/lv_display.h ****     LV_SCR_LOAD_ANIM_OUT_RIGHT,
  77:Lib/lvgl/src/display/lv_display.h ****     LV_SCR_LOAD_ANIM_OUT_TOP,
  78:Lib/lvgl/src/display/lv_display.h ****     LV_SCR_LOAD_ANIM_OUT_BOTTOM,
  79:Lib/lvgl/src/display/lv_display.h **** } lv_screen_load_anim_t;
  80:Lib/lvgl/src/display/lv_display.h **** 
  81:Lib/lvgl/src/display/lv_display.h **** typedef void (*lv_display_flush_cb_t)(lv_display_t * disp, const lv_area_t * area, uint8_t * px_map
  82:Lib/lvgl/src/display/lv_display.h **** typedef void (*lv_display_flush_wait_cb_t)(lv_display_t * disp);
  83:Lib/lvgl/src/display/lv_display.h **** 
  84:Lib/lvgl/src/display/lv_display.h **** /**********************
  85:Lib/lvgl/src/display/lv_display.h ****  * GLOBAL PROTOTYPES
  86:Lib/lvgl/src/display/lv_display.h ****  **********************/
  87:Lib/lvgl/src/display/lv_display.h **** 
  88:Lib/lvgl/src/display/lv_display.h **** /**
  89:Lib/lvgl/src/display/lv_display.h ****  * Create a new display with the given resolution
  90:Lib/lvgl/src/display/lv_display.h ****  * @param hor_res   horizontal resolution in pixels
  91:Lib/lvgl/src/display/lv_display.h ****  * @param ver_res   vertical resolution in pixels
  92:Lib/lvgl/src/display/lv_display.h ****  * @return          pointer to a display object or `NULL` on error
  93:Lib/lvgl/src/display/lv_display.h ****  */
  94:Lib/lvgl/src/display/lv_display.h **** lv_display_t * lv_display_create(int32_t hor_res, int32_t ver_res);
  95:Lib/lvgl/src/display/lv_display.h **** 
  96:Lib/lvgl/src/display/lv_display.h **** /**
  97:Lib/lvgl/src/display/lv_display.h ****  * Remove a display
  98:Lib/lvgl/src/display/lv_display.h ****  * @param disp      pointer to display
  99:Lib/lvgl/src/display/lv_display.h ****  */
 100:Lib/lvgl/src/display/lv_display.h **** void lv_display_delete(lv_display_t * disp);
 101:Lib/lvgl/src/display/lv_display.h **** 
 102:Lib/lvgl/src/display/lv_display.h **** /**
 103:Lib/lvgl/src/display/lv_display.h ****  * Set a default display. The new screens will be created on it by default.
 104:Lib/lvgl/src/display/lv_display.h ****  * @param disp      pointer to a display
 105:Lib/lvgl/src/display/lv_display.h ****  */
 106:Lib/lvgl/src/display/lv_display.h **** void lv_display_set_default(lv_display_t * disp);
 107:Lib/lvgl/src/display/lv_display.h **** 
 108:Lib/lvgl/src/display/lv_display.h **** /**
 109:Lib/lvgl/src/display/lv_display.h ****  * Get the default display
 110:Lib/lvgl/src/display/lv_display.h ****  * @return          pointer to the default display
 111:Lib/lvgl/src/display/lv_display.h ****  */
 112:Lib/lvgl/src/display/lv_display.h **** lv_display_t * lv_display_get_default(void);
 113:Lib/lvgl/src/display/lv_display.h **** 
 114:Lib/lvgl/src/display/lv_display.h **** /**
 115:Lib/lvgl/src/display/lv_display.h ****  * Get the next display.
 116:Lib/lvgl/src/display/lv_display.h ****  * @param disp      pointer to the current display. NULL to initialize.
 117:Lib/lvgl/src/display/lv_display.h ****  * @return          the next display or NULL if no more. Gives the first display when the parameter
 118:Lib/lvgl/src/display/lv_display.h ****  */
 119:Lib/lvgl/src/display/lv_display.h **** lv_display_t * lv_display_get_next(lv_display_t * disp);
 120:Lib/lvgl/src/display/lv_display.h **** 
 121:Lib/lvgl/src/display/lv_display.h **** /*---------------------
 122:Lib/lvgl/src/display/lv_display.h ****  * RESOLUTION
 123:Lib/lvgl/src/display/lv_display.h ****  *--------------------*/
 124:Lib/lvgl/src/display/lv_display.h **** 
 125:Lib/lvgl/src/display/lv_display.h **** /**
 126:Lib/lvgl/src/display/lv_display.h ****  * Sets the resolution of a display. `LV_EVENT_RESOLUTION_CHANGED` event will be sent.
 127:Lib/lvgl/src/display/lv_display.h ****  * Here the native resolution of the device should be set. If the display will be rotated later wit
 128:Lib/lvgl/src/display/lv_display.h ****  * `lv_display_set_rotation` LVGL will swap the hor. and ver. resolution automatically.
 129:Lib/lvgl/src/display/lv_display.h ****  * @param disp      pointer to a display
 130:Lib/lvgl/src/display/lv_display.h ****  * @param hor_res   the new horizontal resolution
 131:Lib/lvgl/src/display/lv_display.h ****  * @param ver_res   the new vertical resolution
ARM GAS  C:\Users\Alex\AppData\Local\Temp\cc0G22cc.s 			page 61


 132:Lib/lvgl/src/display/lv_display.h ****  */
 133:Lib/lvgl/src/display/lv_display.h **** void lv_display_set_resolution(lv_display_t * disp, int32_t hor_res, int32_t ver_res);
 134:Lib/lvgl/src/display/lv_display.h **** 
 135:Lib/lvgl/src/display/lv_display.h **** /**
 136:Lib/lvgl/src/display/lv_display.h ****  * It's not mandatory to use the whole display for LVGL, however in some cases physical resolution 
 137:Lib/lvgl/src/display/lv_display.h ****  * For example the touchpad still sees whole resolution and the values needs to be converted
 138:Lib/lvgl/src/display/lv_display.h ****  * to the active LVGL display area.
 139:Lib/lvgl/src/display/lv_display.h ****  * @param disp      pointer to a display
 140:Lib/lvgl/src/display/lv_display.h ****  * @param hor_res   the new physical horizontal resolution, or -1 to assume it's the same as the no
 141:Lib/lvgl/src/display/lv_display.h ****  * @param ver_res   the new physical vertical resolution, or -1 to assume it's the same as the norm
 142:Lib/lvgl/src/display/lv_display.h ****  */
 143:Lib/lvgl/src/display/lv_display.h **** void lv_display_set_physical_resolution(lv_display_t * disp, int32_t hor_res, int32_t ver_res);
 144:Lib/lvgl/src/display/lv_display.h **** 
 145:Lib/lvgl/src/display/lv_display.h **** /**
 146:Lib/lvgl/src/display/lv_display.h ****  * If physical resolution is not the same as the normal resolution
 147:Lib/lvgl/src/display/lv_display.h ****  * the offset of the active display area can be set here.
 148:Lib/lvgl/src/display/lv_display.h ****  * @param disp      pointer to a display
 149:Lib/lvgl/src/display/lv_display.h ****  * @param x         X offset
 150:Lib/lvgl/src/display/lv_display.h ****  * @param y         Y offset
 151:Lib/lvgl/src/display/lv_display.h ****  */
 152:Lib/lvgl/src/display/lv_display.h **** void lv_display_set_offset(lv_display_t * disp, int32_t x, int32_t y);
 153:Lib/lvgl/src/display/lv_display.h **** 
 154:Lib/lvgl/src/display/lv_display.h **** /**
 155:Lib/lvgl/src/display/lv_display.h ****  * Set the rotation of this display. LVGL will swap the horizontal and vertical resolutions interna
 156:Lib/lvgl/src/display/lv_display.h ****  * @param disp      pointer to a display (NULL to use the default display)
 157:Lib/lvgl/src/display/lv_display.h ****  * @param rotation  `LV_DISPLAY_ROTATION_0/90/180/270`
 158:Lib/lvgl/src/display/lv_display.h ****  */
 159:Lib/lvgl/src/display/lv_display.h **** void lv_display_set_rotation(lv_display_t * disp, lv_display_rotation_t rotation);
 160:Lib/lvgl/src/display/lv_display.h **** 
 161:Lib/lvgl/src/display/lv_display.h **** /**
 162:Lib/lvgl/src/display/lv_display.h ****  * Set the DPI (dot per inch) of the display.
 163:Lib/lvgl/src/display/lv_display.h ****  * dpi = sqrt(hor_res^2 + ver_res^2) / diagonal"
 164:Lib/lvgl/src/display/lv_display.h ****  * @param disp      pointer to a display
 165:Lib/lvgl/src/display/lv_display.h ****  * @param dpi       the new DPI
 166:Lib/lvgl/src/display/lv_display.h ****  */
 167:Lib/lvgl/src/display/lv_display.h **** void lv_display_set_dpi(lv_display_t * disp, int32_t dpi);
 168:Lib/lvgl/src/display/lv_display.h **** 
 169:Lib/lvgl/src/display/lv_display.h **** /**
 170:Lib/lvgl/src/display/lv_display.h ****  * Get the horizontal resolution of a display.
 171:Lib/lvgl/src/display/lv_display.h ****  * @param disp      pointer to a display (NULL to use the default display)
 172:Lib/lvgl/src/display/lv_display.h ****  * @return          the horizontal resolution of the display.
 173:Lib/lvgl/src/display/lv_display.h ****  */
 174:Lib/lvgl/src/display/lv_display.h **** int32_t lv_display_get_horizontal_resolution(const lv_display_t * disp);
 175:Lib/lvgl/src/display/lv_display.h **** 
 176:Lib/lvgl/src/display/lv_display.h **** /**
 177:Lib/lvgl/src/display/lv_display.h ****  * Get the vertical resolution of a display
 178:Lib/lvgl/src/display/lv_display.h ****  * @param disp      pointer to a display (NULL to use the default display)
 179:Lib/lvgl/src/display/lv_display.h ****  * @return          the vertical resolution of the display
 180:Lib/lvgl/src/display/lv_display.h ****  */
 181:Lib/lvgl/src/display/lv_display.h **** int32_t lv_display_get_vertical_resolution(const lv_display_t * disp);
 182:Lib/lvgl/src/display/lv_display.h **** 
 183:Lib/lvgl/src/display/lv_display.h **** /**
 184:Lib/lvgl/src/display/lv_display.h ****  * Get the physical horizontal resolution of a display
 185:Lib/lvgl/src/display/lv_display.h ****  * @param disp      pointer to a display (NULL to use the default display)
 186:Lib/lvgl/src/display/lv_display.h ****  * @return the      physical horizontal resolution of the display
 187:Lib/lvgl/src/display/lv_display.h ****  */
 188:Lib/lvgl/src/display/lv_display.h **** int32_t lv_display_get_physical_horizontal_resolution(const lv_display_t * disp);
ARM GAS  C:\Users\Alex\AppData\Local\Temp\cc0G22cc.s 			page 62


 189:Lib/lvgl/src/display/lv_display.h **** 
 190:Lib/lvgl/src/display/lv_display.h **** /**
 191:Lib/lvgl/src/display/lv_display.h ****  * Get the physical vertical resolution of a display
 192:Lib/lvgl/src/display/lv_display.h ****  * @param disp      pointer to a display (NULL to use the default display)
 193:Lib/lvgl/src/display/lv_display.h ****  * @return          the physical vertical resolution of the display
 194:Lib/lvgl/src/display/lv_display.h ****  */
 195:Lib/lvgl/src/display/lv_display.h **** int32_t lv_display_get_physical_vertical_resolution(const lv_display_t * disp);
 196:Lib/lvgl/src/display/lv_display.h **** 
 197:Lib/lvgl/src/display/lv_display.h **** /**
 198:Lib/lvgl/src/display/lv_display.h ****  * Get the horizontal offset from the full / physical display
 199:Lib/lvgl/src/display/lv_display.h ****  * @param disp      pointer to a display (NULL to use the default display)
 200:Lib/lvgl/src/display/lv_display.h ****  * @return          the horizontal offset from the physical display
 201:Lib/lvgl/src/display/lv_display.h ****  */
 202:Lib/lvgl/src/display/lv_display.h **** int32_t lv_display_get_offset_x(const lv_display_t * disp);
 203:Lib/lvgl/src/display/lv_display.h **** 
 204:Lib/lvgl/src/display/lv_display.h **** /**
 205:Lib/lvgl/src/display/lv_display.h ****  * Get the vertical offset from the full / physical display
 206:Lib/lvgl/src/display/lv_display.h ****  * @param disp      pointer to a display (NULL to use the default display)
 207:Lib/lvgl/src/display/lv_display.h ****  * @return          the horizontal offset from the physical display
 208:Lib/lvgl/src/display/lv_display.h ****  */
 209:Lib/lvgl/src/display/lv_display.h **** int32_t lv_display_get_offset_y(const lv_display_t * disp);
 210:Lib/lvgl/src/display/lv_display.h **** 
 211:Lib/lvgl/src/display/lv_display.h **** /**
 212:Lib/lvgl/src/display/lv_display.h ****  * Get the current rotation of this display.
 213:Lib/lvgl/src/display/lv_display.h ****  * @param disp      pointer to a display (NULL to use the default display)
 214:Lib/lvgl/src/display/lv_display.h ****  * @return          the current rotation
 215:Lib/lvgl/src/display/lv_display.h ****  */
 216:Lib/lvgl/src/display/lv_display.h **** lv_display_rotation_t lv_display_get_rotation(lv_display_t * disp);
 217:Lib/lvgl/src/display/lv_display.h **** 
 218:Lib/lvgl/src/display/lv_display.h **** /**
 219:Lib/lvgl/src/display/lv_display.h ****  * Get the DPI of the display
 220:Lib/lvgl/src/display/lv_display.h ****  * @param disp      pointer to a display (NULL to use the default display)
 221:Lib/lvgl/src/display/lv_display.h ****  * @return          dpi of the display
 222:Lib/lvgl/src/display/lv_display.h ****  */
 223:Lib/lvgl/src/display/lv_display.h **** int32_t lv_display_get_dpi(const lv_display_t * disp);
 224:Lib/lvgl/src/display/lv_display.h **** 
 225:Lib/lvgl/src/display/lv_display.h **** /*---------------------
 226:Lib/lvgl/src/display/lv_display.h ****  * BUFFERING
 227:Lib/lvgl/src/display/lv_display.h ****  *--------------------*/
 228:Lib/lvgl/src/display/lv_display.h **** 
 229:Lib/lvgl/src/display/lv_display.h **** /**
 230:Lib/lvgl/src/display/lv_display.h ****  * Set the buffers for a display, similarly to `lv_display_set_draw_buffers`, but accept the raw bu
 231:Lib/lvgl/src/display/lv_display.h ****  * @param disp              pointer to a display
 232:Lib/lvgl/src/display/lv_display.h ****  * @param buf1              first buffer
 233:Lib/lvgl/src/display/lv_display.h ****  * @param buf2              second buffer (can be `NULL`)
 234:Lib/lvgl/src/display/lv_display.h ****  * @param buf_size          buffer size in byte
 235:Lib/lvgl/src/display/lv_display.h ****  * @param render_mode       LV_DISPLAY_RENDER_MODE_PARTIAL/DIRECT/FULL
 236:Lib/lvgl/src/display/lv_display.h ****  */
 237:Lib/lvgl/src/display/lv_display.h **** void lv_display_set_buffers(lv_display_t * disp, void * buf1, void * buf2, uint32_t buf_size,
 238:Lib/lvgl/src/display/lv_display.h ****                             lv_display_render_mode_t render_mode);
 239:Lib/lvgl/src/display/lv_display.h **** 
 240:Lib/lvgl/src/display/lv_display.h **** /**
 241:Lib/lvgl/src/display/lv_display.h ****  * Set the buffers for a display, accept a draw buffer pointer.
 242:Lib/lvgl/src/display/lv_display.h ****  * Normally use `lv_display_set_buffers` is enough for most cases.
 243:Lib/lvgl/src/display/lv_display.h ****  * Use this function when an existing lv_draw_buf_t is available.
 244:Lib/lvgl/src/display/lv_display.h ****  * @param disp              pointer to a display
 245:Lib/lvgl/src/display/lv_display.h ****  * @param buf1              first buffer
ARM GAS  C:\Users\Alex\AppData\Local\Temp\cc0G22cc.s 			page 63


 246:Lib/lvgl/src/display/lv_display.h ****  * @param buf2              second buffer (can be `NULL`)
 247:Lib/lvgl/src/display/lv_display.h ****  */
 248:Lib/lvgl/src/display/lv_display.h **** void lv_display_set_draw_buffers(lv_display_t * disp, lv_draw_buf_t * buf1, lv_draw_buf_t * buf2);
 249:Lib/lvgl/src/display/lv_display.h **** 
 250:Lib/lvgl/src/display/lv_display.h **** /**
 251:Lib/lvgl/src/display/lv_display.h ****  * Set display render mode
 252:Lib/lvgl/src/display/lv_display.h ****  * @param disp              pointer to a display
 253:Lib/lvgl/src/display/lv_display.h ****  * @param render_mode       LV_DISPLAY_RENDER_MODE_PARTIAL/DIRECT/FULL
 254:Lib/lvgl/src/display/lv_display.h ****  */
 255:Lib/lvgl/src/display/lv_display.h **** void lv_display_set_render_mode(lv_display_t * disp, lv_display_render_mode_t render_mode);
 256:Lib/lvgl/src/display/lv_display.h **** 
 257:Lib/lvgl/src/display/lv_display.h **** /**
 258:Lib/lvgl/src/display/lv_display.h ****  * Set the flush callback which will be called to copy the rendered image to the display.
 259:Lib/lvgl/src/display/lv_display.h ****  * @param disp      pointer to a display
 260:Lib/lvgl/src/display/lv_display.h ****  * @param flush_cb  the flush callback (`px_map` contains the rendered image as raw pixel map and i
 261:Lib/lvgl/src/display/lv_display.h ****  */
 262:Lib/lvgl/src/display/lv_display.h **** void lv_display_set_flush_cb(lv_display_t * disp, lv_display_flush_cb_t flush_cb);
 263:Lib/lvgl/src/display/lv_display.h **** 
 264:Lib/lvgl/src/display/lv_display.h **** /**
 265:Lib/lvgl/src/display/lv_display.h ****  * Set a callback to be used while LVGL is waiting flushing to be finished.
 266:Lib/lvgl/src/display/lv_display.h ****  * It can do any complex logic to wait, including semaphores, mutexes, polling flags, etc.
 267:Lib/lvgl/src/display/lv_display.h ****  * If not set the `disp->flushing` flag is used which can be cleared with `lv_display_flush_ready()
 268:Lib/lvgl/src/display/lv_display.h ****  * @param disp      pointer to a display
 269:Lib/lvgl/src/display/lv_display.h ****  * @param wait_cb   a callback to call while LVGL is waiting for flush ready.
 270:Lib/lvgl/src/display/lv_display.h ****  *                  If NULL `lv_display_flush_ready()` can be used to signal that flushing is ready
 271:Lib/lvgl/src/display/lv_display.h ****  */
 272:Lib/lvgl/src/display/lv_display.h **** void lv_display_set_flush_wait_cb(lv_display_t * disp, lv_display_flush_wait_cb_t wait_cb);
 273:Lib/lvgl/src/display/lv_display.h **** 
 274:Lib/lvgl/src/display/lv_display.h **** /**
 275:Lib/lvgl/src/display/lv_display.h ****  * Set the color format of the display.
 276:Lib/lvgl/src/display/lv_display.h ****  * @param disp              pointer to a display
 277:Lib/lvgl/src/display/lv_display.h ****  * @param color_format      Possible values are
 278:Lib/lvgl/src/display/lv_display.h ****  *                          - LV_COLOR_FORMAT_RGB565
 279:Lib/lvgl/src/display/lv_display.h ****  *                          - LV_COLOR_FORMAT_RGB888
 280:Lib/lvgl/src/display/lv_display.h ****  *                          - LV_COLOR_FORMAT_XRGB888
 281:Lib/lvgl/src/display/lv_display.h ****  *                          - LV_COLOR_FORMAT_ARGB888
 282:Lib/lvgl/src/display/lv_display.h ****  *@note To change the endianness of the rendered image in case of RGB565 format
 283:Lib/lvgl/src/display/lv_display.h ****  *      (i.e. swap the 2 bytes) call `lv_draw_sw_rgb565_swap` in the flush_cb
 284:Lib/lvgl/src/display/lv_display.h ****  */
 285:Lib/lvgl/src/display/lv_display.h **** void lv_display_set_color_format(lv_display_t * disp, lv_color_format_t color_format);
 286:Lib/lvgl/src/display/lv_display.h **** 
 287:Lib/lvgl/src/display/lv_display.h **** /**
 288:Lib/lvgl/src/display/lv_display.h ****  * Get the color format of the display
 289:Lib/lvgl/src/display/lv_display.h ****  * @param disp              pointer to a display
 290:Lib/lvgl/src/display/lv_display.h ****  * @return                  the color format
 291:Lib/lvgl/src/display/lv_display.h ****  */
 292:Lib/lvgl/src/display/lv_display.h **** lv_color_format_t lv_display_get_color_format(lv_display_t * disp);
 293:Lib/lvgl/src/display/lv_display.h **** 
 294:Lib/lvgl/src/display/lv_display.h **** /**
 295:Lib/lvgl/src/display/lv_display.h ****  * Enable anti-aliasing for the render engine
 296:Lib/lvgl/src/display/lv_display.h ****  * @param disp      pointer to a display
 297:Lib/lvgl/src/display/lv_display.h ****  * @param en        true/false
 298:Lib/lvgl/src/display/lv_display.h ****  */
 299:Lib/lvgl/src/display/lv_display.h **** void lv_display_set_antialiasing(lv_display_t * disp, bool en);
 300:Lib/lvgl/src/display/lv_display.h **** 
 301:Lib/lvgl/src/display/lv_display.h **** /**
 302:Lib/lvgl/src/display/lv_display.h ****  * Get if anti-aliasing is enabled for a display or not
ARM GAS  C:\Users\Alex\AppData\Local\Temp\cc0G22cc.s 			page 64


 303:Lib/lvgl/src/display/lv_display.h ****  * @param disp      pointer to a display (NULL to use the default display)
 304:Lib/lvgl/src/display/lv_display.h ****  * @return          true/false
 305:Lib/lvgl/src/display/lv_display.h ****  */
 306:Lib/lvgl/src/display/lv_display.h **** bool lv_display_get_antialiasing(lv_display_t * disp);
 307:Lib/lvgl/src/display/lv_display.h **** 
 308:Lib/lvgl/src/display/lv_display.h **** //! @cond Doxygen_Suppress
 309:Lib/lvgl/src/display/lv_display.h **** 
 310:Lib/lvgl/src/display/lv_display.h **** /**
 311:Lib/lvgl/src/display/lv_display.h ****  * Call from the display driver when the flushing is finished
 312:Lib/lvgl/src/display/lv_display.h ****  * @param disp      pointer to display whose `flush_cb` was called
 313:Lib/lvgl/src/display/lv_display.h ****  */
 314:Lib/lvgl/src/display/lv_display.h **** LV_ATTRIBUTE_FLUSH_READY void lv_display_flush_ready(lv_display_t * disp);
 315:Lib/lvgl/src/display/lv_display.h **** 
 316:Lib/lvgl/src/display/lv_display.h **** /**
 317:Lib/lvgl/src/display/lv_display.h ****  * Tell if it's the last area of the refreshing process.
 318:Lib/lvgl/src/display/lv_display.h ****  * Can be called from `flush_cb` to execute some special display refreshing if needed when all area
 319:Lib/lvgl/src/display/lv_display.h ****  * @param disp      pointer to display
 320:Lib/lvgl/src/display/lv_display.h ****  * @return          true: it's the last area to flush;
 321:Lib/lvgl/src/display/lv_display.h ****  *                  false: there are other areas too which will be refreshed soon
 322:Lib/lvgl/src/display/lv_display.h ****  */
 323:Lib/lvgl/src/display/lv_display.h **** LV_ATTRIBUTE_FLUSH_READY bool lv_display_flush_is_last(lv_display_t * disp);
 324:Lib/lvgl/src/display/lv_display.h **** 
 325:Lib/lvgl/src/display/lv_display.h **** //! @endcond
 326:Lib/lvgl/src/display/lv_display.h **** 
 327:Lib/lvgl/src/display/lv_display.h **** bool lv_display_is_double_buffered(lv_display_t * disp);
 328:Lib/lvgl/src/display/lv_display.h **** 
 329:Lib/lvgl/src/display/lv_display.h **** /*---------------------
 330:Lib/lvgl/src/display/lv_display.h ****  * SCREENS
 331:Lib/lvgl/src/display/lv_display.h ****  *--------------------*/
 332:Lib/lvgl/src/display/lv_display.h **** 
 333:Lib/lvgl/src/display/lv_display.h **** /**
 334:Lib/lvgl/src/display/lv_display.h ****  * Return a pointer to the active screen on a display
 335:Lib/lvgl/src/display/lv_display.h ****  * @param disp      pointer to display which active screen should be get.
 336:Lib/lvgl/src/display/lv_display.h ****  *                  (NULL to use the default screen)
 337:Lib/lvgl/src/display/lv_display.h ****  * @return          pointer to the active screen object (loaded by 'lv_screen_load()')
 338:Lib/lvgl/src/display/lv_display.h ****  */
 339:Lib/lvgl/src/display/lv_display.h **** lv_obj_t * lv_display_get_screen_active(lv_display_t * disp);
 340:Lib/lvgl/src/display/lv_display.h **** 
 341:Lib/lvgl/src/display/lv_display.h **** /**
 342:Lib/lvgl/src/display/lv_display.h ****  * Return with a pointer to the previous screen. Only used during screen transitions.
 343:Lib/lvgl/src/display/lv_display.h ****  * @param disp      pointer to display which previous screen should be get.
 344:Lib/lvgl/src/display/lv_display.h ****  *                  (NULL to use the default screen)
 345:Lib/lvgl/src/display/lv_display.h ****  * @return          pointer to the previous screen object or NULL if not used now
 346:Lib/lvgl/src/display/lv_display.h ****  */
 347:Lib/lvgl/src/display/lv_display.h **** lv_obj_t * lv_display_get_screen_prev(lv_display_t * disp);
 348:Lib/lvgl/src/display/lv_display.h **** 
 349:Lib/lvgl/src/display/lv_display.h **** /**
 350:Lib/lvgl/src/display/lv_display.h ****  * Return the top layer. The top layer is the same on all screens and it is above the normal screen
 351:Lib/lvgl/src/display/lv_display.h ****  * @param disp      pointer to display which top layer should be get. (NULL to use the default scre
 352:Lib/lvgl/src/display/lv_display.h ****  * @return          pointer to the top layer object
 353:Lib/lvgl/src/display/lv_display.h ****  */
 354:Lib/lvgl/src/display/lv_display.h **** lv_obj_t * lv_display_get_layer_top(lv_display_t * disp);
 355:Lib/lvgl/src/display/lv_display.h **** 
 356:Lib/lvgl/src/display/lv_display.h **** /**
 357:Lib/lvgl/src/display/lv_display.h ****  * Return the sys. layer. The system layer is the same on all screen and it is above the normal scr
 358:Lib/lvgl/src/display/lv_display.h ****  * @param disp      pointer to display which sys. layer should be retrieved. (NULL to use the defau
 359:Lib/lvgl/src/display/lv_display.h ****  * @return          pointer to the sys layer object
ARM GAS  C:\Users\Alex\AppData\Local\Temp\cc0G22cc.s 			page 65


 360:Lib/lvgl/src/display/lv_display.h ****  */
 361:Lib/lvgl/src/display/lv_display.h **** lv_obj_t * lv_display_get_layer_sys(lv_display_t * disp);
 362:Lib/lvgl/src/display/lv_display.h **** 
 363:Lib/lvgl/src/display/lv_display.h **** /**
 364:Lib/lvgl/src/display/lv_display.h ****  * Return the bottom layer. The bottom layer is the same on all screen and it is under the normal s
 365:Lib/lvgl/src/display/lv_display.h ****  * It's visible only if the the screen is transparent.
 366:Lib/lvgl/src/display/lv_display.h ****  * @param disp      pointer to display (NULL to use the default screen)
 367:Lib/lvgl/src/display/lv_display.h ****  * @return          pointer to the bottom layer object
 368:Lib/lvgl/src/display/lv_display.h ****  */
 369:Lib/lvgl/src/display/lv_display.h **** lv_obj_t * lv_display_get_layer_bottom(lv_display_t * disp);
 370:Lib/lvgl/src/display/lv_display.h **** 
 371:Lib/lvgl/src/display/lv_display.h **** /**
 372:Lib/lvgl/src/display/lv_display.h ****  * Load a screen on the default display
 373:Lib/lvgl/src/display/lv_display.h ****  * @param scr       pointer to a screen
 374:Lib/lvgl/src/display/lv_display.h ****  */
 375:Lib/lvgl/src/display/lv_display.h **** void lv_screen_load(struct _lv_obj_t * scr);
 376:Lib/lvgl/src/display/lv_display.h **** 
 377:Lib/lvgl/src/display/lv_display.h **** /**
 378:Lib/lvgl/src/display/lv_display.h ****  * Switch screen with animation
 379:Lib/lvgl/src/display/lv_display.h ****  * @param scr       pointer to the new screen to load
 380:Lib/lvgl/src/display/lv_display.h ****  * @param anim_type type of the animation from `lv_screen_load_anim_t`, e.g. `LV_SCR_LOAD_ANIM_MOVE
 381:Lib/lvgl/src/display/lv_display.h ****  * @param time      time of the animation
 382:Lib/lvgl/src/display/lv_display.h ****  * @param delay     delay before the transition
 383:Lib/lvgl/src/display/lv_display.h ****  * @param auto_del  true: automatically delete the old screen
 384:Lib/lvgl/src/display/lv_display.h ****  */
 385:Lib/lvgl/src/display/lv_display.h **** void lv_screen_load_anim(lv_obj_t * scr, lv_screen_load_anim_t anim_type, uint32_t time, uint32_t d
 386:Lib/lvgl/src/display/lv_display.h ****                          bool auto_del);
 387:Lib/lvgl/src/display/lv_display.h **** 
 388:Lib/lvgl/src/display/lv_display.h **** /**
 389:Lib/lvgl/src/display/lv_display.h ****  * Get the active screen of the default display
 390:Lib/lvgl/src/display/lv_display.h ****  * @return          pointer to the active screen
 391:Lib/lvgl/src/display/lv_display.h ****  */
 392:Lib/lvgl/src/display/lv_display.h **** static inline lv_obj_t * lv_screen_active(void)
 393:Lib/lvgl/src/display/lv_display.h **** {
 1867              		.loc 2 393 1 is_stmt 1 view -0
 1868              		.cfi_startproc
 1869              		@ args = 0, pretend = 0, frame = 0
 1870              		@ frame_needed = 0, uses_anonymous_args = 0
 1871 0000 08B5     		push	{r3, lr}
 1872              	.LCFI31:
 1873              		.cfi_def_cfa_offset 8
 1874              		.cfi_offset 3, -8
 1875              		.cfi_offset 14, -4
 394:Lib/lvgl/src/display/lv_display.h ****     return lv_display_get_screen_active(lv_display_get_default());
 1876              		.loc 2 394 5 view .LVU456
 1877              		.loc 2 394 12 is_stmt 0 view .LVU457
 1878 0002 FFF7FEFF 		bl	lv_display_get_default
 1879              	.LVL165:
 1880 0006 FFF7FEFF 		bl	lv_display_get_screen_active
 1881              	.LVL166:
 395:Lib/lvgl/src/display/lv_display.h **** }
 1882              		.loc 2 395 1 view .LVU458
 1883 000a 08BD     		pop	{r3, pc}
 1884              		.cfi_endproc
 1885              	.LFE89:
 1887              		.section	.text.scr_load_anim_start,"ax",%progbits
 1888              		.align	1
ARM GAS  C:\Users\Alex\AppData\Local\Temp\cc0G22cc.s 			page 66


 1889              		.syntax unified
 1890              		.thumb
 1891              		.thumb_func
 1893              	scr_load_anim_start:
 1894              	.LVL167:
 1895              	.LFB292:
 990:Lib/lvgl/src/display/lv_display.c ****     lv_display_t * d = lv_obj_get_display(a->var);
 1896              		.loc 1 990 1 is_stmt 1 view -0
 1897              		.cfi_startproc
 1898              		@ args = 0, pretend = 0, frame = 0
 1899              		@ frame_needed = 0, uses_anonymous_args = 0
 990:Lib/lvgl/src/display/lv_display.c ****     lv_display_t * d = lv_obj_get_display(a->var);
 1900              		.loc 1 990 1 is_stmt 0 view .LVU460
 1901 0000 38B5     		push	{r3, r4, r5, lr}
 1902              	.LCFI32:
 1903              		.cfi_def_cfa_offset 16
 1904              		.cfi_offset 3, -16
 1905              		.cfi_offset 4, -12
 1906              		.cfi_offset 5, -8
 1907              		.cfi_offset 14, -4
 1908 0002 0546     		mov	r5, r0
 991:Lib/lvgl/src/display/lv_display.c **** 
 1909              		.loc 1 991 5 is_stmt 1 view .LVU461
 991:Lib/lvgl/src/display/lv_display.c **** 
 1910              		.loc 1 991 24 is_stmt 0 view .LVU462
 1911 0004 0068     		ldr	r0, [r0]
 1912              	.LVL168:
 991:Lib/lvgl/src/display/lv_display.c **** 
 1913              		.loc 1 991 24 view .LVU463
 1914 0006 FFF7FEFF 		bl	lv_obj_get_display
 1915              	.LVL169:
 1916 000a 0446     		mov	r4, r0
 1917              	.LVL170:
 993:Lib/lvgl/src/display/lv_display.c ****     d->act_scr = a->var;
 1918              		.loc 1 993 5 is_stmt 1 view .LVU464
 993:Lib/lvgl/src/display/lv_display.c ****     d->act_scr = a->var;
 1919              		.loc 1 993 19 is_stmt 0 view .LVU465
 1920 000c FFF7FEFF 		bl	lv_screen_active
 1921              	.LVL171:
 993:Lib/lvgl/src/display/lv_display.c ****     d->act_scr = a->var;
 1922              		.loc 1 993 17 view .LVU466
 1923 0010 C4F8B402 		str	r0, [r4, #692]
 994:Lib/lvgl/src/display/lv_display.c **** 
 1924              		.loc 1 994 5 is_stmt 1 view .LVU467
 994:Lib/lvgl/src/display/lv_display.c **** 
 1925              		.loc 1 994 19 is_stmt 0 view .LVU468
 1926 0014 2868     		ldr	r0, [r5]
 994:Lib/lvgl/src/display/lv_display.c **** 
 1927              		.loc 1 994 16 view .LVU469
 1928 0016 C4F8B002 		str	r0, [r4, #688]
 996:Lib/lvgl/src/display/lv_display.c **** }
 1929              		.loc 1 996 5 is_stmt 1 view .LVU470
 1930 001a 0022     		movs	r2, #0
 1931 001c 2821     		movs	r1, #40
 1932 001e FFF7FEFF 		bl	lv_obj_send_event
 1933              	.LVL172:
 997:Lib/lvgl/src/display/lv_display.c **** 
ARM GAS  C:\Users\Alex\AppData\Local\Temp\cc0G22cc.s 			page 67


 1934              		.loc 1 997 1 is_stmt 0 view .LVU471
 1935 0022 38BD     		pop	{r3, r4, r5, pc}
 997:Lib/lvgl/src/display/lv_display.c **** 
 1936              		.loc 1 997 1 view .LVU472
 1937              		.cfi_endproc
 1938              	.LFE292:
 1940              		.section	.text.lv_display_get_screen_prev,"ax",%progbits
 1941              		.align	1
 1942              		.global	lv_display_get_screen_prev
 1943              		.syntax unified
 1944              		.thumb
 1945              		.thumb_func
 1947              	lv_display_get_screen_prev:
 1948              	.LVL173:
 1949              	.LFB263:
 518:Lib/lvgl/src/display/lv_display.c ****     if(!disp) disp = lv_display_get_default();
 1950              		.loc 1 518 1 is_stmt 1 view -0
 1951              		.cfi_startproc
 1952              		@ args = 0, pretend = 0, frame = 0
 1953              		@ frame_needed = 0, uses_anonymous_args = 0
 518:Lib/lvgl/src/display/lv_display.c ****     if(!disp) disp = lv_display_get_default();
 1954              		.loc 1 518 1 is_stmt 0 view .LVU474
 1955 0000 08B5     		push	{r3, lr}
 1956              	.LCFI33:
 1957              		.cfi_def_cfa_offset 8
 1958              		.cfi_offset 3, -8
 1959              		.cfi_offset 14, -4
 519:Lib/lvgl/src/display/lv_display.c ****     if(!disp) {
 1960              		.loc 1 519 5 is_stmt 1 view .LVU475
 519:Lib/lvgl/src/display/lv_display.c ****     if(!disp) {
 1961              		.loc 1 519 7 is_stmt 0 view .LVU476
 1962 0002 0346     		mov	r3, r0
 1963 0004 10B1     		cbz	r0, .L184
 1964              	.L180:
 1965              	.LVL174:
 525:Lib/lvgl/src/display/lv_display.c **** }
 1966              		.loc 1 525 5 is_stmt 1 view .LVU477
 525:Lib/lvgl/src/display/lv_display.c **** }
 1967              		.loc 1 525 16 is_stmt 0 view .LVU478
 1968 0006 D3F8B402 		ldr	r0, [r3, #692]
 1969              	.L179:
 526:Lib/lvgl/src/display/lv_display.c **** 
 1970              		.loc 1 526 1 view .LVU479
 1971 000a 08BD     		pop	{r3, pc}
 1972              	.LVL175:
 1973              	.L184:
 519:Lib/lvgl/src/display/lv_display.c ****     if(!disp) {
 1974              		.loc 1 519 15 is_stmt 1 discriminator 1 view .LVU480
 519:Lib/lvgl/src/display/lv_display.c ****     if(!disp) {
 1975              		.loc 1 519 22 is_stmt 0 discriminator 1 view .LVU481
 1976 000c FFF7FEFF 		bl	lv_display_get_default
 1977              	.LVL176:
 520:Lib/lvgl/src/display/lv_display.c ****         LV_LOG_WARN("no display registered to get its previous screen");
 1978              		.loc 1 520 5 is_stmt 1 discriminator 1 view .LVU482
 520:Lib/lvgl/src/display/lv_display.c ****         LV_LOG_WARN("no display registered to get its previous screen");
 1979              		.loc 1 520 7 is_stmt 0 discriminator 1 view .LVU483
 1980 0010 0346     		mov	r3, r0
ARM GAS  C:\Users\Alex\AppData\Local\Temp\cc0G22cc.s 			page 68


 1981 0012 0028     		cmp	r0, #0
 1982 0014 F7D1     		bne	.L180
 1983 0016 F8E7     		b	.L179
 1984              		.cfi_endproc
 1985              	.LFE263:
 1987              		.section	.text.lv_display_get_layer_top,"ax",%progbits
 1988              		.align	1
 1989              		.global	lv_display_get_layer_top
 1990              		.syntax unified
 1991              		.thumb
 1992              		.thumb_func
 1994              	lv_display_get_layer_top:
 1995              	.LVL177:
 1996              	.LFB264:
 529:Lib/lvgl/src/display/lv_display.c ****     if(!disp) disp = lv_display_get_default();
 1997              		.loc 1 529 1 is_stmt 1 view -0
 1998              		.cfi_startproc
 1999              		@ args = 0, pretend = 0, frame = 0
 2000              		@ frame_needed = 0, uses_anonymous_args = 0
 529:Lib/lvgl/src/display/lv_display.c ****     if(!disp) disp = lv_display_get_default();
 2001              		.loc 1 529 1 is_stmt 0 view .LVU485
 2002 0000 08B5     		push	{r3, lr}
 2003              	.LCFI34:
 2004              		.cfi_def_cfa_offset 8
 2005              		.cfi_offset 3, -8
 2006              		.cfi_offset 14, -4
 530:Lib/lvgl/src/display/lv_display.c ****     if(!disp) {
 2007              		.loc 1 530 5 is_stmt 1 view .LVU486
 530:Lib/lvgl/src/display/lv_display.c ****     if(!disp) {
 2008              		.loc 1 530 7 is_stmt 0 view .LVU487
 2009 0002 0346     		mov	r3, r0
 2010 0004 10B1     		cbz	r0, .L190
 2011              	.L186:
 2012              	.LVL178:
 536:Lib/lvgl/src/display/lv_display.c **** }
 2013              		.loc 1 536 5 is_stmt 1 view .LVU488
 536:Lib/lvgl/src/display/lv_display.c **** }
 2014              		.loc 1 536 16 is_stmt 0 view .LVU489
 2015 0006 D3F8C002 		ldr	r0, [r3, #704]
 2016              	.L185:
 537:Lib/lvgl/src/display/lv_display.c **** 
 2017              		.loc 1 537 1 view .LVU490
 2018 000a 08BD     		pop	{r3, pc}
 2019              	.LVL179:
 2020              	.L190:
 530:Lib/lvgl/src/display/lv_display.c ****     if(!disp) {
 2021              		.loc 1 530 15 is_stmt 1 discriminator 1 view .LVU491
 530:Lib/lvgl/src/display/lv_display.c ****     if(!disp) {
 2022              		.loc 1 530 22 is_stmt 0 discriminator 1 view .LVU492
 2023 000c FFF7FEFF 		bl	lv_display_get_default
 2024              	.LVL180:
 531:Lib/lvgl/src/display/lv_display.c ****         LV_LOG_WARN("lv_layer_top: no display registered to get its top layer");
 2025              		.loc 1 531 5 is_stmt 1 discriminator 1 view .LVU493
 531:Lib/lvgl/src/display/lv_display.c ****         LV_LOG_WARN("lv_layer_top: no display registered to get its top layer");
 2026              		.loc 1 531 7 is_stmt 0 discriminator 1 view .LVU494
 2027 0010 0346     		mov	r3, r0
 2028 0012 0028     		cmp	r0, #0
ARM GAS  C:\Users\Alex\AppData\Local\Temp\cc0G22cc.s 			page 69


 2029 0014 F7D1     		bne	.L186
 2030 0016 F8E7     		b	.L185
 2031              		.cfi_endproc
 2032              	.LFE264:
 2034              		.section	.text.lv_display_get_layer_sys,"ax",%progbits
 2035              		.align	1
 2036              		.global	lv_display_get_layer_sys
 2037              		.syntax unified
 2038              		.thumb
 2039              		.thumb_func
 2041              	lv_display_get_layer_sys:
 2042              	.LVL181:
 2043              	.LFB265:
 540:Lib/lvgl/src/display/lv_display.c ****     if(!disp) disp = lv_display_get_default();
 2044              		.loc 1 540 1 is_stmt 1 view -0
 2045              		.cfi_startproc
 2046              		@ args = 0, pretend = 0, frame = 0
 2047              		@ frame_needed = 0, uses_anonymous_args = 0
 540:Lib/lvgl/src/display/lv_display.c ****     if(!disp) disp = lv_display_get_default();
 2048              		.loc 1 540 1 is_stmt 0 view .LVU496
 2049 0000 08B5     		push	{r3, lr}
 2050              	.LCFI35:
 2051              		.cfi_def_cfa_offset 8
 2052              		.cfi_offset 3, -8
 2053              		.cfi_offset 14, -4
 541:Lib/lvgl/src/display/lv_display.c ****     if(!disp) {
 2054              		.loc 1 541 5 is_stmt 1 view .LVU497
 541:Lib/lvgl/src/display/lv_display.c ****     if(!disp) {
 2055              		.loc 1 541 7 is_stmt 0 view .LVU498
 2056 0002 0346     		mov	r3, r0
 2057 0004 10B1     		cbz	r0, .L196
 2058              	.L192:
 2059              	.LVL182:
 547:Lib/lvgl/src/display/lv_display.c **** }
 2060              		.loc 1 547 5 is_stmt 1 view .LVU499
 547:Lib/lvgl/src/display/lv_display.c **** }
 2061              		.loc 1 547 16 is_stmt 0 view .LVU500
 2062 0006 D3F8C402 		ldr	r0, [r3, #708]
 2063              	.L191:
 548:Lib/lvgl/src/display/lv_display.c **** 
 2064              		.loc 1 548 1 view .LVU501
 2065 000a 08BD     		pop	{r3, pc}
 2066              	.LVL183:
 2067              	.L196:
 541:Lib/lvgl/src/display/lv_display.c ****     if(!disp) {
 2068              		.loc 1 541 15 is_stmt 1 discriminator 1 view .LVU502
 541:Lib/lvgl/src/display/lv_display.c ****     if(!disp) {
 2069              		.loc 1 541 22 is_stmt 0 discriminator 1 view .LVU503
 2070 000c FFF7FEFF 		bl	lv_display_get_default
 2071              	.LVL184:
 542:Lib/lvgl/src/display/lv_display.c ****         LV_LOG_WARN("lv_layer_sys: no display registered to get its sys. layer");
 2072              		.loc 1 542 5 is_stmt 1 discriminator 1 view .LVU504
 542:Lib/lvgl/src/display/lv_display.c ****         LV_LOG_WARN("lv_layer_sys: no display registered to get its sys. layer");
 2073              		.loc 1 542 7 is_stmt 0 discriminator 1 view .LVU505
 2074 0010 0346     		mov	r3, r0
 2075 0012 0028     		cmp	r0, #0
 2076 0014 F7D1     		bne	.L192
ARM GAS  C:\Users\Alex\AppData\Local\Temp\cc0G22cc.s 			page 70


 2077 0016 F8E7     		b	.L191
 2078              		.cfi_endproc
 2079              	.LFE265:
 2081              		.section	.text.lv_display_get_layer_bottom,"ax",%progbits
 2082              		.align	1
 2083              		.global	lv_display_get_layer_bottom
 2084              		.syntax unified
 2085              		.thumb
 2086              		.thumb_func
 2088              	lv_display_get_layer_bottom:
 2089              	.LVL185:
 2090              	.LFB266:
 551:Lib/lvgl/src/display/lv_display.c ****     if(!disp) disp = lv_display_get_default();
 2091              		.loc 1 551 1 is_stmt 1 view -0
 2092              		.cfi_startproc
 2093              		@ args = 0, pretend = 0, frame = 0
 2094              		@ frame_needed = 0, uses_anonymous_args = 0
 551:Lib/lvgl/src/display/lv_display.c ****     if(!disp) disp = lv_display_get_default();
 2095              		.loc 1 551 1 is_stmt 0 view .LVU507
 2096 0000 08B5     		push	{r3, lr}
 2097              	.LCFI36:
 2098              		.cfi_def_cfa_offset 8
 2099              		.cfi_offset 3, -8
 2100              		.cfi_offset 14, -4
 552:Lib/lvgl/src/display/lv_display.c ****     if(!disp) {
 2101              		.loc 1 552 5 is_stmt 1 view .LVU508
 552:Lib/lvgl/src/display/lv_display.c ****     if(!disp) {
 2102              		.loc 1 552 7 is_stmt 0 view .LVU509
 2103 0002 0346     		mov	r3, r0
 2104 0004 10B1     		cbz	r0, .L202
 2105              	.L198:
 2106              	.LVL186:
 558:Lib/lvgl/src/display/lv_display.c **** }
 2107              		.loc 1 558 5 is_stmt 1 view .LVU510
 558:Lib/lvgl/src/display/lv_display.c **** }
 2108              		.loc 1 558 16 is_stmt 0 view .LVU511
 2109 0006 D3F8BC02 		ldr	r0, [r3, #700]
 2110              	.L197:
 559:Lib/lvgl/src/display/lv_display.c **** 
 2111              		.loc 1 559 1 view .LVU512
 2112 000a 08BD     		pop	{r3, pc}
 2113              	.LVL187:
 2114              	.L202:
 552:Lib/lvgl/src/display/lv_display.c ****     if(!disp) {
 2115              		.loc 1 552 15 is_stmt 1 discriminator 1 view .LVU513
 552:Lib/lvgl/src/display/lv_display.c ****     if(!disp) {
 2116              		.loc 1 552 22 is_stmt 0 discriminator 1 view .LVU514
 2117 000c FFF7FEFF 		bl	lv_display_get_default
 2118              	.LVL188:
 553:Lib/lvgl/src/display/lv_display.c ****         LV_LOG_WARN("lv_layer_bottom: no display registered to get its bottom layer");
 2119              		.loc 1 553 5 is_stmt 1 discriminator 1 view .LVU515
 553:Lib/lvgl/src/display/lv_display.c ****         LV_LOG_WARN("lv_layer_bottom: no display registered to get its bottom layer");
 2120              		.loc 1 553 7 is_stmt 0 discriminator 1 view .LVU516
 2121 0010 0346     		mov	r3, r0
 2122 0012 0028     		cmp	r0, #0
 2123 0014 F7D1     		bne	.L198
 2124 0016 F8E7     		b	.L197
ARM GAS  C:\Users\Alex\AppData\Local\Temp\cc0G22cc.s 			page 71


 2125              		.cfi_endproc
 2126              	.LFE266:
 2128              		.section	.text.lv_screen_load_anim,"ax",%progbits
 2129              		.align	1
 2130              		.global	lv_screen_load_anim
 2131              		.syntax unified
 2132              		.thumb
 2133              		.thumb_func
 2135              	lv_screen_load_anim:
 2136              	.LVL189:
 2137              	.LFB268:
 568:Lib/lvgl/src/display/lv_display.c ****     lv_display_t * d = lv_obj_get_display(new_scr);
 2138              		.loc 1 568 1 is_stmt 1 view -0
 2139              		.cfi_startproc
 2140              		@ args = 4, pretend = 0, frame = 176
 2141              		@ frame_needed = 0, uses_anonymous_args = 0
 568:Lib/lvgl/src/display/lv_display.c ****     lv_display_t * d = lv_obj_get_display(new_scr);
 2142              		.loc 1 568 1 is_stmt 0 view .LVU518
 2143 0000 2DE9F047 		push	{r4, r5, r6, r7, r8, r9, r10, lr}
 2144              	.LCFI37:
 2145              		.cfi_def_cfa_offset 32
 2146              		.cfi_offset 4, -32
 2147              		.cfi_offset 5, -28
 2148              		.cfi_offset 6, -24
 2149              		.cfi_offset 7, -20
 2150              		.cfi_offset 8, -16
 2151              		.cfi_offset 9, -12
 2152              		.cfi_offset 10, -8
 2153              		.cfi_offset 14, -4
 2154 0004 ACB0     		sub	sp, sp, #176
 2155              	.LCFI38:
 2156              		.cfi_def_cfa_offset 208
 2157 0006 0646     		mov	r6, r0
 2158 0008 8846     		mov	r8, r1
 2159 000a 9146     		mov	r9, r2
 2160 000c 1F46     		mov	r7, r3
 2161 000e 9DF8D0A0 		ldrb	r10, [sp, #208]	@ zero_extendqisi2
 569:Lib/lvgl/src/display/lv_display.c ****     lv_obj_t * act_scr = lv_screen_active();
 2162              		.loc 1 569 5 is_stmt 1 view .LVU519
 569:Lib/lvgl/src/display/lv_display.c ****     lv_obj_t * act_scr = lv_screen_active();
 2163              		.loc 1 569 24 is_stmt 0 view .LVU520
 2164 0012 FFF7FEFF 		bl	lv_obj_get_display
 2165              	.LVL190:
 569:Lib/lvgl/src/display/lv_display.c ****     lv_obj_t * act_scr = lv_screen_active();
 2166              		.loc 1 569 24 view .LVU521
 2167 0016 0546     		mov	r5, r0
 2168              	.LVL191:
 570:Lib/lvgl/src/display/lv_display.c **** 
 2169              		.loc 1 570 5 is_stmt 1 view .LVU522
 570:Lib/lvgl/src/display/lv_display.c **** 
 2170              		.loc 1 570 26 is_stmt 0 view .LVU523
 2171 0018 FFF7FEFF 		bl	lv_screen_active
 2172              	.LVL192:
 572:Lib/lvgl/src/display/lv_display.c ****         return;
 2173              		.loc 1 572 5 is_stmt 1 view .LVU524
 572:Lib/lvgl/src/display/lv_display.c ****         return;
 2174              		.loc 1 572 7 is_stmt 0 view .LVU525
ARM GAS  C:\Users\Alex\AppData\Local\Temp\cc0G22cc.s 			page 72


 2175 001c 8642     		cmp	r6, r0
 2176 001e 00F0B080 		beq	.L203
 2177 0022 0446     		mov	r4, r0
 572:Lib/lvgl/src/display/lv_display.c ****         return;
 2178              		.loc 1 572 31 discriminator 1 view .LVU526
 2179 0024 D5F8B802 		ldr	r0, [r5, #696]
 2180              	.LVL193:
 572:Lib/lvgl/src/display/lv_display.c ****         return;
 2181              		.loc 1 572 27 discriminator 1 view .LVU527
 2182 0028 B042     		cmp	r0, r6
 2183 002a 00F0AA80 		beq	.L203
 578:Lib/lvgl/src/display/lv_display.c ****         lv_anim_delete(d->scr_to_load, NULL);
 2184              		.loc 1 578 5 is_stmt 1 view .LVU528
 578:Lib/lvgl/src/display/lv_display.c ****         lv_anim_delete(d->scr_to_load, NULL);
 2185              		.loc 1 578 7 is_stmt 0 view .LVU529
 2186 002e E0B1     		cbz	r0, .L205
 578:Lib/lvgl/src/display/lv_display.c ****         lv_anim_delete(d->scr_to_load, NULL);
 2187              		.loc 1 578 23 discriminator 1 view .LVU530
 2188 0030 A042     		cmp	r0, r4
 2189 0032 1AD0     		beq	.L205
 579:Lib/lvgl/src/display/lv_display.c ****         lv_obj_set_pos(d->scr_to_load, 0, 0);
 2190              		.loc 1 579 9 is_stmt 1 view .LVU531
 2191 0034 0021     		movs	r1, #0
 2192 0036 FFF7FEFF 		bl	lv_anim_delete
 2193              	.LVL194:
 580:Lib/lvgl/src/display/lv_display.c ****         lv_obj_remove_local_style_prop(d->scr_to_load, LV_STYLE_OPA, 0);
 2194              		.loc 1 580 9 view .LVU532
 2195 003a 0022     		movs	r2, #0
 2196 003c 1146     		mov	r1, r2
 2197 003e D5F8B802 		ldr	r0, [r5, #696]
 2198 0042 FFF7FEFF 		bl	lv_obj_set_pos
 2199              	.LVL195:
 581:Lib/lvgl/src/display/lv_display.c **** 
 2200              		.loc 1 581 9 view .LVU533
 2201 0046 0022     		movs	r2, #0
 2202 0048 5F21     		movs	r1, #95
 2203 004a D5F8B802 		ldr	r0, [r5, #696]
 2204 004e FFF7FEFF 		bl	lv_obj_remove_local_style_prop
 2205              	.LVL196:
 583:Lib/lvgl/src/display/lv_display.c ****             lv_obj_delete(act_scr);
 2206              		.loc 1 583 9 view .LVU534
 583:Lib/lvgl/src/display/lv_display.c ****             lv_obj_delete(act_scr);
 2207              		.loc 1 583 12 is_stmt 0 view .LVU535
 2208 0052 95F8CC32 		ldrb	r3, [r5, #716]	@ zero_extendqisi2
 583:Lib/lvgl/src/display/lv_display.c ****             lv_obj_delete(act_scr);
 2209              		.loc 1 583 11 view .LVU536
 2210 0056 13F0020F 		tst	r3, #2
 2211 005a 68D1     		bne	.L235
 2212              	.L206:
 586:Lib/lvgl/src/display/lv_display.c **** 
 2213              		.loc 1 586 9 is_stmt 1 view .LVU537
 586:Lib/lvgl/src/display/lv_display.c **** 
 2214              		.loc 1 586 19 is_stmt 0 view .LVU538
 2215 005c FFF7FEFF 		bl	lv_screen_active
 2216              	.LVL197:
 2217 0060 0446     		mov	r4, r0
 2218              	.LVL198:
ARM GAS  C:\Users\Alex\AppData\Local\Temp\cc0G22cc.s 			page 73


 588:Lib/lvgl/src/display/lv_display.c ****     }
 2219              		.loc 1 588 9 is_stmt 1 view .LVU539
 2220 0062 D5F8B802 		ldr	r0, [r5, #696]
 2221              	.LVL199:
 588:Lib/lvgl/src/display/lv_display.c ****     }
 2222              		.loc 1 588 9 is_stmt 0 view .LVU540
 2223 0066 FFF7FEFF 		bl	scr_load_internal
 2224              	.LVL200:
 2225              	.L205:
 591:Lib/lvgl/src/display/lv_display.c **** 
 2226              		.loc 1 591 5 is_stmt 1 view .LVU541
 591:Lib/lvgl/src/display/lv_display.c **** 
 2227              		.loc 1 591 20 is_stmt 0 view .LVU542
 2228 006a C5F8B862 		str	r6, [r5, #696]
 593:Lib/lvgl/src/display/lv_display.c ****         lv_obj_delete(d->prev_scr);
 2229              		.loc 1 593 5 is_stmt 1 view .LVU543
 593:Lib/lvgl/src/display/lv_display.c ****         lv_obj_delete(d->prev_scr);
 2230              		.loc 1 593 9 is_stmt 0 view .LVU544
 2231 006e D5F8B402 		ldr	r0, [r5, #692]
 593:Lib/lvgl/src/display/lv_display.c ****         lv_obj_delete(d->prev_scr);
 2232              		.loc 1 593 7 view .LVU545
 2233 0072 20B1     		cbz	r0, .L207
 593:Lib/lvgl/src/display/lv_display.c ****         lv_obj_delete(d->prev_scr);
 2234              		.loc 1 593 20 discriminator 1 view .LVU546
 2235 0074 95F8CC32 		ldrb	r3, [r5, #716]	@ zero_extendqisi2
 2236 0078 13F0020F 		tst	r3, #2
 2237 007c 5BD1     		bne	.L236
 2238              	.L207:
 598:Lib/lvgl/src/display/lv_display.c ****     d->del_prev = auto_del;
 2239              		.loc 1 598 5 is_stmt 1 view .LVU547
 598:Lib/lvgl/src/display/lv_display.c ****     d->del_prev = auto_del;
 2240              		.loc 1 598 29 is_stmt 0 view .LVU548
 2241 007e 4046     		mov	r0, r8
 2242 0080 FFF7FEFF 		bl	is_out_anim
 2243              	.LVL201:
 598:Lib/lvgl/src/display/lv_display.c ****     d->del_prev = auto_del;
 2244              		.loc 1 598 27 view .LVU549
 2245 0084 95F8CC32 		ldrb	r3, [r5, #716]	@ zero_extendqisi2
 2246 0088 60F30003 		bfi	r3, r0, #0, #1
 2247 008c 85F8CC32 		strb	r3, [r5, #716]
 599:Lib/lvgl/src/display/lv_display.c **** 
 2248              		.loc 1 599 5 is_stmt 1 view .LVU550
 599:Lib/lvgl/src/display/lv_display.c **** 
 2249              		.loc 1 599 17 is_stmt 0 view .LVU551
 2250 0090 DBB2     		uxtb	r3, r3
 2251 0092 6AF34103 		bfi	r3, r10, #1, #1
 2252 0096 85F8CC32 		strb	r3, [r5, #716]
 602:Lib/lvgl/src/display/lv_display.c ****     if(act_scr) lv_anim_delete(act_scr, NULL);
 2253              		.loc 1 602 5 is_stmt 1 view .LVU552
 2254 009a 0021     		movs	r1, #0
 2255 009c 3046     		mov	r0, r6
 2256 009e FFF7FEFF 		bl	lv_anim_delete
 2257              	.LVL202:
 603:Lib/lvgl/src/display/lv_display.c **** 
 2258              		.loc 1 603 5 view .LVU553
 603:Lib/lvgl/src/display/lv_display.c **** 
 2259              		.loc 1 603 7 is_stmt 0 view .LVU554
ARM GAS  C:\Users\Alex\AppData\Local\Temp\cc0G22cc.s 			page 74


 2260 00a2 1CB1     		cbz	r4, .L208
 603:Lib/lvgl/src/display/lv_display.c **** 
 2261              		.loc 1 603 17 is_stmt 1 discriminator 1 view .LVU555
 2262 00a4 0021     		movs	r1, #0
 2263 00a6 2046     		mov	r0, r4
 2264 00a8 FFF7FEFF 		bl	lv_anim_delete
 2265              	.LVL203:
 2266              	.L208:
 606:Lib/lvgl/src/display/lv_display.c ****     if(act_scr) lv_obj_set_pos(act_scr, 0, 0);
 2267              		.loc 1 606 5 view .LVU556
 2268 00ac 0022     		movs	r2, #0
 2269 00ae 1146     		mov	r1, r2
 2270 00b0 3046     		mov	r0, r6
 2271 00b2 FFF7FEFF 		bl	lv_obj_set_pos
 2272              	.LVL204:
 607:Lib/lvgl/src/display/lv_display.c ****     lv_obj_remove_local_style_prop(new_scr, LV_STYLE_OPA, 0);
 2273              		.loc 1 607 5 view .LVU557
 607:Lib/lvgl/src/display/lv_display.c ****     lv_obj_remove_local_style_prop(new_scr, LV_STYLE_OPA, 0);
 2274              		.loc 1 607 7 is_stmt 0 view .LVU558
 2275 00b6 24B1     		cbz	r4, .L209
 607:Lib/lvgl/src/display/lv_display.c ****     lv_obj_remove_local_style_prop(new_scr, LV_STYLE_OPA, 0);
 2276              		.loc 1 607 17 is_stmt 1 discriminator 1 view .LVU559
 2277 00b8 0022     		movs	r2, #0
 2278 00ba 1146     		mov	r1, r2
 2279 00bc 2046     		mov	r0, r4
 2280 00be FFF7FEFF 		bl	lv_obj_set_pos
 2281              	.LVL205:
 2282              	.L209:
 608:Lib/lvgl/src/display/lv_display.c ****     if(act_scr) lv_obj_remove_local_style_prop(act_scr, LV_STYLE_OPA, 0);
 2283              		.loc 1 608 5 view .LVU560
 2284 00c2 0022     		movs	r2, #0
 2285 00c4 5F21     		movs	r1, #95
 2286 00c6 3046     		mov	r0, r6
 2287 00c8 FFF7FEFF 		bl	lv_obj_remove_local_style_prop
 2288              	.LVL206:
 609:Lib/lvgl/src/display/lv_display.c **** 
 2289              		.loc 1 609 5 view .LVU561
 609:Lib/lvgl/src/display/lv_display.c **** 
 2290              		.loc 1 609 7 is_stmt 0 view .LVU562
 2291 00cc 24B1     		cbz	r4, .L210
 609:Lib/lvgl/src/display/lv_display.c **** 
 2292              		.loc 1 609 17 is_stmt 1 discriminator 1 view .LVU563
 2293 00ce 0022     		movs	r2, #0
 2294 00d0 5F21     		movs	r1, #95
 2295 00d2 2046     		mov	r0, r4
 2296 00d4 FFF7FEFF 		bl	lv_obj_remove_local_style_prop
 2297              	.LVL207:
 2298              	.L210:
 612:Lib/lvgl/src/display/lv_display.c ****         scr_load_internal(new_scr);
 2299              		.loc 1 612 5 view .LVU564
 612:Lib/lvgl/src/display/lv_display.c ****         scr_load_internal(new_scr);
 2300              		.loc 1 612 7 is_stmt 0 view .LVU565
 2301 00d8 B9F1000F 		cmp	r9, #0
 2302 00dc 00D1     		bne	.L211
 612:Lib/lvgl/src/display/lv_display.c ****         scr_load_internal(new_scr);
 2303              		.loc 1 612 18 discriminator 1 view .LVU566
 2304 00de 87B3     		cbz	r7, .L237
ARM GAS  C:\Users\Alex\AppData\Local\Temp\cc0G22cc.s 			page 75


 2305              	.L211:
 618:Lib/lvgl/src/display/lv_display.c ****     lv_anim_init(&a_new);
 2306              		.loc 1 618 5 is_stmt 1 view .LVU567
 619:Lib/lvgl/src/display/lv_display.c ****     lv_anim_set_var(&a_new, new_scr);
 2307              		.loc 1 619 5 view .LVU568
 2308 00e0 16A8     		add	r0, sp, #88
 2309 00e2 FFF7FEFF 		bl	lv_anim_init
 2310              	.LVL208:
 620:Lib/lvgl/src/display/lv_display.c ****     lv_anim_set_start_cb(&a_new, scr_load_anim_start);
 2311              		.loc 1 620 5 view .LVU569
 2312              	.LBB104:
 2313              	.LBI104:
 2314              		.file 3 "Lib/lvgl/src/display/../draw/../misc/lv_anim.h"
   1:Lib/lvgl/src/display/../draw/../misc/lv_anim.h **** /**
   2:Lib/lvgl/src/display/../draw/../misc/lv_anim.h ****  * @file lv_anim.h
   3:Lib/lvgl/src/display/../draw/../misc/lv_anim.h ****  *
   4:Lib/lvgl/src/display/../draw/../misc/lv_anim.h ****  */
   5:Lib/lvgl/src/display/../draw/../misc/lv_anim.h **** 
   6:Lib/lvgl/src/display/../draw/../misc/lv_anim.h **** #ifndef LV_ANIM_H
   7:Lib/lvgl/src/display/../draw/../misc/lv_anim.h **** #define LV_ANIM_H
   8:Lib/lvgl/src/display/../draw/../misc/lv_anim.h **** 
   9:Lib/lvgl/src/display/../draw/../misc/lv_anim.h **** #ifdef __cplusplus
  10:Lib/lvgl/src/display/../draw/../misc/lv_anim.h **** extern "C" {
  11:Lib/lvgl/src/display/../draw/../misc/lv_anim.h **** #endif
  12:Lib/lvgl/src/display/../draw/../misc/lv_anim.h **** 
  13:Lib/lvgl/src/display/../draw/../misc/lv_anim.h **** /*********************
  14:Lib/lvgl/src/display/../draw/../misc/lv_anim.h ****  *      INCLUDES
  15:Lib/lvgl/src/display/../draw/../misc/lv_anim.h ****  *********************/
  16:Lib/lvgl/src/display/../draw/../misc/lv_anim.h **** #include "../lv_conf_internal.h"
  17:Lib/lvgl/src/display/../draw/../misc/lv_anim.h **** #include "lv_types.h"
  18:Lib/lvgl/src/display/../draw/../misc/lv_anim.h **** #include "lv_math.h"
  19:Lib/lvgl/src/display/../draw/../misc/lv_anim.h **** #include "lv_timer.h"
  20:Lib/lvgl/src/display/../draw/../misc/lv_anim.h **** #include "lv_ll.h"
  21:Lib/lvgl/src/display/../draw/../misc/lv_anim.h **** 
  22:Lib/lvgl/src/display/../draw/../misc/lv_anim.h **** #include <stdint.h>
  23:Lib/lvgl/src/display/../draw/../misc/lv_anim.h **** #include <stdbool.h>
  24:Lib/lvgl/src/display/../draw/../misc/lv_anim.h **** #include <stddef.h>
  25:Lib/lvgl/src/display/../draw/../misc/lv_anim.h **** 
  26:Lib/lvgl/src/display/../draw/../misc/lv_anim.h **** /*********************
  27:Lib/lvgl/src/display/../draw/../misc/lv_anim.h ****  *      DEFINES
  28:Lib/lvgl/src/display/../draw/../misc/lv_anim.h ****  *********************/
  29:Lib/lvgl/src/display/../draw/../misc/lv_anim.h **** 
  30:Lib/lvgl/src/display/../draw/../misc/lv_anim.h **** #define LV_ANIM_REPEAT_INFINITE      0xFFFF
  31:Lib/lvgl/src/display/../draw/../misc/lv_anim.h **** #define LV_ANIM_PLAYTIME_INFINITE    0xFFFFFFFF
  32:Lib/lvgl/src/display/../draw/../misc/lv_anim.h **** 
  33:Lib/lvgl/src/display/../draw/../misc/lv_anim.h **** /*
  34:Lib/lvgl/src/display/../draw/../misc/lv_anim.h ****  * Macros used to set cubic-bezier anim parameter.
  35:Lib/lvgl/src/display/../draw/../misc/lv_anim.h ****  * Parameters come from https://easings.net/
  36:Lib/lvgl/src/display/../draw/../misc/lv_anim.h ****  *
  37:Lib/lvgl/src/display/../draw/../misc/lv_anim.h ****  * Usage:
  38:Lib/lvgl/src/display/../draw/../misc/lv_anim.h ****  *
  39:Lib/lvgl/src/display/../draw/../misc/lv_anim.h ****  * lv_anim_t a;
  40:Lib/lvgl/src/display/../draw/../misc/lv_anim.h ****  * lv_anim_init(&a);
  41:Lib/lvgl/src/display/../draw/../misc/lv_anim.h ****  * ...
  42:Lib/lvgl/src/display/../draw/../misc/lv_anim.h ****  * lv_anim_set_path_cb(&a, lv_anim_path_custom_bezier3);
  43:Lib/lvgl/src/display/../draw/../misc/lv_anim.h ****  * LV_ANIM_SET_EASE_IN_SINE(&a); //Set cubic-bezier anim parameter to easeInSine
  44:Lib/lvgl/src/display/../draw/../misc/lv_anim.h ****  * ...
ARM GAS  C:\Users\Alex\AppData\Local\Temp\cc0G22cc.s 			page 76


  45:Lib/lvgl/src/display/../draw/../misc/lv_anim.h ****  * lv_anim_start(&a);
  46:Lib/lvgl/src/display/../draw/../misc/lv_anim.h ****  */
  47:Lib/lvgl/src/display/../draw/../misc/lv_anim.h **** 
  48:Lib/lvgl/src/display/../draw/../misc/lv_anim.h **** #define _PARA(a, x1, y1, x2, y2) ((a)->parameter.bezier3 =                                  \
  49:Lib/lvgl/src/display/../draw/../misc/lv_anim.h **** (struct _lv_anim_bezier3_para_t) {                      \
  50:Lib/lvgl/src/display/../draw/../misc/lv_anim.h ****     LV_BEZIER_VAL_FLOAT(x1), LV_BEZIER_VAL_FLOAT(y1),   \
  51:Lib/lvgl/src/display/../draw/../misc/lv_anim.h ****     LV_BEZIER_VAL_FLOAT(x2), LV_BEZIER_VAL_FLOAT(y2) }  \
  52:Lib/lvgl/src/display/../draw/../misc/lv_anim.h ****                                  )
  53:Lib/lvgl/src/display/../draw/../misc/lv_anim.h **** 
  54:Lib/lvgl/src/display/../draw/../misc/lv_anim.h **** #define LV_ANIM_SET_EASE_IN_SINE(a) _PARA(a, 0.12, 0, 0.39, 0)
  55:Lib/lvgl/src/display/../draw/../misc/lv_anim.h **** #define LV_ANIM_SET_EASE_OUT_SINE(a) _PARA(a, 0.61, 1, 0.88, 1)
  56:Lib/lvgl/src/display/../draw/../misc/lv_anim.h **** #define LV_ANIM_SET_EASE_IN_OUT_SINE(a) _PARA(a, 0.37, 0, 0.63, 1)
  57:Lib/lvgl/src/display/../draw/../misc/lv_anim.h **** #define LV_ANIM_SET_EASE_IN_QUAD(a) _PARA(a, 0.11, 0, 0.5, 0)
  58:Lib/lvgl/src/display/../draw/../misc/lv_anim.h **** #define LV_ANIM_SET_EASE_OUT_QUAD(a) _PARA(a, 0.5, 1, 0.89, 1)
  59:Lib/lvgl/src/display/../draw/../misc/lv_anim.h **** #define LV_ANIM_SET_EASE_IN_OUT_QUAD(a) _PARA(a, 0.45, 0, 0.55, 1)
  60:Lib/lvgl/src/display/../draw/../misc/lv_anim.h **** #define LV_ANIM_SET_EASE_IN_CUBIC(a) _PARA(a, 0.32, 0, 0.67, 0)
  61:Lib/lvgl/src/display/../draw/../misc/lv_anim.h **** #define LV_ANIM_SET_EASE_OUT_CUBIC(a) _PARA(a, 0.33, 1, 0.68, 1)
  62:Lib/lvgl/src/display/../draw/../misc/lv_anim.h **** #define LV_ANIM_SET_EASE_IN_OUT_CUBIC(a) _PARA(a, 0.65, 0, 0.35, 1)
  63:Lib/lvgl/src/display/../draw/../misc/lv_anim.h **** #define LV_ANIM_SET_EASE_IN_QUART(a) _PARA(a, 0.5, 0, 0.75, 0)
  64:Lib/lvgl/src/display/../draw/../misc/lv_anim.h **** #define LV_ANIM_SET_EASE_OUT_QUART(a) _PARA(a, 0.25, 1, 0.5, 1)
  65:Lib/lvgl/src/display/../draw/../misc/lv_anim.h **** #define LV_ANIM_SET_EASE_IN_OUT_QUART(a) _PARA(a, 0.76, 0, 0.24, 1)
  66:Lib/lvgl/src/display/../draw/../misc/lv_anim.h **** #define LV_ANIM_SET_EASE_IN_QUINT(a) _PARA(a, 0.64, 0, 0.78, 0)
  67:Lib/lvgl/src/display/../draw/../misc/lv_anim.h **** #define LV_ANIM_SET_EASE_OUT_QUINT(a) _PARA(a, 0.22, 1, 0.36, 1)
  68:Lib/lvgl/src/display/../draw/../misc/lv_anim.h **** #define LV_ANIM_SET_EASE_IN_OUT_QUINT(a) _PARA(a, 0.83, 0, 0.17, 1)
  69:Lib/lvgl/src/display/../draw/../misc/lv_anim.h **** #define LV_ANIM_SET_EASE_IN_EXPO(a) _PARA(a, 0.7, 0, 0.84, 0)
  70:Lib/lvgl/src/display/../draw/../misc/lv_anim.h **** #define LV_ANIM_SET_EASE_OUT_EXPO(a) _PARA(a, 0.16, 1, 0.3, 1)
  71:Lib/lvgl/src/display/../draw/../misc/lv_anim.h **** #define LV_ANIM_SET_EASE_IN_OUT_EXPO(a) _PARA(a, 0.87, 0, 0.13, 1)
  72:Lib/lvgl/src/display/../draw/../misc/lv_anim.h **** #define LV_ANIM_SET_EASE_IN_CIRC(a) _PARA(a, 0.55, 0, 1, 0.45)
  73:Lib/lvgl/src/display/../draw/../misc/lv_anim.h **** #define LV_ANIM_SET_EASE_OUT_CIRC(a) _PARA(a, 0, 0.55, 0.45, 1)
  74:Lib/lvgl/src/display/../draw/../misc/lv_anim.h **** #define LV_ANIM_SET_EASE_IN_OUT_CIRC(a) _PARA(a, 0.85, 0, 0.15, 1)
  75:Lib/lvgl/src/display/../draw/../misc/lv_anim.h **** #define LV_ANIM_SET_EASE_IN_BACK(a) _PARA(a, 0.36, 0, 0.66, -0.56)
  76:Lib/lvgl/src/display/../draw/../misc/lv_anim.h **** #define LV_ANIM_SET_EASE_OUT_BACK(a) _PARA(a, 0.34, 1.56, 0.64, 1)
  77:Lib/lvgl/src/display/../draw/../misc/lv_anim.h **** #define LV_ANIM_SET_EASE_IN_OUT_BACK(a) _PARA(a, 0.68, -0.6, 0.32, 1.6)
  78:Lib/lvgl/src/display/../draw/../misc/lv_anim.h **** 
  79:Lib/lvgl/src/display/../draw/../misc/lv_anim.h **** LV_EXPORT_CONST_INT(LV_ANIM_REPEAT_INFINITE);
  80:Lib/lvgl/src/display/../draw/../misc/lv_anim.h **** LV_EXPORT_CONST_INT(LV_ANIM_PLAYTIME_INFINITE);
  81:Lib/lvgl/src/display/../draw/../misc/lv_anim.h **** 
  82:Lib/lvgl/src/display/../draw/../misc/lv_anim.h **** /**********************
  83:Lib/lvgl/src/display/../draw/../misc/lv_anim.h ****  *      TYPEDEFS
  84:Lib/lvgl/src/display/../draw/../misc/lv_anim.h ****  **********************/
  85:Lib/lvgl/src/display/../draw/../misc/lv_anim.h **** 
  86:Lib/lvgl/src/display/../draw/../misc/lv_anim.h **** /** Can be used to indicate if animations are enabled or disabled in a case*/
  87:Lib/lvgl/src/display/../draw/../misc/lv_anim.h **** typedef enum {
  88:Lib/lvgl/src/display/../draw/../misc/lv_anim.h ****     LV_ANIM_OFF,
  89:Lib/lvgl/src/display/../draw/../misc/lv_anim.h ****     LV_ANIM_ON,
  90:Lib/lvgl/src/display/../draw/../misc/lv_anim.h **** } lv_anim_enable_t;
  91:Lib/lvgl/src/display/../draw/../misc/lv_anim.h **** 
  92:Lib/lvgl/src/display/../draw/../misc/lv_anim.h **** typedef struct {
  93:Lib/lvgl/src/display/../draw/../misc/lv_anim.h ****     bool anim_list_changed;
  94:Lib/lvgl/src/display/../draw/../misc/lv_anim.h ****     bool anim_run_round;
  95:Lib/lvgl/src/display/../draw/../misc/lv_anim.h ****     lv_timer_t * timer;
  96:Lib/lvgl/src/display/../draw/../misc/lv_anim.h ****     lv_ll_t anim_ll;
  97:Lib/lvgl/src/display/../draw/../misc/lv_anim.h **** } lv_anim_state_t;
  98:Lib/lvgl/src/display/../draw/../misc/lv_anim.h **** 
  99:Lib/lvgl/src/display/../draw/../misc/lv_anim.h **** /** Get the current value during an animation*/
 100:Lib/lvgl/src/display/../draw/../misc/lv_anim.h **** typedef int32_t (*lv_anim_path_cb_t)(const lv_anim_t *);
 101:Lib/lvgl/src/display/../draw/../misc/lv_anim.h **** 
ARM GAS  C:\Users\Alex\AppData\Local\Temp\cc0G22cc.s 			page 77


 102:Lib/lvgl/src/display/../draw/../misc/lv_anim.h **** /** Generic prototype of "animator" functions.
 103:Lib/lvgl/src/display/../draw/../misc/lv_anim.h ****  * First parameter is the variable to animate.
 104:Lib/lvgl/src/display/../draw/../misc/lv_anim.h ****  * Second parameter is the value to set.
 105:Lib/lvgl/src/display/../draw/../misc/lv_anim.h ****  * Compatible with `lv_xxx_set_yyy(obj, value)` functions
 106:Lib/lvgl/src/display/../draw/../misc/lv_anim.h ****  * The `x` in `_xcb_t` means it's not a fully generic prototype because
 107:Lib/lvgl/src/display/../draw/../misc/lv_anim.h ****  * it doesn't receive `lv_anim_t *` as its first argument*/
 108:Lib/lvgl/src/display/../draw/../misc/lv_anim.h **** typedef void (*lv_anim_exec_xcb_t)(void *, int32_t);
 109:Lib/lvgl/src/display/../draw/../misc/lv_anim.h **** 
 110:Lib/lvgl/src/display/../draw/../misc/lv_anim.h **** /** Same as `lv_anim_exec_xcb_t` but receives `lv_anim_t *` as the first parameter.
 111:Lib/lvgl/src/display/../draw/../misc/lv_anim.h ****  * It's more consistent but less convenient. Might be used by binding generator functions.*/
 112:Lib/lvgl/src/display/../draw/../misc/lv_anim.h **** typedef void (*lv_anim_custom_exec_cb_t)(lv_anim_t *, int32_t);
 113:Lib/lvgl/src/display/../draw/../misc/lv_anim.h **** 
 114:Lib/lvgl/src/display/../draw/../misc/lv_anim.h **** /** Callback to call when the animation is ready*/
 115:Lib/lvgl/src/display/../draw/../misc/lv_anim.h **** typedef void (*lv_anim_completed_cb_t)(lv_anim_t *);
 116:Lib/lvgl/src/display/../draw/../misc/lv_anim.h **** 
 117:Lib/lvgl/src/display/../draw/../misc/lv_anim.h **** /** Callback to call when the animation really stars (considering `delay`)*/
 118:Lib/lvgl/src/display/../draw/../misc/lv_anim.h **** typedef void (*lv_anim_start_cb_t)(lv_anim_t *);
 119:Lib/lvgl/src/display/../draw/../misc/lv_anim.h **** 
 120:Lib/lvgl/src/display/../draw/../misc/lv_anim.h **** /** Callback used when the animation values are relative to get the current value*/
 121:Lib/lvgl/src/display/../draw/../misc/lv_anim.h **** typedef int32_t (*lv_anim_get_value_cb_t)(lv_anim_t *);
 122:Lib/lvgl/src/display/../draw/../misc/lv_anim.h **** 
 123:Lib/lvgl/src/display/../draw/../misc/lv_anim.h **** /** Callback used when the animation is deleted*/
 124:Lib/lvgl/src/display/../draw/../misc/lv_anim.h **** typedef void (*lv_anim_deleted_cb_t)(lv_anim_t *);
 125:Lib/lvgl/src/display/../draw/../misc/lv_anim.h **** 
 126:Lib/lvgl/src/display/../draw/../misc/lv_anim.h **** typedef struct _lv_anim_bezier3_para_t {
 127:Lib/lvgl/src/display/../draw/../misc/lv_anim.h ****     int16_t x1;
 128:Lib/lvgl/src/display/../draw/../misc/lv_anim.h ****     int16_t y1;
 129:Lib/lvgl/src/display/../draw/../misc/lv_anim.h ****     int16_t x2;
 130:Lib/lvgl/src/display/../draw/../misc/lv_anim.h ****     int16_t y2;
 131:Lib/lvgl/src/display/../draw/../misc/lv_anim.h **** } lv_anim_bezier3_para_t; /**< Parameter used when path is custom_bezier*/
 132:Lib/lvgl/src/display/../draw/../misc/lv_anim.h **** 
 133:Lib/lvgl/src/display/../draw/../misc/lv_anim.h **** /** Describes an animation*/
 134:Lib/lvgl/src/display/../draw/../misc/lv_anim.h **** struct _lv_anim_t {
 135:Lib/lvgl/src/display/../draw/../misc/lv_anim.h ****     void * var;                                 /**<Variable to animate*/
 136:Lib/lvgl/src/display/../draw/../misc/lv_anim.h ****     lv_anim_exec_xcb_t exec_cb;                 /**< Function to execute to animate*/
 137:Lib/lvgl/src/display/../draw/../misc/lv_anim.h ****     lv_anim_custom_exec_cb_t custom_exec_cb;/**< Function to execute to animate,
 138:Lib/lvgl/src/display/../draw/../misc/lv_anim.h ****                                                  same purpose as exec_cb but different parameters*/
 139:Lib/lvgl/src/display/../draw/../misc/lv_anim.h ****     lv_anim_start_cb_t start_cb;         /**< Call it when the animation is starts (considering `de
 140:Lib/lvgl/src/display/../draw/../misc/lv_anim.h ****     lv_anim_completed_cb_t completed_cb; /**< Call it when the animation is fully completed*/
 141:Lib/lvgl/src/display/../draw/../misc/lv_anim.h ****     lv_anim_deleted_cb_t deleted_cb;     /**< Call it when the animation is deleted*/
 142:Lib/lvgl/src/display/../draw/../misc/lv_anim.h ****     lv_anim_get_value_cb_t get_value_cb; /**< Get the current value in relative mode*/
 143:Lib/lvgl/src/display/../draw/../misc/lv_anim.h ****     void * user_data;                    /**< Custom user data*/
 144:Lib/lvgl/src/display/../draw/../misc/lv_anim.h ****     lv_anim_path_cb_t path_cb;         /**< Describe the path (curve) of animations*/
 145:Lib/lvgl/src/display/../draw/../misc/lv_anim.h ****     int32_t start_value;               /**< Start value*/
 146:Lib/lvgl/src/display/../draw/../misc/lv_anim.h ****     int32_t current_value;             /**< Current value*/
 147:Lib/lvgl/src/display/../draw/../misc/lv_anim.h ****     int32_t end_value;                 /**< End value*/
 148:Lib/lvgl/src/display/../draw/../misc/lv_anim.h ****     int32_t duration;                /**< Animation time in ms*/
 149:Lib/lvgl/src/display/../draw/../misc/lv_anim.h ****     int32_t act_time;            /**< Current time in animation. Set to negative to make delay.*/
 150:Lib/lvgl/src/display/../draw/../misc/lv_anim.h ****     uint32_t playback_delay;     /**< Wait before play back*/
 151:Lib/lvgl/src/display/../draw/../misc/lv_anim.h ****     uint32_t playback_duration;      /**< Duration of playback animation*/
 152:Lib/lvgl/src/display/../draw/../misc/lv_anim.h ****     uint32_t repeat_delay;       /**< Wait before repeat*/
 153:Lib/lvgl/src/display/../draw/../misc/lv_anim.h ****     uint16_t repeat_cnt;         /**< Repeat count for the animation*/
 154:Lib/lvgl/src/display/../draw/../misc/lv_anim.h ****     union _lv_anim_path_para_t {
 155:Lib/lvgl/src/display/../draw/../misc/lv_anim.h ****         lv_anim_bezier3_para_t bezier3; /**< Parameter used when path is custom_bezier*/
 156:Lib/lvgl/src/display/../draw/../misc/lv_anim.h ****     } parameter;
 157:Lib/lvgl/src/display/../draw/../misc/lv_anim.h **** 
 158:Lib/lvgl/src/display/../draw/../misc/lv_anim.h ****     uint8_t early_apply  : 1;    /**< 1: Apply start value immediately even is there is `delay`*/
ARM GAS  C:\Users\Alex\AppData\Local\Temp\cc0G22cc.s 			page 78


 159:Lib/lvgl/src/display/../draw/../misc/lv_anim.h **** 
 160:Lib/lvgl/src/display/../draw/../misc/lv_anim.h ****     /*Animation system use these - user shouldn't set*/
 161:Lib/lvgl/src/display/../draw/../misc/lv_anim.h ****     uint32_t last_timer_run;
 162:Lib/lvgl/src/display/../draw/../misc/lv_anim.h ****     uint8_t playback_now : 1; /**< Play back is in progress*/
 163:Lib/lvgl/src/display/../draw/../misc/lv_anim.h ****     uint8_t run_round : 1;    /**< Indicates the animation has run in this round*/
 164:Lib/lvgl/src/display/../draw/../misc/lv_anim.h ****     uint8_t start_cb_called : 1;    /**< Indicates that the `start_cb` was already called*/
 165:Lib/lvgl/src/display/../draw/../misc/lv_anim.h **** };
 166:Lib/lvgl/src/display/../draw/../misc/lv_anim.h **** 
 167:Lib/lvgl/src/display/../draw/../misc/lv_anim.h **** /**********************
 168:Lib/lvgl/src/display/../draw/../misc/lv_anim.h ****  * GLOBAL PROTOTYPES
 169:Lib/lvgl/src/display/../draw/../misc/lv_anim.h ****  **********************/
 170:Lib/lvgl/src/display/../draw/../misc/lv_anim.h **** 
 171:Lib/lvgl/src/display/../draw/../misc/lv_anim.h **** /**
 172:Lib/lvgl/src/display/../draw/../misc/lv_anim.h ****  * Init the animation module
 173:Lib/lvgl/src/display/../draw/../misc/lv_anim.h ****  */
 174:Lib/lvgl/src/display/../draw/../misc/lv_anim.h **** void _lv_anim_core_init(void);
 175:Lib/lvgl/src/display/../draw/../misc/lv_anim.h **** 
 176:Lib/lvgl/src/display/../draw/../misc/lv_anim.h **** /**
 177:Lib/lvgl/src/display/../draw/../misc/lv_anim.h ****  * Deinit the animation module
 178:Lib/lvgl/src/display/../draw/../misc/lv_anim.h ****  */
 179:Lib/lvgl/src/display/../draw/../misc/lv_anim.h **** void _lv_anim_core_deinit(void);
 180:Lib/lvgl/src/display/../draw/../misc/lv_anim.h **** 
 181:Lib/lvgl/src/display/../draw/../misc/lv_anim.h **** /**
 182:Lib/lvgl/src/display/../draw/../misc/lv_anim.h ****  * Initialize an animation variable.
 183:Lib/lvgl/src/display/../draw/../misc/lv_anim.h ****  * E.g.:
 184:Lib/lvgl/src/display/../draw/../misc/lv_anim.h ****  * lv_anim_t a;
 185:Lib/lvgl/src/display/../draw/../misc/lv_anim.h ****  * lv_anim_init(&a);
 186:Lib/lvgl/src/display/../draw/../misc/lv_anim.h ****  * lv_anim_set_...(&a);
 187:Lib/lvgl/src/display/../draw/../misc/lv_anim.h ****  * lv_anim_start(&a);
 188:Lib/lvgl/src/display/../draw/../misc/lv_anim.h ****  * @param a     pointer to an `lv_anim_t` variable to initialize
 189:Lib/lvgl/src/display/../draw/../misc/lv_anim.h ****  */
 190:Lib/lvgl/src/display/../draw/../misc/lv_anim.h **** void lv_anim_init(lv_anim_t * a);
 191:Lib/lvgl/src/display/../draw/../misc/lv_anim.h **** 
 192:Lib/lvgl/src/display/../draw/../misc/lv_anim.h **** /**
 193:Lib/lvgl/src/display/../draw/../misc/lv_anim.h ****  * Set a variable to animate
 194:Lib/lvgl/src/display/../draw/../misc/lv_anim.h ****  * @param a     pointer to an initialized `lv_anim_t` variable
 195:Lib/lvgl/src/display/../draw/../misc/lv_anim.h ****  * @param var   pointer to a variable to animate
 196:Lib/lvgl/src/display/../draw/../misc/lv_anim.h ****  */
 197:Lib/lvgl/src/display/../draw/../misc/lv_anim.h **** static inline void lv_anim_set_var(lv_anim_t * a, void * var)
 2315              		.loc 3 197 20 view .LVU570
 2316              	.LBB105:
 198:Lib/lvgl/src/display/../draw/../misc/lv_anim.h **** {
 199:Lib/lvgl/src/display/../draw/../misc/lv_anim.h ****     a->var = var;
 2317              		.loc 3 199 5 view .LVU571
 2318              		.loc 3 199 12 is_stmt 0 view .LVU572
 2319 00e6 1696     		str	r6, [sp, #88]
 2320              	.LVL209:
 2321              		.loc 3 199 12 view .LVU573
 2322              	.LBE105:
 2323              	.LBE104:
 621:Lib/lvgl/src/display/lv_display.c ****     lv_anim_set_completed_cb(&a_new, scr_anim_completed);
 2324              		.loc 1 621 5 is_stmt 1 view .LVU574
 2325              	.LBB106:
 2326              	.LBI106:
 200:Lib/lvgl/src/display/../draw/../misc/lv_anim.h **** }
 201:Lib/lvgl/src/display/../draw/../misc/lv_anim.h **** 
 202:Lib/lvgl/src/display/../draw/../misc/lv_anim.h **** /**
ARM GAS  C:\Users\Alex\AppData\Local\Temp\cc0G22cc.s 			page 79


 203:Lib/lvgl/src/display/../draw/../misc/lv_anim.h ****  * Set a function to animate `var`
 204:Lib/lvgl/src/display/../draw/../misc/lv_anim.h ****  * @param a         pointer to an initialized `lv_anim_t` variable
 205:Lib/lvgl/src/display/../draw/../misc/lv_anim.h ****  * @param exec_cb   a function to execute during animation
 206:Lib/lvgl/src/display/../draw/../misc/lv_anim.h ****  *                  LVGL's built-in functions can be used.
 207:Lib/lvgl/src/display/../draw/../misc/lv_anim.h ****  *                  E.g. lv_obj_set_x
 208:Lib/lvgl/src/display/../draw/../misc/lv_anim.h ****  */
 209:Lib/lvgl/src/display/../draw/../misc/lv_anim.h **** static inline void lv_anim_set_exec_cb(lv_anim_t * a, lv_anim_exec_xcb_t exec_cb)
 210:Lib/lvgl/src/display/../draw/../misc/lv_anim.h **** {
 211:Lib/lvgl/src/display/../draw/../misc/lv_anim.h ****     a->exec_cb = exec_cb;
 212:Lib/lvgl/src/display/../draw/../misc/lv_anim.h **** }
 213:Lib/lvgl/src/display/../draw/../misc/lv_anim.h **** 
 214:Lib/lvgl/src/display/../draw/../misc/lv_anim.h **** /**
 215:Lib/lvgl/src/display/../draw/../misc/lv_anim.h ****  * Set the duration of an animation
 216:Lib/lvgl/src/display/../draw/../misc/lv_anim.h ****  * @param a         pointer to an initialized `lv_anim_t` variable
 217:Lib/lvgl/src/display/../draw/../misc/lv_anim.h ****  * @param duration  duration of the animation in milliseconds
 218:Lib/lvgl/src/display/../draw/../misc/lv_anim.h ****  */
 219:Lib/lvgl/src/display/../draw/../misc/lv_anim.h **** static inline void lv_anim_set_duration(lv_anim_t * a, uint32_t duration)
 220:Lib/lvgl/src/display/../draw/../misc/lv_anim.h **** {
 221:Lib/lvgl/src/display/../draw/../misc/lv_anim.h ****     a->duration = duration;
 222:Lib/lvgl/src/display/../draw/../misc/lv_anim.h **** }
 223:Lib/lvgl/src/display/../draw/../misc/lv_anim.h **** 
 224:Lib/lvgl/src/display/../draw/../misc/lv_anim.h **** /**
 225:Lib/lvgl/src/display/../draw/../misc/lv_anim.h ****  * Legacy `lv_anim_set_time` API will be removed soon, use `lv_anim_set_duration` instead.
 226:Lib/lvgl/src/display/../draw/../misc/lv_anim.h ****  */
 227:Lib/lvgl/src/display/../draw/../misc/lv_anim.h **** static inline void lv_anim_set_time(lv_anim_t * a, uint32_t duration)
 228:Lib/lvgl/src/display/../draw/../misc/lv_anim.h **** {
 229:Lib/lvgl/src/display/../draw/../misc/lv_anim.h ****     lv_anim_set_duration(a, duration);
 230:Lib/lvgl/src/display/../draw/../misc/lv_anim.h **** }
 231:Lib/lvgl/src/display/../draw/../misc/lv_anim.h **** 
 232:Lib/lvgl/src/display/../draw/../misc/lv_anim.h **** /**
 233:Lib/lvgl/src/display/../draw/../misc/lv_anim.h ****  * Set a delay before starting the animation
 234:Lib/lvgl/src/display/../draw/../misc/lv_anim.h ****  * @param a         pointer to an initialized `lv_anim_t` variable
 235:Lib/lvgl/src/display/../draw/../misc/lv_anim.h ****  * @param delay     delay before the animation in milliseconds
 236:Lib/lvgl/src/display/../draw/../misc/lv_anim.h ****  */
 237:Lib/lvgl/src/display/../draw/../misc/lv_anim.h **** static inline void lv_anim_set_delay(lv_anim_t * a, uint32_t delay)
 238:Lib/lvgl/src/display/../draw/../misc/lv_anim.h **** {
 239:Lib/lvgl/src/display/../draw/../misc/lv_anim.h ****     a->act_time = -(int32_t)(delay);
 240:Lib/lvgl/src/display/../draw/../misc/lv_anim.h **** }
 241:Lib/lvgl/src/display/../draw/../misc/lv_anim.h **** 
 242:Lib/lvgl/src/display/../draw/../misc/lv_anim.h **** /**
 243:Lib/lvgl/src/display/../draw/../misc/lv_anim.h ****  * Set the start and end values of an animation
 244:Lib/lvgl/src/display/../draw/../misc/lv_anim.h ****  * @param a         pointer to an initialized `lv_anim_t` variable
 245:Lib/lvgl/src/display/../draw/../misc/lv_anim.h ****  * @param start     the start value
 246:Lib/lvgl/src/display/../draw/../misc/lv_anim.h ****  * @param end       the end value
 247:Lib/lvgl/src/display/../draw/../misc/lv_anim.h ****  */
 248:Lib/lvgl/src/display/../draw/../misc/lv_anim.h **** static inline void lv_anim_set_values(lv_anim_t * a, int32_t start, int32_t end)
 249:Lib/lvgl/src/display/../draw/../misc/lv_anim.h **** {
 250:Lib/lvgl/src/display/../draw/../misc/lv_anim.h ****     a->start_value = start;
 251:Lib/lvgl/src/display/../draw/../misc/lv_anim.h ****     a->current_value = INT32_MIN;
 252:Lib/lvgl/src/display/../draw/../misc/lv_anim.h ****     a->end_value = end;
 253:Lib/lvgl/src/display/../draw/../misc/lv_anim.h **** }
 254:Lib/lvgl/src/display/../draw/../misc/lv_anim.h **** 
 255:Lib/lvgl/src/display/../draw/../misc/lv_anim.h **** /**
 256:Lib/lvgl/src/display/../draw/../misc/lv_anim.h ****  * Similar to `lv_anim_set_exec_cb` but `lv_anim_custom_exec_cb_t` receives
 257:Lib/lvgl/src/display/../draw/../misc/lv_anim.h ****  * `lv_anim_t * ` as its first parameter instead of `void *`.
 258:Lib/lvgl/src/display/../draw/../misc/lv_anim.h ****  * This function might be used when LVGL is bound to other languages because
 259:Lib/lvgl/src/display/../draw/../misc/lv_anim.h ****  * it's more consistent to have `lv_anim_t *` as first parameter.
ARM GAS  C:\Users\Alex\AppData\Local\Temp\cc0G22cc.s 			page 80


 260:Lib/lvgl/src/display/../draw/../misc/lv_anim.h ****  * @param a         pointer to an initialized `lv_anim_t` variable
 261:Lib/lvgl/src/display/../draw/../misc/lv_anim.h ****  * @param exec_cb   a function to execute.
 262:Lib/lvgl/src/display/../draw/../misc/lv_anim.h ****  */
 263:Lib/lvgl/src/display/../draw/../misc/lv_anim.h **** static inline void lv_anim_set_custom_exec_cb(lv_anim_t * a, lv_anim_custom_exec_cb_t exec_cb)
 264:Lib/lvgl/src/display/../draw/../misc/lv_anim.h **** {
 265:Lib/lvgl/src/display/../draw/../misc/lv_anim.h ****     a->custom_exec_cb = exec_cb;
 266:Lib/lvgl/src/display/../draw/../misc/lv_anim.h **** }
 267:Lib/lvgl/src/display/../draw/../misc/lv_anim.h **** 
 268:Lib/lvgl/src/display/../draw/../misc/lv_anim.h **** /**
 269:Lib/lvgl/src/display/../draw/../misc/lv_anim.h ****  * Set the path (curve) of the animation.
 270:Lib/lvgl/src/display/../draw/../misc/lv_anim.h ****  * @param a         pointer to an initialized `lv_anim_t` variable
 271:Lib/lvgl/src/display/../draw/../misc/lv_anim.h ****  * @param path_cb a function to set the current value of the animation.
 272:Lib/lvgl/src/display/../draw/../misc/lv_anim.h ****  */
 273:Lib/lvgl/src/display/../draw/../misc/lv_anim.h **** static inline void lv_anim_set_path_cb(lv_anim_t * a, lv_anim_path_cb_t path_cb)
 274:Lib/lvgl/src/display/../draw/../misc/lv_anim.h **** {
 275:Lib/lvgl/src/display/../draw/../misc/lv_anim.h ****     a->path_cb = path_cb;
 276:Lib/lvgl/src/display/../draw/../misc/lv_anim.h **** }
 277:Lib/lvgl/src/display/../draw/../misc/lv_anim.h **** 
 278:Lib/lvgl/src/display/../draw/../misc/lv_anim.h **** /**
 279:Lib/lvgl/src/display/../draw/../misc/lv_anim.h ****  * Set a function call when the animation really starts (considering `delay`)
 280:Lib/lvgl/src/display/../draw/../misc/lv_anim.h ****  * @param a         pointer to an initialized `lv_anim_t` variable
 281:Lib/lvgl/src/display/../draw/../misc/lv_anim.h ****  * @param start_cb  a function call when the animation starts
 282:Lib/lvgl/src/display/../draw/../misc/lv_anim.h ****  */
 283:Lib/lvgl/src/display/../draw/../misc/lv_anim.h **** static inline void lv_anim_set_start_cb(lv_anim_t * a, lv_anim_start_cb_t start_cb)
 2327              		.loc 3 283 20 view .LVU575
 2328              	.LBB107:
 284:Lib/lvgl/src/display/../draw/../misc/lv_anim.h **** {
 285:Lib/lvgl/src/display/../draw/../misc/lv_anim.h ****     a->start_cb = start_cb;
 2329              		.loc 3 285 5 view .LVU576
 2330              		.loc 3 285 17 is_stmt 0 view .LVU577
 2331 00e8 914B     		ldr	r3, .L238
 2332 00ea 1993     		str	r3, [sp, #100]
 2333              	.LVL210:
 2334              		.loc 3 285 17 view .LVU578
 2335              	.LBE107:
 2336              	.LBE106:
 622:Lib/lvgl/src/display/lv_display.c ****     lv_anim_set_duration(&a_new, time);
 2337              		.loc 1 622 5 is_stmt 1 view .LVU579
 2338              	.LBB108:
 2339              	.LBI108:
 286:Lib/lvgl/src/display/../draw/../misc/lv_anim.h **** }
 287:Lib/lvgl/src/display/../draw/../misc/lv_anim.h **** 
 288:Lib/lvgl/src/display/../draw/../misc/lv_anim.h **** /**
 289:Lib/lvgl/src/display/../draw/../misc/lv_anim.h ****  * Set a function to use the current value of the variable and make start and end value
 290:Lib/lvgl/src/display/../draw/../misc/lv_anim.h ****  * relative to the returned current value.
 291:Lib/lvgl/src/display/../draw/../misc/lv_anim.h ****  * @param a             pointer to an initialized `lv_anim_t` variable
 292:Lib/lvgl/src/display/../draw/../misc/lv_anim.h ****  * @param get_value_cb  a function call when the animation starts
 293:Lib/lvgl/src/display/../draw/../misc/lv_anim.h ****  */
 294:Lib/lvgl/src/display/../draw/../misc/lv_anim.h **** static inline void lv_anim_set_get_value_cb(lv_anim_t * a, lv_anim_get_value_cb_t get_value_cb)
 295:Lib/lvgl/src/display/../draw/../misc/lv_anim.h **** {
 296:Lib/lvgl/src/display/../draw/../misc/lv_anim.h ****     a->get_value_cb = get_value_cb;
 297:Lib/lvgl/src/display/../draw/../misc/lv_anim.h **** }
 298:Lib/lvgl/src/display/../draw/../misc/lv_anim.h **** 
 299:Lib/lvgl/src/display/../draw/../misc/lv_anim.h **** /**
 300:Lib/lvgl/src/display/../draw/../misc/lv_anim.h ****  * Set a function call when the animation is completed
 301:Lib/lvgl/src/display/../draw/../misc/lv_anim.h ****  * @param a             pointer to an initialized `lv_anim_t` variable
 302:Lib/lvgl/src/display/../draw/../misc/lv_anim.h ****  * @param completed_cb  a function call when the animation is fully completed
ARM GAS  C:\Users\Alex\AppData\Local\Temp\cc0G22cc.s 			page 81


 303:Lib/lvgl/src/display/../draw/../misc/lv_anim.h ****  */
 304:Lib/lvgl/src/display/../draw/../misc/lv_anim.h **** static inline void lv_anim_set_completed_cb(lv_anim_t * a, lv_anim_completed_cb_t completed_cb)
 2340              		.loc 3 304 20 view .LVU580
 2341              	.LBB109:
 305:Lib/lvgl/src/display/../draw/../misc/lv_anim.h **** {
 306:Lib/lvgl/src/display/../draw/../misc/lv_anim.h ****     a->completed_cb = completed_cb;
 2342              		.loc 3 306 5 view .LVU581
 2343              		.loc 3 306 21 is_stmt 0 view .LVU582
 2344 00ec 914B     		ldr	r3, .L238+4
 2345 00ee 1A93     		str	r3, [sp, #104]
 2346              	.LVL211:
 2347              		.loc 3 306 21 view .LVU583
 2348              	.LBE109:
 2349              	.LBE108:
 623:Lib/lvgl/src/display/lv_display.c ****     lv_anim_set_delay(&a_new, delay);
 2350              		.loc 1 623 5 is_stmt 1 view .LVU584
 2351              	.LBB110:
 2352              	.LBI110:
 219:Lib/lvgl/src/display/../draw/../misc/lv_anim.h **** {
 2353              		.loc 3 219 20 view .LVU585
 2354              	.LBB111:
 221:Lib/lvgl/src/display/../draw/../misc/lv_anim.h **** }
 2355              		.loc 3 221 5 view .LVU586
 221:Lib/lvgl/src/display/../draw/../misc/lv_anim.h **** }
 2356              		.loc 3 221 17 is_stmt 0 view .LVU587
 2357 00f0 CDF88890 		str	r9, [sp, #136]
 2358              	.LVL212:
 221:Lib/lvgl/src/display/../draw/../misc/lv_anim.h **** }
 2359              		.loc 3 221 17 view .LVU588
 2360              	.LBE111:
 2361              	.LBE110:
 624:Lib/lvgl/src/display/lv_display.c **** 
 2362              		.loc 1 624 5 is_stmt 1 view .LVU589
 2363              	.LBB112:
 2364              	.LBI112:
 237:Lib/lvgl/src/display/../draw/../misc/lv_anim.h **** {
 2365              		.loc 3 237 20 view .LVU590
 2366              	.LBB113:
 239:Lib/lvgl/src/display/../draw/../misc/lv_anim.h **** }
 2367              		.loc 3 239 5 view .LVU591
 239:Lib/lvgl/src/display/../draw/../misc/lv_anim.h **** }
 2368              		.loc 3 239 19 is_stmt 0 view .LVU592
 2369 00f4 7F42     		rsbs	r7, r7, #0
 2370              	.LVL213:
 239:Lib/lvgl/src/display/../draw/../misc/lv_anim.h **** }
 2371              		.loc 3 239 17 view .LVU593
 2372 00f6 2397     		str	r7, [sp, #140]
 2373              	.LVL214:
 239:Lib/lvgl/src/display/../draw/../misc/lv_anim.h **** }
 2374              		.loc 3 239 17 view .LVU594
 2375              	.LBE113:
 2376              	.LBE112:
 626:Lib/lvgl/src/display/lv_display.c ****     lv_anim_init(&a_old);
 2377              		.loc 1 626 5 is_stmt 1 view .LVU595
 627:Lib/lvgl/src/display/lv_display.c ****     lv_anim_set_var(&a_old, act_scr);
 2378              		.loc 1 627 5 view .LVU596
 2379 00f8 6846     		mov	r0, sp
ARM GAS  C:\Users\Alex\AppData\Local\Temp\cc0G22cc.s 			page 82


 2380 00fa FFF7FEFF 		bl	lv_anim_init
 2381              	.LVL215:
 628:Lib/lvgl/src/display/lv_display.c ****     lv_anim_set_duration(&a_old, time);
 2382              		.loc 1 628 5 view .LVU597
 2383              	.LBB114:
 2384              	.LBI114:
 197:Lib/lvgl/src/display/../draw/../misc/lv_anim.h **** {
 2385              		.loc 3 197 20 view .LVU598
 2386              	.LBB115:
 199:Lib/lvgl/src/display/../draw/../misc/lv_anim.h **** }
 2387              		.loc 3 199 5 view .LVU599
 199:Lib/lvgl/src/display/../draw/../misc/lv_anim.h **** }
 2388              		.loc 3 199 12 is_stmt 0 view .LVU600
 2389 00fe 0094     		str	r4, [sp]
 2390              	.LVL216:
 199:Lib/lvgl/src/display/../draw/../misc/lv_anim.h **** }
 2391              		.loc 3 199 12 view .LVU601
 2392              	.LBE115:
 2393              	.LBE114:
 629:Lib/lvgl/src/display/lv_display.c ****     lv_anim_set_delay(&a_old, delay);
 2394              		.loc 1 629 5 is_stmt 1 view .LVU602
 2395              	.LBB116:
 2396              	.LBI116:
 219:Lib/lvgl/src/display/../draw/../misc/lv_anim.h **** {
 2397              		.loc 3 219 20 view .LVU603
 2398              	.LBB117:
 221:Lib/lvgl/src/display/../draw/../misc/lv_anim.h **** }
 2399              		.loc 3 221 5 view .LVU604
 221:Lib/lvgl/src/display/../draw/../misc/lv_anim.h **** }
 2400              		.loc 3 221 17 is_stmt 0 view .LVU605
 2401 0100 CDF83090 		str	r9, [sp, #48]
 2402              	.LVL217:
 221:Lib/lvgl/src/display/../draw/../misc/lv_anim.h **** }
 2403              		.loc 3 221 17 view .LVU606
 2404              	.LBE117:
 2405              	.LBE116:
 630:Lib/lvgl/src/display/lv_display.c **** 
 2406              		.loc 1 630 5 is_stmt 1 view .LVU607
 2407              	.LBB118:
 2408              	.LBI118:
 237:Lib/lvgl/src/display/../draw/../misc/lv_anim.h **** {
 2409              		.loc 3 237 20 view .LVU608
 2410              	.LBB119:
 239:Lib/lvgl/src/display/../draw/../misc/lv_anim.h **** }
 2411              		.loc 3 239 5 view .LVU609
 239:Lib/lvgl/src/display/../draw/../misc/lv_anim.h **** }
 2412              		.loc 3 239 17 is_stmt 0 view .LVU610
 2413 0104 0D97     		str	r7, [sp, #52]
 2414              	.LVL218:
 239:Lib/lvgl/src/display/../draw/../misc/lv_anim.h **** }
 2415              		.loc 3 239 17 view .LVU611
 2416              	.LBE119:
 2417              	.LBE118:
 632:Lib/lvgl/src/display/lv_display.c ****         case LV_SCR_LOAD_ANIM_NONE:
 2418              		.loc 1 632 5 is_stmt 1 view .LVU612
 2419 0106 B8F10E0F 		cmp	r8, #14
 2420 010a 2DD8     		bhi	.L213
ARM GAS  C:\Users\Alex\AppData\Local\Temp\cc0G22cc.s 			page 83


 2421 010c DFE818F0 		tbh	[pc, r8, lsl #1]
 2422              	.L215:
 2423 0110 2400     		.2byte	(.L229-.L215)/2
 2424 0112 3C00     		.2byte	(.L228-.L215)/2
 2425 0114 4800     		.2byte	(.L227-.L215)/2
 2426 0116 5500     		.2byte	(.L226-.L215)/2
 2427 0118 6100     		.2byte	(.L225-.L215)/2
 2428 011a 6E00     		.2byte	(.L224-.L215)/2
 2429 011c 8500     		.2byte	(.L223-.L215)/2
 2430 011e 9C00     		.2byte	(.L222-.L215)/2
 2431 0120 B300     		.2byte	(.L221-.L215)/2
 2432 0122 CA00     		.2byte	(.L220-.L215)/2
 2433 0124 D400     		.2byte	(.L219-.L215)/2
 2434 0126 DE00     		.2byte	(.L218-.L215)/2
 2435 0128 EB00     		.2byte	(.L217-.L215)/2
 2436 012a F700     		.2byte	(.L216-.L215)/2
 2437 012c 0401     		.2byte	(.L214-.L215)/2
 2438              	.LVL219:
 2439              		.p2align 1
 2440              	.L235:
 584:Lib/lvgl/src/display/lv_display.c ****         }
 2441              		.loc 1 584 13 view .LVU613
 2442 012e 2046     		mov	r0, r4
 2443 0130 FFF7FEFF 		bl	lv_obj_delete
 2444              	.LVL220:
 2445 0134 92E7     		b	.L206
 2446              	.L236:
 594:Lib/lvgl/src/display/lv_display.c ****         d->prev_scr = NULL;
 2447              		.loc 1 594 9 view .LVU614
 2448 0136 FFF7FEFF 		bl	lv_obj_delete
 2449              	.LVL221:
 595:Lib/lvgl/src/display/lv_display.c ****     }
 2450              		.loc 1 595 9 view .LVU615
 595:Lib/lvgl/src/display/lv_display.c ****     }
 2451              		.loc 1 595 21 is_stmt 0 view .LVU616
 2452 013a 0023     		movs	r3, #0
 2453 013c C5F8B432 		str	r3, [r5, #692]
 2454 0140 9DE7     		b	.L207
 2455              	.L237:
 613:Lib/lvgl/src/display/lv_display.c ****         if(auto_del && act_scr) lv_obj_delete(act_scr);
 2456              		.loc 1 613 9 is_stmt 1 view .LVU617
 2457 0142 3046     		mov	r0, r6
 2458 0144 FFF7FEFF 		bl	scr_load_internal
 2459              	.LVL222:
 614:Lib/lvgl/src/display/lv_display.c ****         return;
 2460              		.loc 1 614 9 view .LVU618
 614:Lib/lvgl/src/display/lv_display.c ****         return;
 2461              		.loc 1 614 11 is_stmt 0 view .LVU619
 2462 0148 BAF1000F 		cmp	r10, #0
 2463 014c 19D0     		beq	.L203
 614:Lib/lvgl/src/display/lv_display.c ****         return;
 2464              		.loc 1 614 21 discriminator 1 view .LVU620
 2465 014e C4B1     		cbz	r4, .L203
 614:Lib/lvgl/src/display/lv_display.c ****         return;
 2466              		.loc 1 614 33 is_stmt 1 discriminator 2 view .LVU621
 2467 0150 2046     		mov	r0, r4
 2468 0152 FFF7FEFF 		bl	lv_obj_delete
ARM GAS  C:\Users\Alex\AppData\Local\Temp\cc0G22cc.s 			page 84


 2469              	.LVL223:
 615:Lib/lvgl/src/display/lv_display.c ****     }
 2470              		.loc 1 615 9 discriminator 2 view .LVU622
 2471 0156 14E0     		b	.L203
 2472              	.LVL224:
 2473              	.L229:
 635:Lib/lvgl/src/display/lv_display.c ****             lv_anim_set_values(&a_new, 0, 0);
 2474              		.loc 1 635 13 view .LVU623
 2475              	.LBB120:
 2476              	.LBI120:
 209:Lib/lvgl/src/display/../draw/../misc/lv_anim.h **** {
 2477              		.loc 3 209 20 view .LVU624
 2478              	.LBB121:
 211:Lib/lvgl/src/display/../draw/../misc/lv_anim.h **** }
 2479              		.loc 3 211 5 view .LVU625
 211:Lib/lvgl/src/display/../draw/../misc/lv_anim.h **** }
 2480              		.loc 3 211 16 is_stmt 0 view .LVU626
 2481 0158 774B     		ldr	r3, .L238+8
 2482 015a 1793     		str	r3, [sp, #92]
 2483              	.LVL225:
 211:Lib/lvgl/src/display/../draw/../misc/lv_anim.h **** }
 2484              		.loc 3 211 16 view .LVU627
 2485              	.LBE121:
 2486              	.LBE120:
 636:Lib/lvgl/src/display/lv_display.c ****             break;
 2487              		.loc 1 636 13 is_stmt 1 view .LVU628
 2488              	.LBB122:
 2489              	.LBI122:
 248:Lib/lvgl/src/display/../draw/../misc/lv_anim.h **** {
 2490              		.loc 3 248 20 view .LVU629
 2491              	.LBB123:
 250:Lib/lvgl/src/display/../draw/../misc/lv_anim.h ****     a->current_value = INT32_MIN;
 2492              		.loc 3 250 5 view .LVU630
 250:Lib/lvgl/src/display/../draw/../misc/lv_anim.h ****     a->current_value = INT32_MIN;
 2493              		.loc 3 250 20 is_stmt 0 view .LVU631
 2494 015c 0023     		movs	r3, #0
 2495 015e 1F93     		str	r3, [sp, #124]
 251:Lib/lvgl/src/display/../draw/../misc/lv_anim.h ****     a->end_value = end;
 2496              		.loc 3 251 5 is_stmt 1 view .LVU632
 251:Lib/lvgl/src/display/../draw/../misc/lv_anim.h ****     a->end_value = end;
 2497              		.loc 3 251 22 is_stmt 0 view .LVU633
 2498 0160 4FF00042 		mov	r2, #-2147483648
 2499 0164 2092     		str	r2, [sp, #128]
 252:Lib/lvgl/src/display/../draw/../misc/lv_anim.h **** }
 2500              		.loc 3 252 5 is_stmt 1 view .LVU634
 252:Lib/lvgl/src/display/../draw/../misc/lv_anim.h **** }
 2501              		.loc 3 252 18 is_stmt 0 view .LVU635
 2502 0166 2193     		str	r3, [sp, #132]
 2503              	.LVL226:
 2504              	.L213:
 252:Lib/lvgl/src/display/../draw/../misc/lv_anim.h **** }
 2505              		.loc 3 252 18 view .LVU636
 2506              	.LBE123:
 2507              	.LBE122:
 708:Lib/lvgl/src/display/lv_display.c **** 
 2508              		.loc 1 708 5 is_stmt 1 view .LVU637
 708:Lib/lvgl/src/display/lv_display.c **** 
ARM GAS  C:\Users\Alex\AppData\Local\Temp\cc0G22cc.s 			page 85


 2509              		.loc 1 708 7 is_stmt 0 view .LVU638
 2510 0168 24B1     		cbz	r4, .L230
 708:Lib/lvgl/src/display/lv_display.c **** 
 2511              		.loc 1 708 17 is_stmt 1 discriminator 1 view .LVU639
 2512 016a 0022     		movs	r2, #0
 2513 016c 2721     		movs	r1, #39
 2514 016e 2046     		mov	r0, r4
 2515 0170 FFF7FEFF 		bl	lv_obj_send_event
 2516              	.LVL227:
 2517              	.L230:
 710:Lib/lvgl/src/display/lv_display.c ****     if(act_scr) lv_anim_start(&a_old);
 2518              		.loc 1 710 5 view .LVU640
 2519 0174 16A8     		add	r0, sp, #88
 2520 0176 FFF7FEFF 		bl	lv_anim_start
 2521              	.LVL228:
 711:Lib/lvgl/src/display/lv_display.c **** }
 2522              		.loc 1 711 5 view .LVU641
 711:Lib/lvgl/src/display/lv_display.c **** }
 2523              		.loc 1 711 7 is_stmt 0 view .LVU642
 2524 017a 14B1     		cbz	r4, .L203
 711:Lib/lvgl/src/display/lv_display.c **** }
 2525              		.loc 1 711 17 is_stmt 1 discriminator 1 view .LVU643
 2526 017c 6846     		mov	r0, sp
 2527 017e FFF7FEFF 		bl	lv_anim_start
 2528              	.LVL229:
 2529              	.L203:
 712:Lib/lvgl/src/display/lv_display.c **** 
 2530              		.loc 1 712 1 is_stmt 0 view .LVU644
 2531 0182 2CB0     		add	sp, sp, #176
 2532              	.LCFI39:
 2533              		.cfi_remember_state
 2534              		.cfi_def_cfa_offset 32
 2535              		@ sp needed
 2536 0184 BDE8F087 		pop	{r4, r5, r6, r7, r8, r9, r10, pc}
 2537              	.LVL230:
 2538              	.L228:
 2539              	.LCFI40:
 2540              		.cfi_restore_state
 639:Lib/lvgl/src/display/lv_display.c ****             lv_anim_set_values(&a_new, lv_display_get_horizontal_resolution(d), 0);
 2541              		.loc 1 639 13 is_stmt 1 view .LVU645
 2542              	.LBB124:
 2543              	.LBI124:
 209:Lib/lvgl/src/display/../draw/../misc/lv_anim.h **** {
 2544              		.loc 3 209 20 view .LVU646
 2545              	.LBB125:
 211:Lib/lvgl/src/display/../draw/../misc/lv_anim.h **** }
 2546              		.loc 3 211 5 view .LVU647
 211:Lib/lvgl/src/display/../draw/../misc/lv_anim.h **** }
 2547              		.loc 3 211 16 is_stmt 0 view .LVU648
 2548 0188 6B4B     		ldr	r3, .L238+8
 2549 018a 1793     		str	r3, [sp, #92]
 2550              	.LVL231:
 211:Lib/lvgl/src/display/../draw/../misc/lv_anim.h **** }
 2551              		.loc 3 211 16 view .LVU649
 2552              	.LBE125:
 2553              	.LBE124:
 640:Lib/lvgl/src/display/lv_display.c ****             break;
ARM GAS  C:\Users\Alex\AppData\Local\Temp\cc0G22cc.s 			page 86


 2554              		.loc 1 640 13 is_stmt 1 view .LVU650
 2555 018c 2846     		mov	r0, r5
 2556 018e FFF7FEFF 		bl	lv_display_get_horizontal_resolution
 2557              	.LVL232:
 2558              	.LBB126:
 2559              	.LBI126:
 248:Lib/lvgl/src/display/../draw/../misc/lv_anim.h **** {
 2560              		.loc 3 248 20 view .LVU651
 2561              	.LBB127:
 250:Lib/lvgl/src/display/../draw/../misc/lv_anim.h ****     a->current_value = INT32_MIN;
 2562              		.loc 3 250 5 view .LVU652
 250:Lib/lvgl/src/display/../draw/../misc/lv_anim.h ****     a->current_value = INT32_MIN;
 2563              		.loc 3 250 20 is_stmt 0 view .LVU653
 2564 0192 1F90     		str	r0, [sp, #124]
 251:Lib/lvgl/src/display/../draw/../misc/lv_anim.h ****     a->end_value = end;
 2565              		.loc 3 251 5 is_stmt 1 view .LVU654
 251:Lib/lvgl/src/display/../draw/../misc/lv_anim.h ****     a->end_value = end;
 2566              		.loc 3 251 22 is_stmt 0 view .LVU655
 2567 0194 4FF00043 		mov	r3, #-2147483648
 2568 0198 2093     		str	r3, [sp, #128]
 252:Lib/lvgl/src/display/../draw/../misc/lv_anim.h **** }
 2569              		.loc 3 252 5 is_stmt 1 view .LVU656
 252:Lib/lvgl/src/display/../draw/../misc/lv_anim.h **** }
 2570              		.loc 3 252 18 is_stmt 0 view .LVU657
 2571 019a 0023     		movs	r3, #0
 2572 019c 2193     		str	r3, [sp, #132]
 253:Lib/lvgl/src/display/../draw/../misc/lv_anim.h **** 
 2573              		.loc 3 253 1 view .LVU658
 2574 019e E3E7     		b	.L213
 2575              	.LVL233:
 2576              	.L227:
 253:Lib/lvgl/src/display/../draw/../misc/lv_anim.h **** 
 2577              		.loc 3 253 1 view .LVU659
 2578              	.LBE127:
 2579              	.LBE126:
 643:Lib/lvgl/src/display/lv_display.c ****             lv_anim_set_values(&a_new, -lv_display_get_horizontal_resolution(d), 0);
 2580              		.loc 1 643 13 is_stmt 1 view .LVU660
 2581              	.LBB128:
 2582              	.LBI128:
 209:Lib/lvgl/src/display/../draw/../misc/lv_anim.h **** {
 2583              		.loc 3 209 20 view .LVU661
 2584              	.LBB129:
 211:Lib/lvgl/src/display/../draw/../misc/lv_anim.h **** }
 2585              		.loc 3 211 5 view .LVU662
 211:Lib/lvgl/src/display/../draw/../misc/lv_anim.h **** }
 2586              		.loc 3 211 16 is_stmt 0 view .LVU663
 2587 01a0 654B     		ldr	r3, .L238+8
 2588 01a2 1793     		str	r3, [sp, #92]
 2589              	.LVL234:
 211:Lib/lvgl/src/display/../draw/../misc/lv_anim.h **** }
 2590              		.loc 3 211 16 view .LVU664
 2591              	.LBE129:
 2592              	.LBE128:
 644:Lib/lvgl/src/display/lv_display.c ****             break;
 2593              		.loc 1 644 13 is_stmt 1 view .LVU665
 644:Lib/lvgl/src/display/lv_display.c ****             break;
 2594              		.loc 1 644 41 is_stmt 0 view .LVU666
ARM GAS  C:\Users\Alex\AppData\Local\Temp\cc0G22cc.s 			page 87


 2595 01a4 2846     		mov	r0, r5
 2596 01a6 FFF7FEFF 		bl	lv_display_get_horizontal_resolution
 2597              	.LVL235:
 644:Lib/lvgl/src/display/lv_display.c ****             break;
 2598              		.loc 1 644 13 view .LVU667
 2599 01aa 4042     		rsbs	r0, r0, #0
 2600              	.LVL236:
 2601              	.LBB130:
 2602              	.LBI130:
 248:Lib/lvgl/src/display/../draw/../misc/lv_anim.h **** {
 2603              		.loc 3 248 20 is_stmt 1 view .LVU668
 2604              	.LBB131:
 250:Lib/lvgl/src/display/../draw/../misc/lv_anim.h ****     a->current_value = INT32_MIN;
 2605              		.loc 3 250 5 view .LVU669
 250:Lib/lvgl/src/display/../draw/../misc/lv_anim.h ****     a->current_value = INT32_MIN;
 2606              		.loc 3 250 20 is_stmt 0 view .LVU670
 2607 01ac 1F90     		str	r0, [sp, #124]
 251:Lib/lvgl/src/display/../draw/../misc/lv_anim.h ****     a->end_value = end;
 2608              		.loc 3 251 5 is_stmt 1 view .LVU671
 251:Lib/lvgl/src/display/../draw/../misc/lv_anim.h ****     a->end_value = end;
 2609              		.loc 3 251 22 is_stmt 0 view .LVU672
 2610 01ae 4FF00043 		mov	r3, #-2147483648
 2611 01b2 2093     		str	r3, [sp, #128]
 252:Lib/lvgl/src/display/../draw/../misc/lv_anim.h **** }
 2612              		.loc 3 252 5 is_stmt 1 view .LVU673
 252:Lib/lvgl/src/display/../draw/../misc/lv_anim.h **** }
 2613              		.loc 3 252 18 is_stmt 0 view .LVU674
 2614 01b4 0023     		movs	r3, #0
 2615 01b6 2193     		str	r3, [sp, #132]
 253:Lib/lvgl/src/display/../draw/../misc/lv_anim.h **** 
 2616              		.loc 3 253 1 view .LVU675
 2617 01b8 D6E7     		b	.L213
 2618              	.LVL237:
 2619              	.L226:
 253:Lib/lvgl/src/display/../draw/../misc/lv_anim.h **** 
 2620              		.loc 3 253 1 view .LVU676
 2621              	.LBE131:
 2622              	.LBE130:
 647:Lib/lvgl/src/display/lv_display.c ****             lv_anim_set_values(&a_new, lv_display_get_vertical_resolution(d), 0);
 2623              		.loc 1 647 13 is_stmt 1 view .LVU677
 2624              	.LBB132:
 2625              	.LBI132:
 209:Lib/lvgl/src/display/../draw/../misc/lv_anim.h **** {
 2626              		.loc 3 209 20 view .LVU678
 2627              	.LBB133:
 211:Lib/lvgl/src/display/../draw/../misc/lv_anim.h **** }
 2628              		.loc 3 211 5 view .LVU679
 211:Lib/lvgl/src/display/../draw/../misc/lv_anim.h **** }
 2629              		.loc 3 211 16 is_stmt 0 view .LVU680
 2630 01ba 604B     		ldr	r3, .L238+12
 2631 01bc 1793     		str	r3, [sp, #92]
 2632              	.LVL238:
 211:Lib/lvgl/src/display/../draw/../misc/lv_anim.h **** }
 2633              		.loc 3 211 16 view .LVU681
 2634              	.LBE133:
 2635              	.LBE132:
 648:Lib/lvgl/src/display/lv_display.c ****             break;
ARM GAS  C:\Users\Alex\AppData\Local\Temp\cc0G22cc.s 			page 88


 2636              		.loc 1 648 13 is_stmt 1 view .LVU682
 2637 01be 2846     		mov	r0, r5
 2638 01c0 FFF7FEFF 		bl	lv_display_get_vertical_resolution
 2639              	.LVL239:
 2640              	.LBB134:
 2641              	.LBI134:
 248:Lib/lvgl/src/display/../draw/../misc/lv_anim.h **** {
 2642              		.loc 3 248 20 view .LVU683
 2643              	.LBB135:
 250:Lib/lvgl/src/display/../draw/../misc/lv_anim.h ****     a->current_value = INT32_MIN;
 2644              		.loc 3 250 5 view .LVU684
 250:Lib/lvgl/src/display/../draw/../misc/lv_anim.h ****     a->current_value = INT32_MIN;
 2645              		.loc 3 250 20 is_stmt 0 view .LVU685
 2646 01c4 1F90     		str	r0, [sp, #124]
 251:Lib/lvgl/src/display/../draw/../misc/lv_anim.h ****     a->end_value = end;
 2647              		.loc 3 251 5 is_stmt 1 view .LVU686
 251:Lib/lvgl/src/display/../draw/../misc/lv_anim.h ****     a->end_value = end;
 2648              		.loc 3 251 22 is_stmt 0 view .LVU687
 2649 01c6 4FF00043 		mov	r3, #-2147483648
 2650 01ca 2093     		str	r3, [sp, #128]
 252:Lib/lvgl/src/display/../draw/../misc/lv_anim.h **** }
 2651              		.loc 3 252 5 is_stmt 1 view .LVU688
 252:Lib/lvgl/src/display/../draw/../misc/lv_anim.h **** }
 2652              		.loc 3 252 18 is_stmt 0 view .LVU689
 2653 01cc 0023     		movs	r3, #0
 2654 01ce 2193     		str	r3, [sp, #132]
 253:Lib/lvgl/src/display/../draw/../misc/lv_anim.h **** 
 2655              		.loc 3 253 1 view .LVU690
 2656 01d0 CAE7     		b	.L213
 2657              	.LVL240:
 2658              	.L225:
 253:Lib/lvgl/src/display/../draw/../misc/lv_anim.h **** 
 2659              		.loc 3 253 1 view .LVU691
 2660              	.LBE135:
 2661              	.LBE134:
 651:Lib/lvgl/src/display/lv_display.c ****             lv_anim_set_values(&a_new, -lv_display_get_vertical_resolution(d), 0);
 2662              		.loc 1 651 13 is_stmt 1 view .LVU692
 2663              	.LBB136:
 2664              	.LBI136:
 209:Lib/lvgl/src/display/../draw/../misc/lv_anim.h **** {
 2665              		.loc 3 209 20 view .LVU693
 2666              	.LBB137:
 211:Lib/lvgl/src/display/../draw/../misc/lv_anim.h **** }
 2667              		.loc 3 211 5 view .LVU694
 211:Lib/lvgl/src/display/../draw/../misc/lv_anim.h **** }
 2668              		.loc 3 211 16 is_stmt 0 view .LVU695
 2669 01d2 5A4B     		ldr	r3, .L238+12
 2670 01d4 1793     		str	r3, [sp, #92]
 2671              	.LVL241:
 211:Lib/lvgl/src/display/../draw/../misc/lv_anim.h **** }
 2672              		.loc 3 211 16 view .LVU696
 2673              	.LBE137:
 2674              	.LBE136:
 652:Lib/lvgl/src/display/lv_display.c ****             break;
 2675              		.loc 1 652 13 is_stmt 1 view .LVU697
 652:Lib/lvgl/src/display/lv_display.c ****             break;
 2676              		.loc 1 652 41 is_stmt 0 view .LVU698
ARM GAS  C:\Users\Alex\AppData\Local\Temp\cc0G22cc.s 			page 89


 2677 01d6 2846     		mov	r0, r5
 2678 01d8 FFF7FEFF 		bl	lv_display_get_vertical_resolution
 2679              	.LVL242:
 652:Lib/lvgl/src/display/lv_display.c ****             break;
 2680              		.loc 1 652 13 view .LVU699
 2681 01dc 4042     		rsbs	r0, r0, #0
 2682              	.LVL243:
 2683              	.LBB138:
 2684              	.LBI138:
 248:Lib/lvgl/src/display/../draw/../misc/lv_anim.h **** {
 2685              		.loc 3 248 20 is_stmt 1 view .LVU700
 2686              	.LBB139:
 250:Lib/lvgl/src/display/../draw/../misc/lv_anim.h ****     a->current_value = INT32_MIN;
 2687              		.loc 3 250 5 view .LVU701
 250:Lib/lvgl/src/display/../draw/../misc/lv_anim.h ****     a->current_value = INT32_MIN;
 2688              		.loc 3 250 20 is_stmt 0 view .LVU702
 2689 01de 1F90     		str	r0, [sp, #124]
 251:Lib/lvgl/src/display/../draw/../misc/lv_anim.h ****     a->end_value = end;
 2690              		.loc 3 251 5 is_stmt 1 view .LVU703
 251:Lib/lvgl/src/display/../draw/../misc/lv_anim.h ****     a->end_value = end;
 2691              		.loc 3 251 22 is_stmt 0 view .LVU704
 2692 01e0 4FF00043 		mov	r3, #-2147483648
 2693 01e4 2093     		str	r3, [sp, #128]
 252:Lib/lvgl/src/display/../draw/../misc/lv_anim.h **** }
 2694              		.loc 3 252 5 is_stmt 1 view .LVU705
 252:Lib/lvgl/src/display/../draw/../misc/lv_anim.h **** }
 2695              		.loc 3 252 18 is_stmt 0 view .LVU706
 2696 01e6 0023     		movs	r3, #0
 2697 01e8 2193     		str	r3, [sp, #132]
 253:Lib/lvgl/src/display/../draw/../misc/lv_anim.h **** 
 2698              		.loc 3 253 1 view .LVU707
 2699 01ea BDE7     		b	.L213
 2700              	.LVL244:
 2701              	.L224:
 253:Lib/lvgl/src/display/../draw/../misc/lv_anim.h **** 
 2702              		.loc 3 253 1 view .LVU708
 2703              	.LBE139:
 2704              	.LBE138:
 655:Lib/lvgl/src/display/lv_display.c ****             lv_anim_set_values(&a_new, lv_display_get_horizontal_resolution(d), 0);
 2705              		.loc 1 655 13 is_stmt 1 view .LVU709
 2706              	.LBB140:
 2707              	.LBI140:
 209:Lib/lvgl/src/display/../draw/../misc/lv_anim.h **** {
 2708              		.loc 3 209 20 view .LVU710
 2709              	.LBB141:
 211:Lib/lvgl/src/display/../draw/../misc/lv_anim.h **** }
 2710              		.loc 3 211 5 view .LVU711
 211:Lib/lvgl/src/display/../draw/../misc/lv_anim.h **** }
 2711              		.loc 3 211 16 is_stmt 0 view .LVU712
 2712 01ec DFF84881 		ldr	r8, .L238+8
 2713 01f0 CDF85C80 		str	r8, [sp, #92]
 2714              	.LVL245:
 211:Lib/lvgl/src/display/../draw/../misc/lv_anim.h **** }
 2715              		.loc 3 211 16 view .LVU713
 2716              	.LBE141:
 2717              	.LBE140:
 656:Lib/lvgl/src/display/lv_display.c **** 
ARM GAS  C:\Users\Alex\AppData\Local\Temp\cc0G22cc.s 			page 90


 2718              		.loc 1 656 13 is_stmt 1 view .LVU714
 2719 01f4 2846     		mov	r0, r5
 2720 01f6 FFF7FEFF 		bl	lv_display_get_horizontal_resolution
 2721              	.LVL246:
 2722              	.LBB142:
 2723              	.LBI142:
 248:Lib/lvgl/src/display/../draw/../misc/lv_anim.h **** {
 2724              		.loc 3 248 20 view .LVU715
 2725              	.LBB143:
 250:Lib/lvgl/src/display/../draw/../misc/lv_anim.h ****     a->current_value = INT32_MIN;
 2726              		.loc 3 250 5 view .LVU716
 250:Lib/lvgl/src/display/../draw/../misc/lv_anim.h ****     a->current_value = INT32_MIN;
 2727              		.loc 3 250 20 is_stmt 0 view .LVU717
 2728 01fa 1F90     		str	r0, [sp, #124]
 251:Lib/lvgl/src/display/../draw/../misc/lv_anim.h ****     a->end_value = end;
 2729              		.loc 3 251 5 is_stmt 1 view .LVU718
 251:Lib/lvgl/src/display/../draw/../misc/lv_anim.h ****     a->end_value = end;
 2730              		.loc 3 251 22 is_stmt 0 view .LVU719
 2731 01fc 4FF00046 		mov	r6, #-2147483648
 2732              	.LVL247:
 251:Lib/lvgl/src/display/../draw/../misc/lv_anim.h ****     a->end_value = end;
 2733              		.loc 3 251 22 view .LVU720
 2734 0200 2096     		str	r6, [sp, #128]
 252:Lib/lvgl/src/display/../draw/../misc/lv_anim.h **** }
 2735              		.loc 3 252 5 is_stmt 1 view .LVU721
 252:Lib/lvgl/src/display/../draw/../misc/lv_anim.h **** }
 2736              		.loc 3 252 18 is_stmt 0 view .LVU722
 2737 0202 0027     		movs	r7, #0
 2738              	.LVL248:
 252:Lib/lvgl/src/display/../draw/../misc/lv_anim.h **** }
 2739              		.loc 3 252 18 view .LVU723
 2740 0204 2197     		str	r7, [sp, #132]
 2741              	.LVL249:
 252:Lib/lvgl/src/display/../draw/../misc/lv_anim.h **** }
 2742              		.loc 3 252 18 view .LVU724
 2743              	.LBE143:
 2744              	.LBE142:
 658:Lib/lvgl/src/display/lv_display.c ****             lv_anim_set_values(&a_old, 0, -lv_display_get_horizontal_resolution(d));
 2745              		.loc 1 658 13 is_stmt 1 view .LVU725
 2746              	.LBB144:
 2747              	.LBI144:
 209:Lib/lvgl/src/display/../draw/../misc/lv_anim.h **** {
 2748              		.loc 3 209 20 view .LVU726
 2749              	.LBB145:
 211:Lib/lvgl/src/display/../draw/../misc/lv_anim.h **** }
 2750              		.loc 3 211 5 view .LVU727
 211:Lib/lvgl/src/display/../draw/../misc/lv_anim.h **** }
 2751              		.loc 3 211 16 is_stmt 0 view .LVU728
 2752 0206 CDF80480 		str	r8, [sp, #4]
 2753              	.LVL250:
 211:Lib/lvgl/src/display/../draw/../misc/lv_anim.h **** }
 2754              		.loc 3 211 16 view .LVU729
 2755              	.LBE145:
 2756              	.LBE144:
 659:Lib/lvgl/src/display/lv_display.c ****             break;
 2757              		.loc 1 659 13 is_stmt 1 view .LVU730
 659:Lib/lvgl/src/display/lv_display.c ****             break;
ARM GAS  C:\Users\Alex\AppData\Local\Temp\cc0G22cc.s 			page 91


 2758              		.loc 1 659 44 is_stmt 0 view .LVU731
 2759 020a 2846     		mov	r0, r5
 2760 020c FFF7FEFF 		bl	lv_display_get_horizontal_resolution
 2761              	.LVL251:
 659:Lib/lvgl/src/display/lv_display.c ****             break;
 2762              		.loc 1 659 13 view .LVU732
 2763 0210 4042     		rsbs	r0, r0, #0
 2764              	.LVL252:
 2765              	.LBB146:
 2766              	.LBI146:
 248:Lib/lvgl/src/display/../draw/../misc/lv_anim.h **** {
 2767              		.loc 3 248 20 is_stmt 1 view .LVU733
 2768              	.LBB147:
 250:Lib/lvgl/src/display/../draw/../misc/lv_anim.h ****     a->current_value = INT32_MIN;
 2769              		.loc 3 250 5 view .LVU734
 250:Lib/lvgl/src/display/../draw/../misc/lv_anim.h ****     a->current_value = INT32_MIN;
 2770              		.loc 3 250 20 is_stmt 0 view .LVU735
 2771 0212 0997     		str	r7, [sp, #36]
 251:Lib/lvgl/src/display/../draw/../misc/lv_anim.h ****     a->end_value = end;
 2772              		.loc 3 251 5 is_stmt 1 view .LVU736
 251:Lib/lvgl/src/display/../draw/../misc/lv_anim.h ****     a->end_value = end;
 2773              		.loc 3 251 22 is_stmt 0 view .LVU737
 2774 0214 0A96     		str	r6, [sp, #40]
 252:Lib/lvgl/src/display/../draw/../misc/lv_anim.h **** }
 2775              		.loc 3 252 5 is_stmt 1 view .LVU738
 252:Lib/lvgl/src/display/../draw/../misc/lv_anim.h **** }
 2776              		.loc 3 252 18 is_stmt 0 view .LVU739
 2777 0216 0B90     		str	r0, [sp, #44]
 253:Lib/lvgl/src/display/../draw/../misc/lv_anim.h **** 
 2778              		.loc 3 253 1 view .LVU740
 2779 0218 A6E7     		b	.L213
 2780              	.LVL253:
 2781              	.L223:
 253:Lib/lvgl/src/display/../draw/../misc/lv_anim.h **** 
 2782              		.loc 3 253 1 view .LVU741
 2783              	.LBE147:
 2784              	.LBE146:
 662:Lib/lvgl/src/display/lv_display.c ****             lv_anim_set_values(&a_new, -lv_display_get_horizontal_resolution(d), 0);
 2785              		.loc 1 662 13 is_stmt 1 view .LVU742
 2786              	.LBB148:
 2787              	.LBI148:
 209:Lib/lvgl/src/display/../draw/../misc/lv_anim.h **** {
 2788              		.loc 3 209 20 view .LVU743
 2789              	.LBB149:
 211:Lib/lvgl/src/display/../draw/../misc/lv_anim.h **** }
 2790              		.loc 3 211 5 view .LVU744
 211:Lib/lvgl/src/display/../draw/../misc/lv_anim.h **** }
 2791              		.loc 3 211 16 is_stmt 0 view .LVU745
 2792 021a DFF81C81 		ldr	r8, .L238+8
 2793 021e CDF85C80 		str	r8, [sp, #92]
 2794              	.LVL254:
 211:Lib/lvgl/src/display/../draw/../misc/lv_anim.h **** }
 2795              		.loc 3 211 16 view .LVU746
 2796              	.LBE149:
 2797              	.LBE148:
 663:Lib/lvgl/src/display/lv_display.c **** 
 2798              		.loc 1 663 13 is_stmt 1 view .LVU747
ARM GAS  C:\Users\Alex\AppData\Local\Temp\cc0G22cc.s 			page 92


 663:Lib/lvgl/src/display/lv_display.c **** 
 2799              		.loc 1 663 41 is_stmt 0 view .LVU748
 2800 0222 2846     		mov	r0, r5
 2801 0224 FFF7FEFF 		bl	lv_display_get_horizontal_resolution
 2802              	.LVL255:
 663:Lib/lvgl/src/display/lv_display.c **** 
 2803              		.loc 1 663 13 view .LVU749
 2804 0228 4042     		rsbs	r0, r0, #0
 2805              	.LVL256:
 2806              	.LBB150:
 2807              	.LBI150:
 248:Lib/lvgl/src/display/../draw/../misc/lv_anim.h **** {
 2808              		.loc 3 248 20 is_stmt 1 view .LVU750
 2809              	.LBB151:
 250:Lib/lvgl/src/display/../draw/../misc/lv_anim.h ****     a->current_value = INT32_MIN;
 2810              		.loc 3 250 5 view .LVU751
 250:Lib/lvgl/src/display/../draw/../misc/lv_anim.h ****     a->current_value = INT32_MIN;
 2811              		.loc 3 250 20 is_stmt 0 view .LVU752
 2812 022a 1F90     		str	r0, [sp, #124]
 251:Lib/lvgl/src/display/../draw/../misc/lv_anim.h ****     a->end_value = end;
 2813              		.loc 3 251 5 is_stmt 1 view .LVU753
 251:Lib/lvgl/src/display/../draw/../misc/lv_anim.h ****     a->end_value = end;
 2814              		.loc 3 251 22 is_stmt 0 view .LVU754
 2815 022c 4FF00046 		mov	r6, #-2147483648
 2816              	.LVL257:
 251:Lib/lvgl/src/display/../draw/../misc/lv_anim.h ****     a->end_value = end;
 2817              		.loc 3 251 22 view .LVU755
 2818 0230 2096     		str	r6, [sp, #128]
 252:Lib/lvgl/src/display/../draw/../misc/lv_anim.h **** }
 2819              		.loc 3 252 5 is_stmt 1 view .LVU756
 252:Lib/lvgl/src/display/../draw/../misc/lv_anim.h **** }
 2820              		.loc 3 252 18 is_stmt 0 view .LVU757
 2821 0232 0027     		movs	r7, #0
 2822 0234 2197     		str	r7, [sp, #132]
 2823              	.LVL258:
 252:Lib/lvgl/src/display/../draw/../misc/lv_anim.h **** }
 2824              		.loc 3 252 18 view .LVU758
 2825              	.LBE151:
 2826              	.LBE150:
 665:Lib/lvgl/src/display/lv_display.c ****             lv_anim_set_values(&a_old, 0, lv_display_get_horizontal_resolution(d));
 2827              		.loc 1 665 13 is_stmt 1 view .LVU759
 2828              	.LBB152:
 2829              	.LBI152:
 209:Lib/lvgl/src/display/../draw/../misc/lv_anim.h **** {
 2830              		.loc 3 209 20 view .LVU760
 2831              	.LBB153:
 211:Lib/lvgl/src/display/../draw/../misc/lv_anim.h **** }
 2832              		.loc 3 211 5 view .LVU761
 211:Lib/lvgl/src/display/../draw/../misc/lv_anim.h **** }
 2833              		.loc 3 211 16 is_stmt 0 view .LVU762
 2834 0236 CDF80480 		str	r8, [sp, #4]
 2835              	.LVL259:
 211:Lib/lvgl/src/display/../draw/../misc/lv_anim.h **** }
 2836              		.loc 3 211 16 view .LVU763
 2837              	.LBE153:
 2838              	.LBE152:
 666:Lib/lvgl/src/display/lv_display.c ****             break;
ARM GAS  C:\Users\Alex\AppData\Local\Temp\cc0G22cc.s 			page 93


 2839              		.loc 1 666 13 is_stmt 1 view .LVU764
 2840 023a 2846     		mov	r0, r5
 2841 023c FFF7FEFF 		bl	lv_display_get_horizontal_resolution
 2842              	.LVL260:
 2843              	.LBB154:
 2844              	.LBI154:
 248:Lib/lvgl/src/display/../draw/../misc/lv_anim.h **** {
 2845              		.loc 3 248 20 view .LVU765
 2846              	.LBB155:
 250:Lib/lvgl/src/display/../draw/../misc/lv_anim.h ****     a->current_value = INT32_MIN;
 2847              		.loc 3 250 5 view .LVU766
 250:Lib/lvgl/src/display/../draw/../misc/lv_anim.h ****     a->current_value = INT32_MIN;
 2848              		.loc 3 250 20 is_stmt 0 view .LVU767
 2849 0240 0997     		str	r7, [sp, #36]
 251:Lib/lvgl/src/display/../draw/../misc/lv_anim.h ****     a->end_value = end;
 2850              		.loc 3 251 5 is_stmt 1 view .LVU768
 251:Lib/lvgl/src/display/../draw/../misc/lv_anim.h ****     a->end_value = end;
 2851              		.loc 3 251 22 is_stmt 0 view .LVU769
 2852 0242 0A96     		str	r6, [sp, #40]
 252:Lib/lvgl/src/display/../draw/../misc/lv_anim.h **** }
 2853              		.loc 3 252 5 is_stmt 1 view .LVU770
 252:Lib/lvgl/src/display/../draw/../misc/lv_anim.h **** }
 2854              		.loc 3 252 18 is_stmt 0 view .LVU771
 2855 0244 0B90     		str	r0, [sp, #44]
 253:Lib/lvgl/src/display/../draw/../misc/lv_anim.h **** 
 2856              		.loc 3 253 1 view .LVU772
 2857 0246 8FE7     		b	.L213
 2858              	.LVL261:
 2859              	.L222:
 253:Lib/lvgl/src/display/../draw/../misc/lv_anim.h **** 
 2860              		.loc 3 253 1 view .LVU773
 2861              	.LBE155:
 2862              	.LBE154:
 669:Lib/lvgl/src/display/lv_display.c ****             lv_anim_set_values(&a_new, lv_display_get_vertical_resolution(d), 0);
 2863              		.loc 1 669 13 is_stmt 1 view .LVU774
 2864              	.LBB156:
 2865              	.LBI156:
 209:Lib/lvgl/src/display/../draw/../misc/lv_anim.h **** {
 2866              		.loc 3 209 20 view .LVU775
 2867              	.LBB157:
 211:Lib/lvgl/src/display/../draw/../misc/lv_anim.h **** }
 2868              		.loc 3 211 5 view .LVU776
 211:Lib/lvgl/src/display/../draw/../misc/lv_anim.h **** }
 2869              		.loc 3 211 16 is_stmt 0 view .LVU777
 2870 0248 DFF8F080 		ldr	r8, .L238+12
 2871 024c CDF85C80 		str	r8, [sp, #92]
 2872              	.LVL262:
 211:Lib/lvgl/src/display/../draw/../misc/lv_anim.h **** }
 2873              		.loc 3 211 16 view .LVU778
 2874              	.LBE157:
 2875              	.LBE156:
 670:Lib/lvgl/src/display/lv_display.c **** 
 2876              		.loc 1 670 13 is_stmt 1 view .LVU779
 2877 0250 2846     		mov	r0, r5
 2878 0252 FFF7FEFF 		bl	lv_display_get_vertical_resolution
 2879              	.LVL263:
 2880              	.LBB158:
ARM GAS  C:\Users\Alex\AppData\Local\Temp\cc0G22cc.s 			page 94


 2881              	.LBI158:
 248:Lib/lvgl/src/display/../draw/../misc/lv_anim.h **** {
 2882              		.loc 3 248 20 view .LVU780
 2883              	.LBB159:
 250:Lib/lvgl/src/display/../draw/../misc/lv_anim.h ****     a->current_value = INT32_MIN;
 2884              		.loc 3 250 5 view .LVU781
 250:Lib/lvgl/src/display/../draw/../misc/lv_anim.h ****     a->current_value = INT32_MIN;
 2885              		.loc 3 250 20 is_stmt 0 view .LVU782
 2886 0256 1F90     		str	r0, [sp, #124]
 251:Lib/lvgl/src/display/../draw/../misc/lv_anim.h ****     a->end_value = end;
 2887              		.loc 3 251 5 is_stmt 1 view .LVU783
 251:Lib/lvgl/src/display/../draw/../misc/lv_anim.h ****     a->end_value = end;
 2888              		.loc 3 251 22 is_stmt 0 view .LVU784
 2889 0258 4FF00046 		mov	r6, #-2147483648
 2890              	.LVL264:
 251:Lib/lvgl/src/display/../draw/../misc/lv_anim.h ****     a->end_value = end;
 2891              		.loc 3 251 22 view .LVU785
 2892 025c 2096     		str	r6, [sp, #128]
 252:Lib/lvgl/src/display/../draw/../misc/lv_anim.h **** }
 2893              		.loc 3 252 5 is_stmt 1 view .LVU786
 252:Lib/lvgl/src/display/../draw/../misc/lv_anim.h **** }
 2894              		.loc 3 252 18 is_stmt 0 view .LVU787
 2895 025e 0027     		movs	r7, #0
 2896 0260 2197     		str	r7, [sp, #132]
 2897              	.LVL265:
 252:Lib/lvgl/src/display/../draw/../misc/lv_anim.h **** }
 2898              		.loc 3 252 18 view .LVU788
 2899              	.LBE159:
 2900              	.LBE158:
 672:Lib/lvgl/src/display/lv_display.c ****             lv_anim_set_values(&a_old, 0, -lv_display_get_vertical_resolution(d));
 2901              		.loc 1 672 13 is_stmt 1 view .LVU789
 2902              	.LBB160:
 2903              	.LBI160:
 209:Lib/lvgl/src/display/../draw/../misc/lv_anim.h **** {
 2904              		.loc 3 209 20 view .LVU790
 2905              	.LBB161:
 211:Lib/lvgl/src/display/../draw/../misc/lv_anim.h **** }
 2906              		.loc 3 211 5 view .LVU791
 211:Lib/lvgl/src/display/../draw/../misc/lv_anim.h **** }
 2907              		.loc 3 211 16 is_stmt 0 view .LVU792
 2908 0262 CDF80480 		str	r8, [sp, #4]
 2909              	.LVL266:
 211:Lib/lvgl/src/display/../draw/../misc/lv_anim.h **** }
 2910              		.loc 3 211 16 view .LVU793
 2911              	.LBE161:
 2912              	.LBE160:
 673:Lib/lvgl/src/display/lv_display.c ****             break;
 2913              		.loc 1 673 13 is_stmt 1 view .LVU794
 673:Lib/lvgl/src/display/lv_display.c ****             break;
 2914              		.loc 1 673 44 is_stmt 0 view .LVU795
 2915 0266 2846     		mov	r0, r5
 2916 0268 FFF7FEFF 		bl	lv_display_get_vertical_resolution
 2917              	.LVL267:
 673:Lib/lvgl/src/display/lv_display.c ****             break;
 2918              		.loc 1 673 13 view .LVU796
 2919 026c 4042     		rsbs	r0, r0, #0
 2920              	.LVL268:
ARM GAS  C:\Users\Alex\AppData\Local\Temp\cc0G22cc.s 			page 95


 2921              	.LBB162:
 2922              	.LBI162:
 248:Lib/lvgl/src/display/../draw/../misc/lv_anim.h **** {
 2923              		.loc 3 248 20 is_stmt 1 view .LVU797
 2924              	.LBB163:
 250:Lib/lvgl/src/display/../draw/../misc/lv_anim.h ****     a->current_value = INT32_MIN;
 2925              		.loc 3 250 5 view .LVU798
 250:Lib/lvgl/src/display/../draw/../misc/lv_anim.h ****     a->current_value = INT32_MIN;
 2926              		.loc 3 250 20 is_stmt 0 view .LVU799
 2927 026e 0997     		str	r7, [sp, #36]
 251:Lib/lvgl/src/display/../draw/../misc/lv_anim.h ****     a->end_value = end;
 2928              		.loc 3 251 5 is_stmt 1 view .LVU800
 251:Lib/lvgl/src/display/../draw/../misc/lv_anim.h ****     a->end_value = end;
 2929              		.loc 3 251 22 is_stmt 0 view .LVU801
 2930 0270 0A96     		str	r6, [sp, #40]
 252:Lib/lvgl/src/display/../draw/../misc/lv_anim.h **** }
 2931              		.loc 3 252 5 is_stmt 1 view .LVU802
 252:Lib/lvgl/src/display/../draw/../misc/lv_anim.h **** }
 2932              		.loc 3 252 18 is_stmt 0 view .LVU803
 2933 0272 0B90     		str	r0, [sp, #44]
 253:Lib/lvgl/src/display/../draw/../misc/lv_anim.h **** 
 2934              		.loc 3 253 1 view .LVU804
 2935 0274 78E7     		b	.L213
 2936              	.LVL269:
 2937              	.L221:
 253:Lib/lvgl/src/display/../draw/../misc/lv_anim.h **** 
 2938              		.loc 3 253 1 view .LVU805
 2939              	.LBE163:
 2940              	.LBE162:
 676:Lib/lvgl/src/display/lv_display.c ****             lv_anim_set_values(&a_new, -lv_display_get_vertical_resolution(d), 0);
 2941              		.loc 1 676 13 is_stmt 1 view .LVU806
 2942              	.LBB164:
 2943              	.LBI164:
 209:Lib/lvgl/src/display/../draw/../misc/lv_anim.h **** {
 2944              		.loc 3 209 20 view .LVU807
 2945              	.LBB165:
 211:Lib/lvgl/src/display/../draw/../misc/lv_anim.h **** }
 2946              		.loc 3 211 5 view .LVU808
 211:Lib/lvgl/src/display/../draw/../misc/lv_anim.h **** }
 2947              		.loc 3 211 16 is_stmt 0 view .LVU809
 2948 0276 DFF8C480 		ldr	r8, .L238+12
 2949 027a CDF85C80 		str	r8, [sp, #92]
 2950              	.LVL270:
 211:Lib/lvgl/src/display/../draw/../misc/lv_anim.h **** }
 2951              		.loc 3 211 16 view .LVU810
 2952              	.LBE165:
 2953              	.LBE164:
 677:Lib/lvgl/src/display/lv_display.c **** 
 2954              		.loc 1 677 13 is_stmt 1 view .LVU811
 677:Lib/lvgl/src/display/lv_display.c **** 
 2955              		.loc 1 677 41 is_stmt 0 view .LVU812
 2956 027e 2846     		mov	r0, r5
 2957 0280 FFF7FEFF 		bl	lv_display_get_vertical_resolution
 2958              	.LVL271:
 677:Lib/lvgl/src/display/lv_display.c **** 
 2959              		.loc 1 677 13 view .LVU813
 2960 0284 4042     		rsbs	r0, r0, #0
ARM GAS  C:\Users\Alex\AppData\Local\Temp\cc0G22cc.s 			page 96


 2961              	.LVL272:
 2962              	.LBB166:
 2963              	.LBI166:
 248:Lib/lvgl/src/display/../draw/../misc/lv_anim.h **** {
 2964              		.loc 3 248 20 is_stmt 1 view .LVU814
 2965              	.LBB167:
 250:Lib/lvgl/src/display/../draw/../misc/lv_anim.h ****     a->current_value = INT32_MIN;
 2966              		.loc 3 250 5 view .LVU815
 250:Lib/lvgl/src/display/../draw/../misc/lv_anim.h ****     a->current_value = INT32_MIN;
 2967              		.loc 3 250 20 is_stmt 0 view .LVU816
 2968 0286 1F90     		str	r0, [sp, #124]
 251:Lib/lvgl/src/display/../draw/../misc/lv_anim.h ****     a->end_value = end;
 2969              		.loc 3 251 5 is_stmt 1 view .LVU817
 251:Lib/lvgl/src/display/../draw/../misc/lv_anim.h ****     a->end_value = end;
 2970              		.loc 3 251 22 is_stmt 0 view .LVU818
 2971 0288 4FF00046 		mov	r6, #-2147483648
 2972              	.LVL273:
 251:Lib/lvgl/src/display/../draw/../misc/lv_anim.h ****     a->end_value = end;
 2973              		.loc 3 251 22 view .LVU819
 2974 028c 2096     		str	r6, [sp, #128]
 252:Lib/lvgl/src/display/../draw/../misc/lv_anim.h **** }
 2975              		.loc 3 252 5 is_stmt 1 view .LVU820
 252:Lib/lvgl/src/display/../draw/../misc/lv_anim.h **** }
 2976              		.loc 3 252 18 is_stmt 0 view .LVU821
 2977 028e 0027     		movs	r7, #0
 2978 0290 2197     		str	r7, [sp, #132]
 2979              	.LVL274:
 252:Lib/lvgl/src/display/../draw/../misc/lv_anim.h **** }
 2980              		.loc 3 252 18 view .LVU822
 2981              	.LBE167:
 2982              	.LBE166:
 679:Lib/lvgl/src/display/lv_display.c ****             lv_anim_set_values(&a_old, 0, lv_display_get_vertical_resolution(d));
 2983              		.loc 1 679 13 is_stmt 1 view .LVU823
 2984              	.LBB168:
 2985              	.LBI168:
 209:Lib/lvgl/src/display/../draw/../misc/lv_anim.h **** {
 2986              		.loc 3 209 20 view .LVU824
 2987              	.LBB169:
 211:Lib/lvgl/src/display/../draw/../misc/lv_anim.h **** }
 2988              		.loc 3 211 5 view .LVU825
 211:Lib/lvgl/src/display/../draw/../misc/lv_anim.h **** }
 2989              		.loc 3 211 16 is_stmt 0 view .LVU826
 2990 0292 CDF80480 		str	r8, [sp, #4]
 2991              	.LVL275:
 211:Lib/lvgl/src/display/../draw/../misc/lv_anim.h **** }
 2992              		.loc 3 211 16 view .LVU827
 2993              	.LBE169:
 2994              	.LBE168:
 680:Lib/lvgl/src/display/lv_display.c ****             break;
 2995              		.loc 1 680 13 is_stmt 1 view .LVU828
 2996 0296 2846     		mov	r0, r5
 2997 0298 FFF7FEFF 		bl	lv_display_get_vertical_resolution
 2998              	.LVL276:
 2999              	.LBB170:
 3000              	.LBI170:
 248:Lib/lvgl/src/display/../draw/../misc/lv_anim.h **** {
 3001              		.loc 3 248 20 view .LVU829
ARM GAS  C:\Users\Alex\AppData\Local\Temp\cc0G22cc.s 			page 97


 3002              	.LBB171:
 250:Lib/lvgl/src/display/../draw/../misc/lv_anim.h ****     a->current_value = INT32_MIN;
 3003              		.loc 3 250 5 view .LVU830
 250:Lib/lvgl/src/display/../draw/../misc/lv_anim.h ****     a->current_value = INT32_MIN;
 3004              		.loc 3 250 20 is_stmt 0 view .LVU831
 3005 029c 0997     		str	r7, [sp, #36]
 251:Lib/lvgl/src/display/../draw/../misc/lv_anim.h ****     a->end_value = end;
 3006              		.loc 3 251 5 is_stmt 1 view .LVU832
 251:Lib/lvgl/src/display/../draw/../misc/lv_anim.h ****     a->end_value = end;
 3007              		.loc 3 251 22 is_stmt 0 view .LVU833
 3008 029e 0A96     		str	r6, [sp, #40]
 252:Lib/lvgl/src/display/../draw/../misc/lv_anim.h **** }
 3009              		.loc 3 252 5 is_stmt 1 view .LVU834
 252:Lib/lvgl/src/display/../draw/../misc/lv_anim.h **** }
 3010              		.loc 3 252 18 is_stmt 0 view .LVU835
 3011 02a0 0B90     		str	r0, [sp, #44]
 253:Lib/lvgl/src/display/../draw/../misc/lv_anim.h **** 
 3012              		.loc 3 253 1 view .LVU836
 3013 02a2 61E7     		b	.L213
 3014              	.LVL277:
 3015              	.L220:
 253:Lib/lvgl/src/display/../draw/../misc/lv_anim.h **** 
 3016              		.loc 3 253 1 view .LVU837
 3017              	.LBE171:
 3018              	.LBE170:
 683:Lib/lvgl/src/display/lv_display.c ****             lv_anim_set_values(&a_new, LV_OPA_TRANSP, LV_OPA_COVER);
 3019              		.loc 1 683 13 is_stmt 1 view .LVU838
 3020              	.LBB172:
 3021              	.LBI172:
 209:Lib/lvgl/src/display/../draw/../misc/lv_anim.h **** {
 3022              		.loc 3 209 20 view .LVU839
 3023              	.LBB173:
 211:Lib/lvgl/src/display/../draw/../misc/lv_anim.h **** }
 3024              		.loc 3 211 5 view .LVU840
 211:Lib/lvgl/src/display/../draw/../misc/lv_anim.h **** }
 3025              		.loc 3 211 16 is_stmt 0 view .LVU841
 3026 02a4 264B     		ldr	r3, .L238+16
 3027 02a6 1793     		str	r3, [sp, #92]
 3028              	.LVL278:
 211:Lib/lvgl/src/display/../draw/../misc/lv_anim.h **** }
 3029              		.loc 3 211 16 view .LVU842
 3030              	.LBE173:
 3031              	.LBE172:
 684:Lib/lvgl/src/display/lv_display.c ****             break;
 3032              		.loc 1 684 13 is_stmt 1 view .LVU843
 3033              	.LBB174:
 3034              	.LBI174:
 248:Lib/lvgl/src/display/../draw/../misc/lv_anim.h **** {
 3035              		.loc 3 248 20 view .LVU844
 3036              	.LBB175:
 250:Lib/lvgl/src/display/../draw/../misc/lv_anim.h ****     a->current_value = INT32_MIN;
 3037              		.loc 3 250 5 view .LVU845
 250:Lib/lvgl/src/display/../draw/../misc/lv_anim.h ****     a->current_value = INT32_MIN;
 3038              		.loc 3 250 20 is_stmt 0 view .LVU846
 3039 02a8 0023     		movs	r3, #0
 3040 02aa 1F93     		str	r3, [sp, #124]
 251:Lib/lvgl/src/display/../draw/../misc/lv_anim.h ****     a->end_value = end;
ARM GAS  C:\Users\Alex\AppData\Local\Temp\cc0G22cc.s 			page 98


 3041              		.loc 3 251 5 is_stmt 1 view .LVU847
 251:Lib/lvgl/src/display/../draw/../misc/lv_anim.h ****     a->end_value = end;
 3042              		.loc 3 251 22 is_stmt 0 view .LVU848
 3043 02ac 4FF00043 		mov	r3, #-2147483648
 3044 02b0 2093     		str	r3, [sp, #128]
 252:Lib/lvgl/src/display/../draw/../misc/lv_anim.h **** }
 3045              		.loc 3 252 5 is_stmt 1 view .LVU849
 252:Lib/lvgl/src/display/../draw/../misc/lv_anim.h **** }
 3046              		.loc 3 252 18 is_stmt 0 view .LVU850
 3047 02b2 FF23     		movs	r3, #255
 3048 02b4 2193     		str	r3, [sp, #132]
 253:Lib/lvgl/src/display/../draw/../misc/lv_anim.h **** 
 3049              		.loc 3 253 1 view .LVU851
 3050 02b6 57E7     		b	.L213
 3051              	.LVL279:
 3052              	.L219:
 253:Lib/lvgl/src/display/../draw/../misc/lv_anim.h **** 
 3053              		.loc 3 253 1 view .LVU852
 3054              	.LBE175:
 3055              	.LBE174:
 687:Lib/lvgl/src/display/lv_display.c ****             lv_anim_set_values(&a_old, LV_OPA_COVER, LV_OPA_TRANSP);
 3056              		.loc 1 687 13 is_stmt 1 view .LVU853
 3057              	.LBB176:
 3058              	.LBI176:
 209:Lib/lvgl/src/display/../draw/../misc/lv_anim.h **** {
 3059              		.loc 3 209 20 view .LVU854
 3060              	.LBB177:
 211:Lib/lvgl/src/display/../draw/../misc/lv_anim.h **** }
 3061              		.loc 3 211 5 view .LVU855
 211:Lib/lvgl/src/display/../draw/../misc/lv_anim.h **** }
 3062              		.loc 3 211 16 is_stmt 0 view .LVU856
 3063 02b8 214B     		ldr	r3, .L238+16
 3064 02ba 0193     		str	r3, [sp, #4]
 3065              	.LVL280:
 211:Lib/lvgl/src/display/../draw/../misc/lv_anim.h **** }
 3066              		.loc 3 211 16 view .LVU857
 3067              	.LBE177:
 3068              	.LBE176:
 688:Lib/lvgl/src/display/lv_display.c ****             break;
 3069              		.loc 1 688 13 is_stmt 1 view .LVU858
 3070              	.LBB178:
 3071              	.LBI178:
 248:Lib/lvgl/src/display/../draw/../misc/lv_anim.h **** {
 3072              		.loc 3 248 20 view .LVU859
 3073              	.LBB179:
 250:Lib/lvgl/src/display/../draw/../misc/lv_anim.h ****     a->current_value = INT32_MIN;
 3074              		.loc 3 250 5 view .LVU860
 250:Lib/lvgl/src/display/../draw/../misc/lv_anim.h ****     a->current_value = INT32_MIN;
 3075              		.loc 3 250 20 is_stmt 0 view .LVU861
 3076 02bc FF23     		movs	r3, #255
 3077 02be 0993     		str	r3, [sp, #36]
 251:Lib/lvgl/src/display/../draw/../misc/lv_anim.h ****     a->end_value = end;
 3078              		.loc 3 251 5 is_stmt 1 view .LVU862
 251:Lib/lvgl/src/display/../draw/../misc/lv_anim.h ****     a->end_value = end;
 3079              		.loc 3 251 22 is_stmt 0 view .LVU863
 3080 02c0 4FF00043 		mov	r3, #-2147483648
 3081 02c4 0A93     		str	r3, [sp, #40]
ARM GAS  C:\Users\Alex\AppData\Local\Temp\cc0G22cc.s 			page 99


 252:Lib/lvgl/src/display/../draw/../misc/lv_anim.h **** }
 3082              		.loc 3 252 5 is_stmt 1 view .LVU864
 252:Lib/lvgl/src/display/../draw/../misc/lv_anim.h **** }
 3083              		.loc 3 252 18 is_stmt 0 view .LVU865
 3084 02c6 0023     		movs	r3, #0
 3085 02c8 0B93     		str	r3, [sp, #44]
 253:Lib/lvgl/src/display/../draw/../misc/lv_anim.h **** 
 3086              		.loc 3 253 1 view .LVU866
 3087 02ca 4DE7     		b	.L213
 3088              	.LVL281:
 3089              	.L218:
 253:Lib/lvgl/src/display/../draw/../misc/lv_anim.h **** 
 3090              		.loc 3 253 1 view .LVU867
 3091              	.LBE179:
 3092              	.LBE178:
 691:Lib/lvgl/src/display/lv_display.c ****             lv_anim_set_values(&a_old, 0, -lv_display_get_horizontal_resolution(d));
 3093              		.loc 1 691 13 is_stmt 1 view .LVU868
 3094              	.LBB180:
 3095              	.LBI180:
 209:Lib/lvgl/src/display/../draw/../misc/lv_anim.h **** {
 3096              		.loc 3 209 20 view .LVU869
 3097              	.LBB181:
 211:Lib/lvgl/src/display/../draw/../misc/lv_anim.h **** }
 3098              		.loc 3 211 5 view .LVU870
 211:Lib/lvgl/src/display/../draw/../misc/lv_anim.h **** }
 3099              		.loc 3 211 16 is_stmt 0 view .LVU871
 3100 02cc 1A4B     		ldr	r3, .L238+8
 3101 02ce 0193     		str	r3, [sp, #4]
 3102              	.LVL282:
 211:Lib/lvgl/src/display/../draw/../misc/lv_anim.h **** }
 3103              		.loc 3 211 16 view .LVU872
 3104              	.LBE181:
 3105              	.LBE180:
 692:Lib/lvgl/src/display/lv_display.c ****             break;
 3106              		.loc 1 692 13 is_stmt 1 view .LVU873
 692:Lib/lvgl/src/display/lv_display.c ****             break;
 3107              		.loc 1 692 44 is_stmt 0 view .LVU874
 3108 02d0 2846     		mov	r0, r5
 3109 02d2 FFF7FEFF 		bl	lv_display_get_horizontal_resolution
 3110              	.LVL283:
 692:Lib/lvgl/src/display/lv_display.c ****             break;
 3111              		.loc 1 692 13 view .LVU875
 3112 02d6 4042     		rsbs	r0, r0, #0
 3113              	.LVL284:
 3114              	.LBB182:
 3115              	.LBI182:
 248:Lib/lvgl/src/display/../draw/../misc/lv_anim.h **** {
 3116              		.loc 3 248 20 is_stmt 1 view .LVU876
 3117              	.LBB183:
 250:Lib/lvgl/src/display/../draw/../misc/lv_anim.h ****     a->current_value = INT32_MIN;
 3118              		.loc 3 250 5 view .LVU877
 250:Lib/lvgl/src/display/../draw/../misc/lv_anim.h ****     a->current_value = INT32_MIN;
 3119              		.loc 3 250 20 is_stmt 0 view .LVU878
 3120 02d8 0023     		movs	r3, #0
 3121 02da 0993     		str	r3, [sp, #36]
 251:Lib/lvgl/src/display/../draw/../misc/lv_anim.h ****     a->end_value = end;
 3122              		.loc 3 251 5 is_stmt 1 view .LVU879
ARM GAS  C:\Users\Alex\AppData\Local\Temp\cc0G22cc.s 			page 100


 251:Lib/lvgl/src/display/../draw/../misc/lv_anim.h ****     a->end_value = end;
 3123              		.loc 3 251 22 is_stmt 0 view .LVU880
 3124 02dc 4FF00043 		mov	r3, #-2147483648
 3125 02e0 0A93     		str	r3, [sp, #40]
 252:Lib/lvgl/src/display/../draw/../misc/lv_anim.h **** }
 3126              		.loc 3 252 5 is_stmt 1 view .LVU881
 252:Lib/lvgl/src/display/../draw/../misc/lv_anim.h **** }
 3127              		.loc 3 252 18 is_stmt 0 view .LVU882
 3128 02e2 0B90     		str	r0, [sp, #44]
 253:Lib/lvgl/src/display/../draw/../misc/lv_anim.h **** 
 3129              		.loc 3 253 1 view .LVU883
 3130 02e4 40E7     		b	.L213
 3131              	.LVL285:
 3132              	.L217:
 253:Lib/lvgl/src/display/../draw/../misc/lv_anim.h **** 
 3133              		.loc 3 253 1 view .LVU884
 3134              	.LBE183:
 3135              	.LBE182:
 695:Lib/lvgl/src/display/lv_display.c ****             lv_anim_set_values(&a_old, 0, lv_display_get_horizontal_resolution(d));
 3136              		.loc 1 695 13 is_stmt 1 view .LVU885
 3137              	.LBB184:
 3138              	.LBI184:
 209:Lib/lvgl/src/display/../draw/../misc/lv_anim.h **** {
 3139              		.loc 3 209 20 view .LVU886
 3140              	.LBB185:
 211:Lib/lvgl/src/display/../draw/../misc/lv_anim.h **** }
 3141              		.loc 3 211 5 view .LVU887
 211:Lib/lvgl/src/display/../draw/../misc/lv_anim.h **** }
 3142              		.loc 3 211 16 is_stmt 0 view .LVU888
 3143 02e6 144B     		ldr	r3, .L238+8
 3144 02e8 0193     		str	r3, [sp, #4]
 3145              	.LVL286:
 211:Lib/lvgl/src/display/../draw/../misc/lv_anim.h **** }
 3146              		.loc 3 211 16 view .LVU889
 3147              	.LBE185:
 3148              	.LBE184:
 696:Lib/lvgl/src/display/lv_display.c ****             break;
 3149              		.loc 1 696 13 is_stmt 1 view .LVU890
 3150 02ea 2846     		mov	r0, r5
 3151 02ec FFF7FEFF 		bl	lv_display_get_horizontal_resolution
 3152              	.LVL287:
 3153              	.LBB186:
 3154              	.LBI186:
 248:Lib/lvgl/src/display/../draw/../misc/lv_anim.h **** {
 3155              		.loc 3 248 20 view .LVU891
 3156              	.LBB187:
 250:Lib/lvgl/src/display/../draw/../misc/lv_anim.h ****     a->current_value = INT32_MIN;
 3157              		.loc 3 250 5 view .LVU892
 250:Lib/lvgl/src/display/../draw/../misc/lv_anim.h ****     a->current_value = INT32_MIN;
 3158              		.loc 3 250 20 is_stmt 0 view .LVU893
 3159 02f0 0023     		movs	r3, #0
 3160 02f2 0993     		str	r3, [sp, #36]
 251:Lib/lvgl/src/display/../draw/../misc/lv_anim.h ****     a->end_value = end;
 3161              		.loc 3 251 5 is_stmt 1 view .LVU894
 251:Lib/lvgl/src/display/../draw/../misc/lv_anim.h ****     a->end_value = end;
 3162              		.loc 3 251 22 is_stmt 0 view .LVU895
 3163 02f4 4FF00043 		mov	r3, #-2147483648
ARM GAS  C:\Users\Alex\AppData\Local\Temp\cc0G22cc.s 			page 101


 3164 02f8 0A93     		str	r3, [sp, #40]
 252:Lib/lvgl/src/display/../draw/../misc/lv_anim.h **** }
 3165              		.loc 3 252 5 is_stmt 1 view .LVU896
 252:Lib/lvgl/src/display/../draw/../misc/lv_anim.h **** }
 3166              		.loc 3 252 18 is_stmt 0 view .LVU897
 3167 02fa 0B90     		str	r0, [sp, #44]
 253:Lib/lvgl/src/display/../draw/../misc/lv_anim.h **** 
 3168              		.loc 3 253 1 view .LVU898
 3169 02fc 34E7     		b	.L213
 3170              	.LVL288:
 3171              	.L216:
 253:Lib/lvgl/src/display/../draw/../misc/lv_anim.h **** 
 3172              		.loc 3 253 1 view .LVU899
 3173              	.LBE187:
 3174              	.LBE186:
 699:Lib/lvgl/src/display/lv_display.c ****             lv_anim_set_values(&a_old, 0, -lv_display_get_vertical_resolution(d));
 3175              		.loc 1 699 13 is_stmt 1 view .LVU900
 3176              	.LBB188:
 3177              	.LBI188:
 209:Lib/lvgl/src/display/../draw/../misc/lv_anim.h **** {
 3178              		.loc 3 209 20 view .LVU901
 3179              	.LBB189:
 211:Lib/lvgl/src/display/../draw/../misc/lv_anim.h **** }
 3180              		.loc 3 211 5 view .LVU902
 211:Lib/lvgl/src/display/../draw/../misc/lv_anim.h **** }
 3181              		.loc 3 211 16 is_stmt 0 view .LVU903
 3182 02fe 0F4B     		ldr	r3, .L238+12
 3183 0300 0193     		str	r3, [sp, #4]
 3184              	.LVL289:
 211:Lib/lvgl/src/display/../draw/../misc/lv_anim.h **** }
 3185              		.loc 3 211 16 view .LVU904
 3186              	.LBE189:
 3187              	.LBE188:
 700:Lib/lvgl/src/display/lv_display.c ****             break;
 3188              		.loc 1 700 13 is_stmt 1 view .LVU905
 700:Lib/lvgl/src/display/lv_display.c ****             break;
 3189              		.loc 1 700 44 is_stmt 0 view .LVU906
 3190 0302 2846     		mov	r0, r5
 3191 0304 FFF7FEFF 		bl	lv_display_get_vertical_resolution
 3192              	.LVL290:
 700:Lib/lvgl/src/display/lv_display.c ****             break;
 3193              		.loc 1 700 13 view .LVU907
 3194 0308 4042     		rsbs	r0, r0, #0
 3195              	.LVL291:
 3196              	.LBB190:
 3197              	.LBI190:
 248:Lib/lvgl/src/display/../draw/../misc/lv_anim.h **** {
 3198              		.loc 3 248 20 is_stmt 1 view .LVU908
 3199              	.LBB191:
 250:Lib/lvgl/src/display/../draw/../misc/lv_anim.h ****     a->current_value = INT32_MIN;
 3200              		.loc 3 250 5 view .LVU909
 250:Lib/lvgl/src/display/../draw/../misc/lv_anim.h ****     a->current_value = INT32_MIN;
 3201              		.loc 3 250 20 is_stmt 0 view .LVU910
 3202 030a 0023     		movs	r3, #0
 3203 030c 0993     		str	r3, [sp, #36]
 251:Lib/lvgl/src/display/../draw/../misc/lv_anim.h ****     a->end_value = end;
 3204              		.loc 3 251 5 is_stmt 1 view .LVU911
ARM GAS  C:\Users\Alex\AppData\Local\Temp\cc0G22cc.s 			page 102


 251:Lib/lvgl/src/display/../draw/../misc/lv_anim.h ****     a->end_value = end;
 3205              		.loc 3 251 22 is_stmt 0 view .LVU912
 3206 030e 4FF00043 		mov	r3, #-2147483648
 3207 0312 0A93     		str	r3, [sp, #40]
 252:Lib/lvgl/src/display/../draw/../misc/lv_anim.h **** }
 3208              		.loc 3 252 5 is_stmt 1 view .LVU913
 252:Lib/lvgl/src/display/../draw/../misc/lv_anim.h **** }
 3209              		.loc 3 252 18 is_stmt 0 view .LVU914
 3210 0314 0B90     		str	r0, [sp, #44]
 253:Lib/lvgl/src/display/../draw/../misc/lv_anim.h **** 
 3211              		.loc 3 253 1 view .LVU915
 3212 0316 27E7     		b	.L213
 3213              	.LVL292:
 3214              	.L214:
 253:Lib/lvgl/src/display/../draw/../misc/lv_anim.h **** 
 3215              		.loc 3 253 1 view .LVU916
 3216              	.LBE191:
 3217              	.LBE190:
 703:Lib/lvgl/src/display/lv_display.c ****             lv_anim_set_values(&a_old, 0, lv_display_get_vertical_resolution(d));
 3218              		.loc 1 703 13 is_stmt 1 view .LVU917
 3219              	.LBB192:
 3220              	.LBI192:
 209:Lib/lvgl/src/display/../draw/../misc/lv_anim.h **** {
 3221              		.loc 3 209 20 view .LVU918
 3222              	.LBB193:
 211:Lib/lvgl/src/display/../draw/../misc/lv_anim.h **** }
 3223              		.loc 3 211 5 view .LVU919
 211:Lib/lvgl/src/display/../draw/../misc/lv_anim.h **** }
 3224              		.loc 3 211 16 is_stmt 0 view .LVU920
 3225 0318 084B     		ldr	r3, .L238+12
 3226 031a 0193     		str	r3, [sp, #4]
 3227              	.LVL293:
 211:Lib/lvgl/src/display/../draw/../misc/lv_anim.h **** }
 3228              		.loc 3 211 16 view .LVU921
 3229              	.LBE193:
 3230              	.LBE192:
 704:Lib/lvgl/src/display/lv_display.c ****             break;
 3231              		.loc 1 704 13 is_stmt 1 view .LVU922
 3232 031c 2846     		mov	r0, r5
 3233 031e FFF7FEFF 		bl	lv_display_get_vertical_resolution
 3234              	.LVL294:
 3235              	.LBB194:
 3236              	.LBI194:
 248:Lib/lvgl/src/display/../draw/../misc/lv_anim.h **** {
 3237              		.loc 3 248 20 view .LVU923
 3238              	.LBB195:
 250:Lib/lvgl/src/display/../draw/../misc/lv_anim.h ****     a->current_value = INT32_MIN;
 3239              		.loc 3 250 5 view .LVU924
 250:Lib/lvgl/src/display/../draw/../misc/lv_anim.h ****     a->current_value = INT32_MIN;
 3240              		.loc 3 250 20 is_stmt 0 view .LVU925
 3241 0322 0023     		movs	r3, #0
 3242 0324 0993     		str	r3, [sp, #36]
 251:Lib/lvgl/src/display/../draw/../misc/lv_anim.h ****     a->end_value = end;
 3243              		.loc 3 251 5 is_stmt 1 view .LVU926
 251:Lib/lvgl/src/display/../draw/../misc/lv_anim.h ****     a->end_value = end;
 3244              		.loc 3 251 22 is_stmt 0 view .LVU927
 3245 0326 4FF00043 		mov	r3, #-2147483648
ARM GAS  C:\Users\Alex\AppData\Local\Temp\cc0G22cc.s 			page 103


 3246 032a 0A93     		str	r3, [sp, #40]
 252:Lib/lvgl/src/display/../draw/../misc/lv_anim.h **** }
 3247              		.loc 3 252 5 is_stmt 1 view .LVU928
 252:Lib/lvgl/src/display/../draw/../misc/lv_anim.h **** }
 3248              		.loc 3 252 18 is_stmt 0 view .LVU929
 3249 032c 0B90     		str	r0, [sp, #44]
 253:Lib/lvgl/src/display/../draw/../misc/lv_anim.h **** 
 3250              		.loc 3 253 1 view .LVU930
 3251 032e 1BE7     		b	.L213
 3252              	.L239:
 3253              		.align	2
 3254              	.L238:
 3255 0330 00000000 		.word	scr_load_anim_start
 3256 0334 00000000 		.word	scr_anim_completed
 3257 0338 00000000 		.word	set_x_anim
 3258 033c 00000000 		.word	set_y_anim
 3259 0340 00000000 		.word	opa_scale_anim
 3260              	.LBE195:
 3261              	.LBE194:
 3262              		.cfi_endproc
 3263              	.LFE268:
 3265              		.section	.text.lv_screen_load,"ax",%progbits
 3266              		.align	1
 3267              		.global	lv_screen_load
 3268              		.syntax unified
 3269              		.thumb
 3270              		.thumb_func
 3272              	lv_screen_load:
 3273              	.LVL295:
 3274              	.LFB267:
 562:Lib/lvgl/src/display/lv_display.c ****     lv_screen_load_anim(scr, LV_SCR_LOAD_ANIM_NONE, 0, 0, false);
 3275              		.loc 1 562 1 is_stmt 1 view -0
 3276              		.cfi_startproc
 3277              		@ args = 0, pretend = 0, frame = 0
 3278              		@ frame_needed = 0, uses_anonymous_args = 0
 562:Lib/lvgl/src/display/lv_display.c ****     lv_screen_load_anim(scr, LV_SCR_LOAD_ANIM_NONE, 0, 0, false);
 3279              		.loc 1 562 1 is_stmt 0 view .LVU932
 3280 0000 00B5     		push	{lr}
 3281              	.LCFI41:
 3282              		.cfi_def_cfa_offset 4
 3283              		.cfi_offset 14, -4
 3284 0002 83B0     		sub	sp, sp, #12
 3285              	.LCFI42:
 3286              		.cfi_def_cfa_offset 16
 563:Lib/lvgl/src/display/lv_display.c **** }
 3287              		.loc 1 563 5 is_stmt 1 view .LVU933
 3288 0004 0021     		movs	r1, #0
 3289 0006 0091     		str	r1, [sp]
 3290 0008 0B46     		mov	r3, r1
 3291 000a 0A46     		mov	r2, r1
 3292 000c FFF7FEFF 		bl	lv_screen_load_anim
 3293              	.LVL296:
 564:Lib/lvgl/src/display/lv_display.c **** 
 3294              		.loc 1 564 1 is_stmt 0 view .LVU934
 3295 0010 03B0     		add	sp, sp, #12
 3296              	.LCFI43:
 3297              		.cfi_def_cfa_offset 4
ARM GAS  C:\Users\Alex\AppData\Local\Temp\cc0G22cc.s 			page 104


 3298              		@ sp needed
 3299 0012 5DF804FB 		ldr	pc, [sp], #4
 3300              		.cfi_endproc
 3301              	.LFE267:
 3303              		.section	.text.lv_display_add_event_cb,"ax",%progbits
 3304              		.align	1
 3305              		.global	lv_display_add_event_cb
 3306              		.syntax unified
 3307              		.thumb
 3308              		.thumb_func
 3310              	lv_display_add_event_cb:
 3311              	.LVL297:
 3312              	.LFB269:
 719:Lib/lvgl/src/display/lv_display.c ****     LV_ASSERT_NULL(disp);
 3313              		.loc 1 719 1 is_stmt 1 view -0
 3314              		.cfi_startproc
 3315              		@ args = 0, pretend = 0, frame = 0
 3316              		@ frame_needed = 0, uses_anonymous_args = 0
 720:Lib/lvgl/src/display/lv_display.c **** 
 3317              		.loc 1 720 5 view .LVU936
 720:Lib/lvgl/src/display/lv_display.c **** 
 3318              		.loc 1 720 5 view .LVU937
 3319 0000 28B1     		cbz	r0, .L244
 719:Lib/lvgl/src/display/lv_display.c ****     LV_ASSERT_NULL(disp);
 3320              		.loc 1 719 1 is_stmt 0 discriminator 2 view .LVU938
 3321 0002 08B5     		push	{r3, lr}
 3322              	.LCFI44:
 3323              		.cfi_def_cfa_offset 8
 3324              		.cfi_offset 3, -8
 3325              		.cfi_offset 14, -4
 720:Lib/lvgl/src/display/lv_display.c **** 
 3326              		.loc 1 720 5 is_stmt 1 discriminator 2 view .LVU939
 720:Lib/lvgl/src/display/lv_display.c **** 
 3327              		.loc 1 720 25 discriminator 2 view .LVU940
 722:Lib/lvgl/src/display/lv_display.c **** }
 3328              		.loc 1 722 5 discriminator 2 view .LVU941
 3329 0004 00F53670 		add	r0, r0, #728
 3330              	.LVL298:
 722:Lib/lvgl/src/display/lv_display.c **** }
 3331              		.loc 1 722 5 is_stmt 0 discriminator 2 view .LVU942
 3332 0008 FFF7FEFF 		bl	lv_event_add
 3333              	.LVL299:
 723:Lib/lvgl/src/display/lv_display.c **** 
 3334              		.loc 1 723 1 discriminator 2 view .LVU943
 3335 000c 08BD     		pop	{r3, pc}
 3336              	.LVL300:
 3337              	.L244:
 3338              	.LCFI45:
 3339              		.cfi_def_cfa_offset 0
 3340              		.cfi_restore 3
 3341              		.cfi_restore 14
 720:Lib/lvgl/src/display/lv_display.c **** 
 3342              		.loc 1 720 5 is_stmt 1 discriminator 1 view .LVU944
 720:Lib/lvgl/src/display/lv_display.c **** 
 3343              		.loc 1 720 5 discriminator 1 view .LVU945
 720:Lib/lvgl/src/display/lv_display.c **** 
 3344              		.loc 1 720 5 discriminator 1 view .LVU946
ARM GAS  C:\Users\Alex\AppData\Local\Temp\cc0G22cc.s 			page 105


 720:Lib/lvgl/src/display/lv_display.c **** 
 3345              		.loc 1 720 5 discriminator 1 view .LVU947
 720:Lib/lvgl/src/display/lv_display.c **** 
 3346              		.loc 1 720 5 discriminator 1 view .LVU948
 3347 000e FEE7     		b	.L244
 3348              		.cfi_endproc
 3349              	.LFE269:
 3351              		.section	.text.lv_display_create,"ax",%progbits
 3352              		.align	1
 3353              		.global	lv_display_create
 3354              		.syntax unified
 3355              		.thumb
 3356              		.thumb_func
 3358              	lv_display_create:
 3359              	.LVL301:
 3360              	.LFB234:
  58:Lib/lvgl/src/display/lv_display.c ****     lv_display_t * disp = _lv_ll_ins_head(disp_ll_p);
 3361              		.loc 1 58 1 view -0
 3362              		.cfi_startproc
 3363              		@ args = 0, pretend = 0, frame = 8
 3364              		@ frame_needed = 0, uses_anonymous_args = 0
  58:Lib/lvgl/src/display/lv_display.c ****     lv_display_t * disp = _lv_ll_ins_head(disp_ll_p);
 3365              		.loc 1 58 1 is_stmt 0 view .LVU950
 3366 0000 70B5     		push	{r4, r5, r6, lr}
 3367              	.LCFI46:
 3368              		.cfi_def_cfa_offset 16
 3369              		.cfi_offset 4, -16
 3370              		.cfi_offset 5, -12
 3371              		.cfi_offset 6, -8
 3372              		.cfi_offset 14, -4
 3373 0002 84B0     		sub	sp, sp, #16
 3374              	.LCFI47:
 3375              		.cfi_def_cfa_offset 32
 3376 0004 0646     		mov	r6, r0
 3377 0006 0D46     		mov	r5, r1
  59:Lib/lvgl/src/display/lv_display.c ****     LV_ASSERT_MALLOC(disp);
 3378              		.loc 1 59 5 is_stmt 1 view .LVU951
  59:Lib/lvgl/src/display/lv_display.c ****     LV_ASSERT_MALLOC(disp);
 3379              		.loc 1 59 27 is_stmt 0 view .LVU952
 3380 0008 6A48     		ldr	r0, .L260
 3381              	.LVL302:
  59:Lib/lvgl/src/display/lv_display.c ****     LV_ASSERT_MALLOC(disp);
 3382              		.loc 1 59 27 view .LVU953
 3383 000a FFF7FEFF 		bl	_lv_ll_ins_head
 3384              	.LVL303:
  60:Lib/lvgl/src/display/lv_display.c ****     if(!disp) return NULL;
 3385              		.loc 1 60 5 is_stmt 1 view .LVU954
  60:Lib/lvgl/src/display/lv_display.c ****     if(!disp) return NULL;
 3386              		.loc 1 60 5 view .LVU955
 3387 000e 0028     		cmp	r0, #0
 3388 0010 00F0C580 		beq	.L249
 3389 0014 0446     		mov	r4, r0
  60:Lib/lvgl/src/display/lv_display.c ****     if(!disp) return NULL;
 3390              		.loc 1 60 5 view .LVU956
  60:Lib/lvgl/src/display/lv_display.c ****     if(!disp) return NULL;
 3391              		.loc 1 60 27 view .LVU957
  61:Lib/lvgl/src/display/lv_display.c **** 
ARM GAS  C:\Users\Alex\AppData\Local\Temp\cc0G22cc.s 			page 106


 3392              		.loc 1 61 5 view .LVU958
  63:Lib/lvgl/src/display/lv_display.c **** 
 3393              		.loc 1 63 5 view .LVU959
 3394              	.LVL304:
 3395              	.LBB196:
 3396              	.LBI196:
 3397              		.file 4 "c:\\users\\alex\\eclipse-workspace\\lvgs_test\\lib\\lvgl\\src\\stdlib\\lv_string.h"
   1:c:\users\alex\eclipse-workspace\lvgs_test\lib\lvgl\src\stdlib\lv_string.h **** /**
   2:c:\users\alex\eclipse-workspace\lvgs_test\lib\lvgl\src\stdlib\lv_string.h ****  * @file lv_stringn.h
   3:c:\users\alex\eclipse-workspace\lvgs_test\lib\lvgl\src\stdlib\lv_string.h ****  *
   4:c:\users\alex\eclipse-workspace\lvgs_test\lib\lvgl\src\stdlib\lv_string.h ****  */
   5:c:\users\alex\eclipse-workspace\lvgs_test\lib\lvgl\src\stdlib\lv_string.h **** 
   6:c:\users\alex\eclipse-workspace\lvgs_test\lib\lvgl\src\stdlib\lv_string.h **** #ifndef LV_STRING_H
   7:c:\users\alex\eclipse-workspace\lvgs_test\lib\lvgl\src\stdlib\lv_string.h **** #define LV_STRING_H
   8:c:\users\alex\eclipse-workspace\lvgs_test\lib\lvgl\src\stdlib\lv_string.h **** 
   9:c:\users\alex\eclipse-workspace\lvgs_test\lib\lvgl\src\stdlib\lv_string.h **** #ifdef __cplusplus
  10:c:\users\alex\eclipse-workspace\lvgs_test\lib\lvgl\src\stdlib\lv_string.h **** extern "C" {
  11:c:\users\alex\eclipse-workspace\lvgs_test\lib\lvgl\src\stdlib\lv_string.h **** #endif
  12:c:\users\alex\eclipse-workspace\lvgs_test\lib\lvgl\src\stdlib\lv_string.h **** 
  13:c:\users\alex\eclipse-workspace\lvgs_test\lib\lvgl\src\stdlib\lv_string.h **** /*********************
  14:c:\users\alex\eclipse-workspace\lvgs_test\lib\lvgl\src\stdlib\lv_string.h ****  *      INCLUDES
  15:c:\users\alex\eclipse-workspace\lvgs_test\lib\lvgl\src\stdlib\lv_string.h ****  *********************/
  16:c:\users\alex\eclipse-workspace\lvgs_test\lib\lvgl\src\stdlib\lv_string.h **** #include "../lv_conf_internal.h"
  17:c:\users\alex\eclipse-workspace\lvgs_test\lib\lvgl\src\stdlib\lv_string.h **** #include <stdint.h>
  18:c:\users\alex\eclipse-workspace\lvgs_test\lib\lvgl\src\stdlib\lv_string.h **** #include <stddef.h>
  19:c:\users\alex\eclipse-workspace\lvgs_test\lib\lvgl\src\stdlib\lv_string.h **** 
  20:c:\users\alex\eclipse-workspace\lvgs_test\lib\lvgl\src\stdlib\lv_string.h **** /*********************
  21:c:\users\alex\eclipse-workspace\lvgs_test\lib\lvgl\src\stdlib\lv_string.h ****  *      DEFINES
  22:c:\users\alex\eclipse-workspace\lvgs_test\lib\lvgl\src\stdlib\lv_string.h ****  *********************/
  23:c:\users\alex\eclipse-workspace\lvgs_test\lib\lvgl\src\stdlib\lv_string.h **** 
  24:c:\users\alex\eclipse-workspace\lvgs_test\lib\lvgl\src\stdlib\lv_string.h **** /**********************
  25:c:\users\alex\eclipse-workspace\lvgs_test\lib\lvgl\src\stdlib\lv_string.h ****  *      TYPEDEFS
  26:c:\users\alex\eclipse-workspace\lvgs_test\lib\lvgl\src\stdlib\lv_string.h ****  **********************/
  27:c:\users\alex\eclipse-workspace\lvgs_test\lib\lvgl\src\stdlib\lv_string.h **** 
  28:c:\users\alex\eclipse-workspace\lvgs_test\lib\lvgl\src\stdlib\lv_string.h **** /**********************
  29:c:\users\alex\eclipse-workspace\lvgs_test\lib\lvgl\src\stdlib\lv_string.h ****  * GLOBAL PROTOTYPES
  30:c:\users\alex\eclipse-workspace\lvgs_test\lib\lvgl\src\stdlib\lv_string.h ****  **********************/
  31:c:\users\alex\eclipse-workspace\lvgs_test\lib\lvgl\src\stdlib\lv_string.h **** 
  32:c:\users\alex\eclipse-workspace\lvgs_test\lib\lvgl\src\stdlib\lv_string.h **** /**
  33:c:\users\alex\eclipse-workspace\lvgs_test\lib\lvgl\src\stdlib\lv_string.h ****  * @brief Copies a block of memory from a source address to a destination address.
  34:c:\users\alex\eclipse-workspace\lvgs_test\lib\lvgl\src\stdlib\lv_string.h ****  * @param dst Pointer to the destination array where the content is to be copied.
  35:c:\users\alex\eclipse-workspace\lvgs_test\lib\lvgl\src\stdlib\lv_string.h ****  * @param src Pointer to the source of data to be copied.
  36:c:\users\alex\eclipse-workspace\lvgs_test\lib\lvgl\src\stdlib\lv_string.h ****  * @param len Number of bytes to copy.
  37:c:\users\alex\eclipse-workspace\lvgs_test\lib\lvgl\src\stdlib\lv_string.h ****  * @return Pointer to the destination array.
  38:c:\users\alex\eclipse-workspace\lvgs_test\lib\lvgl\src\stdlib\lv_string.h ****  * @note The function does not check for any overlapping of the source and destination memory block
  39:c:\users\alex\eclipse-workspace\lvgs_test\lib\lvgl\src\stdlib\lv_string.h ****  */
  40:c:\users\alex\eclipse-workspace\lvgs_test\lib\lvgl\src\stdlib\lv_string.h **** void * lv_memcpy(void * dst, const void * src, size_t len);
  41:c:\users\alex\eclipse-workspace\lvgs_test\lib\lvgl\src\stdlib\lv_string.h **** 
  42:c:\users\alex\eclipse-workspace\lvgs_test\lib\lvgl\src\stdlib\lv_string.h **** /**
  43:c:\users\alex\eclipse-workspace\lvgs_test\lib\lvgl\src\stdlib\lv_string.h ****  * @brief Fills a block of memory with a specified value.
  44:c:\users\alex\eclipse-workspace\lvgs_test\lib\lvgl\src\stdlib\lv_string.h ****  * @param dst Pointer to the destination array to fill with the specified value.
  45:c:\users\alex\eclipse-workspace\lvgs_test\lib\lvgl\src\stdlib\lv_string.h ****  * @param v Value to be set. The value is passed as an int, but the function fills
  46:c:\users\alex\eclipse-workspace\lvgs_test\lib\lvgl\src\stdlib\lv_string.h ****  *          the block of memory using the unsigned char conversion of this value.
  47:c:\users\alex\eclipse-workspace\lvgs_test\lib\lvgl\src\stdlib\lv_string.h ****  * @param len Number of bytes to be set to the value.
  48:c:\users\alex\eclipse-workspace\lvgs_test\lib\lvgl\src\stdlib\lv_string.h ****  */
  49:c:\users\alex\eclipse-workspace\lvgs_test\lib\lvgl\src\stdlib\lv_string.h **** void lv_memset(void * dst, uint8_t v, size_t len);
  50:c:\users\alex\eclipse-workspace\lvgs_test\lib\lvgl\src\stdlib\lv_string.h **** 
ARM GAS  C:\Users\Alex\AppData\Local\Temp\cc0G22cc.s 			page 107


  51:c:\users\alex\eclipse-workspace\lvgs_test\lib\lvgl\src\stdlib\lv_string.h **** /**
  52:c:\users\alex\eclipse-workspace\lvgs_test\lib\lvgl\src\stdlib\lv_string.h ****  * @brief Move a block of memory from source to destination
  53:c:\users\alex\eclipse-workspace\lvgs_test\lib\lvgl\src\stdlib\lv_string.h ****  * @param dst Pointer to the destination array where the content is to be copied.
  54:c:\users\alex\eclipse-workspace\lvgs_test\lib\lvgl\src\stdlib\lv_string.h ****  * @param src Pointer to the source of data to be copied.
  55:c:\users\alex\eclipse-workspace\lvgs_test\lib\lvgl\src\stdlib\lv_string.h ****  * @param len Number of bytes to copy
  56:c:\users\alex\eclipse-workspace\lvgs_test\lib\lvgl\src\stdlib\lv_string.h ****  * @return Pointer to the destination array.
  57:c:\users\alex\eclipse-workspace\lvgs_test\lib\lvgl\src\stdlib\lv_string.h ****  */
  58:c:\users\alex\eclipse-workspace\lvgs_test\lib\lvgl\src\stdlib\lv_string.h **** void * lv_memmove(void * dst, const void * src, size_t len);
  59:c:\users\alex\eclipse-workspace\lvgs_test\lib\lvgl\src\stdlib\lv_string.h **** 
  60:c:\users\alex\eclipse-workspace\lvgs_test\lib\lvgl\src\stdlib\lv_string.h **** /**
  61:c:\users\alex\eclipse-workspace\lvgs_test\lib\lvgl\src\stdlib\lv_string.h ****  * Same as `memset(dst, 0x00, len)`.
  62:c:\users\alex\eclipse-workspace\lvgs_test\lib\lvgl\src\stdlib\lv_string.h ****  * @param dst pointer to the destination buffer
  63:c:\users\alex\eclipse-workspace\lvgs_test\lib\lvgl\src\stdlib\lv_string.h ****  * @param len number of byte to set
  64:c:\users\alex\eclipse-workspace\lvgs_test\lib\lvgl\src\stdlib\lv_string.h ****  */
  65:c:\users\alex\eclipse-workspace\lvgs_test\lib\lvgl\src\stdlib\lv_string.h **** static inline void lv_memzero(void * dst, size_t len)
 3398              		.loc 4 65 20 view .LVU960
 3399              	.LBB197:
  66:c:\users\alex\eclipse-workspace\lvgs_test\lib\lvgl\src\stdlib\lv_string.h **** {
  67:c:\users\alex\eclipse-workspace\lvgs_test\lib\lvgl\src\stdlib\lv_string.h ****     lv_memset(dst, 0x00, len);
 3400              		.loc 4 67 5 view .LVU961
 3401 0016 4FF44272 		mov	r2, #776
 3402 001a 0021     		movs	r1, #0
 3403 001c FFF7FEFF 		bl	lv_memset
 3404              	.LVL305:
 3405              		.loc 4 67 5 is_stmt 0 view .LVU962
 3406              	.LBE197:
 3407              	.LBE196:
  65:Lib/lvgl/src/display/lv_display.c ****     disp->ver_res          = ver_res;
 3408              		.loc 1 65 5 is_stmt 1 view .LVU963
  65:Lib/lvgl/src/display/lv_display.c ****     disp->ver_res          = ver_res;
 3409              		.loc 1 65 28 is_stmt 0 view .LVU964
 3410 0020 2660     		str	r6, [r4]
  66:Lib/lvgl/src/display/lv_display.c ****     disp->physical_hor_res = -1;
 3411              		.loc 1 66 5 is_stmt 1 view .LVU965
  66:Lib/lvgl/src/display/lv_display.c ****     disp->physical_hor_res = -1;
 3412              		.loc 1 66 28 is_stmt 0 view .LVU966
 3413 0022 6560     		str	r5, [r4, #4]
  67:Lib/lvgl/src/display/lv_display.c ****     disp->physical_ver_res = -1;
 3414              		.loc 1 67 5 is_stmt 1 view .LVU967
  67:Lib/lvgl/src/display/lv_display.c ****     disp->physical_ver_res = -1;
 3415              		.loc 1 67 28 is_stmt 0 view .LVU968
 3416 0024 4FF0FF33 		mov	r3, #-1
 3417 0028 A360     		str	r3, [r4, #8]
  68:Lib/lvgl/src/display/lv_display.c ****     disp->offset_x         = 0;
 3418              		.loc 1 68 5 is_stmt 1 view .LVU969
  68:Lib/lvgl/src/display/lv_display.c ****     disp->offset_x         = 0;
 3419              		.loc 1 68 28 is_stmt 0 view .LVU970
 3420 002a E360     		str	r3, [r4, #12]
  69:Lib/lvgl/src/display/lv_display.c ****     disp->offset_y         = 0;
 3421              		.loc 1 69 5 is_stmt 1 view .LVU971
  69:Lib/lvgl/src/display/lv_display.c ****     disp->offset_y         = 0;
 3422              		.loc 1 69 28 is_stmt 0 view .LVU972
 3423 002c 0023     		movs	r3, #0
 3424 002e 2361     		str	r3, [r4, #16]
  70:Lib/lvgl/src/display/lv_display.c ****     disp->antialiasing     = LV_COLOR_DEPTH > 8 ? 1 : 0;
 3425              		.loc 1 70 5 is_stmt 1 view .LVU973
  70:Lib/lvgl/src/display/lv_display.c ****     disp->antialiasing     = LV_COLOR_DEPTH > 8 ? 1 : 0;
ARM GAS  C:\Users\Alex\AppData\Local\Temp\cc0G22cc.s 			page 108


 3426              		.loc 1 70 28 is_stmt 0 view .LVU974
 3427 0030 6361     		str	r3, [r4, #20]
  71:Lib/lvgl/src/display/lv_display.c ****     disp->dpi              = LV_DPI_DEF;
 3428              		.loc 1 71 5 is_stmt 1 view .LVU975
  71:Lib/lvgl/src/display/lv_display.c ****     disp->dpi              = LV_DPI_DEF;
 3429              		.loc 1 71 28 is_stmt 0 view .LVU976
 3430 0032 94F83A30 		ldrb	r3, [r4, #58]	@ zero_extendqisi2
 3431 0036 43F00103 		orr	r3, r3, #1
 3432 003a 84F83A30 		strb	r3, [r4, #58]
  72:Lib/lvgl/src/display/lv_display.c ****     disp->color_format = LV_COLOR_FORMAT_NATIVE;
 3433              		.loc 1 72 5 is_stmt 1 view .LVU977
  72:Lib/lvgl/src/display/lv_display.c ****     disp->color_format = LV_COLOR_FORMAT_NATIVE;
 3434              		.loc 1 72 28 is_stmt 0 view .LVU978
 3435 003e 8223     		movs	r3, #130
 3436 0040 A361     		str	r3, [r4, #24]
  73:Lib/lvgl/src/display/lv_display.c **** 
 3437              		.loc 1 73 5 is_stmt 1 view .LVU979
  73:Lib/lvgl/src/display/lv_display.c **** 
 3438              		.loc 1 73 24 is_stmt 0 view .LVU980
 3439 0042 1223     		movs	r3, #18
 3440 0044 84F83B30 		strb	r3, [r4, #59]
  75:Lib/lvgl/src/display/lv_display.c ****     LV_ASSERT_MALLOC(disp->layer_head);
 3441              		.loc 1 75 5 is_stmt 1 view .LVU981
  75:Lib/lvgl/src/display/lv_display.c ****     LV_ASSERT_MALLOC(disp->layer_head);
 3442              		.loc 1 75 24 is_stmt 0 view .LVU982
 3443 0048 3C20     		movs	r0, #60
 3444 004a FFF7FEFF 		bl	lv_malloc_zeroed
 3445              	.LVL306:
  75:Lib/lvgl/src/display/lv_display.c ****     LV_ASSERT_MALLOC(disp->layer_head);
 3446              		.loc 1 75 22 view .LVU983
 3447 004e C4F8A002 		str	r0, [r4, #672]
  76:Lib/lvgl/src/display/lv_display.c ****     if(disp->layer_head == NULL) return NULL;
 3448              		.loc 1 76 5 is_stmt 1 view .LVU984
  76:Lib/lvgl/src/display/lv_display.c ****     if(disp->layer_head == NULL) return NULL;
 3449              		.loc 1 76 5 view .LVU985
 3450 0052 0028     		cmp	r0, #0
 3451 0054 00F0A480 		beq	.L251
  76:Lib/lvgl/src/display/lv_display.c ****     if(disp->layer_head == NULL) return NULL;
 3452              		.loc 1 76 5 view .LVU986
  76:Lib/lvgl/src/display/lv_display.c ****     if(disp->layer_head == NULL) return NULL;
 3453              		.loc 1 76 39 view .LVU987
  77:Lib/lvgl/src/display/lv_display.c **** 
 3454              		.loc 1 77 5 view .LVU988
  79:Lib/lvgl/src/display/lv_display.c ****     disp->layer_head->buf_area.x1 = 0;
 3455              		.loc 1 79 5 view .LVU989
  79:Lib/lvgl/src/display/lv_display.c ****     disp->layer_head->buf_area.x1 = 0;
 3456              		.loc 1 79 12 is_stmt 0 view .LVU990
 3457 0058 D4F8A432 		ldr	r3, [r4, #676]
  79:Lib/lvgl/src/display/lv_display.c ****     disp->layer_head->buf_area.x1 = 0;
 3458              		.loc 1 79 7 view .LVU991
 3459 005c 13B1     		cbz	r3, .L252
  79:Lib/lvgl/src/display/lv_display.c ****     disp->layer_head->buf_area.x1 = 0;
 3460              		.loc 1 79 26 is_stmt 1 discriminator 1 view .LVU992
 3461 005e 0146     		mov	r1, r0
 3462 0060 2046     		mov	r0, r4
 3463 0062 9847     		blx	r3
 3464              	.LVL307:
ARM GAS  C:\Users\Alex\AppData\Local\Temp\cc0G22cc.s 			page 109


 3465              	.L252:
  80:Lib/lvgl/src/display/lv_display.c ****     disp->layer_head->buf_area.y1 = 0;
 3466              		.loc 1 80 5 view .LVU993
  80:Lib/lvgl/src/display/lv_display.c ****     disp->layer_head->buf_area.y1 = 0;
 3467              		.loc 1 80 9 is_stmt 0 view .LVU994
 3468 0064 D4F8A022 		ldr	r2, [r4, #672]
  80:Lib/lvgl/src/display/lv_display.c ****     disp->layer_head->buf_area.y1 = 0;
 3469              		.loc 1 80 35 view .LVU995
 3470 0068 0023     		movs	r3, #0
 3471 006a 5360     		str	r3, [r2, #4]
  81:Lib/lvgl/src/display/lv_display.c ****     disp->layer_head->buf_area.x2 = hor_res - 1;
 3472              		.loc 1 81 5 is_stmt 1 view .LVU996
  81:Lib/lvgl/src/display/lv_display.c ****     disp->layer_head->buf_area.x2 = hor_res - 1;
 3473              		.loc 1 81 9 is_stmt 0 view .LVU997
 3474 006c D4F8A022 		ldr	r2, [r4, #672]
  81:Lib/lvgl/src/display/lv_display.c ****     disp->layer_head->buf_area.x2 = hor_res - 1;
 3475              		.loc 1 81 35 view .LVU998
 3476 0070 9360     		str	r3, [r2, #8]
  82:Lib/lvgl/src/display/lv_display.c ****     disp->layer_head->buf_area.y2 = ver_res - 1;
 3477              		.loc 1 82 5 is_stmt 1 view .LVU999
  82:Lib/lvgl/src/display/lv_display.c ****     disp->layer_head->buf_area.y2 = ver_res - 1;
 3478              		.loc 1 82 9 is_stmt 0 view .LVU1000
 3479 0072 D4F8A032 		ldr	r3, [r4, #672]
  82:Lib/lvgl/src/display/lv_display.c ****     disp->layer_head->buf_area.y2 = ver_res - 1;
 3480              		.loc 1 82 45 view .LVU1001
 3481 0076 013E     		subs	r6, r6, #1
 3482              	.LVL308:
  82:Lib/lvgl/src/display/lv_display.c ****     disp->layer_head->buf_area.y2 = ver_res - 1;
 3483              		.loc 1 82 35 view .LVU1002
 3484 0078 DE60     		str	r6, [r3, #12]
  83:Lib/lvgl/src/display/lv_display.c ****     disp->layer_head->color_format = disp->color_format;
 3485              		.loc 1 83 5 is_stmt 1 view .LVU1003
  83:Lib/lvgl/src/display/lv_display.c ****     disp->layer_head->color_format = disp->color_format;
 3486              		.loc 1 83 9 is_stmt 0 view .LVU1004
 3487 007a D4F8A032 		ldr	r3, [r4, #672]
  83:Lib/lvgl/src/display/lv_display.c ****     disp->layer_head->color_format = disp->color_format;
 3488              		.loc 1 83 45 view .LVU1005
 3489 007e 013D     		subs	r5, r5, #1
 3490              	.LVL309:
  83:Lib/lvgl/src/display/lv_display.c ****     disp->layer_head->color_format = disp->color_format;
 3491              		.loc 1 83 35 view .LVU1006
 3492 0080 1D61     		str	r5, [r3, #16]
  84:Lib/lvgl/src/display/lv_display.c **** 
 3493              		.loc 1 84 5 is_stmt 1 view .LVU1007
  84:Lib/lvgl/src/display/lv_display.c **** 
 3494              		.loc 1 84 9 is_stmt 0 view .LVU1008
 3495 0082 D4F8A032 		ldr	r3, [r4, #672]
  84:Lib/lvgl/src/display/lv_display.c **** 
 3496              		.loc 1 84 42 view .LVU1009
 3497 0086 94F83B20 		ldrb	r2, [r4, #59]	@ zero_extendqisi2
  84:Lib/lvgl/src/display/lv_display.c **** 
 3498              		.loc 1 84 36 view .LVU1010
 3499 008a 1A75     		strb	r2, [r3, #20]
  86:Lib/lvgl/src/display/lv_display.c **** 
 3500              		.loc 1 86 5 is_stmt 1 view .LVU1011
  86:Lib/lvgl/src/display/lv_display.c **** 
 3501              		.loc 1 86 22 is_stmt 0 view .LVU1012
ARM GAS  C:\Users\Alex\AppData\Local\Temp\cc0G22cc.s 			page 110


 3502 008c 0123     		movs	r3, #1
 3503 008e C4F86032 		str	r3, [r4, #608]
  88:Lib/lvgl/src/display/lv_display.c **** 
 3504              		.loc 1 88 5 is_stmt 1 view .LVU1013
 3505 0092 1021     		movs	r1, #16
 3506 0094 04F51970 		add	r0, r4, #612
 3507 0098 FFF7FEFF 		bl	_lv_ll_init
 3508              	.LVL310:
  90:Lib/lvgl/src/display/lv_display.c ****     disp_def                 = disp; /*Temporarily change the default screen to create the default 
 3509              		.loc 1 90 5 view .LVU1014
  90:Lib/lvgl/src/display/lv_display.c ****     disp_def                 = disp; /*Temporarily change the default screen to create the default 
 3510              		.loc 1 90 20 is_stmt 0 view .LVU1015
 3511 009c 464B     		ldr	r3, .L260+4
 3512 009e 5D69     		ldr	r5, [r3, #20]
 3513              	.LVL311:
  91:Lib/lvgl/src/display/lv_display.c ****                                         new display*/
 3514              		.loc 1 91 5 is_stmt 1 view .LVU1016
  91:Lib/lvgl/src/display/lv_display.c ****                                         new display*/
 3515              		.loc 1 91 30 is_stmt 0 view .LVU1017
 3516 00a0 5C61     		str	r4, [r3, #20]
  94:Lib/lvgl/src/display/lv_display.c ****     LV_ASSERT_MALLOC(disp->refr_timer);
 3517              		.loc 1 94 5 is_stmt 1 view .LVU1018
  94:Lib/lvgl/src/display/lv_display.c ****     LV_ASSERT_MALLOC(disp->refr_timer);
 3518              		.loc 1 94 24 is_stmt 0 view .LVU1019
 3519 00a2 2246     		mov	r2, r4
 3520 00a4 2121     		movs	r1, #33
 3521 00a6 4548     		ldr	r0, .L260+8
 3522 00a8 FFF7FEFF 		bl	lv_timer_create
 3523              	.LVL312:
  94:Lib/lvgl/src/display/lv_display.c ****     LV_ASSERT_MALLOC(disp->refr_timer);
 3524              		.loc 1 94 22 view .LVU1020
 3525 00ac C4F8F002 		str	r0, [r4, #752]
  95:Lib/lvgl/src/display/lv_display.c ****     if(disp->refr_timer == NULL) {
 3526              		.loc 1 95 5 is_stmt 1 view .LVU1021
  95:Lib/lvgl/src/display/lv_display.c ****     if(disp->refr_timer == NULL) {
 3527              		.loc 1 95 5 view .LVU1022
 3528 00b0 0028     		cmp	r0, #0
 3529 00b2 76D0     		beq	.L254
  95:Lib/lvgl/src/display/lv_display.c ****     if(disp->refr_timer == NULL) {
 3530              		.loc 1 95 5 view .LVU1023
  95:Lib/lvgl/src/display/lv_display.c ****     if(disp->refr_timer == NULL) {
 3531              		.loc 1 95 39 view .LVU1024
  96:Lib/lvgl/src/display/lv_display.c ****         lv_free(disp);
 3532              		.loc 1 96 5 view .LVU1025
 102:Lib/lvgl/src/display/lv_display.c ****         disp->theme = lv_theme_default_init(disp, lv_palette_main(LV_PALETTE_BLUE), lv_palette_main
 3533              		.loc 1 102 5 view .LVU1026
 102:Lib/lvgl/src/display/lv_display.c ****         disp->theme = lv_theme_default_init(disp, lv_palette_main(LV_PALETTE_BLUE), lv_palette_main
 3534              		.loc 1 102 8 is_stmt 0 view .LVU1027
 3535 00b4 FFF7FEFF 		bl	lv_theme_default_is_inited
 3536              	.LVL313:
 102:Lib/lvgl/src/display/lv_display.c ****         disp->theme = lv_theme_default_init(disp, lv_palette_main(LV_PALETTE_BLUE), lv_palette_main
 3537              		.loc 1 102 7 view .LVU1028
 3538 00b8 0028     		cmp	r0, #0
 3539 00ba 73D1     		bne	.L255
 103:Lib/lvgl/src/display/lv_display.c ****                                             LV_THEME_DEFAULT_DARK, LV_FONT_DEFAULT);
 3540              		.loc 1 103 9 is_stmt 1 view .LVU1029
 103:Lib/lvgl/src/display/lv_display.c ****                                             LV_THEME_DEFAULT_DARK, LV_FONT_DEFAULT);
ARM GAS  C:\Users\Alex\AppData\Local\Temp\cc0G22cc.s 			page 111


 3541              		.loc 1 103 23 is_stmt 0 view .LVU1030
 3542 00bc 0520     		movs	r0, #5
 3543 00be FFF7FEFF 		bl	lv_palette_main
 3544              	.LVL314:
 3545 00c2 8DF80800 		strb	r0, [sp, #8]
 3546 00c6 C0F30723 		ubfx	r3, r0, #8, #8
 3547 00ca 8DF80930 		strb	r3, [sp, #9]
 3548 00ce C0F30740 		ubfx	r0, r0, #16, #8
 3549 00d2 8DF80A00 		strb	r0, [sp, #10]
 3550 00d6 0020     		movs	r0, #0
 3551 00d8 FFF7FEFF 		bl	lv_palette_main
 3552              	.LVL315:
 3553 00dc 8DF80C00 		strb	r0, [sp, #12]
 3554 00e0 C0F30723 		ubfx	r3, r0, #8, #8
 3555 00e4 8DF80D30 		strb	r3, [sp, #13]
 3556 00e8 C0F30740 		ubfx	r0, r0, #16, #8
 3557 00ec 8DF80E00 		strb	r0, [sp, #14]
 3558 00f0 334B     		ldr	r3, .L260+12
 3559 00f2 0093     		str	r3, [sp]
 3560 00f4 0023     		movs	r3, #0
 3561 00f6 039A     		ldr	r2, [sp, #12]
 3562 00f8 0299     		ldr	r1, [sp, #8]
 3563 00fa 2046     		mov	r0, r4
 3564 00fc FFF7FEFF 		bl	lv_theme_default_init
 3565              	.LVL316:
 103:Lib/lvgl/src/display/lv_display.c ****                                             LV_THEME_DEFAULT_DARK, LV_FONT_DEFAULT);
 3566              		.loc 1 103 21 view .LVU1031
 3567 0100 C4F8EC02 		str	r0, [r4, #748]
 3568              	.L256:
 118:Lib/lvgl/src/display/lv_display.c ****     disp->act_scr   = lv_obj_create(NULL); /*Create a default screen on the display*/
 3569              		.loc 1 118 5 is_stmt 1 view .LVU1032
 118:Lib/lvgl/src/display/lv_display.c ****     disp->act_scr   = lv_obj_create(NULL); /*Create a default screen on the display*/
 3570              		.loc 1 118 26 is_stmt 0 view .LVU1033
 3571 0104 0020     		movs	r0, #0
 3572 0106 FFF7FEFF 		bl	lv_obj_create
 3573              	.LVL317:
 118:Lib/lvgl/src/display/lv_display.c ****     disp->act_scr   = lv_obj_create(NULL); /*Create a default screen on the display*/
 3574              		.loc 1 118 24 view .LVU1034
 3575 010a C4F8BC02 		str	r0, [r4, #700]
 119:Lib/lvgl/src/display/lv_display.c ****     disp->top_layer = lv_obj_create(NULL); /*Create top layer on the display*/
 3576              		.loc 1 119 5 is_stmt 1 view .LVU1035
 119:Lib/lvgl/src/display/lv_display.c ****     disp->top_layer = lv_obj_create(NULL); /*Create top layer on the display*/
 3577              		.loc 1 119 23 is_stmt 0 view .LVU1036
 3578 010e 0020     		movs	r0, #0
 3579 0110 FFF7FEFF 		bl	lv_obj_create
 3580              	.LVL318:
 119:Lib/lvgl/src/display/lv_display.c ****     disp->top_layer = lv_obj_create(NULL); /*Create top layer on the display*/
 3581              		.loc 1 119 21 view .LVU1037
 3582 0114 C4F8B002 		str	r0, [r4, #688]
 120:Lib/lvgl/src/display/lv_display.c ****     disp->sys_layer = lv_obj_create(NULL); /*Create sys layer on the display*/
 3583              		.loc 1 120 5 is_stmt 1 view .LVU1038
 120:Lib/lvgl/src/display/lv_display.c ****     disp->sys_layer = lv_obj_create(NULL); /*Create sys layer on the display*/
 3584              		.loc 1 120 23 is_stmt 0 view .LVU1039
 3585 0118 0020     		movs	r0, #0
 3586 011a FFF7FEFF 		bl	lv_obj_create
 3587              	.LVL319:
 120:Lib/lvgl/src/display/lv_display.c ****     disp->sys_layer = lv_obj_create(NULL); /*Create sys layer on the display*/
ARM GAS  C:\Users\Alex\AppData\Local\Temp\cc0G22cc.s 			page 112


 3588              		.loc 1 120 21 view .LVU1040
 3589 011e C4F8C002 		str	r0, [r4, #704]
 121:Lib/lvgl/src/display/lv_display.c ****     lv_obj_remove_style_all(disp->bottom_layer);
 3590              		.loc 1 121 5 is_stmt 1 view .LVU1041
 121:Lib/lvgl/src/display/lv_display.c ****     lv_obj_remove_style_all(disp->bottom_layer);
 3591              		.loc 1 121 23 is_stmt 0 view .LVU1042
 3592 0122 0020     		movs	r0, #0
 3593 0124 FFF7FEFF 		bl	lv_obj_create
 3594              	.LVL320:
 121:Lib/lvgl/src/display/lv_display.c ****     lv_obj_remove_style_all(disp->bottom_layer);
 3595              		.loc 1 121 21 view .LVU1043
 3596 0128 C4F8C402 		str	r0, [r4, #708]
 122:Lib/lvgl/src/display/lv_display.c ****     lv_obj_remove_style_all(disp->top_layer);
 3597              		.loc 1 122 5 is_stmt 1 view .LVU1044
 3598 012c D4F8BC02 		ldr	r0, [r4, #700]
 3599 0130 FFF7FEFF 		bl	lv_obj_remove_style_all
 3600              	.LVL321:
 123:Lib/lvgl/src/display/lv_display.c ****     lv_obj_remove_style_all(disp->sys_layer);
 3601              		.loc 1 123 5 view .LVU1045
 3602 0134 D4F8C002 		ldr	r0, [r4, #704]
 3603 0138 FFF7FEFF 		bl	lv_obj_remove_style_all
 3604              	.LVL322:
 124:Lib/lvgl/src/display/lv_display.c ****     lv_obj_remove_flag(disp->top_layer, LV_OBJ_FLAG_CLICKABLE);
 3605              		.loc 1 124 5 view .LVU1046
 3606 013c D4F8C402 		ldr	r0, [r4, #708]
 3607 0140 FFF7FEFF 		bl	lv_obj_remove_style_all
 3608              	.LVL323:
 125:Lib/lvgl/src/display/lv_display.c ****     lv_obj_remove_flag(disp->sys_layer, LV_OBJ_FLAG_CLICKABLE);
 3609              		.loc 1 125 5 view .LVU1047
 3610 0144 0221     		movs	r1, #2
 3611 0146 D4F8C002 		ldr	r0, [r4, #704]
 3612 014a FFF7FEFF 		bl	lv_obj_remove_flag
 3613              	.LVL324:
 126:Lib/lvgl/src/display/lv_display.c **** 
 3614              		.loc 1 126 5 view .LVU1048
 3615 014e 0221     		movs	r1, #2
 3616 0150 D4F8C402 		ldr	r0, [r4, #708]
 3617 0154 FFF7FEFF 		bl	lv_obj_remove_flag
 3618              	.LVL325:
 128:Lib/lvgl/src/display/lv_display.c ****     lv_obj_set_scrollbar_mode(disp->top_layer, LV_SCROLLBAR_MODE_OFF);
 3619              		.loc 1 128 5 view .LVU1049
 3620 0158 0021     		movs	r1, #0
 3621 015a D4F8BC02 		ldr	r0, [r4, #700]
 3622 015e FFF7FEFF 		bl	lv_obj_set_scrollbar_mode
 3623              	.LVL326:
 129:Lib/lvgl/src/display/lv_display.c ****     lv_obj_set_scrollbar_mode(disp->sys_layer, LV_SCROLLBAR_MODE_OFF);
 3624              		.loc 1 129 5 view .LVU1050
 3625 0162 0021     		movs	r1, #0
 3626 0164 D4F8C002 		ldr	r0, [r4, #704]
 3627 0168 FFF7FEFF 		bl	lv_obj_set_scrollbar_mode
 3628              	.LVL327:
 130:Lib/lvgl/src/display/lv_display.c **** 
 3629              		.loc 1 130 5 view .LVU1051
 3630 016c 0021     		movs	r1, #0
 3631 016e D4F8C402 		ldr	r0, [r4, #708]
 3632 0172 FFF7FEFF 		bl	lv_obj_set_scrollbar_mode
 3633              	.LVL328:
ARM GAS  C:\Users\Alex\AppData\Local\Temp\cc0G22cc.s 			page 113


 132:Lib/lvgl/src/display/lv_display.c **** 
 3634              		.loc 1 132 5 view .LVU1052
 3635 0176 D4F8B002 		ldr	r0, [r4, #688]
 3636 017a FFF7FEFF 		bl	lv_obj_invalidate
 3637              	.LVL329:
 134:Lib/lvgl/src/display/lv_display.c ****     if(disp_def == NULL) disp_def = disp; /*Initialize the default display*/
 3638              		.loc 1 134 5 view .LVU1053
 134:Lib/lvgl/src/display/lv_display.c ****     if(disp_def == NULL) disp_def = disp; /*Initialize the default display*/
 3639              		.loc 1 134 14 is_stmt 0 view .LVU1054
 3640 017e 0E4B     		ldr	r3, .L260+4
 3641 0180 5D61     		str	r5, [r3, #20]
 135:Lib/lvgl/src/display/lv_display.c **** 
 3642              		.loc 1 135 5 is_stmt 1 view .LVU1055
 135:Lib/lvgl/src/display/lv_display.c **** 
 3643              		.loc 1 135 7 is_stmt 0 view .LVU1056
 3644 0182 A5B1     		cbz	r5, .L259
 3645              	.L257:
 137:Lib/lvgl/src/display/lv_display.c **** 
 3646              		.loc 1 137 5 is_stmt 1 view .LVU1057
 3647 0184 0023     		movs	r3, #0
 3648 0186 3222     		movs	r2, #50
 3649 0188 0E49     		ldr	r1, .L260+16
 3650 018a 2046     		mov	r0, r4
 3651 018c FFF7FEFF 		bl	lv_display_add_event_cb
 3652              	.LVL330:
 139:Lib/lvgl/src/display/lv_display.c **** 
 3653              		.loc 1 139 5 view .LVU1058
 3654 0190 D4F8F002 		ldr	r0, [r4, #752]
 3655 0194 FFF7FEFF 		bl	lv_timer_ready
 3656              	.LVL331:
 141:Lib/lvgl/src/display/lv_display.c **** }
 3657              		.loc 1 141 5 view .LVU1059
 142:Lib/lvgl/src/display/lv_display.c **** 
 3658              		.loc 1 142 1 is_stmt 0 view .LVU1060
 3659 0198 2046     		mov	r0, r4
 3660 019a 04B0     		add	sp, sp, #16
 3661              	.LCFI48:
 3662              		.cfi_remember_state
 3663              		.cfi_def_cfa_offset 16
 3664              		@ sp needed
 3665 019c 70BD     		pop	{r4, r5, r6, pc}
 3666              	.LVL332:
 3667              	.L249:
 3668              	.LCFI49:
 3669              		.cfi_restore_state
  60:Lib/lvgl/src/display/lv_display.c ****     if(!disp) return NULL;
 3670              		.loc 1 60 5 is_stmt 1 discriminator 1 view .LVU1061
  60:Lib/lvgl/src/display/lv_display.c ****     if(!disp) return NULL;
 3671              		.loc 1 60 5 discriminator 1 view .LVU1062
  60:Lib/lvgl/src/display/lv_display.c ****     if(!disp) return NULL;
 3672              		.loc 1 60 5 discriminator 1 view .LVU1063
  60:Lib/lvgl/src/display/lv_display.c ****     if(!disp) return NULL;
 3673              		.loc 1 60 5 discriminator 1 view .LVU1064
  60:Lib/lvgl/src/display/lv_display.c ****     if(!disp) return NULL;
 3674              		.loc 1 60 5 discriminator 1 view .LVU1065
 3675 019e FEE7     		b	.L249
 3676              	.LVL333:
ARM GAS  C:\Users\Alex\AppData\Local\Temp\cc0G22cc.s 			page 114


 3677              	.L251:
  76:Lib/lvgl/src/display/lv_display.c ****     if(disp->layer_head == NULL) return NULL;
 3678              		.loc 1 76 5 discriminator 2 view .LVU1066
  76:Lib/lvgl/src/display/lv_display.c ****     if(disp->layer_head == NULL) return NULL;
 3679              		.loc 1 76 5 discriminator 2 view .LVU1067
  76:Lib/lvgl/src/display/lv_display.c ****     if(disp->layer_head == NULL) return NULL;
 3680              		.loc 1 76 5 discriminator 2 view .LVU1068
  76:Lib/lvgl/src/display/lv_display.c ****     if(disp->layer_head == NULL) return NULL;
 3681              		.loc 1 76 5 discriminator 2 view .LVU1069
  76:Lib/lvgl/src/display/lv_display.c ****     if(disp->layer_head == NULL) return NULL;
 3682              		.loc 1 76 5 discriminator 2 view .LVU1070
 3683 01a0 FEE7     		b	.L251
 3684              	.LVL334:
 3685              	.L254:
  95:Lib/lvgl/src/display/lv_display.c ****     if(disp->refr_timer == NULL) {
 3686              		.loc 1 95 5 discriminator 3 view .LVU1071
  95:Lib/lvgl/src/display/lv_display.c ****     if(disp->refr_timer == NULL) {
 3687              		.loc 1 95 5 discriminator 3 view .LVU1072
  95:Lib/lvgl/src/display/lv_display.c ****     if(disp->refr_timer == NULL) {
 3688              		.loc 1 95 5 discriminator 3 view .LVU1073
  95:Lib/lvgl/src/display/lv_display.c ****     if(disp->refr_timer == NULL) {
 3689              		.loc 1 95 5 discriminator 3 view .LVU1074
  95:Lib/lvgl/src/display/lv_display.c ****     if(disp->refr_timer == NULL) {
 3690              		.loc 1 95 5 discriminator 3 view .LVU1075
 3691 01a2 FEE7     		b	.L254
 3692              	.L255:
 107:Lib/lvgl/src/display/lv_display.c ****     }
 3693              		.loc 1 107 9 view .LVU1076
 107:Lib/lvgl/src/display/lv_display.c ****     }
 3694              		.loc 1 107 23 is_stmt 0 view .LVU1077
 3695 01a4 FFF7FEFF 		bl	lv_theme_default_get
 3696              	.LVL335:
 107:Lib/lvgl/src/display/lv_display.c ****     }
 3697              		.loc 1 107 21 view .LVU1078
 3698 01a8 C4F8EC02 		str	r0, [r4, #748]
 3699 01ac AAE7     		b	.L256
 3700              	.L259:
 135:Lib/lvgl/src/display/lv_display.c **** 
 3701              		.loc 1 135 26 is_stmt 1 discriminator 1 view .LVU1079
 135:Lib/lvgl/src/display/lv_display.c **** 
 3702              		.loc 1 135 35 is_stmt 0 discriminator 1 view .LVU1080
 3703 01ae 5C61     		str	r4, [r3, #20]
 3704 01b0 E8E7     		b	.L257
 3705              	.L261:
 3706 01b2 00BF     		.align	2
 3707              	.L260:
 3708 01b4 04000000 		.word	lv_global+4
 3709 01b8 00000000 		.word	lv_global
 3710 01bc 00000000 		.word	_lv_display_refr_timer
 3711 01c0 00000000 		.word	lv_font_montserrat_14
 3712 01c4 00000000 		.word	disp_event_cb
 3713              		.cfi_endproc
 3714              	.LFE234:
 3716              		.section	.text.lv_display_get_event_count,"ax",%progbits
 3717              		.align	1
 3718              		.global	lv_display_get_event_count
 3719              		.syntax unified
ARM GAS  C:\Users\Alex\AppData\Local\Temp\cc0G22cc.s 			page 115


 3720              		.thumb
 3721              		.thumb_func
 3723              	lv_display_get_event_count:
 3724              	.LVL336:
 3725              	.LFB270:
 726:Lib/lvgl/src/display/lv_display.c ****     LV_ASSERT_NULL(disp);
 3726              		.loc 1 726 1 is_stmt 1 view -0
 3727              		.cfi_startproc
 3728              		@ args = 0, pretend = 0, frame = 0
 3729              		@ frame_needed = 0, uses_anonymous_args = 0
 727:Lib/lvgl/src/display/lv_display.c ****     return lv_event_get_count(&disp->event_list);
 3730              		.loc 1 727 5 view .LVU1082
 727:Lib/lvgl/src/display/lv_display.c ****     return lv_event_get_count(&disp->event_list);
 3731              		.loc 1 727 5 view .LVU1083
 3732 0000 28B1     		cbz	r0, .L264
 726:Lib/lvgl/src/display/lv_display.c ****     LV_ASSERT_NULL(disp);
 3733              		.loc 1 726 1 is_stmt 0 discriminator 2 view .LVU1084
 3734 0002 08B5     		push	{r3, lr}
 3735              	.LCFI50:
 3736              		.cfi_def_cfa_offset 8
 3737              		.cfi_offset 3, -8
 3738              		.cfi_offset 14, -4
 727:Lib/lvgl/src/display/lv_display.c ****     return lv_event_get_count(&disp->event_list);
 3739              		.loc 1 727 5 is_stmt 1 discriminator 2 view .LVU1085
 727:Lib/lvgl/src/display/lv_display.c ****     return lv_event_get_count(&disp->event_list);
 3740              		.loc 1 727 25 discriminator 2 view .LVU1086
 728:Lib/lvgl/src/display/lv_display.c **** }
 3741              		.loc 1 728 5 discriminator 2 view .LVU1087
 728:Lib/lvgl/src/display/lv_display.c **** }
 3742              		.loc 1 728 12 is_stmt 0 discriminator 2 view .LVU1088
 3743 0004 00F53670 		add	r0, r0, #728
 3744              	.LVL337:
 728:Lib/lvgl/src/display/lv_display.c **** }
 3745              		.loc 1 728 12 discriminator 2 view .LVU1089
 3746 0008 FFF7FEFF 		bl	lv_event_get_count
 3747              	.LVL338:
 729:Lib/lvgl/src/display/lv_display.c **** 
 3748              		.loc 1 729 1 discriminator 2 view .LVU1090
 3749 000c 08BD     		pop	{r3, pc}
 3750              	.LVL339:
 3751              	.L264:
 3752              	.LCFI51:
 3753              		.cfi_def_cfa_offset 0
 3754              		.cfi_restore 3
 3755              		.cfi_restore 14
 727:Lib/lvgl/src/display/lv_display.c ****     return lv_event_get_count(&disp->event_list);
 3756              		.loc 1 727 5 is_stmt 1 discriminator 1 view .LVU1091
 727:Lib/lvgl/src/display/lv_display.c ****     return lv_event_get_count(&disp->event_list);
 3757              		.loc 1 727 5 discriminator 1 view .LVU1092
 727:Lib/lvgl/src/display/lv_display.c ****     return lv_event_get_count(&disp->event_list);
 3758              		.loc 1 727 5 discriminator 1 view .LVU1093
 727:Lib/lvgl/src/display/lv_display.c ****     return lv_event_get_count(&disp->event_list);
 3759              		.loc 1 727 5 discriminator 1 view .LVU1094
 727:Lib/lvgl/src/display/lv_display.c ****     return lv_event_get_count(&disp->event_list);
 3760              		.loc 1 727 5 discriminator 1 view .LVU1095
 3761 000e FEE7     		b	.L264
 3762              		.cfi_endproc
ARM GAS  C:\Users\Alex\AppData\Local\Temp\cc0G22cc.s 			page 116


 3763              	.LFE270:
 3765              		.section	.text.lv_display_get_event_dsc,"ax",%progbits
 3766              		.align	1
 3767              		.global	lv_display_get_event_dsc
 3768              		.syntax unified
 3769              		.thumb
 3770              		.thumb_func
 3772              	lv_display_get_event_dsc:
 3773              	.LVL340:
 3774              	.LFB271:
 732:Lib/lvgl/src/display/lv_display.c ****     LV_ASSERT_NULL(disp);
 3775              		.loc 1 732 1 view -0
 3776              		.cfi_startproc
 3777              		@ args = 0, pretend = 0, frame = 0
 3778              		@ frame_needed = 0, uses_anonymous_args = 0
 733:Lib/lvgl/src/display/lv_display.c ****     return lv_event_get_dsc(&disp->event_list, index);
 3779              		.loc 1 733 5 view .LVU1097
 733:Lib/lvgl/src/display/lv_display.c ****     return lv_event_get_dsc(&disp->event_list, index);
 3780              		.loc 1 733 5 view .LVU1098
 3781 0000 28B1     		cbz	r0, .L269
 732:Lib/lvgl/src/display/lv_display.c ****     LV_ASSERT_NULL(disp);
 3782              		.loc 1 732 1 is_stmt 0 discriminator 2 view .LVU1099
 3783 0002 08B5     		push	{r3, lr}
 3784              	.LCFI52:
 3785              		.cfi_def_cfa_offset 8
 3786              		.cfi_offset 3, -8
 3787              		.cfi_offset 14, -4
 733:Lib/lvgl/src/display/lv_display.c ****     return lv_event_get_dsc(&disp->event_list, index);
 3788              		.loc 1 733 5 is_stmt 1 discriminator 2 view .LVU1100
 733:Lib/lvgl/src/display/lv_display.c ****     return lv_event_get_dsc(&disp->event_list, index);
 3789              		.loc 1 733 25 discriminator 2 view .LVU1101
 734:Lib/lvgl/src/display/lv_display.c **** 
 3790              		.loc 1 734 5 discriminator 2 view .LVU1102
 734:Lib/lvgl/src/display/lv_display.c **** 
 3791              		.loc 1 734 12 is_stmt 0 discriminator 2 view .LVU1103
 3792 0004 00F53670 		add	r0, r0, #728
 3793              	.LVL341:
 734:Lib/lvgl/src/display/lv_display.c **** 
 3794              		.loc 1 734 12 discriminator 2 view .LVU1104
 3795 0008 FFF7FEFF 		bl	lv_event_get_dsc
 3796              	.LVL342:
 736:Lib/lvgl/src/display/lv_display.c **** 
 3797              		.loc 1 736 1 discriminator 2 view .LVU1105
 3798 000c 08BD     		pop	{r3, pc}
 3799              	.LVL343:
 3800              	.L269:
 3801              	.LCFI53:
 3802              		.cfi_def_cfa_offset 0
 3803              		.cfi_restore 3
 3804              		.cfi_restore 14
 733:Lib/lvgl/src/display/lv_display.c ****     return lv_event_get_dsc(&disp->event_list, index);
 3805              		.loc 1 733 5 is_stmt 1 discriminator 1 view .LVU1106
 733:Lib/lvgl/src/display/lv_display.c ****     return lv_event_get_dsc(&disp->event_list, index);
 3806              		.loc 1 733 5 discriminator 1 view .LVU1107
 733:Lib/lvgl/src/display/lv_display.c ****     return lv_event_get_dsc(&disp->event_list, index);
 3807              		.loc 1 733 5 discriminator 1 view .LVU1108
 733:Lib/lvgl/src/display/lv_display.c ****     return lv_event_get_dsc(&disp->event_list, index);
ARM GAS  C:\Users\Alex\AppData\Local\Temp\cc0G22cc.s 			page 117


 3808              		.loc 1 733 5 discriminator 1 view .LVU1109
 733:Lib/lvgl/src/display/lv_display.c ****     return lv_event_get_dsc(&disp->event_list, index);
 3809              		.loc 1 733 5 discriminator 1 view .LVU1110
 3810 000e FEE7     		b	.L269
 3811              		.cfi_endproc
 3812              	.LFE271:
 3814              		.section	.text.lv_display_delete_event,"ax",%progbits
 3815              		.align	1
 3816              		.global	lv_display_delete_event
 3817              		.syntax unified
 3818              		.thumb
 3819              		.thumb_func
 3821              	lv_display_delete_event:
 3822              	.LVL344:
 3823              	.LFB272:
 739:Lib/lvgl/src/display/lv_display.c ****     LV_ASSERT_NULL(disp);
 3824              		.loc 1 739 1 view -0
 3825              		.cfi_startproc
 3826              		@ args = 0, pretend = 0, frame = 0
 3827              		@ frame_needed = 0, uses_anonymous_args = 0
 740:Lib/lvgl/src/display/lv_display.c **** 
 3828              		.loc 1 740 5 view .LVU1112
 740:Lib/lvgl/src/display/lv_display.c **** 
 3829              		.loc 1 740 5 view .LVU1113
 3830 0000 28B1     		cbz	r0, .L274
 739:Lib/lvgl/src/display/lv_display.c ****     LV_ASSERT_NULL(disp);
 3831              		.loc 1 739 1 is_stmt 0 discriminator 2 view .LVU1114
 3832 0002 08B5     		push	{r3, lr}
 3833              	.LCFI54:
 3834              		.cfi_def_cfa_offset 8
 3835              		.cfi_offset 3, -8
 3836              		.cfi_offset 14, -4
 740:Lib/lvgl/src/display/lv_display.c **** 
 3837              		.loc 1 740 5 is_stmt 1 discriminator 2 view .LVU1115
 740:Lib/lvgl/src/display/lv_display.c **** 
 3838              		.loc 1 740 25 discriminator 2 view .LVU1116
 742:Lib/lvgl/src/display/lv_display.c **** }
 3839              		.loc 1 742 5 discriminator 2 view .LVU1117
 742:Lib/lvgl/src/display/lv_display.c **** }
 3840              		.loc 1 742 12 is_stmt 0 discriminator 2 view .LVU1118
 3841 0004 00F53670 		add	r0, r0, #728
 3842              	.LVL345:
 742:Lib/lvgl/src/display/lv_display.c **** }
 3843              		.loc 1 742 12 discriminator 2 view .LVU1119
 3844 0008 FFF7FEFF 		bl	lv_event_remove
 3845              	.LVL346:
 743:Lib/lvgl/src/display/lv_display.c **** 
 3846              		.loc 1 743 1 discriminator 2 view .LVU1120
 3847 000c 08BD     		pop	{r3, pc}
 3848              	.LVL347:
 3849              	.L274:
 3850              	.LCFI55:
 3851              		.cfi_def_cfa_offset 0
 3852              		.cfi_restore 3
 3853              		.cfi_restore 14
 740:Lib/lvgl/src/display/lv_display.c **** 
 3854              		.loc 1 740 5 is_stmt 1 discriminator 1 view .LVU1121
ARM GAS  C:\Users\Alex\AppData\Local\Temp\cc0G22cc.s 			page 118


 740:Lib/lvgl/src/display/lv_display.c **** 
 3855              		.loc 1 740 5 discriminator 1 view .LVU1122
 740:Lib/lvgl/src/display/lv_display.c **** 
 3856              		.loc 1 740 5 discriminator 1 view .LVU1123
 740:Lib/lvgl/src/display/lv_display.c **** 
 3857              		.loc 1 740 5 discriminator 1 view .LVU1124
 740:Lib/lvgl/src/display/lv_display.c **** 
 3858              		.loc 1 740 5 discriminator 1 view .LVU1125
 3859 000e FEE7     		b	.L274
 3860              		.cfi_endproc
 3861              	.LFE272:
 3863              		.section	.text.lv_display_remove_event_cb_with_user_data,"ax",%progbits
 3864              		.align	1
 3865              		.global	lv_display_remove_event_cb_with_user_data
 3866              		.syntax unified
 3867              		.thumb
 3868              		.thumb_func
 3870              	lv_display_remove_event_cb_with_user_data:
 3871              	.LVL348:
 3872              	.LFB273:
 746:Lib/lvgl/src/display/lv_display.c ****     LV_ASSERT_NULL(disp);
 3873              		.loc 1 746 1 view -0
 3874              		.cfi_startproc
 3875              		@ args = 0, pretend = 0, frame = 0
 3876              		@ frame_needed = 0, uses_anonymous_args = 0
 747:Lib/lvgl/src/display/lv_display.c **** 
 3877              		.loc 1 747 5 view .LVU1127
 747:Lib/lvgl/src/display/lv_display.c **** 
 3878              		.loc 1 747 5 view .LVU1128
 3879 0000 50B1     		cbz	r0, .L279
 746:Lib/lvgl/src/display/lv_display.c ****     LV_ASSERT_NULL(disp);
 3880              		.loc 1 746 1 is_stmt 0 discriminator 2 view .LVU1129
 3881 0002 2DE9F843 		push	{r3, r4, r5, r6, r7, r8, r9, lr}
 3882              	.LCFI56:
 3883              		.cfi_def_cfa_offset 32
 3884              		.cfi_offset 3, -32
 3885              		.cfi_offset 4, -28
 3886              		.cfi_offset 5, -24
 3887              		.cfi_offset 6, -20
 3888              		.cfi_offset 7, -16
 3889              		.cfi_offset 8, -12
 3890              		.cfi_offset 9, -8
 3891              		.cfi_offset 14, -4
 3892 0006 0E46     		mov	r6, r1
 3893 0008 9046     		mov	r8, r2
 3894 000a 0546     		mov	r5, r0
 747:Lib/lvgl/src/display/lv_display.c **** 
 3895              		.loc 1 747 5 is_stmt 1 discriminator 2 view .LVU1130
 747:Lib/lvgl/src/display/lv_display.c **** 
 3896              		.loc 1 747 25 discriminator 2 view .LVU1131
 749:Lib/lvgl/src/display/lv_display.c ****     uint32_t removed_count = 0;
 3897              		.loc 1 749 5 discriminator 2 view .LVU1132
 749:Lib/lvgl/src/display/lv_display.c ****     uint32_t removed_count = 0;
 3898              		.loc 1 749 26 is_stmt 0 discriminator 2 view .LVU1133
 3899 000c FFF7FEFF 		bl	lv_display_get_event_count
 3900              	.LVL349:
 750:Lib/lvgl/src/display/lv_display.c ****     int32_t i;
ARM GAS  C:\Users\Alex\AppData\Local\Temp\cc0G22cc.s 			page 119


 3901              		.loc 1 750 5 is_stmt 1 discriminator 2 view .LVU1134
 751:Lib/lvgl/src/display/lv_display.c **** 
 3902              		.loc 1 751 5 discriminator 2 view .LVU1135
 753:Lib/lvgl/src/display/lv_display.c ****         lv_event_dsc_t * dsc = lv_display_get_event_dsc(disp, i);
 3903              		.loc 1 753 5 discriminator 2 view .LVU1136
 753:Lib/lvgl/src/display/lv_display.c ****         lv_event_dsc_t * dsc = lv_display_get_event_dsc(disp, i);
 3904              		.loc 1 753 23 is_stmt 0 discriminator 2 view .LVU1137
 3905 0010 441E     		subs	r4, r0, #1
 3906              	.LVL350:
 750:Lib/lvgl/src/display/lv_display.c ****     int32_t i;
 3907              		.loc 1 750 14 discriminator 2 view .LVU1138
 3908 0012 4FF00009 		mov	r9, #0
 753:Lib/lvgl/src/display/lv_display.c ****         lv_event_dsc_t * dsc = lv_display_get_event_dsc(disp, i);
 3909              		.loc 1 753 5 discriminator 2 view .LVU1139
 3910 0016 01E0     		b	.L280
 3911              	.LVL351:
 3912              	.L279:
 3913              	.LCFI57:
 3914              		.cfi_def_cfa_offset 0
 3915              		.cfi_restore 3
 3916              		.cfi_restore 4
 3917              		.cfi_restore 5
 3918              		.cfi_restore 6
 3919              		.cfi_restore 7
 3920              		.cfi_restore 8
 3921              		.cfi_restore 9
 3922              		.cfi_restore 14
 747:Lib/lvgl/src/display/lv_display.c **** 
 3923              		.loc 1 747 5 is_stmt 1 discriminator 1 view .LVU1140
 747:Lib/lvgl/src/display/lv_display.c **** 
 3924              		.loc 1 747 5 discriminator 1 view .LVU1141
 747:Lib/lvgl/src/display/lv_display.c **** 
 3925              		.loc 1 747 5 discriminator 1 view .LVU1142
 747:Lib/lvgl/src/display/lv_display.c **** 
 3926              		.loc 1 747 5 discriminator 1 view .LVU1143
 747:Lib/lvgl/src/display/lv_display.c **** 
 3927              		.loc 1 747 5 discriminator 1 view .LVU1144
 3928 0018 FEE7     		b	.L279
 3929              	.LVL352:
 3930              	.L281:
 3931              	.LCFI58:
 3932              		.cfi_def_cfa_offset 32
 3933              		.cfi_offset 3, -32
 3934              		.cfi_offset 4, -28
 3935              		.cfi_offset 5, -24
 3936              		.cfi_offset 6, -20
 3937              		.cfi_offset 7, -16
 3938              		.cfi_offset 8, -12
 3939              		.cfi_offset 9, -8
 3940              		.cfi_offset 14, -4
 753:Lib/lvgl/src/display/lv_display.c ****         lv_event_dsc_t * dsc = lv_display_get_event_dsc(disp, i);
 3941              		.loc 1 753 37 discriminator 2 view .LVU1145
 3942 001a 013C     		subs	r4, r4, #1
 3943              	.LVL353:
 3944              	.L280:
 753:Lib/lvgl/src/display/lv_display.c ****         lv_event_dsc_t * dsc = lv_display_get_event_dsc(disp, i);
 3945              		.loc 1 753 30 discriminator 1 view .LVU1146
ARM GAS  C:\Users\Alex\AppData\Local\Temp\cc0G22cc.s 			page 120


 3946 001c 002C     		cmp	r4, #0
 3947 001e 12DB     		blt	.L285
 3948              	.LBB198:
 754:Lib/lvgl/src/display/lv_display.c ****         if(dsc && dsc->cb == event_cb && dsc->user_data == user_data) {
 3949              		.loc 1 754 9 view .LVU1147
 754:Lib/lvgl/src/display/lv_display.c ****         if(dsc && dsc->cb == event_cb && dsc->user_data == user_data) {
 3950              		.loc 1 754 32 is_stmt 0 view .LVU1148
 3951 0020 2146     		mov	r1, r4
 3952 0022 2846     		mov	r0, r5
 3953 0024 FFF7FEFF 		bl	lv_display_get_event_dsc
 3954              	.LVL354:
 755:Lib/lvgl/src/display/lv_display.c ****             lv_display_delete_event(disp, i);
 3955              		.loc 1 755 9 is_stmt 1 view .LVU1149
 755:Lib/lvgl/src/display/lv_display.c ****             lv_display_delete_event(disp, i);
 3956              		.loc 1 755 11 is_stmt 0 view .LVU1150
 3957 0028 0028     		cmp	r0, #0
 3958 002a F6D0     		beq	.L281
 755:Lib/lvgl/src/display/lv_display.c ****             lv_display_delete_event(disp, i);
 3959              		.loc 1 755 22 discriminator 1 view .LVU1151
 3960 002c 0268     		ldr	r2, [r0]
 755:Lib/lvgl/src/display/lv_display.c ****             lv_display_delete_event(disp, i);
 3961              		.loc 1 755 16 discriminator 1 view .LVU1152
 3962 002e B242     		cmp	r2, r6
 3963 0030 F3D1     		bne	.L281
 755:Lib/lvgl/src/display/lv_display.c ****             lv_display_delete_event(disp, i);
 3964              		.loc 1 755 45 discriminator 2 view .LVU1153
 3965 0032 4368     		ldr	r3, [r0, #4]
 755:Lib/lvgl/src/display/lv_display.c ****             lv_display_delete_event(disp, i);
 3966              		.loc 1 755 39 discriminator 2 view .LVU1154
 3967 0034 4345     		cmp	r3, r8
 3968 0036 F0D1     		bne	.L281
 756:Lib/lvgl/src/display/lv_display.c ****             removed_count ++;
 3969              		.loc 1 756 13 is_stmt 1 view .LVU1155
 3970 0038 2146     		mov	r1, r4
 3971 003a 2846     		mov	r0, r5
 3972              	.LVL355:
 756:Lib/lvgl/src/display/lv_display.c ****             removed_count ++;
 3973              		.loc 1 756 13 is_stmt 0 view .LVU1156
 3974 003c FFF7FEFF 		bl	lv_display_delete_event
 3975              	.LVL356:
 757:Lib/lvgl/src/display/lv_display.c ****         }
 3976              		.loc 1 757 13 is_stmt 1 view .LVU1157
 757:Lib/lvgl/src/display/lv_display.c ****         }
 3977              		.loc 1 757 27 is_stmt 0 view .LVU1158
 3978 0040 09F10109 		add	r9, r9, #1
 3979              	.LVL357:
 757:Lib/lvgl/src/display/lv_display.c ****         }
 3980              		.loc 1 757 27 view .LVU1159
 3981 0044 E9E7     		b	.L281
 3982              	.LVL358:
 3983              	.L285:
 757:Lib/lvgl/src/display/lv_display.c ****         }
 3984              		.loc 1 757 27 view .LVU1160
 3985              	.LBE198:
 761:Lib/lvgl/src/display/lv_display.c **** }
 3986              		.loc 1 761 5 is_stmt 1 view .LVU1161
 762:Lib/lvgl/src/display/lv_display.c **** 
ARM GAS  C:\Users\Alex\AppData\Local\Temp\cc0G22cc.s 			page 121


 3987              		.loc 1 762 1 is_stmt 0 view .LVU1162
 3988 0046 4846     		mov	r0, r9
 3989 0048 BDE8F883 		pop	{r3, r4, r5, r6, r7, r8, r9, pc}
 762:Lib/lvgl/src/display/lv_display.c **** 
 3990              		.loc 1 762 1 view .LVU1163
 3991              		.cfi_endproc
 3992              	.LFE273:
 3994              		.section	.text.lv_display_send_event,"ax",%progbits
 3995              		.align	1
 3996              		.global	lv_display_send_event
 3997              		.syntax unified
 3998              		.thumb
 3999              		.thumb_func
 4001              	lv_display_send_event:
 4002              	.LVL359:
 4003              	.LFB274:
 765:Lib/lvgl/src/display/lv_display.c **** 
 4004              		.loc 1 765 1 is_stmt 1 view -0
 4005              		.cfi_startproc
 4006              		@ args = 0, pretend = 0, frame = 32
 4007              		@ frame_needed = 0, uses_anonymous_args = 0
 765:Lib/lvgl/src/display/lv_display.c **** 
 4008              		.loc 1 765 1 is_stmt 0 view .LVU1165
 4009 0000 70B5     		push	{r4, r5, r6, lr}
 4010              	.LCFI59:
 4011              		.cfi_def_cfa_offset 16
 4012              		.cfi_offset 4, -16
 4013              		.cfi_offset 5, -12
 4014              		.cfi_offset 6, -8
 4015              		.cfi_offset 14, -4
 4016 0002 88B0     		sub	sp, sp, #32
 4017              	.LCFI60:
 4018              		.cfi_def_cfa_offset 48
 4019 0004 0446     		mov	r4, r0
 4020 0006 0E46     		mov	r6, r1
 4021 0008 1546     		mov	r5, r2
 767:Lib/lvgl/src/display/lv_display.c ****     lv_memzero(&e, sizeof(e));
 4022              		.loc 1 767 5 is_stmt 1 view .LVU1166
 768:Lib/lvgl/src/display/lv_display.c ****     e.code = code;
 4023              		.loc 1 768 5 view .LVU1167
 4024              	.LVL360:
 4025              	.LBB199:
 4026              	.LBI199:
  65:c:\users\alex\eclipse-workspace\lvgs_test\lib\lvgl\src\stdlib\lv_string.h **** {
 4027              		.loc 4 65 20 view .LVU1168
 4028              	.LBB200:
 4029              		.loc 4 67 5 view .LVU1169
 4030 000a 1C22     		movs	r2, #28
 4031              	.LVL361:
 4032              		.loc 4 67 5 is_stmt 0 view .LVU1170
 4033 000c 0021     		movs	r1, #0
 4034              	.LVL362:
 4035              		.loc 4 67 5 view .LVU1171
 4036 000e 01A8     		add	r0, sp, #4
 4037              	.LVL363:
 4038              		.loc 4 67 5 view .LVU1172
 4039 0010 FFF7FEFF 		bl	lv_memset
ARM GAS  C:\Users\Alex\AppData\Local\Temp\cc0G22cc.s 			page 122


 4040              	.LVL364:
 4041              		.loc 4 67 5 view .LVU1173
 4042              	.LBE200:
 4043              	.LBE199:
 769:Lib/lvgl/src/display/lv_display.c ****     e.current_target = disp;
 4044              		.loc 1 769 5 is_stmt 1 view .LVU1174
 769:Lib/lvgl/src/display/lv_display.c ****     e.current_target = disp;
 4045              		.loc 1 769 12 is_stmt 0 view .LVU1175
 4046 0014 ADF80C60 		strh	r6, [sp, #12]	@ movhi
 770:Lib/lvgl/src/display/lv_display.c ****     e.original_target = disp;
 4047              		.loc 1 770 5 is_stmt 1 view .LVU1176
 770:Lib/lvgl/src/display/lv_display.c ****     e.original_target = disp;
 4048              		.loc 1 770 22 is_stmt 0 view .LVU1177
 4049 0018 0194     		str	r4, [sp, #4]
 771:Lib/lvgl/src/display/lv_display.c ****     e.param = param;
 4050              		.loc 1 771 5 is_stmt 1 view .LVU1178
 771:Lib/lvgl/src/display/lv_display.c ****     e.param = param;
 4051              		.loc 1 771 23 is_stmt 0 view .LVU1179
 4052 001a 0294     		str	r4, [sp, #8]
 772:Lib/lvgl/src/display/lv_display.c ****     lv_result_t res;
 4053              		.loc 1 772 5 is_stmt 1 view .LVU1180
 772:Lib/lvgl/src/display/lv_display.c ****     lv_result_t res;
 4054              		.loc 1 772 13 is_stmt 0 view .LVU1181
 4055 001c 0595     		str	r5, [sp, #20]
 773:Lib/lvgl/src/display/lv_display.c ****     res = lv_event_send(&disp->event_list, &e, true);
 4056              		.loc 1 773 5 is_stmt 1 view .LVU1182
 774:Lib/lvgl/src/display/lv_display.c ****     if(res != LV_RESULT_OK) return res;
 4057              		.loc 1 774 5 view .LVU1183
 774:Lib/lvgl/src/display/lv_display.c ****     if(res != LV_RESULT_OK) return res;
 4058              		.loc 1 774 11 is_stmt 0 view .LVU1184
 4059 001e 04F53674 		add	r4, r4, #728
 4060              	.LVL365:
 774:Lib/lvgl/src/display/lv_display.c ****     if(res != LV_RESULT_OK) return res;
 4061              		.loc 1 774 11 view .LVU1185
 4062 0022 0122     		movs	r2, #1
 4063 0024 01A9     		add	r1, sp, #4
 4064              	.LVL366:
 774:Lib/lvgl/src/display/lv_display.c ****     if(res != LV_RESULT_OK) return res;
 4065              		.loc 1 774 11 view .LVU1186
 4066 0026 2046     		mov	r0, r4
 4067 0028 FFF7FEFF 		bl	lv_event_send
 4068              	.LVL367:
 775:Lib/lvgl/src/display/lv_display.c **** 
 4069              		.loc 1 775 5 is_stmt 1 view .LVU1187
 775:Lib/lvgl/src/display/lv_display.c **** 
 4070              		.loc 1 775 7 is_stmt 0 view .LVU1188
 4071 002c 0128     		cmp	r0, #1
 4072 002e 01D0     		beq	.L289
 4073              	.L287:
 781:Lib/lvgl/src/display/lv_display.c **** 
 4074              		.loc 1 781 1 view .LVU1189
 4075 0030 08B0     		add	sp, sp, #32
 4076              	.LCFI61:
 4077              		.cfi_remember_state
 4078              		.cfi_def_cfa_offset 16
 4079              		@ sp needed
 4080 0032 70BD     		pop	{r4, r5, r6, pc}
ARM GAS  C:\Users\Alex\AppData\Local\Temp\cc0G22cc.s 			page 123


 4081              	.LVL368:
 4082              	.L289:
 4083              	.LCFI62:
 4084              		.cfi_restore_state
 777:Lib/lvgl/src/display/lv_display.c ****     if(res != LV_RESULT_OK) return res;
 4085              		.loc 1 777 5 is_stmt 1 view .LVU1190
 777:Lib/lvgl/src/display/lv_display.c ****     if(res != LV_RESULT_OK) return res;
 4086              		.loc 1 777 11 is_stmt 0 view .LVU1191
 4087 0034 0022     		movs	r2, #0
 4088 0036 01A9     		add	r1, sp, #4
 4089 0038 2046     		mov	r0, r4
 4090              	.LVL369:
 777:Lib/lvgl/src/display/lv_display.c ****     if(res != LV_RESULT_OK) return res;
 4091              		.loc 1 777 11 view .LVU1192
 4092 003a FFF7FEFF 		bl	lv_event_send
 4093              	.LVL370:
 778:Lib/lvgl/src/display/lv_display.c **** 
 4094              		.loc 1 778 5 is_stmt 1 view .LVU1193
 4095 003e F7E7     		b	.L287
 4096              		.cfi_endproc
 4097              	.LFE274:
 4099              		.section	.text.lv_display_delete,"ax",%progbits
 4100              		.align	1
 4101              		.global	lv_display_delete
 4102              		.syntax unified
 4103              		.thumb
 4104              		.thumb_func
 4106              	lv_display_delete:
 4107              	.LVL371:
 4108              	.LFB235:
 145:Lib/lvgl/src/display/lv_display.c ****     bool was_default = false;
 4109              		.loc 1 145 1 view -0
 4110              		.cfi_startproc
 4111              		@ args = 0, pretend = 0, frame = 0
 4112              		@ frame_needed = 0, uses_anonymous_args = 0
 145:Lib/lvgl/src/display/lv_display.c ****     bool was_default = false;
 4113              		.loc 1 145 1 is_stmt 0 view .LVU1195
 4114 0000 70B5     		push	{r4, r5, r6, lr}
 4115              	.LCFI63:
 4116              		.cfi_def_cfa_offset 16
 4117              		.cfi_offset 4, -16
 4118              		.cfi_offset 5, -12
 4119              		.cfi_offset 6, -8
 4120              		.cfi_offset 14, -4
 4121 0002 0546     		mov	r5, r0
 146:Lib/lvgl/src/display/lv_display.c ****     if(disp == lv_display_get_default()) was_default = true;
 4122              		.loc 1 146 5 is_stmt 1 view .LVU1196
 4123              	.LVL372:
 147:Lib/lvgl/src/display/lv_display.c **** 
 4124              		.loc 1 147 5 view .LVU1197
 147:Lib/lvgl/src/display/lv_display.c **** 
 4125              		.loc 1 147 16 is_stmt 0 view .LVU1198
 4126 0004 FFF7FEFF 		bl	lv_display_get_default
 4127              	.LVL373:
 147:Lib/lvgl/src/display/lv_display.c **** 
 4128              		.loc 1 147 7 view .LVU1199
 4129 0008 8542     		cmp	r5, r0
ARM GAS  C:\Users\Alex\AppData\Local\Temp\cc0G22cc.s 			page 124


 4130 000a 0ED0     		beq	.L303
 146:Lib/lvgl/src/display/lv_display.c ****     if(disp == lv_display_get_default()) was_default = true;
 4131              		.loc 1 146 10 view .LVU1200
 4132 000c 0026     		movs	r6, #0
 4133              	.L291:
 4134              	.LVL374:
 149:Lib/lvgl/src/display/lv_display.c ****     lv_event_remove_all(&(disp->event_list));
 4135              		.loc 1 149 5 is_stmt 1 view .LVU1201
 4136 000e 0022     		movs	r2, #0
 4137 0010 2321     		movs	r1, #35
 4138 0012 2846     		mov	r0, r5
 4139 0014 FFF7FEFF 		bl	lv_display_send_event
 4140              	.LVL375:
 150:Lib/lvgl/src/display/lv_display.c **** 
 4141              		.loc 1 150 5 view .LVU1202
 4142 0018 05F53670 		add	r0, r5, #728
 4143 001c FFF7FEFF 		bl	lv_event_remove_all
 4144              	.LVL376:
 153:Lib/lvgl/src/display/lv_display.c ****     indev = lv_indev_get_next(NULL);
 4145              		.loc 1 153 5 view .LVU1203
 154:Lib/lvgl/src/display/lv_display.c ****     while(indev) {
 4146              		.loc 1 154 5 view .LVU1204
 154:Lib/lvgl/src/display/lv_display.c ****     while(indev) {
 4147              		.loc 1 154 13 is_stmt 0 view .LVU1205
 4148 0020 0020     		movs	r0, #0
 4149 0022 FFF7FEFF 		bl	lv_indev_get_next
 4150              	.LVL377:
 4151 0026 0446     		mov	r4, r0
 4152              	.LVL378:
 155:Lib/lvgl/src/display/lv_display.c ****         if(lv_indev_get_display(indev) == disp) {
 4153              		.loc 1 155 5 is_stmt 1 view .LVU1206
 155:Lib/lvgl/src/display/lv_display.c ****         if(lv_indev_get_display(indev) == disp) {
 4154              		.loc 1 155 10 is_stmt 0 view .LVU1207
 4155 0028 05E0     		b	.L292
 4156              	.LVL379:
 4157              	.L303:
 147:Lib/lvgl/src/display/lv_display.c **** 
 4158              		.loc 1 147 54 view .LVU1208
 4159 002a 0126     		movs	r6, #1
 4160 002c EFE7     		b	.L291
 4161              	.LVL380:
 4162              	.L293:
 159:Lib/lvgl/src/display/lv_display.c ****     }
 4163              		.loc 1 159 9 is_stmt 1 view .LVU1209
 159:Lib/lvgl/src/display/lv_display.c ****     }
 4164              		.loc 1 159 17 is_stmt 0 view .LVU1210
 4165 002e 2046     		mov	r0, r4
 4166 0030 FFF7FEFF 		bl	lv_indev_get_next
 4167              	.LVL381:
 4168 0034 0446     		mov	r4, r0
 4169              	.LVL382:
 4170              	.L292:
 155:Lib/lvgl/src/display/lv_display.c ****         if(lv_indev_get_display(indev) == disp) {
 4171              		.loc 1 155 11 is_stmt 1 view .LVU1211
 4172 0036 4CB1     		cbz	r4, .L305
 156:Lib/lvgl/src/display/lv_display.c ****             lv_indev_set_display(indev, NULL);
 4173              		.loc 1 156 9 view .LVU1212
ARM GAS  C:\Users\Alex\AppData\Local\Temp\cc0G22cc.s 			page 125


 156:Lib/lvgl/src/display/lv_display.c ****             lv_indev_set_display(indev, NULL);
 4174              		.loc 1 156 12 is_stmt 0 view .LVU1213
 4175 0038 2046     		mov	r0, r4
 156:Lib/lvgl/src/display/lv_display.c ****             lv_indev_set_display(indev, NULL);
 4176              		.loc 1 156 12 view .LVU1214
 4177 003a FFF7FEFF 		bl	lv_indev_get_display
 4178              	.LVL383:
 156:Lib/lvgl/src/display/lv_display.c ****             lv_indev_set_display(indev, NULL);
 4179              		.loc 1 156 11 view .LVU1215
 4180 003e 8542     		cmp	r5, r0
 4181 0040 F5D1     		bne	.L293
 157:Lib/lvgl/src/display/lv_display.c ****         }
 4182              		.loc 1 157 13 is_stmt 1 view .LVU1216
 4183 0042 0021     		movs	r1, #0
 4184 0044 2046     		mov	r0, r4
 4185 0046 FFF7FEFF 		bl	lv_indev_set_display
 4186              	.LVL384:
 4187 004a F0E7     		b	.L293
 4188              	.LVL385:
 4189              	.L305:
 163:Lib/lvgl/src/display/lv_display.c ****         lv_obj_delete(disp->sys_layer);
 4190              		.loc 1 163 5 view .LVU1217
 163:Lib/lvgl/src/display/lv_display.c ****         lv_obj_delete(disp->sys_layer);
 4191              		.loc 1 163 12 is_stmt 0 view .LVU1218
 4192 004c D5F8C402 		ldr	r0, [r5, #708]
 4193              	.LVL386:
 163:Lib/lvgl/src/display/lv_display.c ****         lv_obj_delete(disp->sys_layer);
 4194              		.loc 1 163 7 view .LVU1219
 4195 0050 20B1     		cbz	r0, .L295
 164:Lib/lvgl/src/display/lv_display.c ****         disp->sys_layer = NULL;
 4196              		.loc 1 164 9 is_stmt 1 view .LVU1220
 4197 0052 FFF7FEFF 		bl	lv_obj_delete
 4198              	.LVL387:
 165:Lib/lvgl/src/display/lv_display.c ****     }
 4199              		.loc 1 165 9 view .LVU1221
 165:Lib/lvgl/src/display/lv_display.c ****     }
 4200              		.loc 1 165 25 is_stmt 0 view .LVU1222
 4201 0056 0023     		movs	r3, #0
 4202 0058 C5F8C432 		str	r3, [r5, #708]
 4203              	.L295:
 167:Lib/lvgl/src/display/lv_display.c ****         lv_obj_delete(disp->top_layer);
 4204              		.loc 1 167 5 is_stmt 1 view .LVU1223
 167:Lib/lvgl/src/display/lv_display.c ****         lv_obj_delete(disp->top_layer);
 4205              		.loc 1 167 12 is_stmt 0 view .LVU1224
 4206 005c D5F8C002 		ldr	r0, [r5, #704]
 167:Lib/lvgl/src/display/lv_display.c ****         lv_obj_delete(disp->top_layer);
 4207              		.loc 1 167 7 view .LVU1225
 4208 0060 20B1     		cbz	r0, .L296
 168:Lib/lvgl/src/display/lv_display.c ****         disp->top_layer = NULL;
 4209              		.loc 1 168 9 is_stmt 1 view .LVU1226
 4210 0062 FFF7FEFF 		bl	lv_obj_delete
 4211              	.LVL388:
 169:Lib/lvgl/src/display/lv_display.c ****     }
 4212              		.loc 1 169 9 view .LVU1227
 169:Lib/lvgl/src/display/lv_display.c ****     }
 4213              		.loc 1 169 25 is_stmt 0 view .LVU1228
 4214 0066 0023     		movs	r3, #0
ARM GAS  C:\Users\Alex\AppData\Local\Temp\cc0G22cc.s 			page 126


 4215 0068 C5F8C032 		str	r3, [r5, #704]
 4216              	.L296:
 172:Lib/lvgl/src/display/lv_display.c ****         lv_obj_delete(disp->bottom_layer);
 4217              		.loc 1 172 5 is_stmt 1 view .LVU1229
 172:Lib/lvgl/src/display/lv_display.c ****         lv_obj_delete(disp->bottom_layer);
 4218              		.loc 1 172 12 is_stmt 0 view .LVU1230
 4219 006c D5F8BC02 		ldr	r0, [r5, #700]
 172:Lib/lvgl/src/display/lv_display.c ****         lv_obj_delete(disp->bottom_layer);
 4220              		.loc 1 172 7 view .LVU1231
 4221 0070 20B1     		cbz	r0, .L297
 173:Lib/lvgl/src/display/lv_display.c ****         disp->bottom_layer = NULL;
 4222              		.loc 1 173 9 is_stmt 1 view .LVU1232
 4223 0072 FFF7FEFF 		bl	lv_obj_delete
 4224              	.LVL389:
 174:Lib/lvgl/src/display/lv_display.c ****     }
 4225              		.loc 1 174 9 view .LVU1233
 174:Lib/lvgl/src/display/lv_display.c ****     }
 4226              		.loc 1 174 28 is_stmt 0 view .LVU1234
 4227 0076 0023     		movs	r3, #0
 4228 0078 C5F8BC32 		str	r3, [r5, #700]
 4229              	.L297:
 177:Lib/lvgl/src/display/lv_display.c **** 
 4230              		.loc 1 177 5 is_stmt 1 view .LVU1235
 177:Lib/lvgl/src/display/lv_display.c **** 
 4231              		.loc 1 177 19 is_stmt 0 view .LVU1236
 4232 007c 0023     		movs	r3, #0
 4233 007e C5F8B032 		str	r3, [r5, #688]
 179:Lib/lvgl/src/display/lv_display.c ****         /*Delete the screenst*/
 4234              		.loc 1 179 5 is_stmt 1 view .LVU1237
 179:Lib/lvgl/src/display/lv_display.c ****         /*Delete the screenst*/
 4235              		.loc 1 179 10 is_stmt 0 view .LVU1238
 4236 0082 04E0     		b	.L298
 4237              	.L299:
 181:Lib/lvgl/src/display/lv_display.c ****     }
 4238              		.loc 1 181 9 is_stmt 1 view .LVU1239
 181:Lib/lvgl/src/display/lv_display.c ****     }
 4239              		.loc 1 181 27 is_stmt 0 view .LVU1240
 4240 0084 D5F8AC32 		ldr	r3, [r5, #684]
 181:Lib/lvgl/src/display/lv_display.c ****     }
 4241              		.loc 1 181 9 view .LVU1241
 4242 0088 1868     		ldr	r0, [r3]
 4243 008a FFF7FEFF 		bl	lv_obj_delete
 4244              	.LVL390:
 4245              	.L298:
 179:Lib/lvgl/src/display/lv_display.c ****         /*Delete the screenst*/
 4246              		.loc 1 179 28 is_stmt 1 view .LVU1242
 179:Lib/lvgl/src/display/lv_display.c ****         /*Delete the screenst*/
 4247              		.loc 1 179 15 is_stmt 0 view .LVU1243
 4248 008e D5F8C832 		ldr	r3, [r5, #712]
 179:Lib/lvgl/src/display/lv_display.c ****         /*Delete the screenst*/
 4249              		.loc 1 179 28 view .LVU1244
 4250 0092 002B     		cmp	r3, #0
 4251 0094 F6D1     		bne	.L299
 184:Lib/lvgl/src/display/lv_display.c ****     _lv_ll_remove(disp_ll_p, disp);
 4252              		.loc 1 184 5 is_stmt 1 view .LVU1245
 4253              	.LVL391:
 4254              	.LBB201:
ARM GAS  C:\Users\Alex\AppData\Local\Temp\cc0G22cc.s 			page 127


 4255              	.LBI201:
 4256              		.file 5 "Lib/lvgl/src/display/../misc/lv_ll.h"
   1:Lib/lvgl/src/display/../misc/lv_ll.h **** /**
   2:Lib/lvgl/src/display/../misc/lv_ll.h ****  * @file lv_ll.h
   3:Lib/lvgl/src/display/../misc/lv_ll.h ****  * Handle linked lists. The nodes are dynamically allocated by the 'lv_mem' module.
   4:Lib/lvgl/src/display/../misc/lv_ll.h ****  */
   5:Lib/lvgl/src/display/../misc/lv_ll.h **** 
   6:Lib/lvgl/src/display/../misc/lv_ll.h **** #ifndef LV_LL_H
   7:Lib/lvgl/src/display/../misc/lv_ll.h **** #define LV_LL_H
   8:Lib/lvgl/src/display/../misc/lv_ll.h **** 
   9:Lib/lvgl/src/display/../misc/lv_ll.h **** #ifdef __cplusplus
  10:Lib/lvgl/src/display/../misc/lv_ll.h **** extern "C" {
  11:Lib/lvgl/src/display/../misc/lv_ll.h **** #endif
  12:Lib/lvgl/src/display/../misc/lv_ll.h **** 
  13:Lib/lvgl/src/display/../misc/lv_ll.h **** /*********************
  14:Lib/lvgl/src/display/../misc/lv_ll.h ****  *      INCLUDES
  15:Lib/lvgl/src/display/../misc/lv_ll.h ****  *********************/
  16:Lib/lvgl/src/display/../misc/lv_ll.h **** #include <stdint.h>
  17:Lib/lvgl/src/display/../misc/lv_ll.h **** #include <stddef.h>
  18:Lib/lvgl/src/display/../misc/lv_ll.h **** #include <stdbool.h>
  19:Lib/lvgl/src/display/../misc/lv_ll.h **** 
  20:Lib/lvgl/src/display/../misc/lv_ll.h **** /*********************
  21:Lib/lvgl/src/display/../misc/lv_ll.h ****  *      DEFINES
  22:Lib/lvgl/src/display/../misc/lv_ll.h ****  *********************/
  23:Lib/lvgl/src/display/../misc/lv_ll.h **** 
  24:Lib/lvgl/src/display/../misc/lv_ll.h **** /**********************
  25:Lib/lvgl/src/display/../misc/lv_ll.h ****  *      TYPEDEFS
  26:Lib/lvgl/src/display/../misc/lv_ll.h ****  **********************/
  27:Lib/lvgl/src/display/../misc/lv_ll.h **** 
  28:Lib/lvgl/src/display/../misc/lv_ll.h **** /** Dummy type to make handling easier*/
  29:Lib/lvgl/src/display/../misc/lv_ll.h **** typedef uint8_t lv_ll_node_t;
  30:Lib/lvgl/src/display/../misc/lv_ll.h **** 
  31:Lib/lvgl/src/display/../misc/lv_ll.h **** /** Description of a linked list*/
  32:Lib/lvgl/src/display/../misc/lv_ll.h **** typedef struct {
  33:Lib/lvgl/src/display/../misc/lv_ll.h ****     uint32_t n_size;
  34:Lib/lvgl/src/display/../misc/lv_ll.h ****     lv_ll_node_t * head;
  35:Lib/lvgl/src/display/../misc/lv_ll.h ****     lv_ll_node_t * tail;
  36:Lib/lvgl/src/display/../misc/lv_ll.h **** } lv_ll_t;
  37:Lib/lvgl/src/display/../misc/lv_ll.h **** 
  38:Lib/lvgl/src/display/../misc/lv_ll.h **** /**********************
  39:Lib/lvgl/src/display/../misc/lv_ll.h ****  * GLOBAL PROTOTYPES
  40:Lib/lvgl/src/display/../misc/lv_ll.h ****  **********************/
  41:Lib/lvgl/src/display/../misc/lv_ll.h **** 
  42:Lib/lvgl/src/display/../misc/lv_ll.h **** /**
  43:Lib/lvgl/src/display/../misc/lv_ll.h ****  * Initialize linked list
  44:Lib/lvgl/src/display/../misc/lv_ll.h ****  * @param ll_p pointer to lv_ll_t variable
  45:Lib/lvgl/src/display/../misc/lv_ll.h ****  * @param node_size the size of 1 node in bytes
  46:Lib/lvgl/src/display/../misc/lv_ll.h ****  */
  47:Lib/lvgl/src/display/../misc/lv_ll.h **** void _lv_ll_init(lv_ll_t * ll_p, uint32_t node_size);
  48:Lib/lvgl/src/display/../misc/lv_ll.h **** 
  49:Lib/lvgl/src/display/../misc/lv_ll.h **** /**
  50:Lib/lvgl/src/display/../misc/lv_ll.h ****  * Add a new head to a linked list
  51:Lib/lvgl/src/display/../misc/lv_ll.h ****  * @param ll_p pointer to linked list
  52:Lib/lvgl/src/display/../misc/lv_ll.h ****  * @return pointer to the new head
  53:Lib/lvgl/src/display/../misc/lv_ll.h ****  */
  54:Lib/lvgl/src/display/../misc/lv_ll.h **** void * _lv_ll_ins_head(lv_ll_t * ll_p);
  55:Lib/lvgl/src/display/../misc/lv_ll.h **** 
ARM GAS  C:\Users\Alex\AppData\Local\Temp\cc0G22cc.s 			page 128


  56:Lib/lvgl/src/display/../misc/lv_ll.h **** /**
  57:Lib/lvgl/src/display/../misc/lv_ll.h ****  * Insert a new node in front of the n_act node
  58:Lib/lvgl/src/display/../misc/lv_ll.h ****  * @param ll_p pointer to linked list
  59:Lib/lvgl/src/display/../misc/lv_ll.h ****  * @param n_act pointer a node
  60:Lib/lvgl/src/display/../misc/lv_ll.h ****  * @return pointer to the new node
  61:Lib/lvgl/src/display/../misc/lv_ll.h ****  */
  62:Lib/lvgl/src/display/../misc/lv_ll.h **** void * _lv_ll_ins_prev(lv_ll_t * ll_p, void * n_act);
  63:Lib/lvgl/src/display/../misc/lv_ll.h **** 
  64:Lib/lvgl/src/display/../misc/lv_ll.h **** /**
  65:Lib/lvgl/src/display/../misc/lv_ll.h ****  * Add a new tail to a linked list
  66:Lib/lvgl/src/display/../misc/lv_ll.h ****  * @param ll_p pointer to linked list
  67:Lib/lvgl/src/display/../misc/lv_ll.h ****  * @return pointer to the new tail
  68:Lib/lvgl/src/display/../misc/lv_ll.h ****  */
  69:Lib/lvgl/src/display/../misc/lv_ll.h **** void * _lv_ll_ins_tail(lv_ll_t * ll_p);
  70:Lib/lvgl/src/display/../misc/lv_ll.h **** 
  71:Lib/lvgl/src/display/../misc/lv_ll.h **** /**
  72:Lib/lvgl/src/display/../misc/lv_ll.h ****  * Remove the node 'node_p' from 'll_p' linked list.
  73:Lib/lvgl/src/display/../misc/lv_ll.h ****  * It does not free the memory of node.
  74:Lib/lvgl/src/display/../misc/lv_ll.h ****  * @param ll_p pointer to the linked list of 'node_p'
  75:Lib/lvgl/src/display/../misc/lv_ll.h ****  * @param node_p pointer to node in 'll_p' linked list
  76:Lib/lvgl/src/display/../misc/lv_ll.h ****  */
  77:Lib/lvgl/src/display/../misc/lv_ll.h **** void _lv_ll_remove(lv_ll_t * ll_p, void * node_p);
  78:Lib/lvgl/src/display/../misc/lv_ll.h **** 
  79:Lib/lvgl/src/display/../misc/lv_ll.h **** void _lv_ll_clear_custom(lv_ll_t * ll_p, void(*cleanup)(void *));
  80:Lib/lvgl/src/display/../misc/lv_ll.h **** 
  81:Lib/lvgl/src/display/../misc/lv_ll.h **** /**
  82:Lib/lvgl/src/display/../misc/lv_ll.h ****  * Remove and free all elements from a linked list. The list remain valid but become empty.
  83:Lib/lvgl/src/display/../misc/lv_ll.h ****  * @param ll_p pointer to linked list
  84:Lib/lvgl/src/display/../misc/lv_ll.h ****  */
  85:Lib/lvgl/src/display/../misc/lv_ll.h **** static inline void _lv_ll_clear(lv_ll_t * ll_p)
 4257              		.loc 5 85 20 view .LVU1246
 4258              	.LBB202:
  86:Lib/lvgl/src/display/../misc/lv_ll.h **** {
  87:Lib/lvgl/src/display/../misc/lv_ll.h ****     _lv_ll_clear_custom(ll_p, NULL);
 4259              		.loc 5 87 5 view .LVU1247
 4260 0096 0021     		movs	r1, #0
 4261 0098 05F51970 		add	r0, r5, #612
 4262              	.LVL392:
 4263              		.loc 5 87 5 is_stmt 0 view .LVU1248
 4264 009c FFF7FEFF 		bl	_lv_ll_clear_custom
 4265              	.LVL393:
 4266              		.loc 5 87 5 view .LVU1249
 4267              	.LBE202:
 4268              	.LBE201:
 185:Lib/lvgl/src/display/lv_display.c ****     if(disp->refr_timer) lv_timer_delete(disp->refr_timer);
 4269              		.loc 1 185 5 is_stmt 1 view .LVU1250
 4270 00a0 2946     		mov	r1, r5
 4271 00a2 0F48     		ldr	r0, .L307
 4272 00a4 FFF7FEFF 		bl	_lv_ll_remove
 4273              	.LVL394:
 186:Lib/lvgl/src/display/lv_display.c **** 
 4274              		.loc 1 186 5 view .LVU1251
 186:Lib/lvgl/src/display/lv_display.c **** 
 4275              		.loc 1 186 12 is_stmt 0 view .LVU1252
 4276 00a8 D5F8F002 		ldr	r0, [r5, #752]
 186:Lib/lvgl/src/display/lv_display.c **** 
 4277              		.loc 1 186 7 view .LVU1253
ARM GAS  C:\Users\Alex\AppData\Local\Temp\cc0G22cc.s 			page 129


 4278 00ac 08B1     		cbz	r0, .L300
 186:Lib/lvgl/src/display/lv_display.c **** 
 4279              		.loc 1 186 26 is_stmt 1 discriminator 1 view .LVU1254
 4280 00ae FFF7FEFF 		bl	lv_timer_delete
 4281              	.LVL395:
 4282              	.L300:
 188:Lib/lvgl/src/display/lv_display.c ****     lv_free(disp->layer_head);
 4283              		.loc 1 188 5 view .LVU1255
 188:Lib/lvgl/src/display/lv_display.c ****     lv_free(disp->layer_head);
 4284              		.loc 1 188 12 is_stmt 0 view .LVU1256
 4285 00b2 D5F8A832 		ldr	r3, [r5, #680]
 188:Lib/lvgl/src/display/lv_display.c ****     lv_free(disp->layer_head);
 4286              		.loc 1 188 7 view .LVU1257
 4287 00b6 1BB1     		cbz	r3, .L301
 188:Lib/lvgl/src/display/lv_display.c ****     lv_free(disp->layer_head);
 4288              		.loc 1 188 28 is_stmt 1 discriminator 1 view .LVU1258
 4289 00b8 D5F8A012 		ldr	r1, [r5, #672]
 4290 00bc 2846     		mov	r0, r5
 4291 00be 9847     		blx	r3
 4292              	.LVL396:
 4293              	.L301:
 189:Lib/lvgl/src/display/lv_display.c **** 
 4294              		.loc 1 189 5 view .LVU1259
 4295 00c0 D5F8A002 		ldr	r0, [r5, #672]
 4296 00c4 FFF7FEFF 		bl	lv_free
 4297              	.LVL397:
 191:Lib/lvgl/src/display/lv_display.c **** 
 4298              		.loc 1 191 5 view .LVU1260
 4299 00c8 2846     		mov	r0, r5
 4300 00ca FFF7FEFF 		bl	lv_free
 4301              	.LVL398:
 193:Lib/lvgl/src/display/lv_display.c **** }
 4302              		.loc 1 193 5 view .LVU1261
 193:Lib/lvgl/src/display/lv_display.c **** }
 4303              		.loc 1 193 7 is_stmt 0 view .LVU1262
 4304 00ce 06B9     		cbnz	r6, .L306
 4305              	.L290:
 194:Lib/lvgl/src/display/lv_display.c **** 
 4306              		.loc 1 194 1 view .LVU1263
 4307 00d0 70BD     		pop	{r4, r5, r6, pc}
 4308              	.LVL399:
 4309              	.L306:
 193:Lib/lvgl/src/display/lv_display.c **** }
 4310              		.loc 1 193 21 is_stmt 1 discriminator 1 view .LVU1264
 193:Lib/lvgl/src/display/lv_display.c **** }
 4311              		.loc 1 193 44 is_stmt 0 discriminator 1 view .LVU1265
 4312 00d2 0348     		ldr	r0, .L307
 4313 00d4 FFF7FEFF 		bl	_lv_ll_get_head
 4314              	.LVL400:
 193:Lib/lvgl/src/display/lv_display.c **** }
 4315              		.loc 1 193 21 discriminator 1 view .LVU1266
 4316 00d8 FFF7FEFF 		bl	lv_display_set_default
 4317              	.LVL401:
 194:Lib/lvgl/src/display/lv_display.c **** 
 4318              		.loc 1 194 1 discriminator 1 view .LVU1267
 4319 00dc F8E7     		b	.L290
 4320              	.L308:
ARM GAS  C:\Users\Alex\AppData\Local\Temp\cc0G22cc.s 			page 130


 4321 00de 00BF     		.align	2
 4322              	.L307:
 4323 00e0 04000000 		.word	lv_global+4
 4324              		.cfi_endproc
 4325              	.LFE235:
 4327              		.section	.text.update_resolution,"ax",%progbits
 4328              		.align	1
 4329              		.syntax unified
 4330              		.thumb
 4331              		.thumb_func
 4333              	update_resolution:
 4334              	.LVL402:
 4335              	.LFB289:
 924:Lib/lvgl/src/display/lv_display.c ****     int32_t hor_res = lv_display_get_horizontal_resolution(disp);
 4336              		.loc 1 924 1 is_stmt 1 view -0
 4337              		.cfi_startproc
 4338              		@ args = 0, pretend = 0, frame = 16
 4339              		@ frame_needed = 0, uses_anonymous_args = 0
 924:Lib/lvgl/src/display/lv_display.c ****     int32_t hor_res = lv_display_get_horizontal_resolution(disp);
 4340              		.loc 1 924 1 is_stmt 0 view .LVU1269
 4341 0000 F0B5     		push	{r4, r5, r6, r7, lr}
 4342              	.LCFI64:
 4343              		.cfi_def_cfa_offset 20
 4344              		.cfi_offset 4, -20
 4345              		.cfi_offset 5, -16
 4346              		.cfi_offset 6, -12
 4347              		.cfi_offset 7, -8
 4348              		.cfi_offset 14, -4
 4349 0002 85B0     		sub	sp, sp, #20
 4350              	.LCFI65:
 4351              		.cfi_def_cfa_offset 40
 4352 0004 0446     		mov	r4, r0
 925:Lib/lvgl/src/display/lv_display.c ****     int32_t ver_res = lv_display_get_vertical_resolution(disp);
 4353              		.loc 1 925 5 is_stmt 1 view .LVU1270
 925:Lib/lvgl/src/display/lv_display.c ****     int32_t ver_res = lv_display_get_vertical_resolution(disp);
 4354              		.loc 1 925 23 is_stmt 0 view .LVU1271
 4355 0006 FFF7FEFF 		bl	lv_display_get_horizontal_resolution
 4356              	.LVL403:
 925:Lib/lvgl/src/display/lv_display.c ****     int32_t ver_res = lv_display_get_vertical_resolution(disp);
 4357              		.loc 1 925 23 view .LVU1272
 4358 000a 0746     		mov	r7, r0
 4359              	.LVL404:
 926:Lib/lvgl/src/display/lv_display.c **** 
 4360              		.loc 1 926 5 is_stmt 1 view .LVU1273
 926:Lib/lvgl/src/display/lv_display.c **** 
 4361              		.loc 1 926 23 is_stmt 0 view .LVU1274
 4362 000c 2046     		mov	r0, r4
 4363              	.LVL405:
 926:Lib/lvgl/src/display/lv_display.c **** 
 4364              		.loc 1 926 23 view .LVU1275
 4365 000e FFF7FEFF 		bl	lv_display_get_vertical_resolution
 4366              	.LVL406:
 4367 0012 0646     		mov	r6, r0
 4368              	.LVL407:
 928:Lib/lvgl/src/display/lv_display.c ****     lv_obj_get_coords(disp->sys_layer, &prev_coords);
 4369              		.loc 1 928 5 is_stmt 1 view .LVU1276
 929:Lib/lvgl/src/display/lv_display.c ****     uint32_t i;
ARM GAS  C:\Users\Alex\AppData\Local\Temp\cc0G22cc.s 			page 131


 4370              		.loc 1 929 5 view .LVU1277
 4371 0014 6946     		mov	r1, sp
 4372 0016 D4F8C402 		ldr	r0, [r4, #708]
 4373              	.LVL408:
 929:Lib/lvgl/src/display/lv_display.c ****     uint32_t i;
 4374              		.loc 1 929 5 is_stmt 0 view .LVU1278
 4375 001a FFF7FEFF 		bl	lv_obj_get_coords
 4376              	.LVL409:
 930:Lib/lvgl/src/display/lv_display.c ****     for(i = 0; i < disp->screen_cnt; i++) {
 4377              		.loc 1 930 5 is_stmt 1 view .LVU1279
 931:Lib/lvgl/src/display/lv_display.c ****         lv_area_set_width(&disp->screens[i]->coords, hor_res);
 4378              		.loc 1 931 5 view .LVU1280
 931:Lib/lvgl/src/display/lv_display.c ****         lv_area_set_width(&disp->screens[i]->coords, hor_res);
 4379              		.loc 1 931 11 is_stmt 0 view .LVU1281
 4380 001e 0025     		movs	r5, #0
 931:Lib/lvgl/src/display/lv_display.c ****         lv_area_set_width(&disp->screens[i]->coords, hor_res);
 4381              		.loc 1 931 5 view .LVU1282
 4382 0020 18E0     		b	.L310
 4383              	.LVL410:
 4384              	.L311:
 932:Lib/lvgl/src/display/lv_display.c ****         lv_area_set_height(&disp->screens[i]->coords, ver_res);
 4385              		.loc 1 932 9 is_stmt 1 discriminator 3 view .LVU1283
 932:Lib/lvgl/src/display/lv_display.c ****         lv_area_set_height(&disp->screens[i]->coords, ver_res);
 4386              		.loc 1 932 32 is_stmt 0 discriminator 3 view .LVU1284
 4387 0022 D4F8AC32 		ldr	r3, [r4, #684]
 932:Lib/lvgl/src/display/lv_display.c ****         lv_area_set_height(&disp->screens[i]->coords, ver_res);
 4388              		.loc 1 932 41 discriminator 3 view .LVU1285
 4389 0026 53F82500 		ldr	r0, [r3, r5, lsl #2]
 932:Lib/lvgl/src/display/lv_display.c ****         lv_area_set_height(&disp->screens[i]->coords, ver_res);
 4390              		.loc 1 932 9 discriminator 3 view .LVU1286
 4391 002a 3946     		mov	r1, r7
 4392 002c 1430     		adds	r0, r0, #20
 4393 002e FFF7FEFF 		bl	lv_area_set_width
 4394              	.LVL411:
 933:Lib/lvgl/src/display/lv_display.c ****         lv_obj_send_event(disp->screens[i], LV_EVENT_SIZE_CHANGED, &prev_coords);
 4395              		.loc 1 933 9 is_stmt 1 discriminator 3 view .LVU1287
 933:Lib/lvgl/src/display/lv_display.c ****         lv_obj_send_event(disp->screens[i], LV_EVENT_SIZE_CHANGED, &prev_coords);
 4396              		.loc 1 933 33 is_stmt 0 discriminator 3 view .LVU1288
 4397 0032 D4F8AC32 		ldr	r3, [r4, #684]
 933:Lib/lvgl/src/display/lv_display.c ****         lv_obj_send_event(disp->screens[i], LV_EVENT_SIZE_CHANGED, &prev_coords);
 4398              		.loc 1 933 42 discriminator 3 view .LVU1289
 4399 0036 53F82500 		ldr	r0, [r3, r5, lsl #2]
 933:Lib/lvgl/src/display/lv_display.c ****         lv_obj_send_event(disp->screens[i], LV_EVENT_SIZE_CHANGED, &prev_coords);
 4400              		.loc 1 933 9 discriminator 3 view .LVU1290
 4401 003a 3146     		mov	r1, r6
 4402 003c 1430     		adds	r0, r0, #20
 4403 003e FFF7FEFF 		bl	lv_area_set_height
 4404              	.LVL412:
 934:Lib/lvgl/src/display/lv_display.c ****     }
 4405              		.loc 1 934 9 is_stmt 1 discriminator 3 view .LVU1291
 934:Lib/lvgl/src/display/lv_display.c ****     }
 4406              		.loc 1 934 31 is_stmt 0 discriminator 3 view .LVU1292
 4407 0042 D4F8AC32 		ldr	r3, [r4, #684]
 934:Lib/lvgl/src/display/lv_display.c ****     }
 4408              		.loc 1 934 9 discriminator 3 view .LVU1293
 4409 0046 6A46     		mov	r2, sp
 4410 0048 2B21     		movs	r1, #43
ARM GAS  C:\Users\Alex\AppData\Local\Temp\cc0G22cc.s 			page 132


 4411 004a 53F82500 		ldr	r0, [r3, r5, lsl #2]
 4412 004e FFF7FEFF 		bl	lv_obj_send_event
 4413              	.LVL413:
 931:Lib/lvgl/src/display/lv_display.c ****         lv_area_set_width(&disp->screens[i]->coords, hor_res);
 4414              		.loc 1 931 39 is_stmt 1 discriminator 3 view .LVU1294
 4415 0052 0135     		adds	r5, r5, #1
 4416              	.LVL414:
 4417              	.L310:
 931:Lib/lvgl/src/display/lv_display.c ****         lv_area_set_width(&disp->screens[i]->coords, hor_res);
 4418              		.loc 1 931 18 discriminator 1 view .LVU1295
 931:Lib/lvgl/src/display/lv_display.c ****         lv_area_set_width(&disp->screens[i]->coords, hor_res);
 4419              		.loc 1 931 24 is_stmt 0 discriminator 1 view .LVU1296
 4420 0054 D4F8C832 		ldr	r3, [r4, #712]
 931:Lib/lvgl/src/display/lv_display.c ****         lv_area_set_width(&disp->screens[i]->coords, hor_res);
 4421              		.loc 1 931 18 discriminator 1 view .LVU1297
 4422 0058 AB42     		cmp	r3, r5
 4423 005a E2D8     		bhi	.L311
 937:Lib/lvgl/src/display/lv_display.c ****     lv_area_set_height(&disp->top_layer->coords, ver_res);
 4424              		.loc 1 937 5 is_stmt 1 view .LVU1298
 937:Lib/lvgl/src/display/lv_display.c ****     lv_area_set_height(&disp->top_layer->coords, ver_res);
 4425              		.loc 1 937 28 is_stmt 0 view .LVU1299
 4426 005c D4F8C002 		ldr	r0, [r4, #704]
 937:Lib/lvgl/src/display/lv_display.c ****     lv_area_set_height(&disp->top_layer->coords, ver_res);
 4427              		.loc 1 937 5 view .LVU1300
 4428 0060 3946     		mov	r1, r7
 4429 0062 1430     		adds	r0, r0, #20
 4430 0064 FFF7FEFF 		bl	lv_area_set_width
 4431              	.LVL415:
 938:Lib/lvgl/src/display/lv_display.c ****     lv_obj_send_event(disp->top_layer, LV_EVENT_SIZE_CHANGED, &prev_coords);
 4432              		.loc 1 938 5 is_stmt 1 view .LVU1301
 938:Lib/lvgl/src/display/lv_display.c ****     lv_obj_send_event(disp->top_layer, LV_EVENT_SIZE_CHANGED, &prev_coords);
 4433              		.loc 1 938 29 is_stmt 0 view .LVU1302
 4434 0068 D4F8C002 		ldr	r0, [r4, #704]
 938:Lib/lvgl/src/display/lv_display.c ****     lv_obj_send_event(disp->top_layer, LV_EVENT_SIZE_CHANGED, &prev_coords);
 4435              		.loc 1 938 5 view .LVU1303
 4436 006c 3146     		mov	r1, r6
 4437 006e 1430     		adds	r0, r0, #20
 4438 0070 FFF7FEFF 		bl	lv_area_set_height
 4439              	.LVL416:
 939:Lib/lvgl/src/display/lv_display.c **** 
 4440              		.loc 1 939 5 is_stmt 1 view .LVU1304
 4441 0074 6A46     		mov	r2, sp
 4442 0076 2B21     		movs	r1, #43
 4443 0078 D4F8C002 		ldr	r0, [r4, #704]
 4444 007c FFF7FEFF 		bl	lv_obj_send_event
 4445              	.LVL417:
 941:Lib/lvgl/src/display/lv_display.c ****     lv_area_set_height(&disp->sys_layer->coords, ver_res);
 4446              		.loc 1 941 5 view .LVU1305
 941:Lib/lvgl/src/display/lv_display.c ****     lv_area_set_height(&disp->sys_layer->coords, ver_res);
 4447              		.loc 1 941 28 is_stmt 0 view .LVU1306
 4448 0080 D4F8C402 		ldr	r0, [r4, #708]
 941:Lib/lvgl/src/display/lv_display.c ****     lv_area_set_height(&disp->sys_layer->coords, ver_res);
 4449              		.loc 1 941 5 view .LVU1307
 4450 0084 3946     		mov	r1, r7
 4451 0086 1430     		adds	r0, r0, #20
 4452 0088 FFF7FEFF 		bl	lv_area_set_width
 4453              	.LVL418:
ARM GAS  C:\Users\Alex\AppData\Local\Temp\cc0G22cc.s 			page 133


 942:Lib/lvgl/src/display/lv_display.c ****     lv_obj_send_event(disp->sys_layer, LV_EVENT_SIZE_CHANGED, &prev_coords);
 4454              		.loc 1 942 5 is_stmt 1 view .LVU1308
 942:Lib/lvgl/src/display/lv_display.c ****     lv_obj_send_event(disp->sys_layer, LV_EVENT_SIZE_CHANGED, &prev_coords);
 4455              		.loc 1 942 29 is_stmt 0 view .LVU1309
 4456 008c D4F8C402 		ldr	r0, [r4, #708]
 942:Lib/lvgl/src/display/lv_display.c ****     lv_obj_send_event(disp->sys_layer, LV_EVENT_SIZE_CHANGED, &prev_coords);
 4457              		.loc 1 942 5 view .LVU1310
 4458 0090 3146     		mov	r1, r6
 4459 0092 1430     		adds	r0, r0, #20
 4460 0094 FFF7FEFF 		bl	lv_area_set_height
 4461              	.LVL419:
 943:Lib/lvgl/src/display/lv_display.c **** 
 4462              		.loc 1 943 5 is_stmt 1 view .LVU1311
 4463 0098 6A46     		mov	r2, sp
 4464 009a 2B21     		movs	r1, #43
 4465 009c D4F8C402 		ldr	r0, [r4, #708]
 4466 00a0 FFF7FEFF 		bl	lv_obj_send_event
 4467              	.LVL420:
 945:Lib/lvgl/src/display/lv_display.c ****     lv_area_set_height(&disp->bottom_layer->coords, ver_res);
 4468              		.loc 1 945 5 view .LVU1312
 945:Lib/lvgl/src/display/lv_display.c ****     lv_area_set_height(&disp->bottom_layer->coords, ver_res);
 4469              		.loc 1 945 28 is_stmt 0 view .LVU1313
 4470 00a4 D4F8BC02 		ldr	r0, [r4, #700]
 945:Lib/lvgl/src/display/lv_display.c ****     lv_area_set_height(&disp->bottom_layer->coords, ver_res);
 4471              		.loc 1 945 5 view .LVU1314
 4472 00a8 3946     		mov	r1, r7
 4473 00aa 1430     		adds	r0, r0, #20
 4474 00ac FFF7FEFF 		bl	lv_area_set_width
 4475              	.LVL421:
 946:Lib/lvgl/src/display/lv_display.c ****     lv_obj_send_event(disp->bottom_layer, LV_EVENT_SIZE_CHANGED, &prev_coords);
 4476              		.loc 1 946 5 is_stmt 1 view .LVU1315
 946:Lib/lvgl/src/display/lv_display.c ****     lv_obj_send_event(disp->bottom_layer, LV_EVENT_SIZE_CHANGED, &prev_coords);
 4477              		.loc 1 946 29 is_stmt 0 view .LVU1316
 4478 00b0 D4F8BC02 		ldr	r0, [r4, #700]
 946:Lib/lvgl/src/display/lv_display.c ****     lv_obj_send_event(disp->bottom_layer, LV_EVENT_SIZE_CHANGED, &prev_coords);
 4479              		.loc 1 946 5 view .LVU1317
 4480 00b4 3146     		mov	r1, r6
 4481 00b6 1430     		adds	r0, r0, #20
 4482 00b8 FFF7FEFF 		bl	lv_area_set_height
 4483              	.LVL422:
 947:Lib/lvgl/src/display/lv_display.c **** 
 4484              		.loc 1 947 5 is_stmt 1 view .LVU1318
 4485 00bc 6A46     		mov	r2, sp
 4486 00be 2B21     		movs	r1, #43
 4487 00c0 D4F8BC02 		ldr	r0, [r4, #700]
 4488 00c4 FFF7FEFF 		bl	lv_obj_send_event
 4489              	.LVL423:
 949:Lib/lvgl/src/display/lv_display.c ****     lv_memzero(disp->inv_area_joined, sizeof(disp->inv_area_joined));
 4490              		.loc 1 949 5 view .LVU1319
 4491              	.LBB203:
 4492              	.LBI203:
  65:c:\users\alex\eclipse-workspace\lvgs_test\lib\lvgl\src\stdlib\lv_string.h **** {
 4493              		.loc 4 65 20 view .LVU1320
 4494              	.LBB204:
 4495              		.loc 4 67 5 view .LVU1321
 4496 00c8 4FF40072 		mov	r2, #512
 4497 00cc 0021     		movs	r1, #0
ARM GAS  C:\Users\Alex\AppData\Local\Temp\cc0G22cc.s 			page 134


 4498 00ce 04F13C00 		add	r0, r4, #60
 4499              	.LVL424:
 4500              		.loc 4 67 5 is_stmt 0 view .LVU1322
 4501 00d2 FFF7FEFF 		bl	lv_memset
 4502              	.LVL425:
 4503              		.loc 4 67 5 view .LVU1323
 4504              	.LBE204:
 4505              	.LBE203:
 950:Lib/lvgl/src/display/lv_display.c ****     disp->inv_p = 0;
 4506              		.loc 1 950 5 is_stmt 1 view .LVU1324
 4507              	.LBB205:
 4508              	.LBI205:
  65:c:\users\alex\eclipse-workspace\lvgs_test\lib\lvgl\src\stdlib\lv_string.h **** {
 4509              		.loc 4 65 20 view .LVU1325
 4510              	.LBB206:
 4511              		.loc 4 67 5 view .LVU1326
 4512 00d6 2022     		movs	r2, #32
 4513 00d8 0021     		movs	r1, #0
 4514 00da 04F50F70 		add	r0, r4, #572
 4515              	.LVL426:
 4516              		.loc 4 67 5 is_stmt 0 view .LVU1327
 4517 00de FFF7FEFF 		bl	lv_memset
 4518              	.LVL427:
 4519              		.loc 4 67 5 view .LVU1328
 4520              	.LBE206:
 4521              	.LBE205:
 951:Lib/lvgl/src/display/lv_display.c ****     lv_obj_invalidate(disp->sys_layer);
 4522              		.loc 1 951 5 is_stmt 1 view .LVU1329
 951:Lib/lvgl/src/display/lv_display.c ****     lv_obj_invalidate(disp->sys_layer);
 4523              		.loc 1 951 17 is_stmt 0 view .LVU1330
 4524 00e2 0025     		movs	r5, #0
 4525              	.LVL428:
 951:Lib/lvgl/src/display/lv_display.c ****     lv_obj_invalidate(disp->sys_layer);
 4526              		.loc 1 951 17 view .LVU1331
 4527 00e4 C4F85C52 		str	r5, [r4, #604]
 952:Lib/lvgl/src/display/lv_display.c **** 
 4528              		.loc 1 952 5 is_stmt 1 view .LVU1332
 4529 00e8 D4F8C402 		ldr	r0, [r4, #708]
 4530 00ec FFF7FEFF 		bl	lv_obj_invalidate
 4531              	.LVL429:
 954:Lib/lvgl/src/display/lv_display.c **** 
 4532              		.loc 1 954 5 view .LVU1333
 4533 00f0 2A46     		mov	r2, r5
 4534 00f2 0549     		ldr	r1, .L313
 4535 00f4 2846     		mov	r0, r5
 4536 00f6 FFF7FEFF 		bl	lv_obj_tree_walk
 4537              	.LVL430:
 956:Lib/lvgl/src/display/lv_display.c **** }
 4538              		.loc 1 956 5 view .LVU1334
 4539 00fa 2A46     		mov	r2, r5
 4540 00fc 3021     		movs	r1, #48
 4541 00fe 2046     		mov	r0, r4
 4542 0100 FFF7FEFF 		bl	lv_display_send_event
 4543              	.LVL431:
 957:Lib/lvgl/src/display/lv_display.c **** 
 4544              		.loc 1 957 1 is_stmt 0 view .LVU1335
 4545 0104 05B0     		add	sp, sp, #20
ARM GAS  C:\Users\Alex\AppData\Local\Temp\cc0G22cc.s 			page 135


 4546              	.LCFI66:
 4547              		.cfi_def_cfa_offset 20
 4548              		@ sp needed
 4549 0106 F0BD     		pop	{r4, r5, r6, r7, pc}
 4550              	.LVL432:
 4551              	.L314:
 957:Lib/lvgl/src/display/lv_display.c **** 
 4552              		.loc 1 957 1 view .LVU1336
 4553              		.align	2
 4554              	.L313:
 4555 0108 00000000 		.word	invalidate_layout_cb
 4556              		.cfi_endproc
 4557              	.LFE289:
 4559              		.section	.text.lv_display_set_resolution,"ax",%progbits
 4560              		.align	1
 4561              		.global	lv_display_set_resolution
 4562              		.syntax unified
 4563              		.thumb
 4564              		.thumb_func
 4566              	lv_display_set_resolution:
 4567              	.LVL433:
 4568              	.LFB239:
 219:Lib/lvgl/src/display/lv_display.c ****     if(disp == NULL) disp = lv_display_get_default();
 4569              		.loc 1 219 1 is_stmt 1 view -0
 4570              		.cfi_startproc
 4571              		@ args = 0, pretend = 0, frame = 0
 4572              		@ frame_needed = 0, uses_anonymous_args = 0
 219:Lib/lvgl/src/display/lv_display.c ****     if(disp == NULL) disp = lv_display_get_default();
 4573              		.loc 1 219 1 is_stmt 0 view .LVU1338
 4574 0000 38B5     		push	{r3, r4, r5, lr}
 4575              	.LCFI67:
 4576              		.cfi_def_cfa_offset 16
 4577              		.cfi_offset 3, -16
 4578              		.cfi_offset 4, -12
 4579              		.cfi_offset 5, -8
 4580              		.cfi_offset 14, -4
 4581 0002 0C46     		mov	r4, r1
 4582 0004 1546     		mov	r5, r2
 220:Lib/lvgl/src/display/lv_display.c ****     if(disp == NULL) return;
 4583              		.loc 1 220 5 is_stmt 1 view .LVU1339
 220:Lib/lvgl/src/display/lv_display.c ****     if(disp == NULL) return;
 4584              		.loc 1 220 7 is_stmt 0 view .LVU1340
 4585 0006 0346     		mov	r3, r0
 4586 0008 58B1     		cbz	r0, .L320
 4587              	.LVL434:
 4588              	.L316:
 223:Lib/lvgl/src/display/lv_display.c **** 
 4589              		.loc 1 223 5 is_stmt 1 view .LVU1341
 223:Lib/lvgl/src/display/lv_display.c **** 
 4590              		.loc 1 223 12 is_stmt 0 view .LVU1342
 4591 000a 1A68     		ldr	r2, [r3]
 223:Lib/lvgl/src/display/lv_display.c **** 
 4592              		.loc 1 223 7 view .LVU1343
 4593 000c A242     		cmp	r2, r4
 4594 000e 02D1     		bne	.L318
 223:Lib/lvgl/src/display/lv_display.c **** 
 4595              		.loc 1 223 40 discriminator 1 view .LVU1344
ARM GAS  C:\Users\Alex\AppData\Local\Temp\cc0G22cc.s 			page 136


 4596 0010 5A68     		ldr	r2, [r3, #4]
 223:Lib/lvgl/src/display/lv_display.c **** 
 4597              		.loc 1 223 33 discriminator 1 view .LVU1345
 4598 0012 AA42     		cmp	r2, r5
 4599 0014 04D0     		beq	.L315
 4600              	.L318:
 225:Lib/lvgl/src/display/lv_display.c ****     disp->ver_res = ver_res;
 4601              		.loc 1 225 5 is_stmt 1 view .LVU1346
 225:Lib/lvgl/src/display/lv_display.c ****     disp->ver_res = ver_res;
 4602              		.loc 1 225 19 is_stmt 0 view .LVU1347
 4603 0016 1C60     		str	r4, [r3]
 226:Lib/lvgl/src/display/lv_display.c **** 
 4604              		.loc 1 226 5 is_stmt 1 view .LVU1348
 226:Lib/lvgl/src/display/lv_display.c **** 
 4605              		.loc 1 226 19 is_stmt 0 view .LVU1349
 4606 0018 5D60     		str	r5, [r3, #4]
 228:Lib/lvgl/src/display/lv_display.c **** }
 4607              		.loc 1 228 5 is_stmt 1 view .LVU1350
 4608 001a 1846     		mov	r0, r3
 4609 001c FFF7FEFF 		bl	update_resolution
 4610              	.LVL435:
 4611              	.L315:
 229:Lib/lvgl/src/display/lv_display.c **** 
 4612              		.loc 1 229 1 is_stmt 0 view .LVU1351
 4613 0020 38BD     		pop	{r3, r4, r5, pc}
 4614              	.LVL436:
 4615              	.L320:
 220:Lib/lvgl/src/display/lv_display.c ****     if(disp == NULL) return;
 4616              		.loc 1 220 22 is_stmt 1 discriminator 1 view .LVU1352
 220:Lib/lvgl/src/display/lv_display.c ****     if(disp == NULL) return;
 4617              		.loc 1 220 29 is_stmt 0 discriminator 1 view .LVU1353
 4618 0022 FFF7FEFF 		bl	lv_display_get_default
 4619              	.LVL437:
 221:Lib/lvgl/src/display/lv_display.c **** 
 4620              		.loc 1 221 5 is_stmt 1 discriminator 1 view .LVU1354
 221:Lib/lvgl/src/display/lv_display.c **** 
 4621              		.loc 1 221 7 is_stmt 0 discriminator 1 view .LVU1355
 4622 0026 0346     		mov	r3, r0
 4623 0028 0028     		cmp	r0, #0
 4624 002a EED1     		bne	.L316
 4625 002c F8E7     		b	.L315
 4626              		.cfi_endproc
 4627              	.LFE239:
 4629              		.section	.text.lv_display_set_color_format,"ax",%progbits
 4630              		.align	1
 4631              		.global	lv_display_set_color_format
 4632              		.syntax unified
 4633              		.thumb
 4634              		.thumb_func
 4636              	lv_display_set_color_format:
 4637              	.LVL438:
 4638              	.LFB255:
 453:Lib/lvgl/src/display/lv_display.c ****     if(disp == NULL) disp = lv_display_get_default();
 4639              		.loc 1 453 1 is_stmt 1 view -0
 4640              		.cfi_startproc
 4641              		@ args = 0, pretend = 0, frame = 0
 4642              		@ frame_needed = 0, uses_anonymous_args = 0
ARM GAS  C:\Users\Alex\AppData\Local\Temp\cc0G22cc.s 			page 137


 453:Lib/lvgl/src/display/lv_display.c ****     if(disp == NULL) disp = lv_display_get_default();
 4643              		.loc 1 453 1 is_stmt 0 view .LVU1357
 4644 0000 10B5     		push	{r4, lr}
 4645              	.LCFI68:
 4646              		.cfi_def_cfa_offset 8
 4647              		.cfi_offset 4, -8
 4648              		.cfi_offset 14, -4
 4649 0002 0C46     		mov	r4, r1
 454:Lib/lvgl/src/display/lv_display.c ****     if(disp == NULL) return;
 4650              		.loc 1 454 5 is_stmt 1 view .LVU1358
 454:Lib/lvgl/src/display/lv_display.c ****     if(disp == NULL) return;
 4651              		.loc 1 454 7 is_stmt 0 view .LVU1359
 4652 0004 0346     		mov	r3, r0
 4653 0006 50B1     		cbz	r0, .L325
 4654              	.LVL439:
 4655              	.L322:
 457:Lib/lvgl/src/display/lv_display.c ****     disp->layer_head->color_format = color_format;
 4656              		.loc 1 457 5 is_stmt 1 view .LVU1360
 457:Lib/lvgl/src/display/lv_display.c ****     disp->layer_head->color_format = color_format;
 4657              		.loc 1 457 24 is_stmt 0 view .LVU1361
 4658 0008 83F83B40 		strb	r4, [r3, #59]
 458:Lib/lvgl/src/display/lv_display.c **** 
 4659              		.loc 1 458 5 is_stmt 1 view .LVU1362
 458:Lib/lvgl/src/display/lv_display.c **** 
 4660              		.loc 1 458 9 is_stmt 0 view .LVU1363
 4661 000c D3F8A022 		ldr	r2, [r3, #672]
 458:Lib/lvgl/src/display/lv_display.c **** 
 4662              		.loc 1 458 36 view .LVU1364
 4663 0010 1475     		strb	r4, [r2, #20]
 460:Lib/lvgl/src/display/lv_display.c **** }
 4664              		.loc 1 460 5 is_stmt 1 view .LVU1365
 4665 0012 0022     		movs	r2, #0
 4666 0014 3121     		movs	r1, #49
 4667 0016 1846     		mov	r0, r3
 4668 0018 FFF7FEFF 		bl	lv_display_send_event
 4669              	.LVL440:
 4670              	.L321:
 461:Lib/lvgl/src/display/lv_display.c **** 
 4671              		.loc 1 461 1 is_stmt 0 view .LVU1366
 4672 001c 10BD     		pop	{r4, pc}
 4673              	.LVL441:
 4674              	.L325:
 454:Lib/lvgl/src/display/lv_display.c ****     if(disp == NULL) return;
 4675              		.loc 1 454 22 is_stmt 1 discriminator 1 view .LVU1367
 454:Lib/lvgl/src/display/lv_display.c ****     if(disp == NULL) return;
 4676              		.loc 1 454 29 is_stmt 0 discriminator 1 view .LVU1368
 4677 001e FFF7FEFF 		bl	lv_display_get_default
 4678              	.LVL442:
 455:Lib/lvgl/src/display/lv_display.c **** 
 4679              		.loc 1 455 5 is_stmt 1 discriminator 1 view .LVU1369
 455:Lib/lvgl/src/display/lv_display.c **** 
 4680              		.loc 1 455 7 is_stmt 0 discriminator 1 view .LVU1370
 4681 0022 0346     		mov	r3, r0
 4682 0024 0028     		cmp	r0, #0
 4683 0026 EFD1     		bne	.L322
 4684 0028 F8E7     		b	.L321
 4685              		.cfi_endproc
ARM GAS  C:\Users\Alex\AppData\Local\Temp\cc0G22cc.s 			page 138


 4686              	.LFE255:
 4688              		.section	.text.lv_display_set_rotation,"ax",%progbits
 4689              		.align	1
 4690              		.global	lv_display_set_rotation
 4691              		.syntax unified
 4692              		.thumb
 4693              		.thumb_func
 4695              	lv_display_set_rotation:
 4696              	.LVL443:
 4697              	.LFB275:
 784:Lib/lvgl/src/display/lv_display.c ****     if(disp == NULL) disp = lv_display_get_default();
 4698              		.loc 1 784 1 is_stmt 1 view -0
 4699              		.cfi_startproc
 4700              		@ args = 0, pretend = 0, frame = 0
 4701              		@ frame_needed = 0, uses_anonymous_args = 0
 784:Lib/lvgl/src/display/lv_display.c ****     if(disp == NULL) disp = lv_display_get_default();
 4702              		.loc 1 784 1 is_stmt 0 view .LVU1372
 4703 0000 10B5     		push	{r4, lr}
 4704              	.LCFI69:
 4705              		.cfi_def_cfa_offset 8
 4706              		.cfi_offset 4, -8
 4707              		.cfi_offset 14, -4
 4708 0002 0C46     		mov	r4, r1
 785:Lib/lvgl/src/display/lv_display.c ****     if(disp == NULL) return;
 4709              		.loc 1 785 5 is_stmt 1 view .LVU1373
 785:Lib/lvgl/src/display/lv_display.c ****     if(disp == NULL) return;
 4710              		.loc 1 785 7 is_stmt 0 view .LVU1374
 4711 0004 0346     		mov	r3, r0
 4712 0006 48B1     		cbz	r0, .L330
 4713              	.LVL444:
 4714              	.L327:
 788:Lib/lvgl/src/display/lv_display.c ****     update_resolution(disp);
 4715              		.loc 1 788 5 is_stmt 1 view .LVU1375
 788:Lib/lvgl/src/display/lv_display.c ****     update_resolution(disp);
 4716              		.loc 1 788 20 is_stmt 0 view .LVU1376
 4717 0008 93F8E822 		ldrb	r2, [r3, #744]	@ zero_extendqisi2
 4718 000c 64F34202 		bfi	r2, r4, #1, #2
 4719 0010 83F8E822 		strb	r2, [r3, #744]
 789:Lib/lvgl/src/display/lv_display.c **** }
 4720              		.loc 1 789 5 is_stmt 1 view .LVU1377
 4721 0014 1846     		mov	r0, r3
 4722 0016 FFF7FEFF 		bl	update_resolution
 4723              	.LVL445:
 4724              	.L326:
 790:Lib/lvgl/src/display/lv_display.c **** 
 4725              		.loc 1 790 1 is_stmt 0 view .LVU1378
 4726 001a 10BD     		pop	{r4, pc}
 4727              	.LVL446:
 4728              	.L330:
 785:Lib/lvgl/src/display/lv_display.c ****     if(disp == NULL) return;
 4729              		.loc 1 785 22 is_stmt 1 discriminator 1 view .LVU1379
 785:Lib/lvgl/src/display/lv_display.c ****     if(disp == NULL) return;
 4730              		.loc 1 785 29 is_stmt 0 discriminator 1 view .LVU1380
 4731 001c FFF7FEFF 		bl	lv_display_get_default
 4732              	.LVL447:
 786:Lib/lvgl/src/display/lv_display.c **** 
 4733              		.loc 1 786 5 is_stmt 1 discriminator 1 view .LVU1381
ARM GAS  C:\Users\Alex\AppData\Local\Temp\cc0G22cc.s 			page 139


 786:Lib/lvgl/src/display/lv_display.c **** 
 4734              		.loc 1 786 7 is_stmt 0 discriminator 1 view .LVU1382
 4735 0020 0346     		mov	r3, r0
 4736 0022 0028     		cmp	r0, #0
 4737 0024 F0D1     		bne	.L327
 4738 0026 F8E7     		b	.L326
 4739              		.cfi_endproc
 4740              	.LFE275:
 4742              		.section	.text.lv_display_get_rotation,"ax",%progbits
 4743              		.align	1
 4744              		.global	lv_display_get_rotation
 4745              		.syntax unified
 4746              		.thumb
 4747              		.thumb_func
 4749              	lv_display_get_rotation:
 4750              	.LVL448:
 4751              	.LFB276:
 793:Lib/lvgl/src/display/lv_display.c ****     if(disp == NULL) disp = lv_display_get_default();
 4752              		.loc 1 793 1 is_stmt 1 view -0
 4753              		.cfi_startproc
 4754              		@ args = 0, pretend = 0, frame = 0
 4755              		@ frame_needed = 0, uses_anonymous_args = 0
 793:Lib/lvgl/src/display/lv_display.c ****     if(disp == NULL) disp = lv_display_get_default();
 4756              		.loc 1 793 1 is_stmt 0 view .LVU1384
 4757 0000 08B5     		push	{r3, lr}
 4758              	.LCFI70:
 4759              		.cfi_def_cfa_offset 8
 4760              		.cfi_offset 3, -8
 4761              		.cfi_offset 14, -4
 794:Lib/lvgl/src/display/lv_display.c ****     if(disp == NULL) return LV_DISPLAY_ROTATION_0;
 4762              		.loc 1 794 5 is_stmt 1 view .LVU1385
 794:Lib/lvgl/src/display/lv_display.c ****     if(disp == NULL) return LV_DISPLAY_ROTATION_0;
 4763              		.loc 1 794 7 is_stmt 0 view .LVU1386
 4764 0002 0346     		mov	r3, r0
 4765 0004 20B1     		cbz	r0, .L336
 4766              	.L332:
 4767              	.LVL449:
 796:Lib/lvgl/src/display/lv_display.c **** }
 4768              		.loc 1 796 5 is_stmt 1 view .LVU1387
 796:Lib/lvgl/src/display/lv_display.c **** }
 4769              		.loc 1 796 16 is_stmt 0 view .LVU1388
 4770 0006 93F8E802 		ldrb	r0, [r3, #744]	@ zero_extendqisi2
 4771 000a C0F34100 		ubfx	r0, r0, #1, #2
 4772              	.L333:
 797:Lib/lvgl/src/display/lv_display.c **** 
 4773              		.loc 1 797 1 view .LVU1389
 4774 000e 08BD     		pop	{r3, pc}
 4775              	.LVL450:
 4776              	.L336:
 794:Lib/lvgl/src/display/lv_display.c ****     if(disp == NULL) return LV_DISPLAY_ROTATION_0;
 4777              		.loc 1 794 22 is_stmt 1 discriminator 1 view .LVU1390
 794:Lib/lvgl/src/display/lv_display.c ****     if(disp == NULL) return LV_DISPLAY_ROTATION_0;
 4778              		.loc 1 794 29 is_stmt 0 discriminator 1 view .LVU1391
 4779 0010 FFF7FEFF 		bl	lv_display_get_default
 4780              	.LVL451:
 795:Lib/lvgl/src/display/lv_display.c ****     return disp->rotation;
 4781              		.loc 1 795 5 is_stmt 1 discriminator 1 view .LVU1392
ARM GAS  C:\Users\Alex\AppData\Local\Temp\cc0G22cc.s 			page 140


 795:Lib/lvgl/src/display/lv_display.c ****     return disp->rotation;
 4782              		.loc 1 795 7 is_stmt 0 discriminator 1 view .LVU1393
 4783 0014 0346     		mov	r3, r0
 4784 0016 0028     		cmp	r0, #0
 4785 0018 F5D1     		bne	.L332
 795:Lib/lvgl/src/display/lv_display.c ****     return disp->rotation;
 4786              		.loc 1 795 29 view .LVU1394
 4787 001a 0020     		movs	r0, #0
 4788              	.LVL452:
 795:Lib/lvgl/src/display/lv_display.c ****     return disp->rotation;
 4789              		.loc 1 795 29 view .LVU1395
 4790 001c F7E7     		b	.L333
 4791              		.cfi_endproc
 4792              	.LFE276:
 4794              		.section	.text.lv_display_set_theme,"ax",%progbits
 4795              		.align	1
 4796              		.global	lv_display_set_theme
 4797              		.syntax unified
 4798              		.thumb
 4799              		.thumb_func
 4801              	lv_display_set_theme:
 4802              	.LVL453:
 4803              	.LFB277:
 800:Lib/lvgl/src/display/lv_display.c ****     if(!disp) disp = lv_display_get_default();
 4804              		.loc 1 800 1 is_stmt 1 view -0
 4805              		.cfi_startproc
 4806              		@ args = 0, pretend = 0, frame = 0
 4807              		@ frame_needed = 0, uses_anonymous_args = 0
 800:Lib/lvgl/src/display/lv_display.c ****     if(!disp) disp = lv_display_get_default();
 4808              		.loc 1 800 1 is_stmt 0 view .LVU1397
 4809 0000 38B5     		push	{r3, r4, r5, lr}
 4810              	.LCFI71:
 4811              		.cfi_def_cfa_offset 16
 4812              		.cfi_offset 3, -16
 4813              		.cfi_offset 4, -12
 4814              		.cfi_offset 5, -8
 4815              		.cfi_offset 14, -4
 4816 0002 0C46     		mov	r4, r1
 801:Lib/lvgl/src/display/lv_display.c ****     if(!disp) {
 4817              		.loc 1 801 5 is_stmt 1 view .LVU1398
 801:Lib/lvgl/src/display/lv_display.c ****     if(!disp) {
 4818              		.loc 1 801 7 is_stmt 0 view .LVU1399
 4819 0004 0546     		mov	r5, r0
 4820 0006 30B1     		cbz	r0, .L341
 4821              	.LVL454:
 4822              	.L338:
 807:Lib/lvgl/src/display/lv_display.c **** 
 4823              		.loc 1 807 5 is_stmt 1 view .LVU1400
 807:Lib/lvgl/src/display/lv_display.c **** 
 4824              		.loc 1 807 17 is_stmt 0 view .LVU1401
 4825 0008 C5F8EC42 		str	r4, [r5, #748]
 809:Lib/lvgl/src/display/lv_display.c ****        lv_obj_get_child_count(disp->screens[0]) == 0 &&
 4826              		.loc 1 809 5 is_stmt 1 view .LVU1402
 809:Lib/lvgl/src/display/lv_display.c ****        lv_obj_get_child_count(disp->screens[0]) == 0 &&
 4827              		.loc 1 809 12 is_stmt 0 view .LVU1403
 4828 000c D5F8C832 		ldr	r3, [r5, #712]
 809:Lib/lvgl/src/display/lv_display.c ****        lv_obj_get_child_count(disp->screens[0]) == 0 &&
ARM GAS  C:\Users\Alex\AppData\Local\Temp\cc0G22cc.s 			page 141


 4829              		.loc 1 809 7 view .LVU1404
 4830 0010 042B     		cmp	r3, #4
 4831 0012 06D0     		beq	.L342
 4832              	.L337:
 815:Lib/lvgl/src/display/lv_display.c **** 
 4833              		.loc 1 815 1 view .LVU1405
 4834 0014 38BD     		pop	{r3, r4, r5, pc}
 4835              	.LVL455:
 4836              	.L341:
 801:Lib/lvgl/src/display/lv_display.c ****     if(!disp) {
 4837              		.loc 1 801 15 is_stmt 1 discriminator 1 view .LVU1406
 801:Lib/lvgl/src/display/lv_display.c ****     if(!disp) {
 4838              		.loc 1 801 22 is_stmt 0 discriminator 1 view .LVU1407
 4839 0016 FFF7FEFF 		bl	lv_display_get_default
 4840              	.LVL456:
 802:Lib/lvgl/src/display/lv_display.c ****         LV_LOG_WARN("no display registered");
 4841              		.loc 1 802 5 is_stmt 1 discriminator 1 view .LVU1408
 802:Lib/lvgl/src/display/lv_display.c ****         LV_LOG_WARN("no display registered");
 4842              		.loc 1 802 7 is_stmt 0 discriminator 1 view .LVU1409
 4843 001a 0546     		mov	r5, r0
 4844 001c 0028     		cmp	r0, #0
 4845 001e F3D1     		bne	.L338
 4846 0020 F8E7     		b	.L337
 4847              	.LVL457:
 4848              	.L342:
 810:Lib/lvgl/src/display/lv_display.c ****        lv_obj_get_child_count(disp->screens[1]) == 0 &&
 4849              		.loc 1 810 35 discriminator 1 view .LVU1410
 4850 0022 D5F8AC32 		ldr	r3, [r5, #684]
 810:Lib/lvgl/src/display/lv_display.c ****        lv_obj_get_child_count(disp->screens[1]) == 0 &&
 4851              		.loc 1 810 8 discriminator 1 view .LVU1411
 4852 0026 1868     		ldr	r0, [r3]
 4853 0028 FFF7FEFF 		bl	lv_obj_get_child_count
 4854              	.LVL458:
 809:Lib/lvgl/src/display/lv_display.c ****        lv_obj_get_child_count(disp->screens[0]) == 0 &&
 4855              		.loc 1 809 30 discriminator 1 view .LVU1412
 4856 002c 0028     		cmp	r0, #0
 4857 002e F1D1     		bne	.L337
 811:Lib/lvgl/src/display/lv_display.c ****        lv_obj_get_child_count(disp->screens[2]) == 0) {
 4858              		.loc 1 811 35 view .LVU1413
 4859 0030 D5F8AC32 		ldr	r3, [r5, #684]
 811:Lib/lvgl/src/display/lv_display.c ****        lv_obj_get_child_count(disp->screens[2]) == 0) {
 4860              		.loc 1 811 8 view .LVU1414
 4861 0034 5868     		ldr	r0, [r3, #4]
 4862 0036 FFF7FEFF 		bl	lv_obj_get_child_count
 4863              	.LVL459:
 810:Lib/lvgl/src/display/lv_display.c ****        lv_obj_get_child_count(disp->screens[1]) == 0 &&
 4864              		.loc 1 810 54 view .LVU1415
 4865 003a 0028     		cmp	r0, #0
 4866 003c EAD1     		bne	.L337
 812:Lib/lvgl/src/display/lv_display.c ****         lv_theme_apply(disp->screens[0]);
 4867              		.loc 1 812 35 view .LVU1416
 4868 003e D5F8AC32 		ldr	r3, [r5, #684]
 812:Lib/lvgl/src/display/lv_display.c ****         lv_theme_apply(disp->screens[0]);
 4869              		.loc 1 812 8 view .LVU1417
 4870 0042 9868     		ldr	r0, [r3, #8]
 4871 0044 FFF7FEFF 		bl	lv_obj_get_child_count
 4872              	.LVL460:
ARM GAS  C:\Users\Alex\AppData\Local\Temp\cc0G22cc.s 			page 142


 811:Lib/lvgl/src/display/lv_display.c ****        lv_obj_get_child_count(disp->screens[2]) == 0) {
 4873              		.loc 1 811 54 view .LVU1418
 4874 0048 0028     		cmp	r0, #0
 4875 004a E3D1     		bne	.L337
 813:Lib/lvgl/src/display/lv_display.c ****     }
 4876              		.loc 1 813 9 is_stmt 1 view .LVU1419
 813:Lib/lvgl/src/display/lv_display.c ****     }
 4877              		.loc 1 813 28 is_stmt 0 view .LVU1420
 4878 004c D5F8AC32 		ldr	r3, [r5, #684]
 813:Lib/lvgl/src/display/lv_display.c ****     }
 4879              		.loc 1 813 9 view .LVU1421
 4880 0050 1868     		ldr	r0, [r3]
 4881 0052 FFF7FEFF 		bl	lv_theme_apply
 4882              	.LVL461:
 4883 0056 DDE7     		b	.L337
 4884              		.cfi_endproc
 4885              	.LFE277:
 4887              		.section	.text.lv_display_get_theme,"ax",%progbits
 4888              		.align	1
 4889              		.global	lv_display_get_theme
 4890              		.syntax unified
 4891              		.thumb
 4892              		.thumb_func
 4894              	lv_display_get_theme:
 4895              	.LVL462:
 4896              	.LFB278:
 818:Lib/lvgl/src/display/lv_display.c ****     if(disp == NULL) disp = lv_display_get_default();
 4897              		.loc 1 818 1 is_stmt 1 view -0
 4898              		.cfi_startproc
 4899              		@ args = 0, pretend = 0, frame = 0
 4900              		@ frame_needed = 0, uses_anonymous_args = 0
 818:Lib/lvgl/src/display/lv_display.c ****     if(disp == NULL) disp = lv_display_get_default();
 4901              		.loc 1 818 1 is_stmt 0 view .LVU1423
 4902 0000 08B5     		push	{r3, lr}
 4903              	.LCFI72:
 4904              		.cfi_def_cfa_offset 8
 4905              		.cfi_offset 3, -8
 4906              		.cfi_offset 14, -4
 819:Lib/lvgl/src/display/lv_display.c ****     return disp->theme;
 4907              		.loc 1 819 5 is_stmt 1 view .LVU1424
 819:Lib/lvgl/src/display/lv_display.c ****     return disp->theme;
 4908              		.loc 1 819 7 is_stmt 0 view .LVU1425
 4909 0002 0346     		mov	r3, r0
 4910 0004 10B1     		cbz	r0, .L346
 4911              	.L344:
 820:Lib/lvgl/src/display/lv_display.c **** }
 4912              		.loc 1 820 5 is_stmt 1 view .LVU1426
 821:Lib/lvgl/src/display/lv_display.c **** 
 4913              		.loc 1 821 1 is_stmt 0 view .LVU1427
 4914 0006 D3F8EC02 		ldr	r0, [r3, #748]
 4915              	.LVL463:
 821:Lib/lvgl/src/display/lv_display.c **** 
 4916              		.loc 1 821 1 view .LVU1428
 4917 000a 08BD     		pop	{r3, pc}
 4918              	.LVL464:
 4919              	.L346:
 819:Lib/lvgl/src/display/lv_display.c ****     return disp->theme;
ARM GAS  C:\Users\Alex\AppData\Local\Temp\cc0G22cc.s 			page 143


 4920              		.loc 1 819 22 is_stmt 1 discriminator 1 view .LVU1429
 819:Lib/lvgl/src/display/lv_display.c ****     return disp->theme;
 4921              		.loc 1 819 29 is_stmt 0 discriminator 1 view .LVU1430
 4922 000c FFF7FEFF 		bl	lv_display_get_default
 4923              	.LVL465:
 819:Lib/lvgl/src/display/lv_display.c ****     return disp->theme;
 4924              		.loc 1 819 29 discriminator 1 view .LVU1431
 4925 0010 0346     		mov	r3, r0
 4926              	.LVL466:
 819:Lib/lvgl/src/display/lv_display.c ****     return disp->theme;
 4927              		.loc 1 819 29 discriminator 1 view .LVU1432
 4928 0012 F8E7     		b	.L344
 4929              		.cfi_endproc
 4930              	.LFE278:
 4932              		.section	.text.lv_display_get_inactive_time,"ax",%progbits
 4933              		.align	1
 4934              		.global	lv_display_get_inactive_time
 4935              		.syntax unified
 4936              		.thumb
 4937              		.thumb_func
 4939              	lv_display_get_inactive_time:
 4940              	.LVL467:
 4941              	.LFB279:
 824:Lib/lvgl/src/display/lv_display.c ****     if(disp) return lv_tick_elaps(disp->last_activity_time);
 4942              		.loc 1 824 1 is_stmt 1 view -0
 4943              		.cfi_startproc
 4944              		@ args = 0, pretend = 0, frame = 0
 4945              		@ frame_needed = 0, uses_anonymous_args = 0
 824:Lib/lvgl/src/display/lv_display.c ****     if(disp) return lv_tick_elaps(disp->last_activity_time);
 4946              		.loc 1 824 1 is_stmt 0 view .LVU1434
 4947 0000 38B5     		push	{r3, r4, r5, lr}
 4948              	.LCFI73:
 4949              		.cfi_def_cfa_offset 16
 4950              		.cfi_offset 3, -16
 4951              		.cfi_offset 4, -12
 4952              		.cfi_offset 5, -8
 4953              		.cfi_offset 14, -4
 825:Lib/lvgl/src/display/lv_display.c **** 
 4954              		.loc 1 825 5 is_stmt 1 view .LVU1435
 825:Lib/lvgl/src/display/lv_display.c **** 
 4955              		.loc 1 825 7 is_stmt 0 view .LVU1436
 4956 0002 30B1     		cbz	r0, .L348
 825:Lib/lvgl/src/display/lv_display.c **** 
 4957              		.loc 1 825 14 is_stmt 1 discriminator 1 view .LVU1437
 825:Lib/lvgl/src/display/lv_display.c **** 
 4958              		.loc 1 825 21 is_stmt 0 discriminator 1 view .LVU1438
 4959 0004 D0F8F402 		ldr	r0, [r0, #756]
 4960              	.LVL468:
 825:Lib/lvgl/src/display/lv_display.c **** 
 4961              		.loc 1 825 21 discriminator 1 view .LVU1439
 4962 0008 FFF7FEFF 		bl	lv_tick_elaps
 4963              	.LVL469:
 4964 000c 0546     		mov	r5, r0
 4965              	.L347:
 837:Lib/lvgl/src/display/lv_display.c **** 
 4966              		.loc 1 837 1 view .LVU1440
 4967 000e 2846     		mov	r0, r5
ARM GAS  C:\Users\Alex\AppData\Local\Temp\cc0G22cc.s 			page 144


 4968 0010 38BD     		pop	{r3, r4, r5, pc}
 4969              	.LVL470:
 4970              	.L348:
 827:Lib/lvgl/src/display/lv_display.c ****     uint32_t t = UINT32_MAX;
 4971              		.loc 1 827 5 is_stmt 1 view .LVU1441
 828:Lib/lvgl/src/display/lv_display.c ****     d          = lv_display_get_next(NULL);
 4972              		.loc 1 828 5 view .LVU1442
 829:Lib/lvgl/src/display/lv_display.c ****     while(d) {
 4973              		.loc 1 829 5 view .LVU1443
 829:Lib/lvgl/src/display/lv_display.c ****     while(d) {
 4974              		.loc 1 829 18 is_stmt 0 view .LVU1444
 4975 0012 0020     		movs	r0, #0
 4976              	.LVL471:
 829:Lib/lvgl/src/display/lv_display.c ****     while(d) {
 4977              		.loc 1 829 18 view .LVU1445
 4978 0014 FFF7FEFF 		bl	lv_display_get_next
 4979              	.LVL472:
 4980 0018 0446     		mov	r4, r0
 4981              	.LVL473:
 830:Lib/lvgl/src/display/lv_display.c ****         uint32_t elaps = lv_tick_elaps(d->last_activity_time);
 4982              		.loc 1 830 5 is_stmt 1 view .LVU1446
 828:Lib/lvgl/src/display/lv_display.c ****     d          = lv_display_get_next(NULL);
 4983              		.loc 1 828 14 is_stmt 0 view .LVU1447
 4984 001a 4FF0FF35 		mov	r5, #-1
 830:Lib/lvgl/src/display/lv_display.c ****         uint32_t elaps = lv_tick_elaps(d->last_activity_time);
 4985              		.loc 1 830 10 view .LVU1448
 4986 001e 0AE0     		b	.L350
 4987              	.LVL474:
 4988              	.L351:
 4989              	.LBB207:
 831:Lib/lvgl/src/display/lv_display.c ****         t = LV_MIN(t, elaps);
 4990              		.loc 1 831 9 is_stmt 1 view .LVU1449
 831:Lib/lvgl/src/display/lv_display.c ****         t = LV_MIN(t, elaps);
 4991              		.loc 1 831 26 is_stmt 0 view .LVU1450
 4992 0020 D4F8F402 		ldr	r0, [r4, #756]
 4993              	.LVL475:
 831:Lib/lvgl/src/display/lv_display.c ****         t = LV_MIN(t, elaps);
 4994              		.loc 1 831 26 view .LVU1451
 4995 0024 FFF7FEFF 		bl	lv_tick_elaps
 4996              	.LVL476:
 832:Lib/lvgl/src/display/lv_display.c ****         d = lv_display_get_next(d);
 4997              		.loc 1 832 9 is_stmt 1 view .LVU1452
 832:Lib/lvgl/src/display/lv_display.c ****         d = lv_display_get_next(d);
 4998              		.loc 1 832 11 is_stmt 0 view .LVU1453
 4999 0028 8542     		cmp	r5, r0
 5000 002a 28BF     		it	cs
 5001 002c 0546     		movcs	r5, r0
 5002              	.LVL477:
 833:Lib/lvgl/src/display/lv_display.c ****     }
 5003              		.loc 1 833 9 is_stmt 1 view .LVU1454
 833:Lib/lvgl/src/display/lv_display.c ****     }
 5004              		.loc 1 833 13 is_stmt 0 view .LVU1455
 5005 002e 2046     		mov	r0, r4
 5006              	.LVL478:
 833:Lib/lvgl/src/display/lv_display.c ****     }
 5007              		.loc 1 833 13 view .LVU1456
 5008 0030 FFF7FEFF 		bl	lv_display_get_next
ARM GAS  C:\Users\Alex\AppData\Local\Temp\cc0G22cc.s 			page 145


 5009              	.LVL479:
 5010 0034 0446     		mov	r4, r0
 5011              	.LVL480:
 5012              	.L350:
 833:Lib/lvgl/src/display/lv_display.c ****     }
 5013              		.loc 1 833 13 view .LVU1457
 5014              	.LBE207:
 830:Lib/lvgl/src/display/lv_display.c ****         uint32_t elaps = lv_tick_elaps(d->last_activity_time);
 5015              		.loc 1 830 11 is_stmt 1 view .LVU1458
 5016 0036 002C     		cmp	r4, #0
 5017 0038 F2D1     		bne	.L351
 830:Lib/lvgl/src/display/lv_display.c ****         uint32_t elaps = lv_tick_elaps(d->last_activity_time);
 5018              		.loc 1 830 11 is_stmt 0 view .LVU1459
 5019 003a E8E7     		b	.L347
 5020              		.cfi_endproc
 5021              	.LFE279:
 5023              		.section	.text.lv_display_trigger_activity,"ax",%progbits
 5024              		.align	1
 5025              		.global	lv_display_trigger_activity
 5026              		.syntax unified
 5027              		.thumb
 5028              		.thumb_func
 5030              	lv_display_trigger_activity:
 5031              	.LVL481:
 5032              	.LFB280:
 840:Lib/lvgl/src/display/lv_display.c ****     if(!disp) disp = lv_display_get_default();
 5033              		.loc 1 840 1 is_stmt 1 view -0
 5034              		.cfi_startproc
 5035              		@ args = 0, pretend = 0, frame = 0
 5036              		@ frame_needed = 0, uses_anonymous_args = 0
 840:Lib/lvgl/src/display/lv_display.c ****     if(!disp) disp = lv_display_get_default();
 5037              		.loc 1 840 1 is_stmt 0 view .LVU1461
 5038 0000 10B5     		push	{r4, lr}
 5039              	.LCFI74:
 5040              		.cfi_def_cfa_offset 8
 5041              		.cfi_offset 4, -8
 5042              		.cfi_offset 14, -4
 841:Lib/lvgl/src/display/lv_display.c ****     if(!disp) {
 5043              		.loc 1 841 5 is_stmt 1 view .LVU1462
 841:Lib/lvgl/src/display/lv_display.c ****     if(!disp) {
 5044              		.loc 1 841 7 is_stmt 0 view .LVU1463
 5045 0002 0446     		mov	r4, r0
 5046 0004 20B1     		cbz	r0, .L357
 5047              	.L354:
 5048              	.LVL482:
 847:Lib/lvgl/src/display/lv_display.c **** }
 5049              		.loc 1 847 5 is_stmt 1 view .LVU1464
 847:Lib/lvgl/src/display/lv_display.c **** }
 5050              		.loc 1 847 32 is_stmt 0 view .LVU1465
 5051 0006 FFF7FEFF 		bl	lv_tick_get
 5052              	.LVL483:
 847:Lib/lvgl/src/display/lv_display.c **** }
 5053              		.loc 1 847 30 view .LVU1466
 5054 000a C4F8F402 		str	r0, [r4, #756]
 5055              	.L353:
 848:Lib/lvgl/src/display/lv_display.c **** 
 5056              		.loc 1 848 1 view .LVU1467
ARM GAS  C:\Users\Alex\AppData\Local\Temp\cc0G22cc.s 			page 146


 5057 000e 10BD     		pop	{r4, pc}
 5058              	.LVL484:
 5059              	.L357:
 841:Lib/lvgl/src/display/lv_display.c ****     if(!disp) {
 5060              		.loc 1 841 15 is_stmt 1 discriminator 1 view .LVU1468
 841:Lib/lvgl/src/display/lv_display.c ****     if(!disp) {
 5061              		.loc 1 841 22 is_stmt 0 discriminator 1 view .LVU1469
 5062 0010 FFF7FEFF 		bl	lv_display_get_default
 5063              	.LVL485:
 842:Lib/lvgl/src/display/lv_display.c ****         LV_LOG_WARN("lv_display_trigger_activity: no display registered");
 5064              		.loc 1 842 5 is_stmt 1 discriminator 1 view .LVU1470
 842:Lib/lvgl/src/display/lv_display.c ****         LV_LOG_WARN("lv_display_trigger_activity: no display registered");
 5065              		.loc 1 842 7 is_stmt 0 discriminator 1 view .LVU1471
 5066 0014 0446     		mov	r4, r0
 5067 0016 0028     		cmp	r0, #0
 5068 0018 F5D1     		bne	.L354
 5069 001a F8E7     		b	.L353
 5070              		.cfi_endproc
 5071              	.LFE280:
 5073              		.section	.text.lv_display_enable_invalidation,"ax",%progbits
 5074              		.align	1
 5075              		.global	lv_display_enable_invalidation
 5076              		.syntax unified
 5077              		.thumb
 5078              		.thumb_func
 5080              	lv_display_enable_invalidation:
 5081              	.LVL486:
 5082              	.LFB281:
 851:Lib/lvgl/src/display/lv_display.c ****     if(!disp) disp = lv_display_get_default();
 5083              		.loc 1 851 1 is_stmt 1 view -0
 5084              		.cfi_startproc
 5085              		@ args = 0, pretend = 0, frame = 0
 5086              		@ frame_needed = 0, uses_anonymous_args = 0
 851:Lib/lvgl/src/display/lv_display.c ****     if(!disp) disp = lv_display_get_default();
 5087              		.loc 1 851 1 is_stmt 0 view .LVU1473
 5088 0000 10B5     		push	{r4, lr}
 5089              	.LCFI75:
 5090              		.cfi_def_cfa_offset 8
 5091              		.cfi_offset 4, -8
 5092              		.cfi_offset 14, -4
 5093 0002 0C46     		mov	r4, r1
 852:Lib/lvgl/src/display/lv_display.c ****     if(!disp) {
 5094              		.loc 1 852 5 is_stmt 1 view .LVU1474
 852:Lib/lvgl/src/display/lv_display.c ****     if(!disp) {
 5095              		.loc 1 852 7 is_stmt 0 view .LVU1475
 5096 0004 0246     		mov	r2, r0
 5097 0006 38B1     		cbz	r0, .L364
 5098              	.LVL487:
 5099              	.L359:
 858:Lib/lvgl/src/display/lv_display.c **** }
 5100              		.loc 1 858 5 is_stmt 1 view .LVU1476
 858:Lib/lvgl/src/display/lv_display.c **** }
 5101              		.loc 1 858 9 is_stmt 0 view .LVU1477
 5102 0008 D2F86032 		ldr	r3, [r2, #608]
 858:Lib/lvgl/src/display/lv_display.c **** }
 5103              		.loc 1 858 32 view .LVU1478
 5104 000c 54B1     		cbz	r4, .L362
ARM GAS  C:\Users\Alex\AppData\Local\Temp\cc0G22cc.s 			page 147


 5105 000e 0121     		movs	r1, #1
 5106              	.L361:
 858:Lib/lvgl/src/display/lv_display.c **** }
 5107              		.loc 1 858 22 discriminator 4 view .LVU1479
 5108 0010 0B44     		add	r3, r3, r1
 5109 0012 C2F86032 		str	r3, [r2, #608]
 5110              	.L358:
 859:Lib/lvgl/src/display/lv_display.c **** 
 5111              		.loc 1 859 1 view .LVU1480
 5112 0016 10BD     		pop	{r4, pc}
 5113              	.LVL488:
 5114              	.L364:
 852:Lib/lvgl/src/display/lv_display.c ****     if(!disp) {
 5115              		.loc 1 852 15 is_stmt 1 discriminator 1 view .LVU1481
 852:Lib/lvgl/src/display/lv_display.c ****     if(!disp) {
 5116              		.loc 1 852 22 is_stmt 0 discriminator 1 view .LVU1482
 5117 0018 FFF7FEFF 		bl	lv_display_get_default
 5118              	.LVL489:
 853:Lib/lvgl/src/display/lv_display.c ****         LV_LOG_WARN("no display registered");
 5119              		.loc 1 853 5 is_stmt 1 discriminator 1 view .LVU1483
 853:Lib/lvgl/src/display/lv_display.c ****         LV_LOG_WARN("no display registered");
 5120              		.loc 1 853 7 is_stmt 0 discriminator 1 view .LVU1484
 5121 001c 0246     		mov	r2, r0
 5122 001e 0028     		cmp	r0, #0
 5123 0020 F2D1     		bne	.L359
 5124 0022 F8E7     		b	.L358
 5125              	.LVL490:
 5126              	.L362:
 858:Lib/lvgl/src/display/lv_display.c **** }
 5127              		.loc 1 858 32 view .LVU1485
 5128 0024 4FF0FF31 		mov	r1, #-1
 5129 0028 F2E7     		b	.L361
 5130              		.cfi_endproc
 5131              	.LFE281:
 5133              		.section	.text.lv_display_is_invalidation_enabled,"ax",%progbits
 5134              		.align	1
 5135              		.global	lv_display_is_invalidation_enabled
 5136              		.syntax unified
 5137              		.thumb
 5138              		.thumb_func
 5140              	lv_display_is_invalidation_enabled:
 5141              	.LVL491:
 5142              	.LFB282:
 862:Lib/lvgl/src/display/lv_display.c ****     if(!disp) disp = lv_display_get_default();
 5143              		.loc 1 862 1 is_stmt 1 view -0
 5144              		.cfi_startproc
 5145              		@ args = 0, pretend = 0, frame = 0
 5146              		@ frame_needed = 0, uses_anonymous_args = 0
 862:Lib/lvgl/src/display/lv_display.c ****     if(!disp) disp = lv_display_get_default();
 5147              		.loc 1 862 1 is_stmt 0 view .LVU1487
 5148 0000 08B5     		push	{r3, lr}
 5149              	.LCFI76:
 5150              		.cfi_def_cfa_offset 8
 5151              		.cfi_offset 3, -8
 5152              		.cfi_offset 14, -4
 863:Lib/lvgl/src/display/lv_display.c ****     if(!disp) {
 5153              		.loc 1 863 5 is_stmt 1 view .LVU1488
ARM GAS  C:\Users\Alex\AppData\Local\Temp\cc0G22cc.s 			page 148


 863:Lib/lvgl/src/display/lv_display.c ****     if(!disp) {
 5154              		.loc 1 863 7 is_stmt 0 view .LVU1489
 5155 0002 0346     		mov	r3, r0
 5156 0004 30B1     		cbz	r0, .L370
 5157              	.L366:
 5158              	.LVL492:
 869:Lib/lvgl/src/display/lv_display.c **** }
 5159              		.loc 1 869 5 is_stmt 1 view .LVU1490
 869:Lib/lvgl/src/display/lv_display.c **** }
 5160              		.loc 1 869 17 is_stmt 0 view .LVU1491
 5161 0006 D3F86002 		ldr	r0, [r3, #608]
 869:Lib/lvgl/src/display/lv_display.c **** }
 5162              		.loc 1 869 30 view .LVU1492
 5163 000a 0028     		cmp	r0, #0
 5164 000c D4BF     		ite	le
 5165 000e 0020     		movle	r0, #0
 5166 0010 0120     		movgt	r0, #1
 5167              	.L367:
 870:Lib/lvgl/src/display/lv_display.c **** 
 5168              		.loc 1 870 1 view .LVU1493
 5169 0012 08BD     		pop	{r3, pc}
 5170              	.LVL493:
 5171              	.L370:
 863:Lib/lvgl/src/display/lv_display.c ****     if(!disp) {
 5172              		.loc 1 863 15 is_stmt 1 discriminator 1 view .LVU1494
 863:Lib/lvgl/src/display/lv_display.c ****     if(!disp) {
 5173              		.loc 1 863 22 is_stmt 0 discriminator 1 view .LVU1495
 5174 0014 FFF7FEFF 		bl	lv_display_get_default
 5175              	.LVL494:
 864:Lib/lvgl/src/display/lv_display.c ****         LV_LOG_WARN("no display registered");
 5176              		.loc 1 864 5 is_stmt 1 discriminator 1 view .LVU1496
 864:Lib/lvgl/src/display/lv_display.c ****         LV_LOG_WARN("no display registered");
 5177              		.loc 1 864 7 is_stmt 0 discriminator 1 view .LVU1497
 5178 0018 0346     		mov	r3, r0
 5179 001a 0028     		cmp	r0, #0
 5180 001c F3D1     		bne	.L366
 866:Lib/lvgl/src/display/lv_display.c ****     }
 5181              		.loc 1 866 16 view .LVU1498
 5182 001e 0020     		movs	r0, #0
 5183              	.LVL495:
 866:Lib/lvgl/src/display/lv_display.c ****     }
 5184              		.loc 1 866 16 view .LVU1499
 5185 0020 F7E7     		b	.L367
 5186              		.cfi_endproc
 5187              	.LFE282:
 5189              		.section	.text.lv_display_get_refr_timer,"ax",%progbits
 5190              		.align	1
 5191              		.global	lv_display_get_refr_timer
 5192              		.syntax unified
 5193              		.thumb
 5194              		.thumb_func
 5196              	lv_display_get_refr_timer:
 5197              	.LVL496:
 5198              	.LFB283:
 873:Lib/lvgl/src/display/lv_display.c ****     if(!disp) disp = lv_display_get_default();
 5199              		.loc 1 873 1 is_stmt 1 view -0
 5200              		.cfi_startproc
ARM GAS  C:\Users\Alex\AppData\Local\Temp\cc0G22cc.s 			page 149


 5201              		@ args = 0, pretend = 0, frame = 0
 5202              		@ frame_needed = 0, uses_anonymous_args = 0
 873:Lib/lvgl/src/display/lv_display.c ****     if(!disp) disp = lv_display_get_default();
 5203              		.loc 1 873 1 is_stmt 0 view .LVU1501
 5204 0000 08B5     		push	{r3, lr}
 5205              	.LCFI77:
 5206              		.cfi_def_cfa_offset 8
 5207              		.cfi_offset 3, -8
 5208              		.cfi_offset 14, -4
 874:Lib/lvgl/src/display/lv_display.c ****     if(!disp) return NULL;
 5209              		.loc 1 874 5 is_stmt 1 view .LVU1502
 874:Lib/lvgl/src/display/lv_display.c ****     if(!disp) return NULL;
 5210              		.loc 1 874 7 is_stmt 0 view .LVU1503
 5211 0002 0346     		mov	r3, r0
 5212 0004 10B1     		cbz	r0, .L376
 5213              	.L372:
 5214              	.LVL497:
 877:Lib/lvgl/src/display/lv_display.c **** }
 5215              		.loc 1 877 5 is_stmt 1 view .LVU1504
 877:Lib/lvgl/src/display/lv_display.c **** }
 5216              		.loc 1 877 16 is_stmt 0 view .LVU1505
 5217 0006 D3F8F002 		ldr	r0, [r3, #752]
 5218              	.L371:
 878:Lib/lvgl/src/display/lv_display.c **** 
 5219              		.loc 1 878 1 view .LVU1506
 5220 000a 08BD     		pop	{r3, pc}
 5221              	.LVL498:
 5222              	.L376:
 874:Lib/lvgl/src/display/lv_display.c ****     if(!disp) return NULL;
 5223              		.loc 1 874 15 is_stmt 1 discriminator 1 view .LVU1507
 874:Lib/lvgl/src/display/lv_display.c ****     if(!disp) return NULL;
 5224              		.loc 1 874 22 is_stmt 0 discriminator 1 view .LVU1508
 5225 000c FFF7FEFF 		bl	lv_display_get_default
 5226              	.LVL499:
 875:Lib/lvgl/src/display/lv_display.c **** 
 5227              		.loc 1 875 5 is_stmt 1 discriminator 1 view .LVU1509
 875:Lib/lvgl/src/display/lv_display.c **** 
 5228              		.loc 1 875 7 is_stmt 0 discriminator 1 view .LVU1510
 5229 0010 0346     		mov	r3, r0
 5230 0012 0028     		cmp	r0, #0
 5231 0014 F7D1     		bne	.L372
 5232 0016 F8E7     		b	.L371
 5233              		.cfi_endproc
 5234              	.LFE283:
 5236              		.section	.text.lv_display_delete_refr_timer,"ax",%progbits
 5237              		.align	1
 5238              		.global	lv_display_delete_refr_timer
 5239              		.syntax unified
 5240              		.thumb
 5241              		.thumb_func
 5243              	lv_display_delete_refr_timer:
 5244              	.LVL500:
 5245              	.LFB284:
 881:Lib/lvgl/src/display/lv_display.c ****     if(!disp) disp = lv_display_get_default();
 5246              		.loc 1 881 1 is_stmt 1 view -0
 5247              		.cfi_startproc
 5248              		@ args = 0, pretend = 0, frame = 0
ARM GAS  C:\Users\Alex\AppData\Local\Temp\cc0G22cc.s 			page 150


 5249              		@ frame_needed = 0, uses_anonymous_args = 0
 881:Lib/lvgl/src/display/lv_display.c ****     if(!disp) disp = lv_display_get_default();
 5250              		.loc 1 881 1 is_stmt 0 view .LVU1512
 5251 0000 10B5     		push	{r4, lr}
 5252              	.LCFI78:
 5253              		.cfi_def_cfa_offset 8
 5254              		.cfi_offset 4, -8
 5255              		.cfi_offset 14, -4
 882:Lib/lvgl/src/display/lv_display.c ****     if(!disp || !disp->refr_timer) return;
 5256              		.loc 1 882 5 is_stmt 1 view .LVU1513
 882:Lib/lvgl/src/display/lv_display.c ****     if(!disp || !disp->refr_timer) return;
 5257              		.loc 1 882 7 is_stmt 0 view .LVU1514
 5258 0002 0446     		mov	r4, r0
 5259 0004 40B1     		cbz	r0, .L381
 5260              	.L378:
 5261              	.LVL501:
 883:Lib/lvgl/src/display/lv_display.c **** 
 5262              		.loc 1 883 22 discriminator 2 view .LVU1515
 5263 0006 D4F8F002 		ldr	r0, [r4, #752]
 883:Lib/lvgl/src/display/lv_display.c **** 
 5264              		.loc 1 883 14 discriminator 2 view .LVU1516
 5265 000a 20B1     		cbz	r0, .L377
 885:Lib/lvgl/src/display/lv_display.c ****     disp->refr_timer = NULL;
 5266              		.loc 1 885 5 is_stmt 1 view .LVU1517
 5267 000c FFF7FEFF 		bl	lv_timer_delete
 5268              	.LVL502:
 886:Lib/lvgl/src/display/lv_display.c **** }
 5269              		.loc 1 886 5 view .LVU1518
 886:Lib/lvgl/src/display/lv_display.c **** }
 5270              		.loc 1 886 22 is_stmt 0 view .LVU1519
 5271 0010 0023     		movs	r3, #0
 5272 0012 C4F8F032 		str	r3, [r4, #752]
 5273              	.L377:
 887:Lib/lvgl/src/display/lv_display.c **** 
 5274              		.loc 1 887 1 view .LVU1520
 5275 0016 10BD     		pop	{r4, pc}
 5276              	.LVL503:
 5277              	.L381:
 882:Lib/lvgl/src/display/lv_display.c ****     if(!disp || !disp->refr_timer) return;
 5278              		.loc 1 882 15 is_stmt 1 discriminator 1 view .LVU1521
 882:Lib/lvgl/src/display/lv_display.c ****     if(!disp || !disp->refr_timer) return;
 5279              		.loc 1 882 22 is_stmt 0 discriminator 1 view .LVU1522
 5280 0018 FFF7FEFF 		bl	lv_display_get_default
 5281              	.LVL504:
 883:Lib/lvgl/src/display/lv_display.c **** 
 5282              		.loc 1 883 5 is_stmt 1 discriminator 1 view .LVU1523
 883:Lib/lvgl/src/display/lv_display.c **** 
 5283              		.loc 1 883 7 is_stmt 0 discriminator 1 view .LVU1524
 5284 001c 0446     		mov	r4, r0
 5285 001e 0028     		cmp	r0, #0
 5286 0020 F1D1     		bne	.L378
 5287 0022 F8E7     		b	.L377
 5288              		.cfi_endproc
 5289              	.LFE284:
 5291              		.section	.text.lv_display_set_user_data,"ax",%progbits
 5292              		.align	1
 5293              		.global	lv_display_set_user_data
ARM GAS  C:\Users\Alex\AppData\Local\Temp\cc0G22cc.s 			page 151


 5294              		.syntax unified
 5295              		.thumb
 5296              		.thumb_func
 5298              	lv_display_set_user_data:
 5299              	.LVL505:
 5300              	.LFB285:
 890:Lib/lvgl/src/display/lv_display.c ****     if(!disp) disp = lv_display_get_default();
 5301              		.loc 1 890 1 is_stmt 1 view -0
 5302              		.cfi_startproc
 5303              		@ args = 0, pretend = 0, frame = 0
 5304              		@ frame_needed = 0, uses_anonymous_args = 0
 890:Lib/lvgl/src/display/lv_display.c ****     if(!disp) disp = lv_display_get_default();
 5305              		.loc 1 890 1 is_stmt 0 view .LVU1526
 5306 0000 10B5     		push	{r4, lr}
 5307              	.LCFI79:
 5308              		.cfi_def_cfa_offset 8
 5309              		.cfi_offset 4, -8
 5310              		.cfi_offset 14, -4
 5311 0002 0C46     		mov	r4, r1
 891:Lib/lvgl/src/display/lv_display.c ****     if(!disp) return;
 5312              		.loc 1 891 5 is_stmt 1 view .LVU1527
 891:Lib/lvgl/src/display/lv_display.c ****     if(!disp) return;
 5313              		.loc 1 891 7 is_stmt 0 view .LVU1528
 5314 0004 0346     		mov	r3, r0
 5315 0006 10B1     		cbz	r0, .L386
 5316              	.LVL506:
 5317              	.L383:
 893:Lib/lvgl/src/display/lv_display.c **** }
 5318              		.loc 1 893 5 is_stmt 1 view .LVU1529
 893:Lib/lvgl/src/display/lv_display.c **** }
 5319              		.loc 1 893 21 is_stmt 0 view .LVU1530
 5320 0008 C3F8D442 		str	r4, [r3, #724]
 5321              	.L382:
 894:Lib/lvgl/src/display/lv_display.c **** 
 5322              		.loc 1 894 1 view .LVU1531
 5323 000c 10BD     		pop	{r4, pc}
 5324              	.LVL507:
 5325              	.L386:
 891:Lib/lvgl/src/display/lv_display.c ****     if(!disp) return;
 5326              		.loc 1 891 15 is_stmt 1 discriminator 1 view .LVU1532
 891:Lib/lvgl/src/display/lv_display.c ****     if(!disp) return;
 5327              		.loc 1 891 22 is_stmt 0 discriminator 1 view .LVU1533
 5328 000e FFF7FEFF 		bl	lv_display_get_default
 5329              	.LVL508:
 892:Lib/lvgl/src/display/lv_display.c ****     disp->user_data = user_data;
 5330              		.loc 1 892 5 is_stmt 1 discriminator 1 view .LVU1534
 892:Lib/lvgl/src/display/lv_display.c ****     disp->user_data = user_data;
 5331              		.loc 1 892 7 is_stmt 0 discriminator 1 view .LVU1535
 5332 0012 0346     		mov	r3, r0
 5333 0014 0028     		cmp	r0, #0
 5334 0016 F7D1     		bne	.L383
 5335 0018 F8E7     		b	.L382
 5336              		.cfi_endproc
 5337              	.LFE285:
 5339              		.section	.text.lv_display_set_driver_data,"ax",%progbits
 5340              		.align	1
 5341              		.global	lv_display_set_driver_data
ARM GAS  C:\Users\Alex\AppData\Local\Temp\cc0G22cc.s 			page 152


 5342              		.syntax unified
 5343              		.thumb
 5344              		.thumb_func
 5346              	lv_display_set_driver_data:
 5347              	.LVL509:
 5348              	.LFB286:
 897:Lib/lvgl/src/display/lv_display.c ****     if(!disp) disp = lv_display_get_default();
 5349              		.loc 1 897 1 is_stmt 1 view -0
 5350              		.cfi_startproc
 5351              		@ args = 0, pretend = 0, frame = 0
 5352              		@ frame_needed = 0, uses_anonymous_args = 0
 897:Lib/lvgl/src/display/lv_display.c ****     if(!disp) disp = lv_display_get_default();
 5353              		.loc 1 897 1 is_stmt 0 view .LVU1537
 5354 0000 10B5     		push	{r4, lr}
 5355              	.LCFI80:
 5356              		.cfi_def_cfa_offset 8
 5357              		.cfi_offset 4, -8
 5358              		.cfi_offset 14, -4
 5359 0002 0C46     		mov	r4, r1
 898:Lib/lvgl/src/display/lv_display.c ****     if(!disp) return;
 5360              		.loc 1 898 5 is_stmt 1 view .LVU1538
 898:Lib/lvgl/src/display/lv_display.c ****     if(!disp) return;
 5361              		.loc 1 898 7 is_stmt 0 view .LVU1539
 5362 0004 0346     		mov	r3, r0
 5363 0006 10B1     		cbz	r0, .L391
 5364              	.LVL510:
 5365              	.L388:
 901:Lib/lvgl/src/display/lv_display.c **** }
 5366              		.loc 1 901 5 is_stmt 1 view .LVU1540
 901:Lib/lvgl/src/display/lv_display.c **** }
 5367              		.loc 1 901 23 is_stmt 0 view .LVU1541
 5368 0008 C3F8D042 		str	r4, [r3, #720]
 5369              	.L387:
 902:Lib/lvgl/src/display/lv_display.c **** 
 5370              		.loc 1 902 1 view .LVU1542
 5371 000c 10BD     		pop	{r4, pc}
 5372              	.LVL511:
 5373              	.L391:
 898:Lib/lvgl/src/display/lv_display.c ****     if(!disp) return;
 5374              		.loc 1 898 15 is_stmt 1 discriminator 1 view .LVU1543
 898:Lib/lvgl/src/display/lv_display.c ****     if(!disp) return;
 5375              		.loc 1 898 22 is_stmt 0 discriminator 1 view .LVU1544
 5376 000e FFF7FEFF 		bl	lv_display_get_default
 5377              	.LVL512:
 899:Lib/lvgl/src/display/lv_display.c **** 
 5378              		.loc 1 899 5 is_stmt 1 discriminator 1 view .LVU1545
 899:Lib/lvgl/src/display/lv_display.c **** 
 5379              		.loc 1 899 7 is_stmt 0 discriminator 1 view .LVU1546
 5380 0012 0346     		mov	r3, r0
 5381 0014 0028     		cmp	r0, #0
 5382 0016 F7D1     		bne	.L388
 5383 0018 F8E7     		b	.L387
 5384              		.cfi_endproc
 5385              	.LFE286:
 5387              		.section	.text.lv_display_get_user_data,"ax",%progbits
 5388              		.align	1
 5389              		.global	lv_display_get_user_data
ARM GAS  C:\Users\Alex\AppData\Local\Temp\cc0G22cc.s 			page 153


 5390              		.syntax unified
 5391              		.thumb
 5392              		.thumb_func
 5394              	lv_display_get_user_data:
 5395              	.LVL513:
 5396              	.LFB287:
 905:Lib/lvgl/src/display/lv_display.c ****     if(!disp) disp = lv_display_get_default();
 5397              		.loc 1 905 1 is_stmt 1 view -0
 5398              		.cfi_startproc
 5399              		@ args = 0, pretend = 0, frame = 0
 5400              		@ frame_needed = 0, uses_anonymous_args = 0
 905:Lib/lvgl/src/display/lv_display.c ****     if(!disp) disp = lv_display_get_default();
 5401              		.loc 1 905 1 is_stmt 0 view .LVU1548
 5402 0000 08B5     		push	{r3, lr}
 5403              	.LCFI81:
 5404              		.cfi_def_cfa_offset 8
 5405              		.cfi_offset 3, -8
 5406              		.cfi_offset 14, -4
 906:Lib/lvgl/src/display/lv_display.c ****     if(!disp) return NULL;
 5407              		.loc 1 906 5 is_stmt 1 view .LVU1549
 906:Lib/lvgl/src/display/lv_display.c ****     if(!disp) return NULL;
 5408              		.loc 1 906 7 is_stmt 0 view .LVU1550
 5409 0002 0346     		mov	r3, r0
 5410 0004 10B1     		cbz	r0, .L397
 5411              	.L393:
 5412              	.LVL514:
 908:Lib/lvgl/src/display/lv_display.c **** }
 5413              		.loc 1 908 5 is_stmt 1 view .LVU1551
 908:Lib/lvgl/src/display/lv_display.c **** }
 5414              		.loc 1 908 16 is_stmt 0 view .LVU1552
 5415 0006 D3F8D402 		ldr	r0, [r3, #724]
 5416              	.L392:
 909:Lib/lvgl/src/display/lv_display.c **** 
 5417              		.loc 1 909 1 view .LVU1553
 5418 000a 08BD     		pop	{r3, pc}
 5419              	.LVL515:
 5420              	.L397:
 906:Lib/lvgl/src/display/lv_display.c ****     if(!disp) return NULL;
 5421              		.loc 1 906 15 is_stmt 1 discriminator 1 view .LVU1554
 906:Lib/lvgl/src/display/lv_display.c ****     if(!disp) return NULL;
 5422              		.loc 1 906 22 is_stmt 0 discriminator 1 view .LVU1555
 5423 000c FFF7FEFF 		bl	lv_display_get_default
 5424              	.LVL516:
 907:Lib/lvgl/src/display/lv_display.c ****     return disp->user_data;
 5425              		.loc 1 907 5 is_stmt 1 discriminator 1 view .LVU1556
 907:Lib/lvgl/src/display/lv_display.c ****     return disp->user_data;
 5426              		.loc 1 907 7 is_stmt 0 discriminator 1 view .LVU1557
 5427 0010 0346     		mov	r3, r0
 5428 0012 0028     		cmp	r0, #0
 5429 0014 F7D1     		bne	.L393
 5430 0016 F8E7     		b	.L392
 5431              		.cfi_endproc
 5432              	.LFE287:
 5434              		.section	.text.lv_display_get_driver_data,"ax",%progbits
 5435              		.align	1
 5436              		.global	lv_display_get_driver_data
 5437              		.syntax unified
ARM GAS  C:\Users\Alex\AppData\Local\Temp\cc0G22cc.s 			page 154


 5438              		.thumb
 5439              		.thumb_func
 5441              	lv_display_get_driver_data:
 5442              	.LVL517:
 5443              	.LFB288:
 912:Lib/lvgl/src/display/lv_display.c ****     if(!disp) disp = lv_display_get_default();
 5444              		.loc 1 912 1 is_stmt 1 view -0
 5445              		.cfi_startproc
 5446              		@ args = 0, pretend = 0, frame = 0
 5447              		@ frame_needed = 0, uses_anonymous_args = 0
 912:Lib/lvgl/src/display/lv_display.c ****     if(!disp) disp = lv_display_get_default();
 5448              		.loc 1 912 1 is_stmt 0 view .LVU1559
 5449 0000 08B5     		push	{r3, lr}
 5450              	.LCFI82:
 5451              		.cfi_def_cfa_offset 8
 5452              		.cfi_offset 3, -8
 5453              		.cfi_offset 14, -4
 913:Lib/lvgl/src/display/lv_display.c ****     if(!disp) return NULL;
 5454              		.loc 1 913 5 is_stmt 1 view .LVU1560
 913:Lib/lvgl/src/display/lv_display.c ****     if(!disp) return NULL;
 5455              		.loc 1 913 7 is_stmt 0 view .LVU1561
 5456 0002 0346     		mov	r3, r0
 5457 0004 10B1     		cbz	r0, .L403
 5458              	.L399:
 5459              	.LVL518:
 916:Lib/lvgl/src/display/lv_display.c **** }
 5460              		.loc 1 916 5 is_stmt 1 view .LVU1562
 916:Lib/lvgl/src/display/lv_display.c **** }
 5461              		.loc 1 916 16 is_stmt 0 view .LVU1563
 5462 0006 D3F8D002 		ldr	r0, [r3, #720]
 5463              	.L398:
 917:Lib/lvgl/src/display/lv_display.c **** 
 5464              		.loc 1 917 1 view .LVU1564
 5465 000a 08BD     		pop	{r3, pc}
 5466              	.LVL519:
 5467              	.L403:
 913:Lib/lvgl/src/display/lv_display.c ****     if(!disp) return NULL;
 5468              		.loc 1 913 15 is_stmt 1 discriminator 1 view .LVU1565
 913:Lib/lvgl/src/display/lv_display.c ****     if(!disp) return NULL;
 5469              		.loc 1 913 22 is_stmt 0 discriminator 1 view .LVU1566
 5470 000c FFF7FEFF 		bl	lv_display_get_default
 5471              	.LVL520:
 914:Lib/lvgl/src/display/lv_display.c **** 
 5472              		.loc 1 914 5 is_stmt 1 discriminator 1 view .LVU1567
 914:Lib/lvgl/src/display/lv_display.c **** 
 5473              		.loc 1 914 7 is_stmt 0 discriminator 1 view .LVU1568
 5474 0010 0346     		mov	r3, r0
 5475 0012 0028     		cmp	r0, #0
 5476 0014 F7D1     		bne	.L399
 5477 0016 F8E7     		b	.L398
 5478              		.cfi_endproc
 5479              	.LFE288:
 5481              		.text
 5482              	.Letext0:
 5483              		.file 6 "e:\\programms\\gnu_mcu_eclipse\\toolchain\\arm-gnu-toolchain-12.2.mpacbti-bet1-mingw-w64-
 5484              		.file 7 "e:\\programms\\gnu_mcu_eclipse\\toolchain\\arm-gnu-toolchain-12.2.mpacbti-bet1-mingw-w64-
 5485              		.file 8 "Lib/lvgl/src/display/../misc/lv_types.h"
ARM GAS  C:\Users\Alex\AppData\Local\Temp\cc0G22cc.s 			page 155


 5486              		.file 9 "Lib/lvgl/src/display/../core/lv_obj.h"
 5487              		.file 10 "Lib/lvgl/src/display/../core/lv_obj_class.h"
 5488              		.file 11 "Lib/lvgl/src/display/../core/../indev/../core/lv_group.h"
 5489              		.file 12 "Lib/lvgl/src/display/../display/lv_display_private.h"
 5490              		.file 13 "Lib/lvgl/src/display/../draw/lv_draw.h"
 5491              		.file 14 "Lib/lvgl/src/display/../misc/lv_event.h"
 5492              		.file 15 "Lib/lvgl/src/display/../misc/lv_timer.h"
 5493              		.file 16 "Lib/lvgl/src/display/../themes/lv_theme.h"
 5494              		.file 17 "Lib/lvgl/src/display/../draw/../misc/../font/lv_font.h"
 5495              		.file 18 "Lib/lvgl/src/display/../misc/../tick/lv_tick.h"
 5496              		.file 19 "e:\\programms\\gnu_mcu_eclipse\\toolchain\\arm-gnu-toolchain-12.2.mpacbti-bet1-mingw-w64
 5497              		.file 20 "Lib/lvgl/src/display/../misc/lv_array.h"
 5498              		.file 21 "Lib/lvgl/src/display/../misc/lv_color.h"
 5499              		.file 22 "Lib/lvgl/src/display/../misc/lv_palette.h"
 5500              		.file 23 "c:\\users\\alex\\eclipse-workspace\\lvgs_test\\lib\\lvgl\\src\\misc\\lv_area.h"
 5501              		.file 24 "Lib/lvgl/src/display/../draw/../misc/../font/../draw/lv_image_buf.h"
 5502              		.file 25 "Lib/lvgl/src/display/../draw/../misc/../font/../draw/lv_draw_buf.h"
 5503              		.file 26 "c:\\users\\alex\\eclipse-workspace\\lvgs_test\\lib\\lvgl\\src\\osal\\lv_os_none.h"
 5504              		.file 27 "Lib/lvgl/src/display/../draw/../misc/../font/../misc/cache/lv_cache_private.h"
 5505              		.file 28 "Lib/lvgl/src/display/../draw/../misc/../layouts/lv_layout.h"
 5506              		.file 29 "Lib/lvgl/src/display/../draw/../misc/lv_style.h"
 5507              		.file 30 "Lib/lvgl/src/display/../core/lv_obj_tree.h"
 5508              		.file 31 "Lib/lvgl/src/display/../core/lv_obj_scroll.h"
 5509              		.file 32 "Lib/lvgl/src/display/../core/lv_obj_style.h"
 5510              		.file 33 "Lib/lvgl/src/display/../core/../draw/sw/blend/../lv_draw_sw_mask.h"
 5511              		.file 34 "Lib/lvgl/src/display/../core/../stdlib/builtin/lv_tlsf.h"
 5512              		.file 35 "Lib/lvgl/src/display/../core/lv_global.h"
 5513              		.file 36 "Lib/lvgl/src/display/../core/lv_obj_pos.h"
 5514              		.file 37 "Lib/lvgl/src/display/../core/lv_obj_style_gen.h"
 5515              		.file 38 "Lib/lvgl/src/display/../core/lv_obj_event.h"
 5516              		.file 39 "Lib/lvgl/src/display/../core/../indev/lv_indev.h"
 5517              		.file 40 "Lib/lvgl/src/display/../themes/default/lv_theme_default.h"
 5518              		.file 41 "Lib/lvgl/src/display/../misc/../stdlib/lv_mem.h"
 5519              		.file 42 "Lib/lvgl/src/display/../core/lv_refr.h"
ARM GAS  C:\Users\Alex\AppData\Local\Temp\cc0G22cc.s 			page 156


DEFINED SYMBOLS
                            *ABS*:00000000 lv_display.c
C:\Users\Alex\AppData\Local\Temp\cc0G22cc.s:21     .text.is_out_anim:00000000 $t
C:\Users\Alex\AppData\Local\Temp\cc0G22cc.s:26     .text.is_out_anim:00000000 is_out_anim
C:\Users\Alex\AppData\Local\Temp\cc0G22cc.s:50     .text.disp_event_cb:00000000 $t
C:\Users\Alex\AppData\Local\Temp\cc0G22cc.s:55     .text.disp_event_cb:00000000 disp_event_cb
C:\Users\Alex\AppData\Local\Temp\cc0G22cc.s:108    .text.invalidate_layout_cb:00000000 $t
C:\Users\Alex\AppData\Local\Temp\cc0G22cc.s:113    .text.invalidate_layout_cb:00000000 invalidate_layout_cb
C:\Users\Alex\AppData\Local\Temp\cc0G22cc.s:138    .text.scr_load_internal:00000000 $t
C:\Users\Alex\AppData\Local\Temp\cc0G22cc.s:143    .text.scr_load_internal:00000000 scr_load_internal
C:\Users\Alex\AppData\Local\Temp\cc0G22cc.s:242    .text.scr_anim_completed:00000000 $t
C:\Users\Alex\AppData\Local\Temp\cc0G22cc.s:247    .text.scr_anim_completed:00000000 scr_anim_completed
C:\Users\Alex\AppData\Local\Temp\cc0G22cc.s:329    .text.opa_scale_anim:00000000 $t
C:\Users\Alex\AppData\Local\Temp\cc0G22cc.s:334    .text.opa_scale_anim:00000000 opa_scale_anim
C:\Users\Alex\AppData\Local\Temp\cc0G22cc.s:360    .text.set_y_anim:00000000 $t
C:\Users\Alex\AppData\Local\Temp\cc0G22cc.s:365    .text.set_y_anim:00000000 set_y_anim
C:\Users\Alex\AppData\Local\Temp\cc0G22cc.s:387    .text.set_x_anim:00000000 $t
C:\Users\Alex\AppData\Local\Temp\cc0G22cc.s:392    .text.set_x_anim:00000000 set_x_anim
C:\Users\Alex\AppData\Local\Temp\cc0G22cc.s:414    .text.lv_display_set_default:00000000 $t
C:\Users\Alex\AppData\Local\Temp\cc0G22cc.s:420    .text.lv_display_set_default:00000000 lv_display_set_default
C:\Users\Alex\AppData\Local\Temp\cc0G22cc.s:437    .text.lv_display_set_default:00000008 $d
C:\Users\Alex\AppData\Local\Temp\cc0G22cc.s:442    .text.lv_display_get_default:00000000 $t
C:\Users\Alex\AppData\Local\Temp\cc0G22cc.s:448    .text.lv_display_get_default:00000000 lv_display_get_default
C:\Users\Alex\AppData\Local\Temp\cc0G22cc.s:463    .text.lv_display_get_default:00000008 $d
C:\Users\Alex\AppData\Local\Temp\cc0G22cc.s:468    .text.lv_display_get_next:00000000 $t
C:\Users\Alex\AppData\Local\Temp\cc0G22cc.s:474    .text.lv_display_get_next:00000000 lv_display_get_next
C:\Users\Alex\AppData\Local\Temp\cc0G22cc.s:514    .text.lv_display_get_next:00000018 $d
C:\Users\Alex\AppData\Local\Temp\cc0G22cc.s:519    .text.lv_display_set_physical_resolution:00000000 $t
C:\Users\Alex\AppData\Local\Temp\cc0G22cc.s:525    .text.lv_display_set_physical_resolution:00000000 lv_display_set_physical_resolution
C:\Users\Alex\AppData\Local\Temp\cc0G22cc.s:577    .text.lv_display_set_offset:00000000 $t
C:\Users\Alex\AppData\Local\Temp\cc0G22cc.s:583    .text.lv_display_set_offset:00000000 lv_display_set_offset
C:\Users\Alex\AppData\Local\Temp\cc0G22cc.s:635    .text.lv_display_set_dpi:00000000 $t
C:\Users\Alex\AppData\Local\Temp\cc0G22cc.s:641    .text.lv_display_set_dpi:00000000 lv_display_set_dpi
C:\Users\Alex\AppData\Local\Temp\cc0G22cc.s:683    .text.lv_display_get_horizontal_resolution:00000000 $t
C:\Users\Alex\AppData\Local\Temp\cc0G22cc.s:689    .text.lv_display_get_horizontal_resolution:00000000 lv_display_get_horizontal_resolution
C:\Users\Alex\AppData\Local\Temp\cc0G22cc.s:749    .text.lv_display_get_vertical_resolution:00000000 $t
C:\Users\Alex\AppData\Local\Temp\cc0G22cc.s:755    .text.lv_display_get_vertical_resolution:00000000 lv_display_get_vertical_resolution
C:\Users\Alex\AppData\Local\Temp\cc0G22cc.s:815    .text.lv_display_get_physical_horizontal_resolution:00000000 $t
C:\Users\Alex\AppData\Local\Temp\cc0G22cc.s:821    .text.lv_display_get_physical_horizontal_resolution:00000000 lv_display_get_physical_horizontal_resolution
C:\Users\Alex\AppData\Local\Temp\cc0G22cc.s:893    .text.lv_display_get_physical_vertical_resolution:00000000 $t
C:\Users\Alex\AppData\Local\Temp\cc0G22cc.s:899    .text.lv_display_get_physical_vertical_resolution:00000000 lv_display_get_physical_vertical_resolution
C:\Users\Alex\AppData\Local\Temp\cc0G22cc.s:971    .text.lv_display_get_offset_x:00000000 $t
C:\Users\Alex\AppData\Local\Temp\cc0G22cc.s:977    .text.lv_display_get_offset_x:00000000 lv_display_get_offset_x
C:\Users\Alex\AppData\Local\Temp\cc0G22cc.s:1061   .text.lv_display_get_offset_y:00000000 $t
C:\Users\Alex\AppData\Local\Temp\cc0G22cc.s:1067   .text.lv_display_get_offset_y:00000000 lv_display_get_offset_y
C:\Users\Alex\AppData\Local\Temp\cc0G22cc.s:1151   .text.lv_display_get_dpi:00000000 $t
C:\Users\Alex\AppData\Local\Temp\cc0G22cc.s:1157   .text.lv_display_get_dpi:00000000 lv_display_get_dpi
C:\Users\Alex\AppData\Local\Temp\cc0G22cc.s:1202   .text.lv_display_set_draw_buffers:00000000 $t
C:\Users\Alex\AppData\Local\Temp\cc0G22cc.s:1208   .text.lv_display_set_draw_buffers:00000000 lv_display_set_draw_buffers
C:\Users\Alex\AppData\Local\Temp\cc0G22cc.s:1259   .text.lv_display_set_render_mode:00000000 $t
C:\Users\Alex\AppData\Local\Temp\cc0G22cc.s:1265   .text.lv_display_set_render_mode:00000000 lv_display_set_render_mode
C:\Users\Alex\AppData\Local\Temp\cc0G22cc.s:1307   .text.lv_display_set_flush_cb:00000000 $t
C:\Users\Alex\AppData\Local\Temp\cc0G22cc.s:1313   .text.lv_display_set_flush_cb:00000000 lv_display_set_flush_cb
C:\Users\Alex\AppData\Local\Temp\cc0G22cc.s:1355   .text.lv_display_set_flush_wait_cb:00000000 $t
C:\Users\Alex\AppData\Local\Temp\cc0G22cc.s:1361   .text.lv_display_set_flush_wait_cb:00000000 lv_display_set_flush_wait_cb
C:\Users\Alex\AppData\Local\Temp\cc0G22cc.s:1403   .text.lv_display_get_color_format:00000000 $t
C:\Users\Alex\AppData\Local\Temp\cc0G22cc.s:1409   .text.lv_display_get_color_format:00000000 lv_display_get_color_format
ARM GAS  C:\Users\Alex\AppData\Local\Temp\cc0G22cc.s 			page 157


C:\Users\Alex\AppData\Local\Temp\cc0G22cc.s:1454   .text.lv_display_set_buffers:00000000 $t
C:\Users\Alex\AppData\Local\Temp\cc0G22cc.s:1460   .text.lv_display_set_buffers:00000000 lv_display_set_buffers
C:\Users\Alex\AppData\Local\Temp\cc0G22cc.s:1632   .text.lv_display_set_antialiasing:00000000 $t
C:\Users\Alex\AppData\Local\Temp\cc0G22cc.s:1638   .text.lv_display_set_antialiasing:00000000 lv_display_set_antialiasing
C:\Users\Alex\AppData\Local\Temp\cc0G22cc.s:1682   .text.lv_display_get_antialiasing:00000000 $t
C:\Users\Alex\AppData\Local\Temp\cc0G22cc.s:1688   .text.lv_display_get_antialiasing:00000000 lv_display_get_antialiasing
C:\Users\Alex\AppData\Local\Temp\cc0G22cc.s:1734   .text.lv_display_flush_ready:00000000 $t
C:\Users\Alex\AppData\Local\Temp\cc0G22cc.s:1740   .text.lv_display_flush_ready:00000000 lv_display_flush_ready
C:\Users\Alex\AppData\Local\Temp\cc0G22cc.s:1758   .text.lv_display_flush_is_last:00000000 $t
C:\Users\Alex\AppData\Local\Temp\cc0G22cc.s:1764   .text.lv_display_flush_is_last:00000000 lv_display_flush_is_last
C:\Users\Alex\AppData\Local\Temp\cc0G22cc.s:1785   .text.lv_display_is_double_buffered:00000000 $t
C:\Users\Alex\AppData\Local\Temp\cc0G22cc.s:1791   .text.lv_display_is_double_buffered:00000000 lv_display_is_double_buffered
C:\Users\Alex\AppData\Local\Temp\cc0G22cc.s:1812   .text.lv_display_get_screen_active:00000000 $t
C:\Users\Alex\AppData\Local\Temp\cc0G22cc.s:1818   .text.lv_display_get_screen_active:00000000 lv_display_get_screen_active
C:\Users\Alex\AppData\Local\Temp\cc0G22cc.s:1859   .text.lv_screen_active:00000000 $t
C:\Users\Alex\AppData\Local\Temp\cc0G22cc.s:1864   .text.lv_screen_active:00000000 lv_screen_active
C:\Users\Alex\AppData\Local\Temp\cc0G22cc.s:1888   .text.scr_load_anim_start:00000000 $t
C:\Users\Alex\AppData\Local\Temp\cc0G22cc.s:1893   .text.scr_load_anim_start:00000000 scr_load_anim_start
C:\Users\Alex\AppData\Local\Temp\cc0G22cc.s:1941   .text.lv_display_get_screen_prev:00000000 $t
C:\Users\Alex\AppData\Local\Temp\cc0G22cc.s:1947   .text.lv_display_get_screen_prev:00000000 lv_display_get_screen_prev
C:\Users\Alex\AppData\Local\Temp\cc0G22cc.s:1988   .text.lv_display_get_layer_top:00000000 $t
C:\Users\Alex\AppData\Local\Temp\cc0G22cc.s:1994   .text.lv_display_get_layer_top:00000000 lv_display_get_layer_top
C:\Users\Alex\AppData\Local\Temp\cc0G22cc.s:2035   .text.lv_display_get_layer_sys:00000000 $t
C:\Users\Alex\AppData\Local\Temp\cc0G22cc.s:2041   .text.lv_display_get_layer_sys:00000000 lv_display_get_layer_sys
C:\Users\Alex\AppData\Local\Temp\cc0G22cc.s:2082   .text.lv_display_get_layer_bottom:00000000 $t
C:\Users\Alex\AppData\Local\Temp\cc0G22cc.s:2088   .text.lv_display_get_layer_bottom:00000000 lv_display_get_layer_bottom
C:\Users\Alex\AppData\Local\Temp\cc0G22cc.s:2129   .text.lv_screen_load_anim:00000000 $t
C:\Users\Alex\AppData\Local\Temp\cc0G22cc.s:2135   .text.lv_screen_load_anim:00000000 lv_screen_load_anim
C:\Users\Alex\AppData\Local\Temp\cc0G22cc.s:2423   .text.lv_screen_load_anim:00000110 $d
C:\Users\Alex\AppData\Local\Temp\cc0G22cc.s:2439   .text.lv_screen_load_anim:0000012e $t
C:\Users\Alex\AppData\Local\Temp\cc0G22cc.s:3255   .text.lv_screen_load_anim:00000330 $d
C:\Users\Alex\AppData\Local\Temp\cc0G22cc.s:3266   .text.lv_screen_load:00000000 $t
C:\Users\Alex\AppData\Local\Temp\cc0G22cc.s:3272   .text.lv_screen_load:00000000 lv_screen_load
C:\Users\Alex\AppData\Local\Temp\cc0G22cc.s:3304   .text.lv_display_add_event_cb:00000000 $t
C:\Users\Alex\AppData\Local\Temp\cc0G22cc.s:3310   .text.lv_display_add_event_cb:00000000 lv_display_add_event_cb
C:\Users\Alex\AppData\Local\Temp\cc0G22cc.s:3352   .text.lv_display_create:00000000 $t
C:\Users\Alex\AppData\Local\Temp\cc0G22cc.s:3358   .text.lv_display_create:00000000 lv_display_create
C:\Users\Alex\AppData\Local\Temp\cc0G22cc.s:3708   .text.lv_display_create:000001b4 $d
C:\Users\Alex\AppData\Local\Temp\cc0G22cc.s:3717   .text.lv_display_get_event_count:00000000 $t
C:\Users\Alex\AppData\Local\Temp\cc0G22cc.s:3723   .text.lv_display_get_event_count:00000000 lv_display_get_event_count
C:\Users\Alex\AppData\Local\Temp\cc0G22cc.s:3766   .text.lv_display_get_event_dsc:00000000 $t
C:\Users\Alex\AppData\Local\Temp\cc0G22cc.s:3772   .text.lv_display_get_event_dsc:00000000 lv_display_get_event_dsc
C:\Users\Alex\AppData\Local\Temp\cc0G22cc.s:3815   .text.lv_display_delete_event:00000000 $t
C:\Users\Alex\AppData\Local\Temp\cc0G22cc.s:3821   .text.lv_display_delete_event:00000000 lv_display_delete_event
C:\Users\Alex\AppData\Local\Temp\cc0G22cc.s:3864   .text.lv_display_remove_event_cb_with_user_data:00000000 $t
C:\Users\Alex\AppData\Local\Temp\cc0G22cc.s:3870   .text.lv_display_remove_event_cb_with_user_data:00000000 lv_display_remove_event_cb_with_user_data
C:\Users\Alex\AppData\Local\Temp\cc0G22cc.s:3995   .text.lv_display_send_event:00000000 $t
C:\Users\Alex\AppData\Local\Temp\cc0G22cc.s:4001   .text.lv_display_send_event:00000000 lv_display_send_event
C:\Users\Alex\AppData\Local\Temp\cc0G22cc.s:4100   .text.lv_display_delete:00000000 $t
C:\Users\Alex\AppData\Local\Temp\cc0G22cc.s:4106   .text.lv_display_delete:00000000 lv_display_delete
C:\Users\Alex\AppData\Local\Temp\cc0G22cc.s:4323   .text.lv_display_delete:000000e0 $d
C:\Users\Alex\AppData\Local\Temp\cc0G22cc.s:4328   .text.update_resolution:00000000 $t
C:\Users\Alex\AppData\Local\Temp\cc0G22cc.s:4333   .text.update_resolution:00000000 update_resolution
C:\Users\Alex\AppData\Local\Temp\cc0G22cc.s:4555   .text.update_resolution:00000108 $d
C:\Users\Alex\AppData\Local\Temp\cc0G22cc.s:4560   .text.lv_display_set_resolution:00000000 $t
C:\Users\Alex\AppData\Local\Temp\cc0G22cc.s:4566   .text.lv_display_set_resolution:00000000 lv_display_set_resolution
C:\Users\Alex\AppData\Local\Temp\cc0G22cc.s:4630   .text.lv_display_set_color_format:00000000 $t
ARM GAS  C:\Users\Alex\AppData\Local\Temp\cc0G22cc.s 			page 158


C:\Users\Alex\AppData\Local\Temp\cc0G22cc.s:4636   .text.lv_display_set_color_format:00000000 lv_display_set_color_format
C:\Users\Alex\AppData\Local\Temp\cc0G22cc.s:4689   .text.lv_display_set_rotation:00000000 $t
C:\Users\Alex\AppData\Local\Temp\cc0G22cc.s:4695   .text.lv_display_set_rotation:00000000 lv_display_set_rotation
C:\Users\Alex\AppData\Local\Temp\cc0G22cc.s:4743   .text.lv_display_get_rotation:00000000 $t
C:\Users\Alex\AppData\Local\Temp\cc0G22cc.s:4749   .text.lv_display_get_rotation:00000000 lv_display_get_rotation
C:\Users\Alex\AppData\Local\Temp\cc0G22cc.s:4795   .text.lv_display_set_theme:00000000 $t
C:\Users\Alex\AppData\Local\Temp\cc0G22cc.s:4801   .text.lv_display_set_theme:00000000 lv_display_set_theme
C:\Users\Alex\AppData\Local\Temp\cc0G22cc.s:4888   .text.lv_display_get_theme:00000000 $t
C:\Users\Alex\AppData\Local\Temp\cc0G22cc.s:4894   .text.lv_display_get_theme:00000000 lv_display_get_theme
C:\Users\Alex\AppData\Local\Temp\cc0G22cc.s:4933   .text.lv_display_get_inactive_time:00000000 $t
C:\Users\Alex\AppData\Local\Temp\cc0G22cc.s:4939   .text.lv_display_get_inactive_time:00000000 lv_display_get_inactive_time
C:\Users\Alex\AppData\Local\Temp\cc0G22cc.s:5024   .text.lv_display_trigger_activity:00000000 $t
C:\Users\Alex\AppData\Local\Temp\cc0G22cc.s:5030   .text.lv_display_trigger_activity:00000000 lv_display_trigger_activity
C:\Users\Alex\AppData\Local\Temp\cc0G22cc.s:5074   .text.lv_display_enable_invalidation:00000000 $t
C:\Users\Alex\AppData\Local\Temp\cc0G22cc.s:5080   .text.lv_display_enable_invalidation:00000000 lv_display_enable_invalidation
C:\Users\Alex\AppData\Local\Temp\cc0G22cc.s:5134   .text.lv_display_is_invalidation_enabled:00000000 $t
C:\Users\Alex\AppData\Local\Temp\cc0G22cc.s:5140   .text.lv_display_is_invalidation_enabled:00000000 lv_display_is_invalidation_enabled
C:\Users\Alex\AppData\Local\Temp\cc0G22cc.s:5190   .text.lv_display_get_refr_timer:00000000 $t
C:\Users\Alex\AppData\Local\Temp\cc0G22cc.s:5196   .text.lv_display_get_refr_timer:00000000 lv_display_get_refr_timer
C:\Users\Alex\AppData\Local\Temp\cc0G22cc.s:5237   .text.lv_display_delete_refr_timer:00000000 $t
C:\Users\Alex\AppData\Local\Temp\cc0G22cc.s:5243   .text.lv_display_delete_refr_timer:00000000 lv_display_delete_refr_timer
C:\Users\Alex\AppData\Local\Temp\cc0G22cc.s:5292   .text.lv_display_set_user_data:00000000 $t
C:\Users\Alex\AppData\Local\Temp\cc0G22cc.s:5298   .text.lv_display_set_user_data:00000000 lv_display_set_user_data
C:\Users\Alex\AppData\Local\Temp\cc0G22cc.s:5340   .text.lv_display_set_driver_data:00000000 $t
C:\Users\Alex\AppData\Local\Temp\cc0G22cc.s:5346   .text.lv_display_set_driver_data:00000000 lv_display_set_driver_data
C:\Users\Alex\AppData\Local\Temp\cc0G22cc.s:5388   .text.lv_display_get_user_data:00000000 $t
C:\Users\Alex\AppData\Local\Temp\cc0G22cc.s:5394   .text.lv_display_get_user_data:00000000 lv_display_get_user_data
C:\Users\Alex\AppData\Local\Temp\cc0G22cc.s:5435   .text.lv_display_get_driver_data:00000000 $t
C:\Users\Alex\AppData\Local\Temp\cc0G22cc.s:5441   .text.lv_display_get_driver_data:00000000 lv_display_get_driver_data

UNDEFINED SYMBOLS
lv_event_get_code
lv_event_get_target
lv_timer_resume
lv_obj_mark_layout_as_dirty
lv_obj_get_display
lv_obj_send_event
lv_obj_invalidate
lv_obj_remove_local_style_prop
lv_obj_delete
lv_obj_set_style_opa
lv_obj_set_y
lv_obj_set_x
lv_global
_lv_ll_get_next
_lv_ll_get_head
lv_draw_buf_width_to_stride
lv_draw_buf_init
lv_anim_delete
lv_obj_set_pos
lv_anim_init
lv_anim_start
lv_event_add
_lv_ll_ins_head
lv_memset
lv_malloc_zeroed
_lv_ll_init
ARM GAS  C:\Users\Alex\AppData\Local\Temp\cc0G22cc.s 			page 159


lv_timer_create
lv_theme_default_is_inited
lv_palette_main
lv_theme_default_init
lv_obj_create
lv_obj_remove_style_all
lv_obj_remove_flag
lv_obj_set_scrollbar_mode
lv_timer_ready
lv_theme_default_get
_lv_display_refr_timer
lv_font_montserrat_14
lv_event_get_count
lv_event_get_dsc
lv_event_remove
lv_event_send
lv_event_remove_all
lv_indev_get_next
lv_indev_get_display
lv_indev_set_display
_lv_ll_clear_custom
_lv_ll_remove
lv_timer_delete
lv_free
lv_obj_get_coords
lv_area_set_width
lv_area_set_height
lv_obj_tree_walk
lv_obj_get_child_count
lv_theme_apply
lv_tick_elaps
lv_tick_get
