ARM GAS  C:\Users\Alex\AppData\Local\Temp\cc0G22cc.s 			page 1


   1              		.cpu cortex-m4
   2              		.arch armv7e-m
   3              		.fpu fpv4-sp-d16
   4              		.eabi_attribute 27, 1
   5              		.eabi_attribute 28, 1
   6              		.eabi_attribute 20, 1
   7              		.eabi_attribute 21, 1
   8              		.eabi_attribute 23, 3
   9              		.eabi_attribute 24, 1
  10              		.eabi_attribute 25, 1
  11              		.eabi_attribute 26, 1
  12              		.eabi_attribute 30, 1
  13              		.eabi_attribute 34, 1
  14              		.eabi_attribute 18, 4
  15              		.file	"lv_display.c"
  16              		.text
  17              	.Ltext0:
  18              		.cfi_sections	.debug_frame
  19              		.file 1 "Lib/lvgl/src/display/lv_display.c"
  20              		.section	.text.is_out_anim,"ax",%progbits
  21              		.align	1
  22              		.syntax unified
  23              		.thumb
  24              		.thumb_func
  26              	is_out_anim:
  27              	.LVL0:
  28              	.LFB297:
   1:Lib/lvgl/src/display/lv_display.c **** /**
   2:Lib/lvgl/src/display/lv_display.c ****  * @file lv_disp.c
   3:Lib/lvgl/src/display/lv_display.c ****  *
   4:Lib/lvgl/src/display/lv_display.c ****  */
   5:Lib/lvgl/src/display/lv_display.c **** 
   6:Lib/lvgl/src/display/lv_display.c **** /*********************
   7:Lib/lvgl/src/display/lv_display.c ****  *      INCLUDES
   8:Lib/lvgl/src/display/lv_display.c ****  *********************/
   9:Lib/lvgl/src/display/lv_display.c **** #include "lv_display.h"
  10:Lib/lvgl/src/display/lv_display.c **** #include "../misc/lv_math.h"
  11:Lib/lvgl/src/display/lv_display.c **** #include "../core/lv_refr.h"
  12:Lib/lvgl/src/display/lv_display.c **** #include "../display/lv_display_private.h"
  13:Lib/lvgl/src/display/lv_display.c **** #include "../stdlib/lv_string.h"
  14:Lib/lvgl/src/display/lv_display.c **** #include "../themes/lv_theme.h"
  15:Lib/lvgl/src/display/lv_display.c **** #include "../core/lv_global.h"
  16:Lib/lvgl/src/display/lv_display.c **** 
  17:Lib/lvgl/src/display/lv_display.c **** #if LV_USE_DRAW_SW
  18:Lib/lvgl/src/display/lv_display.c ****     #include "../draw/sw/lv_draw_sw.h"
  19:Lib/lvgl/src/display/lv_display.c **** #endif
  20:Lib/lvgl/src/display/lv_display.c **** 
  21:Lib/lvgl/src/display/lv_display.c **** /*********************
  22:Lib/lvgl/src/display/lv_display.c ****  *      DEFINES
  23:Lib/lvgl/src/display/lv_display.c ****  *********************/
  24:Lib/lvgl/src/display/lv_display.c **** #define disp_def LV_GLOBAL_DEFAULT()->disp_default
  25:Lib/lvgl/src/display/lv_display.c **** #define disp_ll_p &(LV_GLOBAL_DEFAULT()->disp_ll)
  26:Lib/lvgl/src/display/lv_display.c **** 
  27:Lib/lvgl/src/display/lv_display.c **** /**********************
  28:Lib/lvgl/src/display/lv_display.c ****  *      TYPEDEFS
  29:Lib/lvgl/src/display/lv_display.c ****  **********************/
  30:Lib/lvgl/src/display/lv_display.c **** 
ARM GAS  C:\Users\Alex\AppData\Local\Temp\cc0G22cc.s 			page 2


  31:Lib/lvgl/src/display/lv_display.c **** /**********************
  32:Lib/lvgl/src/display/lv_display.c ****  *  STATIC PROTOTYPES
  33:Lib/lvgl/src/display/lv_display.c ****  **********************/
  34:Lib/lvgl/src/display/lv_display.c **** static lv_obj_tree_walk_res_t invalidate_layout_cb(lv_obj_t * obj, void * user_data);
  35:Lib/lvgl/src/display/lv_display.c **** static void update_resolution(lv_display_t * disp);
  36:Lib/lvgl/src/display/lv_display.c **** static void scr_load_internal(lv_obj_t * scr);
  37:Lib/lvgl/src/display/lv_display.c **** static void scr_load_anim_start(lv_anim_t * a);
  38:Lib/lvgl/src/display/lv_display.c **** static void opa_scale_anim(void * obj, int32_t v);
  39:Lib/lvgl/src/display/lv_display.c **** static void set_x_anim(void * obj, int32_t v);
  40:Lib/lvgl/src/display/lv_display.c **** static void set_y_anim(void * obj, int32_t v);
  41:Lib/lvgl/src/display/lv_display.c **** static void scr_anim_completed(lv_anim_t * a);
  42:Lib/lvgl/src/display/lv_display.c **** static bool is_out_anim(lv_screen_load_anim_t a);
  43:Lib/lvgl/src/display/lv_display.c **** static void disp_event_cb(lv_event_t * e);
  44:Lib/lvgl/src/display/lv_display.c **** 
  45:Lib/lvgl/src/display/lv_display.c **** /**********************
  46:Lib/lvgl/src/display/lv_display.c ****  *  STATIC VARIABLES
  47:Lib/lvgl/src/display/lv_display.c ****  **********************/
  48:Lib/lvgl/src/display/lv_display.c **** 
  49:Lib/lvgl/src/display/lv_display.c **** /**********************
  50:Lib/lvgl/src/display/lv_display.c ****  *      MACROS
  51:Lib/lvgl/src/display/lv_display.c ****  **********************/
  52:Lib/lvgl/src/display/lv_display.c **** 
  53:Lib/lvgl/src/display/lv_display.c **** /**********************
  54:Lib/lvgl/src/display/lv_display.c ****  *   GLOBAL FUNCTIONS
  55:Lib/lvgl/src/display/lv_display.c ****  **********************/
  56:Lib/lvgl/src/display/lv_display.c **** 
  57:Lib/lvgl/src/display/lv_display.c **** lv_display_t * lv_display_create(int32_t hor_res, int32_t ver_res)
  58:Lib/lvgl/src/display/lv_display.c **** {
  59:Lib/lvgl/src/display/lv_display.c ****     lv_display_t * disp = _lv_ll_ins_head(disp_ll_p);
  60:Lib/lvgl/src/display/lv_display.c ****     LV_ASSERT_MALLOC(disp);
  61:Lib/lvgl/src/display/lv_display.c ****     if(!disp) return NULL;
  62:Lib/lvgl/src/display/lv_display.c **** 
  63:Lib/lvgl/src/display/lv_display.c ****     lv_memzero(disp, sizeof(lv_display_t));
  64:Lib/lvgl/src/display/lv_display.c **** 
  65:Lib/lvgl/src/display/lv_display.c ****     disp->hor_res          = hor_res;
  66:Lib/lvgl/src/display/lv_display.c ****     disp->ver_res          = ver_res;
  67:Lib/lvgl/src/display/lv_display.c ****     disp->physical_hor_res = -1;
  68:Lib/lvgl/src/display/lv_display.c ****     disp->physical_ver_res = -1;
  69:Lib/lvgl/src/display/lv_display.c ****     disp->offset_x         = 0;
  70:Lib/lvgl/src/display/lv_display.c ****     disp->offset_y         = 0;
  71:Lib/lvgl/src/display/lv_display.c ****     disp->antialiasing     = LV_COLOR_DEPTH > 8 ? 1 : 0;
  72:Lib/lvgl/src/display/lv_display.c ****     disp->dpi              = LV_DPI_DEF;
  73:Lib/lvgl/src/display/lv_display.c ****     disp->color_format = LV_COLOR_FORMAT_NATIVE;
  74:Lib/lvgl/src/display/lv_display.c **** 
  75:Lib/lvgl/src/display/lv_display.c ****     disp->layer_head = lv_malloc_zeroed(sizeof(lv_layer_t));
  76:Lib/lvgl/src/display/lv_display.c ****     LV_ASSERT_MALLOC(disp->layer_head);
  77:Lib/lvgl/src/display/lv_display.c ****     if(disp->layer_head == NULL) return NULL;
  78:Lib/lvgl/src/display/lv_display.c **** 
  79:Lib/lvgl/src/display/lv_display.c ****     if(disp->layer_init) disp->layer_init(disp, disp->layer_head);
  80:Lib/lvgl/src/display/lv_display.c ****     disp->layer_head->buf_area.x1 = 0;
  81:Lib/lvgl/src/display/lv_display.c ****     disp->layer_head->buf_area.y1 = 0;
  82:Lib/lvgl/src/display/lv_display.c ****     disp->layer_head->buf_area.x2 = hor_res - 1;
  83:Lib/lvgl/src/display/lv_display.c ****     disp->layer_head->buf_area.y2 = ver_res - 1;
  84:Lib/lvgl/src/display/lv_display.c ****     disp->layer_head->color_format = disp->color_format;
  85:Lib/lvgl/src/display/lv_display.c **** 
  86:Lib/lvgl/src/display/lv_display.c ****     disp->inv_en_cnt = 1;
  87:Lib/lvgl/src/display/lv_display.c **** 
ARM GAS  C:\Users\Alex\AppData\Local\Temp\cc0G22cc.s 			page 3


  88:Lib/lvgl/src/display/lv_display.c ****     _lv_ll_init(&disp->sync_areas, sizeof(lv_area_t));
  89:Lib/lvgl/src/display/lv_display.c **** 
  90:Lib/lvgl/src/display/lv_display.c ****     lv_display_t * disp_def_tmp = disp_def;
  91:Lib/lvgl/src/display/lv_display.c ****     disp_def                 = disp; /*Temporarily change the default screen to create the default 
  92:Lib/lvgl/src/display/lv_display.c ****                                         new display*/
  93:Lib/lvgl/src/display/lv_display.c ****     /*Create a refresh timer*/
  94:Lib/lvgl/src/display/lv_display.c ****     disp->refr_timer = lv_timer_create(_lv_display_refr_timer, LV_DEF_REFR_PERIOD, disp);
  95:Lib/lvgl/src/display/lv_display.c ****     LV_ASSERT_MALLOC(disp->refr_timer);
  96:Lib/lvgl/src/display/lv_display.c ****     if(disp->refr_timer == NULL) {
  97:Lib/lvgl/src/display/lv_display.c ****         lv_free(disp);
  98:Lib/lvgl/src/display/lv_display.c ****         return NULL;
  99:Lib/lvgl/src/display/lv_display.c ****     }
 100:Lib/lvgl/src/display/lv_display.c **** 
 101:Lib/lvgl/src/display/lv_display.c **** #if LV_USE_THEME_DEFAULT
 102:Lib/lvgl/src/display/lv_display.c ****     if(lv_theme_default_is_inited() == false) {
 103:Lib/lvgl/src/display/lv_display.c ****         disp->theme = lv_theme_default_init(disp, lv_palette_main(LV_PALETTE_BLUE), lv_palette_main
 104:Lib/lvgl/src/display/lv_display.c ****                                             LV_THEME_DEFAULT_DARK, LV_FONT_DEFAULT);
 105:Lib/lvgl/src/display/lv_display.c ****     }
 106:Lib/lvgl/src/display/lv_display.c ****     else {
 107:Lib/lvgl/src/display/lv_display.c ****         disp->theme = lv_theme_default_get();
 108:Lib/lvgl/src/display/lv_display.c ****     }
 109:Lib/lvgl/src/display/lv_display.c **** #elif LV_USE_THEME_SIMPLE
 110:Lib/lvgl/src/display/lv_display.c ****     if(lv_theme_simple_is_inited() == false) {
 111:Lib/lvgl/src/display/lv_display.c ****         disp->theme = lv_theme_simple_init(disp);
 112:Lib/lvgl/src/display/lv_display.c ****     }
 113:Lib/lvgl/src/display/lv_display.c ****     else {
 114:Lib/lvgl/src/display/lv_display.c ****         disp->theme = lv_theme_simple_get();
 115:Lib/lvgl/src/display/lv_display.c ****     }
 116:Lib/lvgl/src/display/lv_display.c **** #endif
 117:Lib/lvgl/src/display/lv_display.c **** 
 118:Lib/lvgl/src/display/lv_display.c ****     disp->bottom_layer = lv_obj_create(NULL); /*Create bottom layer on the display*/
 119:Lib/lvgl/src/display/lv_display.c ****     disp->act_scr   = lv_obj_create(NULL); /*Create a default screen on the display*/
 120:Lib/lvgl/src/display/lv_display.c ****     disp->top_layer = lv_obj_create(NULL); /*Create top layer on the display*/
 121:Lib/lvgl/src/display/lv_display.c ****     disp->sys_layer = lv_obj_create(NULL); /*Create sys layer on the display*/
 122:Lib/lvgl/src/display/lv_display.c ****     lv_obj_remove_style_all(disp->bottom_layer);
 123:Lib/lvgl/src/display/lv_display.c ****     lv_obj_remove_style_all(disp->top_layer);
 124:Lib/lvgl/src/display/lv_display.c ****     lv_obj_remove_style_all(disp->sys_layer);
 125:Lib/lvgl/src/display/lv_display.c ****     lv_obj_remove_flag(disp->top_layer, LV_OBJ_FLAG_CLICKABLE);
 126:Lib/lvgl/src/display/lv_display.c ****     lv_obj_remove_flag(disp->sys_layer, LV_OBJ_FLAG_CLICKABLE);
 127:Lib/lvgl/src/display/lv_display.c **** 
 128:Lib/lvgl/src/display/lv_display.c ****     lv_obj_set_scrollbar_mode(disp->bottom_layer, LV_SCROLLBAR_MODE_OFF);
 129:Lib/lvgl/src/display/lv_display.c ****     lv_obj_set_scrollbar_mode(disp->top_layer, LV_SCROLLBAR_MODE_OFF);
 130:Lib/lvgl/src/display/lv_display.c ****     lv_obj_set_scrollbar_mode(disp->sys_layer, LV_SCROLLBAR_MODE_OFF);
 131:Lib/lvgl/src/display/lv_display.c **** 
 132:Lib/lvgl/src/display/lv_display.c ****     lv_obj_invalidate(disp->act_scr);
 133:Lib/lvgl/src/display/lv_display.c **** 
 134:Lib/lvgl/src/display/lv_display.c ****     disp_def = disp_def_tmp; /*Revert the default display*/
 135:Lib/lvgl/src/display/lv_display.c ****     if(disp_def == NULL) disp_def = disp; /*Initialize the default display*/
 136:Lib/lvgl/src/display/lv_display.c **** 
 137:Lib/lvgl/src/display/lv_display.c ****     lv_display_add_event_cb(disp, disp_event_cb, LV_EVENT_REFR_REQUEST, NULL);
 138:Lib/lvgl/src/display/lv_display.c **** 
 139:Lib/lvgl/src/display/lv_display.c ****     lv_timer_ready(disp->refr_timer); /*Be sure the screen will be refreshed immediately on start u
 140:Lib/lvgl/src/display/lv_display.c **** 
 141:Lib/lvgl/src/display/lv_display.c ****     return disp;
 142:Lib/lvgl/src/display/lv_display.c **** }
 143:Lib/lvgl/src/display/lv_display.c **** 
 144:Lib/lvgl/src/display/lv_display.c **** void lv_display_delete(lv_display_t * disp)
ARM GAS  C:\Users\Alex\AppData\Local\Temp\cc0G22cc.s 			page 4


 145:Lib/lvgl/src/display/lv_display.c **** {
 146:Lib/lvgl/src/display/lv_display.c ****     bool was_default = false;
 147:Lib/lvgl/src/display/lv_display.c ****     if(disp == lv_display_get_default()) was_default = true;
 148:Lib/lvgl/src/display/lv_display.c **** 
 149:Lib/lvgl/src/display/lv_display.c ****     lv_display_send_event(disp, LV_EVENT_DELETE, NULL);
 150:Lib/lvgl/src/display/lv_display.c ****     lv_event_remove_all(&(disp->event_list));
 151:Lib/lvgl/src/display/lv_display.c **** 
 152:Lib/lvgl/src/display/lv_display.c ****     /*Detach the input devices*/
 153:Lib/lvgl/src/display/lv_display.c ****     lv_indev_t * indev;
 154:Lib/lvgl/src/display/lv_display.c ****     indev = lv_indev_get_next(NULL);
 155:Lib/lvgl/src/display/lv_display.c ****     while(indev) {
 156:Lib/lvgl/src/display/lv_display.c ****         if(lv_indev_get_display(indev) == disp) {
 157:Lib/lvgl/src/display/lv_display.c ****             lv_indev_set_display(indev, NULL);
 158:Lib/lvgl/src/display/lv_display.c ****         }
 159:Lib/lvgl/src/display/lv_display.c ****         indev = lv_indev_get_next(indev);
 160:Lib/lvgl/src/display/lv_display.c ****     }
 161:Lib/lvgl/src/display/lv_display.c **** 
 162:Lib/lvgl/src/display/lv_display.c ****     /* Delete screen and other obj */
 163:Lib/lvgl/src/display/lv_display.c ****     if(disp->sys_layer) {
 164:Lib/lvgl/src/display/lv_display.c ****         lv_obj_delete(disp->sys_layer);
 165:Lib/lvgl/src/display/lv_display.c ****         disp->sys_layer = NULL;
 166:Lib/lvgl/src/display/lv_display.c ****     }
 167:Lib/lvgl/src/display/lv_display.c ****     if(disp->top_layer) {
 168:Lib/lvgl/src/display/lv_display.c ****         lv_obj_delete(disp->top_layer);
 169:Lib/lvgl/src/display/lv_display.c ****         disp->top_layer = NULL;
 170:Lib/lvgl/src/display/lv_display.c ****     }
 171:Lib/lvgl/src/display/lv_display.c **** 
 172:Lib/lvgl/src/display/lv_display.c ****     if(disp->bottom_layer) {
 173:Lib/lvgl/src/display/lv_display.c ****         lv_obj_delete(disp->bottom_layer);
 174:Lib/lvgl/src/display/lv_display.c ****         disp->bottom_layer = NULL;
 175:Lib/lvgl/src/display/lv_display.c ****     }
 176:Lib/lvgl/src/display/lv_display.c **** 
 177:Lib/lvgl/src/display/lv_display.c ****     disp->act_scr = NULL;
 178:Lib/lvgl/src/display/lv_display.c **** 
 179:Lib/lvgl/src/display/lv_display.c ****     while(disp->screen_cnt != 0) {
 180:Lib/lvgl/src/display/lv_display.c ****         /*Delete the screenst*/
 181:Lib/lvgl/src/display/lv_display.c ****         lv_obj_delete(disp->screens[0]);
 182:Lib/lvgl/src/display/lv_display.c ****     }
 183:Lib/lvgl/src/display/lv_display.c **** 
 184:Lib/lvgl/src/display/lv_display.c ****     _lv_ll_clear(&disp->sync_areas);
 185:Lib/lvgl/src/display/lv_display.c ****     _lv_ll_remove(disp_ll_p, disp);
 186:Lib/lvgl/src/display/lv_display.c ****     if(disp->refr_timer) lv_timer_delete(disp->refr_timer);
 187:Lib/lvgl/src/display/lv_display.c **** 
 188:Lib/lvgl/src/display/lv_display.c ****     if(disp->layer_deinit) disp->layer_deinit(disp, disp->layer_head);
 189:Lib/lvgl/src/display/lv_display.c ****     lv_free(disp->layer_head);
 190:Lib/lvgl/src/display/lv_display.c **** 
 191:Lib/lvgl/src/display/lv_display.c ****     lv_free(disp);
 192:Lib/lvgl/src/display/lv_display.c **** 
 193:Lib/lvgl/src/display/lv_display.c ****     if(was_default) lv_display_set_default(_lv_ll_get_head(disp_ll_p));
 194:Lib/lvgl/src/display/lv_display.c **** }
 195:Lib/lvgl/src/display/lv_display.c **** 
 196:Lib/lvgl/src/display/lv_display.c **** void lv_display_set_default(lv_display_t * disp)
 197:Lib/lvgl/src/display/lv_display.c **** {
 198:Lib/lvgl/src/display/lv_display.c ****     disp_def = disp;
 199:Lib/lvgl/src/display/lv_display.c **** }
 200:Lib/lvgl/src/display/lv_display.c **** 
 201:Lib/lvgl/src/display/lv_display.c **** lv_display_t * lv_display_get_default(void)
ARM GAS  C:\Users\Alex\AppData\Local\Temp\cc0G22cc.s 			page 5


 202:Lib/lvgl/src/display/lv_display.c **** {
 203:Lib/lvgl/src/display/lv_display.c ****     return disp_def;
 204:Lib/lvgl/src/display/lv_display.c **** }
 205:Lib/lvgl/src/display/lv_display.c **** 
 206:Lib/lvgl/src/display/lv_display.c **** lv_display_t * lv_display_get_next(lv_display_t * disp)
 207:Lib/lvgl/src/display/lv_display.c **** {
 208:Lib/lvgl/src/display/lv_display.c ****     if(disp == NULL)
 209:Lib/lvgl/src/display/lv_display.c ****         return _lv_ll_get_head(disp_ll_p);
 210:Lib/lvgl/src/display/lv_display.c ****     else
 211:Lib/lvgl/src/display/lv_display.c ****         return _lv_ll_get_next(disp_ll_p, disp);
 212:Lib/lvgl/src/display/lv_display.c **** }
 213:Lib/lvgl/src/display/lv_display.c **** 
 214:Lib/lvgl/src/display/lv_display.c **** /*---------------------
 215:Lib/lvgl/src/display/lv_display.c ****  * RESOLUTION
 216:Lib/lvgl/src/display/lv_display.c ****  *--------------------*/
 217:Lib/lvgl/src/display/lv_display.c **** 
 218:Lib/lvgl/src/display/lv_display.c **** void lv_display_set_resolution(lv_display_t * disp, int32_t hor_res, int32_t ver_res)
 219:Lib/lvgl/src/display/lv_display.c **** {
 220:Lib/lvgl/src/display/lv_display.c ****     if(disp == NULL) disp = lv_display_get_default();
 221:Lib/lvgl/src/display/lv_display.c ****     if(disp == NULL) return;
 222:Lib/lvgl/src/display/lv_display.c **** 
 223:Lib/lvgl/src/display/lv_display.c ****     if(disp->hor_res == hor_res && disp->ver_res == ver_res) return;
 224:Lib/lvgl/src/display/lv_display.c **** 
 225:Lib/lvgl/src/display/lv_display.c ****     disp->hor_res = hor_res;
 226:Lib/lvgl/src/display/lv_display.c ****     disp->ver_res = ver_res;
 227:Lib/lvgl/src/display/lv_display.c **** 
 228:Lib/lvgl/src/display/lv_display.c ****     update_resolution(disp);
 229:Lib/lvgl/src/display/lv_display.c **** }
 230:Lib/lvgl/src/display/lv_display.c **** 
 231:Lib/lvgl/src/display/lv_display.c **** void lv_display_set_physical_resolution(lv_display_t * disp, int32_t hor_res, int32_t ver_res)
 232:Lib/lvgl/src/display/lv_display.c **** {
 233:Lib/lvgl/src/display/lv_display.c ****     if(disp == NULL) disp = lv_display_get_default();
 234:Lib/lvgl/src/display/lv_display.c ****     if(disp == NULL) return;
 235:Lib/lvgl/src/display/lv_display.c **** 
 236:Lib/lvgl/src/display/lv_display.c ****     disp->physical_hor_res = hor_res;
 237:Lib/lvgl/src/display/lv_display.c ****     disp->physical_ver_res = ver_res;
 238:Lib/lvgl/src/display/lv_display.c **** 
 239:Lib/lvgl/src/display/lv_display.c ****     lv_obj_invalidate(disp->sys_layer);
 240:Lib/lvgl/src/display/lv_display.c **** 
 241:Lib/lvgl/src/display/lv_display.c **** }
 242:Lib/lvgl/src/display/lv_display.c **** 
 243:Lib/lvgl/src/display/lv_display.c **** void lv_display_set_offset(lv_display_t * disp, int32_t x, int32_t y)
 244:Lib/lvgl/src/display/lv_display.c **** {
 245:Lib/lvgl/src/display/lv_display.c ****     if(disp == NULL) disp = lv_display_get_default();
 246:Lib/lvgl/src/display/lv_display.c ****     if(disp == NULL) return;
 247:Lib/lvgl/src/display/lv_display.c **** 
 248:Lib/lvgl/src/display/lv_display.c ****     disp->offset_x = x;
 249:Lib/lvgl/src/display/lv_display.c ****     disp->offset_y = y;
 250:Lib/lvgl/src/display/lv_display.c **** 
 251:Lib/lvgl/src/display/lv_display.c ****     lv_obj_invalidate(disp->sys_layer);
 252:Lib/lvgl/src/display/lv_display.c **** 
 253:Lib/lvgl/src/display/lv_display.c **** }
 254:Lib/lvgl/src/display/lv_display.c **** 
 255:Lib/lvgl/src/display/lv_display.c **** void lv_display_set_dpi(lv_display_t * disp, int32_t dpi)
 256:Lib/lvgl/src/display/lv_display.c **** {
 257:Lib/lvgl/src/display/lv_display.c ****     if(disp == NULL) disp = lv_display_get_default();
 258:Lib/lvgl/src/display/lv_display.c ****     if(disp == NULL) return;
ARM GAS  C:\Users\Alex\AppData\Local\Temp\cc0G22cc.s 			page 6


 259:Lib/lvgl/src/display/lv_display.c **** 
 260:Lib/lvgl/src/display/lv_display.c ****     disp->dpi = dpi;
 261:Lib/lvgl/src/display/lv_display.c **** }
 262:Lib/lvgl/src/display/lv_display.c **** 
 263:Lib/lvgl/src/display/lv_display.c **** int32_t lv_display_get_horizontal_resolution(const lv_display_t * disp)
 264:Lib/lvgl/src/display/lv_display.c **** {
 265:Lib/lvgl/src/display/lv_display.c ****     if(disp == NULL) disp = lv_display_get_default();
 266:Lib/lvgl/src/display/lv_display.c **** 
 267:Lib/lvgl/src/display/lv_display.c ****     if(disp == NULL) {
 268:Lib/lvgl/src/display/lv_display.c ****         return 0;
 269:Lib/lvgl/src/display/lv_display.c ****     }
 270:Lib/lvgl/src/display/lv_display.c ****     else {
 271:Lib/lvgl/src/display/lv_display.c ****         switch(disp->rotation) {
 272:Lib/lvgl/src/display/lv_display.c ****             case LV_DISPLAY_ROTATION_90:
 273:Lib/lvgl/src/display/lv_display.c ****             case LV_DISPLAY_ROTATION_270:
 274:Lib/lvgl/src/display/lv_display.c ****                 return disp->ver_res;
 275:Lib/lvgl/src/display/lv_display.c ****             default:
 276:Lib/lvgl/src/display/lv_display.c ****                 return disp->hor_res;
 277:Lib/lvgl/src/display/lv_display.c ****         }
 278:Lib/lvgl/src/display/lv_display.c ****     }
 279:Lib/lvgl/src/display/lv_display.c **** }
 280:Lib/lvgl/src/display/lv_display.c **** 
 281:Lib/lvgl/src/display/lv_display.c **** int32_t lv_display_get_vertical_resolution(const lv_display_t * disp)
 282:Lib/lvgl/src/display/lv_display.c **** {
 283:Lib/lvgl/src/display/lv_display.c ****     if(disp == NULL) disp = lv_display_get_default();
 284:Lib/lvgl/src/display/lv_display.c **** 
 285:Lib/lvgl/src/display/lv_display.c ****     if(disp == NULL) {
 286:Lib/lvgl/src/display/lv_display.c ****         return 0;
 287:Lib/lvgl/src/display/lv_display.c ****     }
 288:Lib/lvgl/src/display/lv_display.c ****     else {
 289:Lib/lvgl/src/display/lv_display.c ****         switch(disp->rotation) {
 290:Lib/lvgl/src/display/lv_display.c ****             case LV_DISPLAY_ROTATION_90:
 291:Lib/lvgl/src/display/lv_display.c ****             case LV_DISPLAY_ROTATION_270:
 292:Lib/lvgl/src/display/lv_display.c ****                 return disp->hor_res;
 293:Lib/lvgl/src/display/lv_display.c ****             default:
 294:Lib/lvgl/src/display/lv_display.c ****                 return disp->ver_res;
 295:Lib/lvgl/src/display/lv_display.c ****         }
 296:Lib/lvgl/src/display/lv_display.c ****     }
 297:Lib/lvgl/src/display/lv_display.c **** }
 298:Lib/lvgl/src/display/lv_display.c **** 
 299:Lib/lvgl/src/display/lv_display.c **** int32_t lv_display_get_physical_horizontal_resolution(const lv_display_t * disp)
 300:Lib/lvgl/src/display/lv_display.c **** {
 301:Lib/lvgl/src/display/lv_display.c ****     if(disp == NULL) disp = lv_display_get_default();
 302:Lib/lvgl/src/display/lv_display.c **** 
 303:Lib/lvgl/src/display/lv_display.c ****     if(disp == NULL) {
 304:Lib/lvgl/src/display/lv_display.c ****         return 0;
 305:Lib/lvgl/src/display/lv_display.c ****     }
 306:Lib/lvgl/src/display/lv_display.c ****     else {
 307:Lib/lvgl/src/display/lv_display.c ****         switch(disp->rotation) {
 308:Lib/lvgl/src/display/lv_display.c ****             case LV_DISPLAY_ROTATION_90:
 309:Lib/lvgl/src/display/lv_display.c ****             case LV_DISPLAY_ROTATION_270:
 310:Lib/lvgl/src/display/lv_display.c ****                 return disp->physical_ver_res > 0 ? disp->physical_ver_res : disp->ver_res;
 311:Lib/lvgl/src/display/lv_display.c ****             default:
 312:Lib/lvgl/src/display/lv_display.c ****                 return disp->physical_hor_res > 0 ? disp->physical_hor_res : disp->hor_res;
 313:Lib/lvgl/src/display/lv_display.c ****         }
 314:Lib/lvgl/src/display/lv_display.c ****     }
 315:Lib/lvgl/src/display/lv_display.c **** }
ARM GAS  C:\Users\Alex\AppData\Local\Temp\cc0G22cc.s 			page 7


 316:Lib/lvgl/src/display/lv_display.c **** 
 317:Lib/lvgl/src/display/lv_display.c **** int32_t lv_display_get_physical_vertical_resolution(const lv_display_t * disp)
 318:Lib/lvgl/src/display/lv_display.c **** {
 319:Lib/lvgl/src/display/lv_display.c ****     if(disp == NULL) disp = lv_display_get_default();
 320:Lib/lvgl/src/display/lv_display.c **** 
 321:Lib/lvgl/src/display/lv_display.c ****     if(disp == NULL) {
 322:Lib/lvgl/src/display/lv_display.c ****         return 0;
 323:Lib/lvgl/src/display/lv_display.c ****     }
 324:Lib/lvgl/src/display/lv_display.c ****     else {
 325:Lib/lvgl/src/display/lv_display.c ****         switch(disp->rotation) {
 326:Lib/lvgl/src/display/lv_display.c ****             case LV_DISPLAY_ROTATION_90:
 327:Lib/lvgl/src/display/lv_display.c ****             case LV_DISPLAY_ROTATION_270:
 328:Lib/lvgl/src/display/lv_display.c ****                 return disp->physical_hor_res > 0 ? disp->physical_hor_res : disp->hor_res;
 329:Lib/lvgl/src/display/lv_display.c ****             default:
 330:Lib/lvgl/src/display/lv_display.c ****                 return disp->physical_ver_res > 0 ? disp->physical_ver_res : disp->ver_res;
 331:Lib/lvgl/src/display/lv_display.c ****         }
 332:Lib/lvgl/src/display/lv_display.c ****     }
 333:Lib/lvgl/src/display/lv_display.c **** }
 334:Lib/lvgl/src/display/lv_display.c **** 
 335:Lib/lvgl/src/display/lv_display.c **** int32_t lv_display_get_offset_x(const lv_display_t * disp)
 336:Lib/lvgl/src/display/lv_display.c **** {
 337:Lib/lvgl/src/display/lv_display.c ****     if(disp == NULL) disp = lv_display_get_default();
 338:Lib/lvgl/src/display/lv_display.c **** 
 339:Lib/lvgl/src/display/lv_display.c ****     if(disp == NULL) {
 340:Lib/lvgl/src/display/lv_display.c ****         return 0;
 341:Lib/lvgl/src/display/lv_display.c ****     }
 342:Lib/lvgl/src/display/lv_display.c ****     else {
 343:Lib/lvgl/src/display/lv_display.c ****         switch(disp->rotation) {
 344:Lib/lvgl/src/display/lv_display.c ****             case LV_DISPLAY_ROTATION_90:
 345:Lib/lvgl/src/display/lv_display.c ****                 return disp->offset_y;
 346:Lib/lvgl/src/display/lv_display.c ****             case LV_DISPLAY_ROTATION_180:
 347:Lib/lvgl/src/display/lv_display.c ****                 return lv_display_get_physical_horizontal_resolution(disp) - disp->offset_x;
 348:Lib/lvgl/src/display/lv_display.c ****             case LV_DISPLAY_ROTATION_270:
 349:Lib/lvgl/src/display/lv_display.c ****                 return lv_display_get_physical_horizontal_resolution(disp) - disp->offset_y;
 350:Lib/lvgl/src/display/lv_display.c ****             default:
 351:Lib/lvgl/src/display/lv_display.c ****                 return disp->offset_x;
 352:Lib/lvgl/src/display/lv_display.c ****         }
 353:Lib/lvgl/src/display/lv_display.c ****     }
 354:Lib/lvgl/src/display/lv_display.c **** }
 355:Lib/lvgl/src/display/lv_display.c **** 
 356:Lib/lvgl/src/display/lv_display.c **** int32_t lv_display_get_offset_y(const lv_display_t * disp)
 357:Lib/lvgl/src/display/lv_display.c **** {
 358:Lib/lvgl/src/display/lv_display.c ****     if(disp == NULL) disp = lv_display_get_default();
 359:Lib/lvgl/src/display/lv_display.c **** 
 360:Lib/lvgl/src/display/lv_display.c ****     if(disp == NULL) {
 361:Lib/lvgl/src/display/lv_display.c ****         return 0;
 362:Lib/lvgl/src/display/lv_display.c ****     }
 363:Lib/lvgl/src/display/lv_display.c ****     else {
 364:Lib/lvgl/src/display/lv_display.c ****         switch(disp->rotation) {
 365:Lib/lvgl/src/display/lv_display.c ****             case LV_DISPLAY_ROTATION_90:
 366:Lib/lvgl/src/display/lv_display.c ****                 return disp->offset_x;
 367:Lib/lvgl/src/display/lv_display.c ****             case LV_DISPLAY_ROTATION_180:
 368:Lib/lvgl/src/display/lv_display.c ****                 return lv_display_get_physical_vertical_resolution(disp) - disp->offset_y;
 369:Lib/lvgl/src/display/lv_display.c ****             case LV_DISPLAY_ROTATION_270:
 370:Lib/lvgl/src/display/lv_display.c ****                 return lv_display_get_physical_vertical_resolution(disp) - disp->offset_x;
 371:Lib/lvgl/src/display/lv_display.c ****             default:
 372:Lib/lvgl/src/display/lv_display.c ****                 return disp->offset_y;
ARM GAS  C:\Users\Alex\AppData\Local\Temp\cc0G22cc.s 			page 8


 373:Lib/lvgl/src/display/lv_display.c ****         }
 374:Lib/lvgl/src/display/lv_display.c ****     }
 375:Lib/lvgl/src/display/lv_display.c **** }
 376:Lib/lvgl/src/display/lv_display.c **** 
 377:Lib/lvgl/src/display/lv_display.c **** int32_t lv_display_get_dpi(const lv_display_t * disp)
 378:Lib/lvgl/src/display/lv_display.c **** {
 379:Lib/lvgl/src/display/lv_display.c ****     if(disp == NULL) disp = lv_display_get_default();
 380:Lib/lvgl/src/display/lv_display.c ****     if(disp == NULL) return LV_DPI_DEF;  /*Do not return 0 because it might be a divider*/
 381:Lib/lvgl/src/display/lv_display.c ****     return disp->dpi;
 382:Lib/lvgl/src/display/lv_display.c **** }
 383:Lib/lvgl/src/display/lv_display.c **** 
 384:Lib/lvgl/src/display/lv_display.c **** /*---------------------
 385:Lib/lvgl/src/display/lv_display.c ****  * BUFFERING
 386:Lib/lvgl/src/display/lv_display.c ****  *--------------------*/
 387:Lib/lvgl/src/display/lv_display.c **** 
 388:Lib/lvgl/src/display/lv_display.c **** void lv_display_set_draw_buffers(lv_display_t * disp, lv_draw_buf_t * buf1, lv_draw_buf_t * buf2)
 389:Lib/lvgl/src/display/lv_display.c **** {
 390:Lib/lvgl/src/display/lv_display.c ****     if(disp == NULL) disp = lv_display_get_default();
 391:Lib/lvgl/src/display/lv_display.c ****     if(disp == NULL) return;
 392:Lib/lvgl/src/display/lv_display.c **** 
 393:Lib/lvgl/src/display/lv_display.c ****     disp->buf_1 = buf1;
 394:Lib/lvgl/src/display/lv_display.c ****     disp->buf_2 = buf2;
 395:Lib/lvgl/src/display/lv_display.c ****     disp->buf_act = disp->buf_1;
 396:Lib/lvgl/src/display/lv_display.c **** }
 397:Lib/lvgl/src/display/lv_display.c **** 
 398:Lib/lvgl/src/display/lv_display.c **** void lv_display_set_buffers(lv_display_t * disp, void * buf1, void * buf2, uint32_t buf_size,
 399:Lib/lvgl/src/display/lv_display.c ****                             lv_display_render_mode_t render_mode)
 400:Lib/lvgl/src/display/lv_display.c **** {
 401:Lib/lvgl/src/display/lv_display.c ****     uint32_t w = lv_display_get_horizontal_resolution(disp);
 402:Lib/lvgl/src/display/lv_display.c ****     uint32_t h = lv_display_get_vertical_resolution(disp);
 403:Lib/lvgl/src/display/lv_display.c ****     LV_ASSERT(w != 0 && h != 0);
 404:Lib/lvgl/src/display/lv_display.c **** 
 405:Lib/lvgl/src/display/lv_display.c ****     lv_color_format_t cf = lv_display_get_color_format(disp);
 406:Lib/lvgl/src/display/lv_display.c ****     uint32_t stride = lv_draw_buf_width_to_stride(w, cf);
 407:Lib/lvgl/src/display/lv_display.c ****     if(render_mode == LV_DISPLAY_RENDER_MODE_PARTIAL) {
 408:Lib/lvgl/src/display/lv_display.c ****         /* for partial mode, we calculate the height based on the buf_size and stride */
 409:Lib/lvgl/src/display/lv_display.c ****         h = buf_size / stride;
 410:Lib/lvgl/src/display/lv_display.c ****     }
 411:Lib/lvgl/src/display/lv_display.c ****     else if(stride * h > buf_size) {
 412:Lib/lvgl/src/display/lv_display.c ****         LV_LOG_ERROR("%s mode requires screen sized buffer(s)",
 413:Lib/lvgl/src/display/lv_display.c ****                      render_mode == LV_DISPLAY_RENDER_MODE_FULL ? "FULL" : "DIRECT");
 414:Lib/lvgl/src/display/lv_display.c ****         LV_ASSERT(0);
 415:Lib/lvgl/src/display/lv_display.c ****         return;
 416:Lib/lvgl/src/display/lv_display.c ****     }
 417:Lib/lvgl/src/display/lv_display.c **** 
 418:Lib/lvgl/src/display/lv_display.c ****     if(h == 0) {
 419:Lib/lvgl/src/display/lv_display.c ****         LV_ASSERT_MSG(h != 0, "the buffer is too small");
 420:Lib/lvgl/src/display/lv_display.c ****         return;
 421:Lib/lvgl/src/display/lv_display.c ****     }
 422:Lib/lvgl/src/display/lv_display.c **** 
 423:Lib/lvgl/src/display/lv_display.c ****     lv_draw_buf_init(&disp->_static_buf1, w, h, cf, stride, buf1, buf_size);
 424:Lib/lvgl/src/display/lv_display.c ****     lv_draw_buf_init(&disp->_static_buf2, w, h, cf, stride, buf2, buf_size);
 425:Lib/lvgl/src/display/lv_display.c ****     lv_display_set_draw_buffers(disp, &disp->_static_buf1, buf2 ? &disp->_static_buf2 : NULL);
 426:Lib/lvgl/src/display/lv_display.c ****     lv_display_set_render_mode(disp, render_mode);
 427:Lib/lvgl/src/display/lv_display.c **** }
 428:Lib/lvgl/src/display/lv_display.c **** 
 429:Lib/lvgl/src/display/lv_display.c **** void lv_display_set_render_mode(lv_display_t * disp, lv_display_render_mode_t render_mode)
ARM GAS  C:\Users\Alex\AppData\Local\Temp\cc0G22cc.s 			page 9


 430:Lib/lvgl/src/display/lv_display.c **** {
 431:Lib/lvgl/src/display/lv_display.c ****     if(disp == NULL) disp = lv_display_get_default();
 432:Lib/lvgl/src/display/lv_display.c ****     if(disp == NULL) return;
 433:Lib/lvgl/src/display/lv_display.c ****     disp->render_mode = render_mode;
 434:Lib/lvgl/src/display/lv_display.c **** }
 435:Lib/lvgl/src/display/lv_display.c **** 
 436:Lib/lvgl/src/display/lv_display.c **** void lv_display_set_flush_cb(lv_display_t * disp, lv_display_flush_cb_t flush_cb)
 437:Lib/lvgl/src/display/lv_display.c **** {
 438:Lib/lvgl/src/display/lv_display.c ****     if(disp == NULL) disp = lv_display_get_default();
 439:Lib/lvgl/src/display/lv_display.c ****     if(disp == NULL) return;
 440:Lib/lvgl/src/display/lv_display.c **** 
 441:Lib/lvgl/src/display/lv_display.c ****     disp->flush_cb = flush_cb;
 442:Lib/lvgl/src/display/lv_display.c **** }
 443:Lib/lvgl/src/display/lv_display.c **** 
 444:Lib/lvgl/src/display/lv_display.c **** void lv_display_set_flush_wait_cb(lv_display_t * disp, lv_display_flush_wait_cb_t wait_cb)
 445:Lib/lvgl/src/display/lv_display.c **** {
 446:Lib/lvgl/src/display/lv_display.c ****     if(disp == NULL) disp = lv_display_get_default();
 447:Lib/lvgl/src/display/lv_display.c ****     if(disp == NULL) return;
 448:Lib/lvgl/src/display/lv_display.c **** 
 449:Lib/lvgl/src/display/lv_display.c ****     disp->flush_wait_cb = wait_cb;
 450:Lib/lvgl/src/display/lv_display.c **** }
 451:Lib/lvgl/src/display/lv_display.c **** 
 452:Lib/lvgl/src/display/lv_display.c **** void lv_display_set_color_format(lv_display_t * disp, lv_color_format_t color_format)
 453:Lib/lvgl/src/display/lv_display.c **** {
 454:Lib/lvgl/src/display/lv_display.c ****     if(disp == NULL) disp = lv_display_get_default();
 455:Lib/lvgl/src/display/lv_display.c ****     if(disp == NULL) return;
 456:Lib/lvgl/src/display/lv_display.c **** 
 457:Lib/lvgl/src/display/lv_display.c ****     disp->color_format = color_format;
 458:Lib/lvgl/src/display/lv_display.c ****     disp->layer_head->color_format = color_format;
 459:Lib/lvgl/src/display/lv_display.c **** 
 460:Lib/lvgl/src/display/lv_display.c ****     lv_display_send_event(disp, LV_EVENT_COLOR_FORMAT_CHANGED, NULL);
 461:Lib/lvgl/src/display/lv_display.c **** }
 462:Lib/lvgl/src/display/lv_display.c **** 
 463:Lib/lvgl/src/display/lv_display.c **** lv_color_format_t lv_display_get_color_format(lv_display_t * disp)
 464:Lib/lvgl/src/display/lv_display.c **** {
 465:Lib/lvgl/src/display/lv_display.c ****     if(disp == NULL) disp = lv_display_get_default();
 466:Lib/lvgl/src/display/lv_display.c ****     if(disp == NULL) return LV_COLOR_FORMAT_UNKNOWN;
 467:Lib/lvgl/src/display/lv_display.c **** 
 468:Lib/lvgl/src/display/lv_display.c ****     return disp->color_format;
 469:Lib/lvgl/src/display/lv_display.c **** }
 470:Lib/lvgl/src/display/lv_display.c **** 
 471:Lib/lvgl/src/display/lv_display.c **** void lv_display_set_antialiasing(lv_display_t * disp, bool en)
 472:Lib/lvgl/src/display/lv_display.c **** {
 473:Lib/lvgl/src/display/lv_display.c ****     if(disp == NULL) disp = lv_display_get_default();
 474:Lib/lvgl/src/display/lv_display.c ****     if(disp == NULL) return;
 475:Lib/lvgl/src/display/lv_display.c **** 
 476:Lib/lvgl/src/display/lv_display.c ****     disp->antialiasing = en;
 477:Lib/lvgl/src/display/lv_display.c **** }
 478:Lib/lvgl/src/display/lv_display.c **** 
 479:Lib/lvgl/src/display/lv_display.c **** bool lv_display_get_antialiasing(lv_display_t * disp)
 480:Lib/lvgl/src/display/lv_display.c **** {
 481:Lib/lvgl/src/display/lv_display.c ****     if(disp == NULL) disp = lv_display_get_default();
 482:Lib/lvgl/src/display/lv_display.c ****     if(disp == NULL) return false;
 483:Lib/lvgl/src/display/lv_display.c **** 
 484:Lib/lvgl/src/display/lv_display.c ****     return disp->antialiasing;
 485:Lib/lvgl/src/display/lv_display.c **** }
 486:Lib/lvgl/src/display/lv_display.c **** 
ARM GAS  C:\Users\Alex\AppData\Local\Temp\cc0G22cc.s 			page 10


 487:Lib/lvgl/src/display/lv_display.c **** LV_ATTRIBUTE_FLUSH_READY void lv_display_flush_ready(lv_display_t * disp)
 488:Lib/lvgl/src/display/lv_display.c **** {
 489:Lib/lvgl/src/display/lv_display.c ****     disp->flushing = 0;
 490:Lib/lvgl/src/display/lv_display.c **** }
 491:Lib/lvgl/src/display/lv_display.c **** 
 492:Lib/lvgl/src/display/lv_display.c **** LV_ATTRIBUTE_FLUSH_READY bool lv_display_flush_is_last(lv_display_t * disp)
 493:Lib/lvgl/src/display/lv_display.c **** {
 494:Lib/lvgl/src/display/lv_display.c ****     return disp->flushing_last;
 495:Lib/lvgl/src/display/lv_display.c **** }
 496:Lib/lvgl/src/display/lv_display.c **** 
 497:Lib/lvgl/src/display/lv_display.c **** bool lv_display_is_double_buffered(lv_display_t * disp)
 498:Lib/lvgl/src/display/lv_display.c **** {
 499:Lib/lvgl/src/display/lv_display.c ****     return disp->buf_2 != NULL;
 500:Lib/lvgl/src/display/lv_display.c **** }
 501:Lib/lvgl/src/display/lv_display.c **** 
 502:Lib/lvgl/src/display/lv_display.c **** /*---------------------
 503:Lib/lvgl/src/display/lv_display.c ****   * SCREENS
 504:Lib/lvgl/src/display/lv_display.c ****   *--------------------*/
 505:Lib/lvgl/src/display/lv_display.c **** 
 506:Lib/lvgl/src/display/lv_display.c **** lv_obj_t * lv_display_get_screen_active(lv_display_t * disp)
 507:Lib/lvgl/src/display/lv_display.c **** {
 508:Lib/lvgl/src/display/lv_display.c ****     if(!disp) disp = lv_display_get_default();
 509:Lib/lvgl/src/display/lv_display.c ****     if(!disp) {
 510:Lib/lvgl/src/display/lv_display.c ****         LV_LOG_WARN("no display registered to get its active screen");
 511:Lib/lvgl/src/display/lv_display.c ****         return NULL;
 512:Lib/lvgl/src/display/lv_display.c ****     }
 513:Lib/lvgl/src/display/lv_display.c **** 
 514:Lib/lvgl/src/display/lv_display.c ****     return disp->act_scr;
 515:Lib/lvgl/src/display/lv_display.c **** }
 516:Lib/lvgl/src/display/lv_display.c **** 
 517:Lib/lvgl/src/display/lv_display.c **** lv_obj_t * lv_display_get_screen_prev(lv_display_t * disp)
 518:Lib/lvgl/src/display/lv_display.c **** {
 519:Lib/lvgl/src/display/lv_display.c ****     if(!disp) disp = lv_display_get_default();
 520:Lib/lvgl/src/display/lv_display.c ****     if(!disp) {
 521:Lib/lvgl/src/display/lv_display.c ****         LV_LOG_WARN("no display registered to get its previous screen");
 522:Lib/lvgl/src/display/lv_display.c ****         return NULL;
 523:Lib/lvgl/src/display/lv_display.c ****     }
 524:Lib/lvgl/src/display/lv_display.c **** 
 525:Lib/lvgl/src/display/lv_display.c ****     return disp->prev_scr;
 526:Lib/lvgl/src/display/lv_display.c **** }
 527:Lib/lvgl/src/display/lv_display.c **** 
 528:Lib/lvgl/src/display/lv_display.c **** lv_obj_t * lv_display_get_layer_top(lv_display_t * disp)
 529:Lib/lvgl/src/display/lv_display.c **** {
 530:Lib/lvgl/src/display/lv_display.c ****     if(!disp) disp = lv_display_get_default();
 531:Lib/lvgl/src/display/lv_display.c ****     if(!disp) {
 532:Lib/lvgl/src/display/lv_display.c ****         LV_LOG_WARN("lv_layer_top: no display registered to get its top layer");
 533:Lib/lvgl/src/display/lv_display.c ****         return NULL;
 534:Lib/lvgl/src/display/lv_display.c ****     }
 535:Lib/lvgl/src/display/lv_display.c **** 
 536:Lib/lvgl/src/display/lv_display.c ****     return disp->top_layer;
 537:Lib/lvgl/src/display/lv_display.c **** }
 538:Lib/lvgl/src/display/lv_display.c **** 
 539:Lib/lvgl/src/display/lv_display.c **** lv_obj_t * lv_display_get_layer_sys(lv_display_t * disp)
 540:Lib/lvgl/src/display/lv_display.c **** {
 541:Lib/lvgl/src/display/lv_display.c ****     if(!disp) disp = lv_display_get_default();
 542:Lib/lvgl/src/display/lv_display.c ****     if(!disp) {
 543:Lib/lvgl/src/display/lv_display.c ****         LV_LOG_WARN("lv_layer_sys: no display registered to get its sys. layer");
ARM GAS  C:\Users\Alex\AppData\Local\Temp\cc0G22cc.s 			page 11


 544:Lib/lvgl/src/display/lv_display.c ****         return NULL;
 545:Lib/lvgl/src/display/lv_display.c ****     }
 546:Lib/lvgl/src/display/lv_display.c **** 
 547:Lib/lvgl/src/display/lv_display.c ****     return disp->sys_layer;
 548:Lib/lvgl/src/display/lv_display.c **** }
 549:Lib/lvgl/src/display/lv_display.c **** 
 550:Lib/lvgl/src/display/lv_display.c **** lv_obj_t * lv_display_get_layer_bottom(lv_display_t * disp)
 551:Lib/lvgl/src/display/lv_display.c **** {
 552:Lib/lvgl/src/display/lv_display.c ****     if(!disp) disp = lv_display_get_default();
 553:Lib/lvgl/src/display/lv_display.c ****     if(!disp) {
 554:Lib/lvgl/src/display/lv_display.c ****         LV_LOG_WARN("lv_layer_bottom: no display registered to get its bottom layer");
 555:Lib/lvgl/src/display/lv_display.c ****         return NULL;
 556:Lib/lvgl/src/display/lv_display.c ****     }
 557:Lib/lvgl/src/display/lv_display.c **** 
 558:Lib/lvgl/src/display/lv_display.c ****     return disp->bottom_layer;
 559:Lib/lvgl/src/display/lv_display.c **** }
 560:Lib/lvgl/src/display/lv_display.c **** 
 561:Lib/lvgl/src/display/lv_display.c **** void lv_screen_load(struct _lv_obj_t * scr)
 562:Lib/lvgl/src/display/lv_display.c **** {
 563:Lib/lvgl/src/display/lv_display.c ****     lv_screen_load_anim(scr, LV_SCR_LOAD_ANIM_NONE, 0, 0, false);
 564:Lib/lvgl/src/display/lv_display.c **** }
 565:Lib/lvgl/src/display/lv_display.c **** 
 566:Lib/lvgl/src/display/lv_display.c **** void lv_screen_load_anim(lv_obj_t * new_scr, lv_screen_load_anim_t anim_type, uint32_t time, uint32
 567:Lib/lvgl/src/display/lv_display.c ****                          bool auto_del)
 568:Lib/lvgl/src/display/lv_display.c **** {
 569:Lib/lvgl/src/display/lv_display.c ****     lv_display_t * d = lv_obj_get_display(new_scr);
 570:Lib/lvgl/src/display/lv_display.c ****     lv_obj_t * act_scr = lv_screen_active();
 571:Lib/lvgl/src/display/lv_display.c **** 
 572:Lib/lvgl/src/display/lv_display.c ****     if(act_scr == new_scr || d->scr_to_load == new_scr) {
 573:Lib/lvgl/src/display/lv_display.c ****         return;
 574:Lib/lvgl/src/display/lv_display.c ****     }
 575:Lib/lvgl/src/display/lv_display.c **** 
 576:Lib/lvgl/src/display/lv_display.c ****     /*If another screen load animation is in progress
 577:Lib/lvgl/src/display/lv_display.c ****      *make target screen loaded immediately. */
 578:Lib/lvgl/src/display/lv_display.c ****     if(d->scr_to_load && act_scr != d->scr_to_load) {
 579:Lib/lvgl/src/display/lv_display.c ****         lv_anim_delete(d->scr_to_load, NULL);
 580:Lib/lvgl/src/display/lv_display.c ****         lv_obj_set_pos(d->scr_to_load, 0, 0);
 581:Lib/lvgl/src/display/lv_display.c ****         lv_obj_remove_local_style_prop(d->scr_to_load, LV_STYLE_OPA, 0);
 582:Lib/lvgl/src/display/lv_display.c **** 
 583:Lib/lvgl/src/display/lv_display.c ****         if(d->del_prev) {
 584:Lib/lvgl/src/display/lv_display.c ****             lv_obj_delete(act_scr);
 585:Lib/lvgl/src/display/lv_display.c ****         }
 586:Lib/lvgl/src/display/lv_display.c ****         act_scr = lv_screen_active(); /*Active screen changed.*/
 587:Lib/lvgl/src/display/lv_display.c **** 
 588:Lib/lvgl/src/display/lv_display.c ****         scr_load_internal(d->scr_to_load);
 589:Lib/lvgl/src/display/lv_display.c ****     }
 590:Lib/lvgl/src/display/lv_display.c **** 
 591:Lib/lvgl/src/display/lv_display.c ****     d->scr_to_load = new_scr;
 592:Lib/lvgl/src/display/lv_display.c **** 
 593:Lib/lvgl/src/display/lv_display.c ****     if(d->prev_scr && d->del_prev) {
 594:Lib/lvgl/src/display/lv_display.c ****         lv_obj_delete(d->prev_scr);
 595:Lib/lvgl/src/display/lv_display.c ****         d->prev_scr = NULL;
 596:Lib/lvgl/src/display/lv_display.c ****     }
 597:Lib/lvgl/src/display/lv_display.c **** 
 598:Lib/lvgl/src/display/lv_display.c ****     d->draw_prev_over_act = is_out_anim(anim_type);
 599:Lib/lvgl/src/display/lv_display.c ****     d->del_prev = auto_del;
 600:Lib/lvgl/src/display/lv_display.c **** 
ARM GAS  C:\Users\Alex\AppData\Local\Temp\cc0G22cc.s 			page 12


 601:Lib/lvgl/src/display/lv_display.c ****     /*Be sure there is no other animation on the screens*/
 602:Lib/lvgl/src/display/lv_display.c ****     lv_anim_delete(new_scr, NULL);
 603:Lib/lvgl/src/display/lv_display.c ****     if(act_scr) lv_anim_delete(act_scr, NULL);
 604:Lib/lvgl/src/display/lv_display.c **** 
 605:Lib/lvgl/src/display/lv_display.c ****     /*Be sure both screens are in a normal position*/
 606:Lib/lvgl/src/display/lv_display.c ****     lv_obj_set_pos(new_scr, 0, 0);
 607:Lib/lvgl/src/display/lv_display.c ****     if(act_scr) lv_obj_set_pos(act_scr, 0, 0);
 608:Lib/lvgl/src/display/lv_display.c ****     lv_obj_remove_local_style_prop(new_scr, LV_STYLE_OPA, 0);
 609:Lib/lvgl/src/display/lv_display.c ****     if(act_scr) lv_obj_remove_local_style_prop(act_scr, LV_STYLE_OPA, 0);
 610:Lib/lvgl/src/display/lv_display.c **** 
 611:Lib/lvgl/src/display/lv_display.c ****     /*Shortcut for immediate load*/
 612:Lib/lvgl/src/display/lv_display.c ****     if(time == 0 && delay == 0) {
 613:Lib/lvgl/src/display/lv_display.c ****         scr_load_internal(new_scr);
 614:Lib/lvgl/src/display/lv_display.c ****         if(auto_del && act_scr) lv_obj_delete(act_scr);
 615:Lib/lvgl/src/display/lv_display.c ****         return;
 616:Lib/lvgl/src/display/lv_display.c ****     }
 617:Lib/lvgl/src/display/lv_display.c **** 
 618:Lib/lvgl/src/display/lv_display.c ****     lv_anim_t a_new;
 619:Lib/lvgl/src/display/lv_display.c ****     lv_anim_init(&a_new);
 620:Lib/lvgl/src/display/lv_display.c ****     lv_anim_set_var(&a_new, new_scr);
 621:Lib/lvgl/src/display/lv_display.c ****     lv_anim_set_start_cb(&a_new, scr_load_anim_start);
 622:Lib/lvgl/src/display/lv_display.c ****     lv_anim_set_completed_cb(&a_new, scr_anim_completed);
 623:Lib/lvgl/src/display/lv_display.c ****     lv_anim_set_duration(&a_new, time);
 624:Lib/lvgl/src/display/lv_display.c ****     lv_anim_set_delay(&a_new, delay);
 625:Lib/lvgl/src/display/lv_display.c **** 
 626:Lib/lvgl/src/display/lv_display.c ****     lv_anim_t a_old;
 627:Lib/lvgl/src/display/lv_display.c ****     lv_anim_init(&a_old);
 628:Lib/lvgl/src/display/lv_display.c ****     lv_anim_set_var(&a_old, act_scr);
 629:Lib/lvgl/src/display/lv_display.c ****     lv_anim_set_duration(&a_old, time);
 630:Lib/lvgl/src/display/lv_display.c ****     lv_anim_set_delay(&a_old, delay);
 631:Lib/lvgl/src/display/lv_display.c **** 
 632:Lib/lvgl/src/display/lv_display.c ****     switch(anim_type) {
 633:Lib/lvgl/src/display/lv_display.c ****         case LV_SCR_LOAD_ANIM_NONE:
 634:Lib/lvgl/src/display/lv_display.c ****             /*Create a dummy animation to apply the delay*/
 635:Lib/lvgl/src/display/lv_display.c ****             lv_anim_set_exec_cb(&a_new, set_x_anim);
 636:Lib/lvgl/src/display/lv_display.c ****             lv_anim_set_values(&a_new, 0, 0);
 637:Lib/lvgl/src/display/lv_display.c ****             break;
 638:Lib/lvgl/src/display/lv_display.c ****         case LV_SCR_LOAD_ANIM_OVER_LEFT:
 639:Lib/lvgl/src/display/lv_display.c ****             lv_anim_set_exec_cb(&a_new, set_x_anim);
 640:Lib/lvgl/src/display/lv_display.c ****             lv_anim_set_values(&a_new, lv_display_get_horizontal_resolution(d), 0);
 641:Lib/lvgl/src/display/lv_display.c ****             break;
 642:Lib/lvgl/src/display/lv_display.c ****         case LV_SCR_LOAD_ANIM_OVER_RIGHT:
 643:Lib/lvgl/src/display/lv_display.c ****             lv_anim_set_exec_cb(&a_new, set_x_anim);
 644:Lib/lvgl/src/display/lv_display.c ****             lv_anim_set_values(&a_new, -lv_display_get_horizontal_resolution(d), 0);
 645:Lib/lvgl/src/display/lv_display.c ****             break;
 646:Lib/lvgl/src/display/lv_display.c ****         case LV_SCR_LOAD_ANIM_OVER_TOP:
 647:Lib/lvgl/src/display/lv_display.c ****             lv_anim_set_exec_cb(&a_new, set_y_anim);
 648:Lib/lvgl/src/display/lv_display.c ****             lv_anim_set_values(&a_new, lv_display_get_vertical_resolution(d), 0);
 649:Lib/lvgl/src/display/lv_display.c ****             break;
 650:Lib/lvgl/src/display/lv_display.c ****         case LV_SCR_LOAD_ANIM_OVER_BOTTOM:
 651:Lib/lvgl/src/display/lv_display.c ****             lv_anim_set_exec_cb(&a_new, set_y_anim);
 652:Lib/lvgl/src/display/lv_display.c ****             lv_anim_set_values(&a_new, -lv_display_get_vertical_resolution(d), 0);
 653:Lib/lvgl/src/display/lv_display.c ****             break;
 654:Lib/lvgl/src/display/lv_display.c ****         case LV_SCR_LOAD_ANIM_MOVE_LEFT:
 655:Lib/lvgl/src/display/lv_display.c ****             lv_anim_set_exec_cb(&a_new, set_x_anim);
 656:Lib/lvgl/src/display/lv_display.c ****             lv_anim_set_values(&a_new, lv_display_get_horizontal_resolution(d), 0);
 657:Lib/lvgl/src/display/lv_display.c **** 
ARM GAS  C:\Users\Alex\AppData\Local\Temp\cc0G22cc.s 			page 13


 658:Lib/lvgl/src/display/lv_display.c ****             lv_anim_set_exec_cb(&a_old, set_x_anim);
 659:Lib/lvgl/src/display/lv_display.c ****             lv_anim_set_values(&a_old, 0, -lv_display_get_horizontal_resolution(d));
 660:Lib/lvgl/src/display/lv_display.c ****             break;
 661:Lib/lvgl/src/display/lv_display.c ****         case LV_SCR_LOAD_ANIM_MOVE_RIGHT:
 662:Lib/lvgl/src/display/lv_display.c ****             lv_anim_set_exec_cb(&a_new, set_x_anim);
 663:Lib/lvgl/src/display/lv_display.c ****             lv_anim_set_values(&a_new, -lv_display_get_horizontal_resolution(d), 0);
 664:Lib/lvgl/src/display/lv_display.c **** 
 665:Lib/lvgl/src/display/lv_display.c ****             lv_anim_set_exec_cb(&a_old, set_x_anim);
 666:Lib/lvgl/src/display/lv_display.c ****             lv_anim_set_values(&a_old, 0, lv_display_get_horizontal_resolution(d));
 667:Lib/lvgl/src/display/lv_display.c ****             break;
 668:Lib/lvgl/src/display/lv_display.c ****         case LV_SCR_LOAD_ANIM_MOVE_TOP:
 669:Lib/lvgl/src/display/lv_display.c ****             lv_anim_set_exec_cb(&a_new, set_y_anim);
 670:Lib/lvgl/src/display/lv_display.c ****             lv_anim_set_values(&a_new, lv_display_get_vertical_resolution(d), 0);
 671:Lib/lvgl/src/display/lv_display.c **** 
 672:Lib/lvgl/src/display/lv_display.c ****             lv_anim_set_exec_cb(&a_old, set_y_anim);
 673:Lib/lvgl/src/display/lv_display.c ****             lv_anim_set_values(&a_old, 0, -lv_display_get_vertical_resolution(d));
 674:Lib/lvgl/src/display/lv_display.c ****             break;
 675:Lib/lvgl/src/display/lv_display.c ****         case LV_SCR_LOAD_ANIM_MOVE_BOTTOM:
 676:Lib/lvgl/src/display/lv_display.c ****             lv_anim_set_exec_cb(&a_new, set_y_anim);
 677:Lib/lvgl/src/display/lv_display.c ****             lv_anim_set_values(&a_new, -lv_display_get_vertical_resolution(d), 0);
 678:Lib/lvgl/src/display/lv_display.c **** 
 679:Lib/lvgl/src/display/lv_display.c ****             lv_anim_set_exec_cb(&a_old, set_y_anim);
 680:Lib/lvgl/src/display/lv_display.c ****             lv_anim_set_values(&a_old, 0, lv_display_get_vertical_resolution(d));
 681:Lib/lvgl/src/display/lv_display.c ****             break;
 682:Lib/lvgl/src/display/lv_display.c ****         case LV_SCR_LOAD_ANIM_FADE_IN:
 683:Lib/lvgl/src/display/lv_display.c ****             lv_anim_set_exec_cb(&a_new, opa_scale_anim);
 684:Lib/lvgl/src/display/lv_display.c ****             lv_anim_set_values(&a_new, LV_OPA_TRANSP, LV_OPA_COVER);
 685:Lib/lvgl/src/display/lv_display.c ****             break;
 686:Lib/lvgl/src/display/lv_display.c ****         case LV_SCR_LOAD_ANIM_FADE_OUT:
 687:Lib/lvgl/src/display/lv_display.c ****             lv_anim_set_exec_cb(&a_old, opa_scale_anim);
 688:Lib/lvgl/src/display/lv_display.c ****             lv_anim_set_values(&a_old, LV_OPA_COVER, LV_OPA_TRANSP);
 689:Lib/lvgl/src/display/lv_display.c ****             break;
 690:Lib/lvgl/src/display/lv_display.c ****         case LV_SCR_LOAD_ANIM_OUT_LEFT:
 691:Lib/lvgl/src/display/lv_display.c ****             lv_anim_set_exec_cb(&a_old, set_x_anim);
 692:Lib/lvgl/src/display/lv_display.c ****             lv_anim_set_values(&a_old, 0, -lv_display_get_horizontal_resolution(d));
 693:Lib/lvgl/src/display/lv_display.c ****             break;
 694:Lib/lvgl/src/display/lv_display.c ****         case LV_SCR_LOAD_ANIM_OUT_RIGHT:
 695:Lib/lvgl/src/display/lv_display.c ****             lv_anim_set_exec_cb(&a_old, set_x_anim);
 696:Lib/lvgl/src/display/lv_display.c ****             lv_anim_set_values(&a_old, 0, lv_display_get_horizontal_resolution(d));
 697:Lib/lvgl/src/display/lv_display.c ****             break;
 698:Lib/lvgl/src/display/lv_display.c ****         case LV_SCR_LOAD_ANIM_OUT_TOP:
 699:Lib/lvgl/src/display/lv_display.c ****             lv_anim_set_exec_cb(&a_old, set_y_anim);
 700:Lib/lvgl/src/display/lv_display.c ****             lv_anim_set_values(&a_old, 0, -lv_display_get_vertical_resolution(d));
 701:Lib/lvgl/src/display/lv_display.c ****             break;
 702:Lib/lvgl/src/display/lv_display.c ****         case LV_SCR_LOAD_ANIM_OUT_BOTTOM:
 703:Lib/lvgl/src/display/lv_display.c ****             lv_anim_set_exec_cb(&a_old, set_y_anim);
 704:Lib/lvgl/src/display/lv_display.c ****             lv_anim_set_values(&a_old, 0, lv_display_get_vertical_resolution(d));
 705:Lib/lvgl/src/display/lv_display.c ****             break;
 706:Lib/lvgl/src/display/lv_display.c ****     }
 707:Lib/lvgl/src/display/lv_display.c **** 
 708:Lib/lvgl/src/display/lv_display.c ****     if(act_scr) lv_obj_send_event(act_scr, LV_EVENT_SCREEN_UNLOAD_START, NULL);
 709:Lib/lvgl/src/display/lv_display.c **** 
 710:Lib/lvgl/src/display/lv_display.c ****     lv_anim_start(&a_new);
 711:Lib/lvgl/src/display/lv_display.c ****     if(act_scr) lv_anim_start(&a_old);
 712:Lib/lvgl/src/display/lv_display.c **** }
 713:Lib/lvgl/src/display/lv_display.c **** 
 714:Lib/lvgl/src/display/lv_display.c **** /*---------------------
ARM GAS  C:\Users\Alex\AppData\Local\Temp\cc0G22cc.s 			page 14


 715:Lib/lvgl/src/display/lv_display.c ****  * OTHERS
 716:Lib/lvgl/src/display/lv_display.c ****  *--------------------*/
 717:Lib/lvgl/src/display/lv_display.c **** 
 718:Lib/lvgl/src/display/lv_display.c **** void lv_display_add_event_cb(lv_display_t * disp, lv_event_cb_t event_cb, lv_event_code_t filter, v
 719:Lib/lvgl/src/display/lv_display.c **** {
 720:Lib/lvgl/src/display/lv_display.c ****     LV_ASSERT_NULL(disp);
 721:Lib/lvgl/src/display/lv_display.c **** 
 722:Lib/lvgl/src/display/lv_display.c ****     lv_event_add(&disp->event_list, event_cb, filter, user_data);
 723:Lib/lvgl/src/display/lv_display.c **** }
 724:Lib/lvgl/src/display/lv_display.c **** 
 725:Lib/lvgl/src/display/lv_display.c **** uint32_t lv_display_get_event_count(lv_display_t * disp)
 726:Lib/lvgl/src/display/lv_display.c **** {
 727:Lib/lvgl/src/display/lv_display.c ****     LV_ASSERT_NULL(disp);
 728:Lib/lvgl/src/display/lv_display.c ****     return lv_event_get_count(&disp->event_list);
 729:Lib/lvgl/src/display/lv_display.c **** }
 730:Lib/lvgl/src/display/lv_display.c **** 
 731:Lib/lvgl/src/display/lv_display.c **** lv_event_dsc_t * lv_display_get_event_dsc(lv_display_t * disp, uint32_t index)
 732:Lib/lvgl/src/display/lv_display.c **** {
 733:Lib/lvgl/src/display/lv_display.c ****     LV_ASSERT_NULL(disp);
 734:Lib/lvgl/src/display/lv_display.c ****     return lv_event_get_dsc(&disp->event_list, index);
 735:Lib/lvgl/src/display/lv_display.c **** 
 736:Lib/lvgl/src/display/lv_display.c **** }
 737:Lib/lvgl/src/display/lv_display.c **** 
 738:Lib/lvgl/src/display/lv_display.c **** bool lv_display_delete_event(lv_display_t * disp, uint32_t index)
 739:Lib/lvgl/src/display/lv_display.c **** {
 740:Lib/lvgl/src/display/lv_display.c ****     LV_ASSERT_NULL(disp);
 741:Lib/lvgl/src/display/lv_display.c **** 
 742:Lib/lvgl/src/display/lv_display.c ****     return lv_event_remove(&disp->event_list, index);
 743:Lib/lvgl/src/display/lv_display.c **** }
 744:Lib/lvgl/src/display/lv_display.c **** 
 745:Lib/lvgl/src/display/lv_display.c **** uint32_t lv_display_remove_event_cb_with_user_data(lv_display_t * disp, lv_event_cb_t event_cb, voi
 746:Lib/lvgl/src/display/lv_display.c **** {
 747:Lib/lvgl/src/display/lv_display.c ****     LV_ASSERT_NULL(disp);
 748:Lib/lvgl/src/display/lv_display.c **** 
 749:Lib/lvgl/src/display/lv_display.c ****     uint32_t event_cnt = lv_display_get_event_count(disp);
 750:Lib/lvgl/src/display/lv_display.c ****     uint32_t removed_count = 0;
 751:Lib/lvgl/src/display/lv_display.c ****     int32_t i;
 752:Lib/lvgl/src/display/lv_display.c **** 
 753:Lib/lvgl/src/display/lv_display.c ****     for(i = event_cnt - 1; i >= 0; i--) {
 754:Lib/lvgl/src/display/lv_display.c ****         lv_event_dsc_t * dsc = lv_display_get_event_dsc(disp, i);
 755:Lib/lvgl/src/display/lv_display.c ****         if(dsc && dsc->cb == event_cb && dsc->user_data == user_data) {
 756:Lib/lvgl/src/display/lv_display.c ****             lv_display_delete_event(disp, i);
 757:Lib/lvgl/src/display/lv_display.c ****             removed_count ++;
 758:Lib/lvgl/src/display/lv_display.c ****         }
 759:Lib/lvgl/src/display/lv_display.c ****     }
 760:Lib/lvgl/src/display/lv_display.c **** 
 761:Lib/lvgl/src/display/lv_display.c ****     return removed_count;
 762:Lib/lvgl/src/display/lv_display.c **** }
 763:Lib/lvgl/src/display/lv_display.c **** 
 764:Lib/lvgl/src/display/lv_display.c **** lv_result_t lv_display_send_event(lv_display_t * disp, lv_event_code_t code, void * param)
 765:Lib/lvgl/src/display/lv_display.c **** {
 766:Lib/lvgl/src/display/lv_display.c **** 
 767:Lib/lvgl/src/display/lv_display.c ****     lv_event_t e;
 768:Lib/lvgl/src/display/lv_display.c ****     lv_memzero(&e, sizeof(e));
 769:Lib/lvgl/src/display/lv_display.c ****     e.code = code;
 770:Lib/lvgl/src/display/lv_display.c ****     e.current_target = disp;
 771:Lib/lvgl/src/display/lv_display.c ****     e.original_target = disp;
ARM GAS  C:\Users\Alex\AppData\Local\Temp\cc0G22cc.s 			page 15


 772:Lib/lvgl/src/display/lv_display.c ****     e.param = param;
 773:Lib/lvgl/src/display/lv_display.c ****     lv_result_t res;
 774:Lib/lvgl/src/display/lv_display.c ****     res = lv_event_send(&disp->event_list, &e, true);
 775:Lib/lvgl/src/display/lv_display.c ****     if(res != LV_RESULT_OK) return res;
 776:Lib/lvgl/src/display/lv_display.c **** 
 777:Lib/lvgl/src/display/lv_display.c ****     res = lv_event_send(&disp->event_list, &e, false);
 778:Lib/lvgl/src/display/lv_display.c ****     if(res != LV_RESULT_OK) return res;
 779:Lib/lvgl/src/display/lv_display.c **** 
 780:Lib/lvgl/src/display/lv_display.c ****     return res;
 781:Lib/lvgl/src/display/lv_display.c **** }
 782:Lib/lvgl/src/display/lv_display.c **** 
 783:Lib/lvgl/src/display/lv_display.c **** void lv_display_set_rotation(lv_display_t * disp, lv_display_rotation_t rotation)
 784:Lib/lvgl/src/display/lv_display.c **** {
 785:Lib/lvgl/src/display/lv_display.c ****     if(disp == NULL) disp = lv_display_get_default();
 786:Lib/lvgl/src/display/lv_display.c ****     if(disp == NULL) return;
 787:Lib/lvgl/src/display/lv_display.c **** 
 788:Lib/lvgl/src/display/lv_display.c ****     disp->rotation = rotation;
 789:Lib/lvgl/src/display/lv_display.c ****     update_resolution(disp);
 790:Lib/lvgl/src/display/lv_display.c **** }
 791:Lib/lvgl/src/display/lv_display.c **** 
 792:Lib/lvgl/src/display/lv_display.c **** lv_display_rotation_t lv_display_get_rotation(lv_display_t * disp)
 793:Lib/lvgl/src/display/lv_display.c **** {
 794:Lib/lvgl/src/display/lv_display.c ****     if(disp == NULL) disp = lv_display_get_default();
 795:Lib/lvgl/src/display/lv_display.c ****     if(disp == NULL) return LV_DISPLAY_ROTATION_0;
 796:Lib/lvgl/src/display/lv_display.c ****     return disp->rotation;
 797:Lib/lvgl/src/display/lv_display.c **** }
 798:Lib/lvgl/src/display/lv_display.c **** 
 799:Lib/lvgl/src/display/lv_display.c **** void lv_display_set_theme(lv_display_t * disp, lv_theme_t * th)
 800:Lib/lvgl/src/display/lv_display.c **** {
 801:Lib/lvgl/src/display/lv_display.c ****     if(!disp) disp = lv_display_get_default();
 802:Lib/lvgl/src/display/lv_display.c ****     if(!disp) {
 803:Lib/lvgl/src/display/lv_display.c ****         LV_LOG_WARN("no display registered");
 804:Lib/lvgl/src/display/lv_display.c ****         return;
 805:Lib/lvgl/src/display/lv_display.c ****     }
 806:Lib/lvgl/src/display/lv_display.c **** 
 807:Lib/lvgl/src/display/lv_display.c ****     disp->theme = th;
 808:Lib/lvgl/src/display/lv_display.c **** 
 809:Lib/lvgl/src/display/lv_display.c ****     if(disp->screen_cnt == 4 &&
 810:Lib/lvgl/src/display/lv_display.c ****        lv_obj_get_child_count(disp->screens[0]) == 0 &&
 811:Lib/lvgl/src/display/lv_display.c ****        lv_obj_get_child_count(disp->screens[1]) == 0 &&
 812:Lib/lvgl/src/display/lv_display.c ****        lv_obj_get_child_count(disp->screens[2]) == 0) {
 813:Lib/lvgl/src/display/lv_display.c ****         lv_theme_apply(disp->screens[0]);
 814:Lib/lvgl/src/display/lv_display.c ****     }
 815:Lib/lvgl/src/display/lv_display.c **** }
 816:Lib/lvgl/src/display/lv_display.c **** 
 817:Lib/lvgl/src/display/lv_display.c **** lv_theme_t * lv_display_get_theme(lv_display_t * disp)
 818:Lib/lvgl/src/display/lv_display.c **** {
 819:Lib/lvgl/src/display/lv_display.c ****     if(disp == NULL) disp = lv_display_get_default();
 820:Lib/lvgl/src/display/lv_display.c ****     return disp->theme;
 821:Lib/lvgl/src/display/lv_display.c **** }
 822:Lib/lvgl/src/display/lv_display.c **** 
 823:Lib/lvgl/src/display/lv_display.c **** uint32_t lv_display_get_inactive_time(const lv_display_t * disp)
 824:Lib/lvgl/src/display/lv_display.c **** {
 825:Lib/lvgl/src/display/lv_display.c ****     if(disp) return lv_tick_elaps(disp->last_activity_time);
 826:Lib/lvgl/src/display/lv_display.c **** 
 827:Lib/lvgl/src/display/lv_display.c ****     lv_display_t * d;
 828:Lib/lvgl/src/display/lv_display.c ****     uint32_t t = UINT32_MAX;
ARM GAS  C:\Users\Alex\AppData\Local\Temp\cc0G22cc.s 			page 16


 829:Lib/lvgl/src/display/lv_display.c ****     d          = lv_display_get_next(NULL);
 830:Lib/lvgl/src/display/lv_display.c ****     while(d) {
 831:Lib/lvgl/src/display/lv_display.c ****         uint32_t elaps = lv_tick_elaps(d->last_activity_time);
 832:Lib/lvgl/src/display/lv_display.c ****         t = LV_MIN(t, elaps);
 833:Lib/lvgl/src/display/lv_display.c ****         d = lv_display_get_next(d);
 834:Lib/lvgl/src/display/lv_display.c ****     }
 835:Lib/lvgl/src/display/lv_display.c **** 
 836:Lib/lvgl/src/display/lv_display.c ****     return t;
 837:Lib/lvgl/src/display/lv_display.c **** }
 838:Lib/lvgl/src/display/lv_display.c **** 
 839:Lib/lvgl/src/display/lv_display.c **** void lv_display_trigger_activity(lv_display_t * disp)
 840:Lib/lvgl/src/display/lv_display.c **** {
 841:Lib/lvgl/src/display/lv_display.c ****     if(!disp) disp = lv_display_get_default();
 842:Lib/lvgl/src/display/lv_display.c ****     if(!disp) {
 843:Lib/lvgl/src/display/lv_display.c ****         LV_LOG_WARN("lv_display_trigger_activity: no display registered");
 844:Lib/lvgl/src/display/lv_display.c ****         return;
 845:Lib/lvgl/src/display/lv_display.c ****     }
 846:Lib/lvgl/src/display/lv_display.c **** 
 847:Lib/lvgl/src/display/lv_display.c ****     disp->last_activity_time = lv_tick_get();
 848:Lib/lvgl/src/display/lv_display.c **** }
 849:Lib/lvgl/src/display/lv_display.c **** 
 850:Lib/lvgl/src/display/lv_display.c **** void lv_display_enable_invalidation(lv_display_t * disp, bool en)
 851:Lib/lvgl/src/display/lv_display.c **** {
 852:Lib/lvgl/src/display/lv_display.c ****     if(!disp) disp = lv_display_get_default();
 853:Lib/lvgl/src/display/lv_display.c ****     if(!disp) {
 854:Lib/lvgl/src/display/lv_display.c ****         LV_LOG_WARN("no display registered");
 855:Lib/lvgl/src/display/lv_display.c ****         return;
 856:Lib/lvgl/src/display/lv_display.c ****     }
 857:Lib/lvgl/src/display/lv_display.c **** 
 858:Lib/lvgl/src/display/lv_display.c ****     disp->inv_en_cnt += en ? 1 : -1;
 859:Lib/lvgl/src/display/lv_display.c **** }
 860:Lib/lvgl/src/display/lv_display.c **** 
 861:Lib/lvgl/src/display/lv_display.c **** bool lv_display_is_invalidation_enabled(lv_display_t * disp)
 862:Lib/lvgl/src/display/lv_display.c **** {
 863:Lib/lvgl/src/display/lv_display.c ****     if(!disp) disp = lv_display_get_default();
 864:Lib/lvgl/src/display/lv_display.c ****     if(!disp) {
 865:Lib/lvgl/src/display/lv_display.c ****         LV_LOG_WARN("no display registered");
 866:Lib/lvgl/src/display/lv_display.c ****         return false;
 867:Lib/lvgl/src/display/lv_display.c ****     }
 868:Lib/lvgl/src/display/lv_display.c **** 
 869:Lib/lvgl/src/display/lv_display.c ****     return (disp->inv_en_cnt > 0);
 870:Lib/lvgl/src/display/lv_display.c **** }
 871:Lib/lvgl/src/display/lv_display.c **** 
 872:Lib/lvgl/src/display/lv_display.c **** lv_timer_t * lv_display_get_refr_timer(lv_display_t * disp)
 873:Lib/lvgl/src/display/lv_display.c **** {
 874:Lib/lvgl/src/display/lv_display.c ****     if(!disp) disp = lv_display_get_default();
 875:Lib/lvgl/src/display/lv_display.c ****     if(!disp) return NULL;
 876:Lib/lvgl/src/display/lv_display.c **** 
 877:Lib/lvgl/src/display/lv_display.c ****     return disp->refr_timer;
 878:Lib/lvgl/src/display/lv_display.c **** }
 879:Lib/lvgl/src/display/lv_display.c **** 
 880:Lib/lvgl/src/display/lv_display.c **** void lv_display_delete_refr_timer(lv_display_t * disp)
 881:Lib/lvgl/src/display/lv_display.c **** {
 882:Lib/lvgl/src/display/lv_display.c ****     if(!disp) disp = lv_display_get_default();
 883:Lib/lvgl/src/display/lv_display.c ****     if(!disp || !disp->refr_timer) return;
 884:Lib/lvgl/src/display/lv_display.c **** 
 885:Lib/lvgl/src/display/lv_display.c ****     lv_timer_delete(disp->refr_timer);
ARM GAS  C:\Users\Alex\AppData\Local\Temp\cc0G22cc.s 			page 17


 886:Lib/lvgl/src/display/lv_display.c ****     disp->refr_timer = NULL;
 887:Lib/lvgl/src/display/lv_display.c **** }
 888:Lib/lvgl/src/display/lv_display.c **** 
 889:Lib/lvgl/src/display/lv_display.c **** void lv_display_set_user_data(lv_display_t * disp, void * user_data)
 890:Lib/lvgl/src/display/lv_display.c **** {
 891:Lib/lvgl/src/display/lv_display.c ****     if(!disp) disp = lv_display_get_default();
 892:Lib/lvgl/src/display/lv_display.c ****     if(!disp) return;
 893:Lib/lvgl/src/display/lv_display.c ****     disp->user_data = user_data;
 894:Lib/lvgl/src/display/lv_display.c **** }
 895:Lib/lvgl/src/display/lv_display.c **** 
 896:Lib/lvgl/src/display/lv_display.c **** void lv_display_set_driver_data(lv_display_t * disp, void * driver_data)
 897:Lib/lvgl/src/display/lv_display.c **** {
 898:Lib/lvgl/src/display/lv_display.c ****     if(!disp) disp = lv_display_get_default();
 899:Lib/lvgl/src/display/lv_display.c ****     if(!disp) return;
 900:Lib/lvgl/src/display/lv_display.c **** 
 901:Lib/lvgl/src/display/lv_display.c ****     disp->driver_data = driver_data;
 902:Lib/lvgl/src/display/lv_display.c **** }
 903:Lib/lvgl/src/display/lv_display.c **** 
 904:Lib/lvgl/src/display/lv_display.c **** void * lv_display_get_user_data(lv_display_t * disp)
 905:Lib/lvgl/src/display/lv_display.c **** {
 906:Lib/lvgl/src/display/lv_display.c ****     if(!disp) disp = lv_display_get_default();
 907:Lib/lvgl/src/display/lv_display.c ****     if(!disp) return NULL;
 908:Lib/lvgl/src/display/lv_display.c ****     return disp->user_data;
 909:Lib/lvgl/src/display/lv_display.c **** }
 910:Lib/lvgl/src/display/lv_display.c **** 
 911:Lib/lvgl/src/display/lv_display.c **** void * lv_display_get_driver_data(lv_display_t * disp)
 912:Lib/lvgl/src/display/lv_display.c **** {
 913:Lib/lvgl/src/display/lv_display.c ****     if(!disp) disp = lv_display_get_default();
 914:Lib/lvgl/src/display/lv_display.c ****     if(!disp) return NULL;
 915:Lib/lvgl/src/display/lv_display.c **** 
 916:Lib/lvgl/src/display/lv_display.c ****     return disp->driver_data;
 917:Lib/lvgl/src/display/lv_display.c **** }
 918:Lib/lvgl/src/display/lv_display.c **** 
 919:Lib/lvgl/src/display/lv_display.c **** /**********************
 920:Lib/lvgl/src/display/lv_display.c ****  *   STATIC FUNCTIONS
 921:Lib/lvgl/src/display/lv_display.c ****  **********************/
 922:Lib/lvgl/src/display/lv_display.c **** 
 923:Lib/lvgl/src/display/lv_display.c **** static void update_resolution(lv_display_t * disp)
 924:Lib/lvgl/src/display/lv_display.c **** {
 925:Lib/lvgl/src/display/lv_display.c ****     int32_t hor_res = lv_display_get_horizontal_resolution(disp);
 926:Lib/lvgl/src/display/lv_display.c ****     int32_t ver_res = lv_display_get_vertical_resolution(disp);
 927:Lib/lvgl/src/display/lv_display.c **** 
 928:Lib/lvgl/src/display/lv_display.c ****     lv_area_t prev_coords;
 929:Lib/lvgl/src/display/lv_display.c ****     lv_obj_get_coords(disp->sys_layer, &prev_coords);
 930:Lib/lvgl/src/display/lv_display.c ****     uint32_t i;
 931:Lib/lvgl/src/display/lv_display.c ****     for(i = 0; i < disp->screen_cnt; i++) {
 932:Lib/lvgl/src/display/lv_display.c ****         lv_area_set_width(&disp->screens[i]->coords, hor_res);
 933:Lib/lvgl/src/display/lv_display.c ****         lv_area_set_height(&disp->screens[i]->coords, ver_res);
 934:Lib/lvgl/src/display/lv_display.c ****         lv_obj_send_event(disp->screens[i], LV_EVENT_SIZE_CHANGED, &prev_coords);
 935:Lib/lvgl/src/display/lv_display.c ****     }
 936:Lib/lvgl/src/display/lv_display.c **** 
 937:Lib/lvgl/src/display/lv_display.c ****     lv_area_set_width(&disp->top_layer->coords, hor_res);
 938:Lib/lvgl/src/display/lv_display.c ****     lv_area_set_height(&disp->top_layer->coords, ver_res);
 939:Lib/lvgl/src/display/lv_display.c ****     lv_obj_send_event(disp->top_layer, LV_EVENT_SIZE_CHANGED, &prev_coords);
 940:Lib/lvgl/src/display/lv_display.c **** 
 941:Lib/lvgl/src/display/lv_display.c ****     lv_area_set_width(&disp->sys_layer->coords, hor_res);
 942:Lib/lvgl/src/display/lv_display.c ****     lv_area_set_height(&disp->sys_layer->coords, ver_res);
ARM GAS  C:\Users\Alex\AppData\Local\Temp\cc0G22cc.s 			page 18


 943:Lib/lvgl/src/display/lv_display.c ****     lv_obj_send_event(disp->sys_layer, LV_EVENT_SIZE_CHANGED, &prev_coords);
 944:Lib/lvgl/src/display/lv_display.c **** 
 945:Lib/lvgl/src/display/lv_display.c ****     lv_area_set_width(&disp->bottom_layer->coords, hor_res);
 946:Lib/lvgl/src/display/lv_display.c ****     lv_area_set_height(&disp->bottom_layer->coords, ver_res);
 947:Lib/lvgl/src/display/lv_display.c ****     lv_obj_send_event(disp->bottom_layer, LV_EVENT_SIZE_CHANGED, &prev_coords);
 948:Lib/lvgl/src/display/lv_display.c **** 
 949:Lib/lvgl/src/display/lv_display.c ****     lv_memzero(disp->inv_areas, sizeof(disp->inv_areas));
 950:Lib/lvgl/src/display/lv_display.c ****     lv_memzero(disp->inv_area_joined, sizeof(disp->inv_area_joined));
 951:Lib/lvgl/src/display/lv_display.c ****     disp->inv_p = 0;
 952:Lib/lvgl/src/display/lv_display.c ****     lv_obj_invalidate(disp->sys_layer);
 953:Lib/lvgl/src/display/lv_display.c **** 
 954:Lib/lvgl/src/display/lv_display.c ****     lv_obj_tree_walk(NULL, invalidate_layout_cb, NULL);
 955:Lib/lvgl/src/display/lv_display.c **** 
 956:Lib/lvgl/src/display/lv_display.c ****     lv_display_send_event(disp, LV_EVENT_RESOLUTION_CHANGED, NULL);
 957:Lib/lvgl/src/display/lv_display.c **** }
 958:Lib/lvgl/src/display/lv_display.c **** 
 959:Lib/lvgl/src/display/lv_display.c **** static lv_obj_tree_walk_res_t invalidate_layout_cb(lv_obj_t * obj, void * user_data)
 960:Lib/lvgl/src/display/lv_display.c **** {
 961:Lib/lvgl/src/display/lv_display.c ****     LV_UNUSED(user_data);
 962:Lib/lvgl/src/display/lv_display.c ****     lv_obj_mark_layout_as_dirty(obj);
 963:Lib/lvgl/src/display/lv_display.c ****     return LV_OBJ_TREE_WALK_NEXT;
 964:Lib/lvgl/src/display/lv_display.c **** }
 965:Lib/lvgl/src/display/lv_display.c **** 
 966:Lib/lvgl/src/display/lv_display.c **** static void scr_load_internal(lv_obj_t * scr)
 967:Lib/lvgl/src/display/lv_display.c **** {
 968:Lib/lvgl/src/display/lv_display.c ****     /*scr must not be NULL, but d->act_scr might be*/
 969:Lib/lvgl/src/display/lv_display.c ****     LV_ASSERT_NULL(scr);
 970:Lib/lvgl/src/display/lv_display.c ****     if(scr == NULL) return;
 971:Lib/lvgl/src/display/lv_display.c **** 
 972:Lib/lvgl/src/display/lv_display.c ****     lv_display_t * d = lv_obj_get_display(scr);
 973:Lib/lvgl/src/display/lv_display.c ****     if(!d) return;  /*Shouldn't happen, just to be sure*/
 974:Lib/lvgl/src/display/lv_display.c **** 
 975:Lib/lvgl/src/display/lv_display.c ****     lv_obj_t * old_scr = d->act_scr;
 976:Lib/lvgl/src/display/lv_display.c **** 
 977:Lib/lvgl/src/display/lv_display.c ****     if(old_scr) lv_obj_send_event(old_scr, LV_EVENT_SCREEN_UNLOAD_START, NULL);
 978:Lib/lvgl/src/display/lv_display.c ****     lv_obj_send_event(scr, LV_EVENT_SCREEN_LOAD_START, NULL);
 979:Lib/lvgl/src/display/lv_display.c **** 
 980:Lib/lvgl/src/display/lv_display.c ****     d->act_scr = scr;
 981:Lib/lvgl/src/display/lv_display.c ****     d->scr_to_load = NULL;
 982:Lib/lvgl/src/display/lv_display.c **** 
 983:Lib/lvgl/src/display/lv_display.c ****     lv_obj_send_event(scr, LV_EVENT_SCREEN_LOADED, NULL);
 984:Lib/lvgl/src/display/lv_display.c ****     if(old_scr) lv_obj_send_event(old_scr, LV_EVENT_SCREEN_UNLOADED, NULL);
 985:Lib/lvgl/src/display/lv_display.c **** 
 986:Lib/lvgl/src/display/lv_display.c ****     lv_obj_invalidate(scr);
 987:Lib/lvgl/src/display/lv_display.c **** }
 988:Lib/lvgl/src/display/lv_display.c **** 
 989:Lib/lvgl/src/display/lv_display.c **** static void scr_load_anim_start(lv_anim_t * a)
 990:Lib/lvgl/src/display/lv_display.c **** {
 991:Lib/lvgl/src/display/lv_display.c ****     lv_display_t * d = lv_obj_get_display(a->var);
 992:Lib/lvgl/src/display/lv_display.c **** 
 993:Lib/lvgl/src/display/lv_display.c ****     d->prev_scr = lv_screen_active();
 994:Lib/lvgl/src/display/lv_display.c ****     d->act_scr = a->var;
 995:Lib/lvgl/src/display/lv_display.c **** 
 996:Lib/lvgl/src/display/lv_display.c ****     lv_obj_send_event(d->act_scr, LV_EVENT_SCREEN_LOAD_START, NULL);
 997:Lib/lvgl/src/display/lv_display.c **** }
 998:Lib/lvgl/src/display/lv_display.c **** 
 999:Lib/lvgl/src/display/lv_display.c **** static void opa_scale_anim(void * obj, int32_t v)
ARM GAS  C:\Users\Alex\AppData\Local\Temp\cc0G22cc.s 			page 19


1000:Lib/lvgl/src/display/lv_display.c **** {
1001:Lib/lvgl/src/display/lv_display.c ****     lv_obj_set_style_opa(obj, v, 0);
1002:Lib/lvgl/src/display/lv_display.c **** }
1003:Lib/lvgl/src/display/lv_display.c **** 
1004:Lib/lvgl/src/display/lv_display.c **** static void set_x_anim(void * obj, int32_t v)
1005:Lib/lvgl/src/display/lv_display.c **** {
1006:Lib/lvgl/src/display/lv_display.c ****     lv_obj_set_x(obj, v);
1007:Lib/lvgl/src/display/lv_display.c **** }
1008:Lib/lvgl/src/display/lv_display.c **** 
1009:Lib/lvgl/src/display/lv_display.c **** static void set_y_anim(void * obj, int32_t v)
1010:Lib/lvgl/src/display/lv_display.c **** {
1011:Lib/lvgl/src/display/lv_display.c ****     lv_obj_set_y(obj, v);
1012:Lib/lvgl/src/display/lv_display.c **** }
1013:Lib/lvgl/src/display/lv_display.c **** 
1014:Lib/lvgl/src/display/lv_display.c **** static void scr_anim_completed(lv_anim_t * a)
1015:Lib/lvgl/src/display/lv_display.c **** {
1016:Lib/lvgl/src/display/lv_display.c ****     lv_display_t * d = lv_obj_get_display(a->var);
1017:Lib/lvgl/src/display/lv_display.c **** 
1018:Lib/lvgl/src/display/lv_display.c ****     lv_obj_send_event(d->act_scr, LV_EVENT_SCREEN_LOADED, NULL);
1019:Lib/lvgl/src/display/lv_display.c ****     lv_obj_send_event(d->prev_scr, LV_EVENT_SCREEN_UNLOADED, NULL);
1020:Lib/lvgl/src/display/lv_display.c **** 
1021:Lib/lvgl/src/display/lv_display.c ****     if(d->prev_scr && d->del_prev) lv_obj_delete(d->prev_scr);
1022:Lib/lvgl/src/display/lv_display.c ****     d->prev_scr = NULL;
1023:Lib/lvgl/src/display/lv_display.c ****     d->draw_prev_over_act = false;
1024:Lib/lvgl/src/display/lv_display.c ****     d->scr_to_load = NULL;
1025:Lib/lvgl/src/display/lv_display.c ****     lv_obj_remove_local_style_prop(a->var, LV_STYLE_OPA, 0);
1026:Lib/lvgl/src/display/lv_display.c ****     lv_obj_invalidate(d->act_scr);
1027:Lib/lvgl/src/display/lv_display.c **** }
1028:Lib/lvgl/src/display/lv_display.c **** 
1029:Lib/lvgl/src/display/lv_display.c **** static bool is_out_anim(lv_screen_load_anim_t anim_type)
1030:Lib/lvgl/src/display/lv_display.c **** {
  29              		.loc 1 1030 1 view -0
  30              		.cfi_startproc
  31              		@ args = 0, pretend = 0, frame = 0
  32              		@ frame_needed = 0, uses_anonymous_args = 0
  33              		@ link register save eliminated.
1031:Lib/lvgl/src/display/lv_display.c ****     return anim_type == LV_SCR_LOAD_ANIM_FADE_OUT  ||
  34              		.loc 1 1031 5 view .LVU1
1032:Lib/lvgl/src/display/lv_display.c ****            anim_type == LV_SCR_LOAD_ANIM_OUT_LEFT  ||
1033:Lib/lvgl/src/display/lv_display.c ****            anim_type == LV_SCR_LOAD_ANIM_OUT_RIGHT ||
1034:Lib/lvgl/src/display/lv_display.c ****            anim_type == LV_SCR_LOAD_ANIM_OUT_TOP   ||
  35              		.loc 1 1034 52 is_stmt 0 view .LVU2
  36 0000 0A38     		subs	r0, r0, #10
  37              	.LVL1:
  38              		.loc 1 1034 52 view .LVU3
  39 0002 C0B2     		uxtb	r0, r0
1035:Lib/lvgl/src/display/lv_display.c ****            anim_type == LV_SCR_LOAD_ANIM_OUT_BOTTOM;
1036:Lib/lvgl/src/display/lv_display.c **** }
  40              		.loc 1 1036 1 view .LVU4
  41 0004 0428     		cmp	r0, #4
  42 0006 8CBF     		ite	hi
  43 0008 0020     		movhi	r0, #0
  44 000a 0120     		movls	r0, #1
  45 000c 7047     		bx	lr
  46              		.cfi_endproc
  47              	.LFE297:
  49              		.section	.text.disp_event_cb,"ax",%progbits
ARM GAS  C:\Users\Alex\AppData\Local\Temp\cc0G22cc.s 			page 20


  50              		.align	1
  51              		.syntax unified
  52              		.thumb
  53              		.thumb_func
  55              	disp_event_cb:
  56              	.LVL2:
  57              	.LFB298:
1037:Lib/lvgl/src/display/lv_display.c **** 
1038:Lib/lvgl/src/display/lv_display.c **** static void disp_event_cb(lv_event_t * e)
1039:Lib/lvgl/src/display/lv_display.c **** {
  58              		.loc 1 1039 1 is_stmt 1 view -0
  59              		.cfi_startproc
  60              		@ args = 0, pretend = 0, frame = 0
  61              		@ frame_needed = 0, uses_anonymous_args = 0
  62              		.loc 1 1039 1 is_stmt 0 view .LVU6
  63 0000 38B5     		push	{r3, r4, r5, lr}
  64              	.LCFI0:
  65              		.cfi_def_cfa_offset 16
  66              		.cfi_offset 3, -16
  67              		.cfi_offset 4, -12
  68              		.cfi_offset 5, -8
  69              		.cfi_offset 14, -4
  70 0002 0546     		mov	r5, r0
1040:Lib/lvgl/src/display/lv_display.c ****     lv_event_code_t code = lv_event_get_code(e);
  71              		.loc 1 1040 5 is_stmt 1 view .LVU7
  72              		.loc 1 1040 28 is_stmt 0 view .LVU8
  73 0004 FFF7FEFF 		bl	lv_event_get_code
  74              	.LVL3:
  75              		.loc 1 1040 28 view .LVU9
  76 0008 0446     		mov	r4, r0
  77              	.LVL4:
1041:Lib/lvgl/src/display/lv_display.c ****     lv_display_t * disp = lv_event_get_target(e);
  78              		.loc 1 1041 5 is_stmt 1 view .LVU10
  79              		.loc 1 1041 27 is_stmt 0 view .LVU11
  80 000a 2846     		mov	r0, r5
  81 000c FFF7FEFF 		bl	lv_event_get_target
  82              	.LVL5:
1042:Lib/lvgl/src/display/lv_display.c ****     switch(code) {
  83              		.loc 1 1042 5 is_stmt 1 view .LVU12
  84 0010 322C     		cmp	r4, #50
  85 0012 00D0     		beq	.L5
  86              	.LVL6:
  87              	.L2:
1043:Lib/lvgl/src/display/lv_display.c ****         case LV_EVENT_REFR_REQUEST:
1044:Lib/lvgl/src/display/lv_display.c ****             if(disp->refr_timer) lv_timer_resume(disp->refr_timer);
1045:Lib/lvgl/src/display/lv_display.c ****             break;
1046:Lib/lvgl/src/display/lv_display.c **** 
1047:Lib/lvgl/src/display/lv_display.c ****         default:
1048:Lib/lvgl/src/display/lv_display.c ****             break;
1049:Lib/lvgl/src/display/lv_display.c ****     }
1050:Lib/lvgl/src/display/lv_display.c **** }
  88              		.loc 1 1050 1 is_stmt 0 view .LVU13
  89 0014 38BD     		pop	{r3, r4, r5, pc}
  90              	.LVL7:
  91              	.L5:
1044:Lib/lvgl/src/display/lv_display.c ****             break;
  92              		.loc 1 1044 13 is_stmt 1 view .LVU14
ARM GAS  C:\Users\Alex\AppData\Local\Temp\cc0G22cc.s 			page 21


1044:Lib/lvgl/src/display/lv_display.c ****             break;
  93              		.loc 1 1044 20 is_stmt 0 view .LVU15
  94 0016 D0F8F002 		ldr	r0, [r0, #752]
  95              	.LVL8:
1044:Lib/lvgl/src/display/lv_display.c ****             break;
  96              		.loc 1 1044 15 view .LVU16
  97 001a 0028     		cmp	r0, #0
  98 001c FAD0     		beq	.L2
1044:Lib/lvgl/src/display/lv_display.c ****             break;
  99              		.loc 1 1044 34 is_stmt 1 discriminator 1 view .LVU17
 100 001e FFF7FEFF 		bl	lv_timer_resume
 101              	.LVL9:
 102              		.loc 1 1050 1 is_stmt 0 discriminator 1 view .LVU18
 103 0022 F7E7     		b	.L2
 104              		.cfi_endproc
 105              	.LFE298:
 107              		.section	.text.invalidate_layout_cb,"ax",%progbits
 108              		.align	1
 109              		.syntax unified
 110              		.thumb
 111              		.thumb_func
 113              	invalidate_layout_cb:
 114              	.LVL10:
 115              	.LFB290:
 960:Lib/lvgl/src/display/lv_display.c ****     LV_UNUSED(user_data);
 116              		.loc 1 960 1 is_stmt 1 view -0
 117              		.cfi_startproc
 118              		@ args = 0, pretend = 0, frame = 0
 119              		@ frame_needed = 0, uses_anonymous_args = 0
 960:Lib/lvgl/src/display/lv_display.c ****     LV_UNUSED(user_data);
 120              		.loc 1 960 1 is_stmt 0 view .LVU20
 121 0000 08B5     		push	{r3, lr}
 122              	.LCFI1:
 123              		.cfi_def_cfa_offset 8
 124              		.cfi_offset 3, -8
 125              		.cfi_offset 14, -4
 961:Lib/lvgl/src/display/lv_display.c ****     lv_obj_mark_layout_as_dirty(obj);
 126              		.loc 1 961 5 is_stmt 1 view .LVU21
 962:Lib/lvgl/src/display/lv_display.c ****     return LV_OBJ_TREE_WALK_NEXT;
 127              		.loc 1 962 5 view .LVU22
 128 0002 FFF7FEFF 		bl	lv_obj_mark_layout_as_dirty
 129              	.LVL11:
 963:Lib/lvgl/src/display/lv_display.c **** }
 130              		.loc 1 963 5 view .LVU23
 964:Lib/lvgl/src/display/lv_display.c **** 
 131              		.loc 1 964 1 is_stmt 0 view .LVU24
 132 0006 0020     		movs	r0, #0
 133 0008 08BD     		pop	{r3, pc}
 134              		.cfi_endproc
 135              	.LFE290:
 137              		.section	.text.scr_load_internal,"ax",%progbits
 138              		.align	1
 139              		.syntax unified
 140              		.thumb
 141              		.thumb_func
 143              	scr_load_internal:
 144              	.LVL12:
ARM GAS  C:\Users\Alex\AppData\Local\Temp\cc0G22cc.s 			page 22


 145              	.LFB291:
 967:Lib/lvgl/src/display/lv_display.c ****     /*scr must not be NULL, but d->act_scr might be*/
 146              		.loc 1 967 1 is_stmt 1 view -0
 147              		.cfi_startproc
 148              		@ args = 0, pretend = 0, frame = 0
 149              		@ frame_needed = 0, uses_anonymous_args = 0
 969:Lib/lvgl/src/display/lv_display.c ****     if(scr == NULL) return;
 150              		.loc 1 969 5 view .LVU26
 969:Lib/lvgl/src/display/lv_display.c ****     if(scr == NULL) return;
 151              		.loc 1 969 5 view .LVU27
 152 0000 28B3     		cbz	r0, .L10
 967:Lib/lvgl/src/display/lv_display.c ****     /*scr must not be NULL, but d->act_scr might be*/
 153              		.loc 1 967 1 is_stmt 0 view .LVU28
 154 0002 70B5     		push	{r4, r5, r6, lr}
 155              	.LCFI2:
 156              		.cfi_def_cfa_offset 16
 157              		.cfi_offset 4, -16
 158              		.cfi_offset 5, -12
 159              		.cfi_offset 6, -8
 160              		.cfi_offset 14, -4
 161 0004 0446     		mov	r4, r0
 969:Lib/lvgl/src/display/lv_display.c ****     if(scr == NULL) return;
 162              		.loc 1 969 5 is_stmt 1 view .LVU29
 969:Lib/lvgl/src/display/lv_display.c ****     if(scr == NULL) return;
 163              		.loc 1 969 24 view .LVU30
 970:Lib/lvgl/src/display/lv_display.c **** 
 164              		.loc 1 970 5 view .LVU31
 972:Lib/lvgl/src/display/lv_display.c ****     if(!d) return;  /*Shouldn't happen, just to be sure*/
 165              		.loc 1 972 5 view .LVU32
 972:Lib/lvgl/src/display/lv_display.c ****     if(!d) return;  /*Shouldn't happen, just to be sure*/
 166              		.loc 1 972 24 is_stmt 0 view .LVU33
 167 0006 FFF7FEFF 		bl	lv_obj_get_display
 168              	.LVL13:
 973:Lib/lvgl/src/display/lv_display.c **** 
 169              		.loc 1 973 5 is_stmt 1 view .LVU34
 973:Lib/lvgl/src/display/lv_display.c **** 
 170              		.loc 1 973 7 is_stmt 0 view .LVU35
 171 000a 0546     		mov	r5, r0
 172 000c F0B1     		cbz	r0, .L8
 975:Lib/lvgl/src/display/lv_display.c **** 
 173              		.loc 1 975 5 is_stmt 1 view .LVU36
 975:Lib/lvgl/src/display/lv_display.c **** 
 174              		.loc 1 975 16 is_stmt 0 view .LVU37
 175 000e D0F8B062 		ldr	r6, [r0, #688]
 176              	.LVL14:
 977:Lib/lvgl/src/display/lv_display.c ****     lv_obj_send_event(scr, LV_EVENT_SCREEN_LOAD_START, NULL);
 177              		.loc 1 977 5 is_stmt 1 view .LVU38
 977:Lib/lvgl/src/display/lv_display.c ****     lv_obj_send_event(scr, LV_EVENT_SCREEN_LOAD_START, NULL);
 178              		.loc 1 977 7 is_stmt 0 view .LVU39
 179 0012 26B1     		cbz	r6, .L12
 977:Lib/lvgl/src/display/lv_display.c ****     lv_obj_send_event(scr, LV_EVENT_SCREEN_LOAD_START, NULL);
 180              		.loc 1 977 17 is_stmt 1 discriminator 1 view .LVU40
 181 0014 0022     		movs	r2, #0
 182 0016 2721     		movs	r1, #39
 183 0018 3046     		mov	r0, r6
 184              	.LVL15:
 977:Lib/lvgl/src/display/lv_display.c ****     lv_obj_send_event(scr, LV_EVENT_SCREEN_LOAD_START, NULL);
ARM GAS  C:\Users\Alex\AppData\Local\Temp\cc0G22cc.s 			page 23


 185              		.loc 1 977 17 is_stmt 0 discriminator 1 view .LVU41
 186 001a FFF7FEFF 		bl	lv_obj_send_event
 187              	.LVL16:
 188              	.L12:
 978:Lib/lvgl/src/display/lv_display.c **** 
 189              		.loc 1 978 5 is_stmt 1 view .LVU42
 190 001e 0022     		movs	r2, #0
 191 0020 2821     		movs	r1, #40
 192 0022 2046     		mov	r0, r4
 193 0024 FFF7FEFF 		bl	lv_obj_send_event
 194              	.LVL17:
 980:Lib/lvgl/src/display/lv_display.c ****     d->scr_to_load = NULL;
 195              		.loc 1 980 5 view .LVU43
 980:Lib/lvgl/src/display/lv_display.c ****     d->scr_to_load = NULL;
 196              		.loc 1 980 16 is_stmt 0 view .LVU44
 197 0028 C5F8B042 		str	r4, [r5, #688]
 981:Lib/lvgl/src/display/lv_display.c **** 
 198              		.loc 1 981 5 is_stmt 1 view .LVU45
 981:Lib/lvgl/src/display/lv_display.c **** 
 199              		.loc 1 981 20 is_stmt 0 view .LVU46
 200 002c 0022     		movs	r2, #0
 201 002e C5F8B822 		str	r2, [r5, #696]
 983:Lib/lvgl/src/display/lv_display.c ****     if(old_scr) lv_obj_send_event(old_scr, LV_EVENT_SCREEN_UNLOADED, NULL);
 202              		.loc 1 983 5 is_stmt 1 view .LVU47
 203 0032 2921     		movs	r1, #41
 204 0034 2046     		mov	r0, r4
 205 0036 FFF7FEFF 		bl	lv_obj_send_event
 206              	.LVL18:
 984:Lib/lvgl/src/display/lv_display.c **** 
 207              		.loc 1 984 5 view .LVU48
 984:Lib/lvgl/src/display/lv_display.c **** 
 208              		.loc 1 984 7 is_stmt 0 view .LVU49
 209 003a 26B1     		cbz	r6, .L13
 984:Lib/lvgl/src/display/lv_display.c **** 
 210              		.loc 1 984 17 is_stmt 1 discriminator 1 view .LVU50
 211 003c 0022     		movs	r2, #0
 212 003e 2A21     		movs	r1, #42
 213 0040 3046     		mov	r0, r6
 214 0042 FFF7FEFF 		bl	lv_obj_send_event
 215              	.LVL19:
 216              	.L13:
 986:Lib/lvgl/src/display/lv_display.c **** }
 217              		.loc 1 986 5 view .LVU51
 218 0046 2046     		mov	r0, r4
 219 0048 FFF7FEFF 		bl	lv_obj_invalidate
 220              	.LVL20:
 221              	.L8:
 987:Lib/lvgl/src/display/lv_display.c **** 
 222              		.loc 1 987 1 is_stmt 0 view .LVU52
 223 004c 70BD     		pop	{r4, r5, r6, pc}
 224              	.LVL21:
 225              	.L10:
 226              	.LCFI3:
 227              		.cfi_def_cfa_offset 0
 228              		.cfi_restore 4
 229              		.cfi_restore 5
 230              		.cfi_restore 6
ARM GAS  C:\Users\Alex\AppData\Local\Temp\cc0G22cc.s 			page 24


 231              		.cfi_restore 14
 969:Lib/lvgl/src/display/lv_display.c ****     if(scr == NULL) return;
 232              		.loc 1 969 5 is_stmt 1 discriminator 1 view .LVU53
 969:Lib/lvgl/src/display/lv_display.c ****     if(scr == NULL) return;
 233              		.loc 1 969 5 discriminator 1 view .LVU54
 969:Lib/lvgl/src/display/lv_display.c ****     if(scr == NULL) return;
 234              		.loc 1 969 5 discriminator 1 view .LVU55
 969:Lib/lvgl/src/display/lv_display.c ****     if(scr == NULL) return;
 235              		.loc 1 969 5 discriminator 1 view .LVU56
 969:Lib/lvgl/src/display/lv_display.c ****     if(scr == NULL) return;
 236              		.loc 1 969 5 discriminator 1 view .LVU57
 237 004e FEE7     		b	.L10
 238              		.cfi_endproc
 239              	.LFE291:
 241              		.section	.text.scr_anim_completed,"ax",%progbits
 242              		.align	1
 243              		.syntax unified
 244              		.thumb
 245              		.thumb_func
 247              	scr_anim_completed:
 248              	.LVL22:
 249              	.LFB296:
1015:Lib/lvgl/src/display/lv_display.c ****     lv_display_t * d = lv_obj_get_display(a->var);
 250              		.loc 1 1015 1 view -0
 251              		.cfi_startproc
 252              		@ args = 0, pretend = 0, frame = 0
 253              		@ frame_needed = 0, uses_anonymous_args = 0
1015:Lib/lvgl/src/display/lv_display.c ****     lv_display_t * d = lv_obj_get_display(a->var);
 254              		.loc 1 1015 1 is_stmt 0 view .LVU59
 255 0000 38B5     		push	{r3, r4, r5, lr}
 256              	.LCFI4:
 257              		.cfi_def_cfa_offset 16
 258              		.cfi_offset 3, -16
 259              		.cfi_offset 4, -12
 260              		.cfi_offset 5, -8
 261              		.cfi_offset 14, -4
 262 0002 0546     		mov	r5, r0
1016:Lib/lvgl/src/display/lv_display.c **** 
 263              		.loc 1 1016 5 is_stmt 1 view .LVU60
1016:Lib/lvgl/src/display/lv_display.c **** 
 264              		.loc 1 1016 24 is_stmt 0 view .LVU61
 265 0004 0068     		ldr	r0, [r0]
 266              	.LVL23:
1016:Lib/lvgl/src/display/lv_display.c **** 
 267              		.loc 1 1016 24 view .LVU62
 268 0006 FFF7FEFF 		bl	lv_obj_get_display
 269              	.LVL24:
 270 000a 0446     		mov	r4, r0
 271              	.LVL25:
1018:Lib/lvgl/src/display/lv_display.c ****     lv_obj_send_event(d->prev_scr, LV_EVENT_SCREEN_UNLOADED, NULL);
 272              		.loc 1 1018 5 is_stmt 1 view .LVU63
 273 000c 0022     		movs	r2, #0
 274 000e 2921     		movs	r1, #41
 275 0010 D0F8B002 		ldr	r0, [r0, #688]
 276              	.LVL26:
1018:Lib/lvgl/src/display/lv_display.c ****     lv_obj_send_event(d->prev_scr, LV_EVENT_SCREEN_UNLOADED, NULL);
 277              		.loc 1 1018 5 is_stmt 0 view .LVU64
ARM GAS  C:\Users\Alex\AppData\Local\Temp\cc0G22cc.s 			page 25


 278 0014 FFF7FEFF 		bl	lv_obj_send_event
 279              	.LVL27:
1019:Lib/lvgl/src/display/lv_display.c **** 
 280              		.loc 1 1019 5 is_stmt 1 view .LVU65
 281 0018 0022     		movs	r2, #0
 282 001a 2A21     		movs	r1, #42
 283 001c D4F8B402 		ldr	r0, [r4, #692]
 284 0020 FFF7FEFF 		bl	lv_obj_send_event
 285              	.LVL28:
1021:Lib/lvgl/src/display/lv_display.c ****     d->prev_scr = NULL;
 286              		.loc 1 1021 5 view .LVU66
1021:Lib/lvgl/src/display/lv_display.c ****     d->prev_scr = NULL;
 287              		.loc 1 1021 9 is_stmt 0 view .LVU67
 288 0024 D4F8B402 		ldr	r0, [r4, #692]
1021:Lib/lvgl/src/display/lv_display.c ****     d->prev_scr = NULL;
 289              		.loc 1 1021 7 view .LVU68
 290 0028 20B1     		cbz	r0, .L17
1021:Lib/lvgl/src/display/lv_display.c ****     d->prev_scr = NULL;
 291              		.loc 1 1021 20 discriminator 1 view .LVU69
 292 002a 94F8CC32 		ldrb	r3, [r4, #716]	@ zero_extendqisi2
 293 002e 13F0020F 		tst	r3, #2
 294 0032 13D1     		bne	.L19
 295              	.L17:
1022:Lib/lvgl/src/display/lv_display.c ****     d->draw_prev_over_act = false;
 296              		.loc 1 1022 5 is_stmt 1 view .LVU70
1022:Lib/lvgl/src/display/lv_display.c ****     d->draw_prev_over_act = false;
 297              		.loc 1 1022 17 is_stmt 0 view .LVU71
 298 0034 0022     		movs	r2, #0
 299 0036 C4F8B422 		str	r2, [r4, #692]
1023:Lib/lvgl/src/display/lv_display.c ****     d->scr_to_load = NULL;
 300              		.loc 1 1023 5 is_stmt 1 view .LVU72
1023:Lib/lvgl/src/display/lv_display.c ****     d->scr_to_load = NULL;
 301              		.loc 1 1023 27 is_stmt 0 view .LVU73
 302 003a 94F8CC32 		ldrb	r3, [r4, #716]	@ zero_extendqisi2
 303 003e 62F30003 		bfi	r3, r2, #0, #1
 304 0042 84F8CC32 		strb	r3, [r4, #716]
1024:Lib/lvgl/src/display/lv_display.c ****     lv_obj_remove_local_style_prop(a->var, LV_STYLE_OPA, 0);
 305              		.loc 1 1024 5 is_stmt 1 view .LVU74
1024:Lib/lvgl/src/display/lv_display.c ****     lv_obj_remove_local_style_prop(a->var, LV_STYLE_OPA, 0);
 306              		.loc 1 1024 20 is_stmt 0 view .LVU75
 307 0046 C4F8B822 		str	r2, [r4, #696]
1025:Lib/lvgl/src/display/lv_display.c ****     lv_obj_invalidate(d->act_scr);
 308              		.loc 1 1025 5 is_stmt 1 view .LVU76
 309 004a 5F21     		movs	r1, #95
 310 004c 2868     		ldr	r0, [r5]
 311 004e FFF7FEFF 		bl	lv_obj_remove_local_style_prop
 312              	.LVL29:
1026:Lib/lvgl/src/display/lv_display.c **** }
 313              		.loc 1 1026 5 view .LVU77
 314 0052 D4F8B002 		ldr	r0, [r4, #688]
 315 0056 FFF7FEFF 		bl	lv_obj_invalidate
 316              	.LVL30:
1027:Lib/lvgl/src/display/lv_display.c **** 
 317              		.loc 1 1027 1 is_stmt 0 view .LVU78
 318 005a 38BD     		pop	{r3, r4, r5, pc}
 319              	.LVL31:
 320              	.L19:
ARM GAS  C:\Users\Alex\AppData\Local\Temp\cc0G22cc.s 			page 26


1021:Lib/lvgl/src/display/lv_display.c ****     d->prev_scr = NULL;
 321              		.loc 1 1021 36 is_stmt 1 discriminator 2 view .LVU79
 322 005c FFF7FEFF 		bl	lv_obj_delete
 323              	.LVL32:
 324 0060 E8E7     		b	.L17
 325              		.cfi_endproc
 326              	.LFE296:
 328              		.section	.text.opa_scale_anim,"ax",%progbits
 329              		.align	1
 330              		.syntax unified
 331              		.thumb
 332              		.thumb_func
 334              	opa_scale_anim:
 335              	.LVL33:
 336              	.LFB293:
1000:Lib/lvgl/src/display/lv_display.c ****     lv_obj_set_style_opa(obj, v, 0);
 337              		.loc 1 1000 1 view -0
 338              		.cfi_startproc
 339              		@ args = 0, pretend = 0, frame = 0
 340              		@ frame_needed = 0, uses_anonymous_args = 0
1000:Lib/lvgl/src/display/lv_display.c ****     lv_obj_set_style_opa(obj, v, 0);
 341              		.loc 1 1000 1 is_stmt 0 view .LVU81
 342 0000 08B5     		push	{r3, lr}
 343              	.LCFI5:
 344              		.cfi_def_cfa_offset 8
 345              		.cfi_offset 3, -8
 346              		.cfi_offset 14, -4
1001:Lib/lvgl/src/display/lv_display.c **** }
 347              		.loc 1 1001 5 is_stmt 1 view .LVU82
 348 0002 0022     		movs	r2, #0
 349 0004 C9B2     		uxtb	r1, r1
 350              	.LVL34:
1001:Lib/lvgl/src/display/lv_display.c **** }
 351              		.loc 1 1001 5 is_stmt 0 view .LVU83
 352 0006 FFF7FEFF 		bl	lv_obj_set_style_opa
 353              	.LVL35:
1002:Lib/lvgl/src/display/lv_display.c **** 
 354              		.loc 1 1002 1 view .LVU84
 355 000a 08BD     		pop	{r3, pc}
 356              		.cfi_endproc
 357              	.LFE293:
 359              		.section	.text.set_y_anim,"ax",%progbits
 360              		.align	1
 361              		.syntax unified
 362              		.thumb
 363              		.thumb_func
 365              	set_y_anim:
 366              	.LVL36:
 367              	.LFB295:
1010:Lib/lvgl/src/display/lv_display.c ****     lv_obj_set_y(obj, v);
 368              		.loc 1 1010 1 is_stmt 1 view -0
 369              		.cfi_startproc
 370              		@ args = 0, pretend = 0, frame = 0
 371              		@ frame_needed = 0, uses_anonymous_args = 0
1010:Lib/lvgl/src/display/lv_display.c ****     lv_obj_set_y(obj, v);
 372              		.loc 1 1010 1 is_stmt 0 view .LVU86
 373 0000 08B5     		push	{r3, lr}
ARM GAS  C:\Users\Alex\AppData\Local\Temp\cc0G22cc.s 			page 27


 374              	.LCFI6:
 375              		.cfi_def_cfa_offset 8
 376              		.cfi_offset 3, -8
 377              		.cfi_offset 14, -4
1011:Lib/lvgl/src/display/lv_display.c **** }
 378              		.loc 1 1011 5 is_stmt 1 view .LVU87
 379 0002 FFF7FEFF 		bl	lv_obj_set_y
 380              	.LVL37:
1012:Lib/lvgl/src/display/lv_display.c **** 
 381              		.loc 1 1012 1 is_stmt 0 view .LVU88
 382 0006 08BD     		pop	{r3, pc}
 383              		.cfi_endproc
 384              	.LFE295:
 386              		.section	.text.set_x_anim,"ax",%progbits
 387              		.align	1
 388              		.syntax unified
 389              		.thumb
 390              		.thumb_func
 392              	set_x_anim:
 393              	.LVL38:
 394              	.LFB294:
1005:Lib/lvgl/src/display/lv_display.c ****     lv_obj_set_x(obj, v);
 395              		.loc 1 1005 1 is_stmt 1 view -0
 396              		.cfi_startproc
 397              		@ args = 0, pretend = 0, frame = 0
 398              		@ frame_needed = 0, uses_anonymous_args = 0
1005:Lib/lvgl/src/display/lv_display.c ****     lv_obj_set_x(obj, v);
 399              		.loc 1 1005 1 is_stmt 0 view .LVU90
 400 0000 08B5     		push	{r3, lr}
 401              	.LCFI7:
 402              		.cfi_def_cfa_offset 8
 403              		.cfi_offset 3, -8
 404              		.cfi_offset 14, -4
1006:Lib/lvgl/src/display/lv_display.c **** }
 405              		.loc 1 1006 5 is_stmt 1 view .LVU91
 406 0002 FFF7FEFF 		bl	lv_obj_set_x
 407              	.LVL39:
1007:Lib/lvgl/src/display/lv_display.c **** 
 408              		.loc 1 1007 1 is_stmt 0 view .LVU92
 409 0006 08BD     		pop	{r3, pc}
 410              		.cfi_endproc
 411              	.LFE294:
 413              		.section	.text.lv_display_set_default,"ax",%progbits
 414              		.align	1
 415              		.global	lv_display_set_default
 416              		.syntax unified
 417              		.thumb
 418              		.thumb_func
 420              	lv_display_set_default:
 421              	.LVL40:
 422              	.LFB236:
 197:Lib/lvgl/src/display/lv_display.c ****     disp_def = disp;
 423              		.loc 1 197 1 is_stmt 1 view -0
 424              		.cfi_startproc
 425              		@ args = 0, pretend = 0, frame = 0
 426              		@ frame_needed = 0, uses_anonymous_args = 0
 427              		@ link register save eliminated.
ARM GAS  C:\Users\Alex\AppData\Local\Temp\cc0G22cc.s 			page 28


 198:Lib/lvgl/src/display/lv_display.c **** }
 428              		.loc 1 198 5 view .LVU94
 198:Lib/lvgl/src/display/lv_display.c **** }
 429              		.loc 1 198 14 is_stmt 0 view .LVU95
 430 0000 014B     		ldr	r3, .L27
 431 0002 5861     		str	r0, [r3, #20]
 199:Lib/lvgl/src/display/lv_display.c **** 
 432              		.loc 1 199 1 view .LVU96
 433 0004 7047     		bx	lr
 434              	.L28:
 435 0006 00BF     		.align	2
 436              	.L27:
 437 0008 00000000 		.word	lv_global
 438              		.cfi_endproc
 439              	.LFE236:
 441              		.section	.text.lv_display_get_default,"ax",%progbits
 442              		.align	1
 443              		.global	lv_display_get_default
 444              		.syntax unified
 445              		.thumb
 446              		.thumb_func
 448              	lv_display_get_default:
 449              	.LFB237:
 202:Lib/lvgl/src/display/lv_display.c ****     return disp_def;
 450              		.loc 1 202 1 is_stmt 1 view -0
 451              		.cfi_startproc
 452              		@ args = 0, pretend = 0, frame = 0
 453              		@ frame_needed = 0, uses_anonymous_args = 0
 454              		@ link register save eliminated.
 203:Lib/lvgl/src/display/lv_display.c **** }
 455              		.loc 1 203 5 view .LVU98
 204:Lib/lvgl/src/display/lv_display.c **** 
 456              		.loc 1 204 1 is_stmt 0 view .LVU99
 457 0000 014B     		ldr	r3, .L30
 458 0002 5869     		ldr	r0, [r3, #20]
 459 0004 7047     		bx	lr
 460              	.L31:
 461 0006 00BF     		.align	2
 462              	.L30:
 463 0008 00000000 		.word	lv_global
 464              		.cfi_endproc
 465              	.LFE237:
 467              		.section	.text.lv_display_get_next,"ax",%progbits
 468              		.align	1
 469              		.global	lv_display_get_next
 470              		.syntax unified
 471              		.thumb
 472              		.thumb_func
 474              	lv_display_get_next:
 475              	.LVL41:
 476              	.LFB238:
 207:Lib/lvgl/src/display/lv_display.c ****     if(disp == NULL)
 477              		.loc 1 207 1 is_stmt 1 view -0
 478              		.cfi_startproc
 479              		@ args = 0, pretend = 0, frame = 0
 480              		@ frame_needed = 0, uses_anonymous_args = 0
 207:Lib/lvgl/src/display/lv_display.c ****     if(disp == NULL)
ARM GAS  C:\Users\Alex\AppData\Local\Temp\cc0G22cc.s 			page 29


 481              		.loc 1 207 1 is_stmt 0 view .LVU101
 482 0000 08B5     		push	{r3, lr}
 483              	.LCFI8:
 484              		.cfi_def_cfa_offset 8
 485              		.cfi_offset 3, -8
 486              		.cfi_offset 14, -4
 208:Lib/lvgl/src/display/lv_display.c ****         return _lv_ll_get_head(disp_ll_p);
 487              		.loc 1 208 5 is_stmt 1 view .LVU102
 208:Lib/lvgl/src/display/lv_display.c ****         return _lv_ll_get_head(disp_ll_p);
 488              		.loc 1 208 7 is_stmt 0 view .LVU103
 489 0002 20B1     		cbz	r0, .L36
 490 0004 0146     		mov	r1, r0
 211:Lib/lvgl/src/display/lv_display.c **** }
 491              		.loc 1 211 9 is_stmt 1 view .LVU104
 211:Lib/lvgl/src/display/lv_display.c **** }
 492              		.loc 1 211 16 is_stmt 0 view .LVU105
 493 0006 0448     		ldr	r0, .L37
 494              	.LVL42:
 211:Lib/lvgl/src/display/lv_display.c **** }
 495              		.loc 1 211 16 view .LVU106
 496 0008 FFF7FEFF 		bl	_lv_ll_get_next
 497              	.LVL43:
 498              	.L32:
 212:Lib/lvgl/src/display/lv_display.c **** 
 499              		.loc 1 212 1 view .LVU107
 500 000c 08BD     		pop	{r3, pc}
 501              	.LVL44:
 502              	.L36:
 209:Lib/lvgl/src/display/lv_display.c ****     else
 503              		.loc 1 209 9 is_stmt 1 view .LVU108
 209:Lib/lvgl/src/display/lv_display.c ****     else
 504              		.loc 1 209 16 is_stmt 0 view .LVU109
 505 000e 0248     		ldr	r0, .L37
 506              	.LVL45:
 209:Lib/lvgl/src/display/lv_display.c ****     else
 507              		.loc 1 209 16 view .LVU110
 508 0010 FFF7FEFF 		bl	_lv_ll_get_head
 509              	.LVL46:
 510 0014 FAE7     		b	.L32
 511              	.L38:
 512 0016 00BF     		.align	2
 513              	.L37:
 514 0018 04000000 		.word	lv_global+4
 515              		.cfi_endproc
 516              	.LFE238:
 518              		.section	.text.lv_display_set_physical_resolution,"ax",%progbits
 519              		.align	1
 520              		.global	lv_display_set_physical_resolution
 521              		.syntax unified
 522              		.thumb
 523              		.thumb_func
 525              	lv_display_set_physical_resolution:
 526              	.LVL47:
 527              	.LFB240:
 232:Lib/lvgl/src/display/lv_display.c ****     if(disp == NULL) disp = lv_display_get_default();
 528              		.loc 1 232 1 is_stmt 1 view -0
 529              		.cfi_startproc
ARM GAS  C:\Users\Alex\AppData\Local\Temp\cc0G22cc.s 			page 30


 530              		@ args = 0, pretend = 0, frame = 0
 531              		@ frame_needed = 0, uses_anonymous_args = 0
 232:Lib/lvgl/src/display/lv_display.c ****     if(disp == NULL) disp = lv_display_get_default();
 532              		.loc 1 232 1 is_stmt 0 view .LVU112
 533 0000 38B5     		push	{r3, r4, r5, lr}
 534              	.LCFI9:
 535              		.cfi_def_cfa_offset 16
 536              		.cfi_offset 3, -16
 537              		.cfi_offset 4, -12
 538              		.cfi_offset 5, -8
 539              		.cfi_offset 14, -4
 540 0002 0D46     		mov	r5, r1
 541 0004 1446     		mov	r4, r2
 233:Lib/lvgl/src/display/lv_display.c ****     if(disp == NULL) return;
 542              		.loc 1 233 5 is_stmt 1 view .LVU113
 233:Lib/lvgl/src/display/lv_display.c ****     if(disp == NULL) return;
 543              		.loc 1 233 7 is_stmt 0 view .LVU114
 544 0006 0346     		mov	r3, r0
 545 0008 30B1     		cbz	r0, .L43
 546              	.LVL48:
 547              	.L40:
 236:Lib/lvgl/src/display/lv_display.c ****     disp->physical_ver_res = ver_res;
 548              		.loc 1 236 5 is_stmt 1 view .LVU115
 236:Lib/lvgl/src/display/lv_display.c ****     disp->physical_ver_res = ver_res;
 549              		.loc 1 236 28 is_stmt 0 view .LVU116
 550 000a 9D60     		str	r5, [r3, #8]
 237:Lib/lvgl/src/display/lv_display.c **** 
 551              		.loc 1 237 5 is_stmt 1 view .LVU117
 237:Lib/lvgl/src/display/lv_display.c **** 
 552              		.loc 1 237 28 is_stmt 0 view .LVU118
 553 000c DC60     		str	r4, [r3, #12]
 239:Lib/lvgl/src/display/lv_display.c **** 
 554              		.loc 1 239 5 is_stmt 1 view .LVU119
 555 000e D3F8C402 		ldr	r0, [r3, #708]
 556 0012 FFF7FEFF 		bl	lv_obj_invalidate
 557              	.LVL49:
 558              	.L39:
 241:Lib/lvgl/src/display/lv_display.c **** 
 559              		.loc 1 241 1 is_stmt 0 view .LVU120
 560 0016 38BD     		pop	{r3, r4, r5, pc}
 561              	.LVL50:
 562              	.L43:
 233:Lib/lvgl/src/display/lv_display.c ****     if(disp == NULL) return;
 563              		.loc 1 233 22 is_stmt 1 discriminator 1 view .LVU121
 233:Lib/lvgl/src/display/lv_display.c ****     if(disp == NULL) return;
 564              		.loc 1 233 29 is_stmt 0 discriminator 1 view .LVU122
 565 0018 FFF7FEFF 		bl	lv_display_get_default
 566              	.LVL51:
 234:Lib/lvgl/src/display/lv_display.c **** 
 567              		.loc 1 234 5 is_stmt 1 discriminator 1 view .LVU123
 234:Lib/lvgl/src/display/lv_display.c **** 
 568              		.loc 1 234 7 is_stmt 0 discriminator 1 view .LVU124
 569 001c 0346     		mov	r3, r0
 570 001e 0028     		cmp	r0, #0
 571 0020 F3D1     		bne	.L40
 572 0022 F8E7     		b	.L39
 573              		.cfi_endproc
ARM GAS  C:\Users\Alex\AppData\Local\Temp\cc0G22cc.s 			page 31


 574              	.LFE240:
 576              		.section	.text.lv_display_set_offset,"ax",%progbits
 577              		.align	1
 578              		.global	lv_display_set_offset
 579              		.syntax unified
 580              		.thumb
 581              		.thumb_func
 583              	lv_display_set_offset:
 584              	.LVL52:
 585              	.LFB241:
 244:Lib/lvgl/src/display/lv_display.c ****     if(disp == NULL) disp = lv_display_get_default();
 586              		.loc 1 244 1 is_stmt 1 view -0
 587              		.cfi_startproc
 588              		@ args = 0, pretend = 0, frame = 0
 589              		@ frame_needed = 0, uses_anonymous_args = 0
 244:Lib/lvgl/src/display/lv_display.c ****     if(disp == NULL) disp = lv_display_get_default();
 590              		.loc 1 244 1 is_stmt 0 view .LVU126
 591 0000 38B5     		push	{r3, r4, r5, lr}
 592              	.LCFI10:
 593              		.cfi_def_cfa_offset 16
 594              		.cfi_offset 3, -16
 595              		.cfi_offset 4, -12
 596              		.cfi_offset 5, -8
 597              		.cfi_offset 14, -4
 598 0002 0D46     		mov	r5, r1
 599 0004 1446     		mov	r4, r2
 245:Lib/lvgl/src/display/lv_display.c ****     if(disp == NULL) return;
 600              		.loc 1 245 5 is_stmt 1 view .LVU127
 245:Lib/lvgl/src/display/lv_display.c ****     if(disp == NULL) return;
 601              		.loc 1 245 7 is_stmt 0 view .LVU128
 602 0006 0346     		mov	r3, r0
 603 0008 30B1     		cbz	r0, .L48
 604              	.LVL53:
 605              	.L45:
 248:Lib/lvgl/src/display/lv_display.c ****     disp->offset_y = y;
 606              		.loc 1 248 5 is_stmt 1 view .LVU129
 248:Lib/lvgl/src/display/lv_display.c ****     disp->offset_y = y;
 607              		.loc 1 248 20 is_stmt 0 view .LVU130
 608 000a 1D61     		str	r5, [r3, #16]
 249:Lib/lvgl/src/display/lv_display.c **** 
 609              		.loc 1 249 5 is_stmt 1 view .LVU131
 249:Lib/lvgl/src/display/lv_display.c **** 
 610              		.loc 1 249 20 is_stmt 0 view .LVU132
 611 000c 5C61     		str	r4, [r3, #20]
 251:Lib/lvgl/src/display/lv_display.c **** 
 612              		.loc 1 251 5 is_stmt 1 view .LVU133
 613 000e D3F8C402 		ldr	r0, [r3, #708]
 614 0012 FFF7FEFF 		bl	lv_obj_invalidate
 615              	.LVL54:
 616              	.L44:
 253:Lib/lvgl/src/display/lv_display.c **** 
 617              		.loc 1 253 1 is_stmt 0 view .LVU134
 618 0016 38BD     		pop	{r3, r4, r5, pc}
 619              	.LVL55:
 620              	.L48:
 245:Lib/lvgl/src/display/lv_display.c ****     if(disp == NULL) return;
 621              		.loc 1 245 22 is_stmt 1 discriminator 1 view .LVU135
ARM GAS  C:\Users\Alex\AppData\Local\Temp\cc0G22cc.s 			page 32


 245:Lib/lvgl/src/display/lv_display.c ****     if(disp == NULL) return;
 622              		.loc 1 245 29 is_stmt 0 discriminator 1 view .LVU136
 623 0018 FFF7FEFF 		bl	lv_display_get_default
 624              	.LVL56:
 246:Lib/lvgl/src/display/lv_display.c **** 
 625              		.loc 1 246 5 is_stmt 1 discriminator 1 view .LVU137
 246:Lib/lvgl/src/display/lv_display.c **** 
 626              		.loc 1 246 7 is_stmt 0 discriminator 1 view .LVU138
 627 001c 0346     		mov	r3, r0
 628 001e 0028     		cmp	r0, #0
 629 0020 F3D1     		bne	.L45
 630 0022 F8E7     		b	.L44
 631              		.cfi_endproc
 632              	.LFE241:
 634              		.section	.text.lv_display_set_dpi,"ax",%progbits
 635              		.align	1
 636              		.global	lv_display_set_dpi
 637              		.syntax unified
 638              		.thumb
 639              		.thumb_func
 641              	lv_display_set_dpi:
 642              	.LVL57:
 643              	.LFB242:
 256:Lib/lvgl/src/display/lv_display.c ****     if(disp == NULL) disp = lv_display_get_default();
 644              		.loc 1 256 1 is_stmt 1 view -0
 645              		.cfi_startproc
 646              		@ args = 0, pretend = 0, frame = 0
 647              		@ frame_needed = 0, uses_anonymous_args = 0
 256:Lib/lvgl/src/display/lv_display.c ****     if(disp == NULL) disp = lv_display_get_default();
 648              		.loc 1 256 1 is_stmt 0 view .LVU140
 649 0000 10B5     		push	{r4, lr}
 650              	.LCFI11:
 651              		.cfi_def_cfa_offset 8
 652              		.cfi_offset 4, -8
 653              		.cfi_offset 14, -4
 654 0002 0C46     		mov	r4, r1
 257:Lib/lvgl/src/display/lv_display.c ****     if(disp == NULL) return;
 655              		.loc 1 257 5 is_stmt 1 view .LVU141
 257:Lib/lvgl/src/display/lv_display.c ****     if(disp == NULL) return;
 656              		.loc 1 257 7 is_stmt 0 view .LVU142
 657 0004 0346     		mov	r3, r0
 658 0006 08B1     		cbz	r0, .L53
 659              	.LVL58:
 660              	.L50:
 260:Lib/lvgl/src/display/lv_display.c **** }
 661              		.loc 1 260 5 is_stmt 1 view .LVU143
 260:Lib/lvgl/src/display/lv_display.c **** }
 662              		.loc 1 260 15 is_stmt 0 view .LVU144
 663 0008 9C61     		str	r4, [r3, #24]
 664              	.L49:
 261:Lib/lvgl/src/display/lv_display.c **** 
 665              		.loc 1 261 1 view .LVU145
 666 000a 10BD     		pop	{r4, pc}
 667              	.LVL59:
 668              	.L53:
 257:Lib/lvgl/src/display/lv_display.c ****     if(disp == NULL) return;
 669              		.loc 1 257 22 is_stmt 1 discriminator 1 view .LVU146
ARM GAS  C:\Users\Alex\AppData\Local\Temp\cc0G22cc.s 			page 33


 257:Lib/lvgl/src/display/lv_display.c ****     if(disp == NULL) return;
 670              		.loc 1 257 29 is_stmt 0 discriminator 1 view .LVU147
 671 000c FFF7FEFF 		bl	lv_display_get_default
 672              	.LVL60:
 258:Lib/lvgl/src/display/lv_display.c **** 
 673              		.loc 1 258 5 is_stmt 1 discriminator 1 view .LVU148
 258:Lib/lvgl/src/display/lv_display.c **** 
 674              		.loc 1 258 7 is_stmt 0 discriminator 1 view .LVU149
 675 0010 0346     		mov	r3, r0
 676 0012 0028     		cmp	r0, #0
 677 0014 F8D1     		bne	.L50
 678 0016 F8E7     		b	.L49
 679              		.cfi_endproc
 680              	.LFE242:
 682              		.section	.text.lv_display_get_horizontal_resolution,"ax",%progbits
 683              		.align	1
 684              		.global	lv_display_get_horizontal_resolution
 685              		.syntax unified
 686              		.thumb
 687              		.thumb_func
 689              	lv_display_get_horizontal_resolution:
 690              	.LVL61:
 691              	.LFB243:
 264:Lib/lvgl/src/display/lv_display.c ****     if(disp == NULL) disp = lv_display_get_default();
 692              		.loc 1 264 1 is_stmt 1 view -0
 693              		.cfi_startproc
 694              		@ args = 0, pretend = 0, frame = 0
 695              		@ frame_needed = 0, uses_anonymous_args = 0
 264:Lib/lvgl/src/display/lv_display.c ****     if(disp == NULL) disp = lv_display_get_default();
 696              		.loc 1 264 1 is_stmt 0 view .LVU151
 697 0000 08B5     		push	{r3, lr}
 698              	.LCFI12:
 699              		.cfi_def_cfa_offset 8
 700              		.cfi_offset 3, -8
 701              		.cfi_offset 14, -4
 265:Lib/lvgl/src/display/lv_display.c **** 
 702              		.loc 1 265 5 is_stmt 1 view .LVU152
 265:Lib/lvgl/src/display/lv_display.c **** 
 703              		.loc 1 265 7 is_stmt 0 view .LVU153
 704 0002 0246     		mov	r2, r0
 705 0004 48B1     		cbz	r0, .L61
 706              	.L55:
 707              	.LVL62:
 271:Lib/lvgl/src/display/lv_display.c ****             case LV_DISPLAY_ROTATION_90:
 708              		.loc 1 271 9 is_stmt 1 view .LVU154
 271:Lib/lvgl/src/display/lv_display.c ****             case LV_DISPLAY_ROTATION_90:
 709              		.loc 1 271 20 is_stmt 0 view .LVU155
 710 0006 92F8E832 		ldrb	r3, [r2, #744]	@ zero_extendqisi2
 711 000a C3F34103 		ubfx	r3, r3, #1, #2
 271:Lib/lvgl/src/display/lv_display.c ****             case LV_DISPLAY_ROTATION_90:
 712              		.loc 1 271 9 view .LVU156
 713 000e 012B     		cmp	r3, #1
 714 0010 0AD0     		beq	.L57
 715 0012 032B     		cmp	r3, #3
 716 0014 08D0     		beq	.L57
 276:Lib/lvgl/src/display/lv_display.c ****         }
 717              		.loc 1 276 17 is_stmt 1 view .LVU157
ARM GAS  C:\Users\Alex\AppData\Local\Temp\cc0G22cc.s 			page 34


 276:Lib/lvgl/src/display/lv_display.c ****         }
 718              		.loc 1 276 28 is_stmt 0 view .LVU158
 719 0016 1068     		ldr	r0, [r2]
 720 0018 07E0     		b	.L54
 721              	.LVL63:
 722              	.L61:
 265:Lib/lvgl/src/display/lv_display.c **** 
 723              		.loc 1 265 22 is_stmt 1 discriminator 1 view .LVU159
 265:Lib/lvgl/src/display/lv_display.c **** 
 724              		.loc 1 265 29 is_stmt 0 discriminator 1 view .LVU160
 725 001a FFF7FEFF 		bl	lv_display_get_default
 726              	.LVL64:
 267:Lib/lvgl/src/display/lv_display.c ****         return 0;
 727              		.loc 1 267 5 is_stmt 1 discriminator 1 view .LVU161
 267:Lib/lvgl/src/display/lv_display.c ****         return 0;
 728              		.loc 1 267 7 is_stmt 0 discriminator 1 view .LVU162
 729 001e 0246     		mov	r2, r0
 730 0020 0028     		cmp	r0, #0
 731 0022 F0D1     		bne	.L55
 268:Lib/lvgl/src/display/lv_display.c ****     }
 732              		.loc 1 268 16 view .LVU163
 733 0024 0020     		movs	r0, #0
 734              	.LVL65:
 268:Lib/lvgl/src/display/lv_display.c ****     }
 735              		.loc 1 268 16 view .LVU164
 736 0026 00E0     		b	.L54
 737              	.LVL66:
 738              	.L57:
 274:Lib/lvgl/src/display/lv_display.c ****             default:
 739              		.loc 1 274 17 is_stmt 1 view .LVU165
 274:Lib/lvgl/src/display/lv_display.c ****             default:
 740              		.loc 1 274 28 is_stmt 0 view .LVU166
 741 0028 5068     		ldr	r0, [r2, #4]
 742              	.L54:
 279:Lib/lvgl/src/display/lv_display.c **** 
 743              		.loc 1 279 1 view .LVU167
 744 002a 08BD     		pop	{r3, pc}
 745              		.cfi_endproc
 746              	.LFE243:
 748              		.section	.text.lv_display_get_vertical_resolution,"ax",%progbits
 749              		.align	1
 750              		.global	lv_display_get_vertical_resolution
 751              		.syntax unified
 752              		.thumb
 753              		.thumb_func
 755              	lv_display_get_vertical_resolution:
 756              	.LVL67:
 757              	.LFB244:
 282:Lib/lvgl/src/display/lv_display.c ****     if(disp == NULL) disp = lv_display_get_default();
 758              		.loc 1 282 1 is_stmt 1 view -0
 759              		.cfi_startproc
 760              		@ args = 0, pretend = 0, frame = 0
 761              		@ frame_needed = 0, uses_anonymous_args = 0
 282:Lib/lvgl/src/display/lv_display.c ****     if(disp == NULL) disp = lv_display_get_default();
 762              		.loc 1 282 1 is_stmt 0 view .LVU169
 763 0000 08B5     		push	{r3, lr}
 764              	.LCFI13:
ARM GAS  C:\Users\Alex\AppData\Local\Temp\cc0G22cc.s 			page 35


 765              		.cfi_def_cfa_offset 8
 766              		.cfi_offset 3, -8
 767              		.cfi_offset 14, -4
 283:Lib/lvgl/src/display/lv_display.c **** 
 768              		.loc 1 283 5 is_stmt 1 view .LVU170
 283:Lib/lvgl/src/display/lv_display.c **** 
 769              		.loc 1 283 7 is_stmt 0 view .LVU171
 770 0002 0246     		mov	r2, r0
 771 0004 48B1     		cbz	r0, .L69
 772              	.L63:
 773              	.LVL68:
 289:Lib/lvgl/src/display/lv_display.c ****             case LV_DISPLAY_ROTATION_90:
 774              		.loc 1 289 9 is_stmt 1 view .LVU172
 289:Lib/lvgl/src/display/lv_display.c ****             case LV_DISPLAY_ROTATION_90:
 775              		.loc 1 289 20 is_stmt 0 view .LVU173
 776 0006 92F8E832 		ldrb	r3, [r2, #744]	@ zero_extendqisi2
 777 000a C3F34103 		ubfx	r3, r3, #1, #2
 289:Lib/lvgl/src/display/lv_display.c ****             case LV_DISPLAY_ROTATION_90:
 778              		.loc 1 289 9 view .LVU174
 779 000e 012B     		cmp	r3, #1
 780 0010 0AD0     		beq	.L65
 781 0012 032B     		cmp	r3, #3
 782 0014 08D0     		beq	.L65
 294:Lib/lvgl/src/display/lv_display.c ****         }
 783              		.loc 1 294 17 is_stmt 1 view .LVU175
 294:Lib/lvgl/src/display/lv_display.c ****         }
 784              		.loc 1 294 28 is_stmt 0 view .LVU176
 785 0016 5068     		ldr	r0, [r2, #4]
 786 0018 07E0     		b	.L62
 787              	.LVL69:
 788              	.L69:
 283:Lib/lvgl/src/display/lv_display.c **** 
 789              		.loc 1 283 22 is_stmt 1 discriminator 1 view .LVU177
 283:Lib/lvgl/src/display/lv_display.c **** 
 790              		.loc 1 283 29 is_stmt 0 discriminator 1 view .LVU178
 791 001a FFF7FEFF 		bl	lv_display_get_default
 792              	.LVL70:
 285:Lib/lvgl/src/display/lv_display.c ****         return 0;
 793              		.loc 1 285 5 is_stmt 1 discriminator 1 view .LVU179
 285:Lib/lvgl/src/display/lv_display.c ****         return 0;
 794              		.loc 1 285 7 is_stmt 0 discriminator 1 view .LVU180
 795 001e 0246     		mov	r2, r0
 796 0020 0028     		cmp	r0, #0
 797 0022 F0D1     		bne	.L63
 286:Lib/lvgl/src/display/lv_display.c ****     }
 798              		.loc 1 286 16 view .LVU181
 799 0024 0020     		movs	r0, #0
 800              	.LVL71:
 286:Lib/lvgl/src/display/lv_display.c ****     }
 801              		.loc 1 286 16 view .LVU182
 802 0026 00E0     		b	.L62
 803              	.LVL72:
 804              	.L65:
 292:Lib/lvgl/src/display/lv_display.c ****             default:
 805              		.loc 1 292 17 is_stmt 1 view .LVU183
 292:Lib/lvgl/src/display/lv_display.c ****             default:
 806              		.loc 1 292 28 is_stmt 0 view .LVU184
ARM GAS  C:\Users\Alex\AppData\Local\Temp\cc0G22cc.s 			page 36


 807 0028 1068     		ldr	r0, [r2]
 808              	.L62:
 297:Lib/lvgl/src/display/lv_display.c **** 
 809              		.loc 1 297 1 view .LVU185
 810 002a 08BD     		pop	{r3, pc}
 811              		.cfi_endproc
 812              	.LFE244:
 814              		.section	.text.lv_display_get_physical_horizontal_resolution,"ax",%progbits
 815              		.align	1
 816              		.global	lv_display_get_physical_horizontal_resolution
 817              		.syntax unified
 818              		.thumb
 819              		.thumb_func
 821              	lv_display_get_physical_horizontal_resolution:
 822              	.LVL73:
 823              	.LFB245:
 300:Lib/lvgl/src/display/lv_display.c ****     if(disp == NULL) disp = lv_display_get_default();
 824              		.loc 1 300 1 is_stmt 1 view -0
 825              		.cfi_startproc
 826              		@ args = 0, pretend = 0, frame = 0
 827              		@ frame_needed = 0, uses_anonymous_args = 0
 300:Lib/lvgl/src/display/lv_display.c ****     if(disp == NULL) disp = lv_display_get_default();
 828              		.loc 1 300 1 is_stmt 0 view .LVU187
 829 0000 08B5     		push	{r3, lr}
 830              	.LCFI14:
 831              		.cfi_def_cfa_offset 8
 832              		.cfi_offset 3, -8
 833              		.cfi_offset 14, -4
 301:Lib/lvgl/src/display/lv_display.c **** 
 834              		.loc 1 301 5 is_stmt 1 view .LVU188
 301:Lib/lvgl/src/display/lv_display.c **** 
 835              		.loc 1 301 7 is_stmt 0 view .LVU189
 836 0002 0246     		mov	r2, r0
 837 0004 60B1     		cbz	r0, .L79
 838              	.L71:
 839              	.LVL74:
 307:Lib/lvgl/src/display/lv_display.c ****             case LV_DISPLAY_ROTATION_90:
 840              		.loc 1 307 9 is_stmt 1 view .LVU190
 307:Lib/lvgl/src/display/lv_display.c ****             case LV_DISPLAY_ROTATION_90:
 841              		.loc 1 307 20 is_stmt 0 view .LVU191
 842 0006 92F8E832 		ldrb	r3, [r2, #744]	@ zero_extendqisi2
 843 000a C3F34103 		ubfx	r3, r3, #1, #2
 307:Lib/lvgl/src/display/lv_display.c ****             case LV_DISPLAY_ROTATION_90:
 844              		.loc 1 307 9 view .LVU192
 845 000e 012B     		cmp	r3, #1
 846 0010 0DD0     		beq	.L73
 847 0012 032B     		cmp	r3, #3
 848 0014 0BD0     		beq	.L73
 312:Lib/lvgl/src/display/lv_display.c ****         }
 849              		.loc 1 312 17 is_stmt 1 view .LVU193
 312:Lib/lvgl/src/display/lv_display.c ****         }
 850              		.loc 1 312 28 is_stmt 0 view .LVU194
 851 0016 9068     		ldr	r0, [r2, #8]
 312:Lib/lvgl/src/display/lv_display.c ****         }
 852              		.loc 1 312 76 view .LVU195
 853 0018 0028     		cmp	r0, #0
 854 001a 0BDC     		bgt	.L70
ARM GAS  C:\Users\Alex\AppData\Local\Temp\cc0G22cc.s 			page 37


 312:Lib/lvgl/src/display/lv_display.c ****         }
 855              		.loc 1 312 76 discriminator 2 view .LVU196
 856 001c 1068     		ldr	r0, [r2]
 857 001e 09E0     		b	.L70
 858              	.LVL75:
 859              	.L79:
 301:Lib/lvgl/src/display/lv_display.c **** 
 860              		.loc 1 301 22 is_stmt 1 discriminator 1 view .LVU197
 301:Lib/lvgl/src/display/lv_display.c **** 
 861              		.loc 1 301 29 is_stmt 0 discriminator 1 view .LVU198
 862 0020 FFF7FEFF 		bl	lv_display_get_default
 863              	.LVL76:
 303:Lib/lvgl/src/display/lv_display.c ****         return 0;
 864              		.loc 1 303 5 is_stmt 1 discriminator 1 view .LVU199
 303:Lib/lvgl/src/display/lv_display.c ****         return 0;
 865              		.loc 1 303 7 is_stmt 0 discriminator 1 view .LVU200
 866 0024 0246     		mov	r2, r0
 867 0026 0028     		cmp	r0, #0
 868 0028 EDD1     		bne	.L71
 304:Lib/lvgl/src/display/lv_display.c ****     }
 869              		.loc 1 304 16 view .LVU201
 870 002a 0020     		movs	r0, #0
 871              	.LVL77:
 304:Lib/lvgl/src/display/lv_display.c ****     }
 872              		.loc 1 304 16 view .LVU202
 873 002c 02E0     		b	.L70
 874              	.LVL78:
 875              	.L73:
 310:Lib/lvgl/src/display/lv_display.c ****             default:
 876              		.loc 1 310 17 is_stmt 1 view .LVU203
 310:Lib/lvgl/src/display/lv_display.c ****             default:
 877              		.loc 1 310 28 is_stmt 0 view .LVU204
 878 002e D068     		ldr	r0, [r2, #12]
 310:Lib/lvgl/src/display/lv_display.c ****             default:
 879              		.loc 1 310 76 view .LVU205
 880 0030 0028     		cmp	r0, #0
 881 0032 00DD     		ble	.L80
 882              	.L70:
 315:Lib/lvgl/src/display/lv_display.c **** 
 883              		.loc 1 315 1 view .LVU206
 884 0034 08BD     		pop	{r3, pc}
 885              	.L80:
 310:Lib/lvgl/src/display/lv_display.c ****             default:
 886              		.loc 1 310 76 discriminator 2 view .LVU207
 887 0036 5068     		ldr	r0, [r2, #4]
 888 0038 FCE7     		b	.L70
 889              		.cfi_endproc
 890              	.LFE245:
 892              		.section	.text.lv_display_get_physical_vertical_resolution,"ax",%progbits
 893              		.align	1
 894              		.global	lv_display_get_physical_vertical_resolution
 895              		.syntax unified
 896              		.thumb
 897              		.thumb_func
 899              	lv_display_get_physical_vertical_resolution:
 900              	.LVL79:
 901              	.LFB246:
ARM GAS  C:\Users\Alex\AppData\Local\Temp\cc0G22cc.s 			page 38


 318:Lib/lvgl/src/display/lv_display.c ****     if(disp == NULL) disp = lv_display_get_default();
 902              		.loc 1 318 1 is_stmt 1 view -0
 903              		.cfi_startproc
 904              		@ args = 0, pretend = 0, frame = 0
 905              		@ frame_needed = 0, uses_anonymous_args = 0
 318:Lib/lvgl/src/display/lv_display.c ****     if(disp == NULL) disp = lv_display_get_default();
 906              		.loc 1 318 1 is_stmt 0 view .LVU209
 907 0000 08B5     		push	{r3, lr}
 908              	.LCFI15:
 909              		.cfi_def_cfa_offset 8
 910              		.cfi_offset 3, -8
 911              		.cfi_offset 14, -4
 319:Lib/lvgl/src/display/lv_display.c **** 
 912              		.loc 1 319 5 is_stmt 1 view .LVU210
 319:Lib/lvgl/src/display/lv_display.c **** 
 913              		.loc 1 319 7 is_stmt 0 view .LVU211
 914 0002 0246     		mov	r2, r0
 915 0004 60B1     		cbz	r0, .L90
 916              	.L82:
 917              	.LVL80:
 325:Lib/lvgl/src/display/lv_display.c ****             case LV_DISPLAY_ROTATION_90:
 918              		.loc 1 325 9 is_stmt 1 view .LVU212
 325:Lib/lvgl/src/display/lv_display.c ****             case LV_DISPLAY_ROTATION_90:
 919              		.loc 1 325 20 is_stmt 0 view .LVU213
 920 0006 92F8E832 		ldrb	r3, [r2, #744]	@ zero_extendqisi2
 921 000a C3F34103 		ubfx	r3, r3, #1, #2
 325:Lib/lvgl/src/display/lv_display.c ****             case LV_DISPLAY_ROTATION_90:
 922              		.loc 1 325 9 view .LVU214
 923 000e 012B     		cmp	r3, #1
 924 0010 0DD0     		beq	.L84
 925 0012 032B     		cmp	r3, #3
 926 0014 0BD0     		beq	.L84
 330:Lib/lvgl/src/display/lv_display.c ****         }
 927              		.loc 1 330 17 is_stmt 1 view .LVU215
 330:Lib/lvgl/src/display/lv_display.c ****         }
 928              		.loc 1 330 28 is_stmt 0 view .LVU216
 929 0016 D068     		ldr	r0, [r2, #12]
 330:Lib/lvgl/src/display/lv_display.c ****         }
 930              		.loc 1 330 76 view .LVU217
 931 0018 0028     		cmp	r0, #0
 932 001a 0BDC     		bgt	.L81
 330:Lib/lvgl/src/display/lv_display.c ****         }
 933              		.loc 1 330 76 discriminator 2 view .LVU218
 934 001c 5068     		ldr	r0, [r2, #4]
 935 001e 09E0     		b	.L81
 936              	.LVL81:
 937              	.L90:
 319:Lib/lvgl/src/display/lv_display.c **** 
 938              		.loc 1 319 22 is_stmt 1 discriminator 1 view .LVU219
 319:Lib/lvgl/src/display/lv_display.c **** 
 939              		.loc 1 319 29 is_stmt 0 discriminator 1 view .LVU220
 940 0020 FFF7FEFF 		bl	lv_display_get_default
 941              	.LVL82:
 321:Lib/lvgl/src/display/lv_display.c ****         return 0;
 942              		.loc 1 321 5 is_stmt 1 discriminator 1 view .LVU221
 321:Lib/lvgl/src/display/lv_display.c ****         return 0;
 943              		.loc 1 321 7 is_stmt 0 discriminator 1 view .LVU222
ARM GAS  C:\Users\Alex\AppData\Local\Temp\cc0G22cc.s 			page 39


 944 0024 0246     		mov	r2, r0
 945 0026 0028     		cmp	r0, #0
 946 0028 EDD1     		bne	.L82
 322:Lib/lvgl/src/display/lv_display.c ****     }
 947              		.loc 1 322 16 view .LVU223
 948 002a 0020     		movs	r0, #0
 949              	.LVL83:
 322:Lib/lvgl/src/display/lv_display.c ****     }
 950              		.loc 1 322 16 view .LVU224
 951 002c 02E0     		b	.L81
 952              	.LVL84:
 953              	.L84:
 328:Lib/lvgl/src/display/lv_display.c ****             default:
 954              		.loc 1 328 17 is_stmt 1 view .LVU225
 328:Lib/lvgl/src/display/lv_display.c ****             default:
 955              		.loc 1 328 28 is_stmt 0 view .LVU226
 956 002e 9068     		ldr	r0, [r2, #8]
 328:Lib/lvgl/src/display/lv_display.c ****             default:
 957              		.loc 1 328 76 view .LVU227
 958 0030 0028     		cmp	r0, #0
 959 0032 00DD     		ble	.L91
 960              	.L81:
 333:Lib/lvgl/src/display/lv_display.c **** 
 961              		.loc 1 333 1 view .LVU228
 962 0034 08BD     		pop	{r3, pc}
 963              	.L91:
 328:Lib/lvgl/src/display/lv_display.c ****             default:
 964              		.loc 1 328 76 discriminator 2 view .LVU229
 965 0036 1068     		ldr	r0, [r2]
 966 0038 FCE7     		b	.L81
 967              		.cfi_endproc
 968              	.LFE246:
 970              		.section	.text.lv_display_get_offset_x,"ax",%progbits
 971              		.align	1
 972              		.global	lv_display_get_offset_x
 973              		.syntax unified
 974              		.thumb
 975              		.thumb_func
 977              	lv_display_get_offset_x:
 978              	.LVL85:
 979              	.LFB247:
 336:Lib/lvgl/src/display/lv_display.c ****     if(disp == NULL) disp = lv_display_get_default();
 980              		.loc 1 336 1 is_stmt 1 view -0
 981              		.cfi_startproc
 982              		@ args = 0, pretend = 0, frame = 0
 983              		@ frame_needed = 0, uses_anonymous_args = 0
 336:Lib/lvgl/src/display/lv_display.c ****     if(disp == NULL) disp = lv_display_get_default();
 984              		.loc 1 336 1 is_stmt 0 view .LVU231
 985 0000 10B5     		push	{r4, lr}
 986              	.LCFI16:
 987              		.cfi_def_cfa_offset 8
 988              		.cfi_offset 4, -8
 989              		.cfi_offset 14, -4
 337:Lib/lvgl/src/display/lv_display.c **** 
 990              		.loc 1 337 5 is_stmt 1 view .LVU232
 337:Lib/lvgl/src/display/lv_display.c **** 
 991              		.loc 1 337 7 is_stmt 0 view .LVU233
ARM GAS  C:\Users\Alex\AppData\Local\Temp\cc0G22cc.s 			page 40


 992 0002 0446     		mov	r4, r0
 993 0004 58B1     		cbz	r0, .L100
 994              	.L93:
 995              	.LVL86:
 343:Lib/lvgl/src/display/lv_display.c ****             case LV_DISPLAY_ROTATION_90:
 996              		.loc 1 343 9 is_stmt 1 view .LVU234
 343:Lib/lvgl/src/display/lv_display.c ****             case LV_DISPLAY_ROTATION_90:
 997              		.loc 1 343 20 is_stmt 0 view .LVU235
 998 0006 94F8E832 		ldrb	r3, [r4, #744]	@ zero_extendqisi2
 999 000a C3F34103 		ubfx	r3, r3, #1, #2
 343:Lib/lvgl/src/display/lv_display.c ****             case LV_DISPLAY_ROTATION_90:
 1000              		.loc 1 343 9 view .LVU236
 1001 000e 022B     		cmp	r3, #2
 1002 0010 0ED0     		beq	.L95
 1003 0012 032B     		cmp	r3, #3
 1004 0014 12D0     		beq	.L96
 1005 0016 012B     		cmp	r3, #1
 1006 0018 08D0     		beq	.L101
 351:Lib/lvgl/src/display/lv_display.c ****         }
 1007              		.loc 1 351 17 is_stmt 1 view .LVU237
 351:Lib/lvgl/src/display/lv_display.c ****         }
 1008              		.loc 1 351 28 is_stmt 0 view .LVU238
 1009 001a 2069     		ldr	r0, [r4, #16]
 1010 001c 07E0     		b	.L92
 1011              	.LVL87:
 1012              	.L100:
 337:Lib/lvgl/src/display/lv_display.c **** 
 1013              		.loc 1 337 22 is_stmt 1 discriminator 1 view .LVU239
 337:Lib/lvgl/src/display/lv_display.c **** 
 1014              		.loc 1 337 29 is_stmt 0 discriminator 1 view .LVU240
 1015 001e FFF7FEFF 		bl	lv_display_get_default
 1016              	.LVL88:
 339:Lib/lvgl/src/display/lv_display.c ****         return 0;
 1017              		.loc 1 339 5 is_stmt 1 discriminator 1 view .LVU241
 339:Lib/lvgl/src/display/lv_display.c ****         return 0;
 1018              		.loc 1 339 7 is_stmt 0 discriminator 1 view .LVU242
 1019 0022 0446     		mov	r4, r0
 1020 0024 0028     		cmp	r0, #0
 1021 0026 EED1     		bne	.L93
 340:Lib/lvgl/src/display/lv_display.c ****     }
 1022              		.loc 1 340 16 view .LVU243
 1023 0028 0020     		movs	r0, #0
 1024              	.LVL89:
 340:Lib/lvgl/src/display/lv_display.c ****     }
 1025              		.loc 1 340 16 view .LVU244
 1026 002a 00E0     		b	.L92
 1027              	.LVL90:
 1028              	.L101:
 345:Lib/lvgl/src/display/lv_display.c ****             case LV_DISPLAY_ROTATION_180:
 1029              		.loc 1 345 17 is_stmt 1 view .LVU245
 345:Lib/lvgl/src/display/lv_display.c ****             case LV_DISPLAY_ROTATION_180:
 1030              		.loc 1 345 28 is_stmt 0 view .LVU246
 1031 002c 6069     		ldr	r0, [r4, #20]
 1032              	.L92:
 354:Lib/lvgl/src/display/lv_display.c **** 
 1033              		.loc 1 354 1 view .LVU247
 1034 002e 10BD     		pop	{r4, pc}
ARM GAS  C:\Users\Alex\AppData\Local\Temp\cc0G22cc.s 			page 41


 1035              	.L95:
 347:Lib/lvgl/src/display/lv_display.c ****             case LV_DISPLAY_ROTATION_270:
 1036              		.loc 1 347 17 is_stmt 1 view .LVU248
 347:Lib/lvgl/src/display/lv_display.c ****             case LV_DISPLAY_ROTATION_270:
 1037              		.loc 1 347 24 is_stmt 0 view .LVU249
 1038 0030 2046     		mov	r0, r4
 1039 0032 FFF7FEFF 		bl	lv_display_get_physical_horizontal_resolution
 1040              	.LVL91:
 347:Lib/lvgl/src/display/lv_display.c ****             case LV_DISPLAY_ROTATION_270:
 1041              		.loc 1 347 82 view .LVU250
 1042 0036 2369     		ldr	r3, [r4, #16]
 347:Lib/lvgl/src/display/lv_display.c ****             case LV_DISPLAY_ROTATION_270:
 1043              		.loc 1 347 76 view .LVU251
 1044 0038 C01A     		subs	r0, r0, r3
 1045 003a F8E7     		b	.L92
 1046              	.L96:
 349:Lib/lvgl/src/display/lv_display.c ****             default:
 1047              		.loc 1 349 17 is_stmt 1 view .LVU252
 349:Lib/lvgl/src/display/lv_display.c ****             default:
 1048              		.loc 1 349 24 is_stmt 0 view .LVU253
 1049 003c 2046     		mov	r0, r4
 1050 003e FFF7FEFF 		bl	lv_display_get_physical_horizontal_resolution
 1051              	.LVL92:
 349:Lib/lvgl/src/display/lv_display.c ****             default:
 1052              		.loc 1 349 82 view .LVU254
 1053 0042 6369     		ldr	r3, [r4, #20]
 349:Lib/lvgl/src/display/lv_display.c ****             default:
 1054              		.loc 1 349 76 view .LVU255
 1055 0044 C01A     		subs	r0, r0, r3
 1056 0046 F2E7     		b	.L92
 1057              		.cfi_endproc
 1058              	.LFE247:
 1060              		.section	.text.lv_display_get_offset_y,"ax",%progbits
 1061              		.align	1
 1062              		.global	lv_display_get_offset_y
 1063              		.syntax unified
 1064              		.thumb
 1065              		.thumb_func
 1067              	lv_display_get_offset_y:
 1068              	.LVL93:
 1069              	.LFB248:
 357:Lib/lvgl/src/display/lv_display.c ****     if(disp == NULL) disp = lv_display_get_default();
 1070              		.loc 1 357 1 is_stmt 1 view -0
 1071              		.cfi_startproc
 1072              		@ args = 0, pretend = 0, frame = 0
 1073              		@ frame_needed = 0, uses_anonymous_args = 0
 357:Lib/lvgl/src/display/lv_display.c ****     if(disp == NULL) disp = lv_display_get_default();
 1074              		.loc 1 357 1 is_stmt 0 view .LVU257
 1075 0000 10B5     		push	{r4, lr}
 1076              	.LCFI17:
 1077              		.cfi_def_cfa_offset 8
 1078              		.cfi_offset 4, -8
 1079              		.cfi_offset 14, -4
 358:Lib/lvgl/src/display/lv_display.c **** 
 1080              		.loc 1 358 5 is_stmt 1 view .LVU258
 358:Lib/lvgl/src/display/lv_display.c **** 
 1081              		.loc 1 358 7 is_stmt 0 view .LVU259
ARM GAS  C:\Users\Alex\AppData\Local\Temp\cc0G22cc.s 			page 42


 1082 0002 0446     		mov	r4, r0
 1083 0004 58B1     		cbz	r0, .L110
 1084              	.L103:
 1085              	.LVL94:
 364:Lib/lvgl/src/display/lv_display.c ****             case LV_DISPLAY_ROTATION_90:
 1086              		.loc 1 364 9 is_stmt 1 view .LVU260
 364:Lib/lvgl/src/display/lv_display.c ****             case LV_DISPLAY_ROTATION_90:
 1087              		.loc 1 364 20 is_stmt 0 view .LVU261
 1088 0006 94F8E832 		ldrb	r3, [r4, #744]	@ zero_extendqisi2
 1089 000a C3F34103 		ubfx	r3, r3, #1, #2
 364:Lib/lvgl/src/display/lv_display.c ****             case LV_DISPLAY_ROTATION_90:
 1090              		.loc 1 364 9 view .LVU262
 1091 000e 022B     		cmp	r3, #2
 1092 0010 0ED0     		beq	.L105
 1093 0012 032B     		cmp	r3, #3
 1094 0014 12D0     		beq	.L106
 1095 0016 012B     		cmp	r3, #1
 1096 0018 08D0     		beq	.L111
 372:Lib/lvgl/src/display/lv_display.c ****         }
 1097              		.loc 1 372 17 is_stmt 1 view .LVU263
 372:Lib/lvgl/src/display/lv_display.c ****         }
 1098              		.loc 1 372 28 is_stmt 0 view .LVU264
 1099 001a 6069     		ldr	r0, [r4, #20]
 1100 001c 07E0     		b	.L102
 1101              	.LVL95:
 1102              	.L110:
 358:Lib/lvgl/src/display/lv_display.c **** 
 1103              		.loc 1 358 22 is_stmt 1 discriminator 1 view .LVU265
 358:Lib/lvgl/src/display/lv_display.c **** 
 1104              		.loc 1 358 29 is_stmt 0 discriminator 1 view .LVU266
 1105 001e FFF7FEFF 		bl	lv_display_get_default
 1106              	.LVL96:
 360:Lib/lvgl/src/display/lv_display.c ****         return 0;
 1107              		.loc 1 360 5 is_stmt 1 discriminator 1 view .LVU267
 360:Lib/lvgl/src/display/lv_display.c ****         return 0;
 1108              		.loc 1 360 7 is_stmt 0 discriminator 1 view .LVU268
 1109 0022 0446     		mov	r4, r0
 1110 0024 0028     		cmp	r0, #0
 1111 0026 EED1     		bne	.L103
 361:Lib/lvgl/src/display/lv_display.c ****     }
 1112              		.loc 1 361 16 view .LVU269
 1113 0028 0020     		movs	r0, #0
 1114              	.LVL97:
 361:Lib/lvgl/src/display/lv_display.c ****     }
 1115              		.loc 1 361 16 view .LVU270
 1116 002a 00E0     		b	.L102
 1117              	.LVL98:
 1118              	.L111:
 366:Lib/lvgl/src/display/lv_display.c ****             case LV_DISPLAY_ROTATION_180:
 1119              		.loc 1 366 17 is_stmt 1 view .LVU271
 366:Lib/lvgl/src/display/lv_display.c ****             case LV_DISPLAY_ROTATION_180:
 1120              		.loc 1 366 28 is_stmt 0 view .LVU272
 1121 002c 2069     		ldr	r0, [r4, #16]
 1122              	.L102:
 375:Lib/lvgl/src/display/lv_display.c **** 
 1123              		.loc 1 375 1 view .LVU273
 1124 002e 10BD     		pop	{r4, pc}
ARM GAS  C:\Users\Alex\AppData\Local\Temp\cc0G22cc.s 			page 43


 1125              	.L105:
 368:Lib/lvgl/src/display/lv_display.c ****             case LV_DISPLAY_ROTATION_270:
 1126              		.loc 1 368 17 is_stmt 1 view .LVU274
 368:Lib/lvgl/src/display/lv_display.c ****             case LV_DISPLAY_ROTATION_270:
 1127              		.loc 1 368 24 is_stmt 0 view .LVU275
 1128 0030 2046     		mov	r0, r4
 1129 0032 FFF7FEFF 		bl	lv_display_get_physical_vertical_resolution
 1130              	.LVL99:
 368:Lib/lvgl/src/display/lv_display.c ****             case LV_DISPLAY_ROTATION_270:
 1131              		.loc 1 368 80 view .LVU276
 1132 0036 6369     		ldr	r3, [r4, #20]
 368:Lib/lvgl/src/display/lv_display.c ****             case LV_DISPLAY_ROTATION_270:
 1133              		.loc 1 368 74 view .LVU277
 1134 0038 C01A     		subs	r0, r0, r3
 1135 003a F8E7     		b	.L102
 1136              	.L106:
 370:Lib/lvgl/src/display/lv_display.c ****             default:
 1137              		.loc 1 370 17 is_stmt 1 view .LVU278
 370:Lib/lvgl/src/display/lv_display.c ****             default:
 1138              		.loc 1 370 24 is_stmt 0 view .LVU279
 1139 003c 2046     		mov	r0, r4
 1140 003e FFF7FEFF 		bl	lv_display_get_physical_vertical_resolution
 1141              	.LVL100:
 370:Lib/lvgl/src/display/lv_display.c ****             default:
 1142              		.loc 1 370 80 view .LVU280
 1143 0042 2369     		ldr	r3, [r4, #16]
 370:Lib/lvgl/src/display/lv_display.c ****             default:
 1144              		.loc 1 370 74 view .LVU281
 1145 0044 C01A     		subs	r0, r0, r3
 1146 0046 F2E7     		b	.L102
 1147              		.cfi_endproc
 1148              	.LFE248:
 1150              		.section	.text.lv_display_get_dpi,"ax",%progbits
 1151              		.align	1
 1152              		.global	lv_display_get_dpi
 1153              		.syntax unified
 1154              		.thumb
 1155              		.thumb_func
 1157              	lv_display_get_dpi:
 1158              	.LVL101:
 1159              	.LFB249:
 378:Lib/lvgl/src/display/lv_display.c ****     if(disp == NULL) disp = lv_display_get_default();
 1160              		.loc 1 378 1 is_stmt 1 view -0
 1161              		.cfi_startproc
 1162              		@ args = 0, pretend = 0, frame = 0
 1163              		@ frame_needed = 0, uses_anonymous_args = 0
 378:Lib/lvgl/src/display/lv_display.c ****     if(disp == NULL) disp = lv_display_get_default();
 1164              		.loc 1 378 1 is_stmt 0 view .LVU283
 1165 0000 08B5     		push	{r3, lr}
 1166              	.LCFI18:
 1167              		.cfi_def_cfa_offset 8
 1168              		.cfi_offset 3, -8
 1169              		.cfi_offset 14, -4
 379:Lib/lvgl/src/display/lv_display.c ****     if(disp == NULL) return LV_DPI_DEF;  /*Do not return 0 because it might be a divider*/
 1170              		.loc 1 379 5 is_stmt 1 view .LVU284
 379:Lib/lvgl/src/display/lv_display.c ****     if(disp == NULL) return LV_DPI_DEF;  /*Do not return 0 because it might be a divider*/
 1171              		.loc 1 379 7 is_stmt 0 view .LVU285
ARM GAS  C:\Users\Alex\AppData\Local\Temp\cc0G22cc.s 			page 44


 1172 0002 0346     		mov	r3, r0
 1173 0004 08B1     		cbz	r0, .L117
 1174              	.L113:
 1175              	.LVL102:
 381:Lib/lvgl/src/display/lv_display.c **** }
 1176              		.loc 1 381 5 is_stmt 1 view .LVU286
 381:Lib/lvgl/src/display/lv_display.c **** }
 1177              		.loc 1 381 16 is_stmt 0 view .LVU287
 1178 0006 9869     		ldr	r0, [r3, #24]
 1179              	.L112:
 382:Lib/lvgl/src/display/lv_display.c **** 
 1180              		.loc 1 382 1 view .LVU288
 1181 0008 08BD     		pop	{r3, pc}
 1182              	.LVL103:
 1183              	.L117:
 379:Lib/lvgl/src/display/lv_display.c ****     if(disp == NULL) return LV_DPI_DEF;  /*Do not return 0 because it might be a divider*/
 1184              		.loc 1 379 22 is_stmt 1 discriminator 1 view .LVU289
 379:Lib/lvgl/src/display/lv_display.c ****     if(disp == NULL) return LV_DPI_DEF;  /*Do not return 0 because it might be a divider*/
 1185              		.loc 1 379 29 is_stmt 0 discriminator 1 view .LVU290
 1186 000a FFF7FEFF 		bl	lv_display_get_default
 1187              	.LVL104:
 380:Lib/lvgl/src/display/lv_display.c ****     return disp->dpi;
 1188              		.loc 1 380 5 is_stmt 1 discriminator 1 view .LVU291
 380:Lib/lvgl/src/display/lv_display.c ****     return disp->dpi;
 1189              		.loc 1 380 7 is_stmt 0 discriminator 1 view .LVU292
 1190 000e 0346     		mov	r3, r0
 1191 0010 0028     		cmp	r0, #0
 1192 0012 F8D1     		bne	.L113
 380:Lib/lvgl/src/display/lv_display.c ****     return disp->dpi;
 1193              		.loc 1 380 29 view .LVU293
 1194 0014 8220     		movs	r0, #130
 1195              	.LVL105:
 380:Lib/lvgl/src/display/lv_display.c ****     return disp->dpi;
 1196              		.loc 1 380 29 view .LVU294
 1197 0016 F7E7     		b	.L112
 1198              		.cfi_endproc
 1199              	.LFE249:
 1201              		.section	.text.lv_display_set_draw_buffers,"ax",%progbits
 1202              		.align	1
 1203              		.global	lv_display_set_draw_buffers
 1204              		.syntax unified
 1205              		.thumb
 1206              		.thumb_func
 1208              	lv_display_set_draw_buffers:
 1209              	.LVL106:
 1210              	.LFB250:
 389:Lib/lvgl/src/display/lv_display.c ****     if(disp == NULL) disp = lv_display_get_default();
 1211              		.loc 1 389 1 is_stmt 1 view -0
 1212              		.cfi_startproc
 1213              		@ args = 0, pretend = 0, frame = 0
 1214              		@ frame_needed = 0, uses_anonymous_args = 0
 389:Lib/lvgl/src/display/lv_display.c ****     if(disp == NULL) disp = lv_display_get_default();
 1215              		.loc 1 389 1 is_stmt 0 view .LVU296
 1216 0000 38B5     		push	{r3, r4, r5, lr}
 1217              	.LCFI19:
 1218              		.cfi_def_cfa_offset 16
 1219              		.cfi_offset 3, -16
ARM GAS  C:\Users\Alex\AppData\Local\Temp\cc0G22cc.s 			page 45


 1220              		.cfi_offset 4, -12
 1221              		.cfi_offset 5, -8
 1222              		.cfi_offset 14, -4
 1223 0002 0C46     		mov	r4, r1
 1224 0004 1546     		mov	r5, r2
 390:Lib/lvgl/src/display/lv_display.c ****     if(disp == NULL) return;
 1225              		.loc 1 390 5 is_stmt 1 view .LVU297
 390:Lib/lvgl/src/display/lv_display.c ****     if(disp == NULL) return;
 1226              		.loc 1 390 7 is_stmt 0 view .LVU298
 1227 0006 0346     		mov	r3, r0
 1228 0008 18B1     		cbz	r0, .L122
 1229              	.LVL107:
 1230              	.L119:
 393:Lib/lvgl/src/display/lv_display.c ****     disp->buf_2 = buf2;
 1231              		.loc 1 393 5 is_stmt 1 view .LVU299
 393:Lib/lvgl/src/display/lv_display.c ****     disp->buf_2 = buf2;
 1232              		.loc 1 393 17 is_stmt 0 view .LVU300
 1233 000a DC61     		str	r4, [r3, #28]
 394:Lib/lvgl/src/display/lv_display.c ****     disp->buf_act = disp->buf_1;
 1234              		.loc 1 394 5 is_stmt 1 view .LVU301
 394:Lib/lvgl/src/display/lv_display.c ****     disp->buf_act = disp->buf_1;
 1235              		.loc 1 394 17 is_stmt 0 view .LVU302
 1236 000c 1D62     		str	r5, [r3, #32]
 395:Lib/lvgl/src/display/lv_display.c **** }
 1237              		.loc 1 395 5 is_stmt 1 view .LVU303
 395:Lib/lvgl/src/display/lv_display.c **** }
 1238              		.loc 1 395 19 is_stmt 0 view .LVU304
 1239 000e 5C62     		str	r4, [r3, #36]
 1240              	.L118:
 396:Lib/lvgl/src/display/lv_display.c **** 
 1241              		.loc 1 396 1 view .LVU305
 1242 0010 38BD     		pop	{r3, r4, r5, pc}
 1243              	.LVL108:
 1244              	.L122:
 390:Lib/lvgl/src/display/lv_display.c ****     if(disp == NULL) return;
 1245              		.loc 1 390 22 is_stmt 1 discriminator 1 view .LVU306
 390:Lib/lvgl/src/display/lv_display.c ****     if(disp == NULL) return;
 1246              		.loc 1 390 29 is_stmt 0 discriminator 1 view .LVU307
 1247 0012 FFF7FEFF 		bl	lv_display_get_default
 1248              	.LVL109:
 391:Lib/lvgl/src/display/lv_display.c **** 
 1249              		.loc 1 391 5 is_stmt 1 discriminator 1 view .LVU308
 391:Lib/lvgl/src/display/lv_display.c **** 
 1250              		.loc 1 391 7 is_stmt 0 discriminator 1 view .LVU309
 1251 0016 0346     		mov	r3, r0
 1252 0018 0028     		cmp	r0, #0
 1253 001a F6D1     		bne	.L119
 1254 001c F8E7     		b	.L118
 1255              		.cfi_endproc
 1256              	.LFE250:
 1258              		.section	.text.lv_display_set_render_mode,"ax",%progbits
 1259              		.align	1
 1260              		.global	lv_display_set_render_mode
 1261              		.syntax unified
 1262              		.thumb
 1263              		.thumb_func
 1265              	lv_display_set_render_mode:
ARM GAS  C:\Users\Alex\AppData\Local\Temp\cc0G22cc.s 			page 46


 1266              	.LVL110:
 1267              	.LFB252:
 430:Lib/lvgl/src/display/lv_display.c ****     if(disp == NULL) disp = lv_display_get_default();
 1268              		.loc 1 430 1 is_stmt 1 view -0
 1269              		.cfi_startproc
 1270              		@ args = 0, pretend = 0, frame = 0
 1271              		@ frame_needed = 0, uses_anonymous_args = 0
 430:Lib/lvgl/src/display/lv_display.c ****     if(disp == NULL) disp = lv_display_get_default();
 1272              		.loc 1 430 1 is_stmt 0 view .LVU311
 1273 0000 10B5     		push	{r4, lr}
 1274              	.LCFI20:
 1275              		.cfi_def_cfa_offset 8
 1276              		.cfi_offset 4, -8
 1277              		.cfi_offset 14, -4
 1278 0002 0C46     		mov	r4, r1
 431:Lib/lvgl/src/display/lv_display.c ****     if(disp == NULL) return;
 1279              		.loc 1 431 5 is_stmt 1 view .LVU312
 431:Lib/lvgl/src/display/lv_display.c ****     if(disp == NULL) return;
 1280              		.loc 1 431 7 is_stmt 0 view .LVU313
 1281 0004 0346     		mov	r3, r0
 1282 0006 10B1     		cbz	r0, .L127
 1283              	.LVL111:
 1284              	.L124:
 433:Lib/lvgl/src/display/lv_display.c **** }
 1285              		.loc 1 433 5 is_stmt 1 view .LVU314
 433:Lib/lvgl/src/display/lv_display.c **** }
 1286              		.loc 1 433 23 is_stmt 0 view .LVU315
 1287 0008 83F83940 		strb	r4, [r3, #57]
 1288              	.L123:
 434:Lib/lvgl/src/display/lv_display.c **** 
 1289              		.loc 1 434 1 view .LVU316
 1290 000c 10BD     		pop	{r4, pc}
 1291              	.LVL112:
 1292              	.L127:
 431:Lib/lvgl/src/display/lv_display.c ****     if(disp == NULL) return;
 1293              		.loc 1 431 22 is_stmt 1 discriminator 1 view .LVU317
 431:Lib/lvgl/src/display/lv_display.c ****     if(disp == NULL) return;
 1294              		.loc 1 431 29 is_stmt 0 discriminator 1 view .LVU318
 1295 000e FFF7FEFF 		bl	lv_display_get_default
 1296              	.LVL113:
 432:Lib/lvgl/src/display/lv_display.c ****     disp->render_mode = render_mode;
 1297              		.loc 1 432 5 is_stmt 1 discriminator 1 view .LVU319
 432:Lib/lvgl/src/display/lv_display.c ****     disp->render_mode = render_mode;
 1298              		.loc 1 432 7 is_stmt 0 discriminator 1 view .LVU320
 1299 0012 0346     		mov	r3, r0
 1300 0014 0028     		cmp	r0, #0
 1301 0016 F7D1     		bne	.L124
 1302 0018 F8E7     		b	.L123
 1303              		.cfi_endproc
 1304              	.LFE252:
 1306              		.section	.text.lv_display_set_flush_cb,"ax",%progbits
 1307              		.align	1
 1308              		.global	lv_display_set_flush_cb
 1309              		.syntax unified
 1310              		.thumb
 1311              		.thumb_func
 1313              	lv_display_set_flush_cb:
ARM GAS  C:\Users\Alex\AppData\Local\Temp\cc0G22cc.s 			page 47


 1314              	.LVL114:
 1315              	.LFB253:
 437:Lib/lvgl/src/display/lv_display.c ****     if(disp == NULL) disp = lv_display_get_default();
 1316              		.loc 1 437 1 is_stmt 1 view -0
 1317              		.cfi_startproc
 1318              		@ args = 0, pretend = 0, frame = 0
 1319              		@ frame_needed = 0, uses_anonymous_args = 0
 437:Lib/lvgl/src/display/lv_display.c ****     if(disp == NULL) disp = lv_display_get_default();
 1320              		.loc 1 437 1 is_stmt 0 view .LVU322
 1321 0000 10B5     		push	{r4, lr}
 1322              	.LCFI21:
 1323              		.cfi_def_cfa_offset 8
 1324              		.cfi_offset 4, -8
 1325              		.cfi_offset 14, -4
 1326 0002 0C46     		mov	r4, r1
 438:Lib/lvgl/src/display/lv_display.c ****     if(disp == NULL) return;
 1327              		.loc 1 438 5 is_stmt 1 view .LVU323
 438:Lib/lvgl/src/display/lv_display.c ****     if(disp == NULL) return;
 1328              		.loc 1 438 7 is_stmt 0 view .LVU324
 1329 0004 0346     		mov	r3, r0
 1330 0006 08B1     		cbz	r0, .L132
 1331              	.LVL115:
 1332              	.L129:
 441:Lib/lvgl/src/display/lv_display.c **** }
 1333              		.loc 1 441 5 is_stmt 1 view .LVU325
 441:Lib/lvgl/src/display/lv_display.c **** }
 1334              		.loc 1 441 20 is_stmt 0 view .LVU326
 1335 0008 9C62     		str	r4, [r3, #40]
 1336              	.L128:
 442:Lib/lvgl/src/display/lv_display.c **** 
 1337              		.loc 1 442 1 view .LVU327
 1338 000a 10BD     		pop	{r4, pc}
 1339              	.LVL116:
 1340              	.L132:
 438:Lib/lvgl/src/display/lv_display.c ****     if(disp == NULL) return;
 1341              		.loc 1 438 22 is_stmt 1 discriminator 1 view .LVU328
 438:Lib/lvgl/src/display/lv_display.c ****     if(disp == NULL) return;
 1342              		.loc 1 438 29 is_stmt 0 discriminator 1 view .LVU329
 1343 000c FFF7FEFF 		bl	lv_display_get_default
 1344              	.LVL117:
 439:Lib/lvgl/src/display/lv_display.c **** 
 1345              		.loc 1 439 5 is_stmt 1 discriminator 1 view .LVU330
 439:Lib/lvgl/src/display/lv_display.c **** 
 1346              		.loc 1 439 7 is_stmt 0 discriminator 1 view .LVU331
 1347 0010 0346     		mov	r3, r0
 1348 0012 0028     		cmp	r0, #0
 1349 0014 F8D1     		bne	.L129
 1350 0016 F8E7     		b	.L128
 1351              		.cfi_endproc
 1352              	.LFE253:
 1354              		.section	.text.lv_display_set_flush_wait_cb,"ax",%progbits
 1355              		.align	1
 1356              		.global	lv_display_set_flush_wait_cb
 1357              		.syntax unified
 1358              		.thumb
 1359              		.thumb_func
 1361              	lv_display_set_flush_wait_cb:
ARM GAS  C:\Users\Alex\AppData\Local\Temp\cc0G22cc.s 			page 48


 1362              	.LVL118:
 1363              	.LFB254:
 445:Lib/lvgl/src/display/lv_display.c ****     if(disp == NULL) disp = lv_display_get_default();
 1364              		.loc 1 445 1 is_stmt 1 view -0
 1365              		.cfi_startproc
 1366              		@ args = 0, pretend = 0, frame = 0
 1367              		@ frame_needed = 0, uses_anonymous_args = 0
 445:Lib/lvgl/src/display/lv_display.c ****     if(disp == NULL) disp = lv_display_get_default();
 1368              		.loc 1 445 1 is_stmt 0 view .LVU333
 1369 0000 10B5     		push	{r4, lr}
 1370              	.LCFI22:
 1371              		.cfi_def_cfa_offset 8
 1372              		.cfi_offset 4, -8
 1373              		.cfi_offset 14, -4
 1374 0002 0C46     		mov	r4, r1
 446:Lib/lvgl/src/display/lv_display.c ****     if(disp == NULL) return;
 1375              		.loc 1 446 5 is_stmt 1 view .LVU334
 446:Lib/lvgl/src/display/lv_display.c ****     if(disp == NULL) return;
 1376              		.loc 1 446 7 is_stmt 0 view .LVU335
 1377 0004 0346     		mov	r3, r0
 1378 0006 08B1     		cbz	r0, .L137
 1379              	.LVL119:
 1380              	.L134:
 449:Lib/lvgl/src/display/lv_display.c **** }
 1381              		.loc 1 449 5 is_stmt 1 view .LVU336
 449:Lib/lvgl/src/display/lv_display.c **** }
 1382              		.loc 1 449 25 is_stmt 0 view .LVU337
 1383 0008 DC62     		str	r4, [r3, #44]
 1384              	.L133:
 450:Lib/lvgl/src/display/lv_display.c **** 
 1385              		.loc 1 450 1 view .LVU338
 1386 000a 10BD     		pop	{r4, pc}
 1387              	.LVL120:
 1388              	.L137:
 446:Lib/lvgl/src/display/lv_display.c ****     if(disp == NULL) return;
 1389              		.loc 1 446 22 is_stmt 1 discriminator 1 view .LVU339
 446:Lib/lvgl/src/display/lv_display.c ****     if(disp == NULL) return;
 1390              		.loc 1 446 29 is_stmt 0 discriminator 1 view .LVU340
 1391 000c FFF7FEFF 		bl	lv_display_get_default
 1392              	.LVL121:
 447:Lib/lvgl/src/display/lv_display.c **** 
 1393              		.loc 1 447 5 is_stmt 1 discriminator 1 view .LVU341
 447:Lib/lvgl/src/display/lv_display.c **** 
 1394              		.loc 1 447 7 is_stmt 0 discriminator 1 view .LVU342
 1395 0010 0346     		mov	r3, r0
 1396 0012 0028     		cmp	r0, #0
 1397 0014 F8D1     		bne	.L134
 1398 0016 F8E7     		b	.L133
 1399              		.cfi_endproc
 1400              	.LFE254:
 1402              		.section	.text.lv_display_get_color_format,"ax",%progbits
 1403              		.align	1
 1404              		.global	lv_display_get_color_format
 1405              		.syntax unified
 1406              		.thumb
 1407              		.thumb_func
 1409              	lv_display_get_color_format:
ARM GAS  C:\Users\Alex\AppData\Local\Temp\cc0G22cc.s 			page 49


 1410              	.LVL122:
 1411              	.LFB256:
 464:Lib/lvgl/src/display/lv_display.c ****     if(disp == NULL) disp = lv_display_get_default();
 1412              		.loc 1 464 1 is_stmt 1 view -0
 1413              		.cfi_startproc
 1414              		@ args = 0, pretend = 0, frame = 0
 1415              		@ frame_needed = 0, uses_anonymous_args = 0
 464:Lib/lvgl/src/display/lv_display.c ****     if(disp == NULL) disp = lv_display_get_default();
 1416              		.loc 1 464 1 is_stmt 0 view .LVU344
 1417 0000 08B5     		push	{r3, lr}
 1418              	.LCFI23:
 1419              		.cfi_def_cfa_offset 8
 1420              		.cfi_offset 3, -8
 1421              		.cfi_offset 14, -4
 465:Lib/lvgl/src/display/lv_display.c ****     if(disp == NULL) return LV_COLOR_FORMAT_UNKNOWN;
 1422              		.loc 1 465 5 is_stmt 1 view .LVU345
 465:Lib/lvgl/src/display/lv_display.c ****     if(disp == NULL) return LV_COLOR_FORMAT_UNKNOWN;
 1423              		.loc 1 465 7 is_stmt 0 view .LVU346
 1424 0002 0346     		mov	r3, r0
 1425 0004 10B1     		cbz	r0, .L143
 1426              	.L139:
 1427              	.LVL123:
 468:Lib/lvgl/src/display/lv_display.c **** }
 1428              		.loc 1 468 5 is_stmt 1 view .LVU347
 468:Lib/lvgl/src/display/lv_display.c **** }
 1429              		.loc 1 468 16 is_stmt 0 view .LVU348
 1430 0006 93F83B00 		ldrb	r0, [r3, #59]	@ zero_extendqisi2
 1431              	.L140:
 469:Lib/lvgl/src/display/lv_display.c **** 
 1432              		.loc 1 469 1 view .LVU349
 1433 000a 08BD     		pop	{r3, pc}
 1434              	.LVL124:
 1435              	.L143:
 465:Lib/lvgl/src/display/lv_display.c ****     if(disp == NULL) return LV_COLOR_FORMAT_UNKNOWN;
 1436              		.loc 1 465 22 is_stmt 1 discriminator 1 view .LVU350
 465:Lib/lvgl/src/display/lv_display.c ****     if(disp == NULL) return LV_COLOR_FORMAT_UNKNOWN;
 1437              		.loc 1 465 29 is_stmt 0 discriminator 1 view .LVU351
 1438 000c FFF7FEFF 		bl	lv_display_get_default
 1439              	.LVL125:
 466:Lib/lvgl/src/display/lv_display.c **** 
 1440              		.loc 1 466 5 is_stmt 1 discriminator 1 view .LVU352
 466:Lib/lvgl/src/display/lv_display.c **** 
 1441              		.loc 1 466 7 is_stmt 0 discriminator 1 view .LVU353
 1442 0010 0346     		mov	r3, r0
 1443 0012 0028     		cmp	r0, #0
 1444 0014 F7D1     		bne	.L139
 466:Lib/lvgl/src/display/lv_display.c **** 
 1445              		.loc 1 466 29 view .LVU354
 1446 0016 0020     		movs	r0, #0
 1447              	.LVL126:
 466:Lib/lvgl/src/display/lv_display.c **** 
 1448              		.loc 1 466 29 view .LVU355
 1449 0018 F7E7     		b	.L140
 1450              		.cfi_endproc
 1451              	.LFE256:
 1453              		.section	.text.lv_display_set_buffers,"ax",%progbits
 1454              		.align	1
ARM GAS  C:\Users\Alex\AppData\Local\Temp\cc0G22cc.s 			page 50


 1455              		.global	lv_display_set_buffers
 1456              		.syntax unified
 1457              		.thumb
 1458              		.thumb_func
 1460              	lv_display_set_buffers:
 1461              	.LVL127:
 1462              	.LFB251:
 400:Lib/lvgl/src/display/lv_display.c ****     uint32_t w = lv_display_get_horizontal_resolution(disp);
 1463              		.loc 1 400 1 is_stmt 1 view -0
 1464              		.cfi_startproc
 1465              		@ args = 4, pretend = 0, frame = 8
 1466              		@ frame_needed = 0, uses_anonymous_args = 0
 400:Lib/lvgl/src/display/lv_display.c ****     uint32_t w = lv_display_get_horizontal_resolution(disp);
 1467              		.loc 1 400 1 is_stmt 0 view .LVU357
 1468 0000 2DE9F04F 		push	{r4, r5, r6, r7, r8, r9, r10, fp, lr}
 1469              	.LCFI24:
 1470              		.cfi_def_cfa_offset 36
 1471              		.cfi_offset 4, -36
 1472              		.cfi_offset 5, -32
 1473              		.cfi_offset 6, -28
 1474              		.cfi_offset 7, -24
 1475              		.cfi_offset 8, -20
 1476              		.cfi_offset 9, -16
 1477              		.cfi_offset 10, -12
 1478              		.cfi_offset 11, -8
 1479              		.cfi_offset 14, -4
 1480 0004 87B0     		sub	sp, sp, #28
 1481              	.LCFI25:
 1482              		.cfi_def_cfa_offset 64
 1483 0006 0446     		mov	r4, r0
 1484 0008 8846     		mov	r8, r1
 1485 000a 0492     		str	r2, [sp, #16]
 1486 000c 1F46     		mov	r7, r3
 1487 000e 9DF84090 		ldrb	r9, [sp, #64]	@ zero_extendqisi2
 401:Lib/lvgl/src/display/lv_display.c ****     uint32_t h = lv_display_get_vertical_resolution(disp);
 1488              		.loc 1 401 5 is_stmt 1 view .LVU358
 401:Lib/lvgl/src/display/lv_display.c ****     uint32_t h = lv_display_get_vertical_resolution(disp);
 1489              		.loc 1 401 18 is_stmt 0 view .LVU359
 1490 0012 FFF7FEFF 		bl	lv_display_get_horizontal_resolution
 1491              	.LVL128:
 401:Lib/lvgl/src/display/lv_display.c ****     uint32_t h = lv_display_get_vertical_resolution(disp);
 1492              		.loc 1 401 18 view .LVU360
 1493 0016 0546     		mov	r5, r0
 1494              	.LVL129:
 402:Lib/lvgl/src/display/lv_display.c ****     LV_ASSERT(w != 0 && h != 0);
 1495              		.loc 1 402 5 is_stmt 1 view .LVU361
 402:Lib/lvgl/src/display/lv_display.c ****     LV_ASSERT(w != 0 && h != 0);
 1496              		.loc 1 402 18 is_stmt 0 view .LVU362
 1497 0018 2046     		mov	r0, r4
 1498              	.LVL130:
 402:Lib/lvgl/src/display/lv_display.c ****     LV_ASSERT(w != 0 && h != 0);
 1499              		.loc 1 402 18 view .LVU363
 1500 001a FFF7FEFF 		bl	lv_display_get_vertical_resolution
 1501              	.LVL131:
 403:Lib/lvgl/src/display/lv_display.c **** 
 1502              		.loc 1 403 5 is_stmt 1 view .LVU364
 403:Lib/lvgl/src/display/lv_display.c **** 
ARM GAS  C:\Users\Alex\AppData\Local\Temp\cc0G22cc.s 			page 51


 1503              		.loc 1 403 5 view .LVU365
 1504 001e 0DB1     		cbz	r5, .L145
 1505 0020 0646     		mov	r6, r0
 403:Lib/lvgl/src/display/lv_display.c **** 
 1506              		.loc 1 403 5 is_stmt 0 discriminator 2 view .LVU366
 1507 0022 00B9     		cbnz	r0, .L146
 1508              	.L145:
 403:Lib/lvgl/src/display/lv_display.c **** 
 1509              		.loc 1 403 5 is_stmt 1 discriminator 1 view .LVU367
 403:Lib/lvgl/src/display/lv_display.c **** 
 1510              		.loc 1 403 5 discriminator 1 view .LVU368
 403:Lib/lvgl/src/display/lv_display.c **** 
 1511              		.loc 1 403 5 discriminator 1 view .LVU369
 403:Lib/lvgl/src/display/lv_display.c **** 
 1512              		.loc 1 403 5 discriminator 1 view .LVU370
 403:Lib/lvgl/src/display/lv_display.c **** 
 1513              		.loc 1 403 5 discriminator 1 view .LVU371
 1514 0024 FEE7     		b	.L145
 1515              	.L146:
 403:Lib/lvgl/src/display/lv_display.c **** 
 1516              		.loc 1 403 5 discriminator 4 view .LVU372
 405:Lib/lvgl/src/display/lv_display.c ****     uint32_t stride = lv_draw_buf_width_to_stride(w, cf);
 1517              		.loc 1 405 5 discriminator 4 view .LVU373
 405:Lib/lvgl/src/display/lv_display.c ****     uint32_t stride = lv_draw_buf_width_to_stride(w, cf);
 1518              		.loc 1 405 28 is_stmt 0 discriminator 4 view .LVU374
 1519 0026 2046     		mov	r0, r4
 1520              	.LVL132:
 405:Lib/lvgl/src/display/lv_display.c ****     uint32_t stride = lv_draw_buf_width_to_stride(w, cf);
 1521              		.loc 1 405 28 discriminator 4 view .LVU375
 1522 0028 FFF7FEFF 		bl	lv_display_get_color_format
 1523              	.LVL133:
 1524 002c 8246     		mov	r10, r0
 1525              	.LVL134:
 406:Lib/lvgl/src/display/lv_display.c ****     if(render_mode == LV_DISPLAY_RENDER_MODE_PARTIAL) {
 1526              		.loc 1 406 5 is_stmt 1 discriminator 4 view .LVU376
 406:Lib/lvgl/src/display/lv_display.c ****     if(render_mode == LV_DISPLAY_RENDER_MODE_PARTIAL) {
 1527              		.loc 1 406 23 is_stmt 0 discriminator 4 view .LVU377
 1528 002e 0146     		mov	r1, r0
 1529 0030 2846     		mov	r0, r5
 1530              	.LVL135:
 406:Lib/lvgl/src/display/lv_display.c ****     if(render_mode == LV_DISPLAY_RENDER_MODE_PARTIAL) {
 1531              		.loc 1 406 23 discriminator 4 view .LVU378
 1532 0032 FFF7FEFF 		bl	lv_draw_buf_width_to_stride
 1533              	.LVL136:
 1534 0036 8346     		mov	fp, r0
 1535              	.LVL137:
 407:Lib/lvgl/src/display/lv_display.c ****         /* for partial mode, we calculate the height based on the buf_size and stride */
 1536              		.loc 1 407 5 is_stmt 1 discriminator 4 view .LVU379
 407:Lib/lvgl/src/display/lv_display.c ****         /* for partial mode, we calculate the height based on the buf_size and stride */
 1537              		.loc 1 407 7 is_stmt 0 discriminator 4 view .LVU380
 1538 0038 B9F1000F 		cmp	r9, #0
 1539 003c 03D1     		bne	.L147
 409:Lib/lvgl/src/display/lv_display.c ****     }
 1540              		.loc 1 409 9 is_stmt 1 view .LVU381
 409:Lib/lvgl/src/display/lv_display.c ****     }
 1541              		.loc 1 409 11 is_stmt 0 view .LVU382
 1542 003e B7FBF0F6 		udiv	r6, r7, r0
ARM GAS  C:\Users\Alex\AppData\Local\Temp\cc0G22cc.s 			page 52


 1543              	.LVL138:
 1544              	.L148:
 418:Lib/lvgl/src/display/lv_display.c ****         LV_ASSERT_MSG(h != 0, "the buffer is too small");
 1545              		.loc 1 418 5 is_stmt 1 view .LVU383
 418:Lib/lvgl/src/display/lv_display.c ****         LV_ASSERT_MSG(h != 0, "the buffer is too small");
 1546              		.loc 1 418 7 is_stmt 0 view .LVU384
 1547 0042 2EB9     		cbnz	r6, .L150
 1548              	.L151:
 419:Lib/lvgl/src/display/lv_display.c ****         return;
 1549              		.loc 1 419 9 is_stmt 1 discriminator 3 view .LVU385
 419:Lib/lvgl/src/display/lv_display.c ****         return;
 1550              		.loc 1 419 9 discriminator 3 view .LVU386
 419:Lib/lvgl/src/display/lv_display.c ****         return;
 1551              		.loc 1 419 9 discriminator 3 view .LVU387
 419:Lib/lvgl/src/display/lv_display.c ****         return;
 1552              		.loc 1 419 9 discriminator 3 view .LVU388
 419:Lib/lvgl/src/display/lv_display.c ****         return;
 1553              		.loc 1 419 9 discriminator 3 view .LVU389
 1554 0044 FEE7     		b	.L151
 1555              	.L147:
 411:Lib/lvgl/src/display/lv_display.c ****         LV_LOG_ERROR("%s mode requires screen sized buffer(s)",
 1556              		.loc 1 411 10 view .LVU390
 411:Lib/lvgl/src/display/lv_display.c ****         LV_LOG_ERROR("%s mode requires screen sized buffer(s)",
 1557              		.loc 1 411 20 is_stmt 0 view .LVU391
 1558 0046 00FB06F3 		mul	r3, r0, r6
 411:Lib/lvgl/src/display/lv_display.c ****         LV_LOG_ERROR("%s mode requires screen sized buffer(s)",
 1559              		.loc 1 411 12 view .LVU392
 1560 004a BB42     		cmp	r3, r7
 1561 004c F9D9     		bls	.L148
 1562              	.L149:
 414:Lib/lvgl/src/display/lv_display.c ****         return;
 1563              		.loc 1 414 9 is_stmt 1 discriminator 2 view .LVU393
 414:Lib/lvgl/src/display/lv_display.c ****         return;
 1564              		.loc 1 414 9 discriminator 2 view .LVU394
 414:Lib/lvgl/src/display/lv_display.c ****         return;
 1565              		.loc 1 414 9 discriminator 2 view .LVU395
 414:Lib/lvgl/src/display/lv_display.c ****         return;
 1566              		.loc 1 414 9 discriminator 2 view .LVU396
 414:Lib/lvgl/src/display/lv_display.c ****         return;
 1567              		.loc 1 414 9 discriminator 2 view .LVU397
 1568 004e FEE7     		b	.L149
 1569              	.L150:
 423:Lib/lvgl/src/display/lv_display.c ****     lv_draw_buf_init(&disp->_static_buf2, w, h, cf, stride, buf2, buf_size);
 1570              		.loc 1 423 5 view .LVU398
 1571 0050 04F51C73 		add	r3, r4, #624
 1572 0054 1846     		mov	r0, r3
 1573              	.LVL139:
 423:Lib/lvgl/src/display/lv_display.c ****     lv_draw_buf_init(&disp->_static_buf2, w, h, cf, stride, buf2, buf_size);
 1574              		.loc 1 423 5 is_stmt 0 view .LVU399
 1575 0056 0593     		str	r3, [sp, #20]
 1576 0058 0297     		str	r7, [sp, #8]
 1577 005a CDF80480 		str	r8, [sp, #4]
 1578 005e CDF800B0 		str	fp, [sp]
 1579 0062 5346     		mov	r3, r10
 1580 0064 3246     		mov	r2, r6
 1581 0066 2946     		mov	r1, r5
 1582 0068 FFF7FEFF 		bl	lv_draw_buf_init
ARM GAS  C:\Users\Alex\AppData\Local\Temp\cc0G22cc.s 			page 53


 1583              	.LVL140:
 424:Lib/lvgl/src/display/lv_display.c ****     lv_display_set_draw_buffers(disp, &disp->_static_buf1, buf2 ? &disp->_static_buf2 : NULL);
 1584              		.loc 1 424 5 is_stmt 1 view .LVU400
 1585 006c 04F52278 		add	r8, r4, #648
 1586              	.LVL141:
 424:Lib/lvgl/src/display/lv_display.c ****     lv_display_set_draw_buffers(disp, &disp->_static_buf1, buf2 ? &disp->_static_buf2 : NULL);
 1587              		.loc 1 424 5 is_stmt 0 view .LVU401
 1588 0070 0297     		str	r7, [sp, #8]
 1589 0072 049F     		ldr	r7, [sp, #16]
 1590              	.LVL142:
 424:Lib/lvgl/src/display/lv_display.c ****     lv_display_set_draw_buffers(disp, &disp->_static_buf1, buf2 ? &disp->_static_buf2 : NULL);
 1591              		.loc 1 424 5 view .LVU402
 1592 0074 0197     		str	r7, [sp, #4]
 1593 0076 CDF800B0 		str	fp, [sp]
 1594 007a 5346     		mov	r3, r10
 1595 007c 3246     		mov	r2, r6
 1596 007e 2946     		mov	r1, r5
 1597 0080 4046     		mov	r0, r8
 1598 0082 FFF7FEFF 		bl	lv_draw_buf_init
 1599              	.LVL143:
 425:Lib/lvgl/src/display/lv_display.c ****     lv_display_set_render_mode(disp, render_mode);
 1600              		.loc 1 425 5 is_stmt 1 view .LVU403
 1601 0086 5FB1     		cbz	r7, .L154
 1602              	.L152:
 425:Lib/lvgl/src/display/lv_display.c ****     lv_display_set_render_mode(disp, render_mode);
 1603              		.loc 1 425 5 is_stmt 0 discriminator 4 view .LVU404
 1604 0088 4246     		mov	r2, r8
 1605 008a 0599     		ldr	r1, [sp, #20]
 1606 008c 2046     		mov	r0, r4
 1607 008e FFF7FEFF 		bl	lv_display_set_draw_buffers
 1608              	.LVL144:
 426:Lib/lvgl/src/display/lv_display.c **** }
 1609              		.loc 1 426 5 is_stmt 1 discriminator 4 view .LVU405
 1610 0092 4946     		mov	r1, r9
 1611 0094 2046     		mov	r0, r4
 1612 0096 FFF7FEFF 		bl	lv_display_set_render_mode
 1613              	.LVL145:
 427:Lib/lvgl/src/display/lv_display.c **** 
 1614              		.loc 1 427 1 is_stmt 0 discriminator 4 view .LVU406
 1615 009a 07B0     		add	sp, sp, #28
 1616              	.LCFI26:
 1617              		.cfi_remember_state
 1618              		.cfi_def_cfa_offset 36
 1619              		@ sp needed
 1620 009c BDE8F08F 		pop	{r4, r5, r6, r7, r8, r9, r10, fp, pc}
 1621              	.LVL146:
 1622              	.L154:
 1623              	.LCFI27:
 1624              		.cfi_restore_state
 425:Lib/lvgl/src/display/lv_display.c ****     lv_display_set_render_mode(disp, render_mode);
 1625              		.loc 1 425 5 view .LVU407
 1626 00a0 DDF81080 		ldr	r8, [sp, #16]
 1627 00a4 F0E7     		b	.L152
 1628              		.cfi_endproc
 1629              	.LFE251:
 1631              		.section	.text.lv_display_set_antialiasing,"ax",%progbits
 1632              		.align	1
ARM GAS  C:\Users\Alex\AppData\Local\Temp\cc0G22cc.s 			page 54


 1633              		.global	lv_display_set_antialiasing
 1634              		.syntax unified
 1635              		.thumb
 1636              		.thumb_func
 1638              	lv_display_set_antialiasing:
 1639              	.LVL147:
 1640              	.LFB257:
 472:Lib/lvgl/src/display/lv_display.c ****     if(disp == NULL) disp = lv_display_get_default();
 1641              		.loc 1 472 1 is_stmt 1 view -0
 1642              		.cfi_startproc
 1643              		@ args = 0, pretend = 0, frame = 0
 1644              		@ frame_needed = 0, uses_anonymous_args = 0
 472:Lib/lvgl/src/display/lv_display.c ****     if(disp == NULL) disp = lv_display_get_default();
 1645              		.loc 1 472 1 is_stmt 0 view .LVU409
 1646 0000 10B5     		push	{r4, lr}
 1647              	.LCFI28:
 1648              		.cfi_def_cfa_offset 8
 1649              		.cfi_offset 4, -8
 1650              		.cfi_offset 14, -4
 1651 0002 0C46     		mov	r4, r1
 473:Lib/lvgl/src/display/lv_display.c ****     if(disp == NULL) return;
 1652              		.loc 1 473 5 is_stmt 1 view .LVU410
 473:Lib/lvgl/src/display/lv_display.c ****     if(disp == NULL) return;
 1653              		.loc 1 473 7 is_stmt 0 view .LVU411
 1654 0004 0346     		mov	r3, r0
 1655 0006 30B1     		cbz	r0, .L159
 1656              	.LVL148:
 1657              	.L156:
 476:Lib/lvgl/src/display/lv_display.c **** }
 1658              		.loc 1 476 5 is_stmt 1 view .LVU412
 476:Lib/lvgl/src/display/lv_display.c **** }
 1659              		.loc 1 476 24 is_stmt 0 view .LVU413
 1660 0008 93F83A20 		ldrb	r2, [r3, #58]	@ zero_extendqisi2
 1661 000c 64F30002 		bfi	r2, r4, #0, #1
 1662 0010 83F83A20 		strb	r2, [r3, #58]
 1663              	.L155:
 477:Lib/lvgl/src/display/lv_display.c **** 
 1664              		.loc 1 477 1 view .LVU414
 1665 0014 10BD     		pop	{r4, pc}
 1666              	.LVL149:
 1667              	.L159:
 473:Lib/lvgl/src/display/lv_display.c ****     if(disp == NULL) return;
 1668              		.loc 1 473 22 is_stmt 1 discriminator 1 view .LVU415
 473:Lib/lvgl/src/display/lv_display.c ****     if(disp == NULL) return;
 1669              		.loc 1 473 29 is_stmt 0 discriminator 1 view .LVU416
 1670 0016 FFF7FEFF 		bl	lv_display_get_default
 1671              	.LVL150:
 474:Lib/lvgl/src/display/lv_display.c **** 
 1672              		.loc 1 474 5 is_stmt 1 discriminator 1 view .LVU417
 474:Lib/lvgl/src/display/lv_display.c **** 
 1673              		.loc 1 474 7 is_stmt 0 discriminator 1 view .LVU418
 1674 001a 0346     		mov	r3, r0
 1675 001c 0028     		cmp	r0, #0
 1676 001e F3D1     		bne	.L156
 1677 0020 F8E7     		b	.L155
 1678              		.cfi_endproc
 1679              	.LFE257:
ARM GAS  C:\Users\Alex\AppData\Local\Temp\cc0G22cc.s 			page 55


 1681              		.section	.text.lv_display_get_antialiasing,"ax",%progbits
 1682              		.align	1
 1683              		.global	lv_display_get_antialiasing
 1684              		.syntax unified
 1685              		.thumb
 1686              		.thumb_func
 1688              	lv_display_get_antialiasing:
 1689              	.LVL151:
 1690              	.LFB258:
 480:Lib/lvgl/src/display/lv_display.c ****     if(disp == NULL) disp = lv_display_get_default();
 1691              		.loc 1 480 1 is_stmt 1 view -0
 1692              		.cfi_startproc
 1693              		@ args = 0, pretend = 0, frame = 0
 1694              		@ frame_needed = 0, uses_anonymous_args = 0
 480:Lib/lvgl/src/display/lv_display.c ****     if(disp == NULL) disp = lv_display_get_default();
 1695              		.loc 1 480 1 is_stmt 0 view .LVU420
 1696 0000 08B5     		push	{r3, lr}
 1697              	.LCFI29:
 1698              		.cfi_def_cfa_offset 8
 1699              		.cfi_offset 3, -8
 1700              		.cfi_offset 14, -4
 481:Lib/lvgl/src/display/lv_display.c ****     if(disp == NULL) return false;
 1701              		.loc 1 481 5 is_stmt 1 view .LVU421
 481:Lib/lvgl/src/display/lv_display.c ****     if(disp == NULL) return false;
 1702              		.loc 1 481 7 is_stmt 0 view .LVU422
 1703 0002 0346     		mov	r3, r0
 1704 0004 20B1     		cbz	r0, .L165
 1705              	.L161:
 1706              	.LVL152:
 484:Lib/lvgl/src/display/lv_display.c **** }
 1707              		.loc 1 484 5 is_stmt 1 view .LVU423
 484:Lib/lvgl/src/display/lv_display.c **** }
 1708              		.loc 1 484 16 is_stmt 0 view .LVU424
 1709 0006 93F83A00 		ldrb	r0, [r3, #58]	@ zero_extendqisi2
 1710 000a 00F00100 		and	r0, r0, #1
 1711              	.L162:
 485:Lib/lvgl/src/display/lv_display.c **** 
 1712              		.loc 1 485 1 view .LVU425
 1713 000e 08BD     		pop	{r3, pc}
 1714              	.LVL153:
 1715              	.L165:
 481:Lib/lvgl/src/display/lv_display.c ****     if(disp == NULL) return false;
 1716              		.loc 1 481 22 is_stmt 1 discriminator 1 view .LVU426
 481:Lib/lvgl/src/display/lv_display.c ****     if(disp == NULL) return false;
 1717              		.loc 1 481 29 is_stmt 0 discriminator 1 view .LVU427
 1718 0010 FFF7FEFF 		bl	lv_display_get_default
 1719              	.LVL154:
 482:Lib/lvgl/src/display/lv_display.c **** 
 1720              		.loc 1 482 5 is_stmt 1 discriminator 1 view .LVU428
 482:Lib/lvgl/src/display/lv_display.c **** 
 1721              		.loc 1 482 7 is_stmt 0 discriminator 1 view .LVU429
 1722 0014 0346     		mov	r3, r0
 1723 0016 0028     		cmp	r0, #0
 1724 0018 F5D1     		bne	.L161
 482:Lib/lvgl/src/display/lv_display.c **** 
 1725              		.loc 1 482 29 view .LVU430
 1726 001a 0020     		movs	r0, #0
ARM GAS  C:\Users\Alex\AppData\Local\Temp\cc0G22cc.s 			page 56


 1727              	.LVL155:
 482:Lib/lvgl/src/display/lv_display.c **** 
 1728              		.loc 1 482 29 view .LVU431
 1729 001c F7E7     		b	.L162
 1730              		.cfi_endproc
 1731              	.LFE258:
 1733              		.section	.text.lv_display_flush_ready,"ax",%progbits
 1734              		.align	1
 1735              		.global	lv_display_flush_ready
 1736              		.syntax unified
 1737              		.thumb
 1738              		.thumb_func
 1740              	lv_display_flush_ready:
 1741              	.LVL156:
 1742              	.LFB259:
 488:Lib/lvgl/src/display/lv_display.c ****     disp->flushing = 0;
 1743              		.loc 1 488 1 is_stmt 1 view -0
 1744              		.cfi_startproc
 1745              		@ args = 0, pretend = 0, frame = 0
 1746              		@ frame_needed = 0, uses_anonymous_args = 0
 1747              		@ link register save eliminated.
 489:Lib/lvgl/src/display/lv_display.c **** }
 1748              		.loc 1 489 5 view .LVU433
 489:Lib/lvgl/src/display/lv_display.c **** }
 1749              		.loc 1 489 20 is_stmt 0 view .LVU434
 1750 0000 0023     		movs	r3, #0
 1751 0002 0363     		str	r3, [r0, #48]
 490:Lib/lvgl/src/display/lv_display.c **** 
 1752              		.loc 1 490 1 view .LVU435
 1753 0004 7047     		bx	lr
 1754              		.cfi_endproc
 1755              	.LFE259:
 1757              		.section	.text.lv_display_flush_is_last,"ax",%progbits
 1758              		.align	1
 1759              		.global	lv_display_flush_is_last
 1760              		.syntax unified
 1761              		.thumb
 1762              		.thumb_func
 1764              	lv_display_flush_is_last:
 1765              	.LVL157:
 1766              	.LFB260:
 493:Lib/lvgl/src/display/lv_display.c ****     return disp->flushing_last;
 1767              		.loc 1 493 1 is_stmt 1 view -0
 1768              		.cfi_startproc
 1769              		@ args = 0, pretend = 0, frame = 0
 1770              		@ frame_needed = 0, uses_anonymous_args = 0
 1771              		@ link register save eliminated.
 494:Lib/lvgl/src/display/lv_display.c **** }
 1772              		.loc 1 494 5 view .LVU437
 494:Lib/lvgl/src/display/lv_display.c **** }
 1773              		.loc 1 494 16 is_stmt 0 view .LVU438
 1774 0000 406B     		ldr	r0, [r0, #52]
 1775              	.LVL158:
 495:Lib/lvgl/src/display/lv_display.c **** 
 1776              		.loc 1 495 1 view .LVU439
 1777 0002 0038     		subs	r0, r0, #0
 1778 0004 18BF     		it	ne
ARM GAS  C:\Users\Alex\AppData\Local\Temp\cc0G22cc.s 			page 57


 1779 0006 0120     		movne	r0, #1
 1780 0008 7047     		bx	lr
 1781              		.cfi_endproc
 1782              	.LFE260:
 1784              		.section	.text.lv_display_is_double_buffered,"ax",%progbits
 1785              		.align	1
 1786              		.global	lv_display_is_double_buffered
 1787              		.syntax unified
 1788              		.thumb
 1789              		.thumb_func
 1791              	lv_display_is_double_buffered:
 1792              	.LVL159:
 1793              	.LFB261:
 498:Lib/lvgl/src/display/lv_display.c ****     return disp->buf_2 != NULL;
 1794              		.loc 1 498 1 is_stmt 1 view -0
 1795              		.cfi_startproc
 1796              		@ args = 0, pretend = 0, frame = 0
 1797              		@ frame_needed = 0, uses_anonymous_args = 0
 1798              		@ link register save eliminated.
 499:Lib/lvgl/src/display/lv_display.c **** }
 1799              		.loc 1 499 5 view .LVU441
 499:Lib/lvgl/src/display/lv_display.c **** }
 1800              		.loc 1 499 16 is_stmt 0 view .LVU442
 1801 0000 006A     		ldr	r0, [r0, #32]
 1802              	.LVL160:
 500:Lib/lvgl/src/display/lv_display.c **** 
 1803              		.loc 1 500 1 view .LVU443
 1804 0002 0038     		subs	r0, r0, #0
 1805 0004 18BF     		it	ne
 1806 0006 0120     		movne	r0, #1
 1807 0008 7047     		bx	lr
 1808              		.cfi_endproc
 1809              	.LFE261:
 1811              		.section	.text.lv_display_get_screen_active,"ax",%progbits
 1812              		.align	1
 1813              		.global	lv_display_get_screen_active
 1814              		.syntax unified
 1815              		.thumb
 1816              		.thumb_func
 1818              	lv_display_get_screen_active:
 1819              	.LVL161:
 1820              	.LFB262:
 507:Lib/lvgl/src/display/lv_display.c ****     if(!disp) disp = lv_display_get_default();
 1821              		.loc 1 507 1 is_stmt 1 view -0
 1822              		.cfi_startproc
 1823              		@ args = 0, pretend = 0, frame = 0
 1824              		@ frame_needed = 0, uses_anonymous_args = 0
 507:Lib/lvgl/src/display/lv_display.c ****     if(!disp) disp = lv_display_get_default();
 1825              		.loc 1 507 1 is_stmt 0 view .LVU445
 1826 0000 08B5     		push	{r3, lr}
 1827              	.LCFI30:
 1828              		.cfi_def_cfa_offset 8
 1829              		.cfi_offset 3, -8
 1830              		.cfi_offset 14, -4
 508:Lib/lvgl/src/display/lv_display.c ****     if(!disp) {
 1831              		.loc 1 508 5 is_stmt 1 view .LVU446
 508:Lib/lvgl/src/display/lv_display.c ****     if(!disp) {
ARM GAS  C:\Users\Alex\AppData\Local\Temp\cc0G22cc.s 			page 58


 1832              		.loc 1 508 7 is_stmt 0 view .LVU447
 1833 0002 0346     		mov	r3, r0
 1834 0004 10B1     		cbz	r0, .L174
 1835              	.L170:
 1836              	.LVL162:
 514:Lib/lvgl/src/display/lv_display.c **** }
 1837              		.loc 1 514 5 is_stmt 1 view .LVU448
 514:Lib/lvgl/src/display/lv_display.c **** }
 1838              		.loc 1 514 16 is_stmt 0 view .LVU449
 1839 0006 D3F8B002 		ldr	r0, [r3, #688]
 1840              	.L169:
 515:Lib/lvgl/src/display/lv_display.c **** 
 1841              		.loc 1 515 1 view .LVU450
 1842 000a 08BD     		pop	{r3, pc}
 1843              	.LVL163:
 1844              	.L174:
 508:Lib/lvgl/src/display/lv_display.c ****     if(!disp) {
 1845              		.loc 1 508 15 is_stmt 1 discriminator 1 view .LVU451
 508:Lib/lvgl/src/display/lv_display.c ****     if(!disp) {
 1846              		.loc 1 508 22 is_stmt 0 discriminator 1 view .LVU452
 1847 000c FFF7FEFF 		bl	lv_display_get_default
 1848              	.LVL164:
 509:Lib/lvgl/src/display/lv_display.c ****         LV_LOG_WARN("no display registered to get its active screen");
 1849              		.loc 1 509 5 is_stmt 1 discriminator 1 view .LVU453
 509:Lib/lvgl/src/display/lv_display.c ****         LV_LOG_WARN("no display registered to get its active screen");
 1850              		.loc 1 509 7 is_stmt 0 discriminator 1 view .LVU454
 1851 0010 0346     		mov	r3, r0
 1852 0012 0028     		cmp	r0, #0
 1853 0014 F7D1     		bne	.L170
 1854 0016 F8E7     		b	.L169
 1855              		.cfi_endproc
 1856              	.LFE262:
 1858              		.section	.text.lv_screen_active,"ax",%progbits
 1859              		.align	1
 1860              		.syntax unified
 1861              		.thumb
 1862              		.thumb_func
 1864              	lv_screen_active:
 1865              	.LFB89:
 1866              		.file 2 "Lib/lvgl/src/display/lv_display.h"
   1:Lib/lvgl/src/display/lv_display.h **** /**
   2:Lib/lvgl/src/display/lv_display.h ****  * @file lv_disp.h
   3:Lib/lvgl/src/display/lv_display.h ****  *
   4:Lib/lvgl/src/display/lv_display.h ****  */
   5:Lib/lvgl/src/display/lv_display.h **** 
   6:Lib/lvgl/src/display/lv_display.h **** #ifndef LV_DISPLAY_H
   7:Lib/lvgl/src/display/lv_display.h **** #define LV_DISPLAY_H
   8:Lib/lvgl/src/display/lv_display.h **** 
   9:Lib/lvgl/src/display/lv_display.h **** #ifdef __cplusplus
  10:Lib/lvgl/src/display/lv_display.h **** extern "C" {
  11:Lib/lvgl/src/display/lv_display.h **** #endif
  12:Lib/lvgl/src/display/lv_display.h **** 
  13:Lib/lvgl/src/display/lv_display.h **** /*********************
  14:Lib/lvgl/src/display/lv_display.h ****  *      INCLUDES
  15:Lib/lvgl/src/display/lv_display.h ****  *********************/
  16:Lib/lvgl/src/display/lv_display.h **** #include "../misc/lv_types.h"
  17:Lib/lvgl/src/display/lv_display.h **** #include "../misc/lv_timer.h"
ARM GAS  C:\Users\Alex\AppData\Local\Temp\cc0G22cc.s 			page 59


  18:Lib/lvgl/src/display/lv_display.h **** #include "../misc/lv_event.h"
  19:Lib/lvgl/src/display/lv_display.h **** #include "../misc/lv_color.h"
  20:Lib/lvgl/src/display/lv_display.h **** #include "../draw/lv_draw.h"
  21:Lib/lvgl/src/display/lv_display.h **** 
  22:Lib/lvgl/src/display/lv_display.h **** /*********************
  23:Lib/lvgl/src/display/lv_display.h ****  *      DEFINES
  24:Lib/lvgl/src/display/lv_display.h ****  *********************/
  25:Lib/lvgl/src/display/lv_display.h **** 
  26:Lib/lvgl/src/display/lv_display.h **** #ifndef LV_ATTRIBUTE_FLUSH_READY
  27:Lib/lvgl/src/display/lv_display.h **** #define LV_ATTRIBUTE_FLUSH_READY
  28:Lib/lvgl/src/display/lv_display.h **** #endif
  29:Lib/lvgl/src/display/lv_display.h **** 
  30:Lib/lvgl/src/display/lv_display.h **** /**********************
  31:Lib/lvgl/src/display/lv_display.h ****  *      TYPEDEFS
  32:Lib/lvgl/src/display/lv_display.h ****  **********************/
  33:Lib/lvgl/src/display/lv_display.h **** 
  34:Lib/lvgl/src/display/lv_display.h **** typedef enum {
  35:Lib/lvgl/src/display/lv_display.h ****     LV_DISPLAY_ROTATION_0 = 0,
  36:Lib/lvgl/src/display/lv_display.h ****     LV_DISPLAY_ROTATION_90,
  37:Lib/lvgl/src/display/lv_display.h ****     LV_DISPLAY_ROTATION_180,
  38:Lib/lvgl/src/display/lv_display.h ****     LV_DISPLAY_ROTATION_270
  39:Lib/lvgl/src/display/lv_display.h **** } lv_display_rotation_t;
  40:Lib/lvgl/src/display/lv_display.h **** 
  41:Lib/lvgl/src/display/lv_display.h **** typedef enum {
  42:Lib/lvgl/src/display/lv_display.h ****     /**
  43:Lib/lvgl/src/display/lv_display.h ****      * Use the buffer(s) to render the screen is smaller parts.
  44:Lib/lvgl/src/display/lv_display.h ****      * This way the buffers can be smaller then the display to save RAM. At least 1/10 screen size 
  45:Lib/lvgl/src/display/lv_display.h ****      */
  46:Lib/lvgl/src/display/lv_display.h ****     LV_DISPLAY_RENDER_MODE_PARTIAL,
  47:Lib/lvgl/src/display/lv_display.h **** 
  48:Lib/lvgl/src/display/lv_display.h ****     /**
  49:Lib/lvgl/src/display/lv_display.h ****      * The buffer(s) has to be screen sized and LVGL will render into the correct location of the b
  50:Lib/lvgl/src/display/lv_display.h ****      * This way the buffer always contain the whole image. Only the changed ares will be updated.
  51:Lib/lvgl/src/display/lv_display.h ****      * With 2 buffers the buffers' content are kept in sync automatically and in flush_cb only addr
  52:Lib/lvgl/src/display/lv_display.h ****      */
  53:Lib/lvgl/src/display/lv_display.h ****     LV_DISPLAY_RENDER_MODE_DIRECT,
  54:Lib/lvgl/src/display/lv_display.h **** 
  55:Lib/lvgl/src/display/lv_display.h ****     /**
  56:Lib/lvgl/src/display/lv_display.h ****      * Always redraw the whole screen even if only one pixel has been changed.
  57:Lib/lvgl/src/display/lv_display.h ****      * With 2 buffers in flush_cb only and address change is required.
  58:Lib/lvgl/src/display/lv_display.h ****      */
  59:Lib/lvgl/src/display/lv_display.h ****     LV_DISPLAY_RENDER_MODE_FULL,
  60:Lib/lvgl/src/display/lv_display.h **** } lv_display_render_mode_t;
  61:Lib/lvgl/src/display/lv_display.h **** 
  62:Lib/lvgl/src/display/lv_display.h **** typedef enum {
  63:Lib/lvgl/src/display/lv_display.h ****     LV_SCR_LOAD_ANIM_NONE,
  64:Lib/lvgl/src/display/lv_display.h ****     LV_SCR_LOAD_ANIM_OVER_LEFT,
  65:Lib/lvgl/src/display/lv_display.h ****     LV_SCR_LOAD_ANIM_OVER_RIGHT,
  66:Lib/lvgl/src/display/lv_display.h ****     LV_SCR_LOAD_ANIM_OVER_TOP,
  67:Lib/lvgl/src/display/lv_display.h ****     LV_SCR_LOAD_ANIM_OVER_BOTTOM,
  68:Lib/lvgl/src/display/lv_display.h ****     LV_SCR_LOAD_ANIM_MOVE_LEFT,
  69:Lib/lvgl/src/display/lv_display.h ****     LV_SCR_LOAD_ANIM_MOVE_RIGHT,
  70:Lib/lvgl/src/display/lv_display.h ****     LV_SCR_LOAD_ANIM_MOVE_TOP,
  71:Lib/lvgl/src/display/lv_display.h ****     LV_SCR_LOAD_ANIM_MOVE_BOTTOM,
  72:Lib/lvgl/src/display/lv_display.h ****     LV_SCR_LOAD_ANIM_FADE_IN,
  73:Lib/lvgl/src/display/lv_display.h ****     LV_SCR_LOAD_ANIM_FADE_ON = LV_SCR_LOAD_ANIM_FADE_IN, /*For backward compatibility*/
  74:Lib/lvgl/src/display/lv_display.h ****     LV_SCR_LOAD_ANIM_FADE_OUT,
ARM GAS  C:\Users\Alex\AppData\Local\Temp\cc0G22cc.s 			page 60


  75:Lib/lvgl/src/display/lv_display.h ****     LV_SCR_LOAD_ANIM_OUT_LEFT,
  76:Lib/lvgl/src/display/lv_display.h ****     LV_SCR_LOAD_ANIM_OUT_RIGHT,
  77:Lib/lvgl/src/display/lv_display.h ****     LV_SCR_LOAD_ANIM_OUT_TOP,
  78:Lib/lvgl/src/display/lv_display.h ****     LV_SCR_LOAD_ANIM_OUT_BOTTOM,
  79:Lib/lvgl/src/display/lv_display.h **** } lv_screen_load_anim_t;
  80:Lib/lvgl/src/display/lv_display.h **** 
  81:Lib/lvgl/src/display/lv_display.h **** typedef void (*lv_display_flush_cb_t)(lv_display_t * disp, const lv_area_t * area, uint8_t * px_map
  82:Lib/lvgl/src/display/lv_display.h **** typedef void (*lv_display_flush_wait_cb_t)(lv_display_t * disp);
  83:Lib/lvgl/src/display/lv_display.h **** 
  84:Lib/lvgl/src/display/lv_display.h **** /**********************
  85:Lib/lvgl/src/display/lv_display.h ****  * GLOBAL PROTOTYPES
  86:Lib/lvgl/src/display/lv_display.h ****  **********************/
  87:Lib/lvgl/src/display/lv_display.h **** 
  88:Lib/lvgl/src/display/lv_display.h **** /**
  89:Lib/lvgl/src/display/lv_display.h ****  * Create a new display with the given resolution
  90:Lib/lvgl/src/display/lv_display.h ****  * @param hor_res   horizontal resolution in pixels
  91:Lib/lvgl/src/display/lv_display.h ****  * @param ver_res   vertical resolution in pixels
  92:Lib/lvgl/src/display/lv_display.h ****  * @return          pointer to a display object or `NULL` on error
  93:Lib/lvgl/src/display/lv_display.h ****  */
  94:Lib/lvgl/src/display/lv_display.h **** lv_display_t * lv_display_create(int32_t hor_res, int32_t ver_res);
  95:Lib/lvgl/src/display/lv_display.h **** 
  96:Lib/lvgl/src/display/lv_display.h **** /**
  97:Lib/lvgl/src/display/lv_display.h ****  * Remove a display
  98:Lib/lvgl/src/display/lv_display.h ****  * @param disp      pointer to display
  99:Lib/lvgl/src/display/lv_display.h ****  */
 100:Lib/lvgl/src/display/lv_display.h **** void lv_display_delete(lv_display_t * disp);
 101:Lib/lvgl/src/display/lv_display.h **** 
 102:Lib/lvgl/src/display/lv_display.h **** /**
 103:Lib/lvgl/src/display/lv_display.h ****  * Set a default display. The new screens will be created on it by default.
 104:Lib/lvgl/src/display/lv_display.h ****  * @param disp      pointer to a display
 105:Lib/lvgl/src/display/lv_display.h ****  */
 106:Lib/lvgl/src/display/lv_display.h **** void lv_display_set_default(lv_display_t * disp);
 107:Lib/lvgl/src/display/lv_display.h **** 
 108:Lib/lvgl/src/display/lv_display.h **** /**
 109:Lib/lvgl/src/display/lv_display.h ****  * Get the default display
 110:Lib/lvgl/src/display/lv_display.h ****  * @return          pointer to the default display
 111:Lib/lvgl/src/display/lv_display.h ****  */
 112:Lib/lvgl/src/display/lv_display.h **** lv_display_t * lv_display_get_default(void);
 113:Lib/lvgl/src/display/lv_display.h **** 
 114:Lib/lvgl/src/display/lv_display.h **** /**
 115:Lib/lvgl/src/display/lv_display.h ****  * Get the next display.
 116:Lib/lvgl/src/display/lv_display.h ****  * @param disp      pointer to the current display. NULL to initialize.
 117:Lib/lvgl/src/display/lv_display.h ****  * @return          the next display or NULL if no more. Gives the first display when the parameter
 118:Lib/lvgl/src/display/lv_display.h ****  */
 119:Lib/lvgl/src/display/lv_display.h **** lv_display_t * lv_display_get_next(lv_display_t * disp);
 120:Lib/lvgl/src/display/lv_display.h **** 
 121:Lib/lvgl/src/display/lv_display.h **** /*---------------------
 122:Lib/lvgl/src/display/lv_display.h ****  * RESOLUTION
 123:Lib/lvgl/src/display/lv_display.h ****  *--------------------*/
 124:Lib/lvgl/src/display/lv_display.h **** 
 125:Lib/lvgl/src/display/lv_display.h **** /**
 126:Lib/lvgl/src/display/lv_display.h ****  * Sets the resolution of a display. `LV_EVENT_RESOLUTION_CHANGED` event will be sent.
 127:Lib/lvgl/src/display/lv_display.h ****  * Here the native resolution of the device should be set. If the display will be rotated later wit
 128:Lib/lvgl/src/display/lv_display.h ****  * `lv_display_set_rotation` LVGL will swap the hor. and ver. resolution automatically.
 129:Lib/lvgl/src/display/lv_display.h ****  * @param disp      pointer to a display
 130:Lib/lvgl/src/display/lv_display.h ****  * @param hor_res   the new horizontal resolution
 131:Lib/lvgl/src/display/lv_display.h ****  * @param ver_res   the new vertical resolution
ARM GAS  C:\Users\Alex\AppData\Local\Temp\cc0G22cc.s 			page 61


 132:Lib/lvgl/src/display/lv_display.h ****  */
 133:Lib/lvgl/src/display/lv_display.h **** void lv_display_set_resolution(lv_display_t * disp, int32_t hor_res, int32_t ver_res);
 134:Lib/lvgl/src/display/lv_display.h **** 
 135:Lib/lvgl/src/display/lv_display.h **** /**
 136:Lib/lvgl/src/display/lv_display.h ****  * It's not mandatory to use the whole display for LVGL, however in some cases physical resolution 
 137:Lib/lvgl/src/display/lv_display.h ****  * For example the touchpad still sees whole resolution and the values needs to be converted
 138:Lib/lvgl/src/display/lv_display.h ****  * to the active LVGL display area.
 139:Lib/lvgl/src/display/lv_display.h ****  * @param disp      pointer to a display
 140:Lib/lvgl/src/display/lv_display.h ****  * @param hor_res   the new physical horizontal resolution, or -1 to assume it's the same as the no
 141:Lib/lvgl/src/display/lv_display.h ****  * @param ver_res   the new physical vertical resolution, or -1 to assume it's the same as the norm
 142:Lib/lvgl/src/display/lv_display.h ****  */
 143:Lib/lvgl/src/display/lv_display.h **** void lv_display_set_physical_resolution(lv_display_t * disp, int32_t hor_res, int32_t ver_res);
 144:Lib/lvgl/src/display/lv_display.h **** 
 145:Lib/lvgl/src/display/lv_display.h **** /**
 146:Lib/lvgl/src/display/lv_display.h ****  * If physical resolution is not the same as the normal resolution
 147:Lib/lvgl/src/display/lv_display.h ****  * the offset of the active display area can be set here.
 148:Lib/lvgl/src/display/lv_display.h ****  * @param disp      pointer to a display
 149:Lib/lvgl/src/display/lv_display.h ****  * @param x         X offset
 150:Lib/lvgl/src/display/lv_display.h ****  * @param y         Y offset
 151:Lib/lvgl/src/display/lv_display.h ****  */
 152:Lib/lvgl/src/display/lv_display.h **** void lv_display_set_offset(lv_display_t * disp, int32_t x, int32_t y);
 153:Lib/lvgl/src/display/lv_display.h **** 
 154:Lib/lvgl/src/display/lv_display.h **** /**
 155:Lib/lvgl/src/display/lv_display.h ****  * Set the rotation of this display. LVGL will swap the horizontal and vertical resolutions interna
 156:Lib/lvgl/src/display/lv_display.h ****  * @param disp      pointer to a display (NULL to use the default display)
 157:Lib/lvgl/src/display/lv_display.h ****  * @param rotation  `LV_DISPLAY_ROTATION_0/90/180/270`
 158:Lib/lvgl/src/display/lv_display.h ****  */
 159:Lib/lvgl/src/display/lv_display.h **** void lv_display_set_rotation(lv_display_t * disp, lv_display_rotation_t rotation);
 160:Lib/lvgl/src/display/lv_display.h **** 
 161:Lib/lvgl/src/display/lv_display.h **** /**
 162:Lib/lvgl/src/display/lv_display.h ****  * Set the DPI (dot per inch) of the display.
 163:Lib/lvgl/src/display/lv_display.h ****  * dpi = sqrt(hor_res^2 + ver_res^2) / diagonal"
 164:Lib/lvgl/src/display/lv_display.h ****  * @param disp      pointer to a display
 165:Lib/lvgl/src/display/lv_display.h ****  * @param dpi       the new DPI
 166:Lib/lvgl/src/display/lv_display.h ****  */
 167:Lib/lvgl/src/display/lv_display.h **** void lv_display_set_dpi(lv_display_t * disp, int32_t dpi);
 168:Lib/lvgl/src/display/lv_display.h **** 
 169:Lib/lvgl/src/display/lv_display.h **** /**
 170:Lib/lvgl/src/display/lv_display.h ****  * Get the horizontal resolution of a display.
 171:Lib/lvgl/src/display/lv_display.h ****  * @param disp      pointer to a display (NULL to use the default display)
 172:Lib/lvgl/src/display/lv_display.h ****  * @return          the horizontal resolution of the display.
 173:Lib/lvgl/src/display/lv_display.h ****  */
 174:Lib/lvgl/src/display/lv_display.h **** int32_t lv_display_get_horizontal_resolution(const lv_display_t * disp);
 175:Lib/lvgl/src/display/lv_display.h **** 
 176:Lib/lvgl/src/display/lv_display.h **** /**
 177:Lib/lvgl/src/display/lv_display.h ****  * Get the vertical resolution of a display
 178:Lib/lvgl/src/display/lv_display.h ****  * @param disp      pointer to a display (NULL to use the default display)
 179:Lib/lvgl/src/display/lv_display.h ****  * @return          the vertical resolution of the display
 180:Lib/lvgl/src/display/lv_display.h ****  */
 181:Lib/lvgl/src/display/lv_display.h **** int32_t lv_display_get_vertical_resolution(const lv_display_t * disp);
 182:Lib/lvgl/src/display/lv_display.h **** 
 183:Lib/lvgl/src/display/lv_display.h **** /**
 184:Lib/lvgl/src/display/lv_display.h ****  * Get the physical horizontal resolution of a display
 185:Lib/lvgl/src/display/lv_display.h ****  * @param disp      pointer to a display (NULL to use the default display)
 186:Lib/lvgl/src/display/lv_display.h ****  * @return the      physical horizontal resolution of the display
 187:Lib/lvgl/src/display/lv_display.h ****  */
 188:Lib/lvgl/src/display/lv_display.h **** int32_t lv_display_get_physical_horizontal_resolution(const lv_display_t * disp);
ARM GAS  C:\Users\Alex\AppData\Local\Temp\cc0G22cc.s 			page 62


 189:Lib/lvgl/src/display/lv_display.h **** 
 190:Lib/lvgl/src/display/lv_display.h **** /**
 191:Lib/lvgl/src/display/lv_display.h ****  * Get the physical vertical resolution of a display
 192:Lib/lvgl/src/display/lv_display.h ****  * @param disp      pointer to a display (NULL to use the default display)
 193:Lib/lvgl/src/display/lv_display.h ****  * @return          the physical vertical resolution of the display
 194:Lib/lvgl/src/display/lv_display.h ****  */
 195:Lib/lvgl/src/display/lv_display.h **** int32_t lv_display_get_physical_vertical_resolution(const lv_display_t * disp);
 196:Lib/lvgl/src/display/lv_display.h **** 
 197:Lib/lvgl/src/display/lv_display.h **** /**
 198:Lib/lvgl/src/display/lv_display.h ****  * Get the horizontal offset from the full / physical display
 199:Lib/lvgl/src/display/lv_display.h ****  * @param disp      pointer to a display (NULL to use the default display)
 200:Lib/lvgl/src/display/lv_display.h ****  * @return          the horizontal offset from the physical display
 201:Lib/lvgl/src/display/lv_display.h ****  */
 202:Lib/lvgl/src/display/lv_display.h **** int32_t lv_display_get_offset_x(const lv_display_t * disp);
 203:Lib/lvgl/src/display/lv_display.h **** 
 204:Lib/lvgl/src/display/lv_display.h **** /**
 205:Lib/lvgl/src/display/lv_display.h ****  * Get the vertical offset from the full / physical display
 206:Lib/lvgl/src/display/lv_display.h ****  * @param disp      pointer to a display (NULL to use the default display)
 207:Lib/lvgl/src/display/lv_display.h ****  * @return          the horizontal offset from the physical display
 208:Lib/lvgl/src/display/lv_display.h ****  */
 209:Lib/lvgl/src/display/lv_display.h **** int32_t lv_display_get_offset_y(const lv_display_t * disp);
 210:Lib/lvgl/src/display/lv_display.h **** 
 211:Lib/lvgl/src/display/lv_display.h **** /**
 212:Lib/lvgl/src/display/lv_display.h ****  * Get the current rotation of this display.
 213:Lib/lvgl/src/display/lv_display.h ****  * @param disp      pointer to a display (NULL to use the default display)
 214:Lib/lvgl/src/display/lv_display.h ****  * @return          the current rotation
 215:Lib/lvgl/src/display/lv_display.h ****  */
 216:Lib/lvgl/src/display/lv_display.h **** lv_display_rotation_t lv_display_get_rotation(lv_display_t * disp);
 217:Lib/lvgl/src/display/lv_display.h **** 
 218:Lib/lvgl/src/display/lv_display.h **** /**
 219:Lib/lvgl/src/display/lv_display.h ****  * Get the DPI of the display
 220:Lib/lvgl/src/display/lv_display.h ****  * @param disp      pointer to a display (NULL to use the default display)
 221:Lib/lvgl/src/display/lv_display.h ****  * @return          dpi of the display
 222:Lib/lvgl/src/display/lv_display.h ****  */
 223:Lib/lvgl/src/display/lv_display.h **** int32_t lv_display_get_dpi(const lv_display_t * disp);
 224:Lib/lvgl/src/display/lv_display.h **** 
 225:Lib/lvgl/src/display/lv_display.h **** /*---------------------
 226:Lib/lvgl/src/display/lv_display.h ****  * BUFFERING
 227:Lib/lvgl/src/display/lv_display.h ****  *--------------------*/
 228:Lib/lvgl/src/display/lv_display.h **** 
 229:Lib/lvgl/src/display/lv_display.h **** /**
 230:Lib/lvgl/src/display/lv_display.h ****  * Set the buffers for a display, similarly to `lv_display_set_draw_buffers`, but accept the raw bu
 231:Lib/lvgl/src/display/lv_display.h ****  * @param disp              pointer to a display
 232:Lib/lvgl/src/display/lv_display.h ****  * @param buf1              first buffer
 233:Lib/lvgl/src/display/lv_display.h ****  * @param buf2              second buffer (can be `NULL`)
 234:Lib/lvgl/src/display/lv_display.h ****  * @param buf_size          buffer size in byte
 235:Lib/lvgl/src/display/lv_display.h ****  * @param render_mode       LV_DISPLAY_RENDER_MODE_PARTIAL/DIRECT/FULL
 236:Lib/lvgl/src/display/lv_display.h ****  */
 237:Lib/lvgl/src/display/lv_display.h **** void lv_display_set_buffers(lv_display_t * disp, void * buf1, void * buf2, uint32_t buf_size,
 238:Lib/lvgl/src/display/lv_display.h ****                             lv_display_render_mode_t render_mode);
 239:Lib/lvgl/src/display/lv_display.h **** 
 240:Lib/lvgl/src/display/lv_display.h **** /**
 241:Lib/lvgl/src/display/lv_display.h ****  * Set the buffers for a display, accept a draw buffer pointer.
 242:Lib/lvgl/src/display/lv_display.h ****  * Normally use `lv_display_set_buffers` is enough for most cases.
 243:Lib/lvgl/src/display/lv_display.h ****  * Use this function when an existing lv_draw_buf_t is available.
 244:Lib/lvgl/src/display/lv_display.h ****  * @param disp              pointer to a display
 245:Lib/lvgl/src/display/lv_display.h ****  * @param buf1              first buffer
ARM GAS  C:\Users\Alex\AppData\Local\Temp\cc0G22cc.s 			page 63


 246:Lib/lvgl/src/display/lv_display.h ****  * @param buf2              second buffer (can be `NULL`)
 247:Lib/lvgl/src/display/lv_display.h ****  */
 248:Lib/lvgl/src/display/lv_display.h **** void lv_display_set_draw_buffers(lv_display_t * disp, lv_draw_buf_t * buf1, lv_draw_buf_t * buf2);
 249:Lib/lvgl/src/display/lv_display.h **** 
 250:Lib/lvgl/src/display/lv_display.h **** /**
 251:Lib/lvgl/src/display/lv_display.h ****  * Set display render mode
 252:Lib/lvgl/src/display/lv_display.h ****  * @param disp              pointer to a display
 253:Lib/lvgl/src/display/lv_display.h ****  * @param render_mode       LV_DISPLAY_RENDER_MODE_PARTIAL/DIRECT/FULL
 254:Lib/lvgl/src/display/lv_display.h ****  */
 255:Lib/lvgl/src/display/lv_display.h **** void lv_display_set_render_mode(lv_display_t * disp, lv_display_render_mode_t render_mode);
 256:Lib/lvgl/src/display/lv_display.h **** 
 257:Lib/lvgl/src/display/lv_display.h **** /**
 258:Lib/lvgl/src/display/lv_display.h ****  * Set the flush callback which will be called to copy the rendered image to the display.
 259:Lib/lvgl/src/display/lv_display.h ****  * @param disp      pointer to a display
 260:Lib/lvgl/src/display/lv_display.h ****  * @param flush_cb  the flush callback (`px_map` contains the rendered image as raw pixel map and i
 261:Lib/lvgl/src/display/lv_display.h ****  */
 262:Lib/lvgl/src/display/lv_display.h **** void lv_display_set_flush_cb(lv_display_t * disp, lv_display_flush_cb_t flush_cb);
 263:Lib/lvgl/src/display/lv_display.h **** 
 264:Lib/lvgl/src/display/lv_display.h **** /**
 265:Lib/lvgl/src/display/lv_display.h ****  * Set a callback to be used while LVGL is waiting flushing to be finished.
 266:Lib/lvgl/src/display/lv_display.h ****  * It can do any complex logic to wait, including semaphores, mutexes, polling flags, etc.
 267:Lib/lvgl/src/display/lv_display.h ****  * If not set the `disp->flushing` flag is used which can be cleared with `lv_display_flush_ready()
 268:Lib/lvgl/src/display/lv_display.h ****  * @param disp      pointer to a display
 269:Lib/lvgl/src/display/lv_display.h ****  * @param wait_cb   a callback to call while LVGL is waiting for flush ready.
 270:Lib/lvgl/src/display/lv_display.h ****  *                  If NULL `lv_display_flush_ready()` can be used to signal that flushing is ready
 271:Lib/lvgl/src/display/lv_display.h ****  */
 272:Lib/lvgl/src/display/lv_display.h **** void lv_display_set_flush_wait_cb(lv_display_t * disp, lv_display_flush_wait_cb_t wait_cb);
 273:Lib/lvgl/src/display/lv_display.h **** 
 274:Lib/lvgl/src/display/lv_display.h **** /**
 275:Lib/lvgl/src/display/lv_display.h ****  * Set the color format of the display.
 276:Lib/lvgl/src/display/lv_display.h ****  * @param disp              pointer to a display
 277:Lib/lvgl/src/display/lv_display.h ****  * @param color_format      Possible values are
 278:Lib/lvgl/src/display/lv_display.h ****  *                          - LV_COLOR_FORMAT_RGB565
 279:Lib/lvgl/src/display/lv_display.h ****  *                          - LV_COLOR_FORMAT_RGB888
 280:Lib/lvgl/src/display/lv_display.h ****  *                          - LV_COLOR_FORMAT_XRGB888
 281:Lib/lvgl/src/display/lv_display.h ****  *                          - LV_COLOR_FORMAT_ARGB888
 282:Lib/lvgl/src/display/lv_display.h ****  *@note To change the endianness of the rendered image in case of RGB565 format
 283:Lib/lvgl/src/display/lv_display.h ****  *      (i.e. swap the 2 bytes) call `lv_draw_sw_rgb565_swap` in the flush_cb
 284:Lib/lvgl/src/display/lv_display.h ****  */
 285:Lib/lvgl/src/display/lv_display.h **** void lv_display_set_color_format(lv_display_t * disp, lv_color_format_t color_format);
 286:Lib/lvgl/src/display/lv_display.h **** 
 287:Lib/lvgl/src/display/lv_display.h **** /**
 288:Lib/lvgl/src/display/lv_display.h ****  * Get the color format of the display
 289:Lib/lvgl/src/display/lv_display.h ****  * @param disp              pointer to a display
 290:Lib/lvgl/src/display/lv_display.h ****  * @return                  the color format
 291:Lib/lvgl/src/display/lv_display.h ****  */
 292:Lib/lvgl/src/display/lv_display.h **** lv_color_format_t lv_display_get_color_format(lv_display_t * disp);
 293:Lib/lvgl/src/display/lv_display.h **** 
 294:Lib/lvgl/src/display/lv_display.h **** /**
 295:Lib/lvgl/src/display/lv_display.h ****  * Enable anti-aliasing for the render engine
 296:Lib/lvgl/src/display/lv_display.h ****  * @param disp      pointer to a display
 297:Lib/lvgl/src/display/lv_display.h ****  * @param en        true/false
 298:Lib/lvgl/src/display/lv_display.h ****  */
 299:Lib/lvgl/src/display/lv_display.h **** void lv_display_set_antialiasing(lv_display_t * disp, bool en);
 300:Lib/lvgl/src/display/lv_display.h **** 
 301:Lib/lvgl/src/display/lv_display.h **** /**
 302:Lib/lvgl/src/display/lv_display.h ****  * Get if anti-aliasing is enabled for a display or not
ARM GAS  C:\Users\Alex\AppData\Local\Temp\cc0G22cc.s 			page 64


 303:Lib/lvgl/src/display/lv_display.h ****  * @param disp      pointer to a display (NULL to use the default display)
 304:Lib/lvgl/src/display/lv_display.h ****  * @return          true/false
 305:Lib/lvgl/src/display/lv_display.h ****  */
 306:Lib/lvgl/src/display/lv_display.h **** bool lv_display_get_antialiasing(lv_display_t * disp);
 307:Lib/lvgl/src/display/lv_display.h **** 
 308:Lib/lvgl/src/display/lv_display.h **** //! @cond Doxygen_Suppress
 309:Lib/lvgl/src/display/lv_display.h **** 
 310:Lib/lvgl/src/display/lv_display.h **** /**
 311:Lib/lvgl/src/display/lv_display.h ****  * Call from the display driver when the flushing is finished
 312:Lib/lvgl/src/display/lv_display.h ****  * @param disp      pointer to display whose `flush_cb` was called
 313:Lib/lvgl/src/display/lv_display.h ****  */
 314:Lib/lvgl/src/display/lv_display.h **** LV_ATTRIBUTE_FLUSH_READY void lv_display_flush_ready(lv_display_t * disp);
 315:Lib/lvgl/src/display/lv_display.h **** 
 316:Lib/lvgl/src/display/lv_display.h **** /**
 317:Lib/lvgl/src/display/lv_display.h ****  * Tell if it's the last area of the refreshing process.
 318:Lib/lvgl/src/display/lv_display.h ****  * Can be called from `flush_cb` to execute some special display refreshing if needed when all area
 319:Lib/lvgl/src/display/lv_display.h ****  * @param disp      pointer to display
 320:Lib/lvgl/src/display/lv_display.h ****  * @return          true: it's the last area to flush;
 321:Lib/lvgl/src/display/lv_display.h ****  *                  false: there are other areas too which will be refreshed soon
 322:Lib/lvgl/src/display/lv_display.h ****  */
 323:Lib/lvgl/src/display/lv_display.h **** LV_ATTRIBUTE_FLUSH_READY bool lv_display_flush_is_last(lv_display_t * disp);
 324:Lib/lvgl/src/display/lv_display.h **** 
 325:Lib/lvgl/src/display/lv_display.h **** //! @endcond
 326:Lib/lvgl/src/display/lv_display.h **** 
 327:Lib/lvgl/src/display/lv_display.h **** bool lv_display_is_double_buffered(lv_display_t * disp);
 328:Lib/lvgl/src/display/lv_display.h **** 
 329:Lib/lvgl/src/display/lv_display.h **** /*---------------------
 330:Lib/lvgl/src/display/lv_display.h ****  * SCREENS
 331:Lib/lvgl/src/display/lv_display.h ****  *--------------------*/
 332:Lib/lvgl/src/display/lv_display.h **** 
 333:Lib/lvgl/src/display/lv_display.h **** /**
 334:Lib/lvgl/src/display/lv_display.h ****  * Return a pointer to the active screen on a display
 335:Lib/lvgl/src/display/lv_display.h ****  * @param disp      pointer to display which active screen should be get.
 336:Lib/lvgl/src/display/lv_display.h ****  *                  (NULL to use the default screen)
 337:Lib/lvgl/src/display/lv_display.h ****  * @return          pointer to the active screen object (loaded by 'lv_screen_load()')
 338:Lib/lvgl/src/display/lv_display.h ****  */
 339:Lib/lvgl/src/display/lv_display.h **** lv_obj_t * lv_display_get_screen_active(lv_display_t * disp);
 340:Lib/lvgl/src/display/lv_display.h **** 
 341:Lib/lvgl/src/display/lv_display.h **** /**
 342:Lib/lvgl/src/display/lv_display.h ****  * Return with a pointer to the previous screen. Only used during screen transitions.
 343:Lib/lvgl/src/display/lv_display.h ****  * @param disp      pointer to display which previous screen should be get.
 344:Lib/lvgl/src/display/lv_display.h ****  *                  (NULL to use the default screen)
 345:Lib/lvgl/src/display/lv_display.h ****  * @return          pointer to the previous screen object or NULL if not used now
 346:Lib/lvgl/src/display/lv_display.h ****  */
 347:Lib/lvgl/src/display/lv_display.h **** lv_obj_t * lv_display_get_screen_prev(lv_display_t * disp);
 348:Lib/lvgl/src/display/lv_display.h **** 
 349:Lib/lvgl/src/display/lv_display.h **** /**
 350:Lib/lvgl/src/display/lv_display.h ****  * Return the top layer. The top layer is the same on all screens and it is above the normal screen
 351:Lib/lvgl/src/display/lv_display.h ****  * @param disp      pointer to display which top layer should be get. (NULL to use the default scre
 352:Lib/lvgl/src/display/lv_display.h ****  * @return          pointer to the top layer object
 353:Lib/lvgl/src/display/lv_display.h ****  */
 354:Lib/lvgl/src/display/lv_display.h **** lv_obj_t * lv_display_get_layer_top(lv_display_t * disp);
 355:Lib/lvgl/src/display/lv_display.h **** 
 356:Lib/lvgl/src/display/lv_display.h **** /**
 357:Lib/lvgl/src/display/lv_display.h ****  * Return the sys. layer. The system layer is the same on all screen and it is above the normal scr
 358:Lib/lvgl/src/display/lv_display.h ****  * @param disp      pointer to display which sys. layer should be retrieved. (NULL to use the defau
 359:Lib/lvgl/src/display/lv_display.h ****  * @return          pointer to the sys layer object
ARM GAS  C:\Users\Alex\AppData\Local\Temp\cc0G22cc.s 			page 65


 360:Lib/lvgl/src/display/lv_display.h ****  */
 361:Lib/lvgl/src/display/lv_display.h **** lv_obj_t * lv_display_get_layer_sys(lv_display_t * disp);
 362:Lib/lvgl/src/display/lv_display.h **** 
 363:Lib/lvgl/src/display/lv_display.h **** /**
 364:Lib/lvgl/src/display/lv_display.h ****  * Return the bottom layer. The bottom layer is the same on all screen and it is under the normal s
 365:Lib/lvgl/src/display/lv_display.h ****  * It's visible only if the the screen is transparent.
 366:Lib/lvgl/src/display/lv_display.h ****  * @param disp      pointer to display (NULL to use the default screen)
 367:Lib/lvgl/src/display/lv_display.h ****  * @return          pointer to the bottom layer object
 368:Lib/lvgl/src/display/lv_display.h ****  */
 369:Lib/lvgl/src/display/lv_display.h **** lv_obj_t * lv_display_get_layer_bottom(lv_display_t * disp);
 370:Lib/lvgl/src/display/lv_display.h **** 
 371:Lib/lvgl/src/display/lv_display.h **** /**
 372:Lib/lvgl/src/display/lv_display.h ****  * Load a screen on the default display
 373:Lib/lvgl/src/display/lv_display.h ****  * @param scr       pointer to a screen
 374:Lib/lvgl/src/display/lv_display.h ****  */
 375:Lib/lvgl/src/display/lv_display.h **** void lv_screen_load(struct _lv_obj_t * scr);
 376:Lib/lvgl/src/display/lv_display.h **** 
 377:Lib/lvgl/src/display/lv_display.h **** /**
 378:Lib/lvgl/src/display/lv_display.h ****  * Switch screen with animation
 379:Lib/lvgl/src/display/lv_display.h ****  * @param scr       pointer to the new screen to load
 380:Lib/lvgl/src/display/lv_display.h ****  * @param anim_type type of the animation from `lv_screen_load_anim_t`, e.g. `LV_SCR_LOAD_ANIM_MOVE
 381:Lib/lvgl/src/display/lv_display.h ****  * @param time      time of the animation
 382:Lib/lvgl/src/display/lv_display.h ****  * @param delay     delay before the transition
 383:Lib/lvgl/src/display/lv_display.h ****  * @param auto_del  true: automatically delete the old screen
 384:Lib/lvgl/src/display/lv_display.h ****  */
 385:Lib/lvgl/src/display/lv_display.h **** void lv_screen_load_anim(lv_obj_t * scr, lv_screen_load_anim_t anim_type, uint32_t time, uint32_t d
 386:Lib/lvgl/src/display/lv_display.h ****                          bool auto_del);
 387:Lib/lvgl/src/display/lv_display.h **** 
 388:Lib/lvgl/src/display/lv_display.h **** /**
 389:Lib/lvgl/src/display/lv_display.h ****  * Get the active screen of the default display
 390:Lib/lvgl/src/display/lv_display.h ****  * @return          pointer to the active screen
 391:Lib/lvgl/src/display/lv_display.h ****  */
 392:Lib/lvgl/src/display/lv_display.h **** static inline lv_obj_t * lv_screen_active(void)
 393:Lib/lvgl/src/display/lv_display.h **** {
 1867              		.loc 2 393 1 is_stmt 1 view -0
 1868              		.cfi_startproc
 1869              		@ args = 0, pretend = 0, frame = 0
 1870              		@ frame_needed = 0, uses_anonymous_args = 0
 1871 0000 08B5     		push	{r3, lr}
 1872              	.LCFI31:
 1873              		.cfi_def_cfa_offset 8
 1874              		.cfi_offset 3, -8
 1875              		.cfi_offset 14, -4
 394:Lib/lvgl/src/display/lv_display.h ****     return lv_display_get_screen_active(lv_display_get_default());
 1876              		.loc 2 394 5 view .LVU456
 1877              		.loc 2 394 12 is_stmt 0 view .LVU457
 1878 0002 FFF7FEFF 		bl	lv_display_get_default
 1879              	.LVL165:
 1880 0006 FFF7FEFF 		bl	lv_display_get_screen_active
 1881              	.LVL166:
 395:Lib/lvgl/src/display/lv_display.h **** }
 1882              		.loc 2 395 1 view .LVU458
 1883 000a 08BD     		pop	{r3, pc}
 1884              		.cfi_endproc
 1885              	.LFE89:
 1887              		.section	.text.scr_load_anim_start,"ax",%progbits
 1888              		.align	1
ARM GAS  C:\Users\Alex\AppData\Local\Temp\cc0G22cc.s 			page 66


 1889              		.syntax unified
 1890              		.thumb
 1891              		.thumb_func
 1893              	scr_load_anim_start:
 1894              	.LVL167:
 1895              	.LFB292:
 990:Lib/lvgl/src/display/lv_display.c ****     lv_display_t * d = lv_obj_get_display(a->var);
 1896              		.loc 1 990 1 is_stmt 1 view -0
 1897              		.cfi_startproc
 1898              		@ args = 0, pretend = 0, frame = 0
 1899              		@ frame_needed = 0, uses_anonymous_args = 0
 990:Lib/lvgl/src/display/lv_display.c ****     lv_display_t * d = lv_obj_get_display(a->var);
 1900              		.loc 1 990 1 is_stmt 0 view .LVU460
 1901 0000 38B5     		push	{r3, r4, r5, lr}
 1902              	.LCFI32:
 1903              		.cfi_def_cfa_offset 16
 1904              		.cfi_offset 3, -16
 1905              		.cfi_offset 4, -12
 1906              		.cfi_offset 5, -8
 1907              		.cfi_offset 14, -4
 1908 0002 0546     		mov	r5, r0
 991:Lib/lvgl/src/display/lv_display.c **** 
 1909              		.loc 1 991 5 is_stmt 1 view .LVU461
 991:Lib/lvgl/src/display/lv_display.c **** 
 1910              		.loc 1 991 24 is_stmt 0 view .LVU462
 1911 0004 0068     		ldr	r0, [r0]
 1912              	.LVL168:
 991:Lib/lvgl/src/display/lv_display.c **** 
 1913              		.loc 1 991 24 view .LVU463
 1914 0006 FFF7FEFF 		bl	lv_obj_get_display
 1915              	.LVL169:
 1916 000a 0446     		mov	r4, r0
 1917              	.LVL170:
 993:Lib/lvgl/src/display/lv_display.c ****     d->act_scr = a->var;
 1918              		.loc 1 993 5 is_stmt 1 view .LVU464
 993:Lib/lvgl/src/display/lv_display.c ****     d->act_scr = a->var;
 1919              		.loc 1 993 19 is_stmt 0 view .LVU465
 1920 000c FFF7FEFF 		bl	lv_screen_active
 1921              	.LVL171:
 993:Lib/lvgl/src/display/lv_display.c ****     d->act_scr = a->var;
 1922              		.loc 1 993 17 view .LVU466
 1923 0010 C4F8B402 		str	r0, [r4, #692]
 994:Lib/lvgl/src/display/lv_display.c **** 
 1924              		.loc 1 994 5 is_stmt 1 view .LVU467
 994:Lib/lvgl/src/display/lv_display.c **** 
 1925              		.loc 1 994 19 is_stmt 0 view .LVU468
 1926 0014 2868     		ldr	r0, [r5]
 994:Lib/lvgl/src/display/lv_display.c **** 
 1927              		.loc 1 994 16 view .LVU469
 1928 0016 C4F8B002 		str	r0, [r4, #688]
 996:Lib/lvgl/src/display/lv_display.c **** }
 1929              		.loc 1 996 5 is_stmt 1 view .LVU470
 1930 001a 0022     		movs	r2, #0
 1931 001c 2821     		movs	r1, #40
 1932 001e FFF7FEFF 		bl	lv_obj_send_event
 1933              	.LVL172:
 997:Lib/lvgl/src/display/lv_display.c **** 
ARM GAS  C:\Users\Alex\AppData\Local\Temp\cc0G22cc.s 			page 67


 1934              		.loc 1 997 1 is_stmt 0 view .LVU471
 1935 0022 38BD     		pop	{r3, r4, r5, pc}
 997:Lib/lvgl/src/display/lv_display.c **** 
 1936              		.loc 1 997 1 view .LVU472
 1937              		.cfi_endproc
 1938              	.LFE292:
 1940              		.section	.text.lv_display_get_screen_prev,"ax",%progbits
 1941              		.align	1
 1942              		.global	lv_display_get_screen_prev
 1943              		.syntax unified
 1944              		.thumb
 1945              		.thumb_func
 1947              	lv_display_get_screen_prev:
 1948              	.LVL173:
 1949              	.LFB263:
 518:Lib/lvgl/src/display/lv_display.c ****     if(!disp) disp = lv_display_get_default();
 1950              		.loc 1 518 1 is_stmt 1 view -0
 1951              		.cfi_startproc
 1952              		@ args = 0, pretend = 0, frame = 0
 1953              		@ frame_needed = 0, uses_anonymous_args = 0
 518:Lib/lvgl/src/display/lv_display.c ****     if(!disp) disp = lv_display_get_default();
 1954              		.loc 1 518 1 is_stmt 0 view .LVU474
 1955 0000 08B5     		push	{r3, lr}
 1956              	.LCFI33:
 1957              		.cfi_def_cfa_offset 8
 1958              		.cfi_offset 3, -8
 1959              		.cfi_offset 14, -4
 519:Lib/lvgl/src/display/lv_display.c ****     if(!disp) {
 1960              		.loc 1 519 5 is_stmt 1 view .LVU475
 519:Lib/lvgl/src/display/lv_display.c ****     if(!disp) {
 1961              		.loc 1 519 7 is_stmt 0 view .LVU476
 1962 0002 0346     		mov	r3, r0
 1963 0004 10B1     		cbz	r0, .L184
 1964              	.L180:
 1965              	.LVL174:
 525:Lib/lvgl/src/display/lv_display.c **** }
 1966              		.loc 1 525 5 is_stmt 1 view .LVU477
 525:Lib/lvgl/src/display/lv_display.c **** }
 1967              		.loc 1 525 16 is_stmt 0 view .LVU478
 1968 0006 D3F8B402 		ldr	r0, [r3, #692]
 1969              	.L179:
 526:Lib/lvgl/src/display/lv_display.c **** 
 1970              		.loc 1 526 1 view .LVU479
 1971 000a 08BD     		pop	{r3, pc}
 1972              	.LVL175:
 1973              	.L184:
 519:Lib/lvgl/src/display/lv_display.c ****     if(!disp) {
 1974              		.loc 1 519 15 is_stmt 1 discriminator 1 view .LVU480
 519:Lib/lvgl/src/display/lv_display.c ****     if(!disp) {
 1975              		.loc 1 519 22 is_stmt 0 discriminator 1 view .LVU481
 1976 000c FFF7FEFF 		bl	lv_display_get_default
 1977              	.LVL176:
 520:Lib/lvgl/src/display/lv_display.c ****         LV_LOG_WARN("no display registered to get its previous screen");
 1978              		.loc 1 520 5 is_stmt 1 discriminator 1 view .LVU482
 520:Lib/lvgl/src/display/lv_display.c ****         LV_LOG_WARN("no display registered to get its previous screen");
 1979              		.loc 1 520 7 is_stmt 0 discriminator 1 view .LVU483
 1980 0010 0346     		mov	r3, r0
ARM GAS  C:\Users\Alex\AppData\Local\Temp\cc0G22cc.s 			page 68


 1981 0012 0028     		cmp	r0, #0
 1982 0014 F7D1     		bne	.L180
 1983 0016 F8E7     		b	.L179
 1984              		.cfi_endproc
 1985              	.LFE263:
 1987              		.section	.text.lv_display_get_layer_top,"ax",%progbits
 1988              		.align	1
 1989              		.global	lv_display_get_layer_top
 1990              		.syntax unified
 1991              		.thumb
 1992              		.thumb_func
 1994              	lv_display_get_layer_top:
 1995              	.LVL177:
 1996              	.LFB264:
 529:Lib/lvgl/src/display/lv_display.c ****     if(!disp) disp = lv_display_get_default();
 1997              		.loc 1 529 1 is_stmt 1 view -0
 1998              		.cfi_startproc
 1999              		@ args = 0, pretend = 0, frame = 0
 2000              		@ frame_needed = 0, uses_anonymous_args = 0
 529:Lib/lvgl/src/display/lv_display.c ****     if(!disp) disp = lv_display_get_default();
 2001              		.loc 1 529 1 is_stmt 0 view .LVU485
 2002 0000 08B5     		push	{r3, lr}
 2003              	.LCFI34:
 2004              		.cfi_def_cfa_offset 8
 2005              		.cfi_offset 3, -8
 2006              		.cfi_offset 14, -4
 530:Lib/lvgl/src/display/lv_display.c ****     if(!disp) {
 2007              		.loc 1 530 5 is_stmt 1 view .LVU486
 530:Lib/lvgl/src/display/lv_display.c ****     if(!disp) {
 2008              		.loc 1 530 7 is_stmt 0 view .LVU487
 2009 0002 0346     		mov	r3, r0
 2010 0004 10B1     		cbz	r0, .L190
 2011              	.L186:
 2012              	.LVL178:
 536:Lib/lvgl/src/display/lv_display.c **** }
 2013              		.loc 1 536 5 is_stmt 1 view .LVU488
 536:Lib/lvgl/src/display/lv_display.c **** }
 2014              		.loc 1 536 16 is_stmt 0 view .LVU489
 2015 0006 D3F8C002 		ldr	r0, [r3, #704]
 2016              	.L185:
 537:Lib/lvgl/src/display/lv_display.c **** 
 2017              		.loc 1 537 1 view .LVU490
 2018 000a 08BD     		pop	{r3, pc}
 2019              	.LVL179:
 2020              	.L190:
 530:Lib/lvgl/src/display/lv_display.c ****     if(!disp) {
 2021              		.loc 1 530 15 is_stmt 1 discriminator 1 view .LVU491
 530:Lib/lvgl/src/display/lv_display.c ****     if(!disp) {
 2022              		.loc 1 530 22 is_stmt 0 discriminator 1 view .LVU492
 2023 000c FFF7FEFF 		bl	lv_display_get_default
 2024              	.LVL180:
 531:Lib/lvgl/src/display/lv_display.c ****         LV_LOG_WARN("lv_layer_top: no display registered to get its top layer");
 2025              		.loc 1 531 5 is_stmt 1 discriminator 1 view .LVU493
 531:Lib/lvgl/src/display/lv_display.c ****         LV_LOG_WARN("lv_layer_top: no display registered to get its top layer");
 2026              		.loc 1 531 7 is_stmt 0 discriminator 1 view .LVU494
 2027 0010 0346     		mov	r3, r0
 2028 0012 0028     		cmp	r0, #0
ARM GAS  C:\Users\Alex\AppData\Local\Temp\cc0G22cc.s 			page 69


 2029 0014 F7D1     		bne	.L186
 2030 0016 F8E7     		b	.L185
 2031              		.cfi_endproc
 2032              	.LFE264:
 2034              		.section	.text.lv_display_get_layer_sys,"ax",%progbits
 2035              		.align	1
 2036              		.global	lv_display_get_layer_sys
 2037              		.syntax unified
 2038              		.thumb
 2039              		.thumb_func
 2041              	lv_display_get_layer_sys:
 2042              	.LVL181:
 2043              	.LFB265:
 540:Lib/lvgl/src/display/lv_display.c ****     if(!disp) disp = lv_display_get_default();
 2044              		.loc 1 540 1 is_stmt 1 view -0
 2045              		.cfi_startproc
 2046              		@ args = 0, pretend = 0, frame = 0
 2047              		@ frame_needed = 0, uses_anonymous_args = 0
 540:Lib/lvgl/src/display/lv_display.c ****     if(!disp) disp = lv_display_get_default();
 2048              		.loc 1 540 1 is_stmt 0 view .LVU496
 2049 0000 08B5     		push	{r3, lr}
 2050              	.LCFI35:
 2051              		.cfi_def_cfa_offset 8
 2052              		.cfi_offset 3, -8
 2053              		.cfi_offset 14, -4
 541:Lib/lvgl/src/display/lv_display.c ****     if(!disp) {
 2054              		.loc 1 541 5 is_stmt 1 view .LVU497
 541:Lib/lvgl/src/display/lv_display.c ****     if(!disp) {
 2055              		.loc 1 541 7 is_stmt 0 view .LVU498
 2056 0002 0346     		mov	r3, r0
 2057 0004 10B1     		cbz	r0, .L196
 2058              	.L192:
 2059              	.LVL182:
 547:Lib/lvgl/src/display/lv_display.c **** }
 2060              		.loc 1 547 5 is_stmt 1 view .LVU499
 547:Lib/lvgl/src/display/lv_display.c **** }
 2061              		.loc 1 547 16 is_stmt 0 view .LVU500
 2062 0006 D3F8C402 		ldr	r0, [r3, #708]
 2063              	.L191:
 548:Lib/lvgl/src/display/lv_display.c **** 
 2064              		.loc 1 548 1 view .LVU501
 2065 000a 08BD     		pop	{r3, pc}
 2066              	.LVL183:
 2067              	.L196:
 541:Lib/lvgl/src/display/lv_display.c ****     if(!disp) {
 2068              		.loc 1 541 15 is_stmt 1 discriminator 1 view .LVU502
 541:Lib/lvgl/src/display/lv_display.c ****     if(!disp) {
 2069              		.loc 1 541 22 is_stmt 0 discriminator 1 view .LVU503
 2070 000c FFF7FEFF 		bl	lv_display_get_default
 2071              	.LVL184:
 542:Lib/lvgl/src/display/lv_display.c ****         LV_LOG_WARN("lv_layer_sys: no display registered to get its sys. layer");
 2072              		.loc 1 542 5 is_stmt 1 discriminator 1 view .LVU504
 542:Lib/lvgl/src/display/lv_display.c ****         LV_LOG_WARN("lv_layer_sys: no display registered to get its sys. layer");
 2073              		.loc 1 542 7 is_stmt 0 discriminator 1 view .LVU505
 2074 0010 0346     		mov	r3, r0
 2075 0012 0028     		cmp	r0, #0
 2076 0014 F7D1     		bne	.L192
ARM GAS  C:\Users\Alex\AppData\Local\Temp\cc0G22cc.s 			page 70


 2077 0016 F8E7     		b	.L191
 2078              		.cfi_endproc
 2079              	.LFE265:
 2081              		.section	.text.lv_display_get_layer_bottom,"ax",%progbits
 2082              		.align	1
 2083              		.global	lv_display_get_layer_bottom
 2084              		.syntax unified
 2085              		.thumb
 2086              		.thumb_func
 2088              	lv_display_get_layer_bottom:
 2089              	.LVL185:
 2090              	.LFB266:
 551:Lib/lvgl/src/display/lv_display.c ****     if(!disp) disp = lv_display_get_default();
 2091              		.loc 1 551 1 is_stmt 1 view -0
 2092              		.cfi_startproc
 2093              		@ args = 0, pretend = 0, frame = 0
 2094              		@ frame_needed = 0, uses_anonymous_args = 0
 551:Lib/lvgl/src/display/lv_display.c ****     if(!disp) disp = lv_display_get_default();
 2095              		.loc 1 551 1 is_stmt 0 view .LVU507
 2096 0000 08B5     		push	{r3, lr}
 2097              	.LCFI36:
 2098              		.cfi_def_cfa_offset 8
 2099              		.cfi_offset 3, -8
 2100              		.cfi_offset 14, -4
 552:Lib/lvgl/src/display/lv_display.c ****     if(!disp) {
 2101              		.loc 1 552 5 is_stmt 1 view .LVU508
 552:Lib/lvgl/src/display/lv_display.c ****     if(!disp) {
 2102              		.loc 1 552 7 is_stmt 0 view .LVU509
 2103 0002 0346     		mov	r3, r0
 2104 0004 10B1     		cbz	r0, .L202
 2105              	.L198:
 2106              	.LVL186:
 558:Lib/lvgl/src/display/lv_display.c **** }
 2107              		.loc 1 558 5 is_stmt 1 view .LVU510
 558:Lib/lvgl/src/display/lv_display.c **** }
 2108              		.loc 1 558 16 is_stmt 0 view .LVU511
 2109 0006 D3F8BC02 		ldr	r0, [r3, #700]
 2110              	.L197:
 559:Lib/lvgl/src/display/lv_display.c **** 
 2111              		.loc 1 559 1 view .LVU512
 2112 000a 08BD     		pop	{r3, pc}
 2113              	.LVL187:
 2114              	.L202:
 552:Lib/lvgl/src/display/lv_display.c ****     if(!disp) {
 2115              		.loc 1 552 15 is_stmt 1 discriminator 1 view .LVU513
 552:Lib/lvgl/src/display/lv_display.c ****     if(!disp) {
 2116              		.loc 1 552 22 is_stmt 0 discriminator 1 view .LVU514
 2117 000c FFF7FEFF 		bl	lv_display_get_default
 2118              	.LVL188:
 553:Lib/lvgl/src/display/lv_display.c ****         LV_LOG_WARN("lv_layer_bottom: no display registered to get its bottom layer");
 2119              		.loc 1 553 5 is_stmt 1 discriminator 1 view .LVU515
 553:Lib/lvgl/src/display/lv_display.c ****         LV_LOG_WARN("lv_layer_bottom: no display registered to get its bottom layer");
 2120              		.loc 1 553 7 is_stmt 0 discriminator 1 view .LVU516
 2121 0010 0346     		mov	r3, r0
 2122 0012 0028     		cmp	r0, #0
 2123 0014 F7D1     		bne	.L198
 2124 0016 F8E7     		b	.L197
ARM GAS  C:\Users\Alex\AppData\Local\Temp\cc0G22cc.s 			page 71


 2125              		.cfi_endproc
 2126              	.LFE266:
 2128              		.section	.text.lv_screen_load_anim,"ax",%progbits
 2129              		.align	1
 2130              		.global	lv_screen_load_anim
 2131              		.syntax unified
 2132              		.thumb
 2133              		.thumb_func
 2135              	lv_screen_load_anim:
 2136              	.LVL189:
 2137              	.LFB268:
 568:Lib/lvgl/src/display/lv_display.c ****     lv_display_t * d = lv_obj_get_display(new_scr);
 2138              		.loc 1 568 1 is_stmt 1 view -0
 2139              		.cfi_startproc
 2140              		@ args = 4, pretend = 0, frame = 176
 2141              		@ frame_needed = 0, uses_anonymous_args = 0
 568:Lib/lvgl/src/display/lv_display.c ****     lv_display_t * d = lv_obj_get_display(new_scr);
 2142              		.loc 1 568 1 is_stmt 0 view .LVU518
 2143 0000 2DE9F047 		push	{r4, r5, r6, r7, r8, r9, r10, lr}
 2144              	.LCFI37:
 2145              		.cfi_def_cfa_offset 32
 2146              		.cfi_offset 4, -32
 2147              		.cfi_offset 5, -28
 2148              		.cfi_offset 6, -24
 2149              		.cfi_offset 7, -20
 2150              		.cfi_offset 8, -16
 2151              		.cfi_offset 9, -12
 2152              		.cfi_offset 10, -8
 2153              		.cfi_offset 14, -4
 2154 0004 ACB0     		sub	sp, sp, #176
 2155              	.LCFI38:
 2156              		.cfi_def_cfa_offset 208
 2157 0006 0646     		mov	r6, r0
 2158 0008 8846     		mov	r8, r1
 2159 000a 9146     		mov	r9, r2
 2160 000c 1F46     		mov	r7, r3
 2161 000e 9DF8D0A0 		ldrb	r10, [sp, #208]	@ zero_extendqisi2
 569:Lib/lvgl/src/display/lv_display.c ****     lv_obj_t * act_scr = lv_screen_active();
 2162              		.loc 1 569 5 is_stmt 1 view .LVU519
 569:Lib/lvgl/src/display/lv_display.c ****     lv_obj_t * act_scr = lv_screen_active();
 2163              		.loc 1 569 24 is_stmt 0 view .LVU520
 2164 0012 FFF7FEFF 		bl	lv_obj_get_display
 2165              	.LVL190:
 569:Lib/lvgl/src/display/lv_display.c ****     lv_obj_t * act_scr = lv_screen_active();
 2166              		.loc 1 569 24 view .LVU521
 2167 0016 0546     		mov	r5, r0
 2168              	.LVL191:
 570:Lib/lvgl/src/display/lv_display.c **** 
 2169              		.loc 1 570 5 is_stmt 1 view .LVU522
 570:Lib/lvgl/src/display/lv_display.c **** 
 2170              		.loc 1 570 26 is_stmt 0 view .LVU523
 2171 0018 FFF7FEFF 		bl	lv_screen_active
 2172              	.LVL192:
 572:Lib/lvgl/src/display/lv_display.c ****         return;
 2173              		.loc 1 572 5 is_stmt 1 view .LVU524
 572:Lib/lvgl/src/display/lv_display.c ****         return;
 2174              		.loc 1 572 7 is_stmt 0 view .LVU525
ARM GAS  C:\Users\Alex\AppData\Local\Temp\cc0G22cc.s 			page 72


 2175 001c 8642     		cmp	r6, r0
 2176 001e 00F0B080 		beq	.L203
 2177 0022 0446     		mov	r4, r0
 572:Lib/lvgl/src/display/lv_display.c ****         return;
 2178              		.loc 1 572 31 discriminator 1 view .LVU526
 2179 0024 D5F8B802 		ldr	r0, [r5, #696]
 2180              	.LVL193:
 572:Lib/lvgl/src/display/lv_display.c ****         return;
 2181              		.loc 1 572 27 discriminator 1 view .LVU527
 2182 0028 B042     		cmp	r0, r6
 2183 002a 00F0AA80 		beq	.L203
 578:Lib/lvgl/src/display/lv_display.c ****         lv_anim_delete(d->scr_to_load, NULL);
 2184              		.loc 1 578 5 is_stmt 1 view .LVU528
 578:Lib/lvgl/src/display/lv_display.c ****         lv_anim_delete(d->scr_to_load, NULL);
 2185              		.loc 1 578 7 is_stmt 0 view .LVU529
 2186 002e E0B1     		cbz	r0, .L205
 578:Lib/lvgl/src/display/lv_display.c ****         lv_anim_delete(d->scr_to_load, NULL);
 2187              		.loc 1 578 23 discriminator 1 view .LVU530
 2188 0030 A042     		cmp	r0, r4
 2189 0032 1AD0     		beq	.L205
 579:Lib/lvgl/src/display/lv_display.c ****         lv_obj_set_pos(d->scr_to_load, 0, 0);
 2190              		.loc 1 579 9 is_stmt 1 view .LVU531
 2191 0034 0021     		movs	r1, #0
 2192 0036 FFF7FEFF 		bl	lv_anim_delete
 2193              	.LVL194:
 580:Lib/lvgl/src/display/lv_display.c ****         lv_obj_remove_local_style_prop(d->scr_to_load, LV_STYLE_OPA, 0);
 2194              		.loc 1 580 9 view .LVU532
 2195 003a 0022     		movs	r2, #0
 2196 003c 1146     		mov	r1, r2
 2197 003e D5F8B802 		ldr	r0, [r5, #696]
 2198 0042 FFF7FEFF 		bl	lv_obj_set_pos
 2199              	.LVL195:
 581:Lib/lvgl/src/display/lv_display.c **** 
 2200              		.loc 1 581 9 view .LVU533
 2201 0046 0022     		movs	r2, #0
 2202 0048 5F21     		movs	r1, #95
 2203 004a D5F8B802 		ldr	r0, [r5, #696]
 2204 004e FFF7FEFF 		bl	lv_obj_remove_local_style_prop
 2205              	.LVL196:
 583:Lib/lvgl/src/display/lv_display.c ****             lv_obj_delete(act_scr);
 2206              		.loc 1 583 9 view .LVU534
 583:Lib/lvgl/src/display/lv_display.c ****             lv_obj_delete(act_scr);
 2207              		.loc 1 583 12 is_stmt 0 view .LVU535
 2208 0052 95F8CC32 		ldrb	r3, [r5, #716]	@ zero_extendqisi2
 583:Lib/lvgl/src/display/lv_display.c ****             lv_obj_delete(act_scr);
 2209              		.loc 1 583 11 view .LVU536
 2210 0056 13F0020F 		tst	r3, #2
 2211 005a 68D1     		bne	.L235
 2212              	.L206:
 586:Lib/lvgl/src/display/lv_display.c **** 
 2213              		.loc 1 586 9 is_stmt 1 view .LVU537
 586:Lib/lvgl/src/display/lv_display.c **** 
 2214              		.loc 1 586 19 is_stmt 0 view .LVU538
 2215 005c FFF7FEFF 		bl	lv_screen_active
 2216              	.LVL197:
 2217 0060 0446     		mov	r4, r0
 2218              	.LVL198:
ARM GAS  C:\Users\Alex\AppData\Local\Temp\cc0G22cc.s 			page 73


 588:Lib/lvgl/src/display/lv_display.c ****     }
 2219              		.loc 1 588 9 is_stmt 1 view .LVU539
 2220 0062 D5F8B802 		ldr	r0, [r5, #696]
 2221              	.LVL199:
 588:Lib/lvgl/src/display/lv_display.c ****     }
 2222              		.loc 1 588 9 is_stmt 0 view .LVU540
 2223 0066 FFF7FEFF 		bl	scr_load_internal
 2224              	.LVL200:
 2225              	.L205:
 591:Lib/lvgl/src/display/lv_display.c **** 
 2226              		.loc 1 591 5 is_stmt 1 view .LVU541
 591:Lib/lvgl/src/display/lv_display.c **** 
 2227              		.loc 1 591 20 is_stmt 0 view .LVU542
 2228 006a C5F8B862 		str	r6, [r5, #696]
 593:Lib/lvgl/src/display/lv_display.c ****         lv_obj_delete(d->prev_scr);
 2229              		.loc 1 593 5 is_stmt 1 view .LVU543
 593:Lib/lvgl/src/display/lv_display.c ****         lv_obj_delete(d->prev_scr);
 2230              		.loc 1 593 9 is_stmt 0 view .LVU544
 2231 006e D5F8B402 		ldr	r0, [r5, #692]
 593:Lib/lvgl/src/display/lv_display.c ****         lv_obj_delete(d->prev_scr);
 2232              		.loc 1 593 7 view .LVU545
 2233 0072 20B1     		cbz	r0, .L207
 593:Lib/lvgl/src/display/lv_display.c ****         lv_obj_delete(d->prev_scr);
 2234              		.loc 1 593 20 discriminator 1 view .LVU546
 2235 0074 95F8CC32 		ldrb	r3, [r5, #716]	@ zero_extendqisi2
 2236 0078 13F0020F 		tst	r3, #2
 2237 007c 5BD1     		bne	.L236
 2238              	.L207:
 598:Lib/lvgl/src/display/lv_display.c ****     d->del_prev = auto_del;
 2239              		.loc 1 598 5 is_stmt 1 view .LVU547
 598:Lib/lvgl/src/display/lv_display.c ****     d->del_prev = auto_del;
 2240              		.loc 1 598 29 is_stmt 0 view .LVU548
 2241 007e 4046     		mov	r0, r8
 2242 0080 FFF7FEFF 		bl	is_out_anim
 2243              	.LVL201:
 598:Lib/lvgl/src/display/lv_display.c ****     d->del_prev = auto_del;
 2244              		.loc 1 598 27 view .LVU549
 2245 0084 95F8CC32 		ldrb	r3, [r5, #716]	@ zero_extendqisi2
 2246 0088 60F30003 		bfi	r3, r0, #0, #1
 2247 008c 85F8CC32 		strb	r3, [r5, #716]
 599:Lib/lvgl/src/display/lv_display.c **** 
 2248              		.loc 1 599 5 is_stmt 1 view .LVU550
 599:Lib/lvgl/src/display/lv_display.c **** 
 2249              		.loc 1 599 17 is_stmt 0 view .LVU551
 2250 0090 DBB2     		uxtb	r3, r3
 2251 0092 6AF34103 		bfi	r3, r10, #1, #1
 2252 0096 85F8CC32 		strb	r3, [r5, #716]
 602:Lib/lvgl/src/display/lv_display.c ****     if(act_scr) lv_anim_delete(act_scr, NULL);
 2253              		.loc 1 602 5 is_stmt 1 view .LVU552
 2254 009a 0021     		movs	r1, #0
 2255 009c 3046     		mov	r0, r6
 2256 009e FFF7FEFF 		bl	lv_anim_delete
 2257              	.LVL202:
 603:Lib/lvgl/src/display/lv_display.c **** 
 2258              		.loc 1 603 5 view .LVU553
 603:Lib/lvgl/src/display/lv_display.c **** 
 2259              		.loc 1 603 7 is_stmt 0 view .LVU554
ARM GAS  C:\Users\Alex\AppData\Local\Temp\cc0G22cc.s 			page 74


 2260 00a2 1CB1     		cbz	r4, .L208
 603:Lib/lvgl/src/display/lv_display.c **** 
 2261              		.loc 1 603 17 is_stmt 1 discriminator 1 view .LVU555
 2262 00a4 0021     		movs	r1, #0
 2263 00a6 2046     		mov	r0, r4
 2264 00a8 FFF7FEFF 		bl	lv_anim_delete
 2265              	.LVL203:
 2266              	.L208:
 606:Lib/lvgl/src/display/lv_display.c ****     if(act_scr) lv_obj_set_pos(act_scr, 0, 0);
 2267              		.loc 1 606 5 view .LVU556
 2268 00ac 0022     		movs	r2, #0
 2269 00ae 1146     		mov	r1, r2
 2270 00b0 3046     		mov	r0, r6
 2271 00b2 FFF7FEFF 		bl	lv_obj_set_pos
 2272              	.LVL204:
 607:Lib/lvgl/src/display/lv_display.c ****     lv_obj_remove_local_style_prop(new_scr, LV_STYLE_OPA, 0);
 2273              		.loc 1 607 5 view .LVU557
 607:Lib/lvgl/src/display/lv_display.c ****     lv_obj_remove_local_style_prop(new_scr, LV_STYLE_OPA, 0);
 2274              		.loc 1 607 7 is_stmt 0 view .LVU558
 2275 00b6 24B1     		cbz	r4, .L209
 607:Lib/lvgl/src/display/lv_display.c ****     lv_obj_remove_local_style_prop(new_scr, LV_STYLE_OPA, 0);
 2276              		.loc 1 607 17 is_stmt 1 discriminator 1 view .LVU559
 2277 00b8 0022     		movs	r2, #0
 2278 00ba 1146     		mov	r1, r2
 2279 00bc 2046     		mov	r0, r4
 2280 00be FFF7FEFF 		bl	lv_obj_set_pos
 2281              	.LVL205:
 2282              	.L209:
 608:Lib/lvgl/src/display/lv_display.c ****     if(act_scr) lv_obj_remove_local_style_prop(act_scr, LV_STYLE_OPA, 0);
 2283              		.loc 1 608 5 view .LVU560
 2284 00c2 0022     		movs	r2, #0
 2285 00c4 5F21     		movs	r1, #95
 2286 00c6 3046     		mov	r0, r6
 2287 00c8 FFF7FEFF 		bl	lv_obj_remove_local_style_prop
 2288              	.LVL206:
 609:Lib/lvgl/src/display/lv_display.c **** 
 2289              		.loc 1 609 5 view .LVU561
 609:Lib/lvgl/src/display/lv_display.c **** 
 2290              		.loc 1 609 7 is_stmt 0 view .LVU562
 2291 00cc 24B1     		cbz	r4, .L210
 609:Lib/lvgl/src/display/lv_display.c **** 
 2292              		.loc 1 609 17 is_stmt 1 discriminator 1 view .LVU563
 2293 00ce 0022     		movs	r2, #0
 2294 00d0 5F21     		movs	r1, #95
 2295 00d2 2046     		mov	r0, r4
 2296 00d4 FFF7FEFF 		bl	lv_obj_remove_local_style_prop
 2297              	.LVL207:
 2298              	.L210:
 612:Lib/lvgl/src/display/lv_display.c ****         scr_load_internal(new_scr);
 2299              		.loc 1 612 5 view .LVU564
 612:Lib/lvgl/src/display/lv_display.c ****         scr_load_internal(new_scr);
 2300              		.loc 1 612 7 is_stmt 0 view .LVU565
 2301 00d8 B9F1000F 		cmp	r9, #0
 2302 00dc 00D1     		bne	.L211
 612:Lib/lvgl/src/display/lv_display.c ****         scr_load_internal(new_scr);
 2303              		.loc 1 612 18 discriminator 1 view .LVU566
 2304 00de 87B3     		cbz	r7, .L237
ARM GAS  C:\Users\Alex\AppData\Local\Temp\cc0G22cc.s 			page 75


 2305              	.L211:
 618:Lib/lvgl/src/display/lv_display.c ****     lv_anim_init(&a_new);
 2306              		.loc 1 618 5 is_stmt 1 view .LVU567
 619:Lib/lvgl/src/display/lv_display.c ****     lv_anim_set_var(&a_new, new_scr);
 2307              		.loc 1 619 5 view .LVU568
 2308 00e0 16A8     		add	r0, sp, #88
 2309 00e2 FFF7FEFF 		bl	lv_anim_init
 2310              	.LVL208:
 620:Lib/lvgl/src/display/lv_display.c ****     lv_anim_set_start_cb(&a_new, scr_load_anim_start);
 2311              		.loc 1 620 5 view .LVU569
 2312              	.LBB104:
 2313              	.LBI104:
 2314              		.file 3 "Lib/lvgl/src/display/../draw/../misc/lv_anim.h"
   1:Lib/lvgl/src/display/../draw/../misc/lv_anim.h **** /**
   2:Lib/lvgl/src/display/../draw/../misc/lv_anim.h ****  * @file lv_anim.h
   3:Lib/lvgl/src/display/../draw/../misc/lv_anim.h ****  *
   4:Lib/lvgl/src/display/../draw/../misc/lv_anim.h ****  */
   5:Lib/lvgl/src/display/../draw/../misc/lv_anim.h **** 
   6:Lib/lvgl/src/display/../draw/../misc/lv_anim.h **** #ifndef LV_ANIM_H
   7:Lib/lvgl/src/display/../draw/../misc/lv_anim.h **** #define LV_ANIM_H
   8:Lib/lvgl/src/display/../draw/../misc/lv_anim.h **** 
   9:Lib/lvgl/src/display/../draw/../misc/lv_anim.h **** #ifdef __cplusplus
  10:Lib/lvgl/src/display/../draw/../misc/lv_anim.h **** extern "C" {
  11:Lib/lvgl/src/display/../draw/../misc/lv_anim.h **** #endif
  12:Lib/lvgl/src/display/../draw/../misc/lv_anim.h **** 
  13:Lib/lvgl/src/display/../draw/../misc/lv_anim.h **** /*********************
  14:Lib/lvgl/src/display/../draw/../misc/lv_anim.h ****  *      INCLUDES
  15:Lib/lvgl/src/display/../draw/../misc/lv_anim.h ****  *********************/
  16:Lib/lvgl/src/display/../draw/../misc/lv_anim.h **** #include "../lv_conf_internal.h"
  17:Lib/lvgl/src/display/../draw/../misc/lv_anim.h **** #include "lv_types.h"
  18:Lib/lvgl/src/display/../draw/../misc/lv_anim.h **** #include "lv_math.h"
  19:Lib/lvgl/src/display/../draw/../misc/lv_anim.h **** #include "lv_timer.h"
  20:Lib/lvgl/src/display/../draw/../misc/lv_anim.h **** #include "lv_ll.h"
  21:Lib/lvgl/src/display/../draw/../misc/lv_anim.h **** 
  22:Lib/lvgl/src/display/../draw/../misc/lv_anim.h **** #include <stdint.h>
  23:Lib/lvgl/src/display/../draw/../misc/lv_anim.h **** #include <stdbool.h>
  24:Lib/lvgl/src/display/../draw/../misc/lv_anim.h **** #include <stddef.h>
  25:Lib/lvgl/src/display/../draw/../misc/lv_anim.h **** 
  26:Lib/lvgl/src/display/../draw/../misc/lv_anim.h **** /*********************
  27:Lib/lvgl/src/display/../draw/../misc/lv_anim.h ****  *      DEFINES
  28:Lib/lvgl/src/display/../draw/../misc/lv_anim.h ****  *********************/
  29:Lib/lvgl/src/display/../draw/../misc/lv_anim.h **** 
  30:Lib/lvgl/src/display/../draw/../misc/lv_anim.h **** #define LV_ANIM_REPEAT_INFINITE      0xFFFF
  31:Lib/lvgl/src/display/../draw/../misc/lv_anim.h **** #define LV_ANIM_PLAYTIME_INFINITE    0xFFFFFFFF
  32:Lib/lvgl/src/display/../draw/../misc/lv_anim.h **** 
  33:Lib/lvgl/src/display/../draw/../misc/lv_anim.h **** /*
  34:Lib/lvgl/src/display/../draw/../misc/lv_anim.h ****  * Macros used to set cubic-bezier anim parameter.
  35:Lib/lvgl/src/display/../draw/../misc/lv_anim.h ****  * Parameters come from https://easings.net/
  36:Lib/lvgl/src/display/../draw/../misc/lv_anim.h ****  *
  37:Lib/lvgl/src/display/../draw/../misc/lv_anim.h ****  * Usage:
  38:Lib/lvgl/src/display/../draw/../misc/lv_anim.h ****  *
  39:Lib/lvgl/src/display/../draw/../misc/lv_anim.h ****  * lv_anim_t a;
  40:Lib/lvgl/src/display/../draw/../misc/lv_anim.h ****  * lv_anim_init(&a);
  41:Lib/lvgl/src/display/../draw/../misc/lv_anim.h ****  * ...
  42:Lib/lvgl/src/display/../draw/../misc/lv_anim.h ****  * lv_anim_set_path_cb(&a, lv_anim_path_custom_bezier3);
  43:Lib/lvgl/src/display/../draw/../misc/lv_anim.h ****  * LV_ANIM_SET_EASE_IN_SINE(&a); //Set cubic-bezier anim parameter to easeInSine
  44:Lib/lvgl/src/display/../draw/../misc/lv_anim.h ****  * ...
ARM GAS  C:\Users\Alex\AppData\Local\Temp\cc0G22cc.s 			page 76


  45:Lib/lvgl/src/display/../draw/../misc/lv_anim.h ****  * lv_anim_start(&a);
  46:Lib/lvgl/src/display/../draw/../misc/lv_anim.h ****  */
  47:Lib/lvgl/src/display/../draw/../misc/lv_anim.h **** 
  48:Lib/lvgl/src/display/../draw/../misc/lv_anim.h **** #define _PARA(a, x1, y1, x2, y2) ((a)->parameter.bezier3 =                                  \
  49:Lib/lvgl/src/display/../draw/../misc/lv_anim.h **** (struct _lv_anim_bezier3_para_t) {                      \
  50:Lib/lvgl/src/display/../draw/../misc/lv_anim.h ****     LV_BEZIER_VAL_FLOAT(x1), LV_BEZIER_VAL_FLOAT(y1),   \
  51:Lib/lvgl/src/display/../draw/../misc/lv_anim.h ****     LV_BEZIER_VAL_FLOAT(x2), LV_BEZIER_VAL_FLOAT(y2) }  \
  52:Lib/lvgl/src/display/../draw/../misc/lv_anim.h ****                                  )
  53:Lib/lvgl/src/display/../draw/../misc/lv_anim.h **** 
  54:Lib/lvgl/src/display/../draw/../misc/lv_anim.h **** #define LV_ANIM_SET_EASE_IN_SINE(a) _PARA(a, 0.12, 0, 0.39, 0)
  55:Lib/lvgl/src/display/../draw/../misc/lv_anim.h **** #define LV_ANIM_SET_EASE_OUT_SINE(a) _PARA(a, 0.61, 1, 0.88, 1)
  56:Lib/lvgl/src/display/../draw/../misc/lv_anim.h **** #define LV_ANIM_SET_EASE_IN_OUT_SINE(a) _PARA(a, 0.37, 0, 0.63, 1)
  57:Lib/lvgl/src/display/../draw/../misc/lv_anim.h **** #define LV_ANIM_SET_EASE_IN_QUAD(a) _PARA(a, 0.11, 0, 0.5, 0)
