ARM GAS  C:\Users\Alex\AppData\Local\Temp\cchaUAv6.s 			page 1


   1              		.cpu cortex-m4
   2              		.arch armv7e-m
   3              		.fpu fpv4-sp-d16
   4              		.eabi_attribute 27, 1
   5              		.eabi_attribute 28, 1
   6              		.eabi_attribute 20, 1
   7              		.eabi_attribute 21, 1
   8              		.eabi_attribute 23, 3
   9              		.eabi_attribute 24, 1
  10              		.eabi_attribute 25, 1
  11              		.eabi_attribute 26, 1
  12              		.eabi_attribute 30, 1
  13              		.eabi_attribute 34, 1
  14              		.eabi_attribute 18, 4
  15              		.file	"lv_init.c"
  16              		.text
  17              	.Ltext0:
  18              		.cfi_sections	.debug_frame
  19              		.file 1 "Lib/lvgl/src/lv_init.c"
  20              		.section	.text.lv_global_init,"ax",%progbits
  21              		.align	1
  22              		.syntax unified
  23              		.thumb
  24              		.thumb_func
  26              	lv_global_init:
  27              	.LVL0:
  28              	.LFB256:
   1:Lib/lvgl/src/lv_init.c **** /**
   2:Lib/lvgl/src/lv_init.c ****  * @file lv_init.c
   3:Lib/lvgl/src/lv_init.c ****  *
   4:Lib/lvgl/src/lv_init.c ****  */
   5:Lib/lvgl/src/lv_init.c **** 
   6:Lib/lvgl/src/lv_init.c **** /*********************
   7:Lib/lvgl/src/lv_init.c ****  *      INCLUDES
   8:Lib/lvgl/src/lv_init.c ****  *********************/
   9:Lib/lvgl/src/lv_init.c **** #include "core/lv_global.h"
  10:Lib/lvgl/src/lv_init.c **** #include "core/lv_obj.h"
  11:Lib/lvgl/src/lv_init.c **** #include "display/lv_display_private.h"
  12:Lib/lvgl/src/lv_init.c **** #include "indev/lv_indev_private.h"
  13:Lib/lvgl/src/lv_init.c **** #include "layouts/lv_layout.h"
  14:Lib/lvgl/src/lv_init.c **** #include "libs/bin_decoder/lv_bin_decoder.h"
  15:Lib/lvgl/src/lv_init.c **** #include "libs/bmp/lv_bmp.h"
  16:Lib/lvgl/src/lv_init.c **** #include "libs/ffmpeg/lv_ffmpeg.h"
  17:Lib/lvgl/src/lv_init.c **** #include "libs/freetype/lv_freetype.h"
  18:Lib/lvgl/src/lv_init.c **** #include "libs/fsdrv/lv_fsdrv.h"
  19:Lib/lvgl/src/lv_init.c **** #include "libs/gif/lv_gif.h"
  20:Lib/lvgl/src/lv_init.c **** #include "libs/tjpgd/lv_tjpgd.h"
  21:Lib/lvgl/src/lv_init.c **** #include "libs/libjpeg_turbo/lv_libjpeg_turbo.h"
  22:Lib/lvgl/src/lv_init.c **** #include "libs/lodepng/lv_lodepng.h"
  23:Lib/lvgl/src/lv_init.c **** #include "libs/libpng/lv_libpng.h"
  24:Lib/lvgl/src/lv_init.c **** #include "draw/lv_draw.h"
  25:Lib/lvgl/src/lv_init.c **** #include "misc/lv_async.h"
  26:Lib/lvgl/src/lv_init.c **** #include "misc/lv_fs.h"
  27:Lib/lvgl/src/lv_init.c **** #if LV_USE_DRAW_VGLITE
  28:Lib/lvgl/src/lv_init.c ****     #include "draw/nxp/vglite/lv_draw_vglite.h"
  29:Lib/lvgl/src/lv_init.c **** #endif
  30:Lib/lvgl/src/lv_init.c **** #if LV_USE_DRAW_PXP
ARM GAS  C:\Users\Alex\AppData\Local\Temp\cchaUAv6.s 			page 2


  31:Lib/lvgl/src/lv_init.c ****     #include "draw/nxp/pxp/lv_draw_pxp.h"
  32:Lib/lvgl/src/lv_init.c **** #endif
  33:Lib/lvgl/src/lv_init.c **** #if LV_USE_DRAW_DAVE2D
  34:Lib/lvgl/src/lv_init.c ****     #include "draw/renesas/dave2d/lv_draw_dave2d.h"
  35:Lib/lvgl/src/lv_init.c **** #endif
  36:Lib/lvgl/src/lv_init.c **** #if LV_USE_DRAW_SDL
  37:Lib/lvgl/src/lv_init.c ****     #include "draw/sdl/lv_draw_sdl.h"
  38:Lib/lvgl/src/lv_init.c **** #endif
  39:Lib/lvgl/src/lv_init.c **** #if LV_USE_DRAW_VG_LITE
  40:Lib/lvgl/src/lv_init.c ****     #include "draw/vg_lite/lv_draw_vg_lite.h"
  41:Lib/lvgl/src/lv_init.c **** #endif
  42:Lib/lvgl/src/lv_init.c **** #if LV_USE_WINDOWS
  43:Lib/lvgl/src/lv_init.c ****     #include "drivers/windows/lv_windows_context.h"
  44:Lib/lvgl/src/lv_init.c **** #endif
  45:Lib/lvgl/src/lv_init.c **** 
  46:Lib/lvgl/src/lv_init.c **** /*********************
  47:Lib/lvgl/src/lv_init.c ****  *      DEFINES
  48:Lib/lvgl/src/lv_init.c ****  *********************/
  49:Lib/lvgl/src/lv_init.c **** #define lv_initialized  LV_GLOBAL_DEFAULT()->inited
  50:Lib/lvgl/src/lv_init.c **** #define lv_deinit_in_progress  LV_GLOBAL_DEFAULT()->deinit_in_progress
  51:Lib/lvgl/src/lv_init.c **** 
  52:Lib/lvgl/src/lv_init.c **** /**********************
  53:Lib/lvgl/src/lv_init.c ****  *      TYPEDEFS
  54:Lib/lvgl/src/lv_init.c ****  **********************/
  55:Lib/lvgl/src/lv_init.c **** 
  56:Lib/lvgl/src/lv_init.c **** /**********************
  57:Lib/lvgl/src/lv_init.c ****  *  STATIC PROTOTYPES
  58:Lib/lvgl/src/lv_init.c ****  **********************/
  59:Lib/lvgl/src/lv_init.c **** 
  60:Lib/lvgl/src/lv_init.c **** /**********************
  61:Lib/lvgl/src/lv_init.c ****  *  STATIC VARIABLES
  62:Lib/lvgl/src/lv_init.c ****  **********************/
  63:Lib/lvgl/src/lv_init.c **** #if LV_ENABLE_GLOBAL_CUSTOM == 0
  64:Lib/lvgl/src/lv_init.c ****     lv_global_t lv_global;
  65:Lib/lvgl/src/lv_init.c **** #endif
  66:Lib/lvgl/src/lv_init.c **** 
  67:Lib/lvgl/src/lv_init.c **** /**********************
  68:Lib/lvgl/src/lv_init.c ****  *      MACROS
  69:Lib/lvgl/src/lv_init.c ****  **********************/
  70:Lib/lvgl/src/lv_init.c **** 
  71:Lib/lvgl/src/lv_init.c **** #ifndef LV_GLOBAL_INIT
  72:Lib/lvgl/src/lv_init.c ****     #define LV_GLOBAL_INIT(__GLOBAL_PTR)    lv_global_init((lv_global_t *)(__GLOBAL_PTR))
  73:Lib/lvgl/src/lv_init.c **** #endif
  74:Lib/lvgl/src/lv_init.c **** 
  75:Lib/lvgl/src/lv_init.c **** /**********************
  76:Lib/lvgl/src/lv_init.c ****  *   GLOBAL FUNCTIONS
  77:Lib/lvgl/src/lv_init.c ****  **********************/
  78:Lib/lvgl/src/lv_init.c **** static inline void lv_global_init(lv_global_t * global)
  79:Lib/lvgl/src/lv_init.c **** {
  29              		.loc 1 79 1 view -0
  30              		.cfi_startproc
  31              		@ args = 0, pretend = 0, frame = 0
  32              		@ frame_needed = 0, uses_anonymous_args = 0
  80:Lib/lvgl/src/lv_init.c ****     LV_ASSERT_NULL(global);
  33              		.loc 1 80 5 view .LVU1
  34              		.loc 1 80 5 view .LVU2
  35 0000 10B3     		cbz	r0, .L3
ARM GAS  C:\Users\Alex\AppData\Local\Temp\cchaUAv6.s 			page 3


  79:Lib/lvgl/src/lv_init.c ****     LV_ASSERT_NULL(global);
  36              		.loc 1 79 1 is_stmt 0 view .LVU3
  37 0002 10B5     		push	{r4, lr}
  38              	.LCFI0:
  39              		.cfi_def_cfa_offset 8
  40              		.cfi_offset 4, -8
  41              		.cfi_offset 14, -4
  42 0004 0446     		mov	r4, r0
  43              		.loc 1 80 5 is_stmt 1 view .LVU4
  44              		.loc 1 80 27 view .LVU5
  81:Lib/lvgl/src/lv_init.c **** 
  82:Lib/lvgl/src/lv_init.c ****     if(global == NULL) {
  45              		.loc 1 82 5 view .LVU6
  83:Lib/lvgl/src/lv_init.c ****         LV_LOG_ERROR("lv_global cannot be null");
  84:Lib/lvgl/src/lv_init.c ****         return;
  85:Lib/lvgl/src/lv_init.c ****     }
  86:Lib/lvgl/src/lv_init.c **** 
  87:Lib/lvgl/src/lv_init.c ****     lv_memzero(global, sizeof(lv_global_t));
  46              		.loc 1 87 5 view .LVU7
  47              	.LVL1:
  48              	.LBB4:
  49              	.LBI4:
  50              		.file 2 "Lib/lvgl/src/core/../draw/../misc/../font/../draw/../stdlib/lv_string.h"
   1:Lib/lvgl/src/core/../draw/../misc/../font/../draw/../stdlib/lv_string.h **** /**
   2:Lib/lvgl/src/core/../draw/../misc/../font/../draw/../stdlib/lv_string.h ****  * @file lv_stringn.h
   3:Lib/lvgl/src/core/../draw/../misc/../font/../draw/../stdlib/lv_string.h ****  *
   4:Lib/lvgl/src/core/../draw/../misc/../font/../draw/../stdlib/lv_string.h ****  */
   5:Lib/lvgl/src/core/../draw/../misc/../font/../draw/../stdlib/lv_string.h **** 
   6:Lib/lvgl/src/core/../draw/../misc/../font/../draw/../stdlib/lv_string.h **** #ifndef LV_STRING_H
   7:Lib/lvgl/src/core/../draw/../misc/../font/../draw/../stdlib/lv_string.h **** #define LV_STRING_H
   8:Lib/lvgl/src/core/../draw/../misc/../font/../draw/../stdlib/lv_string.h **** 
   9:Lib/lvgl/src/core/../draw/../misc/../font/../draw/../stdlib/lv_string.h **** #ifdef __cplusplus
  10:Lib/lvgl/src/core/../draw/../misc/../font/../draw/../stdlib/lv_string.h **** extern "C" {
  11:Lib/lvgl/src/core/../draw/../misc/../font/../draw/../stdlib/lv_string.h **** #endif
  12:Lib/lvgl/src/core/../draw/../misc/../font/../draw/../stdlib/lv_string.h **** 
  13:Lib/lvgl/src/core/../draw/../misc/../font/../draw/../stdlib/lv_string.h **** /*********************
  14:Lib/lvgl/src/core/../draw/../misc/../font/../draw/../stdlib/lv_string.h ****  *      INCLUDES
  15:Lib/lvgl/src/core/../draw/../misc/../font/../draw/../stdlib/lv_string.h ****  *********************/
  16:Lib/lvgl/src/core/../draw/../misc/../font/../draw/../stdlib/lv_string.h **** #include "../lv_conf_internal.h"
  17:Lib/lvgl/src/core/../draw/../misc/../font/../draw/../stdlib/lv_string.h **** #include <stdint.h>
  18:Lib/lvgl/src/core/../draw/../misc/../font/../draw/../stdlib/lv_string.h **** #include <stddef.h>
  19:Lib/lvgl/src/core/../draw/../misc/../font/../draw/../stdlib/lv_string.h **** 
  20:Lib/lvgl/src/core/../draw/../misc/../font/../draw/../stdlib/lv_string.h **** /*********************
  21:Lib/lvgl/src/core/../draw/../misc/../font/../draw/../stdlib/lv_string.h ****  *      DEFINES
  22:Lib/lvgl/src/core/../draw/../misc/../font/../draw/../stdlib/lv_string.h ****  *********************/
  23:Lib/lvgl/src/core/../draw/../misc/../font/../draw/../stdlib/lv_string.h **** 
  24:Lib/lvgl/src/core/../draw/../misc/../font/../draw/../stdlib/lv_string.h **** /**********************
  25:Lib/lvgl/src/core/../draw/../misc/../font/../draw/../stdlib/lv_string.h ****  *      TYPEDEFS
  26:Lib/lvgl/src/core/../draw/../misc/../font/../draw/../stdlib/lv_string.h ****  **********************/
  27:Lib/lvgl/src/core/../draw/../misc/../font/../draw/../stdlib/lv_string.h **** 
  28:Lib/lvgl/src/core/../draw/../misc/../font/../draw/../stdlib/lv_string.h **** /**********************
  29:Lib/lvgl/src/core/../draw/../misc/../font/../draw/../stdlib/lv_string.h ****  * GLOBAL PROTOTYPES
  30:Lib/lvgl/src/core/../draw/../misc/../font/../draw/../stdlib/lv_string.h ****  **********************/
  31:Lib/lvgl/src/core/../draw/../misc/../font/../draw/../stdlib/lv_string.h **** 
  32:Lib/lvgl/src/core/../draw/../misc/../font/../draw/../stdlib/lv_string.h **** /**
  33:Lib/lvgl/src/core/../draw/../misc/../font/../draw/../stdlib/lv_string.h ****  * @brief Copies a block of memory from a source address to a destination address.
  34:Lib/lvgl/src/core/../draw/../misc/../font/../draw/../stdlib/lv_string.h ****  * @param dst Pointer to the destination array where the content is to be copied.
ARM GAS  C:\Users\Alex\AppData\Local\Temp\cchaUAv6.s 			page 4


  35:Lib/lvgl/src/core/../draw/../misc/../font/../draw/../stdlib/lv_string.h ****  * @param src Pointer to the source of data to be copied.
  36:Lib/lvgl/src/core/../draw/../misc/../font/../draw/../stdlib/lv_string.h ****  * @param len Number of bytes to copy.
  37:Lib/lvgl/src/core/../draw/../misc/../font/../draw/../stdlib/lv_string.h ****  * @return Pointer to the destination array.
  38:Lib/lvgl/src/core/../draw/../misc/../font/../draw/../stdlib/lv_string.h ****  * @note The function does not check for any overlapping of the source and destination memory block
  39:Lib/lvgl/src/core/../draw/../misc/../font/../draw/../stdlib/lv_string.h ****  */
  40:Lib/lvgl/src/core/../draw/../misc/../font/../draw/../stdlib/lv_string.h **** void * lv_memcpy(void * dst, const void * src, size_t len);
  41:Lib/lvgl/src/core/../draw/../misc/../font/../draw/../stdlib/lv_string.h **** 
  42:Lib/lvgl/src/core/../draw/../misc/../font/../draw/../stdlib/lv_string.h **** /**
  43:Lib/lvgl/src/core/../draw/../misc/../font/../draw/../stdlib/lv_string.h ****  * @brief Fills a block of memory with a specified value.
  44:Lib/lvgl/src/core/../draw/../misc/../font/../draw/../stdlib/lv_string.h ****  * @param dst Pointer to the destination array to fill with the specified value.
  45:Lib/lvgl/src/core/../draw/../misc/../font/../draw/../stdlib/lv_string.h ****  * @param v Value to be set. The value is passed as an int, but the function fills
  46:Lib/lvgl/src/core/../draw/../misc/../font/../draw/../stdlib/lv_string.h ****  *          the block of memory using the unsigned char conversion of this value.
  47:Lib/lvgl/src/core/../draw/../misc/../font/../draw/../stdlib/lv_string.h ****  * @param len Number of bytes to be set to the value.
  48:Lib/lvgl/src/core/../draw/../misc/../font/../draw/../stdlib/lv_string.h ****  */
  49:Lib/lvgl/src/core/../draw/../misc/../font/../draw/../stdlib/lv_string.h **** void lv_memset(void * dst, uint8_t v, size_t len);
  50:Lib/lvgl/src/core/../draw/../misc/../font/../draw/../stdlib/lv_string.h **** 
  51:Lib/lvgl/src/core/../draw/../misc/../font/../draw/../stdlib/lv_string.h **** /**
  52:Lib/lvgl/src/core/../draw/../misc/../font/../draw/../stdlib/lv_string.h ****  * @brief Move a block of memory from source to destination
  53:Lib/lvgl/src/core/../draw/../misc/../font/../draw/../stdlib/lv_string.h ****  * @param dst Pointer to the destination array where the content is to be copied.
  54:Lib/lvgl/src/core/../draw/../misc/../font/../draw/../stdlib/lv_string.h ****  * @param src Pointer to the source of data to be copied.
  55:Lib/lvgl/src/core/../draw/../misc/../font/../draw/../stdlib/lv_string.h ****  * @param len Number of bytes to copy
  56:Lib/lvgl/src/core/../draw/../misc/../font/../draw/../stdlib/lv_string.h ****  * @return Pointer to the destination array.
  57:Lib/lvgl/src/core/../draw/../misc/../font/../draw/../stdlib/lv_string.h ****  */
  58:Lib/lvgl/src/core/../draw/../misc/../font/../draw/../stdlib/lv_string.h **** void * lv_memmove(void * dst, const void * src, size_t len);
  59:Lib/lvgl/src/core/../draw/../misc/../font/../draw/../stdlib/lv_string.h **** 
  60:Lib/lvgl/src/core/../draw/../misc/../font/../draw/../stdlib/lv_string.h **** /**
  61:Lib/lvgl/src/core/../draw/../misc/../font/../draw/../stdlib/lv_string.h ****  * Same as `memset(dst, 0x00, len)`.
  62:Lib/lvgl/src/core/../draw/../misc/../font/../draw/../stdlib/lv_string.h ****  * @param dst pointer to the destination buffer
  63:Lib/lvgl/src/core/../draw/../misc/../font/../draw/../stdlib/lv_string.h ****  * @param len number of byte to set
  64:Lib/lvgl/src/core/../draw/../misc/../font/../draw/../stdlib/lv_string.h ****  */
  65:Lib/lvgl/src/core/../draw/../misc/../font/../draw/../stdlib/lv_string.h **** static inline void lv_memzero(void * dst, size_t len)
  51              		.loc 2 65 20 view .LVU8
  52              	.LBB5:
  66:Lib/lvgl/src/core/../draw/../misc/../font/../draw/../stdlib/lv_string.h **** {
  67:Lib/lvgl/src/core/../draw/../misc/../font/../draw/../stdlib/lv_string.h ****     lv_memset(dst, 0x00, len);
  53              		.loc 2 67 5 view .LVU9
  54 0006 4FF4D872 		mov	r2, #432
  55 000a 0021     		movs	r1, #0
  56 000c FFF7FEFF 		bl	lv_memset
  57              	.LVL2:
  58              		.loc 2 67 5 is_stmt 0 view .LVU10
  59              	.LBE5:
  60              	.LBE4:
  88:Lib/lvgl/src/lv_init.c **** 
  89:Lib/lvgl/src/lv_init.c ****     _lv_ll_init(&(global->disp_ll), sizeof(lv_display_t));
  61              		.loc 1 89 5 is_stmt 1 view .LVU11
  62 0010 4FF44271 		mov	r1, #776
  63 0014 201D     		adds	r0, r4, #4
  64 0016 FFF7FEFF 		bl	_lv_ll_init
  65              	.LVL3:
  90:Lib/lvgl/src/lv_init.c ****     _lv_ll_init(&(global->indev_ll), sizeof(lv_indev_t));
  66              		.loc 1 90 5 view .LVU12
  67 001a B821     		movs	r1, #184
  68 001c 04F14400 		add	r0, r4, #68
  69 0020 FFF7FEFF 		bl	_lv_ll_init
  70              	.LVL4:
  91:Lib/lvgl/src/lv_init.c **** 
ARM GAS  C:\Users\Alex\AppData\Local\Temp\cchaUAv6.s 			page 5


  92:Lib/lvgl/src/lv_init.c ****     global->memory_zero = ZERO_MEM_SENTINEL;
  71              		.loc 1 92 5 view .LVU13
  72              		.loc 1 92 25 is_stmt 0 view .LVU14
  73 0024 094B     		ldr	r3, .L6
  74 0026 6366     		str	r3, [r4, #100]
  93:Lib/lvgl/src/lv_init.c ****     global->style_refresh = true;
  75              		.loc 1 93 5 is_stmt 1 view .LVU15
  76              		.loc 1 93 27 is_stmt 0 view .LVU16
  77 0028 0123     		movs	r3, #1
  78 002a 84F82430 		strb	r3, [r4, #36]
  94:Lib/lvgl/src/lv_init.c ****     global->layout_count = _LV_LAYOUT_LAST;
  79              		.loc 1 94 5 is_stmt 1 view .LVU17
  80              		.loc 1 94 26 is_stmt 0 view .LVU18
  81 002e 0323     		movs	r3, #3
  82 0030 A365     		str	r3, [r4, #88]
  95:Lib/lvgl/src/lv_init.c ****     global->style_last_custom_prop_id = (uint32_t)_LV_STYLE_LAST_BUILT_IN_PROP;
  83              		.loc 1 95 5 is_stmt 1 view .LVU19
  84              		.loc 1 95 39 is_stmt 0 view .LVU20
  85 0032 8223     		movs	r3, #130
  86 0034 E362     		str	r3, [r4, #44]
  96:Lib/lvgl/src/lv_init.c ****     global->area_trans_cache.angle_prev = INT32_MIN;
  87              		.loc 1 96 5 is_stmt 1 view .LVU21
  88              		.loc 1 96 41 is_stmt 0 view .LVU22
  89 0036 4FF00043 		mov	r3, #-2147483648
  90 003a E366     		str	r3, [r4, #108]
  97:Lib/lvgl/src/lv_init.c ****     global->event_last_register_id = _LV_EVENT_LAST;
  91              		.loc 1 97 5 is_stmt 1 view .LVU23
  92              		.loc 1 97 36 is_stmt 0 view .LVU24
  93 003c 3A23     		movs	r3, #58
  94 003e E367     		str	r3, [r4, #124]
  98:Lib/lvgl/src/lv_init.c ****     lv_rand_set_seed(0x1234ABCD);
  95              		.loc 1 98 5 is_stmt 1 view .LVU25
  96 0040 0348     		ldr	r0, .L6+4
  97 0042 FFF7FEFF 		bl	lv_rand_set_seed
  98              	.LVL5:
  99:Lib/lvgl/src/lv_init.c **** 
 100:Lib/lvgl/src/lv_init.c **** #if defined(LV_DRAW_SW_SHADOW_CACHE_SIZE) && LV_DRAW_SW_SHADOW_CACHE_SIZE > 0
 101:Lib/lvgl/src/lv_init.c ****     global->sw_shadow_cache.cache_size = -1;
 102:Lib/lvgl/src/lv_init.c ****     global->sw_shadow_cache.cache_r = -1;
 103:Lib/lvgl/src/lv_init.c **** #endif
 104:Lib/lvgl/src/lv_init.c **** }
  99              		.loc 1 104 1 is_stmt 0 view .LVU26
 100 0046 10BD     		pop	{r4, pc}
 101              	.LVL6:
 102              	.L3:
 103              	.LCFI1:
 104              		.cfi_def_cfa_offset 0
 105              		.cfi_restore 4
 106              		.cfi_restore 14
  80:Lib/lvgl/src/lv_init.c **** 
 107              		.loc 1 80 5 is_stmt 1 discriminator 1 view .LVU27
  80:Lib/lvgl/src/lv_init.c **** 
 108              		.loc 1 80 5 discriminator 1 view .LVU28
  80:Lib/lvgl/src/lv_init.c **** 
 109              		.loc 1 80 5 discriminator 1 view .LVU29
  80:Lib/lvgl/src/lv_init.c **** 
 110              		.loc 1 80 5 discriminator 1 view .LVU30
ARM GAS  C:\Users\Alex\AppData\Local\Temp\cchaUAv6.s 			page 6


  80:Lib/lvgl/src/lv_init.c **** 
 111              		.loc 1 80 5 discriminator 1 view .LVU31
 112 0048 FEE7     		b	.L3
 113              	.L7:
 114 004a 00BF     		.align	2
 115              	.L6:
 116 004c D4C3B2A1 		.word	-1582119980
 117 0050 CDAB3412 		.word	305441741
 118              		.cfi_endproc
 119              	.LFE256:
 121              		.section	.text._lv_cleanup_devices,"ax",%progbits
 122              		.align	1
 123              		.syntax unified
 124              		.thumb
 125              		.thumb_func
 127              	_lv_cleanup_devices:
 128              	.LVL7:
 129              	.LFB257:
 105:Lib/lvgl/src/lv_init.c **** 
 106:Lib/lvgl/src/lv_init.c **** static inline void _lv_cleanup_devices(lv_global_t * global)
 107:Lib/lvgl/src/lv_init.c **** {
 130              		.loc 1 107 1 view -0
 131              		.cfi_startproc
 132              		@ args = 0, pretend = 0, frame = 0
 133              		@ frame_needed = 0, uses_anonymous_args = 0
 108:Lib/lvgl/src/lv_init.c ****     LV_ASSERT_NULL(global);
 134              		.loc 1 108 5 view .LVU33
 135              		.loc 1 108 5 view .LVU34
 136 0000 50B1     		cbz	r0, .L10
 107:Lib/lvgl/src/lv_init.c ****     LV_ASSERT_NULL(global);
 137              		.loc 1 107 1 is_stmt 0 view .LVU35
 138 0002 10B5     		push	{r4, lr}
 139              	.LCFI2:
 140              		.cfi_def_cfa_offset 8
 141              		.cfi_offset 4, -8
 142              		.cfi_offset 14, -4
 143 0004 0446     		mov	r4, r0
 144              		.loc 1 108 5 is_stmt 1 view .LVU36
 145              		.loc 1 108 27 view .LVU37
 109:Lib/lvgl/src/lv_init.c **** 
 110:Lib/lvgl/src/lv_init.c ****     if(global) {
 146              		.loc 1 110 5 view .LVU38
 111:Lib/lvgl/src/lv_init.c ****         /* cleanup indev and display */
 112:Lib/lvgl/src/lv_init.c ****         _lv_ll_clear_custom(&(global->indev_ll), (void (*)(void *)) lv_indev_delete);
 147              		.loc 1 112 9 view .LVU39
 148 0006 0549     		ldr	r1, .L13
 149 0008 4430     		adds	r0, r0, #68
 150              	.LVL8:
 151              		.loc 1 112 9 is_stmt 0 view .LVU40
 152 000a FFF7FEFF 		bl	_lv_ll_clear_custom
 153              	.LVL9:
 113:Lib/lvgl/src/lv_init.c ****         _lv_ll_clear_custom(&(global->disp_ll), (void (*)(void *)) lv_display_delete);
 154              		.loc 1 113 9 is_stmt 1 view .LVU41
 155 000e 0449     		ldr	r1, .L13+4
 156 0010 201D     		adds	r0, r4, #4
 157 0012 FFF7FEFF 		bl	_lv_ll_clear_custom
 158              	.LVL10:
ARM GAS  C:\Users\Alex\AppData\Local\Temp\cchaUAv6.s 			page 7


 114:Lib/lvgl/src/lv_init.c ****     }
 115:Lib/lvgl/src/lv_init.c **** }
 159              		.loc 1 115 1 is_stmt 0 view .LVU42
 160 0016 10BD     		pop	{r4, pc}
 161              	.LVL11:
 162              	.L10:
 163              	.LCFI3:
 164              		.cfi_def_cfa_offset 0
 165              		.cfi_restore 4
 166              		.cfi_restore 14
 108:Lib/lvgl/src/lv_init.c **** 
 167              		.loc 1 108 5 is_stmt 1 discriminator 1 view .LVU43
 108:Lib/lvgl/src/lv_init.c **** 
 168              		.loc 1 108 5 discriminator 1 view .LVU44
 108:Lib/lvgl/src/lv_init.c **** 
 169              		.loc 1 108 5 discriminator 1 view .LVU45
 108:Lib/lvgl/src/lv_init.c **** 
 170              		.loc 1 108 5 discriminator 1 view .LVU46
 108:Lib/lvgl/src/lv_init.c **** 
 171              		.loc 1 108 5 discriminator 1 view .LVU47
 172 0018 FEE7     		b	.L10
 173              	.L14:
 174 001a 00BF     		.align	2
 175              	.L13:
 176 001c 00000000 		.word	lv_indev_delete
 177 0020 00000000 		.word	lv_display_delete
 178              		.cfi_endproc
 179              	.LFE257:
 181              		.section	.text.lv_is_initialized,"ax",%progbits
 182              		.align	1
 183              		.global	lv_is_initialized
 184              		.syntax unified
 185              		.thumb
 186              		.thumb_func
 188              	lv_is_initialized:
 189              	.LFB258:
 116:Lib/lvgl/src/lv_init.c **** 
 117:Lib/lvgl/src/lv_init.c **** bool lv_is_initialized(void)
 118:Lib/lvgl/src/lv_init.c **** {
 190              		.loc 1 118 1 view -0
 191              		.cfi_startproc
 192              		@ args = 0, pretend = 0, frame = 0
 193              		@ frame_needed = 0, uses_anonymous_args = 0
 194              		@ link register save eliminated.
 119:Lib/lvgl/src/lv_init.c **** #if LV_ENABLE_GLOBAL_CUSTOM
 120:Lib/lvgl/src/lv_init.c ****     if(LV_GLOBAL_DEFAULT()) return lv_initialized;
 121:Lib/lvgl/src/lv_init.c ****     else return false;
 122:Lib/lvgl/src/lv_init.c **** #else
 123:Lib/lvgl/src/lv_init.c ****     return lv_initialized;
 195              		.loc 1 123 5 view .LVU49
 124:Lib/lvgl/src/lv_init.c **** #endif
 125:Lib/lvgl/src/lv_init.c **** }
 196              		.loc 1 125 1 is_stmt 0 view .LVU50
 197 0000 014B     		ldr	r3, .L16
 198 0002 1878     		ldrb	r0, [r3]	@ zero_extendqisi2
 199 0004 7047     		bx	lr
 200              	.L17:
ARM GAS  C:\Users\Alex\AppData\Local\Temp\cchaUAv6.s 			page 8


 201 0006 00BF     		.align	2
 202              	.L16:
 203 0008 00000000 		.word	lv_global
 204              		.cfi_endproc
 205              	.LFE258:
 207              		.section	.text.lv_init,"ax",%progbits
 208              		.align	1
 209              		.global	lv_init
 210              		.syntax unified
 211              		.thumb
 212              		.thumb_func
 214              	lv_init:
 215              	.LFB259:
 126:Lib/lvgl/src/lv_init.c **** 
 127:Lib/lvgl/src/lv_init.c **** void lv_init(void)
 128:Lib/lvgl/src/lv_init.c **** {
 216              		.loc 1 128 1 is_stmt 1 view -0
 217              		.cfi_startproc
 218              		@ args = 0, pretend = 0, frame = 0
 219              		@ frame_needed = 0, uses_anonymous_args = 0
 129:Lib/lvgl/src/lv_init.c ****     /*First initialize Garbage Collection if needed*/
 130:Lib/lvgl/src/lv_init.c **** #ifdef LV_GC_INIT
 131:Lib/lvgl/src/lv_init.c ****     LV_GC_INIT();
 132:Lib/lvgl/src/lv_init.c **** #endif
 133:Lib/lvgl/src/lv_init.c **** 
 134:Lib/lvgl/src/lv_init.c ****     /*Do nothing if already initialized*/
 135:Lib/lvgl/src/lv_init.c ****     if(lv_initialized) {
 220              		.loc 1 135 5 view .LVU52
 221              		.loc 1 135 8 is_stmt 0 view .LVU53
 222 0000 134B     		ldr	r3, .L25
 223 0002 1B78     		ldrb	r3, [r3]	@ zero_extendqisi2
 224              		.loc 1 135 7 view .LVU54
 225 0004 03B1     		cbz	r3, .L24
 226 0006 7047     		bx	lr
 227              	.L24:
 128:Lib/lvgl/src/lv_init.c ****     /*First initialize Garbage Collection if needed*/
 228              		.loc 1 128 1 view .LVU55
 229 0008 10B5     		push	{r4, lr}
 230              	.LCFI4:
 231              		.cfi_def_cfa_offset 8
 232              		.cfi_offset 4, -8
 233              		.cfi_offset 14, -4
 136:Lib/lvgl/src/lv_init.c ****         LV_LOG_WARN("lv_init: already initialized");
 137:Lib/lvgl/src/lv_init.c ****         return;
 138:Lib/lvgl/src/lv_init.c ****     }
 139:Lib/lvgl/src/lv_init.c **** 
 140:Lib/lvgl/src/lv_init.c ****     LV_LOG_INFO("begin");
 234              		.loc 1 140 5 is_stmt 1 view .LVU56
 235              		.loc 1 140 5 view .LVU57
 236              		.loc 1 140 5 view .LVU58
 141:Lib/lvgl/src/lv_init.c **** 
 142:Lib/lvgl/src/lv_init.c ****     /*Initialize members of static variable lv_global */
 143:Lib/lvgl/src/lv_init.c ****     LV_GLOBAL_INIT(LV_GLOBAL_DEFAULT());
 237              		.loc 1 143 5 view .LVU59
 238 000a 114C     		ldr	r4, .L25
 239 000c 2046     		mov	r0, r4
 240 000e FFF7FEFF 		bl	lv_global_init
ARM GAS  C:\Users\Alex\AppData\Local\Temp\cchaUAv6.s 			page 9


 241              	.LVL12:
 144:Lib/lvgl/src/lv_init.c **** 
 145:Lib/lvgl/src/lv_init.c ****     lv_mem_init();
 242              		.loc 1 145 5 view .LVU60
 243 0012 FFF7FEFF 		bl	lv_mem_init
 244              	.LVL13:
 146:Lib/lvgl/src/lv_init.c **** 
 147:Lib/lvgl/src/lv_init.c ****     _lv_draw_buf_init_handlers();
 245              		.loc 1 147 5 view .LVU61
 246 0016 FFF7FEFF 		bl	_lv_draw_buf_init_handlers
 247              	.LVL14:
 148:Lib/lvgl/src/lv_init.c **** 
 149:Lib/lvgl/src/lv_init.c **** #if LV_USE_SPAN != 0
 150:Lib/lvgl/src/lv_init.c ****     lv_span_stack_init();
 248              		.loc 1 150 5 view .LVU62
 249 001a FFF7FEFF 		bl	lv_span_stack_init
 250              	.LVL15:
 151:Lib/lvgl/src/lv_init.c **** #endif
 152:Lib/lvgl/src/lv_init.c **** 
 153:Lib/lvgl/src/lv_init.c **** #if LV_USE_PROFILER && LV_USE_PROFILER_BUILTIN
 154:Lib/lvgl/src/lv_init.c ****     lv_profiler_builtin_config_t profiler_config;
 155:Lib/lvgl/src/lv_init.c ****     lv_profiler_builtin_config_init(&profiler_config);
 156:Lib/lvgl/src/lv_init.c ****     lv_profiler_builtin_init(&profiler_config);
 157:Lib/lvgl/src/lv_init.c **** #endif
 158:Lib/lvgl/src/lv_init.c **** 
 159:Lib/lvgl/src/lv_init.c ****     _lv_timer_core_init();
 251              		.loc 1 159 5 view .LVU63
 252 001e FFF7FEFF 		bl	_lv_timer_core_init
 253              	.LVL16:
 160:Lib/lvgl/src/lv_init.c **** 
 161:Lib/lvgl/src/lv_init.c ****     _lv_fs_init();
 254              		.loc 1 161 5 view .LVU64
 255 0022 FFF7FEFF 		bl	_lv_fs_init
 256              	.LVL17:
 162:Lib/lvgl/src/lv_init.c **** 
 163:Lib/lvgl/src/lv_init.c ****     _lv_layout_init();
 257              		.loc 1 163 5 view .LVU65
 258 0026 FFF7FEFF 		bl	_lv_layout_init
 259              	.LVL18:
 164:Lib/lvgl/src/lv_init.c **** 
 165:Lib/lvgl/src/lv_init.c ****     _lv_anim_core_init();
 260              		.loc 1 165 5 view .LVU66
 261 002a FFF7FEFF 		bl	_lv_anim_core_init
 262              	.LVL19:
 166:Lib/lvgl/src/lv_init.c **** 
 167:Lib/lvgl/src/lv_init.c ****     _lv_group_init();
 263              		.loc 1 167 5 view .LVU67
 264 002e FFF7FEFF 		bl	_lv_group_init
 265              	.LVL20:
 168:Lib/lvgl/src/lv_init.c **** 
 169:Lib/lvgl/src/lv_init.c ****     lv_draw_init();
 266              		.loc 1 169 5 view .LVU68
 267 0032 FFF7FEFF 		bl	lv_draw_init
 268              	.LVL21:
 170:Lib/lvgl/src/lv_init.c **** 
 171:Lib/lvgl/src/lv_init.c **** #if LV_USE_DRAW_SW
 172:Lib/lvgl/src/lv_init.c ****     lv_draw_sw_init();
ARM GAS  C:\Users\Alex\AppData\Local\Temp\cchaUAv6.s 			page 10


 269              		.loc 1 172 5 view .LVU69
 270 0036 FFF7FEFF 		bl	lv_draw_sw_init
 271              	.LVL22:
 173:Lib/lvgl/src/lv_init.c **** #endif
 174:Lib/lvgl/src/lv_init.c **** 
 175:Lib/lvgl/src/lv_init.c **** #if LV_USE_DRAW_VGLITE
 176:Lib/lvgl/src/lv_init.c ****     lv_draw_vglite_init();
 177:Lib/lvgl/src/lv_init.c **** #endif
 178:Lib/lvgl/src/lv_init.c **** 
 179:Lib/lvgl/src/lv_init.c **** #if LV_USE_DRAW_PXP
 180:Lib/lvgl/src/lv_init.c ****     lv_draw_pxp_init();
 181:Lib/lvgl/src/lv_init.c **** #endif
 182:Lib/lvgl/src/lv_init.c **** 
 183:Lib/lvgl/src/lv_init.c **** #if LV_USE_DRAW_DAVE2D
 184:Lib/lvgl/src/lv_init.c ****     lv_draw_dave2d_init();
 185:Lib/lvgl/src/lv_init.c **** #endif
 186:Lib/lvgl/src/lv_init.c **** 
 187:Lib/lvgl/src/lv_init.c **** #if LV_USE_DRAW_SDL
 188:Lib/lvgl/src/lv_init.c ****     lv_draw_sdl_init();
 189:Lib/lvgl/src/lv_init.c **** #endif
 190:Lib/lvgl/src/lv_init.c **** 
 191:Lib/lvgl/src/lv_init.c **** #if LV_USE_WINDOWS
 192:Lib/lvgl/src/lv_init.c ****     lv_windows_platform_init();
 193:Lib/lvgl/src/lv_init.c **** #endif
 194:Lib/lvgl/src/lv_init.c **** 
 195:Lib/lvgl/src/lv_init.c ****     _lv_obj_style_init();
 272              		.loc 1 195 5 view .LVU70
 273 003a FFF7FEFF 		bl	_lv_obj_style_init
 274              	.LVL23:
 196:Lib/lvgl/src/lv_init.c **** 
 197:Lib/lvgl/src/lv_init.c ****     /*Initialize the screen refresh system*/
 198:Lib/lvgl/src/lv_init.c ****     _lv_refr_init();
 275              		.loc 1 198 5 view .LVU71
 276 003e FFF7FEFF 		bl	_lv_refr_init
 277              	.LVL24:
 199:Lib/lvgl/src/lv_init.c **** 
 200:Lib/lvgl/src/lv_init.c **** #if LV_USE_SYSMON
 201:Lib/lvgl/src/lv_init.c ****     _lv_sysmon_builtin_init();
 202:Lib/lvgl/src/lv_init.c **** #endif
 203:Lib/lvgl/src/lv_init.c **** 
 204:Lib/lvgl/src/lv_init.c ****     _lv_image_decoder_init();
 278              		.loc 1 204 5 view .LVU72
 279 0042 FFF7FEFF 		bl	_lv_image_decoder_init
 280              	.LVL25:
 205:Lib/lvgl/src/lv_init.c ****     lv_bin_decoder_init();  /*LVGL built-in binary image decoder*/
 281              		.loc 1 205 5 view .LVU73
 282 0046 FFF7FEFF 		bl	lv_bin_decoder_init
 283              	.LVL26:
 206:Lib/lvgl/src/lv_init.c **** 
 207:Lib/lvgl/src/lv_init.c **** #if LV_USE_DRAW_VG_LITE
 208:Lib/lvgl/src/lv_init.c ****     lv_draw_vg_lite_init();
 209:Lib/lvgl/src/lv_init.c **** #endif
 210:Lib/lvgl/src/lv_init.c **** 
 211:Lib/lvgl/src/lv_init.c ****     /*Test if the IDE has UTF-8 encoding*/
 212:Lib/lvgl/src/lv_init.c ****     const char * txt = "Ã";
 284              		.loc 1 212 5 view .LVU74
 213:Lib/lvgl/src/lv_init.c **** 
ARM GAS  C:\Users\Alex\AppData\Local\Temp\cchaUAv6.s 			page 11


 214:Lib/lvgl/src/lv_init.c ****     uint8_t * txt_u8 = (uint8_t *)txt;
 285              		.loc 1 214 5 view .LVU75
 215:Lib/lvgl/src/lv_init.c ****     if(txt_u8[0] != 0xc3 || txt_u8[1] != 0x81 || txt_u8[2] != 0x00) {
 286              		.loc 1 215 5 view .LVU76
 216:Lib/lvgl/src/lv_init.c ****         LV_LOG_WARN("The strings have no UTF-8 encoding. Non-ASCII characters won't be displayed.")
 287              		.loc 1 216 9 view .LVU77
 288              		.loc 1 216 9 view .LVU78
 289              		.loc 1 216 9 view .LVU79
 217:Lib/lvgl/src/lv_init.c ****     }
 218:Lib/lvgl/src/lv_init.c **** 
 219:Lib/lvgl/src/lv_init.c ****     uint32_t endianness_test = 0x11223344;
 290              		.loc 1 219 5 view .LVU80
 220:Lib/lvgl/src/lv_init.c ****     uint8_t * endianness_test_p = (uint8_t *) &endianness_test;
 291              		.loc 1 220 5 view .LVU81
 221:Lib/lvgl/src/lv_init.c ****     bool big_endian = endianness_test_p[0] == 0x11;
 292              		.loc 1 221 5 view .LVU82
 222:Lib/lvgl/src/lv_init.c **** 
 223:Lib/lvgl/src/lv_init.c ****     if(big_endian) {
 293              		.loc 1 223 5 view .LVU83
 224:Lib/lvgl/src/lv_init.c ****         LV_ASSERT_MSG(LV_BIG_ENDIAN_SYSTEM == 1,
 225:Lib/lvgl/src/lv_init.c ****                       "It's a big endian system but LV_BIG_ENDIAN_SYSTEM is not enabled in lv_conf.
 226:Lib/lvgl/src/lv_init.c ****     }
 227:Lib/lvgl/src/lv_init.c ****     else {
 228:Lib/lvgl/src/lv_init.c ****         LV_ASSERT_MSG(LV_BIG_ENDIAN_SYSTEM == 0,
 294              		.loc 1 228 9 view .LVU84
 295              		.loc 1 228 9 view .LVU85
 296              		.loc 1 228 9 view .LVU86
 229:Lib/lvgl/src/lv_init.c ****                       "It's a little endian system but LV_BIG_ENDIAN_SYSTEM is enabled in lv_conf.h
 230:Lib/lvgl/src/lv_init.c ****     }
 231:Lib/lvgl/src/lv_init.c **** 
 232:Lib/lvgl/src/lv_init.c **** #if LV_USE_ASSERT_MEM_INTEGRITY
 233:Lib/lvgl/src/lv_init.c ****     LV_LOG_WARN("Memory integrity checks are enabled via LV_USE_ASSERT_MEM_INTEGRITY which makes LV
 234:Lib/lvgl/src/lv_init.c **** #endif
 235:Lib/lvgl/src/lv_init.c **** 
 236:Lib/lvgl/src/lv_init.c **** #if LV_USE_ASSERT_OBJ
 237:Lib/lvgl/src/lv_init.c ****     LV_LOG_WARN("Object sanity checks are enabled via LV_USE_ASSERT_OBJ which makes LVGL much slowe
 238:Lib/lvgl/src/lv_init.c **** #endif
 239:Lib/lvgl/src/lv_init.c **** 
 240:Lib/lvgl/src/lv_init.c **** #if LV_USE_ASSERT_STYLE
 241:Lib/lvgl/src/lv_init.c ****     LV_LOG_WARN("Style sanity checks are enabled that uses more RAM");
 242:Lib/lvgl/src/lv_init.c **** #endif
 243:Lib/lvgl/src/lv_init.c **** 
 244:Lib/lvgl/src/lv_init.c **** #if LV_LOG_LEVEL == LV_LOG_LEVEL_TRACE
 245:Lib/lvgl/src/lv_init.c ****     LV_LOG_WARN("Log level is set to 'Trace' which makes LVGL much slower");
 246:Lib/lvgl/src/lv_init.c **** #endif
 247:Lib/lvgl/src/lv_init.c **** 
 248:Lib/lvgl/src/lv_init.c **** #if LV_USE_FS_FATFS != '\0'
 249:Lib/lvgl/src/lv_init.c ****     lv_fs_fatfs_init();
 250:Lib/lvgl/src/lv_init.c **** #endif
 251:Lib/lvgl/src/lv_init.c **** 
 252:Lib/lvgl/src/lv_init.c **** #if LV_USE_FS_STDIO != '\0'
 253:Lib/lvgl/src/lv_init.c ****     lv_fs_stdio_init();
 254:Lib/lvgl/src/lv_init.c **** #endif
 255:Lib/lvgl/src/lv_init.c **** 
 256:Lib/lvgl/src/lv_init.c **** #if LV_USE_FS_POSIX != '\0'
 257:Lib/lvgl/src/lv_init.c ****     lv_fs_posix_init();
 258:Lib/lvgl/src/lv_init.c **** #endif
ARM GAS  C:\Users\Alex\AppData\Local\Temp\cchaUAv6.s 			page 12


 259:Lib/lvgl/src/lv_init.c **** 
 260:Lib/lvgl/src/lv_init.c **** #if LV_USE_FS_WIN32 != '\0'
 261:Lib/lvgl/src/lv_init.c ****     lv_fs_win32_init();
 262:Lib/lvgl/src/lv_init.c **** #endif
 263:Lib/lvgl/src/lv_init.c **** 
 264:Lib/lvgl/src/lv_init.c **** #if LV_USE_FS_MEMFS
 265:Lib/lvgl/src/lv_init.c ****     lv_fs_memfs_init();
 266:Lib/lvgl/src/lv_init.c **** #endif
 267:Lib/lvgl/src/lv_init.c **** 
 268:Lib/lvgl/src/lv_init.c **** #if LV_USE_LODEPNG
 269:Lib/lvgl/src/lv_init.c ****     lv_lodepng_init();
 270:Lib/lvgl/src/lv_init.c **** #endif
 271:Lib/lvgl/src/lv_init.c **** 
 272:Lib/lvgl/src/lv_init.c **** #if LV_USE_LIBPNG
 273:Lib/lvgl/src/lv_init.c ****     lv_libpng_init();
 274:Lib/lvgl/src/lv_init.c **** #endif
 275:Lib/lvgl/src/lv_init.c **** 
 276:Lib/lvgl/src/lv_init.c **** #if LV_USE_TJPGD
 277:Lib/lvgl/src/lv_init.c ****     lv_tjpgd_init();
 278:Lib/lvgl/src/lv_init.c **** #endif
 279:Lib/lvgl/src/lv_init.c **** 
 280:Lib/lvgl/src/lv_init.c **** #if LV_USE_LIBJPEG_TURBO
 281:Lib/lvgl/src/lv_init.c ****     lv_libjpeg_turbo_init();
 282:Lib/lvgl/src/lv_init.c **** #endif
 283:Lib/lvgl/src/lv_init.c **** 
 284:Lib/lvgl/src/lv_init.c **** #if LV_USE_BMP
 285:Lib/lvgl/src/lv_init.c ****     lv_bmp_init();
 286:Lib/lvgl/src/lv_init.c **** #endif
 287:Lib/lvgl/src/lv_init.c **** 
 288:Lib/lvgl/src/lv_init.c ****     /*Make FFMPEG last because the last converter will be checked first and
 289:Lib/lvgl/src/lv_init.c ****      *it's superior to any other */
 290:Lib/lvgl/src/lv_init.c **** #if LV_USE_FFMPEG
 291:Lib/lvgl/src/lv_init.c ****     lv_ffmpeg_init();
 292:Lib/lvgl/src/lv_init.c **** #endif
 293:Lib/lvgl/src/lv_init.c **** 
 294:Lib/lvgl/src/lv_init.c **** #if LV_USE_FREETYPE
 295:Lib/lvgl/src/lv_init.c ****     /*Init freetype library*/
 296:Lib/lvgl/src/lv_init.c **** #  if LV_FREETYPE_CACHE_SIZE >= 0
 297:Lib/lvgl/src/lv_init.c ****     lv_freetype_init(LV_FREETYPE_CACHE_FT_FACES, LV_FREETYPE_CACHE_FT_SIZES, LV_FREETYPE_CACHE_SIZE
 298:Lib/lvgl/src/lv_init.c **** #  else
 299:Lib/lvgl/src/lv_init.c ****     lv_freetype_init(0, 0, 0);
 300:Lib/lvgl/src/lv_init.c **** #  endif
 301:Lib/lvgl/src/lv_init.c **** #endif
 302:Lib/lvgl/src/lv_init.c **** 
 303:Lib/lvgl/src/lv_init.c **** #if LV_USE_TINY_TTF
 304:Lib/lvgl/src/lv_init.c ****     lv_tiny_ttf_init();
 305:Lib/lvgl/src/lv_init.c **** #endif
 306:Lib/lvgl/src/lv_init.c **** 
 307:Lib/lvgl/src/lv_init.c ****     lv_initialized = true;
 297              		.loc 1 307 5 view .LVU87
 298              		.loc 1 307 20 is_stmt 0 view .LVU88
 299 004a 0123     		movs	r3, #1
 300 004c 2370     		strb	r3, [r4]
 308:Lib/lvgl/src/lv_init.c **** 
 309:Lib/lvgl/src/lv_init.c ****     LV_LOG_TRACE("finished");
 301              		.loc 1 309 5 is_stmt 1 view .LVU89
 302              		.loc 1 309 5 view .LVU90
ARM GAS  C:\Users\Alex\AppData\Local\Temp\cchaUAv6.s 			page 13


 303              		.loc 1 309 5 view .LVU91
 304              	.LVL27:
 310:Lib/lvgl/src/lv_init.c **** }
 305              		.loc 1 310 1 is_stmt 0 view .LVU92
 306 004e 10BD     		pop	{r4, pc}
 307              	.L26:
 308              		.align	2
 309              	.L25:
 310 0050 00000000 		.word	lv_global
 311              		.cfi_endproc
 312              	.LFE259:
 314              		.section	.text.lv_deinit,"ax",%progbits
 315              		.align	1
 316              		.global	lv_deinit
 317              		.syntax unified
 318              		.thumb
 319              		.thumb_func
 321              	lv_deinit:
 322              	.LFB260:
 311:Lib/lvgl/src/lv_init.c **** 
 312:Lib/lvgl/src/lv_init.c **** void lv_deinit(void)
 313:Lib/lvgl/src/lv_init.c **** {
 323              		.loc 1 313 1 is_stmt 1 view -0
 324              		.cfi_startproc
 325              		@ args = 0, pretend = 0, frame = 0
 326              		@ frame_needed = 0, uses_anonymous_args = 0
 314:Lib/lvgl/src/lv_init.c ****     /*Do nothing if already deinit*/
 315:Lib/lvgl/src/lv_init.c ****     if(!lv_initialized) {
 327              		.loc 1 315 5 view .LVU94
 328              		.loc 1 315 9 is_stmt 0 view .LVU95
 329 0000 194B     		ldr	r3, .L34
 330 0002 1B78     		ldrb	r3, [r3]	@ zero_extendqisi2
 331              		.loc 1 315 7 view .LVU96
 332 0004 13B1     		cbz	r3, .L30
 316:Lib/lvgl/src/lv_init.c ****         LV_LOG_WARN("lv_deinit: already deinit!");
 317:Lib/lvgl/src/lv_init.c ****         return;
 318:Lib/lvgl/src/lv_init.c ****     }
 319:Lib/lvgl/src/lv_init.c **** 
 320:Lib/lvgl/src/lv_init.c ****     if(lv_deinit_in_progress) return;
 333              		.loc 1 320 5 is_stmt 1 view .LVU97
 334              		.loc 1 320 8 is_stmt 0 view .LVU98
 335 0006 184B     		ldr	r3, .L34
 336 0008 5B78     		ldrb	r3, [r3, #1]	@ zero_extendqisi2
 337              		.loc 1 320 7 view .LVU99
 338 000a 03B1     		cbz	r3, .L33
 339              	.L30:
 340 000c 7047     		bx	lr
 341              	.L33:
 313:Lib/lvgl/src/lv_init.c ****     /*Do nothing if already deinit*/
 342              		.loc 1 313 1 view .LVU100
 343 000e 10B5     		push	{r4, lr}
 344              	.LCFI5:
 345              		.cfi_def_cfa_offset 8
 346              		.cfi_offset 4, -8
 347              		.cfi_offset 14, -4
 321:Lib/lvgl/src/lv_init.c **** 
 322:Lib/lvgl/src/lv_init.c ****     lv_deinit_in_progress = true;
ARM GAS  C:\Users\Alex\AppData\Local\Temp\cchaUAv6.s 			page 14


 348              		.loc 1 322 5 is_stmt 1 view .LVU101
 349              		.loc 1 322 27 is_stmt 0 view .LVU102
 350 0010 154C     		ldr	r4, .L34
 351 0012 0123     		movs	r3, #1
 352 0014 6370     		strb	r3, [r4, #1]
 323:Lib/lvgl/src/lv_init.c **** 
 324:Lib/lvgl/src/lv_init.c **** #if LV_USE_SYSMON
 325:Lib/lvgl/src/lv_init.c ****     _lv_sysmon_builtin_deinit();
 326:Lib/lvgl/src/lv_init.c **** #endif
 327:Lib/lvgl/src/lv_init.c **** 
 328:Lib/lvgl/src/lv_init.c ****     lv_display_set_default(NULL);
 353              		.loc 1 328 5 is_stmt 1 view .LVU103
 354 0016 0020     		movs	r0, #0
 355 0018 FFF7FEFF 		bl	lv_display_set_default
 356              	.LVL28:
 329:Lib/lvgl/src/lv_init.c **** 
 330:Lib/lvgl/src/lv_init.c ****     _lv_cleanup_devices(LV_GLOBAL_DEFAULT());
 357              		.loc 1 330 5 view .LVU104
 358 001c 2046     		mov	r0, r4
 359 001e FFF7FEFF 		bl	_lv_cleanup_devices
 360              	.LVL29:
 331:Lib/lvgl/src/lv_init.c **** 
 332:Lib/lvgl/src/lv_init.c **** #if LV_USE_SPAN != 0
 333:Lib/lvgl/src/lv_init.c ****     lv_span_stack_deinit();
 361              		.loc 1 333 5 view .LVU105
 362 0022 FFF7FEFF 		bl	lv_span_stack_deinit
 363              	.LVL30:
 334:Lib/lvgl/src/lv_init.c **** #endif
 335:Lib/lvgl/src/lv_init.c **** 
 336:Lib/lvgl/src/lv_init.c **** #if LV_USE_DRAW_SW
 337:Lib/lvgl/src/lv_init.c ****     lv_draw_sw_deinit();
 364              		.loc 1 337 5 view .LVU106
 365 0026 FFF7FEFF 		bl	lv_draw_sw_deinit
 366              	.LVL31:
 338:Lib/lvgl/src/lv_init.c **** #endif
 339:Lib/lvgl/src/lv_init.c **** 
 340:Lib/lvgl/src/lv_init.c **** #if LV_USE_FREETYPE
 341:Lib/lvgl/src/lv_init.c ****     lv_freetype_uninit();
 342:Lib/lvgl/src/lv_init.c **** #endif
 343:Lib/lvgl/src/lv_init.c **** 
 344:Lib/lvgl/src/lv_init.c **** #if LV_USE_TINY_TTF
 345:Lib/lvgl/src/lv_init.c ****     lv_tiny_ttf_deinit();
 346:Lib/lvgl/src/lv_init.c **** #endif
 347:Lib/lvgl/src/lv_init.c **** 
 348:Lib/lvgl/src/lv_init.c **** #if LV_USE_THEME_DEFAULT
 349:Lib/lvgl/src/lv_init.c ****     lv_theme_default_deinit();
 367              		.loc 1 349 5 view .LVU107
 368 002a FFF7FEFF 		bl	lv_theme_default_deinit
 369              	.LVL32:
 350:Lib/lvgl/src/lv_init.c **** #endif
 351:Lib/lvgl/src/lv_init.c **** 
 352:Lib/lvgl/src/lv_init.c **** #if LV_USE_THEME_SIMPLE
 353:Lib/lvgl/src/lv_init.c ****     lv_theme_simple_deinit();
 370              		.loc 1 353 5 view .LVU108
 371 002e FFF7FEFF 		bl	lv_theme_simple_deinit
 372              	.LVL33:
 354:Lib/lvgl/src/lv_init.c **** #endif
ARM GAS  C:\Users\Alex\AppData\Local\Temp\cchaUAv6.s 			page 15


 355:Lib/lvgl/src/lv_init.c **** 
 356:Lib/lvgl/src/lv_init.c **** #if LV_USE_THEME_MONO
 357:Lib/lvgl/src/lv_init.c ****     lv_theme_mono_deinit();
 373              		.loc 1 357 5 view .LVU109
 374 0032 FFF7FEFF 		bl	lv_theme_mono_deinit
 375              	.LVL34:
 358:Lib/lvgl/src/lv_init.c **** #endif
 359:Lib/lvgl/src/lv_init.c **** 
 360:Lib/lvgl/src/lv_init.c ****     _lv_image_decoder_deinit();
 376              		.loc 1 360 5 view .LVU110
 377 0036 FFF7FEFF 		bl	_lv_image_decoder_deinit
 378              	.LVL35:
 361:Lib/lvgl/src/lv_init.c **** 
 362:Lib/lvgl/src/lv_init.c ****     _lv_refr_deinit();
 379              		.loc 1 362 5 view .LVU111
 380 003a FFF7FEFF 		bl	_lv_refr_deinit
 381              	.LVL36:
 363:Lib/lvgl/src/lv_init.c **** 
 364:Lib/lvgl/src/lv_init.c ****     _lv_obj_style_deinit();
 382              		.loc 1 364 5 view .LVU112
 383 003e FFF7FEFF 		bl	_lv_obj_style_deinit
 384              	.LVL37:
 365:Lib/lvgl/src/lv_init.c **** 
 366:Lib/lvgl/src/lv_init.c **** #if LV_USE_DRAW_PXP
 367:Lib/lvgl/src/lv_init.c ****     lv_draw_pxp_deinit();
 368:Lib/lvgl/src/lv_init.c **** #endif
 369:Lib/lvgl/src/lv_init.c **** 
 370:Lib/lvgl/src/lv_init.c **** #if LV_USE_DRAW_VGLITE
 371:Lib/lvgl/src/lv_init.c ****     lv_draw_vglite_deinit();
 372:Lib/lvgl/src/lv_init.c **** #endif
 373:Lib/lvgl/src/lv_init.c **** 
 374:Lib/lvgl/src/lv_init.c **** #if LV_USE_DRAW_VG_LITE
 375:Lib/lvgl/src/lv_init.c ****     lv_draw_vg_lite_deinit();
 376:Lib/lvgl/src/lv_init.c **** #endif
 377:Lib/lvgl/src/lv_init.c **** 
 378:Lib/lvgl/src/lv_init.c **** #if LV_USE_DRAW_SW
 379:Lib/lvgl/src/lv_init.c ****     lv_draw_sw_deinit();
 385              		.loc 1 379 5 view .LVU113
 386 0042 FFF7FEFF 		bl	lv_draw_sw_deinit
 387              	.LVL38:
 380:Lib/lvgl/src/lv_init.c **** #endif
 381:Lib/lvgl/src/lv_init.c **** 
 382:Lib/lvgl/src/lv_init.c ****     lv_draw_deinit();
 388              		.loc 1 382 5 view .LVU114
 389 0046 FFF7FEFF 		bl	lv_draw_deinit
 390              	.LVL39:
 383:Lib/lvgl/src/lv_init.c **** 
 384:Lib/lvgl/src/lv_init.c ****     _lv_group_deinit();
 391              		.loc 1 384 5 view .LVU115
 392 004a FFF7FEFF 		bl	_lv_group_deinit
 393              	.LVL40:
 385:Lib/lvgl/src/lv_init.c **** 
 386:Lib/lvgl/src/lv_init.c ****     _lv_anim_core_deinit();
 394              		.loc 1 386 5 view .LVU116
 395 004e FFF7FEFF 		bl	_lv_anim_core_deinit
 396              	.LVL41:
 387:Lib/lvgl/src/lv_init.c **** 
ARM GAS  C:\Users\Alex\AppData\Local\Temp\cchaUAv6.s 			page 16


 388:Lib/lvgl/src/lv_init.c ****     _lv_layout_deinit();
 397              		.loc 1 388 5 view .LVU117
 398 0052 FFF7FEFF 		bl	_lv_layout_deinit
 399              	.LVL42:
 389:Lib/lvgl/src/lv_init.c **** 
 390:Lib/lvgl/src/lv_init.c ****     _lv_fs_deinit();
 400              		.loc 1 390 5 view .LVU118
 401 0056 FFF7FEFF 		bl	_lv_fs_deinit
 402              	.LVL43:
 391:Lib/lvgl/src/lv_init.c **** 
 392:Lib/lvgl/src/lv_init.c ****     _lv_timer_core_deinit();
 403              		.loc 1 392 5 view .LVU119
 404 005a FFF7FEFF 		bl	_lv_timer_core_deinit
 405              	.LVL44:
 393:Lib/lvgl/src/lv_init.c **** 
 394:Lib/lvgl/src/lv_init.c **** #if LV_USE_PROFILER && LV_USE_PROFILER_BUILTIN
 395:Lib/lvgl/src/lv_init.c ****     lv_profiler_builtin_uninit();
 396:Lib/lvgl/src/lv_init.c **** #endif
 397:Lib/lvgl/src/lv_init.c **** 
 398:Lib/lvgl/src/lv_init.c **** #if LV_USE_OBJ_ID_BUILTIN
 399:Lib/lvgl/src/lv_init.c ****     lv_objid_builtin_destroy();
 400:Lib/lvgl/src/lv_init.c **** #endif
 401:Lib/lvgl/src/lv_init.c **** 
 402:Lib/lvgl/src/lv_init.c ****     lv_mem_deinit();
 406              		.loc 1 402 5 view .LVU120
 407 005e FFF7FEFF 		bl	lv_mem_deinit
 408              	.LVL45:
 403:Lib/lvgl/src/lv_init.c **** 
 404:Lib/lvgl/src/lv_init.c ****     lv_initialized = false;
 409              		.loc 1 404 5 view .LVU121
 410              		.loc 1 404 20 is_stmt 0 view .LVU122
 411 0062 0023     		movs	r3, #0
 412 0064 2370     		strb	r3, [r4]
 405:Lib/lvgl/src/lv_init.c **** 
 406:Lib/lvgl/src/lv_init.c ****     LV_LOG_INFO("lv_deinit done");
 413              		.loc 1 406 5 is_stmt 1 view .LVU123
 414              		.loc 1 406 5 view .LVU124
 415              		.loc 1 406 5 view .LVU125
 407:Lib/lvgl/src/lv_init.c **** 
 408:Lib/lvgl/src/lv_init.c **** #if LV_USE_LOG
 409:Lib/lvgl/src/lv_init.c ****     lv_log_register_print_cb(NULL);
 410:Lib/lvgl/src/lv_init.c **** #endif
 411:Lib/lvgl/src/lv_init.c **** 
 412:Lib/lvgl/src/lv_init.c **** }
 416              		.loc 1 412 1 is_stmt 0 view .LVU126
 417 0066 10BD     		pop	{r4, pc}
 418              	.L35:
 419              		.align	2
 420              	.L34:
 421 0068 00000000 		.word	lv_global
 422              		.cfi_endproc
 423              	.LFE260:
 425              		.global	lv_global
 426              		.section	.bss.lv_global,"aw",%nobits
 427              		.align	2
 430              	lv_global:
 431 0000 00000000 		.space	432
ARM GAS  C:\Users\Alex\AppData\Local\Temp\cchaUAv6.s 			page 17


 431      00000000 
 431      00000000 
 431      00000000 
 431      00000000 
 432              		.text
 433              	.Letext0:
 434              		.file 3 "e:\\programms\\gnu_mcu_eclipse\\toolchain\\arm-gnu-toolchain-12.2.mpacbti-bet1-mingw-w64-
 435              		.file 4 "e:\\programms\\gnu_mcu_eclipse\\toolchain\\arm-gnu-toolchain-12.2.mpacbti-bet1-mingw-w64-
 436              		.file 5 "Lib/lvgl/src/core/../misc/lv_types.h"
 437              		.file 6 "c:\\users\\alex\\eclipse-workspace\\lvgs_test\\lib\\lvgl\\src\\core\\lv_obj.h"
 438              		.file 7 "c:\\users\\alex\\eclipse-workspace\\lvgs_test\\lib\\lvgl\\src\\core\\lv_obj_class.h"
 439              		.file 8 "c:\\users\\alex\\eclipse-workspace\\lvgs_test\\lib\\lvgl\\src\\core\\lv_group.h"
 440              		.file 9 "Lib/lvgl/src/display/lv_display_private.h"
 441              		.file 10 "Lib/lvgl/src/core/../draw/lv_draw.h"
 442              		.file 11 "Lib/lvgl/src/indev/lv_indev_private.h"
 443              		.file 12 "Lib/lvgl/src/core/../draw/sw/../../display/../misc/lv_event.h"
 444              		.file 13 "Lib/lvgl/src/core/../draw/../misc/lv_timer.h"
 445              		.file 14 "Lib/lvgl/src/libs/ffmpeg/../../../src/themes/lv_theme.h"
 446              		.file 15 "Lib/lvgl/src/core/../draw/../misc/lv_anim.h"
 447              		.file 16 "Lib/lvgl/src/core/../draw/../misc/../font/lv_font.h"
 448              		.file 17 "e:\\programms\\gnu_mcu_eclipse\\toolchain\\arm-gnu-toolchain-12.2.mpacbti-bet1-mingw-w64
 449              		.file 18 "Lib/lvgl/src/core/../draw/../misc/../font/../draw/../misc/lv_area.h"
 450              		.file 19 "Lib/lvgl/src/core/../draw/../misc/../font/../draw/../misc/lv_color.h"
 451              		.file 20 "Lib/lvgl/src/core/../draw/../misc/../font/../draw/lv_image_buf.h"
 452              		.file 21 "Lib/lvgl/src/core/../draw/../misc/../font/../draw/lv_draw_buf.h"
 453              		.file 22 "c:\\users\\alex\\eclipse-workspace\\lvgs_test\\lib\\lvgl\\src\\osal\\lv_os_none.h"
 454              		.file 23 "Lib/lvgl/src/core/../draw/../misc/../font/../misc/cache/lv_cache_private.h"
 455              		.file 24 "Lib/lvgl/src/core/../draw/../misc/../tick/lv_tick.h"
 456              		.file 25 "Lib/lvgl/src/core/../draw/../misc/lv_ll.h"
 457              		.file 26 "Lib/lvgl/src/core/../draw/../misc/../layouts/lv_layout.h"
 458              		.file 27 "Lib/lvgl/src/core/../draw/../misc/lv_style.h"
 459              		.file 28 "Lib/lvgl/src/core/../draw/sw/../../display/../misc/lv_array.h"
 460              		.file 29 "Lib/lvgl/src/core/../draw/sw/../../display/lv_display.h"
 461              		.file 30 "Lib/lvgl/src/core/../draw/sw/blend/../lv_draw_sw_mask.h"
 462              		.file 31 "c:\\users\\alex\\eclipse-workspace\\lvgs_test\\lib\\lvgl\\src\\core\\lv_obj_style.h"
 463              		.file 32 "c:\\users\\alex\\eclipse-workspace\\lvgs_test\\lib\\lvgl\\src\\indev\\lv_indev.h"
 464              		.file 33 "Lib/lvgl/src/core/../stdlib/builtin/lv_tlsf.h"
 465              		.file 34 "Lib/lvgl/src/core/lv_global.h"
 466              		.file 35 "Lib/lvgl/src/libs/ffmpeg/../../../src/widgets/bar/lv_bar.h"
 467              		.file 36 "Lib/lvgl/src/libs/ffmpeg/../../../src/widgets/imagebutton/lv_imagebutton.h"
 468              		.file 37 "c:\\users\\alex\\eclipse-workspace\\lvgs_test\\lib\\lvgl\\src\\stdlib\\lv_mem.h"
 469              		.file 38 "Lib/lvgl/src/core/../draw/../misc/lv_fs.h"
 470              		.file 39 "Lib/lvgl/src/libs/ffmpeg/../../../src/core/lv_refr.h"
 471              		.file 40 "Lib/lvgl/src/core/../draw/lv_image_decoder.h"
 472              		.file 41 "Lib/lvgl/src/libs/ffmpeg/../../../src/themes/mono/lv_theme_mono.h"
 473              		.file 42 "Lib/lvgl/src/libs/ffmpeg/../../../src/themes/simple/lv_theme_simple.h"
 474              		.file 43 "Lib/lvgl/src/libs/ffmpeg/../../../src/themes/default/lv_theme_default.h"
 475              		.file 44 "Lib/lvgl/src/core/../draw/sw/lv_draw_sw.h"
 476              		.file 45 "Lib/lvgl/src/libs/ffmpeg/../../../src/widgets/span/lv_span.h"
 477              		.file 46 "Lib/lvgl/src/core/../draw/../misc/../font/../draw/../misc/lv_math.h"
 478              		.file 47 "Lib/lvgl/src/libs/bin_decoder/lv_bin_decoder.h"
ARM GAS  C:\Users\Alex\AppData\Local\Temp\cchaUAv6.s 			page 18

