ARM GAS  C:\Users\Alex\AppData\Local\Temp\ccSAPPAM.s 			page 1


   1              		.cpu cortex-m4
   2              		.arch armv7e-m
   3              		.fpu fpv4-sp-d16
   4              		.eabi_attribute 27, 1
   5              		.eabi_attribute 28, 1
   6              		.eabi_attribute 20, 1
   7              		.eabi_attribute 21, 1
   8              		.eabi_attribute 23, 3
   9              		.eabi_attribute 24, 1
  10              		.eabi_attribute 25, 1
  11              		.eabi_attribute 26, 1
  12              		.eabi_attribute 30, 1
  13              		.eabi_attribute 34, 1
  14              		.eabi_attribute 18, 4
  15              		.file	"lv_layout.c"
  16              		.text
  17              	.Ltext0:
  18              		.cfi_sections	.debug_frame
  19              		.file 1 "Lib/lvgl/src/layouts/lv_layout.c"
  20              		.section	.text._lv_layout_init,"ax",%progbits
  21              		.align	1
  22              		.global	_lv_layout_init
  23              		.syntax unified
  24              		.thumb
  25              		.thumb_func
  27              	_lv_layout_init:
  28              	.LFB234:
   1:Lib/lvgl/src/layouts/lv_layout.c **** /**
   2:Lib/lvgl/src/layouts/lv_layout.c ****  * @file lv_layout.c
   3:Lib/lvgl/src/layouts/lv_layout.c ****  *
   4:Lib/lvgl/src/layouts/lv_layout.c ****  */
   5:Lib/lvgl/src/layouts/lv_layout.c **** 
   6:Lib/lvgl/src/layouts/lv_layout.c **** /*********************
   7:Lib/lvgl/src/layouts/lv_layout.c ****  *      INCLUDES
   8:Lib/lvgl/src/layouts/lv_layout.c ****  *********************/
   9:Lib/lvgl/src/layouts/lv_layout.c **** #include "lv_layout.h"
  10:Lib/lvgl/src/layouts/lv_layout.c **** #include "../core/lv_global.h"
  11:Lib/lvgl/src/layouts/lv_layout.c **** #include "../core/lv_obj.h"
  12:Lib/lvgl/src/layouts/lv_layout.c **** 
  13:Lib/lvgl/src/layouts/lv_layout.c **** /*********************
  14:Lib/lvgl/src/layouts/lv_layout.c ****  *      DEFINES
  15:Lib/lvgl/src/layouts/lv_layout.c ****  *********************/
  16:Lib/lvgl/src/layouts/lv_layout.c **** #define layout_cnt LV_GLOBAL_DEFAULT()->layout_count
  17:Lib/lvgl/src/layouts/lv_layout.c **** #define layout_list_def LV_GLOBAL_DEFAULT()->layout_list
  18:Lib/lvgl/src/layouts/lv_layout.c **** 
  19:Lib/lvgl/src/layouts/lv_layout.c **** /**********************
  20:Lib/lvgl/src/layouts/lv_layout.c ****  *      TYPEDEFS
  21:Lib/lvgl/src/layouts/lv_layout.c ****  **********************/
  22:Lib/lvgl/src/layouts/lv_layout.c **** 
  23:Lib/lvgl/src/layouts/lv_layout.c **** /**********************
  24:Lib/lvgl/src/layouts/lv_layout.c ****  *  STATIC PROTOTYPES
  25:Lib/lvgl/src/layouts/lv_layout.c ****  **********************/
  26:Lib/lvgl/src/layouts/lv_layout.c **** 
  27:Lib/lvgl/src/layouts/lv_layout.c **** /**********************
  28:Lib/lvgl/src/layouts/lv_layout.c ****  *  STATIC VARIABLES
  29:Lib/lvgl/src/layouts/lv_layout.c ****  **********************/
  30:Lib/lvgl/src/layouts/lv_layout.c **** 
ARM GAS  C:\Users\Alex\AppData\Local\Temp\ccSAPPAM.s 			page 2


  31:Lib/lvgl/src/layouts/lv_layout.c **** /**********************
  32:Lib/lvgl/src/layouts/lv_layout.c ****  *      MACROS
  33:Lib/lvgl/src/layouts/lv_layout.c ****  **********************/
  34:Lib/lvgl/src/layouts/lv_layout.c **** 
  35:Lib/lvgl/src/layouts/lv_layout.c **** /**********************
  36:Lib/lvgl/src/layouts/lv_layout.c ****  *   GLOBAL FUNCTIONS
  37:Lib/lvgl/src/layouts/lv_layout.c ****  **********************/
  38:Lib/lvgl/src/layouts/lv_layout.c **** 
  39:Lib/lvgl/src/layouts/lv_layout.c **** void _lv_layout_init(void)
  40:Lib/lvgl/src/layouts/lv_layout.c **** {
  29              		.loc 1 40 1 view -0
  30              		.cfi_startproc
  31              		@ args = 0, pretend = 0, frame = 0
  32              		@ frame_needed = 0, uses_anonymous_args = 0
  33 0000 10B5     		push	{r4, lr}
  34              	.LCFI0:
  35              		.cfi_def_cfa_offset 8
  36              		.cfi_offset 4, -8
  37              		.cfi_offset 14, -4
  41:Lib/lvgl/src/layouts/lv_layout.c ****     /*Malloc a list for the built in layouts*/
  42:Lib/lvgl/src/layouts/lv_layout.c ****     layout_list_def = lv_malloc(layout_cnt * sizeof(lv_layout_dsc_t));
  38              		.loc 1 42 5 view .LVU1
  39              		.loc 1 42 33 is_stmt 0 view .LVU2
  40 0002 054C     		ldr	r4, .L3
  41 0004 A06D     		ldr	r0, [r4, #88]
  42              		.loc 1 42 23 view .LVU3
  43 0006 C000     		lsls	r0, r0, #3
  44 0008 FFF7FEFF 		bl	lv_malloc
  45              	.LVL0:
  46              		.loc 1 42 21 view .LVU4
  47 000c E065     		str	r0, [r4, #92]
  43:Lib/lvgl/src/layouts/lv_layout.c **** 
  44:Lib/lvgl/src/layouts/lv_layout.c **** #if LV_USE_FLEX
  45:Lib/lvgl/src/layouts/lv_layout.c ****     lv_flex_init();
  48              		.loc 1 45 5 is_stmt 1 view .LVU5
  49 000e FFF7FEFF 		bl	lv_flex_init
  50              	.LVL1:
  46:Lib/lvgl/src/layouts/lv_layout.c **** #endif
  47:Lib/lvgl/src/layouts/lv_layout.c **** 
  48:Lib/lvgl/src/layouts/lv_layout.c **** #if LV_USE_GRID
  49:Lib/lvgl/src/layouts/lv_layout.c ****     lv_grid_init();
  51              		.loc 1 49 5 view .LVU6
  52 0012 FFF7FEFF 		bl	lv_grid_init
  53              	.LVL2:
  50:Lib/lvgl/src/layouts/lv_layout.c **** #endif
  51:Lib/lvgl/src/layouts/lv_layout.c **** }
  54              		.loc 1 51 1 is_stmt 0 view .LVU7
  55 0016 10BD     		pop	{r4, pc}
  56              	.L4:
  57              		.align	2
  58              	.L3:
  59 0018 00000000 		.word	lv_global
  60              		.cfi_endproc
  61              	.LFE234:
  63              		.section	.text._lv_layout_deinit,"ax",%progbits
  64              		.align	1
  65              		.global	_lv_layout_deinit
ARM GAS  C:\Users\Alex\AppData\Local\Temp\ccSAPPAM.s 			page 3


  66              		.syntax unified
  67              		.thumb
  68              		.thumb_func
  70              	_lv_layout_deinit:
  71              	.LFB235:
  52:Lib/lvgl/src/layouts/lv_layout.c **** 
  53:Lib/lvgl/src/layouts/lv_layout.c **** void _lv_layout_deinit(void)
  54:Lib/lvgl/src/layouts/lv_layout.c **** {
  72              		.loc 1 54 1 is_stmt 1 view -0
  73              		.cfi_startproc
  74              		@ args = 0, pretend = 0, frame = 0
  75              		@ frame_needed = 0, uses_anonymous_args = 0
  76 0000 08B5     		push	{r3, lr}
  77              	.LCFI1:
  78              		.cfi_def_cfa_offset 8
  79              		.cfi_offset 3, -8
  80              		.cfi_offset 14, -4
  55:Lib/lvgl/src/layouts/lv_layout.c ****     lv_free(layout_list_def);
  81              		.loc 1 55 5 view .LVU9
  82 0002 024B     		ldr	r3, .L7
  83 0004 D86D     		ldr	r0, [r3, #92]
  84 0006 FFF7FEFF 		bl	lv_free
  85              	.LVL3:
  56:Lib/lvgl/src/layouts/lv_layout.c **** }
  86              		.loc 1 56 1 is_stmt 0 view .LVU10
  87 000a 08BD     		pop	{r3, pc}
  88              	.L8:
  89              		.align	2
  90              	.L7:
  91 000c 00000000 		.word	lv_global
  92              		.cfi_endproc
  93              	.LFE235:
  95              		.section	.text.lv_layout_register,"ax",%progbits
  96              		.align	1
  97              		.global	lv_layout_register
  98              		.syntax unified
  99              		.thumb
 100              		.thumb_func
 102              	lv_layout_register:
 103              	.LVL4:
 104              	.LFB236:
  57:Lib/lvgl/src/layouts/lv_layout.c **** 
  58:Lib/lvgl/src/layouts/lv_layout.c **** uint32_t lv_layout_register(lv_layout_update_cb_t cb, void * user_data)
  59:Lib/lvgl/src/layouts/lv_layout.c **** {
 105              		.loc 1 59 1 is_stmt 1 view -0
 106              		.cfi_startproc
 107              		@ args = 0, pretend = 0, frame = 0
 108              		@ frame_needed = 0, uses_anonymous_args = 0
 109              		.loc 1 59 1 is_stmt 0 view .LVU12
 110 0000 70B5     		push	{r4, r5, r6, lr}
 111              	.LCFI2:
 112              		.cfi_def_cfa_offset 16
 113              		.cfi_offset 4, -16
 114              		.cfi_offset 5, -12
 115              		.cfi_offset 6, -8
 116              		.cfi_offset 14, -4
 117 0002 0646     		mov	r6, r0
ARM GAS  C:\Users\Alex\AppData\Local\Temp\ccSAPPAM.s 			page 4


 118 0004 0D46     		mov	r5, r1
  60:Lib/lvgl/src/layouts/lv_layout.c ****     layout_list_def = lv_realloc(layout_list_def, (layout_cnt + 1) * sizeof(lv_layout_dsc_t));
 119              		.loc 1 60 5 is_stmt 1 view .LVU13
 120              		.loc 1 60 34 is_stmt 0 view .LVU14
 121 0006 0B4C     		ldr	r4, .L13
 122              		.loc 1 60 52 view .LVU15
 123 0008 A36D     		ldr	r3, [r4, #88]
 124              		.loc 1 60 63 view .LVU16
 125 000a 0133     		adds	r3, r3, #1
 126              		.loc 1 60 23 view .LVU17
 127 000c D900     		lsls	r1, r3, #3
 128              	.LVL5:
 129              		.loc 1 60 23 view .LVU18
 130 000e E06D     		ldr	r0, [r4, #92]
 131              	.LVL6:
 132              		.loc 1 60 23 view .LVU19
 133 0010 FFF7FEFF 		bl	lv_realloc
 134              	.LVL7:
 135              		.loc 1 60 21 view .LVU20
 136 0014 E065     		str	r0, [r4, #92]
  61:Lib/lvgl/src/layouts/lv_layout.c ****     LV_ASSERT_MALLOC(layout_list_def);
 137              		.loc 1 61 5 is_stmt 1 view .LVU21
 138              		.loc 1 61 5 view .LVU22
 139 0016 60B1     		cbz	r0, .L11
 140              		.loc 1 61 5 discriminator 2 view .LVU23
 141              		.loc 1 61 38 discriminator 2 view .LVU24
  62:Lib/lvgl/src/layouts/lv_layout.c **** 
  63:Lib/lvgl/src/layouts/lv_layout.c ****     layout_list_def[layout_cnt].cb = cb;
 142              		.loc 1 63 5 discriminator 2 view .LVU25
 143              		.loc 1 63 21 is_stmt 0 discriminator 2 view .LVU26
 144 0018 064B     		ldr	r3, .L13
 145 001a 9A6D     		ldr	r2, [r3, #88]
 146              		.loc 1 63 36 discriminator 2 view .LVU27
 147 001c 40F83260 		str	r6, [r0, r2, lsl #3]
  64:Lib/lvgl/src/layouts/lv_layout.c ****     layout_list_def[layout_cnt].user_data = user_data;
 148              		.loc 1 64 5 is_stmt 1 discriminator 2 view .LVU28
 149 0020 DA6D     		ldr	r2, [r3, #92]
 150              		.loc 1 64 21 is_stmt 0 discriminator 2 view .LVU29
 151 0022 996D     		ldr	r1, [r3, #88]
 152              		.loc 1 64 20 discriminator 2 view .LVU30
 153 0024 02EBC102 		add	r2, r2, r1, lsl #3
 154              		.loc 1 64 43 discriminator 2 view .LVU31
 155 0028 5560     		str	r5, [r2, #4]
  65:Lib/lvgl/src/layouts/lv_layout.c ****     return layout_cnt++;
 156              		.loc 1 65 5 is_stmt 1 discriminator 2 view .LVU32
 157              		.loc 1 65 12 is_stmt 0 discriminator 2 view .LVU33
 158 002a 986D     		ldr	r0, [r3, #88]
 159              		.loc 1 65 22 discriminator 2 view .LVU34
 160 002c 421C     		adds	r2, r0, #1
 161 002e 9A65     		str	r2, [r3, #88]
  66:Lib/lvgl/src/layouts/lv_layout.c **** }
 162              		.loc 1 66 1 discriminator 2 view .LVU35
 163 0030 70BD     		pop	{r4, r5, r6, pc}
 164              	.LVL8:
 165              	.L11:
  61:Lib/lvgl/src/layouts/lv_layout.c **** 
 166              		.loc 1 61 5 is_stmt 1 discriminator 1 view .LVU36
ARM GAS  C:\Users\Alex\AppData\Local\Temp\ccSAPPAM.s 			page 5


  61:Lib/lvgl/src/layouts/lv_layout.c **** 
 167              		.loc 1 61 5 discriminator 1 view .LVU37
  61:Lib/lvgl/src/layouts/lv_layout.c **** 
 168              		.loc 1 61 5 discriminator 1 view .LVU38
  61:Lib/lvgl/src/layouts/lv_layout.c **** 
 169              		.loc 1 61 5 discriminator 1 view .LVU39
  61:Lib/lvgl/src/layouts/lv_layout.c **** 
 170              		.loc 1 61 5 discriminator 1 view .LVU40
 171 0032 FEE7     		b	.L11
 172              	.L14:
 173              		.align	2
 174              	.L13:
 175 0034 00000000 		.word	lv_global
 176              		.cfi_endproc
 177              	.LFE236:
 179              		.section	.text._lv_layout_apply,"ax",%progbits
 180              		.align	1
 181              		.global	_lv_layout_apply
 182              		.syntax unified
 183              		.thumb
 184              		.thumb_func
 186              	_lv_layout_apply:
 187              	.LVL9:
 188              	.LFB237:
  67:Lib/lvgl/src/layouts/lv_layout.c **** 
  68:Lib/lvgl/src/layouts/lv_layout.c **** void _lv_layout_apply(lv_obj_t * obj)
  69:Lib/lvgl/src/layouts/lv_layout.c **** {
 189              		.loc 1 69 1 view -0
 190              		.cfi_startproc
 191              		@ args = 0, pretend = 0, frame = 8
 192              		@ frame_needed = 0, uses_anonymous_args = 0
 193              		.loc 1 69 1 is_stmt 0 view .LVU42
 194 0000 10B5     		push	{r4, lr}
 195              	.LCFI3:
 196              		.cfi_def_cfa_offset 8
 197              		.cfi_offset 4, -8
 198              		.cfi_offset 14, -4
 199 0002 82B0     		sub	sp, sp, #8
 200              	.LCFI4:
 201              		.cfi_def_cfa_offset 16
 202 0004 0446     		mov	r4, r0
  70:Lib/lvgl/src/layouts/lv_layout.c ****     lv_layout_t layout_id = lv_obj_get_style_layout(obj, LV_PART_MAIN);
 203              		.loc 1 70 5 is_stmt 1 view .LVU43
 204              	.LVL10:
 205              	.LBB5:
 206              	.LBI5:
 207              		.file 2 "c:\\users\\alex\\eclipse-workspace\\lvgs_test\\lib\\lvgl\\src\\core\\lv_obj_style_gen.h"
   1:c:\users\alex\eclipse-workspace\lvgs_test\lib\lvgl\src\core\lv_obj_style_gen.h **** 
   2:c:\users\alex\eclipse-workspace\lvgs_test\lib\lvgl\src\core\lv_obj_style_gen.h **** /*
   3:c:\users\alex\eclipse-workspace\lvgs_test\lib\lvgl\src\core\lv_obj_style_gen.h ****  **********************************************************************
   4:c:\users\alex\eclipse-workspace\lvgs_test\lib\lvgl\src\core\lv_obj_style_gen.h ****  *                            DO NOT EDIT
   5:c:\users\alex\eclipse-workspace\lvgs_test\lib\lvgl\src\core\lv_obj_style_gen.h ****  * This file is automatically generated by "style_api_gen.py"
   6:c:\users\alex\eclipse-workspace\lvgs_test\lib\lvgl\src\core\lv_obj_style_gen.h ****  **********************************************************************
   7:c:\users\alex\eclipse-workspace\lvgs_test\lib\lvgl\src\core\lv_obj_style_gen.h ****  */
   8:c:\users\alex\eclipse-workspace\lvgs_test\lib\lvgl\src\core\lv_obj_style_gen.h **** 
   9:c:\users\alex\eclipse-workspace\lvgs_test\lib\lvgl\src\core\lv_obj_style_gen.h **** #ifndef LV_OBJ_STYLE_GEN_H
  10:c:\users\alex\eclipse-workspace\lvgs_test\lib\lvgl\src\core\lv_obj_style_gen.h **** #define LV_OBJ_STYLE_GEN_H
ARM GAS  C:\Users\Alex\AppData\Local\Temp\ccSAPPAM.s 			page 6


  11:c:\users\alex\eclipse-workspace\lvgs_test\lib\lvgl\src\core\lv_obj_style_gen.h **** 
  12:c:\users\alex\eclipse-workspace\lvgs_test\lib\lvgl\src\core\lv_obj_style_gen.h **** #include "../misc/lv_area.h"
  13:c:\users\alex\eclipse-workspace\lvgs_test\lib\lvgl\src\core\lv_obj_style_gen.h **** #include "../misc/lv_style.h"
  14:c:\users\alex\eclipse-workspace\lvgs_test\lib\lvgl\src\core\lv_obj_style_gen.h **** #include "../core/lv_obj_style.h"
  15:c:\users\alex\eclipse-workspace\lvgs_test\lib\lvgl\src\core\lv_obj_style_gen.h **** 
  16:c:\users\alex\eclipse-workspace\lvgs_test\lib\lvgl\src\core\lv_obj_style_gen.h **** static inline int32_t lv_obj_get_style_width(const lv_obj_t * obj, uint32_t part)
  17:c:\users\alex\eclipse-workspace\lvgs_test\lib\lvgl\src\core\lv_obj_style_gen.h **** {
  18:c:\users\alex\eclipse-workspace\lvgs_test\lib\lvgl\src\core\lv_obj_style_gen.h ****     lv_style_value_t v = lv_obj_get_style_prop(obj, part, LV_STYLE_WIDTH);
  19:c:\users\alex\eclipse-workspace\lvgs_test\lib\lvgl\src\core\lv_obj_style_gen.h ****     return (int32_t)v.num;
  20:c:\users\alex\eclipse-workspace\lvgs_test\lib\lvgl\src\core\lv_obj_style_gen.h **** }
  21:c:\users\alex\eclipse-workspace\lvgs_test\lib\lvgl\src\core\lv_obj_style_gen.h **** 
  22:c:\users\alex\eclipse-workspace\lvgs_test\lib\lvgl\src\core\lv_obj_style_gen.h **** static inline int32_t lv_obj_get_style_min_width(const lv_obj_t * obj, uint32_t part)
  23:c:\users\alex\eclipse-workspace\lvgs_test\lib\lvgl\src\core\lv_obj_style_gen.h **** {
  24:c:\users\alex\eclipse-workspace\lvgs_test\lib\lvgl\src\core\lv_obj_style_gen.h ****     lv_style_value_t v = lv_obj_get_style_prop(obj, part, LV_STYLE_MIN_WIDTH);
  25:c:\users\alex\eclipse-workspace\lvgs_test\lib\lvgl\src\core\lv_obj_style_gen.h ****     return (int32_t)v.num;
  26:c:\users\alex\eclipse-workspace\lvgs_test\lib\lvgl\src\core\lv_obj_style_gen.h **** }
  27:c:\users\alex\eclipse-workspace\lvgs_test\lib\lvgl\src\core\lv_obj_style_gen.h **** 
  28:c:\users\alex\eclipse-workspace\lvgs_test\lib\lvgl\src\core\lv_obj_style_gen.h **** static inline int32_t lv_obj_get_style_max_width(const lv_obj_t * obj, uint32_t part)
  29:c:\users\alex\eclipse-workspace\lvgs_test\lib\lvgl\src\core\lv_obj_style_gen.h **** {
  30:c:\users\alex\eclipse-workspace\lvgs_test\lib\lvgl\src\core\lv_obj_style_gen.h ****     lv_style_value_t v = lv_obj_get_style_prop(obj, part, LV_STYLE_MAX_WIDTH);
  31:c:\users\alex\eclipse-workspace\lvgs_test\lib\lvgl\src\core\lv_obj_style_gen.h ****     return (int32_t)v.num;
  32:c:\users\alex\eclipse-workspace\lvgs_test\lib\lvgl\src\core\lv_obj_style_gen.h **** }
  33:c:\users\alex\eclipse-workspace\lvgs_test\lib\lvgl\src\core\lv_obj_style_gen.h **** 
  34:c:\users\alex\eclipse-workspace\lvgs_test\lib\lvgl\src\core\lv_obj_style_gen.h **** static inline int32_t lv_obj_get_style_height(const lv_obj_t * obj, uint32_t part)
  35:c:\users\alex\eclipse-workspace\lvgs_test\lib\lvgl\src\core\lv_obj_style_gen.h **** {
  36:c:\users\alex\eclipse-workspace\lvgs_test\lib\lvgl\src\core\lv_obj_style_gen.h ****     lv_style_value_t v = lv_obj_get_style_prop(obj, part, LV_STYLE_HEIGHT);
  37:c:\users\alex\eclipse-workspace\lvgs_test\lib\lvgl\src\core\lv_obj_style_gen.h ****     return (int32_t)v.num;
  38:c:\users\alex\eclipse-workspace\lvgs_test\lib\lvgl\src\core\lv_obj_style_gen.h **** }
  39:c:\users\alex\eclipse-workspace\lvgs_test\lib\lvgl\src\core\lv_obj_style_gen.h **** 
  40:c:\users\alex\eclipse-workspace\lvgs_test\lib\lvgl\src\core\lv_obj_style_gen.h **** static inline int32_t lv_obj_get_style_min_height(const lv_obj_t * obj, uint32_t part)
  41:c:\users\alex\eclipse-workspace\lvgs_test\lib\lvgl\src\core\lv_obj_style_gen.h **** {
  42:c:\users\alex\eclipse-workspace\lvgs_test\lib\lvgl\src\core\lv_obj_style_gen.h ****     lv_style_value_t v = lv_obj_get_style_prop(obj, part, LV_STYLE_MIN_HEIGHT);
  43:c:\users\alex\eclipse-workspace\lvgs_test\lib\lvgl\src\core\lv_obj_style_gen.h ****     return (int32_t)v.num;
  44:c:\users\alex\eclipse-workspace\lvgs_test\lib\lvgl\src\core\lv_obj_style_gen.h **** }
  45:c:\users\alex\eclipse-workspace\lvgs_test\lib\lvgl\src\core\lv_obj_style_gen.h **** 
  46:c:\users\alex\eclipse-workspace\lvgs_test\lib\lvgl\src\core\lv_obj_style_gen.h **** static inline int32_t lv_obj_get_style_max_height(const lv_obj_t * obj, uint32_t part)
  47:c:\users\alex\eclipse-workspace\lvgs_test\lib\lvgl\src\core\lv_obj_style_gen.h **** {
  48:c:\users\alex\eclipse-workspace\lvgs_test\lib\lvgl\src\core\lv_obj_style_gen.h ****     lv_style_value_t v = lv_obj_get_style_prop(obj, part, LV_STYLE_MAX_HEIGHT);
  49:c:\users\alex\eclipse-workspace\lvgs_test\lib\lvgl\src\core\lv_obj_style_gen.h ****     return (int32_t)v.num;
  50:c:\users\alex\eclipse-workspace\lvgs_test\lib\lvgl\src\core\lv_obj_style_gen.h **** }
  51:c:\users\alex\eclipse-workspace\lvgs_test\lib\lvgl\src\core\lv_obj_style_gen.h **** 
  52:c:\users\alex\eclipse-workspace\lvgs_test\lib\lvgl\src\core\lv_obj_style_gen.h **** static inline int32_t lv_obj_get_style_length(const lv_obj_t * obj, uint32_t part)
  53:c:\users\alex\eclipse-workspace\lvgs_test\lib\lvgl\src\core\lv_obj_style_gen.h **** {
  54:c:\users\alex\eclipse-workspace\lvgs_test\lib\lvgl\src\core\lv_obj_style_gen.h ****     lv_style_value_t v = lv_obj_get_style_prop(obj, part, LV_STYLE_LENGTH);
  55:c:\users\alex\eclipse-workspace\lvgs_test\lib\lvgl\src\core\lv_obj_style_gen.h ****     return (int32_t)v.num;
  56:c:\users\alex\eclipse-workspace\lvgs_test\lib\lvgl\src\core\lv_obj_style_gen.h **** }
  57:c:\users\alex\eclipse-workspace\lvgs_test\lib\lvgl\src\core\lv_obj_style_gen.h **** 
  58:c:\users\alex\eclipse-workspace\lvgs_test\lib\lvgl\src\core\lv_obj_style_gen.h **** static inline int32_t lv_obj_get_style_x(const lv_obj_t * obj, uint32_t part)
  59:c:\users\alex\eclipse-workspace\lvgs_test\lib\lvgl\src\core\lv_obj_style_gen.h **** {
  60:c:\users\alex\eclipse-workspace\lvgs_test\lib\lvgl\src\core\lv_obj_style_gen.h ****     lv_style_value_t v = lv_obj_get_style_prop(obj, part, LV_STYLE_X);
  61:c:\users\alex\eclipse-workspace\lvgs_test\lib\lvgl\src\core\lv_obj_style_gen.h ****     return (int32_t)v.num;
  62:c:\users\alex\eclipse-workspace\lvgs_test\lib\lvgl\src\core\lv_obj_style_gen.h **** }
  63:c:\users\alex\eclipse-workspace\lvgs_test\lib\lvgl\src\core\lv_obj_style_gen.h **** 
  64:c:\users\alex\eclipse-workspace\lvgs_test\lib\lvgl\src\core\lv_obj_style_gen.h **** static inline int32_t lv_obj_get_style_y(const lv_obj_t * obj, uint32_t part)
  65:c:\users\alex\eclipse-workspace\lvgs_test\lib\lvgl\src\core\lv_obj_style_gen.h **** {
  66:c:\users\alex\eclipse-workspace\lvgs_test\lib\lvgl\src\core\lv_obj_style_gen.h ****     lv_style_value_t v = lv_obj_get_style_prop(obj, part, LV_STYLE_Y);
  67:c:\users\alex\eclipse-workspace\lvgs_test\lib\lvgl\src\core\lv_obj_style_gen.h ****     return (int32_t)v.num;
ARM GAS  C:\Users\Alex\AppData\Local\Temp\ccSAPPAM.s 			page 7


  68:c:\users\alex\eclipse-workspace\lvgs_test\lib\lvgl\src\core\lv_obj_style_gen.h **** }
  69:c:\users\alex\eclipse-workspace\lvgs_test\lib\lvgl\src\core\lv_obj_style_gen.h **** 
  70:c:\users\alex\eclipse-workspace\lvgs_test\lib\lvgl\src\core\lv_obj_style_gen.h **** static inline lv_align_t lv_obj_get_style_align(const lv_obj_t * obj, uint32_t part)
  71:c:\users\alex\eclipse-workspace\lvgs_test\lib\lvgl\src\core\lv_obj_style_gen.h **** {
  72:c:\users\alex\eclipse-workspace\lvgs_test\lib\lvgl\src\core\lv_obj_style_gen.h ****     lv_style_value_t v = lv_obj_get_style_prop(obj, part, LV_STYLE_ALIGN);
  73:c:\users\alex\eclipse-workspace\lvgs_test\lib\lvgl\src\core\lv_obj_style_gen.h ****     return (lv_align_t)v.num;
  74:c:\users\alex\eclipse-workspace\lvgs_test\lib\lvgl\src\core\lv_obj_style_gen.h **** }
  75:c:\users\alex\eclipse-workspace\lvgs_test\lib\lvgl\src\core\lv_obj_style_gen.h **** 
  76:c:\users\alex\eclipse-workspace\lvgs_test\lib\lvgl\src\core\lv_obj_style_gen.h **** static inline int32_t lv_obj_get_style_transform_width(const lv_obj_t * obj, uint32_t part)
  77:c:\users\alex\eclipse-workspace\lvgs_test\lib\lvgl\src\core\lv_obj_style_gen.h **** {
  78:c:\users\alex\eclipse-workspace\lvgs_test\lib\lvgl\src\core\lv_obj_style_gen.h ****     lv_style_value_t v = lv_obj_get_style_prop(obj, part, LV_STYLE_TRANSFORM_WIDTH);
  79:c:\users\alex\eclipse-workspace\lvgs_test\lib\lvgl\src\core\lv_obj_style_gen.h ****     return (int32_t)v.num;
  80:c:\users\alex\eclipse-workspace\lvgs_test\lib\lvgl\src\core\lv_obj_style_gen.h **** }
  81:c:\users\alex\eclipse-workspace\lvgs_test\lib\lvgl\src\core\lv_obj_style_gen.h **** 
  82:c:\users\alex\eclipse-workspace\lvgs_test\lib\lvgl\src\core\lv_obj_style_gen.h **** static inline int32_t lv_obj_get_style_transform_height(const lv_obj_t * obj, uint32_t part)
  83:c:\users\alex\eclipse-workspace\lvgs_test\lib\lvgl\src\core\lv_obj_style_gen.h **** {
  84:c:\users\alex\eclipse-workspace\lvgs_test\lib\lvgl\src\core\lv_obj_style_gen.h ****     lv_style_value_t v = lv_obj_get_style_prop(obj, part, LV_STYLE_TRANSFORM_HEIGHT);
  85:c:\users\alex\eclipse-workspace\lvgs_test\lib\lvgl\src\core\lv_obj_style_gen.h ****     return (int32_t)v.num;
  86:c:\users\alex\eclipse-workspace\lvgs_test\lib\lvgl\src\core\lv_obj_style_gen.h **** }
  87:c:\users\alex\eclipse-workspace\lvgs_test\lib\lvgl\src\core\lv_obj_style_gen.h **** 
  88:c:\users\alex\eclipse-workspace\lvgs_test\lib\lvgl\src\core\lv_obj_style_gen.h **** static inline int32_t lv_obj_get_style_translate_x(const lv_obj_t * obj, uint32_t part)
  89:c:\users\alex\eclipse-workspace\lvgs_test\lib\lvgl\src\core\lv_obj_style_gen.h **** {
  90:c:\users\alex\eclipse-workspace\lvgs_test\lib\lvgl\src\core\lv_obj_style_gen.h ****     lv_style_value_t v = lv_obj_get_style_prop(obj, part, LV_STYLE_TRANSLATE_X);
  91:c:\users\alex\eclipse-workspace\lvgs_test\lib\lvgl\src\core\lv_obj_style_gen.h ****     return (int32_t)v.num;
  92:c:\users\alex\eclipse-workspace\lvgs_test\lib\lvgl\src\core\lv_obj_style_gen.h **** }
  93:c:\users\alex\eclipse-workspace\lvgs_test\lib\lvgl\src\core\lv_obj_style_gen.h **** 
  94:c:\users\alex\eclipse-workspace\lvgs_test\lib\lvgl\src\core\lv_obj_style_gen.h **** static inline int32_t lv_obj_get_style_translate_y(const lv_obj_t * obj, uint32_t part)
  95:c:\users\alex\eclipse-workspace\lvgs_test\lib\lvgl\src\core\lv_obj_style_gen.h **** {
  96:c:\users\alex\eclipse-workspace\lvgs_test\lib\lvgl\src\core\lv_obj_style_gen.h ****     lv_style_value_t v = lv_obj_get_style_prop(obj, part, LV_STYLE_TRANSLATE_Y);
  97:c:\users\alex\eclipse-workspace\lvgs_test\lib\lvgl\src\core\lv_obj_style_gen.h ****     return (int32_t)v.num;
  98:c:\users\alex\eclipse-workspace\lvgs_test\lib\lvgl\src\core\lv_obj_style_gen.h **** }
  99:c:\users\alex\eclipse-workspace\lvgs_test\lib\lvgl\src\core\lv_obj_style_gen.h **** 
 100:c:\users\alex\eclipse-workspace\lvgs_test\lib\lvgl\src\core\lv_obj_style_gen.h **** static inline int32_t lv_obj_get_style_transform_scale_x(const lv_obj_t * obj, uint32_t part)
 101:c:\users\alex\eclipse-workspace\lvgs_test\lib\lvgl\src\core\lv_obj_style_gen.h **** {
 102:c:\users\alex\eclipse-workspace\lvgs_test\lib\lvgl\src\core\lv_obj_style_gen.h ****     lv_style_value_t v = lv_obj_get_style_prop(obj, part, LV_STYLE_TRANSFORM_SCALE_X);
 103:c:\users\alex\eclipse-workspace\lvgs_test\lib\lvgl\src\core\lv_obj_style_gen.h ****     return (int32_t)v.num;
 104:c:\users\alex\eclipse-workspace\lvgs_test\lib\lvgl\src\core\lv_obj_style_gen.h **** }
 105:c:\users\alex\eclipse-workspace\lvgs_test\lib\lvgl\src\core\lv_obj_style_gen.h **** 
 106:c:\users\alex\eclipse-workspace\lvgs_test\lib\lvgl\src\core\lv_obj_style_gen.h **** static inline int32_t lv_obj_get_style_transform_scale_y(const lv_obj_t * obj, uint32_t part)
 107:c:\users\alex\eclipse-workspace\lvgs_test\lib\lvgl\src\core\lv_obj_style_gen.h **** {
 108:c:\users\alex\eclipse-workspace\lvgs_test\lib\lvgl\src\core\lv_obj_style_gen.h ****     lv_style_value_t v = lv_obj_get_style_prop(obj, part, LV_STYLE_TRANSFORM_SCALE_Y);
 109:c:\users\alex\eclipse-workspace\lvgs_test\lib\lvgl\src\core\lv_obj_style_gen.h ****     return (int32_t)v.num;
 110:c:\users\alex\eclipse-workspace\lvgs_test\lib\lvgl\src\core\lv_obj_style_gen.h **** }
 111:c:\users\alex\eclipse-workspace\lvgs_test\lib\lvgl\src\core\lv_obj_style_gen.h **** 
 112:c:\users\alex\eclipse-workspace\lvgs_test\lib\lvgl\src\core\lv_obj_style_gen.h **** static inline int32_t lv_obj_get_style_transform_rotation(const lv_obj_t * obj, uint32_t part)
 113:c:\users\alex\eclipse-workspace\lvgs_test\lib\lvgl\src\core\lv_obj_style_gen.h **** {
 114:c:\users\alex\eclipse-workspace\lvgs_test\lib\lvgl\src\core\lv_obj_style_gen.h ****     lv_style_value_t v = lv_obj_get_style_prop(obj, part, LV_STYLE_TRANSFORM_ROTATION);
 115:c:\users\alex\eclipse-workspace\lvgs_test\lib\lvgl\src\core\lv_obj_style_gen.h ****     return (int32_t)v.num;
 116:c:\users\alex\eclipse-workspace\lvgs_test\lib\lvgl\src\core\lv_obj_style_gen.h **** }
 117:c:\users\alex\eclipse-workspace\lvgs_test\lib\lvgl\src\core\lv_obj_style_gen.h **** 
 118:c:\users\alex\eclipse-workspace\lvgs_test\lib\lvgl\src\core\lv_obj_style_gen.h **** static inline int32_t lv_obj_get_style_transform_pivot_x(const lv_obj_t * obj, uint32_t part)
 119:c:\users\alex\eclipse-workspace\lvgs_test\lib\lvgl\src\core\lv_obj_style_gen.h **** {
 120:c:\users\alex\eclipse-workspace\lvgs_test\lib\lvgl\src\core\lv_obj_style_gen.h ****     lv_style_value_t v = lv_obj_get_style_prop(obj, part, LV_STYLE_TRANSFORM_PIVOT_X);
 121:c:\users\alex\eclipse-workspace\lvgs_test\lib\lvgl\src\core\lv_obj_style_gen.h ****     return (int32_t)v.num;
 122:c:\users\alex\eclipse-workspace\lvgs_test\lib\lvgl\src\core\lv_obj_style_gen.h **** }
 123:c:\users\alex\eclipse-workspace\lvgs_test\lib\lvgl\src\core\lv_obj_style_gen.h **** 
 124:c:\users\alex\eclipse-workspace\lvgs_test\lib\lvgl\src\core\lv_obj_style_gen.h **** static inline int32_t lv_obj_get_style_transform_pivot_y(const lv_obj_t * obj, uint32_t part)
ARM GAS  C:\Users\Alex\AppData\Local\Temp\ccSAPPAM.s 			page 8


 125:c:\users\alex\eclipse-workspace\lvgs_test\lib\lvgl\src\core\lv_obj_style_gen.h **** {
 126:c:\users\alex\eclipse-workspace\lvgs_test\lib\lvgl\src\core\lv_obj_style_gen.h ****     lv_style_value_t v = lv_obj_get_style_prop(obj, part, LV_STYLE_TRANSFORM_PIVOT_Y);
 127:c:\users\alex\eclipse-workspace\lvgs_test\lib\lvgl\src\core\lv_obj_style_gen.h ****     return (int32_t)v.num;
 128:c:\users\alex\eclipse-workspace\lvgs_test\lib\lvgl\src\core\lv_obj_style_gen.h **** }
 129:c:\users\alex\eclipse-workspace\lvgs_test\lib\lvgl\src\core\lv_obj_style_gen.h **** 
 130:c:\users\alex\eclipse-workspace\lvgs_test\lib\lvgl\src\core\lv_obj_style_gen.h **** static inline int32_t lv_obj_get_style_transform_skew_x(const lv_obj_t * obj, uint32_t part)
 131:c:\users\alex\eclipse-workspace\lvgs_test\lib\lvgl\src\core\lv_obj_style_gen.h **** {
 132:c:\users\alex\eclipse-workspace\lvgs_test\lib\lvgl\src\core\lv_obj_style_gen.h ****     lv_style_value_t v = lv_obj_get_style_prop(obj, part, LV_STYLE_TRANSFORM_SKEW_X);
 133:c:\users\alex\eclipse-workspace\lvgs_test\lib\lvgl\src\core\lv_obj_style_gen.h ****     return (int32_t)v.num;
 134:c:\users\alex\eclipse-workspace\lvgs_test\lib\lvgl\src\core\lv_obj_style_gen.h **** }
 135:c:\users\alex\eclipse-workspace\lvgs_test\lib\lvgl\src\core\lv_obj_style_gen.h **** 
 136:c:\users\alex\eclipse-workspace\lvgs_test\lib\lvgl\src\core\lv_obj_style_gen.h **** static inline int32_t lv_obj_get_style_transform_skew_y(const lv_obj_t * obj, uint32_t part)
 137:c:\users\alex\eclipse-workspace\lvgs_test\lib\lvgl\src\core\lv_obj_style_gen.h **** {
 138:c:\users\alex\eclipse-workspace\lvgs_test\lib\lvgl\src\core\lv_obj_style_gen.h ****     lv_style_value_t v = lv_obj_get_style_prop(obj, part, LV_STYLE_TRANSFORM_SKEW_Y);
 139:c:\users\alex\eclipse-workspace\lvgs_test\lib\lvgl\src\core\lv_obj_style_gen.h ****     return (int32_t)v.num;
 140:c:\users\alex\eclipse-workspace\lvgs_test\lib\lvgl\src\core\lv_obj_style_gen.h **** }
 141:c:\users\alex\eclipse-workspace\lvgs_test\lib\lvgl\src\core\lv_obj_style_gen.h **** 
 142:c:\users\alex\eclipse-workspace\lvgs_test\lib\lvgl\src\core\lv_obj_style_gen.h **** static inline int32_t lv_obj_get_style_pad_top(const lv_obj_t * obj, uint32_t part)
 143:c:\users\alex\eclipse-workspace\lvgs_test\lib\lvgl\src\core\lv_obj_style_gen.h **** {
 144:c:\users\alex\eclipse-workspace\lvgs_test\lib\lvgl\src\core\lv_obj_style_gen.h ****     lv_style_value_t v = lv_obj_get_style_prop(obj, part, LV_STYLE_PAD_TOP);
 145:c:\users\alex\eclipse-workspace\lvgs_test\lib\lvgl\src\core\lv_obj_style_gen.h ****     return (int32_t)v.num;
 146:c:\users\alex\eclipse-workspace\lvgs_test\lib\lvgl\src\core\lv_obj_style_gen.h **** }
 147:c:\users\alex\eclipse-workspace\lvgs_test\lib\lvgl\src\core\lv_obj_style_gen.h **** 
 148:c:\users\alex\eclipse-workspace\lvgs_test\lib\lvgl\src\core\lv_obj_style_gen.h **** static inline int32_t lv_obj_get_style_pad_bottom(const lv_obj_t * obj, uint32_t part)
 149:c:\users\alex\eclipse-workspace\lvgs_test\lib\lvgl\src\core\lv_obj_style_gen.h **** {
 150:c:\users\alex\eclipse-workspace\lvgs_test\lib\lvgl\src\core\lv_obj_style_gen.h ****     lv_style_value_t v = lv_obj_get_style_prop(obj, part, LV_STYLE_PAD_BOTTOM);
 151:c:\users\alex\eclipse-workspace\lvgs_test\lib\lvgl\src\core\lv_obj_style_gen.h ****     return (int32_t)v.num;
 152:c:\users\alex\eclipse-workspace\lvgs_test\lib\lvgl\src\core\lv_obj_style_gen.h **** }
 153:c:\users\alex\eclipse-workspace\lvgs_test\lib\lvgl\src\core\lv_obj_style_gen.h **** 
 154:c:\users\alex\eclipse-workspace\lvgs_test\lib\lvgl\src\core\lv_obj_style_gen.h **** static inline int32_t lv_obj_get_style_pad_left(const lv_obj_t * obj, uint32_t part)
 155:c:\users\alex\eclipse-workspace\lvgs_test\lib\lvgl\src\core\lv_obj_style_gen.h **** {
 156:c:\users\alex\eclipse-workspace\lvgs_test\lib\lvgl\src\core\lv_obj_style_gen.h ****     lv_style_value_t v = lv_obj_get_style_prop(obj, part, LV_STYLE_PAD_LEFT);
 157:c:\users\alex\eclipse-workspace\lvgs_test\lib\lvgl\src\core\lv_obj_style_gen.h ****     return (int32_t)v.num;
 158:c:\users\alex\eclipse-workspace\lvgs_test\lib\lvgl\src\core\lv_obj_style_gen.h **** }
 159:c:\users\alex\eclipse-workspace\lvgs_test\lib\lvgl\src\core\lv_obj_style_gen.h **** 
 160:c:\users\alex\eclipse-workspace\lvgs_test\lib\lvgl\src\core\lv_obj_style_gen.h **** static inline int32_t lv_obj_get_style_pad_right(const lv_obj_t * obj, uint32_t part)
 161:c:\users\alex\eclipse-workspace\lvgs_test\lib\lvgl\src\core\lv_obj_style_gen.h **** {
 162:c:\users\alex\eclipse-workspace\lvgs_test\lib\lvgl\src\core\lv_obj_style_gen.h ****     lv_style_value_t v = lv_obj_get_style_prop(obj, part, LV_STYLE_PAD_RIGHT);
 163:c:\users\alex\eclipse-workspace\lvgs_test\lib\lvgl\src\core\lv_obj_style_gen.h ****     return (int32_t)v.num;
 164:c:\users\alex\eclipse-workspace\lvgs_test\lib\lvgl\src\core\lv_obj_style_gen.h **** }
 165:c:\users\alex\eclipse-workspace\lvgs_test\lib\lvgl\src\core\lv_obj_style_gen.h **** 
 166:c:\users\alex\eclipse-workspace\lvgs_test\lib\lvgl\src\core\lv_obj_style_gen.h **** static inline int32_t lv_obj_get_style_pad_row(const lv_obj_t * obj, uint32_t part)
 167:c:\users\alex\eclipse-workspace\lvgs_test\lib\lvgl\src\core\lv_obj_style_gen.h **** {
 168:c:\users\alex\eclipse-workspace\lvgs_test\lib\lvgl\src\core\lv_obj_style_gen.h ****     lv_style_value_t v = lv_obj_get_style_prop(obj, part, LV_STYLE_PAD_ROW);
 169:c:\users\alex\eclipse-workspace\lvgs_test\lib\lvgl\src\core\lv_obj_style_gen.h ****     return (int32_t)v.num;
 170:c:\users\alex\eclipse-workspace\lvgs_test\lib\lvgl\src\core\lv_obj_style_gen.h **** }
 171:c:\users\alex\eclipse-workspace\lvgs_test\lib\lvgl\src\core\lv_obj_style_gen.h **** 
 172:c:\users\alex\eclipse-workspace\lvgs_test\lib\lvgl\src\core\lv_obj_style_gen.h **** static inline int32_t lv_obj_get_style_pad_column(const lv_obj_t * obj, uint32_t part)
 173:c:\users\alex\eclipse-workspace\lvgs_test\lib\lvgl\src\core\lv_obj_style_gen.h **** {
 174:c:\users\alex\eclipse-workspace\lvgs_test\lib\lvgl\src\core\lv_obj_style_gen.h ****     lv_style_value_t v = lv_obj_get_style_prop(obj, part, LV_STYLE_PAD_COLUMN);
 175:c:\users\alex\eclipse-workspace\lvgs_test\lib\lvgl\src\core\lv_obj_style_gen.h ****     return (int32_t)v.num;
 176:c:\users\alex\eclipse-workspace\lvgs_test\lib\lvgl\src\core\lv_obj_style_gen.h **** }
 177:c:\users\alex\eclipse-workspace\lvgs_test\lib\lvgl\src\core\lv_obj_style_gen.h **** 
 178:c:\users\alex\eclipse-workspace\lvgs_test\lib\lvgl\src\core\lv_obj_style_gen.h **** static inline int32_t lv_obj_get_style_margin_top(const lv_obj_t * obj, uint32_t part)
 179:c:\users\alex\eclipse-workspace\lvgs_test\lib\lvgl\src\core\lv_obj_style_gen.h **** {
 180:c:\users\alex\eclipse-workspace\lvgs_test\lib\lvgl\src\core\lv_obj_style_gen.h ****     lv_style_value_t v = lv_obj_get_style_prop(obj, part, LV_STYLE_MARGIN_TOP);
 181:c:\users\alex\eclipse-workspace\lvgs_test\lib\lvgl\src\core\lv_obj_style_gen.h ****     return (int32_t)v.num;
ARM GAS  C:\Users\Alex\AppData\Local\Temp\ccSAPPAM.s 			page 9


 182:c:\users\alex\eclipse-workspace\lvgs_test\lib\lvgl\src\core\lv_obj_style_gen.h **** }
 183:c:\users\alex\eclipse-workspace\lvgs_test\lib\lvgl\src\core\lv_obj_style_gen.h **** 
 184:c:\users\alex\eclipse-workspace\lvgs_test\lib\lvgl\src\core\lv_obj_style_gen.h **** static inline int32_t lv_obj_get_style_margin_bottom(const lv_obj_t * obj, uint32_t part)
 185:c:\users\alex\eclipse-workspace\lvgs_test\lib\lvgl\src\core\lv_obj_style_gen.h **** {
 186:c:\users\alex\eclipse-workspace\lvgs_test\lib\lvgl\src\core\lv_obj_style_gen.h ****     lv_style_value_t v = lv_obj_get_style_prop(obj, part, LV_STYLE_MARGIN_BOTTOM);
 187:c:\users\alex\eclipse-workspace\lvgs_test\lib\lvgl\src\core\lv_obj_style_gen.h ****     return (int32_t)v.num;
 188:c:\users\alex\eclipse-workspace\lvgs_test\lib\lvgl\src\core\lv_obj_style_gen.h **** }
 189:c:\users\alex\eclipse-workspace\lvgs_test\lib\lvgl\src\core\lv_obj_style_gen.h **** 
 190:c:\users\alex\eclipse-workspace\lvgs_test\lib\lvgl\src\core\lv_obj_style_gen.h **** static inline int32_t lv_obj_get_style_margin_left(const lv_obj_t * obj, uint32_t part)
 191:c:\users\alex\eclipse-workspace\lvgs_test\lib\lvgl\src\core\lv_obj_style_gen.h **** {
 192:c:\users\alex\eclipse-workspace\lvgs_test\lib\lvgl\src\core\lv_obj_style_gen.h ****     lv_style_value_t v = lv_obj_get_style_prop(obj, part, LV_STYLE_MARGIN_LEFT);
 193:c:\users\alex\eclipse-workspace\lvgs_test\lib\lvgl\src\core\lv_obj_style_gen.h ****     return (int32_t)v.num;
 194:c:\users\alex\eclipse-workspace\lvgs_test\lib\lvgl\src\core\lv_obj_style_gen.h **** }
 195:c:\users\alex\eclipse-workspace\lvgs_test\lib\lvgl\src\core\lv_obj_style_gen.h **** 
 196:c:\users\alex\eclipse-workspace\lvgs_test\lib\lvgl\src\core\lv_obj_style_gen.h **** static inline int32_t lv_obj_get_style_margin_right(const lv_obj_t * obj, uint32_t part)
 197:c:\users\alex\eclipse-workspace\lvgs_test\lib\lvgl\src\core\lv_obj_style_gen.h **** {
 198:c:\users\alex\eclipse-workspace\lvgs_test\lib\lvgl\src\core\lv_obj_style_gen.h ****     lv_style_value_t v = lv_obj_get_style_prop(obj, part, LV_STYLE_MARGIN_RIGHT);
 199:c:\users\alex\eclipse-workspace\lvgs_test\lib\lvgl\src\core\lv_obj_style_gen.h ****     return (int32_t)v.num;
 200:c:\users\alex\eclipse-workspace\lvgs_test\lib\lvgl\src\core\lv_obj_style_gen.h **** }
 201:c:\users\alex\eclipse-workspace\lvgs_test\lib\lvgl\src\core\lv_obj_style_gen.h **** 
 202:c:\users\alex\eclipse-workspace\lvgs_test\lib\lvgl\src\core\lv_obj_style_gen.h **** static inline lv_color_t lv_obj_get_style_bg_color(const lv_obj_t * obj, uint32_t part)
 203:c:\users\alex\eclipse-workspace\lvgs_test\lib\lvgl\src\core\lv_obj_style_gen.h **** {
 204:c:\users\alex\eclipse-workspace\lvgs_test\lib\lvgl\src\core\lv_obj_style_gen.h ****     lv_style_value_t v = lv_obj_get_style_prop(obj, part, LV_STYLE_BG_COLOR);
 205:c:\users\alex\eclipse-workspace\lvgs_test\lib\lvgl\src\core\lv_obj_style_gen.h ****     return v.color;
 206:c:\users\alex\eclipse-workspace\lvgs_test\lib\lvgl\src\core\lv_obj_style_gen.h **** }
 207:c:\users\alex\eclipse-workspace\lvgs_test\lib\lvgl\src\core\lv_obj_style_gen.h **** 
 208:c:\users\alex\eclipse-workspace\lvgs_test\lib\lvgl\src\core\lv_obj_style_gen.h **** static inline lv_color_t lv_obj_get_style_bg_color_filtered(const lv_obj_t * obj, uint32_t part)
 209:c:\users\alex\eclipse-workspace\lvgs_test\lib\lvgl\src\core\lv_obj_style_gen.h **** {
 210:c:\users\alex\eclipse-workspace\lvgs_test\lib\lvgl\src\core\lv_obj_style_gen.h ****     lv_style_value_t v = _lv_obj_style_apply_color_filter(obj, part, lv_obj_get_style_prop(obj, par
 211:c:\users\alex\eclipse-workspace\lvgs_test\lib\lvgl\src\core\lv_obj_style_gen.h ****     return v.color;
 212:c:\users\alex\eclipse-workspace\lvgs_test\lib\lvgl\src\core\lv_obj_style_gen.h **** }
 213:c:\users\alex\eclipse-workspace\lvgs_test\lib\lvgl\src\core\lv_obj_style_gen.h **** 
 214:c:\users\alex\eclipse-workspace\lvgs_test\lib\lvgl\src\core\lv_obj_style_gen.h **** static inline lv_opa_t lv_obj_get_style_bg_opa(const lv_obj_t * obj, uint32_t part)
 215:c:\users\alex\eclipse-workspace\lvgs_test\lib\lvgl\src\core\lv_obj_style_gen.h **** {
 216:c:\users\alex\eclipse-workspace\lvgs_test\lib\lvgl\src\core\lv_obj_style_gen.h ****     lv_style_value_t v = lv_obj_get_style_prop(obj, part, LV_STYLE_BG_OPA);
 217:c:\users\alex\eclipse-workspace\lvgs_test\lib\lvgl\src\core\lv_obj_style_gen.h ****     return (lv_opa_t)v.num;
 218:c:\users\alex\eclipse-workspace\lvgs_test\lib\lvgl\src\core\lv_obj_style_gen.h **** }
 219:c:\users\alex\eclipse-workspace\lvgs_test\lib\lvgl\src\core\lv_obj_style_gen.h **** 
 220:c:\users\alex\eclipse-workspace\lvgs_test\lib\lvgl\src\core\lv_obj_style_gen.h **** static inline lv_color_t lv_obj_get_style_bg_grad_color(const lv_obj_t * obj, uint32_t part)
 221:c:\users\alex\eclipse-workspace\lvgs_test\lib\lvgl\src\core\lv_obj_style_gen.h **** {
 222:c:\users\alex\eclipse-workspace\lvgs_test\lib\lvgl\src\core\lv_obj_style_gen.h ****     lv_style_value_t v = lv_obj_get_style_prop(obj, part, LV_STYLE_BG_GRAD_COLOR);
 223:c:\users\alex\eclipse-workspace\lvgs_test\lib\lvgl\src\core\lv_obj_style_gen.h ****     return v.color;
 224:c:\users\alex\eclipse-workspace\lvgs_test\lib\lvgl\src\core\lv_obj_style_gen.h **** }
 225:c:\users\alex\eclipse-workspace\lvgs_test\lib\lvgl\src\core\lv_obj_style_gen.h **** 
 226:c:\users\alex\eclipse-workspace\lvgs_test\lib\lvgl\src\core\lv_obj_style_gen.h **** static inline lv_color_t lv_obj_get_style_bg_grad_color_filtered(const lv_obj_t * obj, uint32_t par
 227:c:\users\alex\eclipse-workspace\lvgs_test\lib\lvgl\src\core\lv_obj_style_gen.h **** {
 228:c:\users\alex\eclipse-workspace\lvgs_test\lib\lvgl\src\core\lv_obj_style_gen.h ****     lv_style_value_t v = _lv_obj_style_apply_color_filter(obj, part, lv_obj_get_style_prop(obj, par
 229:c:\users\alex\eclipse-workspace\lvgs_test\lib\lvgl\src\core\lv_obj_style_gen.h ****                                                                                            LV_STYLE
 230:c:\users\alex\eclipse-workspace\lvgs_test\lib\lvgl\src\core\lv_obj_style_gen.h ****     return v.color;
 231:c:\users\alex\eclipse-workspace\lvgs_test\lib\lvgl\src\core\lv_obj_style_gen.h **** }
 232:c:\users\alex\eclipse-workspace\lvgs_test\lib\lvgl\src\core\lv_obj_style_gen.h **** 
 233:c:\users\alex\eclipse-workspace\lvgs_test\lib\lvgl\src\core\lv_obj_style_gen.h **** static inline lv_grad_dir_t lv_obj_get_style_bg_grad_dir(const lv_obj_t * obj, uint32_t part)
 234:c:\users\alex\eclipse-workspace\lvgs_test\lib\lvgl\src\core\lv_obj_style_gen.h **** {
 235:c:\users\alex\eclipse-workspace\lvgs_test\lib\lvgl\src\core\lv_obj_style_gen.h ****     lv_style_value_t v = lv_obj_get_style_prop(obj, part, LV_STYLE_BG_GRAD_DIR);
 236:c:\users\alex\eclipse-workspace\lvgs_test\lib\lvgl\src\core\lv_obj_style_gen.h ****     return (lv_grad_dir_t)v.num;
 237:c:\users\alex\eclipse-workspace\lvgs_test\lib\lvgl\src\core\lv_obj_style_gen.h **** }
 238:c:\users\alex\eclipse-workspace\lvgs_test\lib\lvgl\src\core\lv_obj_style_gen.h **** 
ARM GAS  C:\Users\Alex\AppData\Local\Temp\ccSAPPAM.s 			page 10


 239:c:\users\alex\eclipse-workspace\lvgs_test\lib\lvgl\src\core\lv_obj_style_gen.h **** static inline int32_t lv_obj_get_style_bg_main_stop(const lv_obj_t * obj, uint32_t part)
 240:c:\users\alex\eclipse-workspace\lvgs_test\lib\lvgl\src\core\lv_obj_style_gen.h **** {
 241:c:\users\alex\eclipse-workspace\lvgs_test\lib\lvgl\src\core\lv_obj_style_gen.h ****     lv_style_value_t v = lv_obj_get_style_prop(obj, part, LV_STYLE_BG_MAIN_STOP);
 242:c:\users\alex\eclipse-workspace\lvgs_test\lib\lvgl\src\core\lv_obj_style_gen.h ****     return (int32_t)v.num;
 243:c:\users\alex\eclipse-workspace\lvgs_test\lib\lvgl\src\core\lv_obj_style_gen.h **** }
 244:c:\users\alex\eclipse-workspace\lvgs_test\lib\lvgl\src\core\lv_obj_style_gen.h **** 
 245:c:\users\alex\eclipse-workspace\lvgs_test\lib\lvgl\src\core\lv_obj_style_gen.h **** static inline int32_t lv_obj_get_style_bg_grad_stop(const lv_obj_t * obj, uint32_t part)
 246:c:\users\alex\eclipse-workspace\lvgs_test\lib\lvgl\src\core\lv_obj_style_gen.h **** {
 247:c:\users\alex\eclipse-workspace\lvgs_test\lib\lvgl\src\core\lv_obj_style_gen.h ****     lv_style_value_t v = lv_obj_get_style_prop(obj, part, LV_STYLE_BG_GRAD_STOP);
 248:c:\users\alex\eclipse-workspace\lvgs_test\lib\lvgl\src\core\lv_obj_style_gen.h ****     return (int32_t)v.num;
 249:c:\users\alex\eclipse-workspace\lvgs_test\lib\lvgl\src\core\lv_obj_style_gen.h **** }
 250:c:\users\alex\eclipse-workspace\lvgs_test\lib\lvgl\src\core\lv_obj_style_gen.h **** 
 251:c:\users\alex\eclipse-workspace\lvgs_test\lib\lvgl\src\core\lv_obj_style_gen.h **** static inline lv_opa_t lv_obj_get_style_bg_main_opa(const lv_obj_t * obj, uint32_t part)
 252:c:\users\alex\eclipse-workspace\lvgs_test\lib\lvgl\src\core\lv_obj_style_gen.h **** {
 253:c:\users\alex\eclipse-workspace\lvgs_test\lib\lvgl\src\core\lv_obj_style_gen.h ****     lv_style_value_t v = lv_obj_get_style_prop(obj, part, LV_STYLE_BG_MAIN_OPA);
 254:c:\users\alex\eclipse-workspace\lvgs_test\lib\lvgl\src\core\lv_obj_style_gen.h ****     return (lv_opa_t)v.num;
 255:c:\users\alex\eclipse-workspace\lvgs_test\lib\lvgl\src\core\lv_obj_style_gen.h **** }
 256:c:\users\alex\eclipse-workspace\lvgs_test\lib\lvgl\src\core\lv_obj_style_gen.h **** 
 257:c:\users\alex\eclipse-workspace\lvgs_test\lib\lvgl\src\core\lv_obj_style_gen.h **** static inline lv_opa_t lv_obj_get_style_bg_grad_opa(const lv_obj_t * obj, uint32_t part)
 258:c:\users\alex\eclipse-workspace\lvgs_test\lib\lvgl\src\core\lv_obj_style_gen.h **** {
 259:c:\users\alex\eclipse-workspace\lvgs_test\lib\lvgl\src\core\lv_obj_style_gen.h ****     lv_style_value_t v = lv_obj_get_style_prop(obj, part, LV_STYLE_BG_GRAD_OPA);
 260:c:\users\alex\eclipse-workspace\lvgs_test\lib\lvgl\src\core\lv_obj_style_gen.h ****     return (lv_opa_t)v.num;
 261:c:\users\alex\eclipse-workspace\lvgs_test\lib\lvgl\src\core\lv_obj_style_gen.h **** }
 262:c:\users\alex\eclipse-workspace\lvgs_test\lib\lvgl\src\core\lv_obj_style_gen.h **** 
 263:c:\users\alex\eclipse-workspace\lvgs_test\lib\lvgl\src\core\lv_obj_style_gen.h **** static inline const lv_grad_dsc_t * lv_obj_get_style_bg_grad(const lv_obj_t * obj, uint32_t part)
 264:c:\users\alex\eclipse-workspace\lvgs_test\lib\lvgl\src\core\lv_obj_style_gen.h **** {
 265:c:\users\alex\eclipse-workspace\lvgs_test\lib\lvgl\src\core\lv_obj_style_gen.h ****     lv_style_value_t v = lv_obj_get_style_prop(obj, part, LV_STYLE_BG_GRAD);
 266:c:\users\alex\eclipse-workspace\lvgs_test\lib\lvgl\src\core\lv_obj_style_gen.h ****     return (const lv_grad_dsc_t *)v.ptr;
 267:c:\users\alex\eclipse-workspace\lvgs_test\lib\lvgl\src\core\lv_obj_style_gen.h **** }
 268:c:\users\alex\eclipse-workspace\lvgs_test\lib\lvgl\src\core\lv_obj_style_gen.h **** 
 269:c:\users\alex\eclipse-workspace\lvgs_test\lib\lvgl\src\core\lv_obj_style_gen.h **** static inline const void * lv_obj_get_style_bg_image_src(const lv_obj_t * obj, uint32_t part)
 270:c:\users\alex\eclipse-workspace\lvgs_test\lib\lvgl\src\core\lv_obj_style_gen.h **** {
 271:c:\users\alex\eclipse-workspace\lvgs_test\lib\lvgl\src\core\lv_obj_style_gen.h ****     lv_style_value_t v = lv_obj_get_style_prop(obj, part, LV_STYLE_BG_IMAGE_SRC);
 272:c:\users\alex\eclipse-workspace\lvgs_test\lib\lvgl\src\core\lv_obj_style_gen.h ****     return (const void *)v.ptr;
 273:c:\users\alex\eclipse-workspace\lvgs_test\lib\lvgl\src\core\lv_obj_style_gen.h **** }
 274:c:\users\alex\eclipse-workspace\lvgs_test\lib\lvgl\src\core\lv_obj_style_gen.h **** 
 275:c:\users\alex\eclipse-workspace\lvgs_test\lib\lvgl\src\core\lv_obj_style_gen.h **** static inline lv_opa_t lv_obj_get_style_bg_image_opa(const lv_obj_t * obj, uint32_t part)
 276:c:\users\alex\eclipse-workspace\lvgs_test\lib\lvgl\src\core\lv_obj_style_gen.h **** {
 277:c:\users\alex\eclipse-workspace\lvgs_test\lib\lvgl\src\core\lv_obj_style_gen.h ****     lv_style_value_t v = lv_obj_get_style_prop(obj, part, LV_STYLE_BG_IMAGE_OPA);
 278:c:\users\alex\eclipse-workspace\lvgs_test\lib\lvgl\src\core\lv_obj_style_gen.h ****     return (lv_opa_t)v.num;
 279:c:\users\alex\eclipse-workspace\lvgs_test\lib\lvgl\src\core\lv_obj_style_gen.h **** }
 280:c:\users\alex\eclipse-workspace\lvgs_test\lib\lvgl\src\core\lv_obj_style_gen.h **** 
 281:c:\users\alex\eclipse-workspace\lvgs_test\lib\lvgl\src\core\lv_obj_style_gen.h **** static inline lv_color_t lv_obj_get_style_bg_image_recolor(const lv_obj_t * obj, uint32_t part)
 282:c:\users\alex\eclipse-workspace\lvgs_test\lib\lvgl\src\core\lv_obj_style_gen.h **** {
 283:c:\users\alex\eclipse-workspace\lvgs_test\lib\lvgl\src\core\lv_obj_style_gen.h ****     lv_style_value_t v = lv_obj_get_style_prop(obj, part, LV_STYLE_BG_IMAGE_RECOLOR);
 284:c:\users\alex\eclipse-workspace\lvgs_test\lib\lvgl\src\core\lv_obj_style_gen.h ****     return v.color;
 285:c:\users\alex\eclipse-workspace\lvgs_test\lib\lvgl\src\core\lv_obj_style_gen.h **** }
 286:c:\users\alex\eclipse-workspace\lvgs_test\lib\lvgl\src\core\lv_obj_style_gen.h **** 
 287:c:\users\alex\eclipse-workspace\lvgs_test\lib\lvgl\src\core\lv_obj_style_gen.h **** static inline lv_color_t lv_obj_get_style_bg_image_recolor_filtered(const lv_obj_t * obj, uint32_t 
 288:c:\users\alex\eclipse-workspace\lvgs_test\lib\lvgl\src\core\lv_obj_style_gen.h **** {
 289:c:\users\alex\eclipse-workspace\lvgs_test\lib\lvgl\src\core\lv_obj_style_gen.h ****     lv_style_value_t v = _lv_obj_style_apply_color_filter(obj, part, lv_obj_get_style_prop(obj, par
 290:c:\users\alex\eclipse-workspace\lvgs_test\lib\lvgl\src\core\lv_obj_style_gen.h ****                                                                                            LV_STYLE
 291:c:\users\alex\eclipse-workspace\lvgs_test\lib\lvgl\src\core\lv_obj_style_gen.h ****     return v.color;
 292:c:\users\alex\eclipse-workspace\lvgs_test\lib\lvgl\src\core\lv_obj_style_gen.h **** }
 293:c:\users\alex\eclipse-workspace\lvgs_test\lib\lvgl\src\core\lv_obj_style_gen.h **** 
 294:c:\users\alex\eclipse-workspace\lvgs_test\lib\lvgl\src\core\lv_obj_style_gen.h **** static inline lv_opa_t lv_obj_get_style_bg_image_recolor_opa(const lv_obj_t * obj, uint32_t part)
 295:c:\users\alex\eclipse-workspace\lvgs_test\lib\lvgl\src\core\lv_obj_style_gen.h **** {
ARM GAS  C:\Users\Alex\AppData\Local\Temp\ccSAPPAM.s 			page 11


 296:c:\users\alex\eclipse-workspace\lvgs_test\lib\lvgl\src\core\lv_obj_style_gen.h ****     lv_style_value_t v = lv_obj_get_style_prop(obj, part, LV_STYLE_BG_IMAGE_RECOLOR_OPA);
 297:c:\users\alex\eclipse-workspace\lvgs_test\lib\lvgl\src\core\lv_obj_style_gen.h ****     return (lv_opa_t)v.num;
 298:c:\users\alex\eclipse-workspace\lvgs_test\lib\lvgl\src\core\lv_obj_style_gen.h **** }
 299:c:\users\alex\eclipse-workspace\lvgs_test\lib\lvgl\src\core\lv_obj_style_gen.h **** 
 300:c:\users\alex\eclipse-workspace\lvgs_test\lib\lvgl\src\core\lv_obj_style_gen.h **** static inline bool lv_obj_get_style_bg_image_tiled(const lv_obj_t * obj, uint32_t part)
 301:c:\users\alex\eclipse-workspace\lvgs_test\lib\lvgl\src\core\lv_obj_style_gen.h **** {
 302:c:\users\alex\eclipse-workspace\lvgs_test\lib\lvgl\src\core\lv_obj_style_gen.h ****     lv_style_value_t v = lv_obj_get_style_prop(obj, part, LV_STYLE_BG_IMAGE_TILED);
 303:c:\users\alex\eclipse-workspace\lvgs_test\lib\lvgl\src\core\lv_obj_style_gen.h ****     return (bool)v.num;
 304:c:\users\alex\eclipse-workspace\lvgs_test\lib\lvgl\src\core\lv_obj_style_gen.h **** }
 305:c:\users\alex\eclipse-workspace\lvgs_test\lib\lvgl\src\core\lv_obj_style_gen.h **** 
 306:c:\users\alex\eclipse-workspace\lvgs_test\lib\lvgl\src\core\lv_obj_style_gen.h **** static inline lv_color_t lv_obj_get_style_border_color(const lv_obj_t * obj, uint32_t part)
 307:c:\users\alex\eclipse-workspace\lvgs_test\lib\lvgl\src\core\lv_obj_style_gen.h **** {
 308:c:\users\alex\eclipse-workspace\lvgs_test\lib\lvgl\src\core\lv_obj_style_gen.h ****     lv_style_value_t v = lv_obj_get_style_prop(obj, part, LV_STYLE_BORDER_COLOR);
 309:c:\users\alex\eclipse-workspace\lvgs_test\lib\lvgl\src\core\lv_obj_style_gen.h ****     return v.color;
 310:c:\users\alex\eclipse-workspace\lvgs_test\lib\lvgl\src\core\lv_obj_style_gen.h **** }
 311:c:\users\alex\eclipse-workspace\lvgs_test\lib\lvgl\src\core\lv_obj_style_gen.h **** 
 312:c:\users\alex\eclipse-workspace\lvgs_test\lib\lvgl\src\core\lv_obj_style_gen.h **** static inline lv_color_t lv_obj_get_style_border_color_filtered(const lv_obj_t * obj, uint32_t part
 313:c:\users\alex\eclipse-workspace\lvgs_test\lib\lvgl\src\core\lv_obj_style_gen.h **** {
 314:c:\users\alex\eclipse-workspace\lvgs_test\lib\lvgl\src\core\lv_obj_style_gen.h ****     lv_style_value_t v = _lv_obj_style_apply_color_filter(obj, part, lv_obj_get_style_prop(obj, par
 315:c:\users\alex\eclipse-workspace\lvgs_test\lib\lvgl\src\core\lv_obj_style_gen.h ****                                                                                            LV_STYLE
 316:c:\users\alex\eclipse-workspace\lvgs_test\lib\lvgl\src\core\lv_obj_style_gen.h ****     return v.color;
 317:c:\users\alex\eclipse-workspace\lvgs_test\lib\lvgl\src\core\lv_obj_style_gen.h **** }
 318:c:\users\alex\eclipse-workspace\lvgs_test\lib\lvgl\src\core\lv_obj_style_gen.h **** 
 319:c:\users\alex\eclipse-workspace\lvgs_test\lib\lvgl\src\core\lv_obj_style_gen.h **** static inline lv_opa_t lv_obj_get_style_border_opa(const lv_obj_t * obj, uint32_t part)
 320:c:\users\alex\eclipse-workspace\lvgs_test\lib\lvgl\src\core\lv_obj_style_gen.h **** {
 321:c:\users\alex\eclipse-workspace\lvgs_test\lib\lvgl\src\core\lv_obj_style_gen.h ****     lv_style_value_t v = lv_obj_get_style_prop(obj, part, LV_STYLE_BORDER_OPA);
 322:c:\users\alex\eclipse-workspace\lvgs_test\lib\lvgl\src\core\lv_obj_style_gen.h ****     return (lv_opa_t)v.num;
 323:c:\users\alex\eclipse-workspace\lvgs_test\lib\lvgl\src\core\lv_obj_style_gen.h **** }
 324:c:\users\alex\eclipse-workspace\lvgs_test\lib\lvgl\src\core\lv_obj_style_gen.h **** 
 325:c:\users\alex\eclipse-workspace\lvgs_test\lib\lvgl\src\core\lv_obj_style_gen.h **** static inline int32_t lv_obj_get_style_border_width(const lv_obj_t * obj, uint32_t part)
 326:c:\users\alex\eclipse-workspace\lvgs_test\lib\lvgl\src\core\lv_obj_style_gen.h **** {
 327:c:\users\alex\eclipse-workspace\lvgs_test\lib\lvgl\src\core\lv_obj_style_gen.h ****     lv_style_value_t v = lv_obj_get_style_prop(obj, part, LV_STYLE_BORDER_WIDTH);
 328:c:\users\alex\eclipse-workspace\lvgs_test\lib\lvgl\src\core\lv_obj_style_gen.h ****     return (int32_t)v.num;
 329:c:\users\alex\eclipse-workspace\lvgs_test\lib\lvgl\src\core\lv_obj_style_gen.h **** }
 330:c:\users\alex\eclipse-workspace\lvgs_test\lib\lvgl\src\core\lv_obj_style_gen.h **** 
 331:c:\users\alex\eclipse-workspace\lvgs_test\lib\lvgl\src\core\lv_obj_style_gen.h **** static inline lv_border_side_t lv_obj_get_style_border_side(const lv_obj_t * obj, uint32_t part)
 332:c:\users\alex\eclipse-workspace\lvgs_test\lib\lvgl\src\core\lv_obj_style_gen.h **** {
 333:c:\users\alex\eclipse-workspace\lvgs_test\lib\lvgl\src\core\lv_obj_style_gen.h ****     lv_style_value_t v = lv_obj_get_style_prop(obj, part, LV_STYLE_BORDER_SIDE);
 334:c:\users\alex\eclipse-workspace\lvgs_test\lib\lvgl\src\core\lv_obj_style_gen.h ****     return (lv_border_side_t)v.num;
 335:c:\users\alex\eclipse-workspace\lvgs_test\lib\lvgl\src\core\lv_obj_style_gen.h **** }
 336:c:\users\alex\eclipse-workspace\lvgs_test\lib\lvgl\src\core\lv_obj_style_gen.h **** 
 337:c:\users\alex\eclipse-workspace\lvgs_test\lib\lvgl\src\core\lv_obj_style_gen.h **** static inline bool lv_obj_get_style_border_post(const lv_obj_t * obj, uint32_t part)
 338:c:\users\alex\eclipse-workspace\lvgs_test\lib\lvgl\src\core\lv_obj_style_gen.h **** {
 339:c:\users\alex\eclipse-workspace\lvgs_test\lib\lvgl\src\core\lv_obj_style_gen.h ****     lv_style_value_t v = lv_obj_get_style_prop(obj, part, LV_STYLE_BORDER_POST);
 340:c:\users\alex\eclipse-workspace\lvgs_test\lib\lvgl\src\core\lv_obj_style_gen.h ****     return (bool)v.num;
 341:c:\users\alex\eclipse-workspace\lvgs_test\lib\lvgl\src\core\lv_obj_style_gen.h **** }
 342:c:\users\alex\eclipse-workspace\lvgs_test\lib\lvgl\src\core\lv_obj_style_gen.h **** 
 343:c:\users\alex\eclipse-workspace\lvgs_test\lib\lvgl\src\core\lv_obj_style_gen.h **** static inline int32_t lv_obj_get_style_outline_width(const lv_obj_t * obj, uint32_t part)
 344:c:\users\alex\eclipse-workspace\lvgs_test\lib\lvgl\src\core\lv_obj_style_gen.h **** {
 345:c:\users\alex\eclipse-workspace\lvgs_test\lib\lvgl\src\core\lv_obj_style_gen.h ****     lv_style_value_t v = lv_obj_get_style_prop(obj, part, LV_STYLE_OUTLINE_WIDTH);
 346:c:\users\alex\eclipse-workspace\lvgs_test\lib\lvgl\src\core\lv_obj_style_gen.h ****     return (int32_t)v.num;
 347:c:\users\alex\eclipse-workspace\lvgs_test\lib\lvgl\src\core\lv_obj_style_gen.h **** }
 348:c:\users\alex\eclipse-workspace\lvgs_test\lib\lvgl\src\core\lv_obj_style_gen.h **** 
 349:c:\users\alex\eclipse-workspace\lvgs_test\lib\lvgl\src\core\lv_obj_style_gen.h **** static inline lv_color_t lv_obj_get_style_outline_color(const lv_obj_t * obj, uint32_t part)
 350:c:\users\alex\eclipse-workspace\lvgs_test\lib\lvgl\src\core\lv_obj_style_gen.h **** {
 351:c:\users\alex\eclipse-workspace\lvgs_test\lib\lvgl\src\core\lv_obj_style_gen.h ****     lv_style_value_t v = lv_obj_get_style_prop(obj, part, LV_STYLE_OUTLINE_COLOR);
 352:c:\users\alex\eclipse-workspace\lvgs_test\lib\lvgl\src\core\lv_obj_style_gen.h ****     return v.color;
ARM GAS  C:\Users\Alex\AppData\Local\Temp\ccSAPPAM.s 			page 12


 353:c:\users\alex\eclipse-workspace\lvgs_test\lib\lvgl\src\core\lv_obj_style_gen.h **** }
 354:c:\users\alex\eclipse-workspace\lvgs_test\lib\lvgl\src\core\lv_obj_style_gen.h **** 
 355:c:\users\alex\eclipse-workspace\lvgs_test\lib\lvgl\src\core\lv_obj_style_gen.h **** static inline lv_color_t lv_obj_get_style_outline_color_filtered(const lv_obj_t * obj, uint32_t par
 356:c:\users\alex\eclipse-workspace\lvgs_test\lib\lvgl\src\core\lv_obj_style_gen.h **** {
 357:c:\users\alex\eclipse-workspace\lvgs_test\lib\lvgl\src\core\lv_obj_style_gen.h ****     lv_style_value_t v = _lv_obj_style_apply_color_filter(obj, part, lv_obj_get_style_prop(obj, par
 358:c:\users\alex\eclipse-workspace\lvgs_test\lib\lvgl\src\core\lv_obj_style_gen.h ****                                                                                            LV_STYLE
 359:c:\users\alex\eclipse-workspace\lvgs_test\lib\lvgl\src\core\lv_obj_style_gen.h ****     return v.color;
 360:c:\users\alex\eclipse-workspace\lvgs_test\lib\lvgl\src\core\lv_obj_style_gen.h **** }
 361:c:\users\alex\eclipse-workspace\lvgs_test\lib\lvgl\src\core\lv_obj_style_gen.h **** 
 362:c:\users\alex\eclipse-workspace\lvgs_test\lib\lvgl\src\core\lv_obj_style_gen.h **** static inline lv_opa_t lv_obj_get_style_outline_opa(const lv_obj_t * obj, uint32_t part)
 363:c:\users\alex\eclipse-workspace\lvgs_test\lib\lvgl\src\core\lv_obj_style_gen.h **** {
 364:c:\users\alex\eclipse-workspace\lvgs_test\lib\lvgl\src\core\lv_obj_style_gen.h ****     lv_style_value_t v = lv_obj_get_style_prop(obj, part, LV_STYLE_OUTLINE_OPA);
 365:c:\users\alex\eclipse-workspace\lvgs_test\lib\lvgl\src\core\lv_obj_style_gen.h ****     return (lv_opa_t)v.num;
 366:c:\users\alex\eclipse-workspace\lvgs_test\lib\lvgl\src\core\lv_obj_style_gen.h **** }
 367:c:\users\alex\eclipse-workspace\lvgs_test\lib\lvgl\src\core\lv_obj_style_gen.h **** 
 368:c:\users\alex\eclipse-workspace\lvgs_test\lib\lvgl\src\core\lv_obj_style_gen.h **** static inline int32_t lv_obj_get_style_outline_pad(const lv_obj_t * obj, uint32_t part)
 369:c:\users\alex\eclipse-workspace\lvgs_test\lib\lvgl\src\core\lv_obj_style_gen.h **** {
 370:c:\users\alex\eclipse-workspace\lvgs_test\lib\lvgl\src\core\lv_obj_style_gen.h ****     lv_style_value_t v = lv_obj_get_style_prop(obj, part, LV_STYLE_OUTLINE_PAD);
 371:c:\users\alex\eclipse-workspace\lvgs_test\lib\lvgl\src\core\lv_obj_style_gen.h ****     return (int32_t)v.num;
 372:c:\users\alex\eclipse-workspace\lvgs_test\lib\lvgl\src\core\lv_obj_style_gen.h **** }
 373:c:\users\alex\eclipse-workspace\lvgs_test\lib\lvgl\src\core\lv_obj_style_gen.h **** 
 374:c:\users\alex\eclipse-workspace\lvgs_test\lib\lvgl\src\core\lv_obj_style_gen.h **** static inline int32_t lv_obj_get_style_shadow_width(const lv_obj_t * obj, uint32_t part)
 375:c:\users\alex\eclipse-workspace\lvgs_test\lib\lvgl\src\core\lv_obj_style_gen.h **** {
 376:c:\users\alex\eclipse-workspace\lvgs_test\lib\lvgl\src\core\lv_obj_style_gen.h ****     lv_style_value_t v = lv_obj_get_style_prop(obj, part, LV_STYLE_SHADOW_WIDTH);
 377:c:\users\alex\eclipse-workspace\lvgs_test\lib\lvgl\src\core\lv_obj_style_gen.h ****     return (int32_t)v.num;
 378:c:\users\alex\eclipse-workspace\lvgs_test\lib\lvgl\src\core\lv_obj_style_gen.h **** }
 379:c:\users\alex\eclipse-workspace\lvgs_test\lib\lvgl\src\core\lv_obj_style_gen.h **** 
 380:c:\users\alex\eclipse-workspace\lvgs_test\lib\lvgl\src\core\lv_obj_style_gen.h **** static inline int32_t lv_obj_get_style_shadow_offset_x(const lv_obj_t * obj, uint32_t part)
 381:c:\users\alex\eclipse-workspace\lvgs_test\lib\lvgl\src\core\lv_obj_style_gen.h **** {
 382:c:\users\alex\eclipse-workspace\lvgs_test\lib\lvgl\src\core\lv_obj_style_gen.h ****     lv_style_value_t v = lv_obj_get_style_prop(obj, part, LV_STYLE_SHADOW_OFFSET_X);
 383:c:\users\alex\eclipse-workspace\lvgs_test\lib\lvgl\src\core\lv_obj_style_gen.h ****     return (int32_t)v.num;
 384:c:\users\alex\eclipse-workspace\lvgs_test\lib\lvgl\src\core\lv_obj_style_gen.h **** }
 385:c:\users\alex\eclipse-workspace\lvgs_test\lib\lvgl\src\core\lv_obj_style_gen.h **** 
 386:c:\users\alex\eclipse-workspace\lvgs_test\lib\lvgl\src\core\lv_obj_style_gen.h **** static inline int32_t lv_obj_get_style_shadow_offset_y(const lv_obj_t * obj, uint32_t part)
 387:c:\users\alex\eclipse-workspace\lvgs_test\lib\lvgl\src\core\lv_obj_style_gen.h **** {
 388:c:\users\alex\eclipse-workspace\lvgs_test\lib\lvgl\src\core\lv_obj_style_gen.h ****     lv_style_value_t v = lv_obj_get_style_prop(obj, part, LV_STYLE_SHADOW_OFFSET_Y);
 389:c:\users\alex\eclipse-workspace\lvgs_test\lib\lvgl\src\core\lv_obj_style_gen.h ****     return (int32_t)v.num;
 390:c:\users\alex\eclipse-workspace\lvgs_test\lib\lvgl\src\core\lv_obj_style_gen.h **** }
 391:c:\users\alex\eclipse-workspace\lvgs_test\lib\lvgl\src\core\lv_obj_style_gen.h **** 
 392:c:\users\alex\eclipse-workspace\lvgs_test\lib\lvgl\src\core\lv_obj_style_gen.h **** static inline int32_t lv_obj_get_style_shadow_spread(const lv_obj_t * obj, uint32_t part)
 393:c:\users\alex\eclipse-workspace\lvgs_test\lib\lvgl\src\core\lv_obj_style_gen.h **** {
 394:c:\users\alex\eclipse-workspace\lvgs_test\lib\lvgl\src\core\lv_obj_style_gen.h ****     lv_style_value_t v = lv_obj_get_style_prop(obj, part, LV_STYLE_SHADOW_SPREAD);
 395:c:\users\alex\eclipse-workspace\lvgs_test\lib\lvgl\src\core\lv_obj_style_gen.h ****     return (int32_t)v.num;
 396:c:\users\alex\eclipse-workspace\lvgs_test\lib\lvgl\src\core\lv_obj_style_gen.h **** }
 397:c:\users\alex\eclipse-workspace\lvgs_test\lib\lvgl\src\core\lv_obj_style_gen.h **** 
 398:c:\users\alex\eclipse-workspace\lvgs_test\lib\lvgl\src\core\lv_obj_style_gen.h **** static inline lv_color_t lv_obj_get_style_shadow_color(const lv_obj_t * obj, uint32_t part)
 399:c:\users\alex\eclipse-workspace\lvgs_test\lib\lvgl\src\core\lv_obj_style_gen.h **** {
 400:c:\users\alex\eclipse-workspace\lvgs_test\lib\lvgl\src\core\lv_obj_style_gen.h ****     lv_style_value_t v = lv_obj_get_style_prop(obj, part, LV_STYLE_SHADOW_COLOR);
 401:c:\users\alex\eclipse-workspace\lvgs_test\lib\lvgl\src\core\lv_obj_style_gen.h ****     return v.color;
 402:c:\users\alex\eclipse-workspace\lvgs_test\lib\lvgl\src\core\lv_obj_style_gen.h **** }
 403:c:\users\alex\eclipse-workspace\lvgs_test\lib\lvgl\src\core\lv_obj_style_gen.h **** 
 404:c:\users\alex\eclipse-workspace\lvgs_test\lib\lvgl\src\core\lv_obj_style_gen.h **** static inline lv_color_t lv_obj_get_style_shadow_color_filtered(const lv_obj_t * obj, uint32_t part
 405:c:\users\alex\eclipse-workspace\lvgs_test\lib\lvgl\src\core\lv_obj_style_gen.h **** {
 406:c:\users\alex\eclipse-workspace\lvgs_test\lib\lvgl\src\core\lv_obj_style_gen.h ****     lv_style_value_t v = _lv_obj_style_apply_color_filter(obj, part, lv_obj_get_style_prop(obj, par
 407:c:\users\alex\eclipse-workspace\lvgs_test\lib\lvgl\src\core\lv_obj_style_gen.h ****                                                                                            LV_STYLE
 408:c:\users\alex\eclipse-workspace\lvgs_test\lib\lvgl\src\core\lv_obj_style_gen.h ****     return v.color;
 409:c:\users\alex\eclipse-workspace\lvgs_test\lib\lvgl\src\core\lv_obj_style_gen.h **** }
ARM GAS  C:\Users\Alex\AppData\Local\Temp\ccSAPPAM.s 			page 13


 410:c:\users\alex\eclipse-workspace\lvgs_test\lib\lvgl\src\core\lv_obj_style_gen.h **** 
 411:c:\users\alex\eclipse-workspace\lvgs_test\lib\lvgl\src\core\lv_obj_style_gen.h **** static inline lv_opa_t lv_obj_get_style_shadow_opa(const lv_obj_t * obj, uint32_t part)
 412:c:\users\alex\eclipse-workspace\lvgs_test\lib\lvgl\src\core\lv_obj_style_gen.h **** {
 413:c:\users\alex\eclipse-workspace\lvgs_test\lib\lvgl\src\core\lv_obj_style_gen.h ****     lv_style_value_t v = lv_obj_get_style_prop(obj, part, LV_STYLE_SHADOW_OPA);
 414:c:\users\alex\eclipse-workspace\lvgs_test\lib\lvgl\src\core\lv_obj_style_gen.h ****     return (lv_opa_t)v.num;
 415:c:\users\alex\eclipse-workspace\lvgs_test\lib\lvgl\src\core\lv_obj_style_gen.h **** }
 416:c:\users\alex\eclipse-workspace\lvgs_test\lib\lvgl\src\core\lv_obj_style_gen.h **** 
 417:c:\users\alex\eclipse-workspace\lvgs_test\lib\lvgl\src\core\lv_obj_style_gen.h **** static inline lv_opa_t lv_obj_get_style_image_opa(const lv_obj_t * obj, uint32_t part)
 418:c:\users\alex\eclipse-workspace\lvgs_test\lib\lvgl\src\core\lv_obj_style_gen.h **** {
 419:c:\users\alex\eclipse-workspace\lvgs_test\lib\lvgl\src\core\lv_obj_style_gen.h ****     lv_style_value_t v = lv_obj_get_style_prop(obj, part, LV_STYLE_IMAGE_OPA);
 420:c:\users\alex\eclipse-workspace\lvgs_test\lib\lvgl\src\core\lv_obj_style_gen.h ****     return (lv_opa_t)v.num;
 421:c:\users\alex\eclipse-workspace\lvgs_test\lib\lvgl\src\core\lv_obj_style_gen.h **** }
 422:c:\users\alex\eclipse-workspace\lvgs_test\lib\lvgl\src\core\lv_obj_style_gen.h **** 
 423:c:\users\alex\eclipse-workspace\lvgs_test\lib\lvgl\src\core\lv_obj_style_gen.h **** static inline lv_color_t lv_obj_get_style_image_recolor(const lv_obj_t * obj, uint32_t part)
 424:c:\users\alex\eclipse-workspace\lvgs_test\lib\lvgl\src\core\lv_obj_style_gen.h **** {
 425:c:\users\alex\eclipse-workspace\lvgs_test\lib\lvgl\src\core\lv_obj_style_gen.h ****     lv_style_value_t v = lv_obj_get_style_prop(obj, part, LV_STYLE_IMAGE_RECOLOR);
 426:c:\users\alex\eclipse-workspace\lvgs_test\lib\lvgl\src\core\lv_obj_style_gen.h ****     return v.color;
 427:c:\users\alex\eclipse-workspace\lvgs_test\lib\lvgl\src\core\lv_obj_style_gen.h **** }
 428:c:\users\alex\eclipse-workspace\lvgs_test\lib\lvgl\src\core\lv_obj_style_gen.h **** 
 429:c:\users\alex\eclipse-workspace\lvgs_test\lib\lvgl\src\core\lv_obj_style_gen.h **** static inline lv_color_t lv_obj_get_style_image_recolor_filtered(const lv_obj_t * obj, uint32_t par
 430:c:\users\alex\eclipse-workspace\lvgs_test\lib\lvgl\src\core\lv_obj_style_gen.h **** {
 431:c:\users\alex\eclipse-workspace\lvgs_test\lib\lvgl\src\core\lv_obj_style_gen.h ****     lv_style_value_t v = _lv_obj_style_apply_color_filter(obj, part, lv_obj_get_style_prop(obj, par
 432:c:\users\alex\eclipse-workspace\lvgs_test\lib\lvgl\src\core\lv_obj_style_gen.h ****                                                                                            LV_STYLE
 433:c:\users\alex\eclipse-workspace\lvgs_test\lib\lvgl\src\core\lv_obj_style_gen.h ****     return v.color;
 434:c:\users\alex\eclipse-workspace\lvgs_test\lib\lvgl\src\core\lv_obj_style_gen.h **** }
 435:c:\users\alex\eclipse-workspace\lvgs_test\lib\lvgl\src\core\lv_obj_style_gen.h **** 
 436:c:\users\alex\eclipse-workspace\lvgs_test\lib\lvgl\src\core\lv_obj_style_gen.h **** static inline lv_opa_t lv_obj_get_style_image_recolor_opa(const lv_obj_t * obj, uint32_t part)
 437:c:\users\alex\eclipse-workspace\lvgs_test\lib\lvgl\src\core\lv_obj_style_gen.h **** {
 438:c:\users\alex\eclipse-workspace\lvgs_test\lib\lvgl\src\core\lv_obj_style_gen.h ****     lv_style_value_t v = lv_obj_get_style_prop(obj, part, LV_STYLE_IMAGE_RECOLOR_OPA);
 439:c:\users\alex\eclipse-workspace\lvgs_test\lib\lvgl\src\core\lv_obj_style_gen.h ****     return (lv_opa_t)v.num;
 440:c:\users\alex\eclipse-workspace\lvgs_test\lib\lvgl\src\core\lv_obj_style_gen.h **** }
 441:c:\users\alex\eclipse-workspace\lvgs_test\lib\lvgl\src\core\lv_obj_style_gen.h **** 
 442:c:\users\alex\eclipse-workspace\lvgs_test\lib\lvgl\src\core\lv_obj_style_gen.h **** static inline int32_t lv_obj_get_style_line_width(const lv_obj_t * obj, uint32_t part)
 443:c:\users\alex\eclipse-workspace\lvgs_test\lib\lvgl\src\core\lv_obj_style_gen.h **** {
 444:c:\users\alex\eclipse-workspace\lvgs_test\lib\lvgl\src\core\lv_obj_style_gen.h ****     lv_style_value_t v = lv_obj_get_style_prop(obj, part, LV_STYLE_LINE_WIDTH);
 445:c:\users\alex\eclipse-workspace\lvgs_test\lib\lvgl\src\core\lv_obj_style_gen.h ****     return (int32_t)v.num;
 446:c:\users\alex\eclipse-workspace\lvgs_test\lib\lvgl\src\core\lv_obj_style_gen.h **** }
 447:c:\users\alex\eclipse-workspace\lvgs_test\lib\lvgl\src\core\lv_obj_style_gen.h **** 
 448:c:\users\alex\eclipse-workspace\lvgs_test\lib\lvgl\src\core\lv_obj_style_gen.h **** static inline int32_t lv_obj_get_style_line_dash_width(const lv_obj_t * obj, uint32_t part)
 449:c:\users\alex\eclipse-workspace\lvgs_test\lib\lvgl\src\core\lv_obj_style_gen.h **** {
 450:c:\users\alex\eclipse-workspace\lvgs_test\lib\lvgl\src\core\lv_obj_style_gen.h ****     lv_style_value_t v = lv_obj_get_style_prop(obj, part, LV_STYLE_LINE_DASH_WIDTH);
 451:c:\users\alex\eclipse-workspace\lvgs_test\lib\lvgl\src\core\lv_obj_style_gen.h ****     return (int32_t)v.num;
 452:c:\users\alex\eclipse-workspace\lvgs_test\lib\lvgl\src\core\lv_obj_style_gen.h **** }
 453:c:\users\alex\eclipse-workspace\lvgs_test\lib\lvgl\src\core\lv_obj_style_gen.h **** 
 454:c:\users\alex\eclipse-workspace\lvgs_test\lib\lvgl\src\core\lv_obj_style_gen.h **** static inline int32_t lv_obj_get_style_line_dash_gap(const lv_obj_t * obj, uint32_t part)
 455:c:\users\alex\eclipse-workspace\lvgs_test\lib\lvgl\src\core\lv_obj_style_gen.h **** {
 456:c:\users\alex\eclipse-workspace\lvgs_test\lib\lvgl\src\core\lv_obj_style_gen.h ****     lv_style_value_t v = lv_obj_get_style_prop(obj, part, LV_STYLE_LINE_DASH_GAP);
 457:c:\users\alex\eclipse-workspace\lvgs_test\lib\lvgl\src\core\lv_obj_style_gen.h ****     return (int32_t)v.num;
 458:c:\users\alex\eclipse-workspace\lvgs_test\lib\lvgl\src\core\lv_obj_style_gen.h **** }
 459:c:\users\alex\eclipse-workspace\lvgs_test\lib\lvgl\src\core\lv_obj_style_gen.h **** 
 460:c:\users\alex\eclipse-workspace\lvgs_test\lib\lvgl\src\core\lv_obj_style_gen.h **** static inline bool lv_obj_get_style_line_rounded(const lv_obj_t * obj, uint32_t part)
 461:c:\users\alex\eclipse-workspace\lvgs_test\lib\lvgl\src\core\lv_obj_style_gen.h **** {
 462:c:\users\alex\eclipse-workspace\lvgs_test\lib\lvgl\src\core\lv_obj_style_gen.h ****     lv_style_value_t v = lv_obj_get_style_prop(obj, part, LV_STYLE_LINE_ROUNDED);
 463:c:\users\alex\eclipse-workspace\lvgs_test\lib\lvgl\src\core\lv_obj_style_gen.h ****     return (bool)v.num;
 464:c:\users\alex\eclipse-workspace\lvgs_test\lib\lvgl\src\core\lv_obj_style_gen.h **** }
 465:c:\users\alex\eclipse-workspace\lvgs_test\lib\lvgl\src\core\lv_obj_style_gen.h **** 
 466:c:\users\alex\eclipse-workspace\lvgs_test\lib\lvgl\src\core\lv_obj_style_gen.h **** static inline lv_color_t lv_obj_get_style_line_color(const lv_obj_t * obj, uint32_t part)
ARM GAS  C:\Users\Alex\AppData\Local\Temp\ccSAPPAM.s 			page 14


 467:c:\users\alex\eclipse-workspace\lvgs_test\lib\lvgl\src\core\lv_obj_style_gen.h **** {
 468:c:\users\alex\eclipse-workspace\lvgs_test\lib\lvgl\src\core\lv_obj_style_gen.h ****     lv_style_value_t v = lv_obj_get_style_prop(obj, part, LV_STYLE_LINE_COLOR);
 469:c:\users\alex\eclipse-workspace\lvgs_test\lib\lvgl\src\core\lv_obj_style_gen.h ****     return v.color;
 470:c:\users\alex\eclipse-workspace\lvgs_test\lib\lvgl\src\core\lv_obj_style_gen.h **** }
 471:c:\users\alex\eclipse-workspace\lvgs_test\lib\lvgl\src\core\lv_obj_style_gen.h **** 
 472:c:\users\alex\eclipse-workspace\lvgs_test\lib\lvgl\src\core\lv_obj_style_gen.h **** static inline lv_color_t lv_obj_get_style_line_color_filtered(const lv_obj_t * obj, uint32_t part)
 473:c:\users\alex\eclipse-workspace\lvgs_test\lib\lvgl\src\core\lv_obj_style_gen.h **** {
 474:c:\users\alex\eclipse-workspace\lvgs_test\lib\lvgl\src\core\lv_obj_style_gen.h ****     lv_style_value_t v = _lv_obj_style_apply_color_filter(obj, part, lv_obj_get_style_prop(obj, par
 475:c:\users\alex\eclipse-workspace\lvgs_test\lib\lvgl\src\core\lv_obj_style_gen.h ****     return v.color;
 476:c:\users\alex\eclipse-workspace\lvgs_test\lib\lvgl\src\core\lv_obj_style_gen.h **** }
 477:c:\users\alex\eclipse-workspace\lvgs_test\lib\lvgl\src\core\lv_obj_style_gen.h **** 
 478:c:\users\alex\eclipse-workspace\lvgs_test\lib\lvgl\src\core\lv_obj_style_gen.h **** static inline lv_opa_t lv_obj_get_style_line_opa(const lv_obj_t * obj, uint32_t part)
 479:c:\users\alex\eclipse-workspace\lvgs_test\lib\lvgl\src\core\lv_obj_style_gen.h **** {
 480:c:\users\alex\eclipse-workspace\lvgs_test\lib\lvgl\src\core\lv_obj_style_gen.h ****     lv_style_value_t v = lv_obj_get_style_prop(obj, part, LV_STYLE_LINE_OPA);
 481:c:\users\alex\eclipse-workspace\lvgs_test\lib\lvgl\src\core\lv_obj_style_gen.h ****     return (lv_opa_t)v.num;
 482:c:\users\alex\eclipse-workspace\lvgs_test\lib\lvgl\src\core\lv_obj_style_gen.h **** }
 483:c:\users\alex\eclipse-workspace\lvgs_test\lib\lvgl\src\core\lv_obj_style_gen.h **** 
 484:c:\users\alex\eclipse-workspace\lvgs_test\lib\lvgl\src\core\lv_obj_style_gen.h **** static inline int32_t lv_obj_get_style_arc_width(const lv_obj_t * obj, uint32_t part)
 485:c:\users\alex\eclipse-workspace\lvgs_test\lib\lvgl\src\core\lv_obj_style_gen.h **** {
 486:c:\users\alex\eclipse-workspace\lvgs_test\lib\lvgl\src\core\lv_obj_style_gen.h ****     lv_style_value_t v = lv_obj_get_style_prop(obj, part, LV_STYLE_ARC_WIDTH);
 487:c:\users\alex\eclipse-workspace\lvgs_test\lib\lvgl\src\core\lv_obj_style_gen.h ****     return (int32_t)v.num;
 488:c:\users\alex\eclipse-workspace\lvgs_test\lib\lvgl\src\core\lv_obj_style_gen.h **** }
 489:c:\users\alex\eclipse-workspace\lvgs_test\lib\lvgl\src\core\lv_obj_style_gen.h **** 
 490:c:\users\alex\eclipse-workspace\lvgs_test\lib\lvgl\src\core\lv_obj_style_gen.h **** static inline bool lv_obj_get_style_arc_rounded(const lv_obj_t * obj, uint32_t part)
 491:c:\users\alex\eclipse-workspace\lvgs_test\lib\lvgl\src\core\lv_obj_style_gen.h **** {
 492:c:\users\alex\eclipse-workspace\lvgs_test\lib\lvgl\src\core\lv_obj_style_gen.h ****     lv_style_value_t v = lv_obj_get_style_prop(obj, part, LV_STYLE_ARC_ROUNDED);
 493:c:\users\alex\eclipse-workspace\lvgs_test\lib\lvgl\src\core\lv_obj_style_gen.h ****     return (bool)v.num;
 494:c:\users\alex\eclipse-workspace\lvgs_test\lib\lvgl\src\core\lv_obj_style_gen.h **** }
 495:c:\users\alex\eclipse-workspace\lvgs_test\lib\lvgl\src\core\lv_obj_style_gen.h **** 
 496:c:\users\alex\eclipse-workspace\lvgs_test\lib\lvgl\src\core\lv_obj_style_gen.h **** static inline lv_color_t lv_obj_get_style_arc_color(const lv_obj_t * obj, uint32_t part)
 497:c:\users\alex\eclipse-workspace\lvgs_test\lib\lvgl\src\core\lv_obj_style_gen.h **** {
 498:c:\users\alex\eclipse-workspace\lvgs_test\lib\lvgl\src\core\lv_obj_style_gen.h ****     lv_style_value_t v = lv_obj_get_style_prop(obj, part, LV_STYLE_ARC_COLOR);
 499:c:\users\alex\eclipse-workspace\lvgs_test\lib\lvgl\src\core\lv_obj_style_gen.h ****     return v.color;
 500:c:\users\alex\eclipse-workspace\lvgs_test\lib\lvgl\src\core\lv_obj_style_gen.h **** }
 501:c:\users\alex\eclipse-workspace\lvgs_test\lib\lvgl\src\core\lv_obj_style_gen.h **** 
 502:c:\users\alex\eclipse-workspace\lvgs_test\lib\lvgl\src\core\lv_obj_style_gen.h **** static inline lv_color_t lv_obj_get_style_arc_color_filtered(const lv_obj_t * obj, uint32_t part)
 503:c:\users\alex\eclipse-workspace\lvgs_test\lib\lvgl\src\core\lv_obj_style_gen.h **** {
 504:c:\users\alex\eclipse-workspace\lvgs_test\lib\lvgl\src\core\lv_obj_style_gen.h ****     lv_style_value_t v = _lv_obj_style_apply_color_filter(obj, part, lv_obj_get_style_prop(obj, par
 505:c:\users\alex\eclipse-workspace\lvgs_test\lib\lvgl\src\core\lv_obj_style_gen.h ****     return v.color;
 506:c:\users\alex\eclipse-workspace\lvgs_test\lib\lvgl\src\core\lv_obj_style_gen.h **** }
 507:c:\users\alex\eclipse-workspace\lvgs_test\lib\lvgl\src\core\lv_obj_style_gen.h **** 
 508:c:\users\alex\eclipse-workspace\lvgs_test\lib\lvgl\src\core\lv_obj_style_gen.h **** static inline lv_opa_t lv_obj_get_style_arc_opa(const lv_obj_t * obj, uint32_t part)
 509:c:\users\alex\eclipse-workspace\lvgs_test\lib\lvgl\src\core\lv_obj_style_gen.h **** {
 510:c:\users\alex\eclipse-workspace\lvgs_test\lib\lvgl\src\core\lv_obj_style_gen.h ****     lv_style_value_t v = lv_obj_get_style_prop(obj, part, LV_STYLE_ARC_OPA);
 511:c:\users\alex\eclipse-workspace\lvgs_test\lib\lvgl\src\core\lv_obj_style_gen.h ****     return (lv_opa_t)v.num;
 512:c:\users\alex\eclipse-workspace\lvgs_test\lib\lvgl\src\core\lv_obj_style_gen.h **** }
 513:c:\users\alex\eclipse-workspace\lvgs_test\lib\lvgl\src\core\lv_obj_style_gen.h **** 
 514:c:\users\alex\eclipse-workspace\lvgs_test\lib\lvgl\src\core\lv_obj_style_gen.h **** static inline const void * lv_obj_get_style_arc_image_src(const lv_obj_t * obj, uint32_t part)
 515:c:\users\alex\eclipse-workspace\lvgs_test\lib\lvgl\src\core\lv_obj_style_gen.h **** {
 516:c:\users\alex\eclipse-workspace\lvgs_test\lib\lvgl\src\core\lv_obj_style_gen.h ****     lv_style_value_t v = lv_obj_get_style_prop(obj, part, LV_STYLE_ARC_IMAGE_SRC);
 517:c:\users\alex\eclipse-workspace\lvgs_test\lib\lvgl\src\core\lv_obj_style_gen.h ****     return (const void *)v.ptr;
 518:c:\users\alex\eclipse-workspace\lvgs_test\lib\lvgl\src\core\lv_obj_style_gen.h **** }
 519:c:\users\alex\eclipse-workspace\lvgs_test\lib\lvgl\src\core\lv_obj_style_gen.h **** 
 520:c:\users\alex\eclipse-workspace\lvgs_test\lib\lvgl\src\core\lv_obj_style_gen.h **** static inline lv_color_t lv_obj_get_style_text_color(const lv_obj_t * obj, uint32_t part)
 521:c:\users\alex\eclipse-workspace\lvgs_test\lib\lvgl\src\core\lv_obj_style_gen.h **** {
 522:c:\users\alex\eclipse-workspace\lvgs_test\lib\lvgl\src\core\lv_obj_style_gen.h ****     lv_style_value_t v = lv_obj_get_style_prop(obj, part, LV_STYLE_TEXT_COLOR);
 523:c:\users\alex\eclipse-workspace\lvgs_test\lib\lvgl\src\core\lv_obj_style_gen.h ****     return v.color;
ARM GAS  C:\Users\Alex\AppData\Local\Temp\ccSAPPAM.s 			page 15


 524:c:\users\alex\eclipse-workspace\lvgs_test\lib\lvgl\src\core\lv_obj_style_gen.h **** }
 525:c:\users\alex\eclipse-workspace\lvgs_test\lib\lvgl\src\core\lv_obj_style_gen.h **** 
 526:c:\users\alex\eclipse-workspace\lvgs_test\lib\lvgl\src\core\lv_obj_style_gen.h **** static inline lv_color_t lv_obj_get_style_text_color_filtered(const lv_obj_t * obj, uint32_t part)
 527:c:\users\alex\eclipse-workspace\lvgs_test\lib\lvgl\src\core\lv_obj_style_gen.h **** {
 528:c:\users\alex\eclipse-workspace\lvgs_test\lib\lvgl\src\core\lv_obj_style_gen.h ****     lv_style_value_t v = _lv_obj_style_apply_color_filter(obj, part, lv_obj_get_style_prop(obj, par
 529:c:\users\alex\eclipse-workspace\lvgs_test\lib\lvgl\src\core\lv_obj_style_gen.h ****     return v.color;
 530:c:\users\alex\eclipse-workspace\lvgs_test\lib\lvgl\src\core\lv_obj_style_gen.h **** }
 531:c:\users\alex\eclipse-workspace\lvgs_test\lib\lvgl\src\core\lv_obj_style_gen.h **** 
 532:c:\users\alex\eclipse-workspace\lvgs_test\lib\lvgl\src\core\lv_obj_style_gen.h **** static inline lv_opa_t lv_obj_get_style_text_opa(const lv_obj_t * obj, uint32_t part)
 533:c:\users\alex\eclipse-workspace\lvgs_test\lib\lvgl\src\core\lv_obj_style_gen.h **** {
 534:c:\users\alex\eclipse-workspace\lvgs_test\lib\lvgl\src\core\lv_obj_style_gen.h ****     lv_style_value_t v = lv_obj_get_style_prop(obj, part, LV_STYLE_TEXT_OPA);
 535:c:\users\alex\eclipse-workspace\lvgs_test\lib\lvgl\src\core\lv_obj_style_gen.h ****     return (lv_opa_t)v.num;
 536:c:\users\alex\eclipse-workspace\lvgs_test\lib\lvgl\src\core\lv_obj_style_gen.h **** }
 537:c:\users\alex\eclipse-workspace\lvgs_test\lib\lvgl\src\core\lv_obj_style_gen.h **** 
 538:c:\users\alex\eclipse-workspace\lvgs_test\lib\lvgl\src\core\lv_obj_style_gen.h **** static inline const lv_font_t * lv_obj_get_style_text_font(const lv_obj_t * obj, uint32_t part)
 539:c:\users\alex\eclipse-workspace\lvgs_test\lib\lvgl\src\core\lv_obj_style_gen.h **** {
 540:c:\users\alex\eclipse-workspace\lvgs_test\lib\lvgl\src\core\lv_obj_style_gen.h ****     lv_style_value_t v = lv_obj_get_style_prop(obj, part, LV_STYLE_TEXT_FONT);
 541:c:\users\alex\eclipse-workspace\lvgs_test\lib\lvgl\src\core\lv_obj_style_gen.h ****     return (const lv_font_t *)v.ptr;
 542:c:\users\alex\eclipse-workspace\lvgs_test\lib\lvgl\src\core\lv_obj_style_gen.h **** }
 543:c:\users\alex\eclipse-workspace\lvgs_test\lib\lvgl\src\core\lv_obj_style_gen.h **** 
 544:c:\users\alex\eclipse-workspace\lvgs_test\lib\lvgl\src\core\lv_obj_style_gen.h **** static inline int32_t lv_obj_get_style_text_letter_space(const lv_obj_t * obj, uint32_t part)
 545:c:\users\alex\eclipse-workspace\lvgs_test\lib\lvgl\src\core\lv_obj_style_gen.h **** {
 546:c:\users\alex\eclipse-workspace\lvgs_test\lib\lvgl\src\core\lv_obj_style_gen.h ****     lv_style_value_t v = lv_obj_get_style_prop(obj, part, LV_STYLE_TEXT_LETTER_SPACE);
 547:c:\users\alex\eclipse-workspace\lvgs_test\lib\lvgl\src\core\lv_obj_style_gen.h ****     return (int32_t)v.num;
 548:c:\users\alex\eclipse-workspace\lvgs_test\lib\lvgl\src\core\lv_obj_style_gen.h **** }
 549:c:\users\alex\eclipse-workspace\lvgs_test\lib\lvgl\src\core\lv_obj_style_gen.h **** 
 550:c:\users\alex\eclipse-workspace\lvgs_test\lib\lvgl\src\core\lv_obj_style_gen.h **** static inline int32_t lv_obj_get_style_text_line_space(const lv_obj_t * obj, uint32_t part)
 551:c:\users\alex\eclipse-workspace\lvgs_test\lib\lvgl\src\core\lv_obj_style_gen.h **** {
 552:c:\users\alex\eclipse-workspace\lvgs_test\lib\lvgl\src\core\lv_obj_style_gen.h ****     lv_style_value_t v = lv_obj_get_style_prop(obj, part, LV_STYLE_TEXT_LINE_SPACE);
 553:c:\users\alex\eclipse-workspace\lvgs_test\lib\lvgl\src\core\lv_obj_style_gen.h ****     return (int32_t)v.num;
 554:c:\users\alex\eclipse-workspace\lvgs_test\lib\lvgl\src\core\lv_obj_style_gen.h **** }
 555:c:\users\alex\eclipse-workspace\lvgs_test\lib\lvgl\src\core\lv_obj_style_gen.h **** 
 556:c:\users\alex\eclipse-workspace\lvgs_test\lib\lvgl\src\core\lv_obj_style_gen.h **** static inline lv_text_decor_t lv_obj_get_style_text_decor(const lv_obj_t * obj, uint32_t part)
 557:c:\users\alex\eclipse-workspace\lvgs_test\lib\lvgl\src\core\lv_obj_style_gen.h **** {
 558:c:\users\alex\eclipse-workspace\lvgs_test\lib\lvgl\src\core\lv_obj_style_gen.h ****     lv_style_value_t v = lv_obj_get_style_prop(obj, part, LV_STYLE_TEXT_DECOR);
 559:c:\users\alex\eclipse-workspace\lvgs_test\lib\lvgl\src\core\lv_obj_style_gen.h ****     return (lv_text_decor_t)v.num;
 560:c:\users\alex\eclipse-workspace\lvgs_test\lib\lvgl\src\core\lv_obj_style_gen.h **** }
 561:c:\users\alex\eclipse-workspace\lvgs_test\lib\lvgl\src\core\lv_obj_style_gen.h **** 
 562:c:\users\alex\eclipse-workspace\lvgs_test\lib\lvgl\src\core\lv_obj_style_gen.h **** static inline lv_text_align_t lv_obj_get_style_text_align(const lv_obj_t * obj, uint32_t part)
 563:c:\users\alex\eclipse-workspace\lvgs_test\lib\lvgl\src\core\lv_obj_style_gen.h **** {
 564:c:\users\alex\eclipse-workspace\lvgs_test\lib\lvgl\src\core\lv_obj_style_gen.h ****     lv_style_value_t v = lv_obj_get_style_prop(obj, part, LV_STYLE_TEXT_ALIGN);
 565:c:\users\alex\eclipse-workspace\lvgs_test\lib\lvgl\src\core\lv_obj_style_gen.h ****     return (lv_text_align_t)v.num;
 566:c:\users\alex\eclipse-workspace\lvgs_test\lib\lvgl\src\core\lv_obj_style_gen.h **** }
 567:c:\users\alex\eclipse-workspace\lvgs_test\lib\lvgl\src\core\lv_obj_style_gen.h **** 
 568:c:\users\alex\eclipse-workspace\lvgs_test\lib\lvgl\src\core\lv_obj_style_gen.h **** static inline int32_t lv_obj_get_style_radius(const lv_obj_t * obj, uint32_t part)
 569:c:\users\alex\eclipse-workspace\lvgs_test\lib\lvgl\src\core\lv_obj_style_gen.h **** {
 570:c:\users\alex\eclipse-workspace\lvgs_test\lib\lvgl\src\core\lv_obj_style_gen.h ****     lv_style_value_t v = lv_obj_get_style_prop(obj, part, LV_STYLE_RADIUS);
 571:c:\users\alex\eclipse-workspace\lvgs_test\lib\lvgl\src\core\lv_obj_style_gen.h ****     return (int32_t)v.num;
 572:c:\users\alex\eclipse-workspace\lvgs_test\lib\lvgl\src\core\lv_obj_style_gen.h **** }
 573:c:\users\alex\eclipse-workspace\lvgs_test\lib\lvgl\src\core\lv_obj_style_gen.h **** 
 574:c:\users\alex\eclipse-workspace\lvgs_test\lib\lvgl\src\core\lv_obj_style_gen.h **** static inline bool lv_obj_get_style_clip_corner(const lv_obj_t * obj, uint32_t part)
 575:c:\users\alex\eclipse-workspace\lvgs_test\lib\lvgl\src\core\lv_obj_style_gen.h **** {
 576:c:\users\alex\eclipse-workspace\lvgs_test\lib\lvgl\src\core\lv_obj_style_gen.h ****     lv_style_value_t v = lv_obj_get_style_prop(obj, part, LV_STYLE_CLIP_CORNER);
 577:c:\users\alex\eclipse-workspace\lvgs_test\lib\lvgl\src\core\lv_obj_style_gen.h ****     return (bool)v.num;
 578:c:\users\alex\eclipse-workspace\lvgs_test\lib\lvgl\src\core\lv_obj_style_gen.h **** }
 579:c:\users\alex\eclipse-workspace\lvgs_test\lib\lvgl\src\core\lv_obj_style_gen.h **** 
 580:c:\users\alex\eclipse-workspace\lvgs_test\lib\lvgl\src\core\lv_obj_style_gen.h **** static inline lv_opa_t lv_obj_get_style_opa(const lv_obj_t * obj, uint32_t part)
ARM GAS  C:\Users\Alex\AppData\Local\Temp\ccSAPPAM.s 			page 16


 581:c:\users\alex\eclipse-workspace\lvgs_test\lib\lvgl\src\core\lv_obj_style_gen.h **** {
 582:c:\users\alex\eclipse-workspace\lvgs_test\lib\lvgl\src\core\lv_obj_style_gen.h ****     lv_style_value_t v = lv_obj_get_style_prop(obj, part, LV_STYLE_OPA);
 583:c:\users\alex\eclipse-workspace\lvgs_test\lib\lvgl\src\core\lv_obj_style_gen.h ****     return (lv_opa_t)v.num;
 584:c:\users\alex\eclipse-workspace\lvgs_test\lib\lvgl\src\core\lv_obj_style_gen.h **** }
 585:c:\users\alex\eclipse-workspace\lvgs_test\lib\lvgl\src\core\lv_obj_style_gen.h **** 
 586:c:\users\alex\eclipse-workspace\lvgs_test\lib\lvgl\src\core\lv_obj_style_gen.h **** static inline lv_opa_t lv_obj_get_style_opa_layered(const lv_obj_t * obj, uint32_t part)
 587:c:\users\alex\eclipse-workspace\lvgs_test\lib\lvgl\src\core\lv_obj_style_gen.h **** {
 588:c:\users\alex\eclipse-workspace\lvgs_test\lib\lvgl\src\core\lv_obj_style_gen.h ****     lv_style_value_t v = lv_obj_get_style_prop(obj, part, LV_STYLE_OPA_LAYERED);
 589:c:\users\alex\eclipse-workspace\lvgs_test\lib\lvgl\src\core\lv_obj_style_gen.h ****     return (lv_opa_t)v.num;
 590:c:\users\alex\eclipse-workspace\lvgs_test\lib\lvgl\src\core\lv_obj_style_gen.h **** }
 591:c:\users\alex\eclipse-workspace\lvgs_test\lib\lvgl\src\core\lv_obj_style_gen.h **** 
 592:c:\users\alex\eclipse-workspace\lvgs_test\lib\lvgl\src\core\lv_obj_style_gen.h **** static inline const lv_color_filter_dsc_t * lv_obj_get_style_color_filter_dsc(const lv_obj_t * obj,
 593:c:\users\alex\eclipse-workspace\lvgs_test\lib\lvgl\src\core\lv_obj_style_gen.h **** {
 594:c:\users\alex\eclipse-workspace\lvgs_test\lib\lvgl\src\core\lv_obj_style_gen.h ****     lv_style_value_t v = lv_obj_get_style_prop(obj, part, LV_STYLE_COLOR_FILTER_DSC);
 595:c:\users\alex\eclipse-workspace\lvgs_test\lib\lvgl\src\core\lv_obj_style_gen.h ****     return (const lv_color_filter_dsc_t *)v.ptr;
 596:c:\users\alex\eclipse-workspace\lvgs_test\lib\lvgl\src\core\lv_obj_style_gen.h **** }
 597:c:\users\alex\eclipse-workspace\lvgs_test\lib\lvgl\src\core\lv_obj_style_gen.h **** 
 598:c:\users\alex\eclipse-workspace\lvgs_test\lib\lvgl\src\core\lv_obj_style_gen.h **** static inline lv_opa_t lv_obj_get_style_color_filter_opa(const lv_obj_t * obj, uint32_t part)
 599:c:\users\alex\eclipse-workspace\lvgs_test\lib\lvgl\src\core\lv_obj_style_gen.h **** {
 600:c:\users\alex\eclipse-workspace\lvgs_test\lib\lvgl\src\core\lv_obj_style_gen.h ****     lv_style_value_t v = lv_obj_get_style_prop(obj, part, LV_STYLE_COLOR_FILTER_OPA);
 601:c:\users\alex\eclipse-workspace\lvgs_test\lib\lvgl\src\core\lv_obj_style_gen.h ****     return (lv_opa_t)v.num;
 602:c:\users\alex\eclipse-workspace\lvgs_test\lib\lvgl\src\core\lv_obj_style_gen.h **** }
 603:c:\users\alex\eclipse-workspace\lvgs_test\lib\lvgl\src\core\lv_obj_style_gen.h **** 
 604:c:\users\alex\eclipse-workspace\lvgs_test\lib\lvgl\src\core\lv_obj_style_gen.h **** static inline const lv_anim_t * lv_obj_get_style_anim(const lv_obj_t * obj, uint32_t part)
 605:c:\users\alex\eclipse-workspace\lvgs_test\lib\lvgl\src\core\lv_obj_style_gen.h **** {
 606:c:\users\alex\eclipse-workspace\lvgs_test\lib\lvgl\src\core\lv_obj_style_gen.h ****     lv_style_value_t v = lv_obj_get_style_prop(obj, part, LV_STYLE_ANIM);
 607:c:\users\alex\eclipse-workspace\lvgs_test\lib\lvgl\src\core\lv_obj_style_gen.h ****     return (const lv_anim_t *)v.ptr;
 608:c:\users\alex\eclipse-workspace\lvgs_test\lib\lvgl\src\core\lv_obj_style_gen.h **** }
 609:c:\users\alex\eclipse-workspace\lvgs_test\lib\lvgl\src\core\lv_obj_style_gen.h **** 
 610:c:\users\alex\eclipse-workspace\lvgs_test\lib\lvgl\src\core\lv_obj_style_gen.h **** static inline uint32_t lv_obj_get_style_anim_duration(const lv_obj_t * obj, uint32_t part)
 611:c:\users\alex\eclipse-workspace\lvgs_test\lib\lvgl\src\core\lv_obj_style_gen.h **** {
 612:c:\users\alex\eclipse-workspace\lvgs_test\lib\lvgl\src\core\lv_obj_style_gen.h ****     lv_style_value_t v = lv_obj_get_style_prop(obj, part, LV_STYLE_ANIM_DURATION);
 613:c:\users\alex\eclipse-workspace\lvgs_test\lib\lvgl\src\core\lv_obj_style_gen.h ****     return (uint32_t)v.num;
 614:c:\users\alex\eclipse-workspace\lvgs_test\lib\lvgl\src\core\lv_obj_style_gen.h **** }
 615:c:\users\alex\eclipse-workspace\lvgs_test\lib\lvgl\src\core\lv_obj_style_gen.h **** 
 616:c:\users\alex\eclipse-workspace\lvgs_test\lib\lvgl\src\core\lv_obj_style_gen.h **** static inline const lv_style_transition_dsc_t * lv_obj_get_style_transition(const lv_obj_t * obj, u
 617:c:\users\alex\eclipse-workspace\lvgs_test\lib\lvgl\src\core\lv_obj_style_gen.h **** {
 618:c:\users\alex\eclipse-workspace\lvgs_test\lib\lvgl\src\core\lv_obj_style_gen.h ****     lv_style_value_t v = lv_obj_get_style_prop(obj, part, LV_STYLE_TRANSITION);
 619:c:\users\alex\eclipse-workspace\lvgs_test\lib\lvgl\src\core\lv_obj_style_gen.h ****     return (const lv_style_transition_dsc_t *)v.ptr;
 620:c:\users\alex\eclipse-workspace\lvgs_test\lib\lvgl\src\core\lv_obj_style_gen.h **** }
 621:c:\users\alex\eclipse-workspace\lvgs_test\lib\lvgl\src\core\lv_obj_style_gen.h **** 
 622:c:\users\alex\eclipse-workspace\lvgs_test\lib\lvgl\src\core\lv_obj_style_gen.h **** static inline lv_blend_mode_t lv_obj_get_style_blend_mode(const lv_obj_t * obj, uint32_t part)
 623:c:\users\alex\eclipse-workspace\lvgs_test\lib\lvgl\src\core\lv_obj_style_gen.h **** {
 624:c:\users\alex\eclipse-workspace\lvgs_test\lib\lvgl\src\core\lv_obj_style_gen.h ****     lv_style_value_t v = lv_obj_get_style_prop(obj, part, LV_STYLE_BLEND_MODE);
 625:c:\users\alex\eclipse-workspace\lvgs_test\lib\lvgl\src\core\lv_obj_style_gen.h ****     return (lv_blend_mode_t)v.num;
 626:c:\users\alex\eclipse-workspace\lvgs_test\lib\lvgl\src\core\lv_obj_style_gen.h **** }
 627:c:\users\alex\eclipse-workspace\lvgs_test\lib\lvgl\src\core\lv_obj_style_gen.h **** 
 628:c:\users\alex\eclipse-workspace\lvgs_test\lib\lvgl\src\core\lv_obj_style_gen.h **** static inline uint16_t lv_obj_get_style_layout(const lv_obj_t * obj, uint32_t part)
 208              		.loc 2 628 24 view .LVU44
 209              	.LBB6:
 629:c:\users\alex\eclipse-workspace\lvgs_test\lib\lvgl\src\core\lv_obj_style_gen.h **** {
 630:c:\users\alex\eclipse-workspace\lvgs_test\lib\lvgl\src\core\lv_obj_style_gen.h ****     lv_style_value_t v = lv_obj_get_style_prop(obj, part, LV_STYLE_LAYOUT);
 210              		.loc 2 630 5 view .LVU45
 211              		.loc 2 630 26 is_stmt 0 view .LVU46
 212 0006 1622     		movs	r2, #22
 213 0008 0021     		movs	r1, #0
 214 000a FFF7FEFF 		bl	lv_obj_get_style_prop
ARM GAS  C:\Users\Alex\AppData\Local\Temp\ccSAPPAM.s 			page 17


 215              	.LVL11:
 216              		.loc 2 630 26 view .LVU47
 217 000e 0190     		str	r0, [sp, #4]
 631:c:\users\alex\eclipse-workspace\lvgs_test\lib\lvgl\src\core\lv_obj_style_gen.h ****     return (uint16_t)v.num;
 218              		.loc 2 631 5 is_stmt 1 view .LVU48
 219              	.LVL12:
 220              		.loc 2 631 5 is_stmt 0 view .LVU49
 221              	.LBE6:
 222              	.LBE5:
  71:Lib/lvgl/src/layouts/lv_layout.c ****     if(layout_id > 0 && layout_id <= layout_cnt) {
 223              		.loc 1 71 5 is_stmt 1 view .LVU50
 224              		.loc 1 71 7 is_stmt 0 view .LVU51
 225 0010 10F0FF0F 		tst	r0, #255
 226 0014 0DD0     		beq	.L15
 227              		.loc 1 71 35 discriminator 1 view .LVU52
 228 0016 C3B2     		uxtb	r3, r0
 229              		.loc 1 71 38 discriminator 1 view .LVU53
 230 0018 074A     		ldr	r2, .L18
 231 001a 926D     		ldr	r2, [r2, #88]
 232              		.loc 1 71 22 discriminator 1 view .LVU54
 233 001c 9342     		cmp	r3, r2
 234 001e 08D8     		bhi	.L15
 235              	.LBB7:
  72:Lib/lvgl/src/layouts/lv_layout.c ****         void  * user_data = layout_list_def[layout_id].user_data;
 236              		.loc 1 72 9 is_stmt 1 view .LVU55
 237              		.loc 1 72 29 is_stmt 0 view .LVU56
 238 0020 054A     		ldr	r2, .L18
 239 0022 D26D     		ldr	r2, [r2, #92]
 240              		.loc 1 72 44 view .LVU57
 241 0024 02EBC301 		add	r1, r2, r3, lsl #3
 242              	.LVL13:
  73:Lib/lvgl/src/layouts/lv_layout.c ****         layout_list_def[layout_id].cb(obj, user_data);
 243              		.loc 1 73 9 is_stmt 1 view .LVU58
 244              		.loc 1 73 35 is_stmt 0 view .LVU59
 245 0028 52F83330 		ldr	r3, [r2, r3, lsl #3]
 246              		.loc 1 73 9 view .LVU60
 247 002c 4968     		ldr	r1, [r1, #4]
 248              	.LVL14:
 249              		.loc 1 73 9 view .LVU61
 250 002e 2046     		mov	r0, r4
 251              	.LVL15:
 252              		.loc 1 73 9 view .LVU62
 253 0030 9847     		blx	r3
 254              	.LVL16:
 255              	.L15:
 256              		.loc 1 73 9 view .LVU63
 257              	.LBE7:
  74:Lib/lvgl/src/layouts/lv_layout.c ****     }
  75:Lib/lvgl/src/layouts/lv_layout.c **** }
 258              		.loc 1 75 1 view .LVU64
 259 0032 02B0     		add	sp, sp, #8
 260              	.LCFI5:
 261              		.cfi_def_cfa_offset 8
 262              		@ sp needed
 263 0034 10BD     		pop	{r4, pc}
 264              	.LVL17:
 265              	.L19:
ARM GAS  C:\Users\Alex\AppData\Local\Temp\ccSAPPAM.s 			page 18


 266              		.loc 1 75 1 view .LVU65
 267 0036 00BF     		.align	2
 268              	.L18:
 269 0038 00000000 		.word	lv_global
 270              		.cfi_endproc
 271              	.LFE237:
 273              		.text
 274              	.Letext0:
 275              		.file 3 "e:\\programms\\gnu_mcu_eclipse\\toolchain\\arm-gnu-toolchain-12.2.mpacbti-bet1-mingw-w64-
 276              		.file 4 "e:\\programms\\gnu_mcu_eclipse\\toolchain\\arm-gnu-toolchain-12.2.mpacbti-bet1-mingw-w64-
 277              		.file 5 "Lib/lvgl/src/layouts/../misc/lv_types.h"
 278              		.file 6 "c:\\users\\alex\\eclipse-workspace\\lvgs_test\\lib\\lvgl\\src\\core\\lv_obj.h"
 279              		.file 7 "c:\\users\\alex\\eclipse-workspace\\lvgs_test\\lib\\lvgl\\src\\core\\lv_obj_class.h"
 280              		.file 8 "c:\\users\\alex\\eclipse-workspace\\lvgs_test\\lib\\lvgl\\src\\core\\lv_group.h"
 281              		.file 9 "Lib/lvgl/src/layouts/../core/../draw/lv_draw.h"
 282              		.file 10 "c:\\users\\alex\\eclipse-workspace\\lvgs_test\\lib\\lvgl\\src\\misc\\lv_event.h"
 283              		.file 11 "Lib/lvgl/src/layouts/../core/../draw/../misc/lv_timer.h"
 284              		.file 12 "Lib/lvgl/src/layouts/lv_layout.h"
 285              		.file 13 "Lib/lvgl/src/layouts/flex/../../misc/lv_area.h"
 286              		.file 14 "e:\\programms\\gnu_mcu_eclipse\\toolchain\\arm-gnu-toolchain-12.2.mpacbti-bet1-mingw-w64
 287              		.file 15 "c:\\users\\alex\\eclipse-workspace\\lvgs_test\\lib\\lvgl\\src\\misc\\lv_color.h"
 288              		.file 16 "c:\\users\\alex\\eclipse-workspace\\lvgs_test\\lib\\lvgl\\src\\draw\\lv_image_buf.h"
 289              		.file 17 "c:\\users\\alex\\eclipse-workspace\\lvgs_test\\lib\\lvgl\\src\\draw\\lv_draw_buf.h"
 290              		.file 18 "c:\\users\\alex\\eclipse-workspace\\lvgs_test\\lib\\lvgl\\src\\osal\\lv_os_none.h"
 291              		.file 19 "Lib/lvgl/src/layouts/../core/../draw/../misc/../tick/lv_tick.h"
 292              		.file 20 "Lib/lvgl/src/layouts/../core/../draw/../misc/lv_ll.h"
 293              		.file 21 "Lib/lvgl/src/layouts/../core/../draw/../misc/lv_anim.h"
 294              		.file 22 "Lib/lvgl/src/layouts/../core/../draw/../misc/lv_style.h"
 295              		.file 23 "c:\\users\\alex\\eclipse-workspace\\lvgs_test\\lib\\lvgl\\src\\misc\\lv_array.h"
 296              		.file 24 "Lib/lvgl/src/layouts/../core/../draw/sw/blend/../lv_draw_sw_mask.h"
 297              		.file 25 "c:\\users\\alex\\eclipse-workspace\\lvgs_test\\lib\\lvgl\\src\\core\\lv_obj_style.h"
 298              		.file 26 "Lib/lvgl/src/layouts/../core/../stdlib/builtin/lv_tlsf.h"
 299              		.file 27 "Lib/lvgl/src/layouts/../core/lv_global.h"
 300              		.file 28 "c:\\users\\alex\\eclipse-workspace\\lvgs_test\\lib\\lvgl\\src\\stdlib\\lv_mem.h"
 301              		.file 29 "Lib/lvgl/src/layouts/grid/lv_grid.h"
 302              		.file 30 "Lib/lvgl/src/layouts/flex/lv_flex.h"
ARM GAS  C:\Users\Alex\AppData\Local\Temp\ccSAPPAM.s 			page 19

