ARM GAS  C:\Users\Alex\AppData\Local\Temp\ccdKwz1H.s 			page 1


   1              		.cpu cortex-m4
   2              		.arch armv7e-m
   3              		.fpu fpv4-sp-d16
   4              		.eabi_attribute 27, 1
   5              		.eabi_attribute 28, 1
   6              		.eabi_attribute 20, 1
   7              		.eabi_attribute 21, 1
   8              		.eabi_attribute 23, 3
   9              		.eabi_attribute 24, 1
  10              		.eabi_attribute 25, 1
  11              		.eabi_attribute 26, 1
  12              		.eabi_attribute 30, 1
  13              		.eabi_attribute 34, 1
  14              		.eabi_attribute 18, 4
  15              		.file	"lv_obj_style.c"
  16              		.text
  17              	.Ltext0:
  18              		.cfi_sections	.debug_frame
  19              		.file 1 "Lib/lvgl/src/core/lv_obj_style.c"
  20              		.section	.text.lv_color_eq,"ax",%progbits
  21              		.align	1
  22              		.syntax unified
  23              		.thumb
  24              		.thumb_func
  26              	lv_color_eq:
  27              	.LFB15:
  28              		.file 2 "Lib/lvgl/src/core/../misc/../font/../draw/../misc/lv_color.h"
   1:Lib/lvgl/src/core/../misc/../font/../draw/../misc/lv_color.h **** /**
   2:Lib/lvgl/src/core/../misc/../font/../draw/../misc/lv_color.h ****  * @file lv_color.h
   3:Lib/lvgl/src/core/../misc/../font/../draw/../misc/lv_color.h ****  *
   4:Lib/lvgl/src/core/../misc/../font/../draw/../misc/lv_color.h ****  */
   5:Lib/lvgl/src/core/../misc/../font/../draw/../misc/lv_color.h **** 
   6:Lib/lvgl/src/core/../misc/../font/../draw/../misc/lv_color.h **** #ifndef LV_COLOR_H
   7:Lib/lvgl/src/core/../misc/../font/../draw/../misc/lv_color.h **** #define LV_COLOR_H
   8:Lib/lvgl/src/core/../misc/../font/../draw/../misc/lv_color.h **** 
   9:Lib/lvgl/src/core/../misc/../font/../draw/../misc/lv_color.h **** #ifdef __cplusplus
  10:Lib/lvgl/src/core/../misc/../font/../draw/../misc/lv_color.h **** extern "C" {
  11:Lib/lvgl/src/core/../misc/../font/../draw/../misc/lv_color.h **** #endif
  12:Lib/lvgl/src/core/../misc/../font/../draw/../misc/lv_color.h **** 
  13:Lib/lvgl/src/core/../misc/../font/../draw/../misc/lv_color.h **** /*********************
  14:Lib/lvgl/src/core/../misc/../font/../draw/../misc/lv_color.h ****  *      INCLUDES
  15:Lib/lvgl/src/core/../misc/../font/../draw/../misc/lv_color.h ****  *********************/
  16:Lib/lvgl/src/core/../misc/../font/../draw/../misc/lv_color.h **** #include "../lv_conf_internal.h"
  17:Lib/lvgl/src/core/../misc/../font/../draw/../misc/lv_color.h **** #include "lv_assert.h"
  18:Lib/lvgl/src/core/../misc/../font/../draw/../misc/lv_color.h **** #include "lv_math.h"
  19:Lib/lvgl/src/core/../misc/../font/../draw/../misc/lv_color.h **** #include "lv_types.h"
  20:Lib/lvgl/src/core/../misc/../font/../draw/../misc/lv_color.h **** #include <stdint.h>
  21:Lib/lvgl/src/core/../misc/../font/../draw/../misc/lv_color.h **** #include <stdbool.h>
  22:Lib/lvgl/src/core/../misc/../font/../draw/../misc/lv_color.h **** 
  23:Lib/lvgl/src/core/../misc/../font/../draw/../misc/lv_color.h **** /*********************
  24:Lib/lvgl/src/core/../misc/../font/../draw/../misc/lv_color.h ****  *      DEFINES
  25:Lib/lvgl/src/core/../misc/../font/../draw/../misc/lv_color.h ****  *********************/
  26:Lib/lvgl/src/core/../misc/../font/../draw/../misc/lv_color.h **** LV_EXPORT_CONST_INT(LV_COLOR_DEPTH);
  27:Lib/lvgl/src/core/../misc/../font/../draw/../misc/lv_color.h **** 
  28:Lib/lvgl/src/core/../misc/../font/../draw/../misc/lv_color.h **** #if LV_COLOR_DEPTH == 8
  29:Lib/lvgl/src/core/../misc/../font/../draw/../misc/lv_color.h **** #define _LV_COLOR_NATIVE_WITH_ALPHA_SIZE 2
  30:Lib/lvgl/src/core/../misc/../font/../draw/../misc/lv_color.h **** #elif LV_COLOR_DEPTH == 16
ARM GAS  C:\Users\Alex\AppData\Local\Temp\ccdKwz1H.s 			page 2


  31:Lib/lvgl/src/core/../misc/../font/../draw/../misc/lv_color.h **** #define _LV_COLOR_NATIVE_WITH_ALPHA_SIZE 3
  32:Lib/lvgl/src/core/../misc/../font/../draw/../misc/lv_color.h **** #elif LV_COLOR_DEPTH == 24
  33:Lib/lvgl/src/core/../misc/../font/../draw/../misc/lv_color.h **** #define _LV_COLOR_NATIVE_WITH_ALPHA_SIZE 4
  34:Lib/lvgl/src/core/../misc/../font/../draw/../misc/lv_color.h **** #elif LV_COLOR_DEPTH == 32
  35:Lib/lvgl/src/core/../misc/../font/../draw/../misc/lv_color.h **** #define _LV_COLOR_NATIVE_WITH_ALPHA_SIZE 4
  36:Lib/lvgl/src/core/../misc/../font/../draw/../misc/lv_color.h **** #endif
  37:Lib/lvgl/src/core/../misc/../font/../draw/../misc/lv_color.h **** 
  38:Lib/lvgl/src/core/../misc/../font/../draw/../misc/lv_color.h **** /**
  39:Lib/lvgl/src/core/../misc/../font/../draw/../misc/lv_color.h ****  * Opacity percentages.
  40:Lib/lvgl/src/core/../misc/../font/../draw/../misc/lv_color.h ****  */
  41:Lib/lvgl/src/core/../misc/../font/../draw/../misc/lv_color.h **** 
  42:Lib/lvgl/src/core/../misc/../font/../draw/../misc/lv_color.h **** enum _lv_opa_t {
  43:Lib/lvgl/src/core/../misc/../font/../draw/../misc/lv_color.h ****     LV_OPA_TRANSP = 0,
  44:Lib/lvgl/src/core/../misc/../font/../draw/../misc/lv_color.h ****     LV_OPA_0      = 0,
  45:Lib/lvgl/src/core/../misc/../font/../draw/../misc/lv_color.h ****     LV_OPA_10     = 25,
  46:Lib/lvgl/src/core/../misc/../font/../draw/../misc/lv_color.h ****     LV_OPA_20     = 51,
  47:Lib/lvgl/src/core/../misc/../font/../draw/../misc/lv_color.h ****     LV_OPA_30     = 76,
  48:Lib/lvgl/src/core/../misc/../font/../draw/../misc/lv_color.h ****     LV_OPA_40     = 102,
  49:Lib/lvgl/src/core/../misc/../font/../draw/../misc/lv_color.h ****     LV_OPA_50     = 127,
  50:Lib/lvgl/src/core/../misc/../font/../draw/../misc/lv_color.h ****     LV_OPA_60     = 153,
  51:Lib/lvgl/src/core/../misc/../font/../draw/../misc/lv_color.h ****     LV_OPA_70     = 178,
  52:Lib/lvgl/src/core/../misc/../font/../draw/../misc/lv_color.h ****     LV_OPA_80     = 204,
  53:Lib/lvgl/src/core/../misc/../font/../draw/../misc/lv_color.h ****     LV_OPA_90     = 229,
  54:Lib/lvgl/src/core/../misc/../font/../draw/../misc/lv_color.h ****     LV_OPA_100    = 255,
  55:Lib/lvgl/src/core/../misc/../font/../draw/../misc/lv_color.h ****     LV_OPA_COVER  = 255,
  56:Lib/lvgl/src/core/../misc/../font/../draw/../misc/lv_color.h **** };
  57:Lib/lvgl/src/core/../misc/../font/../draw/../misc/lv_color.h **** 
  58:Lib/lvgl/src/core/../misc/../font/../draw/../misc/lv_color.h **** #ifdef DOXYGEN
  59:Lib/lvgl/src/core/../misc/../font/../draw/../misc/lv_color.h **** typedef _lv_opa_t lv_opa_t;
  60:Lib/lvgl/src/core/../misc/../font/../draw/../misc/lv_color.h **** #else
  61:Lib/lvgl/src/core/../misc/../font/../draw/../misc/lv_color.h **** typedef uint8_t lv_opa_t;
  62:Lib/lvgl/src/core/../misc/../font/../draw/../misc/lv_color.h **** #endif /*DOXYGEN*/
  63:Lib/lvgl/src/core/../misc/../font/../draw/../misc/lv_color.h **** 
  64:Lib/lvgl/src/core/../misc/../font/../draw/../misc/lv_color.h **** #define LV_OPA_MIN 2    /*Opacities below this will be transparent*/
  65:Lib/lvgl/src/core/../misc/../font/../draw/../misc/lv_color.h **** #define LV_OPA_MAX 253  /*Opacities above this will fully cover*/
  66:Lib/lvgl/src/core/../misc/../font/../draw/../misc/lv_color.h **** 
  67:Lib/lvgl/src/core/../misc/../font/../draw/../misc/lv_color.h **** #define LV_COLOR_FORMAT_GET_BPP(cf) (       \
  68:Lib/lvgl/src/core/../misc/../font/../draw/../misc/lv_color.h ****                                             (cf) == LV_COLOR_FORMAT_I1 ? 1 :        \
  69:Lib/lvgl/src/core/../misc/../font/../draw/../misc/lv_color.h ****                                             (cf) == LV_COLOR_FORMAT_A1 ? 1 :        \
  70:Lib/lvgl/src/core/../misc/../font/../draw/../misc/lv_color.h ****                                             (cf) == LV_COLOR_FORMAT_I2 ? 2 :        \
  71:Lib/lvgl/src/core/../misc/../font/../draw/../misc/lv_color.h ****                                             (cf) == LV_COLOR_FORMAT_A2 ? 2 :        \
  72:Lib/lvgl/src/core/../misc/../font/../draw/../misc/lv_color.h ****                                             (cf) == LV_COLOR_FORMAT_I4 ? 4 :        \
  73:Lib/lvgl/src/core/../misc/../font/../draw/../misc/lv_color.h ****                                             (cf) == LV_COLOR_FORMAT_A4 ? 4 :        \
  74:Lib/lvgl/src/core/../misc/../font/../draw/../misc/lv_color.h ****                                             (cf) == LV_COLOR_FORMAT_L8 ? 8 :        \
  75:Lib/lvgl/src/core/../misc/../font/../draw/../misc/lv_color.h ****                                             (cf) == LV_COLOR_FORMAT_A8 ? 8 :        \
  76:Lib/lvgl/src/core/../misc/../font/../draw/../misc/lv_color.h ****                                             (cf) == LV_COLOR_FORMAT_I8 ? 8 :        \
  77:Lib/lvgl/src/core/../misc/../font/../draw/../misc/lv_color.h ****                                             (cf) == LV_COLOR_FORMAT_RGB565 ? 16 :   \
  78:Lib/lvgl/src/core/../misc/../font/../draw/../misc/lv_color.h ****                                             (cf) == LV_COLOR_FORMAT_RGB565A8 ? 24 : \
  79:Lib/lvgl/src/core/../misc/../font/../draw/../misc/lv_color.h ****                                             (cf) == LV_COLOR_FORMAT_RGB888 ? 24 :   \
  80:Lib/lvgl/src/core/../misc/../font/../draw/../misc/lv_color.h ****                                             (cf) == LV_COLOR_FORMAT_ARGB8888 ? 32 : \
  81:Lib/lvgl/src/core/../misc/../font/../draw/../misc/lv_color.h ****                                             (cf) == LV_COLOR_FORMAT_XRGB8888 ? 32 : \
  82:Lib/lvgl/src/core/../misc/../font/../draw/../misc/lv_color.h ****                                             0                                       \
  83:Lib/lvgl/src/core/../misc/../font/../draw/../misc/lv_color.h ****                                     )
  84:Lib/lvgl/src/core/../misc/../font/../draw/../misc/lv_color.h **** 
  85:Lib/lvgl/src/core/../misc/../font/../draw/../misc/lv_color.h **** /**********************
  86:Lib/lvgl/src/core/../misc/../font/../draw/../misc/lv_color.h ****  *      TYPEDEFS
  87:Lib/lvgl/src/core/../misc/../font/../draw/../misc/lv_color.h ****  **********************/
ARM GAS  C:\Users\Alex\AppData\Local\Temp\ccdKwz1H.s 			page 3


  88:Lib/lvgl/src/core/../misc/../font/../draw/../misc/lv_color.h **** 
  89:Lib/lvgl/src/core/../misc/../font/../draw/../misc/lv_color.h **** typedef struct {
  90:Lib/lvgl/src/core/../misc/../font/../draw/../misc/lv_color.h ****     uint8_t red;
  91:Lib/lvgl/src/core/../misc/../font/../draw/../misc/lv_color.h ****     uint8_t green;
  92:Lib/lvgl/src/core/../misc/../font/../draw/../misc/lv_color.h ****     uint8_t blue;
  93:Lib/lvgl/src/core/../misc/../font/../draw/../misc/lv_color.h **** } lv_color_t;
  94:Lib/lvgl/src/core/../misc/../font/../draw/../misc/lv_color.h **** 
  95:Lib/lvgl/src/core/../misc/../font/../draw/../misc/lv_color.h **** typedef struct {
  96:Lib/lvgl/src/core/../misc/../font/../draw/../misc/lv_color.h ****     uint16_t red : 5;
  97:Lib/lvgl/src/core/../misc/../font/../draw/../misc/lv_color.h ****     uint16_t green : 6;
  98:Lib/lvgl/src/core/../misc/../font/../draw/../misc/lv_color.h ****     uint16_t blue : 5;
  99:Lib/lvgl/src/core/../misc/../font/../draw/../misc/lv_color.h **** } lv_color16_t;
 100:Lib/lvgl/src/core/../misc/../font/../draw/../misc/lv_color.h **** 
 101:Lib/lvgl/src/core/../misc/../font/../draw/../misc/lv_color.h **** typedef struct {
 102:Lib/lvgl/src/core/../misc/../font/../draw/../misc/lv_color.h ****     uint8_t red;
 103:Lib/lvgl/src/core/../misc/../font/../draw/../misc/lv_color.h ****     uint8_t green;
 104:Lib/lvgl/src/core/../misc/../font/../draw/../misc/lv_color.h ****     uint8_t blue;
 105:Lib/lvgl/src/core/../misc/../font/../draw/../misc/lv_color.h ****     uint8_t alpha;
 106:Lib/lvgl/src/core/../misc/../font/../draw/../misc/lv_color.h **** } lv_color32_t;
 107:Lib/lvgl/src/core/../misc/../font/../draw/../misc/lv_color.h **** 
 108:Lib/lvgl/src/core/../misc/../font/../draw/../misc/lv_color.h **** typedef struct {
 109:Lib/lvgl/src/core/../misc/../font/../draw/../misc/lv_color.h ****     uint16_t h;
 110:Lib/lvgl/src/core/../misc/../font/../draw/../misc/lv_color.h ****     uint8_t s;
 111:Lib/lvgl/src/core/../misc/../font/../draw/../misc/lv_color.h ****     uint8_t v;
 112:Lib/lvgl/src/core/../misc/../font/../draw/../misc/lv_color.h **** } lv_color_hsv_t;
 113:Lib/lvgl/src/core/../misc/../font/../draw/../misc/lv_color.h **** 
 114:Lib/lvgl/src/core/../misc/../font/../draw/../misc/lv_color.h **** enum _lv_color_format_t {
 115:Lib/lvgl/src/core/../misc/../font/../draw/../misc/lv_color.h ****     LV_COLOR_FORMAT_UNKNOWN           = 0,
 116:Lib/lvgl/src/core/../misc/../font/../draw/../misc/lv_color.h **** 
 117:Lib/lvgl/src/core/../misc/../font/../draw/../misc/lv_color.h ****     LV_COLOR_FORMAT_RAW               = 0x01,
 118:Lib/lvgl/src/core/../misc/../font/../draw/../misc/lv_color.h ****     LV_COLOR_FORMAT_RAW_ALPHA         = 0x02,
 119:Lib/lvgl/src/core/../misc/../font/../draw/../misc/lv_color.h **** 
 120:Lib/lvgl/src/core/../misc/../font/../draw/../misc/lv_color.h ****     /*<=1 byte (+alpha) formats*/
 121:Lib/lvgl/src/core/../misc/../font/../draw/../misc/lv_color.h ****     LV_COLOR_FORMAT_L8                = 0x06,
 122:Lib/lvgl/src/core/../misc/../font/../draw/../misc/lv_color.h ****     LV_COLOR_FORMAT_I1                = 0x07,
 123:Lib/lvgl/src/core/../misc/../font/../draw/../misc/lv_color.h ****     LV_COLOR_FORMAT_I2                = 0x08,
 124:Lib/lvgl/src/core/../misc/../font/../draw/../misc/lv_color.h ****     LV_COLOR_FORMAT_I4                = 0x09,
 125:Lib/lvgl/src/core/../misc/../font/../draw/../misc/lv_color.h ****     LV_COLOR_FORMAT_I8                = 0x0A,
 126:Lib/lvgl/src/core/../misc/../font/../draw/../misc/lv_color.h ****     LV_COLOR_FORMAT_A8                = 0x0E,
 127:Lib/lvgl/src/core/../misc/../font/../draw/../misc/lv_color.h **** 
 128:Lib/lvgl/src/core/../misc/../font/../draw/../misc/lv_color.h ****     /*2 byte (+alpha) formats*/
 129:Lib/lvgl/src/core/../misc/../font/../draw/../misc/lv_color.h ****     LV_COLOR_FORMAT_RGB565            = 0x12,
 130:Lib/lvgl/src/core/../misc/../font/../draw/../misc/lv_color.h ****     LV_COLOR_FORMAT_RGB565A8          = 0x14    /**< Color array followed by Alpha array*/,
 131:Lib/lvgl/src/core/../misc/../font/../draw/../misc/lv_color.h **** 
 132:Lib/lvgl/src/core/../misc/../font/../draw/../misc/lv_color.h ****     /*3 byte (+alpha) formats*/
 133:Lib/lvgl/src/core/../misc/../font/../draw/../misc/lv_color.h ****     LV_COLOR_FORMAT_RGB888            = 0x0F,
 134:Lib/lvgl/src/core/../misc/../font/../draw/../misc/lv_color.h ****     LV_COLOR_FORMAT_ARGB8888          = 0x10,
 135:Lib/lvgl/src/core/../misc/../font/../draw/../misc/lv_color.h ****     LV_COLOR_FORMAT_XRGB8888          = 0x11,
 136:Lib/lvgl/src/core/../misc/../font/../draw/../misc/lv_color.h **** 
 137:Lib/lvgl/src/core/../misc/../font/../draw/../misc/lv_color.h ****     /*Formats not supported by software renderer but kept here so GPU can use it*/
 138:Lib/lvgl/src/core/../misc/../font/../draw/../misc/lv_color.h ****     LV_COLOR_FORMAT_A1                = 0x0B,
 139:Lib/lvgl/src/core/../misc/../font/../draw/../misc/lv_color.h ****     LV_COLOR_FORMAT_A2                = 0x0C,
 140:Lib/lvgl/src/core/../misc/../font/../draw/../misc/lv_color.h ****     LV_COLOR_FORMAT_A4                = 0x0D,
 141:Lib/lvgl/src/core/../misc/../font/../draw/../misc/lv_color.h **** 
 142:Lib/lvgl/src/core/../misc/../font/../draw/../misc/lv_color.h ****     /* reference to https://wiki.videolan.org/YUV/ */
 143:Lib/lvgl/src/core/../misc/../font/../draw/../misc/lv_color.h ****     /*YUV planar formats*/
 144:Lib/lvgl/src/core/../misc/../font/../draw/../misc/lv_color.h ****     LV_COLOR_FORMAT_YUV_START         = 0x20,
ARM GAS  C:\Users\Alex\AppData\Local\Temp\ccdKwz1H.s 			page 4


 145:Lib/lvgl/src/core/../misc/../font/../draw/../misc/lv_color.h ****     LV_COLOR_FORMAT_I420              = LV_COLOR_FORMAT_YUV_START,  /*YUV420 planar(3 plane)*/
 146:Lib/lvgl/src/core/../misc/../font/../draw/../misc/lv_color.h ****     LV_COLOR_FORMAT_I422              = 0x21,  /*YUV422 planar(3 plane)*/
 147:Lib/lvgl/src/core/../misc/../font/../draw/../misc/lv_color.h ****     LV_COLOR_FORMAT_I444              = 0x22,  /*YUV444 planar(3 plane)*/
 148:Lib/lvgl/src/core/../misc/../font/../draw/../misc/lv_color.h ****     LV_COLOR_FORMAT_I400              = 0x23,  /*YUV400 no chroma channel*/
 149:Lib/lvgl/src/core/../misc/../font/../draw/../misc/lv_color.h ****     LV_COLOR_FORMAT_NV21              = 0x24,  /*YUV420 planar(2 plane), UV plane in 'V, U, V, U'*/
 150:Lib/lvgl/src/core/../misc/../font/../draw/../misc/lv_color.h ****     LV_COLOR_FORMAT_NV12              = 0x25,  /*YUV420 planar(2 plane), UV plane in 'U, V, U, V'*/
 151:Lib/lvgl/src/core/../misc/../font/../draw/../misc/lv_color.h **** 
 152:Lib/lvgl/src/core/../misc/../font/../draw/../misc/lv_color.h ****     /*YUV packed formats*/
 153:Lib/lvgl/src/core/../misc/../font/../draw/../misc/lv_color.h ****     LV_COLOR_FORMAT_YUY2              = 0x26,  /*YUV422 packed like 'Y U Y V'*/
 154:Lib/lvgl/src/core/../misc/../font/../draw/../misc/lv_color.h ****     LV_COLOR_FORMAT_UYVY              = 0x27,  /*YUV422 packed like 'U Y V Y'*/
 155:Lib/lvgl/src/core/../misc/../font/../draw/../misc/lv_color.h **** 
 156:Lib/lvgl/src/core/../misc/../font/../draw/../misc/lv_color.h ****     LV_COLOR_FORMAT_YUV_END           = LV_COLOR_FORMAT_UYVY,
 157:Lib/lvgl/src/core/../misc/../font/../draw/../misc/lv_color.h **** 
 158:Lib/lvgl/src/core/../misc/../font/../draw/../misc/lv_color.h ****     /*Color formats in which LVGL can render*/
 159:Lib/lvgl/src/core/../misc/../font/../draw/../misc/lv_color.h **** #if LV_COLOR_DEPTH == 8
 160:Lib/lvgl/src/core/../misc/../font/../draw/../misc/lv_color.h ****     LV_COLOR_FORMAT_NATIVE            = LV_COLOR_FORMAT_L8,
 161:Lib/lvgl/src/core/../misc/../font/../draw/../misc/lv_color.h **** #elif LV_COLOR_DEPTH == 16
 162:Lib/lvgl/src/core/../misc/../font/../draw/../misc/lv_color.h ****     LV_COLOR_FORMAT_NATIVE            = LV_COLOR_FORMAT_RGB565,
 163:Lib/lvgl/src/core/../misc/../font/../draw/../misc/lv_color.h ****     LV_COLOR_FORMAT_NATIVE_WITH_ALPHA = LV_COLOR_FORMAT_RGB565A8,
 164:Lib/lvgl/src/core/../misc/../font/../draw/../misc/lv_color.h **** #elif LV_COLOR_DEPTH == 24
 165:Lib/lvgl/src/core/../misc/../font/../draw/../misc/lv_color.h ****     LV_COLOR_FORMAT_NATIVE            = LV_COLOR_FORMAT_RGB888,
 166:Lib/lvgl/src/core/../misc/../font/../draw/../misc/lv_color.h ****     LV_COLOR_FORMAT_NATIVE_WITH_ALPHA = LV_COLOR_FORMAT_ARGB8888,
 167:Lib/lvgl/src/core/../misc/../font/../draw/../misc/lv_color.h **** #elif LV_COLOR_DEPTH == 32
 168:Lib/lvgl/src/core/../misc/../font/../draw/../misc/lv_color.h ****     LV_COLOR_FORMAT_NATIVE            = LV_COLOR_FORMAT_XRGB8888,
 169:Lib/lvgl/src/core/../misc/../font/../draw/../misc/lv_color.h ****     LV_COLOR_FORMAT_NATIVE_WITH_ALPHA = LV_COLOR_FORMAT_ARGB8888,
 170:Lib/lvgl/src/core/../misc/../font/../draw/../misc/lv_color.h **** #endif
 171:Lib/lvgl/src/core/../misc/../font/../draw/../misc/lv_color.h **** };
 172:Lib/lvgl/src/core/../misc/../font/../draw/../misc/lv_color.h **** 
 173:Lib/lvgl/src/core/../misc/../font/../draw/../misc/lv_color.h **** #ifdef DOXYGEN
 174:Lib/lvgl/src/core/../misc/../font/../draw/../misc/lv_color.h **** typedef _lv_color_format_t lv_color_format_t;
 175:Lib/lvgl/src/core/../misc/../font/../draw/../misc/lv_color.h **** #else
 176:Lib/lvgl/src/core/../misc/../font/../draw/../misc/lv_color.h **** typedef uint8_t lv_color_format_t;
 177:Lib/lvgl/src/core/../misc/../font/../draw/../misc/lv_color.h **** #endif /*DOXYGEN*/
 178:Lib/lvgl/src/core/../misc/../font/../draw/../misc/lv_color.h **** 
 179:Lib/lvgl/src/core/../misc/../font/../draw/../misc/lv_color.h **** #define LV_COLOR_FORMAT_IS_ALPHA_ONLY(cf) ((cf) >= LV_COLOR_FORMAT_A1 && (cf) <= LV_COLOR_FORMAT_A8
 180:Lib/lvgl/src/core/../misc/../font/../draw/../misc/lv_color.h **** #define LV_COLOR_FORMAT_IS_INDEXED(cf) ((cf) >= LV_COLOR_FORMAT_I1 && (cf) <= LV_COLOR_FORMAT_I8)
 181:Lib/lvgl/src/core/../misc/../font/../draw/../misc/lv_color.h **** #define LV_COLOR_FORMAT_IS_YUV(cf)  ((cf) >= LV_COLOR_FORMAT_YUV_START && (cf) <= LV_COLOR_FORMAT_Y
 182:Lib/lvgl/src/core/../misc/../font/../draw/../misc/lv_color.h **** #define LV_COLOR_INDEXED_PALETTE_SIZE(cf) ((cf) == LV_COLOR_FORMAT_I1 ? 2 :\
 183:Lib/lvgl/src/core/../misc/../font/../draw/../misc/lv_color.h ****                                            (cf) == LV_COLOR_FORMAT_I2 ? 4 :\
 184:Lib/lvgl/src/core/../misc/../font/../draw/../misc/lv_color.h ****                                            (cf) == LV_COLOR_FORMAT_I4 ? 16 :\
 185:Lib/lvgl/src/core/../misc/../font/../draw/../misc/lv_color.h ****                                            (cf) == LV_COLOR_FORMAT_I8 ? 256 : 0)
 186:Lib/lvgl/src/core/../misc/../font/../draw/../misc/lv_color.h **** 
 187:Lib/lvgl/src/core/../misc/../font/../draw/../misc/lv_color.h **** /**********************
 188:Lib/lvgl/src/core/../misc/../font/../draw/../misc/lv_color.h ****  * MACROS
 189:Lib/lvgl/src/core/../misc/../font/../draw/../misc/lv_color.h ****  **********************/
 190:Lib/lvgl/src/core/../misc/../font/../draw/../misc/lv_color.h **** 
 191:Lib/lvgl/src/core/../misc/../font/../draw/../misc/lv_color.h **** #define LV_COLOR_MAKE(r8, g8, b8) {b8, g8, r8}
 192:Lib/lvgl/src/core/../misc/../font/../draw/../misc/lv_color.h **** 
 193:Lib/lvgl/src/core/../misc/../font/../draw/../misc/lv_color.h **** #define LV_OPA_MIX2(a1, a2) (((int32_t)(a1) * (a2)) >> 8)
 194:Lib/lvgl/src/core/../misc/../font/../draw/../misc/lv_color.h **** #define LV_OPA_MIX3(a1, a2, a3) (((int32_t)(a1) * (a2) * (a3)) >> 16)
 195:Lib/lvgl/src/core/../misc/../font/../draw/../misc/lv_color.h **** 
 196:Lib/lvgl/src/core/../misc/../font/../draw/../misc/lv_color.h **** /**********************
 197:Lib/lvgl/src/core/../misc/../font/../draw/../misc/lv_color.h ****  * GLOBAL PROTOTYPES
 198:Lib/lvgl/src/core/../misc/../font/../draw/../misc/lv_color.h ****  **********************/
 199:Lib/lvgl/src/core/../misc/../font/../draw/../misc/lv_color.h **** 
 200:Lib/lvgl/src/core/../misc/../font/../draw/../misc/lv_color.h **** /**
 201:Lib/lvgl/src/core/../misc/../font/../draw/../misc/lv_color.h ****  * Get the pixel size of a color format in bits, bpp
ARM GAS  C:\Users\Alex\AppData\Local\Temp\ccdKwz1H.s 			page 5


 202:Lib/lvgl/src/core/../misc/../font/../draw/../misc/lv_color.h ****  * @param src_cf    a color format (`LV_COLOR_FORMAT_...`)
 203:Lib/lvgl/src/core/../misc/../font/../draw/../misc/lv_color.h ****  * @return          the pixel size in bits
 204:Lib/lvgl/src/core/../misc/../font/../draw/../misc/lv_color.h ****  */
 205:Lib/lvgl/src/core/../misc/../font/../draw/../misc/lv_color.h **** uint8_t lv_color_format_get_bpp(lv_color_format_t cf);
 206:Lib/lvgl/src/core/../misc/../font/../draw/../misc/lv_color.h **** 
 207:Lib/lvgl/src/core/../misc/../font/../draw/../misc/lv_color.h **** /**
 208:Lib/lvgl/src/core/../misc/../font/../draw/../misc/lv_color.h ****  * Get the pixel size of a color format in bytes
 209:Lib/lvgl/src/core/../misc/../font/../draw/../misc/lv_color.h ****  * @param src_cf    a color format (`LV_COLOR_FORMAT_...`)
 210:Lib/lvgl/src/core/../misc/../font/../draw/../misc/lv_color.h ****  * @return          the pixel size in bytes
 211:Lib/lvgl/src/core/../misc/../font/../draw/../misc/lv_color.h ****  */
 212:Lib/lvgl/src/core/../misc/../font/../draw/../misc/lv_color.h **** static inline uint8_t lv_color_format_get_size(lv_color_format_t cf)
 213:Lib/lvgl/src/core/../misc/../font/../draw/../misc/lv_color.h **** {
 214:Lib/lvgl/src/core/../misc/../font/../draw/../misc/lv_color.h ****     return (lv_color_format_get_bpp(cf) + 7) >> 3;
 215:Lib/lvgl/src/core/../misc/../font/../draw/../misc/lv_color.h **** }
 216:Lib/lvgl/src/core/../misc/../font/../draw/../misc/lv_color.h **** 
 217:Lib/lvgl/src/core/../misc/../font/../draw/../misc/lv_color.h **** /**
 218:Lib/lvgl/src/core/../misc/../font/../draw/../misc/lv_color.h ****  * Check if a color format has alpha channel or not
 219:Lib/lvgl/src/core/../misc/../font/../draw/../misc/lv_color.h ****  * @param src_cf    a color format (`LV_COLOR_FORMAT_...`)
 220:Lib/lvgl/src/core/../misc/../font/../draw/../misc/lv_color.h ****  * @return          true: has alpha channel; false: doesn't have alpha channel
 221:Lib/lvgl/src/core/../misc/../font/../draw/../misc/lv_color.h ****  */
 222:Lib/lvgl/src/core/../misc/../font/../draw/../misc/lv_color.h **** bool lv_color_format_has_alpha(lv_color_format_t src_cf);
 223:Lib/lvgl/src/core/../misc/../font/../draw/../misc/lv_color.h **** 
 224:Lib/lvgl/src/core/../misc/../font/../draw/../misc/lv_color.h **** /**
 225:Lib/lvgl/src/core/../misc/../font/../draw/../misc/lv_color.h ****  * Create an ARGB8888 color from RGB888 + alpha
 226:Lib/lvgl/src/core/../misc/../font/../draw/../misc/lv_color.h ****  * @param color     an RGB888 color
 227:Lib/lvgl/src/core/../misc/../font/../draw/../misc/lv_color.h ****  * @param opa       the alpha value
 228:Lib/lvgl/src/core/../misc/../font/../draw/../misc/lv_color.h ****  * @return          the ARGB8888 color
 229:Lib/lvgl/src/core/../misc/../font/../draw/../misc/lv_color.h ****  */
 230:Lib/lvgl/src/core/../misc/../font/../draw/../misc/lv_color.h **** lv_color32_t lv_color_to_32(lv_color_t color, lv_opa_t opa);
 231:Lib/lvgl/src/core/../misc/../font/../draw/../misc/lv_color.h **** 
 232:Lib/lvgl/src/core/../misc/../font/../draw/../misc/lv_color.h **** /**
 233:Lib/lvgl/src/core/../misc/../font/../draw/../misc/lv_color.h ****  * Convert an RGB888 color to an integer
 234:Lib/lvgl/src/core/../misc/../font/../draw/../misc/lv_color.h ****  * @param c     an RGB888 color
 235:Lib/lvgl/src/core/../misc/../font/../draw/../misc/lv_color.h ****  * @return      `c` as an integer
 236:Lib/lvgl/src/core/../misc/../font/../draw/../misc/lv_color.h ****  */
 237:Lib/lvgl/src/core/../misc/../font/../draw/../misc/lv_color.h **** static inline uint32_t lv_color_to_int(lv_color_t c)
 238:Lib/lvgl/src/core/../misc/../font/../draw/../misc/lv_color.h **** {
 239:Lib/lvgl/src/core/../misc/../font/../draw/../misc/lv_color.h ****     uint8_t * tmp = (uint8_t *) &c;
 240:Lib/lvgl/src/core/../misc/../font/../draw/../misc/lv_color.h ****     return tmp[0] + (tmp[1] << 8) + (tmp[2] << 16);
 241:Lib/lvgl/src/core/../misc/../font/../draw/../misc/lv_color.h **** }
 242:Lib/lvgl/src/core/../misc/../font/../draw/../misc/lv_color.h **** 
 243:Lib/lvgl/src/core/../misc/../font/../draw/../misc/lv_color.h **** /**
 244:Lib/lvgl/src/core/../misc/../font/../draw/../misc/lv_color.h ****  * Check if two RGB888 color are equal
 245:Lib/lvgl/src/core/../misc/../font/../draw/../misc/lv_color.h ****  * @param c1    the first color
 246:Lib/lvgl/src/core/../misc/../font/../draw/../misc/lv_color.h ****  * @param c2    the second color
 247:Lib/lvgl/src/core/../misc/../font/../draw/../misc/lv_color.h ****  * @return      true: equal
 248:Lib/lvgl/src/core/../misc/../font/../draw/../misc/lv_color.h ****  */
 249:Lib/lvgl/src/core/../misc/../font/../draw/../misc/lv_color.h **** static inline bool lv_color_eq(lv_color_t c1, lv_color_t c2)
 250:Lib/lvgl/src/core/../misc/../font/../draw/../misc/lv_color.h **** {
  29              		.loc 2 250 1 view -0
  30              		.cfi_startproc
  31              		@ args = 0, pretend = 0, frame = 16
  32              		@ frame_needed = 0, uses_anonymous_args = 0
  33              		@ link register save eliminated.
  34 0000 84B0     		sub	sp, sp, #16
  35              	.LCFI0:
  36              		.cfi_def_cfa_offset 16
ARM GAS  C:\Users\Alex\AppData\Local\Temp\ccdKwz1H.s 			page 6


  37 0002 0190     		str	r0, [sp, #4]
  38 0004 0091     		str	r1, [sp]
 251:Lib/lvgl/src/core/../misc/../font/../draw/../misc/lv_color.h ****     return lv_color_to_int(c1) == lv_color_to_int(c2);
  39              		.loc 2 251 5 view .LVU1
  40 0006 ADF80C00 		strh	r0, [sp, #12]	@ movhi
  41 000a 030C     		lsrs	r3, r0, #16
  42 000c 8DF80E30 		strb	r3, [sp, #14]
  43              	.LBB168:
  44              	.LBI168:
 237:Lib/lvgl/src/core/../misc/../font/../draw/../misc/lv_color.h **** {
  45              		.loc 2 237 24 view .LVU2
  46              	.LBB169:
 239:Lib/lvgl/src/core/../misc/../font/../draw/../misc/lv_color.h ****     return tmp[0] + (tmp[1] << 8) + (tmp[2] << 16);
  47              		.loc 2 239 5 view .LVU3
  48              	.LVL0:
 240:Lib/lvgl/src/core/../misc/../font/../draw/../misc/lv_color.h **** }
  49              		.loc 2 240 5 view .LVU4
 240:Lib/lvgl/src/core/../misc/../font/../draw/../misc/lv_color.h **** }
  50              		.loc 2 240 15 is_stmt 0 view .LVU5
  51 0010 9DF80C30 		ldrb	r3, [sp, #12]	@ zero_extendqisi2
 240:Lib/lvgl/src/core/../misc/../font/../draw/../misc/lv_color.h **** }
  52              		.loc 2 240 25 view .LVU6
  53 0014 9DF80D20 		ldrb	r2, [sp, #13]	@ zero_extendqisi2
 240:Lib/lvgl/src/core/../misc/../font/../draw/../misc/lv_color.h **** }
  54              		.loc 2 240 19 view .LVU7
  55 0018 03EB0223 		add	r3, r3, r2, lsl #8
 240:Lib/lvgl/src/core/../misc/../font/../draw/../misc/lv_color.h **** }
  56              		.loc 2 240 41 view .LVU8
  57 001c 9DF80E20 		ldrb	r2, [sp, #14]	@ zero_extendqisi2
 240:Lib/lvgl/src/core/../misc/../font/../draw/../misc/lv_color.h **** }
  58              		.loc 2 240 35 view .LVU9
  59 0020 03EB0243 		add	r3, r3, r2, lsl #16
  60 0024 ADF80C10 		strh	r1, [sp, #12]	@ movhi
  61 0028 0A0C     		lsrs	r2, r1, #16
  62 002a 8DF80E20 		strb	r2, [sp, #14]
  63              	.LBE169:
  64              	.LBE168:
  65              	.LBB170:
  66              	.LBI170:
 237:Lib/lvgl/src/core/../misc/../font/../draw/../misc/lv_color.h **** {
  67              		.loc 2 237 24 is_stmt 1 view .LVU10
  68              	.LBB171:
 239:Lib/lvgl/src/core/../misc/../font/../draw/../misc/lv_color.h ****     return tmp[0] + (tmp[1] << 8) + (tmp[2] << 16);
  69              		.loc 2 239 5 view .LVU11
  70              	.LVL1:
 240:Lib/lvgl/src/core/../misc/../font/../draw/../misc/lv_color.h **** }
  71              		.loc 2 240 5 view .LVU12
 240:Lib/lvgl/src/core/../misc/../font/../draw/../misc/lv_color.h **** }
  72              		.loc 2 240 15 is_stmt 0 view .LVU13
  73 002e 9DF80C00 		ldrb	r0, [sp, #12]	@ zero_extendqisi2
 240:Lib/lvgl/src/core/../misc/../font/../draw/../misc/lv_color.h **** }
  74              		.loc 2 240 25 view .LVU14
  75 0032 9DF80D20 		ldrb	r2, [sp, #13]	@ zero_extendqisi2
 240:Lib/lvgl/src/core/../misc/../font/../draw/../misc/lv_color.h **** }
  76              		.loc 2 240 19 view .LVU15
  77 0036 00EB0220 		add	r0, r0, r2, lsl #8
 240:Lib/lvgl/src/core/../misc/../font/../draw/../misc/lv_color.h **** }
ARM GAS  C:\Users\Alex\AppData\Local\Temp\ccdKwz1H.s 			page 7


  78              		.loc 2 240 41 view .LVU16
  79 003a 9DF80E20 		ldrb	r2, [sp, #14]	@ zero_extendqisi2
 240:Lib/lvgl/src/core/../misc/../font/../draw/../misc/lv_color.h **** }
  80              		.loc 2 240 35 view .LVU17
  81 003e 00EB0240 		add	r0, r0, r2, lsl #16
  82              	.LBE171:
  83              	.LBE170:
 252:Lib/lvgl/src/core/../misc/../font/../draw/../misc/lv_color.h **** }
  84              		.loc 2 252 1 view .LVU18
  85 0042 9842     		cmp	r0, r3
  86 0044 14BF     		ite	ne
  87 0046 0020     		movne	r0, #0
  88 0048 0120     		moveq	r0, #1
  89 004a 04B0     		add	sp, sp, #16
  90              	.LCFI1:
  91              		.cfi_def_cfa_offset 0
  92              	.LVL2:
  93              		.loc 2 252 1 view .LVU19
  94              		@ sp needed
  95 004c 7047     		bx	lr
  96              		.cfi_endproc
  97              	.LFE15:
  99              		.section	.text.lv_color_mix,"ax",%progbits
 100              		.align	1
 101              		.syntax unified
 102              		.thumb
 103              		.thumb_func
 105              	lv_color_mix:
 106              	.LVL3:
 107              	.LFB26:
 108              		.file 3 "Lib/lvgl/src/core/../misc/../font/../draw/../misc/lv_color_op.h"
   1:Lib/lvgl/src/core/../misc/../font/../draw/../misc/lv_color_op.h **** /**
   2:Lib/lvgl/src/core/../misc/../font/../draw/../misc/lv_color_op.h ****  * @file lv_color_op.h
   3:Lib/lvgl/src/core/../misc/../font/../draw/../misc/lv_color_op.h ****  *
   4:Lib/lvgl/src/core/../misc/../font/../draw/../misc/lv_color_op.h ****  */
   5:Lib/lvgl/src/core/../misc/../font/../draw/../misc/lv_color_op.h **** 
   6:Lib/lvgl/src/core/../misc/../font/../draw/../misc/lv_color_op.h **** #ifndef LV_COLOR_OP_H
   7:Lib/lvgl/src/core/../misc/../font/../draw/../misc/lv_color_op.h **** #define LV_COLOR_OP_H
   8:Lib/lvgl/src/core/../misc/../font/../draw/../misc/lv_color_op.h **** 
   9:Lib/lvgl/src/core/../misc/../font/../draw/../misc/lv_color_op.h **** #ifdef __cplusplus
  10:Lib/lvgl/src/core/../misc/../font/../draw/../misc/lv_color_op.h **** extern "C" {
  11:Lib/lvgl/src/core/../misc/../font/../draw/../misc/lv_color_op.h **** #endif
  12:Lib/lvgl/src/core/../misc/../font/../draw/../misc/lv_color_op.h **** 
  13:Lib/lvgl/src/core/../misc/../font/../draw/../misc/lv_color_op.h **** /*********************
  14:Lib/lvgl/src/core/../misc/../font/../draw/../misc/lv_color_op.h ****  *      INCLUDES
  15:Lib/lvgl/src/core/../misc/../font/../draw/../misc/lv_color_op.h ****  *********************/
  16:Lib/lvgl/src/core/../misc/../font/../draw/../misc/lv_color_op.h **** #include "lv_assert.h"
  17:Lib/lvgl/src/core/../misc/../font/../draw/../misc/lv_color_op.h **** #include "lv_math.h"
  18:Lib/lvgl/src/core/../misc/../font/../draw/../misc/lv_color_op.h **** #include "lv_color.h"
  19:Lib/lvgl/src/core/../misc/../font/../draw/../misc/lv_color_op.h **** #include <stdint.h>
  20:Lib/lvgl/src/core/../misc/../font/../draw/../misc/lv_color_op.h **** 
  21:Lib/lvgl/src/core/../misc/../font/../draw/../misc/lv_color_op.h **** /*********************
  22:Lib/lvgl/src/core/../misc/../font/../draw/../misc/lv_color_op.h ****  *      DEFINES
  23:Lib/lvgl/src/core/../misc/../font/../draw/../misc/lv_color_op.h ****  *********************/
  24:Lib/lvgl/src/core/../misc/../font/../draw/../misc/lv_color_op.h **** 
  25:Lib/lvgl/src/core/../misc/../font/../draw/../misc/lv_color_op.h **** /**********************
  26:Lib/lvgl/src/core/../misc/../font/../draw/../misc/lv_color_op.h ****  *      TYPEDEFS
ARM GAS  C:\Users\Alex\AppData\Local\Temp\ccdKwz1H.s 			page 8


  27:Lib/lvgl/src/core/../misc/../font/../draw/../misc/lv_color_op.h ****  **********************/
  28:Lib/lvgl/src/core/../misc/../font/../draw/../misc/lv_color_op.h **** 
  29:Lib/lvgl/src/core/../misc/../font/../draw/../misc/lv_color_op.h **** struct _lv_color_filter_dsc_t;
  30:Lib/lvgl/src/core/../misc/../font/../draw/../misc/lv_color_op.h **** 
  31:Lib/lvgl/src/core/../misc/../font/../draw/../misc/lv_color_op.h **** typedef lv_color_t (*lv_color_filter_cb_t)(const struct _lv_color_filter_dsc_t *, lv_color_t, lv_op
  32:Lib/lvgl/src/core/../misc/../font/../draw/../misc/lv_color_op.h **** 
  33:Lib/lvgl/src/core/../misc/../font/../draw/../misc/lv_color_op.h **** typedef struct _lv_color_filter_dsc_t {
  34:Lib/lvgl/src/core/../misc/../font/../draw/../misc/lv_color_op.h ****     lv_color_filter_cb_t filter_cb;
  35:Lib/lvgl/src/core/../misc/../font/../draw/../misc/lv_color_op.h ****     void * user_data;
  36:Lib/lvgl/src/core/../misc/../font/../draw/../misc/lv_color_op.h **** } lv_color_filter_dsc_t;
  37:Lib/lvgl/src/core/../misc/../font/../draw/../misc/lv_color_op.h **** 
  38:Lib/lvgl/src/core/../misc/../font/../draw/../misc/lv_color_op.h **** /**********************
  39:Lib/lvgl/src/core/../misc/../font/../draw/../misc/lv_color_op.h ****  * GLOBAL PROTOTYPES
  40:Lib/lvgl/src/core/../misc/../font/../draw/../misc/lv_color_op.h ****  **********************/
  41:Lib/lvgl/src/core/../misc/../font/../draw/../misc/lv_color_op.h **** 
  42:Lib/lvgl/src/core/../misc/../font/../draw/../misc/lv_color_op.h **** /**
  43:Lib/lvgl/src/core/../misc/../font/../draw/../misc/lv_color_op.h ****  * Mix two colors with a given ratio.
  44:Lib/lvgl/src/core/../misc/../font/../draw/../misc/lv_color_op.h ****  * @param c1 the first color to mix (usually the foreground)
  45:Lib/lvgl/src/core/../misc/../font/../draw/../misc/lv_color_op.h ****  * @param c2 the second color to mix (usually the background)
  46:Lib/lvgl/src/core/../misc/../font/../draw/../misc/lv_color_op.h ****  * @param mix The ratio of the colors. 0: full `c2`, 255: full `c1`, 127: half `c1` and half`c2`
  47:Lib/lvgl/src/core/../misc/../font/../draw/../misc/lv_color_op.h ****  * @return the mixed color
  48:Lib/lvgl/src/core/../misc/../font/../draw/../misc/lv_color_op.h ****  */
  49:Lib/lvgl/src/core/../misc/../font/../draw/../misc/lv_color_op.h **** LV_ATTRIBUTE_FAST_MEM static inline lv_color_t lv_color_mix(lv_color_t c1, lv_color_t c2, uint8_t m
  50:Lib/lvgl/src/core/../misc/../font/../draw/../misc/lv_color_op.h **** {
 109              		.loc 3 50 1 is_stmt 1 view -0
 110              		.cfi_startproc
 111              		@ args = 0, pretend = 0, frame = 16
 112              		@ frame_needed = 0, uses_anonymous_args = 0
 113              		@ link register save eliminated.
 114              		.loc 3 50 1 is_stmt 0 view .LVU21
 115 0000 84B0     		sub	sp, sp, #16
 116              	.LCFI2:
 117              		.cfi_def_cfa_offset 16
 118 0002 0190     		str	r0, [sp, #4]
 119 0004 0091     		str	r1, [sp]
  51:Lib/lvgl/src/core/../misc/../font/../draw/../misc/lv_color_op.h ****     lv_color_t ret;
 120              		.loc 3 51 5 is_stmt 1 view .LVU22
  52:Lib/lvgl/src/core/../misc/../font/../draw/../misc/lv_color_op.h **** 
  53:Lib/lvgl/src/core/../misc/../font/../draw/../misc/lv_color_op.h ****     ret.red = LV_UDIV255((uint16_t)c1.red * mix + c2.red * (255 - mix) + LV_COLOR_MIX_ROUND_OFS);
 121              		.loc 3 53 5 view .LVU23
 122              		.loc 3 53 15 is_stmt 0 view .LVU24
 123 0006 9DF80400 		ldrb	r0, [sp, #4]	@ zero_extendqisi2
 124 000a 9DF80010 		ldrb	r1, [sp]	@ zero_extendqisi2
 125 000e C2F1FF03 		rsb	r3, r2, #255
 126 0012 03FB01F1 		mul	r1, r3, r1
 127 0016 02FB0011 		mla	r1, r2, r0, r1
 128 001a 01EB0120 		add	r0, r1, r1, lsl #8
 129 001e 01EBC011 		add	r1, r1, r0, lsl #7
 130 0022 C90D     		lsrs	r1, r1, #23
 131              		.loc 3 53 13 view .LVU25
 132 0024 8DF80810 		strb	r1, [sp, #8]
  54:Lib/lvgl/src/core/../misc/../font/../draw/../misc/lv_color_op.h ****     ret.green = LV_UDIV255((uint16_t)c1.green * mix + c2.green * (255 - mix) + LV_COLOR_MIX_ROUND_O
 133              		.loc 3 54 5 is_stmt 1 view .LVU26
 134              		.loc 3 54 17 is_stmt 0 view .LVU27
 135 0028 9DF80500 		ldrb	r0, [sp, #5]	@ zero_extendqisi2
 136 002c 9DF80110 		ldrb	r1, [sp, #1]	@ zero_extendqisi2
 137 0030 03FB01F1 		mul	r1, r3, r1
ARM GAS  C:\Users\Alex\AppData\Local\Temp\ccdKwz1H.s 			page 9


 138 0034 00FB0211 		mla	r1, r0, r2, r1
 139 0038 01EB0120 		add	r0, r1, r1, lsl #8
 140 003c 01EBC011 		add	r1, r1, r0, lsl #7
 141 0040 C90D     		lsrs	r1, r1, #23
 142              		.loc 3 54 15 view .LVU28
 143 0042 8DF80910 		strb	r1, [sp, #9]
  55:Lib/lvgl/src/core/../misc/../font/../draw/../misc/lv_color_op.h ****     ret.blue = LV_UDIV255((uint16_t)c1.blue * mix + c2.blue * (255 - mix) + LV_COLOR_MIX_ROUND_OFS)
 144              		.loc 3 55 5 is_stmt 1 view .LVU29
 145              		.loc 3 55 16 is_stmt 0 view .LVU30
 146 0046 9DF80610 		ldrb	r1, [sp, #6]	@ zero_extendqisi2
 147 004a 9DF80200 		ldrb	r0, [sp, #2]	@ zero_extendqisi2
 148 004e 00FB03F3 		mul	r3, r0, r3
 149 0052 01FB0232 		mla	r2, r1, r2, r3
 150              	.LVL4:
 151              		.loc 3 55 16 view .LVU31
 152 0056 02EB0223 		add	r3, r2, r2, lsl #8
 153 005a 02EBC312 		add	r2, r2, r3, lsl #7
 154 005e D20D     		lsrs	r2, r2, #23
 155              		.loc 3 55 14 view .LVU32
 156 0060 8DF80A20 		strb	r2, [sp, #10]
  56:Lib/lvgl/src/core/../misc/../font/../draw/../misc/lv_color_op.h ****     return ret;
 157              		.loc 3 56 5 is_stmt 1 view .LVU33
 158              		.loc 3 56 12 is_stmt 0 view .LVU34
 159 0064 029B     		ldr	r3, [sp, #8]
 160 0066 ADF80C30 		strh	r3, [sp, #12]	@ movhi
 161 006a 1B0C     		lsrs	r3, r3, #16
 162 006c 8DF80E30 		strb	r3, [sp, #14]
 163 0070 0020     		movs	r0, #0
 164 0072 9DF80C30 		ldrb	r3, [sp, #12]	@ zero_extendqisi2
 165 0076 63F30700 		bfi	r0, r3, #0, #8
 166 007a 9DF80D30 		ldrb	r3, [sp, #13]	@ zero_extendqisi2
 167 007e 63F30F20 		bfi	r0, r3, #8, #8
 168 0082 9DF80E30 		ldrb	r3, [sp, #14]	@ zero_extendqisi2
 169 0086 63F31740 		bfi	r0, r3, #16, #8
  57:Lib/lvgl/src/core/../misc/../font/../draw/../misc/lv_color_op.h **** }
 170              		.loc 3 57 1 view .LVU35
 171 008a 04B0     		add	sp, sp, #16
 172              	.LCFI3:
 173              		.cfi_def_cfa_offset 0
 174              		@ sp needed
 175 008c 7047     		bx	lr
 176              		.cfi_endproc
 177              	.LFE26:
 179              		.section	.text.lv_style_get_prop_inlined,"ax",%progbits
 180              		.align	1
 181              		.syntax unified
 182              		.thumb
 183              		.thumb_func
 185              	lv_style_get_prop_inlined:
 186              	.LVL5:
 187              	.LFB73:
 188              		.file 4 "Lib/lvgl/src/core/../misc/lv_style.h"
   1:Lib/lvgl/src/core/../misc/lv_style.h **** /**
   2:Lib/lvgl/src/core/../misc/lv_style.h ****  * @file lv_style.h
   3:Lib/lvgl/src/core/../misc/lv_style.h ****  *
   4:Lib/lvgl/src/core/../misc/lv_style.h ****  */
   5:Lib/lvgl/src/core/../misc/lv_style.h **** 
ARM GAS  C:\Users\Alex\AppData\Local\Temp\ccdKwz1H.s 			page 10


   6:Lib/lvgl/src/core/../misc/lv_style.h **** #ifndef LV_STYLE_H
   7:Lib/lvgl/src/core/../misc/lv_style.h **** #define LV_STYLE_H
   8:Lib/lvgl/src/core/../misc/lv_style.h **** 
   9:Lib/lvgl/src/core/../misc/lv_style.h **** #ifdef __cplusplus
  10:Lib/lvgl/src/core/../misc/lv_style.h **** extern "C" {
  11:Lib/lvgl/src/core/../misc/lv_style.h **** #endif
  12:Lib/lvgl/src/core/../misc/lv_style.h **** 
  13:Lib/lvgl/src/core/../misc/lv_style.h **** /*********************
  14:Lib/lvgl/src/core/../misc/lv_style.h ****  *      INCLUDES
  15:Lib/lvgl/src/core/../misc/lv_style.h ****  *********************/
  16:Lib/lvgl/src/core/../misc/lv_style.h **** #include <stdbool.h>
  17:Lib/lvgl/src/core/../misc/lv_style.h **** #include <stdint.h>
  18:Lib/lvgl/src/core/../misc/lv_style.h **** #include "../font/lv_font.h"
  19:Lib/lvgl/src/core/../misc/lv_style.h **** #include "lv_color.h"
  20:Lib/lvgl/src/core/../misc/lv_style.h **** #include "lv_area.h"
  21:Lib/lvgl/src/core/../misc/lv_style.h **** #include "lv_anim.h"
  22:Lib/lvgl/src/core/../misc/lv_style.h **** #include "lv_text.h"
  23:Lib/lvgl/src/core/../misc/lv_style.h **** #include "lv_types.h"
  24:Lib/lvgl/src/core/../misc/lv_style.h **** #include "lv_assert.h"
  25:Lib/lvgl/src/core/../misc/lv_style.h **** #include "lv_bidi.h"
  26:Lib/lvgl/src/core/../misc/lv_style.h **** #include "../layouts/lv_layout.h"
  27:Lib/lvgl/src/core/../misc/lv_style.h **** 
  28:Lib/lvgl/src/core/../misc/lv_style.h **** /*********************
  29:Lib/lvgl/src/core/../misc/lv_style.h ****  *      DEFINES
  30:Lib/lvgl/src/core/../misc/lv_style.h ****  *********************/
  31:Lib/lvgl/src/core/../misc/lv_style.h **** 
  32:Lib/lvgl/src/core/../misc/lv_style.h **** #define LV_STYLE_SENTINEL_VALUE     0xAABBCCDD
  33:Lib/lvgl/src/core/../misc/lv_style.h **** 
  34:Lib/lvgl/src/core/../misc/lv_style.h **** /**
  35:Lib/lvgl/src/core/../misc/lv_style.h ****  * Flags for style behavior
  36:Lib/lvgl/src/core/../misc/lv_style.h ****  *
  37:Lib/lvgl/src/core/../misc/lv_style.h ****  * The rest of the flags will have _FLAG added to their name in v9.
  38:Lib/lvgl/src/core/../misc/lv_style.h ****  */
  39:Lib/lvgl/src/core/../misc/lv_style.h **** #define LV_STYLE_PROP_FLAG_NONE                     (0)
  40:Lib/lvgl/src/core/../misc/lv_style.h **** #define LV_STYLE_PROP_FLAG_INHERITABLE              (1 << 0)  /*Inherited*/
  41:Lib/lvgl/src/core/../misc/lv_style.h **** #define LV_STYLE_PROP_FLAG_EXT_DRAW_UPDATE          (1 << 1)  /*Requires ext. draw size update when
  42:Lib/lvgl/src/core/../misc/lv_style.h **** #define LV_STYLE_PROP_FLAG_LAYOUT_UPDATE            (1 << 2)  /*Requires layout update when changed
  43:Lib/lvgl/src/core/../misc/lv_style.h **** #define LV_STYLE_PROP_FLAG_PARENT_LAYOUT_UPDATE     (1 << 3)  /*Requires layout update on parent wh
  44:Lib/lvgl/src/core/../misc/lv_style.h **** #define LV_STYLE_PROP_FLAG_LAYER_UPDATE             (1 << 4)  /*Affects layer handling*/
  45:Lib/lvgl/src/core/../misc/lv_style.h **** #define LV_STYLE_PROP_FLAG_TRANSFORM                (1 << 5)  /*Affects the object's transformation
  46:Lib/lvgl/src/core/../misc/lv_style.h **** #define LV_STYLE_PROP_FLAG_ALL                      (0x3F)    /*Indicating all flags*/
  47:Lib/lvgl/src/core/../misc/lv_style.h **** 
  48:Lib/lvgl/src/core/../misc/lv_style.h **** /**
  49:Lib/lvgl/src/core/../misc/lv_style.h ****  * Other constants
  50:Lib/lvgl/src/core/../misc/lv_style.h ****  */
  51:Lib/lvgl/src/core/../misc/lv_style.h **** #define LV_SCALE_NONE            256        /*Value for not zooming the image*/
  52:Lib/lvgl/src/core/../misc/lv_style.h **** LV_EXPORT_CONST_INT(LV_SCALE_NONE);
  53:Lib/lvgl/src/core/../misc/lv_style.h **** 
  54:Lib/lvgl/src/core/../misc/lv_style.h **** // *INDENT-OFF*
  55:Lib/lvgl/src/core/../misc/lv_style.h **** #if LV_USE_ASSERT_STYLE
  56:Lib/lvgl/src/core/../misc/lv_style.h **** #define LV_STYLE_CONST_INIT(var_name, prop_array)                       \
  57:Lib/lvgl/src/core/../misc/lv_style.h ****     const lv_style_t var_name = {                                       \
  58:Lib/lvgl/src/core/../misc/lv_style.h ****         .sentinel = LV_STYLE_SENTINEL_VALUE,                            \
  59:Lib/lvgl/src/core/../misc/lv_style.h ****         .values_and_props = (void*)prop_array,                                      \
  60:Lib/lvgl/src/core/../misc/lv_style.h ****         .has_group = 0xFFFFFFFF,                                        \
  61:Lib/lvgl/src/core/../misc/lv_style.h ****         .prop_cnt = 255                                               \
  62:Lib/lvgl/src/core/../misc/lv_style.h ****     }
ARM GAS  C:\Users\Alex\AppData\Local\Temp\ccdKwz1H.s 			page 11


  63:Lib/lvgl/src/core/../misc/lv_style.h **** #else
  64:Lib/lvgl/src/core/../misc/lv_style.h **** #define LV_STYLE_CONST_INIT(var_name, prop_array)                       \
  65:Lib/lvgl/src/core/../misc/lv_style.h ****     const lv_style_t var_name = {                                       \
  66:Lib/lvgl/src/core/../misc/lv_style.h ****         .values_and_props = prop_array,                                      \
  67:Lib/lvgl/src/core/../misc/lv_style.h ****         .has_group = 0xFFFFFFFF,                                        \
  68:Lib/lvgl/src/core/../misc/lv_style.h ****         .prop_cnt = 255,                                               \
  69:Lib/lvgl/src/core/../misc/lv_style.h ****     }
  70:Lib/lvgl/src/core/../misc/lv_style.h **** #endif
  71:Lib/lvgl/src/core/../misc/lv_style.h **** // *INDENT-ON*
  72:Lib/lvgl/src/core/../misc/lv_style.h **** 
  73:Lib/lvgl/src/core/../misc/lv_style.h **** #define LV_STYLE_CONST_PROPS_END { .prop_ptr = NULL, .value = { .num = 0 } }
  74:Lib/lvgl/src/core/../misc/lv_style.h **** 
  75:Lib/lvgl/src/core/../misc/lv_style.h **** /**********************
  76:Lib/lvgl/src/core/../misc/lv_style.h ****  *      TYPEDEFS
  77:Lib/lvgl/src/core/../misc/lv_style.h ****  **********************/
  78:Lib/lvgl/src/core/../misc/lv_style.h **** 
  79:Lib/lvgl/src/core/../misc/lv_style.h **** /**
  80:Lib/lvgl/src/core/../misc/lv_style.h ****  * Possible options how to blend opaque drawings
  81:Lib/lvgl/src/core/../misc/lv_style.h ****  */
  82:Lib/lvgl/src/core/../misc/lv_style.h **** enum _lv_blend_mode_t {
  83:Lib/lvgl/src/core/../misc/lv_style.h ****     LV_BLEND_MODE_NORMAL,     /**< Simply mix according to the opacity value*/
  84:Lib/lvgl/src/core/../misc/lv_style.h ****     LV_BLEND_MODE_ADDITIVE,   /**< Add the respective color channels*/
  85:Lib/lvgl/src/core/../misc/lv_style.h ****     LV_BLEND_MODE_SUBTRACTIVE,/**< Subtract the foreground from the background*/
  86:Lib/lvgl/src/core/../misc/lv_style.h ****     LV_BLEND_MODE_MULTIPLY,   /**< Multiply the foreground and background*/
  87:Lib/lvgl/src/core/../misc/lv_style.h **** };
  88:Lib/lvgl/src/core/../misc/lv_style.h **** 
  89:Lib/lvgl/src/core/../misc/lv_style.h **** #ifdef DOXYGEN
  90:Lib/lvgl/src/core/../misc/lv_style.h **** typedef _lv_blend_mode_t lv_blend_mode_t;
  91:Lib/lvgl/src/core/../misc/lv_style.h **** #else
  92:Lib/lvgl/src/core/../misc/lv_style.h **** typedef uint8_t lv_blend_mode_t;
  93:Lib/lvgl/src/core/../misc/lv_style.h **** #endif /*DOXYGEN*/
  94:Lib/lvgl/src/core/../misc/lv_style.h **** 
  95:Lib/lvgl/src/core/../misc/lv_style.h **** /**
  96:Lib/lvgl/src/core/../misc/lv_style.h ****  * Some options to apply decorations on texts.
  97:Lib/lvgl/src/core/../misc/lv_style.h ****  * 'OR'ed values can be used.
  98:Lib/lvgl/src/core/../misc/lv_style.h ****  */
  99:Lib/lvgl/src/core/../misc/lv_style.h **** enum _lv_text_decor_t {
 100:Lib/lvgl/src/core/../misc/lv_style.h ****     LV_TEXT_DECOR_NONE          = 0x00,
 101:Lib/lvgl/src/core/../misc/lv_style.h ****     LV_TEXT_DECOR_UNDERLINE     = 0x01,
 102:Lib/lvgl/src/core/../misc/lv_style.h ****     LV_TEXT_DECOR_STRIKETHROUGH = 0x02,
 103:Lib/lvgl/src/core/../misc/lv_style.h **** };
 104:Lib/lvgl/src/core/../misc/lv_style.h **** 
 105:Lib/lvgl/src/core/../misc/lv_style.h **** #ifdef DOXYGEN
 106:Lib/lvgl/src/core/../misc/lv_style.h **** typedef _lv_text_decor_t lv_text_decor_t;
 107:Lib/lvgl/src/core/../misc/lv_style.h **** #else
 108:Lib/lvgl/src/core/../misc/lv_style.h **** typedef uint8_t lv_text_decor_t;
 109:Lib/lvgl/src/core/../misc/lv_style.h **** #endif /*DOXYGEN*/
 110:Lib/lvgl/src/core/../misc/lv_style.h **** 
 111:Lib/lvgl/src/core/../misc/lv_style.h **** /**
 112:Lib/lvgl/src/core/../misc/lv_style.h ****  * Selects on which sides border should be drawn
 113:Lib/lvgl/src/core/../misc/lv_style.h ****  * 'OR'ed values can be used.
 114:Lib/lvgl/src/core/../misc/lv_style.h ****  */
 115:Lib/lvgl/src/core/../misc/lv_style.h **** enum _lv_border_side_t {
 116:Lib/lvgl/src/core/../misc/lv_style.h ****     LV_BORDER_SIDE_NONE     = 0x00,
 117:Lib/lvgl/src/core/../misc/lv_style.h ****     LV_BORDER_SIDE_BOTTOM   = 0x01,
 118:Lib/lvgl/src/core/../misc/lv_style.h ****     LV_BORDER_SIDE_TOP      = 0x02,
 119:Lib/lvgl/src/core/../misc/lv_style.h ****     LV_BORDER_SIDE_LEFT     = 0x04,
ARM GAS  C:\Users\Alex\AppData\Local\Temp\ccdKwz1H.s 			page 12


 120:Lib/lvgl/src/core/../misc/lv_style.h ****     LV_BORDER_SIDE_RIGHT    = 0x08,
 121:Lib/lvgl/src/core/../misc/lv_style.h ****     LV_BORDER_SIDE_FULL     = 0x0F,
 122:Lib/lvgl/src/core/../misc/lv_style.h ****     LV_BORDER_SIDE_INTERNAL = 0x10, /**< FOR matrix-like objects (e.g. Button matrix)*/
 123:Lib/lvgl/src/core/../misc/lv_style.h **** };
 124:Lib/lvgl/src/core/../misc/lv_style.h **** 
 125:Lib/lvgl/src/core/../misc/lv_style.h **** #ifdef DOXYGEN
 126:Lib/lvgl/src/core/../misc/lv_style.h **** typedef _lv_border_side_t lv_border_side_t;
 127:Lib/lvgl/src/core/../misc/lv_style.h **** #else
 128:Lib/lvgl/src/core/../misc/lv_style.h **** typedef uint8_t lv_border_side_t;
 129:Lib/lvgl/src/core/../misc/lv_style.h **** #endif /*DOXYGEN*/
 130:Lib/lvgl/src/core/../misc/lv_style.h **** 
 131:Lib/lvgl/src/core/../misc/lv_style.h **** /**
 132:Lib/lvgl/src/core/../misc/lv_style.h ****  * The direction of the gradient.
 133:Lib/lvgl/src/core/../misc/lv_style.h ****  */
 134:Lib/lvgl/src/core/../misc/lv_style.h **** enum _lv_grad_dir_t {
 135:Lib/lvgl/src/core/../misc/lv_style.h ****     LV_GRAD_DIR_NONE, /**< No gradient (the `grad_color` property is ignored)*/
 136:Lib/lvgl/src/core/../misc/lv_style.h ****     LV_GRAD_DIR_VER,  /**< Vertical (top to bottom) gradient*/
 137:Lib/lvgl/src/core/../misc/lv_style.h ****     LV_GRAD_DIR_HOR,  /**< Horizontal (left to right) gradient*/
 138:Lib/lvgl/src/core/../misc/lv_style.h **** };
 139:Lib/lvgl/src/core/../misc/lv_style.h **** 
 140:Lib/lvgl/src/core/../misc/lv_style.h **** #ifdef DOXYGEN
 141:Lib/lvgl/src/core/../misc/lv_style.h **** typedef _lv_grad_dir_t lv_grad_dir_t;
 142:Lib/lvgl/src/core/../misc/lv_style.h **** #else
 143:Lib/lvgl/src/core/../misc/lv_style.h **** typedef uint8_t lv_grad_dir_t;
 144:Lib/lvgl/src/core/../misc/lv_style.h **** #endif /*DOXYGEN*/
 145:Lib/lvgl/src/core/../misc/lv_style.h **** 
 146:Lib/lvgl/src/core/../misc/lv_style.h **** /** A gradient stop definition.
 147:Lib/lvgl/src/core/../misc/lv_style.h ****  *  This matches a color and a position in a virtual 0-255 scale.
 148:Lib/lvgl/src/core/../misc/lv_style.h ****  */
 149:Lib/lvgl/src/core/../misc/lv_style.h **** typedef struct {
 150:Lib/lvgl/src/core/../misc/lv_style.h ****     lv_color_t color;   /**< The stop color */
 151:Lib/lvgl/src/core/../misc/lv_style.h ****     lv_opa_t   opa;     /**< The opacity of the color*/
 152:Lib/lvgl/src/core/../misc/lv_style.h ****     uint8_t    frac;    /**< The stop position in 1/255 unit */
 153:Lib/lvgl/src/core/../misc/lv_style.h **** } lv_gradient_stop_t;
 154:Lib/lvgl/src/core/../misc/lv_style.h **** 
 155:Lib/lvgl/src/core/../misc/lv_style.h **** /** A descriptor of a gradient. */
 156:Lib/lvgl/src/core/../misc/lv_style.h **** typedef struct {
 157:Lib/lvgl/src/core/../misc/lv_style.h ****     lv_gradient_stop_t   stops[LV_GRADIENT_MAX_STOPS]; /**< A gradient stop array */
 158:Lib/lvgl/src/core/../misc/lv_style.h ****     uint8_t              stops_count;                  /**< The number of used stops in the array *
 159:Lib/lvgl/src/core/../misc/lv_style.h ****     lv_grad_dir_t        dir : 3;                      /**< The gradient direction.
 160:Lib/lvgl/src/core/../misc/lv_style.h ****                                                         * Any of LV_GRAD_DIR_HOR, LV_GRAD_DIR_VER, 
 161:Lib/lvgl/src/core/../misc/lv_style.h **** } lv_grad_dsc_t;
 162:Lib/lvgl/src/core/../misc/lv_style.h **** 
 163:Lib/lvgl/src/core/../misc/lv_style.h **** /**
 164:Lib/lvgl/src/core/../misc/lv_style.h ****  * A common type to handle all the property types in the same way.
 165:Lib/lvgl/src/core/../misc/lv_style.h ****  */
 166:Lib/lvgl/src/core/../misc/lv_style.h **** typedef union {
 167:Lib/lvgl/src/core/../misc/lv_style.h ****     int32_t num;         /**< Number integer number (opacity, enums, booleans or "normal" numbers)*
 168:Lib/lvgl/src/core/../misc/lv_style.h ****     const void * ptr;    /**< Constant pointers  (font, cone text, etc)*/
 169:Lib/lvgl/src/core/../misc/lv_style.h ****     lv_color_t color;    /**< Colors*/
 170:Lib/lvgl/src/core/../misc/lv_style.h **** } lv_style_value_t;
 171:Lib/lvgl/src/core/../misc/lv_style.h **** 
 172:Lib/lvgl/src/core/../misc/lv_style.h **** /**
 173:Lib/lvgl/src/core/../misc/lv_style.h ****  * Enumeration of all built in style properties
 174:Lib/lvgl/src/core/../misc/lv_style.h ****  *
 175:Lib/lvgl/src/core/../misc/lv_style.h ****  * Props are split into groups of 16. When adding a new prop to a group, ensure it does not overflo
 176:Lib/lvgl/src/core/../misc/lv_style.h ****  */
ARM GAS  C:\Users\Alex\AppData\Local\Temp\ccdKwz1H.s 			page 13


 177:Lib/lvgl/src/core/../misc/lv_style.h **** enum _lv_style_prop_t {
 178:Lib/lvgl/src/core/../misc/lv_style.h ****     LV_STYLE_PROP_INV               = 0,
 179:Lib/lvgl/src/core/../misc/lv_style.h **** 
 180:Lib/lvgl/src/core/../misc/lv_style.h ****     /*Group 0*/
 181:Lib/lvgl/src/core/../misc/lv_style.h ****     LV_STYLE_WIDTH                  = 1,
 182:Lib/lvgl/src/core/../misc/lv_style.h ****     LV_STYLE_HEIGHT                 = 2,
 183:Lib/lvgl/src/core/../misc/lv_style.h ****     LV_STYLE_LENGTH                 = 3,
 184:Lib/lvgl/src/core/../misc/lv_style.h **** 
 185:Lib/lvgl/src/core/../misc/lv_style.h ****     LV_STYLE_MIN_WIDTH              = 4,
 186:Lib/lvgl/src/core/../misc/lv_style.h ****     LV_STYLE_MAX_WIDTH              = 5,
 187:Lib/lvgl/src/core/../misc/lv_style.h ****     LV_STYLE_MIN_HEIGHT             = 6,
 188:Lib/lvgl/src/core/../misc/lv_style.h ****     LV_STYLE_MAX_HEIGHT             = 7,
 189:Lib/lvgl/src/core/../misc/lv_style.h **** 
 190:Lib/lvgl/src/core/../misc/lv_style.h ****     LV_STYLE_X                      = 8,
 191:Lib/lvgl/src/core/../misc/lv_style.h ****     LV_STYLE_Y                      = 9,
 192:Lib/lvgl/src/core/../misc/lv_style.h ****     LV_STYLE_ALIGN                  = 10,
 193:Lib/lvgl/src/core/../misc/lv_style.h **** 
 194:Lib/lvgl/src/core/../misc/lv_style.h ****     LV_STYLE_RADIUS                 = 12,
 195:Lib/lvgl/src/core/../misc/lv_style.h **** 
 196:Lib/lvgl/src/core/../misc/lv_style.h ****     /*Group 1*/
 197:Lib/lvgl/src/core/../misc/lv_style.h ****     LV_STYLE_PAD_TOP                = 16,
 198:Lib/lvgl/src/core/../misc/lv_style.h ****     LV_STYLE_PAD_BOTTOM             = 17,
 199:Lib/lvgl/src/core/../misc/lv_style.h ****     LV_STYLE_PAD_LEFT               = 18,
 200:Lib/lvgl/src/core/../misc/lv_style.h ****     LV_STYLE_PAD_RIGHT              = 19,
 201:Lib/lvgl/src/core/../misc/lv_style.h **** 
 202:Lib/lvgl/src/core/../misc/lv_style.h ****     LV_STYLE_PAD_ROW                = 20,
 203:Lib/lvgl/src/core/../misc/lv_style.h ****     LV_STYLE_PAD_COLUMN             = 21,
 204:Lib/lvgl/src/core/../misc/lv_style.h ****     LV_STYLE_LAYOUT                 = 22,
 205:Lib/lvgl/src/core/../misc/lv_style.h **** 
 206:Lib/lvgl/src/core/../misc/lv_style.h ****     LV_STYLE_MARGIN_TOP             = 24,
 207:Lib/lvgl/src/core/../misc/lv_style.h ****     LV_STYLE_MARGIN_BOTTOM          = 25,
 208:Lib/lvgl/src/core/../misc/lv_style.h ****     LV_STYLE_MARGIN_LEFT            = 26,
 209:Lib/lvgl/src/core/../misc/lv_style.h ****     LV_STYLE_MARGIN_RIGHT           = 27,
 210:Lib/lvgl/src/core/../misc/lv_style.h **** 
 211:Lib/lvgl/src/core/../misc/lv_style.h ****     /*Group 2*/
 212:Lib/lvgl/src/core/../misc/lv_style.h ****     LV_STYLE_BG_COLOR               = 28,
 213:Lib/lvgl/src/core/../misc/lv_style.h ****     LV_STYLE_BG_OPA                 = 29,
 214:Lib/lvgl/src/core/../misc/lv_style.h **** 
 215:Lib/lvgl/src/core/../misc/lv_style.h ****     LV_STYLE_BG_GRAD_DIR            = 32,
 216:Lib/lvgl/src/core/../misc/lv_style.h ****     LV_STYLE_BG_MAIN_STOP           = 33,
 217:Lib/lvgl/src/core/../misc/lv_style.h ****     LV_STYLE_BG_GRAD_STOP           = 34,
 218:Lib/lvgl/src/core/../misc/lv_style.h ****     LV_STYLE_BG_GRAD_COLOR          = 35,
 219:Lib/lvgl/src/core/../misc/lv_style.h **** 
 220:Lib/lvgl/src/core/../misc/lv_style.h ****     LV_STYLE_BG_MAIN_OPA            = 36,
 221:Lib/lvgl/src/core/../misc/lv_style.h ****     LV_STYLE_BG_GRAD_OPA            = 37,
 222:Lib/lvgl/src/core/../misc/lv_style.h ****     LV_STYLE_BG_GRAD                = 38,
 223:Lib/lvgl/src/core/../misc/lv_style.h ****     LV_STYLE_BASE_DIR               = 39,
 224:Lib/lvgl/src/core/../misc/lv_style.h **** 
 225:Lib/lvgl/src/core/../misc/lv_style.h ****     LV_STYLE_BG_IMAGE_SRC             = 40,
 226:Lib/lvgl/src/core/../misc/lv_style.h ****     LV_STYLE_BG_IMAGE_OPA             = 41,
 227:Lib/lvgl/src/core/../misc/lv_style.h ****     LV_STYLE_BG_IMAGE_RECOLOR         = 42,
 228:Lib/lvgl/src/core/../misc/lv_style.h ****     LV_STYLE_BG_IMAGE_RECOLOR_OPA     = 43,
 229:Lib/lvgl/src/core/../misc/lv_style.h **** 
 230:Lib/lvgl/src/core/../misc/lv_style.h ****     LV_STYLE_BG_IMAGE_TILED           = 44,
 231:Lib/lvgl/src/core/../misc/lv_style.h ****     LV_STYLE_CLIP_CORNER            = 45,
 232:Lib/lvgl/src/core/../misc/lv_style.h **** 
 233:Lib/lvgl/src/core/../misc/lv_style.h ****     /*Group 3*/
ARM GAS  C:\Users\Alex\AppData\Local\Temp\ccdKwz1H.s 			page 14


 234:Lib/lvgl/src/core/../misc/lv_style.h ****     LV_STYLE_BORDER_WIDTH           = 48,
 235:Lib/lvgl/src/core/../misc/lv_style.h ****     LV_STYLE_BORDER_COLOR           = 49,
 236:Lib/lvgl/src/core/../misc/lv_style.h ****     LV_STYLE_BORDER_OPA             = 50,
 237:Lib/lvgl/src/core/../misc/lv_style.h **** 
 238:Lib/lvgl/src/core/../misc/lv_style.h ****     LV_STYLE_BORDER_SIDE            = 52,
 239:Lib/lvgl/src/core/../misc/lv_style.h ****     LV_STYLE_BORDER_POST            = 53,
 240:Lib/lvgl/src/core/../misc/lv_style.h **** 
 241:Lib/lvgl/src/core/../misc/lv_style.h ****     LV_STYLE_OUTLINE_WIDTH          = 56,
 242:Lib/lvgl/src/core/../misc/lv_style.h ****     LV_STYLE_OUTLINE_COLOR          = 57,
 243:Lib/lvgl/src/core/../misc/lv_style.h ****     LV_STYLE_OUTLINE_OPA            = 58,
 244:Lib/lvgl/src/core/../misc/lv_style.h ****     LV_STYLE_OUTLINE_PAD            = 59,
 245:Lib/lvgl/src/core/../misc/lv_style.h **** 
 246:Lib/lvgl/src/core/../misc/lv_style.h ****     /*Group 4*/
 247:Lib/lvgl/src/core/../misc/lv_style.h ****     LV_STYLE_SHADOW_WIDTH           = 60,
 248:Lib/lvgl/src/core/../misc/lv_style.h ****     LV_STYLE_SHADOW_COLOR           = 61,
 249:Lib/lvgl/src/core/../misc/lv_style.h ****     LV_STYLE_SHADOW_OPA             = 62,
 250:Lib/lvgl/src/core/../misc/lv_style.h **** 
 251:Lib/lvgl/src/core/../misc/lv_style.h ****     LV_STYLE_SHADOW_OFFSET_X        = 64,
 252:Lib/lvgl/src/core/../misc/lv_style.h ****     LV_STYLE_SHADOW_OFFSET_Y        = 65,
 253:Lib/lvgl/src/core/../misc/lv_style.h ****     LV_STYLE_SHADOW_SPREAD          = 66,
 254:Lib/lvgl/src/core/../misc/lv_style.h **** 
 255:Lib/lvgl/src/core/../misc/lv_style.h ****     LV_STYLE_IMAGE_OPA                = 68,
 256:Lib/lvgl/src/core/../misc/lv_style.h ****     LV_STYLE_IMAGE_RECOLOR            = 69,
 257:Lib/lvgl/src/core/../misc/lv_style.h ****     LV_STYLE_IMAGE_RECOLOR_OPA        = 70,
 258:Lib/lvgl/src/core/../misc/lv_style.h **** 
 259:Lib/lvgl/src/core/../misc/lv_style.h ****     LV_STYLE_LINE_WIDTH             = 72,
 260:Lib/lvgl/src/core/../misc/lv_style.h ****     LV_STYLE_LINE_DASH_WIDTH        = 73,
 261:Lib/lvgl/src/core/../misc/lv_style.h ****     LV_STYLE_LINE_DASH_GAP          = 74,
 262:Lib/lvgl/src/core/../misc/lv_style.h ****     LV_STYLE_LINE_ROUNDED           = 75,
 263:Lib/lvgl/src/core/../misc/lv_style.h ****     LV_STYLE_LINE_COLOR             = 76,
 264:Lib/lvgl/src/core/../misc/lv_style.h ****     LV_STYLE_LINE_OPA               = 77,
 265:Lib/lvgl/src/core/../misc/lv_style.h **** 
 266:Lib/lvgl/src/core/../misc/lv_style.h ****     /*Group 5*/
 267:Lib/lvgl/src/core/../misc/lv_style.h ****     LV_STYLE_ARC_WIDTH              = 80,
 268:Lib/lvgl/src/core/../misc/lv_style.h ****     LV_STYLE_ARC_ROUNDED            = 81,
 269:Lib/lvgl/src/core/../misc/lv_style.h ****     LV_STYLE_ARC_COLOR              = 82,
 270:Lib/lvgl/src/core/../misc/lv_style.h ****     LV_STYLE_ARC_OPA                = 83,
 271:Lib/lvgl/src/core/../misc/lv_style.h ****     LV_STYLE_ARC_IMAGE_SRC            = 84,
 272:Lib/lvgl/src/core/../misc/lv_style.h **** 
 273:Lib/lvgl/src/core/../misc/lv_style.h ****     LV_STYLE_TEXT_COLOR             = 88,
 274:Lib/lvgl/src/core/../misc/lv_style.h ****     LV_STYLE_TEXT_OPA               = 89,
 275:Lib/lvgl/src/core/../misc/lv_style.h ****     LV_STYLE_TEXT_FONT              = 90,
 276:Lib/lvgl/src/core/../misc/lv_style.h **** 
 277:Lib/lvgl/src/core/../misc/lv_style.h ****     LV_STYLE_TEXT_LETTER_SPACE      = 91,
 278:Lib/lvgl/src/core/../misc/lv_style.h ****     LV_STYLE_TEXT_LINE_SPACE        = 92,
 279:Lib/lvgl/src/core/../misc/lv_style.h ****     LV_STYLE_TEXT_DECOR             = 93,
 280:Lib/lvgl/src/core/../misc/lv_style.h ****     LV_STYLE_TEXT_ALIGN             = 94,
 281:Lib/lvgl/src/core/../misc/lv_style.h **** 
 282:Lib/lvgl/src/core/../misc/lv_style.h ****     LV_STYLE_OPA                    = 95,
 283:Lib/lvgl/src/core/../misc/lv_style.h ****     LV_STYLE_OPA_LAYERED            = 96,
 284:Lib/lvgl/src/core/../misc/lv_style.h ****     LV_STYLE_COLOR_FILTER_DSC       = 97,
 285:Lib/lvgl/src/core/../misc/lv_style.h ****     LV_STYLE_COLOR_FILTER_OPA       = 98,
 286:Lib/lvgl/src/core/../misc/lv_style.h ****     LV_STYLE_ANIM                   = 99,
 287:Lib/lvgl/src/core/../misc/lv_style.h ****     LV_STYLE_ANIM_DURATION          = 100,
 288:Lib/lvgl/src/core/../misc/lv_style.h ****     LV_STYLE_TRANSITION             = 102,
 289:Lib/lvgl/src/core/../misc/lv_style.h ****     LV_STYLE_BLEND_MODE             = 103,
 290:Lib/lvgl/src/core/../misc/lv_style.h ****     LV_STYLE_TRANSFORM_WIDTH        = 104,
ARM GAS  C:\Users\Alex\AppData\Local\Temp\ccdKwz1H.s 			page 15


 291:Lib/lvgl/src/core/../misc/lv_style.h ****     LV_STYLE_TRANSFORM_HEIGHT       = 105,
 292:Lib/lvgl/src/core/../misc/lv_style.h ****     LV_STYLE_TRANSLATE_X            = 106,
 293:Lib/lvgl/src/core/../misc/lv_style.h ****     LV_STYLE_TRANSLATE_Y            = 107,
 294:Lib/lvgl/src/core/../misc/lv_style.h ****     LV_STYLE_TRANSFORM_SCALE_X      = 108,
 295:Lib/lvgl/src/core/../misc/lv_style.h ****     LV_STYLE_TRANSFORM_SCALE_Y      = 109,
 296:Lib/lvgl/src/core/../misc/lv_style.h ****     LV_STYLE_TRANSFORM_ROTATION     = 110,
 297:Lib/lvgl/src/core/../misc/lv_style.h ****     LV_STYLE_TRANSFORM_PIVOT_X      = 111,
 298:Lib/lvgl/src/core/../misc/lv_style.h ****     LV_STYLE_TRANSFORM_PIVOT_Y      = 112,
 299:Lib/lvgl/src/core/../misc/lv_style.h ****     LV_STYLE_TRANSFORM_SKEW_X       = 113,
 300:Lib/lvgl/src/core/../misc/lv_style.h ****     LV_STYLE_TRANSFORM_SKEW_Y       = 114,
 301:Lib/lvgl/src/core/../misc/lv_style.h **** 
 302:Lib/lvgl/src/core/../misc/lv_style.h **** #if LV_USE_FLEX
 303:Lib/lvgl/src/core/../misc/lv_style.h ****     LV_STYLE_FLEX_FLOW              = 115,
 304:Lib/lvgl/src/core/../misc/lv_style.h ****     LV_STYLE_FLEX_MAIN_PLACE        = 116,
 305:Lib/lvgl/src/core/../misc/lv_style.h ****     LV_STYLE_FLEX_CROSS_PLACE       = 117,
 306:Lib/lvgl/src/core/../misc/lv_style.h ****     LV_STYLE_FLEX_TRACK_PLACE       = 118,
 307:Lib/lvgl/src/core/../misc/lv_style.h ****     LV_STYLE_FLEX_GROW              = 119,
 308:Lib/lvgl/src/core/../misc/lv_style.h **** #endif
 309:Lib/lvgl/src/core/../misc/lv_style.h **** 
 310:Lib/lvgl/src/core/../misc/lv_style.h **** #if LV_USE_GRID
 311:Lib/lvgl/src/core/../misc/lv_style.h ****     LV_STYLE_GRID_COLUMN_ALIGN      = 120,
 312:Lib/lvgl/src/core/../misc/lv_style.h ****     LV_STYLE_GRID_ROW_ALIGN         = 121,
 313:Lib/lvgl/src/core/../misc/lv_style.h ****     LV_STYLE_GRID_ROW_DSC_ARRAY     = 122,
 314:Lib/lvgl/src/core/../misc/lv_style.h ****     LV_STYLE_GRID_COLUMN_DSC_ARRAY  = 123,
 315:Lib/lvgl/src/core/../misc/lv_style.h ****     LV_STYLE_GRID_CELL_COLUMN_POS   = 124,
 316:Lib/lvgl/src/core/../misc/lv_style.h ****     LV_STYLE_GRID_CELL_COLUMN_SPAN  = 125,
 317:Lib/lvgl/src/core/../misc/lv_style.h ****     LV_STYLE_GRID_CELL_X_ALIGN      = 126,
 318:Lib/lvgl/src/core/../misc/lv_style.h ****     LV_STYLE_GRID_CELL_ROW_POS      = 127,
 319:Lib/lvgl/src/core/../misc/lv_style.h ****     LV_STYLE_GRID_CELL_ROW_SPAN     = 128,
 320:Lib/lvgl/src/core/../misc/lv_style.h ****     LV_STYLE_GRID_CELL_Y_ALIGN      = 129,
 321:Lib/lvgl/src/core/../misc/lv_style.h **** #endif
 322:Lib/lvgl/src/core/../misc/lv_style.h **** 
 323:Lib/lvgl/src/core/../misc/lv_style.h ****     _LV_STYLE_LAST_BUILT_IN_PROP     = 130,
 324:Lib/lvgl/src/core/../misc/lv_style.h **** 
 325:Lib/lvgl/src/core/../misc/lv_style.h ****     _LV_STYLE_NUM_BUILT_IN_PROPS     = _LV_STYLE_LAST_BUILT_IN_PROP + 1,
 326:Lib/lvgl/src/core/../misc/lv_style.h **** 
 327:Lib/lvgl/src/core/../misc/lv_style.h ****     LV_STYLE_PROP_ANY                = 0xFF,
 328:Lib/lvgl/src/core/../misc/lv_style.h ****     _LV_STYLE_PROP_CONST             = 0xFF /* magic value for const styles */
 329:Lib/lvgl/src/core/../misc/lv_style.h **** };
 330:Lib/lvgl/src/core/../misc/lv_style.h **** 
 331:Lib/lvgl/src/core/../misc/lv_style.h **** #ifdef DOXYGEN
 332:Lib/lvgl/src/core/../misc/lv_style.h **** typedef _lv_style_prop_t lv_style_prop_t;
 333:Lib/lvgl/src/core/../misc/lv_style.h **** #else
 334:Lib/lvgl/src/core/../misc/lv_style.h **** typedef uint8_t lv_style_prop_t;
 335:Lib/lvgl/src/core/../misc/lv_style.h **** #endif /*DOXYGEN*/
 336:Lib/lvgl/src/core/../misc/lv_style.h **** 
 337:Lib/lvgl/src/core/../misc/lv_style.h **** enum _lv_style_res_t {
 338:Lib/lvgl/src/core/../misc/lv_style.h ****     LV_STYLE_RES_NOT_FOUND,
 339:Lib/lvgl/src/core/../misc/lv_style.h ****     LV_STYLE_RES_FOUND,
 340:Lib/lvgl/src/core/../misc/lv_style.h **** };
 341:Lib/lvgl/src/core/../misc/lv_style.h **** 
 342:Lib/lvgl/src/core/../misc/lv_style.h **** #ifdef DOXYGEN
 343:Lib/lvgl/src/core/../misc/lv_style.h **** typedef _lv_style_res_t lv_style_res_t;
 344:Lib/lvgl/src/core/../misc/lv_style.h **** #else
 345:Lib/lvgl/src/core/../misc/lv_style.h **** typedef uint8_t lv_style_res_t;
 346:Lib/lvgl/src/core/../misc/lv_style.h **** #endif /*DOXYGEN*/
 347:Lib/lvgl/src/core/../misc/lv_style.h **** 
ARM GAS  C:\Users\Alex\AppData\Local\Temp\ccdKwz1H.s 			page 16


 348:Lib/lvgl/src/core/../misc/lv_style.h **** /**
 349:Lib/lvgl/src/core/../misc/lv_style.h ****  * Descriptor for style transitions
 350:Lib/lvgl/src/core/../misc/lv_style.h ****  */
 351:Lib/lvgl/src/core/../misc/lv_style.h **** typedef struct {
 352:Lib/lvgl/src/core/../misc/lv_style.h ****     const lv_style_prop_t * props; /**< An array with the properties to animate.*/
 353:Lib/lvgl/src/core/../misc/lv_style.h ****     void * user_data;              /**< A custom user data that will be passed to the animation's u
 354:Lib/lvgl/src/core/../misc/lv_style.h ****     lv_anim_path_cb_t path_xcb;     /**< A path for the animation.*/
 355:Lib/lvgl/src/core/../misc/lv_style.h ****     uint32_t time;                 /**< Duration of the transition in [ms]*/
 356:Lib/lvgl/src/core/../misc/lv_style.h ****     uint32_t delay;                /**< Delay before the transition in [ms]*/
 357:Lib/lvgl/src/core/../misc/lv_style.h **** } lv_style_transition_dsc_t;
 358:Lib/lvgl/src/core/../misc/lv_style.h **** 
 359:Lib/lvgl/src/core/../misc/lv_style.h **** /**
 360:Lib/lvgl/src/core/../misc/lv_style.h ****  * Descriptor of a constant style property.
 361:Lib/lvgl/src/core/../misc/lv_style.h ****  */
 362:Lib/lvgl/src/core/../misc/lv_style.h **** typedef struct {
 363:Lib/lvgl/src/core/../misc/lv_style.h ****     const lv_style_prop_t * prop_ptr;
 364:Lib/lvgl/src/core/../misc/lv_style.h ****     lv_style_value_t value;
 365:Lib/lvgl/src/core/../misc/lv_style.h **** } lv_style_const_prop_t;
 366:Lib/lvgl/src/core/../misc/lv_style.h **** 
 367:Lib/lvgl/src/core/../misc/lv_style.h **** /**
 368:Lib/lvgl/src/core/../misc/lv_style.h ****  * Descriptor of a style (a collection of properties and values).
 369:Lib/lvgl/src/core/../misc/lv_style.h ****  */
 370:Lib/lvgl/src/core/../misc/lv_style.h **** typedef struct {
 371:Lib/lvgl/src/core/../misc/lv_style.h **** 
 372:Lib/lvgl/src/core/../misc/lv_style.h **** #if LV_USE_ASSERT_STYLE
 373:Lib/lvgl/src/core/../misc/lv_style.h ****     uint32_t sentinel;
 374:Lib/lvgl/src/core/../misc/lv_style.h **** #endif
 375:Lib/lvgl/src/core/../misc/lv_style.h **** 
 376:Lib/lvgl/src/core/../misc/lv_style.h ****     void * values_and_props;
 377:Lib/lvgl/src/core/../misc/lv_style.h **** 
 378:Lib/lvgl/src/core/../misc/lv_style.h ****     uint32_t has_group;
 379:Lib/lvgl/src/core/../misc/lv_style.h ****     uint8_t prop_cnt;   /**< 255 means it's a constant style*/
 380:Lib/lvgl/src/core/../misc/lv_style.h **** } lv_style_t;
 381:Lib/lvgl/src/core/../misc/lv_style.h **** 
 382:Lib/lvgl/src/core/../misc/lv_style.h **** /**********************
 383:Lib/lvgl/src/core/../misc/lv_style.h ****  * GLOBAL PROTOTYPES
 384:Lib/lvgl/src/core/../misc/lv_style.h ****  **********************/
 385:Lib/lvgl/src/core/../misc/lv_style.h **** 
 386:Lib/lvgl/src/core/../misc/lv_style.h **** /**
 387:Lib/lvgl/src/core/../misc/lv_style.h ****  * Initialize a style
 388:Lib/lvgl/src/core/../misc/lv_style.h ****  * @param style pointer to a style to initialize
 389:Lib/lvgl/src/core/../misc/lv_style.h ****  * @note Do not call `lv_style_init` on styles that already have some properties
 390:Lib/lvgl/src/core/../misc/lv_style.h ****  *       because this function won't free the used memory, just sets a default state for the style.
 391:Lib/lvgl/src/core/../misc/lv_style.h ****  *       In other words be sure to initialize styles only once!
 392:Lib/lvgl/src/core/../misc/lv_style.h ****  */
 393:Lib/lvgl/src/core/../misc/lv_style.h **** void lv_style_init(lv_style_t * style);
 394:Lib/lvgl/src/core/../misc/lv_style.h **** 
 395:Lib/lvgl/src/core/../misc/lv_style.h **** /**
 396:Lib/lvgl/src/core/../misc/lv_style.h ****  * Clear all properties from a style and free all allocated memories.
 397:Lib/lvgl/src/core/../misc/lv_style.h ****  * @param style pointer to a style
 398:Lib/lvgl/src/core/../misc/lv_style.h ****  */
 399:Lib/lvgl/src/core/../misc/lv_style.h **** void lv_style_reset(lv_style_t * style);
 400:Lib/lvgl/src/core/../misc/lv_style.h **** 
 401:Lib/lvgl/src/core/../misc/lv_style.h **** /**
 402:Lib/lvgl/src/core/../misc/lv_style.h ****  * Check if a style is constant
 403:Lib/lvgl/src/core/../misc/lv_style.h ****  * @param style     pointer to a style
 404:Lib/lvgl/src/core/../misc/lv_style.h ****  * @return          true: the style is constant
ARM GAS  C:\Users\Alex\AppData\Local\Temp\ccdKwz1H.s 			page 17


 405:Lib/lvgl/src/core/../misc/lv_style.h ****  */
 406:Lib/lvgl/src/core/../misc/lv_style.h **** static inline bool lv_style_is_const(const lv_style_t * style)
 407:Lib/lvgl/src/core/../misc/lv_style.h **** {
 408:Lib/lvgl/src/core/../misc/lv_style.h ****     if(style->prop_cnt == 255) return true;
 409:Lib/lvgl/src/core/../misc/lv_style.h ****     return false;
 410:Lib/lvgl/src/core/../misc/lv_style.h **** }
 411:Lib/lvgl/src/core/../misc/lv_style.h **** 
 412:Lib/lvgl/src/core/../misc/lv_style.h **** /**
 413:Lib/lvgl/src/core/../misc/lv_style.h ****  * Register a new style property for custom usage
 414:Lib/lvgl/src/core/../misc/lv_style.h ****  * @return a new property ID, or LV_STYLE_PROP_INV if there are no more available.
 415:Lib/lvgl/src/core/../misc/lv_style.h ****  * @example
 416:Lib/lvgl/src/core/../misc/lv_style.h ****  * lv_style_prop_t MY_PROP;
 417:Lib/lvgl/src/core/../misc/lv_style.h ****  * static inline void lv_style_set_my_prop(lv_style_t * style, lv_color_t value) {
 418:Lib/lvgl/src/core/../misc/lv_style.h ****  * lv_style_value_t v = {.color = value}; lv_style_set_prop(style, MY_PROP, v); }
 419:Lib/lvgl/src/core/../misc/lv_style.h ****  *
 420:Lib/lvgl/src/core/../misc/lv_style.h ****  * ...
 421:Lib/lvgl/src/core/../misc/lv_style.h ****  * MY_PROP = lv_style_register_prop();
 422:Lib/lvgl/src/core/../misc/lv_style.h ****  * ...
 423:Lib/lvgl/src/core/../misc/lv_style.h ****  * lv_style_set_my_prop(&style1, lv_palette_main(LV_PALETTE_RED));
 424:Lib/lvgl/src/core/../misc/lv_style.h ****  */
 425:Lib/lvgl/src/core/../misc/lv_style.h **** lv_style_prop_t lv_style_register_prop(uint8_t flag);
 426:Lib/lvgl/src/core/../misc/lv_style.h **** 
 427:Lib/lvgl/src/core/../misc/lv_style.h **** /**
 428:Lib/lvgl/src/core/../misc/lv_style.h ****  * Get the number of custom properties that have been registered thus far.
 429:Lib/lvgl/src/core/../misc/lv_style.h ****  */
 430:Lib/lvgl/src/core/../misc/lv_style.h **** lv_style_prop_t lv_style_get_num_custom_props(void);
 431:Lib/lvgl/src/core/../misc/lv_style.h **** 
 432:Lib/lvgl/src/core/../misc/lv_style.h **** /**
 433:Lib/lvgl/src/core/../misc/lv_style.h ****  * Remove a property from a style
 434:Lib/lvgl/src/core/../misc/lv_style.h ****  * @param style pointer to a style
 435:Lib/lvgl/src/core/../misc/lv_style.h ****  * @param prop  a style property ORed with a state.
 436:Lib/lvgl/src/core/../misc/lv_style.h ****  * @return true: the property was found and removed; false: the property wasn't found
 437:Lib/lvgl/src/core/../misc/lv_style.h ****  */
 438:Lib/lvgl/src/core/../misc/lv_style.h **** bool lv_style_remove_prop(lv_style_t * style, lv_style_prop_t prop);
 439:Lib/lvgl/src/core/../misc/lv_style.h **** 
 440:Lib/lvgl/src/core/../misc/lv_style.h **** /**
 441:Lib/lvgl/src/core/../misc/lv_style.h ****  * Set the value of property in a style.
 442:Lib/lvgl/src/core/../misc/lv_style.h ****  * This function shouldn't be used directly by the user.
 443:Lib/lvgl/src/core/../misc/lv_style.h ****  * Instead use `lv_style_set_<prop_name>()`. E.g. `lv_style_set_bg_color()`
 444:Lib/lvgl/src/core/../misc/lv_style.h ****  * @param style pointer to style
 445:Lib/lvgl/src/core/../misc/lv_style.h ****  * @param prop the ID of a property (e.g. `LV_STYLE_BG_COLOR`)
 446:Lib/lvgl/src/core/../misc/lv_style.h ****  * @param value `lv_style_value_t` variable in which a field is set according to the type of `prop`
 447:Lib/lvgl/src/core/../misc/lv_style.h ****  */
 448:Lib/lvgl/src/core/../misc/lv_style.h **** void lv_style_set_prop(lv_style_t * style, lv_style_prop_t prop, lv_style_value_t value);
 449:Lib/lvgl/src/core/../misc/lv_style.h **** 
 450:Lib/lvgl/src/core/../misc/lv_style.h **** /**
 451:Lib/lvgl/src/core/../misc/lv_style.h ****  * Get the value of a property
 452:Lib/lvgl/src/core/../misc/lv_style.h ****  * @param style pointer to a style
 453:Lib/lvgl/src/core/../misc/lv_style.h ****  * @param prop  the ID of a property
 454:Lib/lvgl/src/core/../misc/lv_style.h ****  * @param value pointer to a `lv_style_value_t` variable to store the value
 455:Lib/lvgl/src/core/../misc/lv_style.h ****  * @return LV_RESULT_INVALID: the property wasn't found in the style (`value` is unchanged)
 456:Lib/lvgl/src/core/../misc/lv_style.h ****  *         LV_RESULT_OK: the property was fond, and `value` is set accordingly
 457:Lib/lvgl/src/core/../misc/lv_style.h ****  * @note For performance reasons there are no sanity check on `style`
 458:Lib/lvgl/src/core/../misc/lv_style.h ****  */
 459:Lib/lvgl/src/core/../misc/lv_style.h **** lv_style_res_t lv_style_get_prop(const lv_style_t * style, lv_style_prop_t prop, lv_style_value_t *
 460:Lib/lvgl/src/core/../misc/lv_style.h **** 
 461:Lib/lvgl/src/core/../misc/lv_style.h **** /**
ARM GAS  C:\Users\Alex\AppData\Local\Temp\ccdKwz1H.s 			page 18


 462:Lib/lvgl/src/core/../misc/lv_style.h ****  * Initialize a transition descriptor.
 463:Lib/lvgl/src/core/../misc/lv_style.h ****  * @param tr        pointer to a transition descriptor to initialize
 464:Lib/lvgl/src/core/../misc/lv_style.h ****  * @param props     an array with the properties to transition. The last element must be zero.
 465:Lib/lvgl/src/core/../misc/lv_style.h ****  * @param path_cb   an animation path (ease) callback. If `NULL` liner path will be used.
 466:Lib/lvgl/src/core/../misc/lv_style.h ****  * @param time      duration of the transition in [ms]
 467:Lib/lvgl/src/core/../misc/lv_style.h ****  * @param delay     delay before the transition in [ms]
 468:Lib/lvgl/src/core/../misc/lv_style.h ****  * @param user_data any custom data that will be saved in the transition animation and will be avai
 469:Lib/lvgl/src/core/../misc/lv_style.h ****  * @example
 470:Lib/lvgl/src/core/../misc/lv_style.h ****  * const static lv_style_prop_t trans_props[] = { LV_STYLE_BG_OPA, LV_STYLE_BG_COLOR, 0 };
 471:Lib/lvgl/src/core/../misc/lv_style.h ****  *  static lv_style_transition_dsc_t trans1;
 472:Lib/lvgl/src/core/../misc/lv_style.h ****  *  lv_style_transition_dsc_init(&trans1, trans_props, NULL, 300, 0, NULL);
 473:Lib/lvgl/src/core/../misc/lv_style.h ****  */
 474:Lib/lvgl/src/core/../misc/lv_style.h **** void lv_style_transition_dsc_init(lv_style_transition_dsc_t * tr, const lv_style_prop_t props[],
 475:Lib/lvgl/src/core/../misc/lv_style.h ****                                   lv_anim_path_cb_t path_cb, uint32_t time, uint32_t delay, void * 
 476:Lib/lvgl/src/core/../misc/lv_style.h **** 
 477:Lib/lvgl/src/core/../misc/lv_style.h **** /**
 478:Lib/lvgl/src/core/../misc/lv_style.h ****  * Get the default value of a property
 479:Lib/lvgl/src/core/../misc/lv_style.h ****  * @param prop the ID of a property
 480:Lib/lvgl/src/core/../misc/lv_style.h ****  * @return the default value
 481:Lib/lvgl/src/core/../misc/lv_style.h ****  */
 482:Lib/lvgl/src/core/../misc/lv_style.h **** lv_style_value_t lv_style_prop_get_default(lv_style_prop_t prop);
 483:Lib/lvgl/src/core/../misc/lv_style.h **** 
 484:Lib/lvgl/src/core/../misc/lv_style.h **** /**
 485:Lib/lvgl/src/core/../misc/lv_style.h ****  * Get the value of a property
 486:Lib/lvgl/src/core/../misc/lv_style.h ****  * @param style pointer to a style
 487:Lib/lvgl/src/core/../misc/lv_style.h ****  * @param prop  the ID of a property
 488:Lib/lvgl/src/core/../misc/lv_style.h ****  * @param value pointer to a `lv_style_value_t` variable to store the value
 489:Lib/lvgl/src/core/../misc/lv_style.h ****  * @return LV_RESULT_INVALID: the property wasn't found in the style (`value` is unchanged)
 490:Lib/lvgl/src/core/../misc/lv_style.h ****  *         LV_RESULT_OK: the property was fond, and `value` is set accordingly
 491:Lib/lvgl/src/core/../misc/lv_style.h ****  * @note For performance reasons there are no sanity check on `style`
 492:Lib/lvgl/src/core/../misc/lv_style.h ****  * @note This function is the same as ::lv_style_get_prop but inlined. Use it only on performance c
 493:Lib/lvgl/src/core/../misc/lv_style.h ****  */
 494:Lib/lvgl/src/core/../misc/lv_style.h **** static inline lv_style_res_t lv_style_get_prop_inlined(const lv_style_t * style, lv_style_prop_t pr
 495:Lib/lvgl/src/core/../misc/lv_style.h ****                                                        lv_style_value_t * value)
 496:Lib/lvgl/src/core/../misc/lv_style.h **** {
 189              		.loc 4 496 1 is_stmt 1 view -0
 190              		.cfi_startproc
 191              		@ args = 0, pretend = 0, frame = 0
 192              		@ frame_needed = 0, uses_anonymous_args = 0
 193              		.loc 4 496 1 is_stmt 0 view .LVU37
 194 0000 10B5     		push	{r4, lr}
 195              	.LCFI4:
 196              		.cfi_def_cfa_offset 8
 197              		.cfi_offset 4, -8
 198              		.cfi_offset 14, -4
 497:Lib/lvgl/src/core/../misc/lv_style.h ****     if(lv_style_is_const(style)) {
 199              		.loc 4 497 5 is_stmt 1 view .LVU38
 200              	.LVL6:
 201              	.LBB172:
 202              	.LBI172:
 406:Lib/lvgl/src/core/../misc/lv_style.h **** {
 203              		.loc 4 406 20 view .LVU39
 204              	.LBB173:
 408:Lib/lvgl/src/core/../misc/lv_style.h ****     return false;
 205              		.loc 4 408 5 view .LVU40
 408:Lib/lvgl/src/core/../misc/lv_style.h ****     return false;
 206              		.loc 4 408 13 is_stmt 0 view .LVU41
ARM GAS  C:\Users\Alex\AppData\Local\Temp\ccdKwz1H.s 			page 19


 207 0002 90F808C0 		ldrb	ip, [r0, #8]	@ zero_extendqisi2
 408:Lib/lvgl/src/core/../misc/lv_style.h ****     return false;
 208              		.loc 4 408 7 view .LVU42
 209 0006 BCF1FF0F 		cmp	ip, #255
 210 000a 0CD0     		beq	.L6
 211              	.LVL7:
 408:Lib/lvgl/src/core/../misc/lv_style.h ****     return false;
 212              		.loc 4 408 7 view .LVU43
 213              	.LBE173:
 214              	.LBE172:
 215              	.LBB175:
 498:Lib/lvgl/src/core/../misc/lv_style.h ****         lv_style_const_prop_t * props = (lv_style_const_prop_t *)style->values_and_props;
 499:Lib/lvgl/src/core/../misc/lv_style.h ****         uint32_t i;
 500:Lib/lvgl/src/core/../misc/lv_style.h ****         for(i = 0; props[i].prop_ptr; i++) {
 501:Lib/lvgl/src/core/../misc/lv_style.h ****             if(*props[i].prop_ptr == prop) {
 502:Lib/lvgl/src/core/../misc/lv_style.h ****                 *value = props[i].value;
 503:Lib/lvgl/src/core/../misc/lv_style.h ****                 return LV_STYLE_RES_FOUND;
 504:Lib/lvgl/src/core/../misc/lv_style.h ****             }
 505:Lib/lvgl/src/core/../misc/lv_style.h ****         }
 506:Lib/lvgl/src/core/../misc/lv_style.h ****     }
 507:Lib/lvgl/src/core/../misc/lv_style.h ****     else {
 508:Lib/lvgl/src/core/../misc/lv_style.h ****         lv_style_prop_t * props = (lv_style_prop_t *)style->values_and_props + style->prop_cnt * si
 216              		.loc 4 508 9 is_stmt 1 view .LVU44
 217              		.loc 4 508 59 is_stmt 0 view .LVU45
 218 000c 0468     		ldr	r4, [r0]
 219              		.loc 4 508 96 view .LVU46
 220 000e 4FEA8C0E 		lsl	lr, ip, #2
 221              	.LVL8:
 509:Lib/lvgl/src/core/../misc/lv_style.h ****         uint32_t i;
 222              		.loc 4 509 9 is_stmt 1 view .LVU47
 510:Lib/lvgl/src/core/../misc/lv_style.h ****         for(i = 0; i < style->prop_cnt; i++) {
 223              		.loc 4 510 9 view .LVU48
 224              		.loc 4 510 15 is_stmt 0 view .LVU49
 225 0012 0023     		movs	r3, #0
 226              	.LVL9:
 227              	.L7:
 228              		.loc 4 510 22 is_stmt 1 discriminator 1 view .LVU50
 229 0014 9C45     		cmp	ip, r3
 230 0016 1CD9     		bls	.L15
 511:Lib/lvgl/src/core/../misc/lv_style.h ****             if(props[i] == prop) {
 231              		.loc 4 511 13 view .LVU51
 232              		.loc 4 511 21 is_stmt 0 view .LVU52
 233 0018 04EB0E00 		add	r0, r4, lr
 234 001c C05C     		ldrb	r0, [r0, r3]	@ zero_extendqisi2
 235              		.loc 4 511 15 view .LVU53
 236 001e 8842     		cmp	r0, r1
 237 0020 12D0     		beq	.L16
 510:Lib/lvgl/src/core/../misc/lv_style.h ****         for(i = 0; i < style->prop_cnt; i++) {
 238              		.loc 4 510 42 is_stmt 1 discriminator 2 view .LVU54
 239 0022 0133     		adds	r3, r3, #1
 240              	.LVL10:
 510:Lib/lvgl/src/core/../misc/lv_style.h ****         for(i = 0; i < style->prop_cnt; i++) {
 241              		.loc 4 510 42 is_stmt 0 discriminator 2 view .LVU55
 242 0024 F6E7     		b	.L7
 243              	.LVL11:
 244              	.L6:
 510:Lib/lvgl/src/core/../misc/lv_style.h ****         for(i = 0; i < style->prop_cnt; i++) {
ARM GAS  C:\Users\Alex\AppData\Local\Temp\ccdKwz1H.s 			page 20


 245              		.loc 4 510 42 discriminator 2 view .LVU56
 246              	.LBE175:
 247              	.LBB177:
 248              	.LBB174:
 408:Lib/lvgl/src/core/../misc/lv_style.h ****     return false;
 249              		.loc 4 408 32 is_stmt 1 view .LVU57
 408:Lib/lvgl/src/core/../misc/lv_style.h ****     return false;
 250              		.loc 4 408 32 is_stmt 0 view .LVU58
 251              	.LBE174:
 252              	.LBE177:
 253              	.LBB178:
 498:Lib/lvgl/src/core/../misc/lv_style.h ****         uint32_t i;
 254              		.loc 4 498 9 is_stmt 1 view .LVU59
 498:Lib/lvgl/src/core/../misc/lv_style.h ****         uint32_t i;
 255              		.loc 4 498 33 is_stmt 0 view .LVU60
 256 0026 0468     		ldr	r4, [r0]
 257              	.LVL12:
 499:Lib/lvgl/src/core/../misc/lv_style.h ****         for(i = 0; props[i].prop_ptr; i++) {
 258              		.loc 4 499 9 is_stmt 1 view .LVU61
 500:Lib/lvgl/src/core/../misc/lv_style.h ****             if(*props[i].prop_ptr == prop) {
 259              		.loc 4 500 9 view .LVU62
 500:Lib/lvgl/src/core/../misc/lv_style.h ****             if(*props[i].prop_ptr == prop) {
 260              		.loc 4 500 15 is_stmt 0 view .LVU63
 261 0028 0023     		movs	r3, #0
 262              	.LVL13:
 263              	.L8:
 500:Lib/lvgl/src/core/../misc/lv_style.h ****             if(*props[i].prop_ptr == prop) {
 264              		.loc 4 500 20 is_stmt 1 discriminator 1 view .LVU64
 500:Lib/lvgl/src/core/../misc/lv_style.h ****             if(*props[i].prop_ptr == prop) {
 265              		.loc 4 500 25 is_stmt 0 discriminator 1 view .LVU65
 266 002a 04EBC30C 		add	ip, r4, r3, lsl #3
 500:Lib/lvgl/src/core/../misc/lv_style.h ****             if(*props[i].prop_ptr == prop) {
 267              		.loc 4 500 28 discriminator 1 view .LVU66
 268 002e 54F83300 		ldr	r0, [r4, r3, lsl #3]
 500:Lib/lvgl/src/core/../misc/lv_style.h ****             if(*props[i].prop_ptr == prop) {
 269              		.loc 4 500 20 discriminator 1 view .LVU67
 270 0032 78B1     		cbz	r0, .L10
 501:Lib/lvgl/src/core/../misc/lv_style.h ****                 *value = props[i].value;
 271              		.loc 4 501 13 is_stmt 1 view .LVU68
 501:Lib/lvgl/src/core/../misc/lv_style.h ****                 *value = props[i].value;
 272              		.loc 4 501 16 is_stmt 0 view .LVU69
 273 0034 0078     		ldrb	r0, [r0]	@ zero_extendqisi2
 501:Lib/lvgl/src/core/../misc/lv_style.h ****                 *value = props[i].value;
 274              		.loc 4 501 15 view .LVU70
 275 0036 8842     		cmp	r0, r1
 276 0038 01D0     		beq	.L17
 500:Lib/lvgl/src/core/../misc/lv_style.h ****             if(*props[i].prop_ptr == prop) {
 277              		.loc 4 500 40 is_stmt 1 discriminator 2 view .LVU71
 278 003a 0133     		adds	r3, r3, #1
 279              	.LVL14:
 500:Lib/lvgl/src/core/../misc/lv_style.h ****             if(*props[i].prop_ptr == prop) {
 280              		.loc 4 500 40 is_stmt 0 discriminator 2 view .LVU72
 281 003c F5E7     		b	.L8
 282              	.L17:
 502:Lib/lvgl/src/core/../misc/lv_style.h ****                 return LV_STYLE_RES_FOUND;
 283              		.loc 4 502 17 is_stmt 1 view .LVU73
 502:Lib/lvgl/src/core/../misc/lv_style.h ****                 return LV_STYLE_RES_FOUND;
ARM GAS  C:\Users\Alex\AppData\Local\Temp\ccdKwz1H.s 			page 21


 284              		.loc 4 502 24 is_stmt 0 view .LVU74
 285 003e DCF80430 		ldr	r3, [ip, #4]
 286              	.LVL15:
 502:Lib/lvgl/src/core/../misc/lv_style.h ****                 return LV_STYLE_RES_FOUND;
 287              		.loc 4 502 24 view .LVU75
 288 0042 1360     		str	r3, [r2]
 503:Lib/lvgl/src/core/../misc/lv_style.h ****             }
 289              		.loc 4 503 17 is_stmt 1 view .LVU76
 503:Lib/lvgl/src/core/../misc/lv_style.h ****             }
 290              		.loc 4 503 24 is_stmt 0 view .LVU77
 291 0044 0120     		movs	r0, #1
 292 0046 05E0     		b	.L10
 293              	.LVL16:
 294              	.L16:
 503:Lib/lvgl/src/core/../misc/lv_style.h ****             }
 295              		.loc 4 503 24 view .LVU78
 296              	.LBE178:
 297              	.LBB179:
 298              	.LBB176:
 512:Lib/lvgl/src/core/../misc/lv_style.h ****                 lv_style_value_t * values = (lv_style_value_t *)style->values_and_props;
 299              		.loc 4 512 17 is_stmt 1 view .LVU79
 513:Lib/lvgl/src/core/../misc/lv_style.h ****                 *value = values[i];
 300              		.loc 4 513 17 view .LVU80
 301              		.loc 4 513 24 is_stmt 0 view .LVU81
 302 0048 54F82330 		ldr	r3, [r4, r3, lsl #2]
 303              	.LVL17:
 304              		.loc 4 513 24 view .LVU82
 305 004c 1360     		str	r3, [r2]
 514:Lib/lvgl/src/core/../misc/lv_style.h ****                 return LV_STYLE_RES_FOUND;
 306              		.loc 4 514 17 is_stmt 1 view .LVU83
 307              		.loc 4 514 24 is_stmt 0 view .LVU84
 308 004e 0120     		movs	r0, #1
 309 0050 00E0     		b	.L10
 310              	.LVL18:
 311              	.L15:
 312              		.loc 4 514 24 view .LVU85
 313              	.LBE176:
 314              	.LBE179:
 515:Lib/lvgl/src/core/../misc/lv_style.h ****             }
 516:Lib/lvgl/src/core/../misc/lv_style.h ****         }
 517:Lib/lvgl/src/core/../misc/lv_style.h ****     }
 518:Lib/lvgl/src/core/../misc/lv_style.h ****     return LV_STYLE_RES_NOT_FOUND;
 315              		.loc 4 518 12 view .LVU86
 316 0052 0020     		movs	r0, #0
 317              	.LVL19:
 318              	.L10:
 519:Lib/lvgl/src/core/../misc/lv_style.h **** }
 319              		.loc 4 519 1 view .LVU87
 320 0054 10BD     		pop	{r4, pc}
 321              		.cfi_endproc
 322              	.LFE73:
 324              		.section	.text.lv_style_prop_get_default_inlined,"ax",%progbits
 325              		.align	1
 326              		.syntax unified
 327              		.thumb
 328              		.thumb_func
 330              	lv_style_prop_get_default_inlined:
ARM GAS  C:\Users\Alex\AppData\Local\Temp\ccdKwz1H.s 			page 22


 331              	.LVL20:
 332              	.LFB243:
   1:Lib/lvgl/src/core/lv_obj_style.c **** /**
   2:Lib/lvgl/src/core/lv_obj_style.c ****  * @file lv_obj_style.c
   3:Lib/lvgl/src/core/lv_obj_style.c ****  *
   4:Lib/lvgl/src/core/lv_obj_style.c ****  */
   5:Lib/lvgl/src/core/lv_obj_style.c **** 
   6:Lib/lvgl/src/core/lv_obj_style.c **** /*********************
   7:Lib/lvgl/src/core/lv_obj_style.c ****  *      INCLUDES
   8:Lib/lvgl/src/core/lv_obj_style.c ****  *********************/
   9:Lib/lvgl/src/core/lv_obj_style.c **** #include "lv_obj.h"
  10:Lib/lvgl/src/core/lv_obj_style.c **** #include "../display/lv_display.h"
  11:Lib/lvgl/src/core/lv_obj_style.c **** #include "../display/lv_display_private.h"
  12:Lib/lvgl/src/core/lv_obj_style.c **** #include "../misc/lv_color.h"
  13:Lib/lvgl/src/core/lv_obj_style.c **** #include "../stdlib/lv_string.h"
  14:Lib/lvgl/src/core/lv_obj_style.c **** #include "../core/lv_global.h"
  15:Lib/lvgl/src/core/lv_obj_style.c **** /*********************
  16:Lib/lvgl/src/core/lv_obj_style.c ****  *      DEFINES
  17:Lib/lvgl/src/core/lv_obj_style.c ****  *********************/
  18:Lib/lvgl/src/core/lv_obj_style.c **** #define MY_CLASS &lv_obj_class
  19:Lib/lvgl/src/core/lv_obj_style.c **** #define style_refr LV_GLOBAL_DEFAULT()->style_refresh
  20:Lib/lvgl/src/core/lv_obj_style.c **** #define style_trans_ll_p &(LV_GLOBAL_DEFAULT()->style_trans_ll)
  21:Lib/lvgl/src/core/lv_obj_style.c **** #define _style_custom_prop_flag_lookup_table LV_GLOBAL_DEFAULT()->style_custom_prop_flag_lookup_tab
  22:Lib/lvgl/src/core/lv_obj_style.c **** #define STYLE_PROP_SHIFTED(prop) ((uint32_t)1 << ((prop) >> 3))
  23:Lib/lvgl/src/core/lv_obj_style.c **** 
  24:Lib/lvgl/src/core/lv_obj_style.c **** /**********************
  25:Lib/lvgl/src/core/lv_obj_style.c ****  *      TYPEDEFS
  26:Lib/lvgl/src/core/lv_obj_style.c ****  **********************/
  27:Lib/lvgl/src/core/lv_obj_style.c **** 
  28:Lib/lvgl/src/core/lv_obj_style.c **** typedef struct {
  29:Lib/lvgl/src/core/lv_obj_style.c ****     lv_obj_t * obj;
  30:Lib/lvgl/src/core/lv_obj_style.c ****     lv_style_prop_t prop;
  31:Lib/lvgl/src/core/lv_obj_style.c ****     lv_style_selector_t selector;
  32:Lib/lvgl/src/core/lv_obj_style.c ****     lv_style_value_t start_value;
  33:Lib/lvgl/src/core/lv_obj_style.c ****     lv_style_value_t end_value;
  34:Lib/lvgl/src/core/lv_obj_style.c **** } trans_t;
  35:Lib/lvgl/src/core/lv_obj_style.c **** 
  36:Lib/lvgl/src/core/lv_obj_style.c **** typedef enum {
  37:Lib/lvgl/src/core/lv_obj_style.c ****     CACHE_ZERO = 0,
  38:Lib/lvgl/src/core/lv_obj_style.c ****     CACHE_TRUE = 1,
  39:Lib/lvgl/src/core/lv_obj_style.c ****     CACHE_UNSET = 2,
  40:Lib/lvgl/src/core/lv_obj_style.c ****     CACHE_255 = 3,
  41:Lib/lvgl/src/core/lv_obj_style.c ****     CACHE_NEED_CHECK = 4,
  42:Lib/lvgl/src/core/lv_obj_style.c **** } cache_t;
  43:Lib/lvgl/src/core/lv_obj_style.c **** 
  44:Lib/lvgl/src/core/lv_obj_style.c **** /**********************
  45:Lib/lvgl/src/core/lv_obj_style.c ****  *  GLOBAL PROTOTYPES
  46:Lib/lvgl/src/core/lv_obj_style.c ****  **********************/
  47:Lib/lvgl/src/core/lv_obj_style.c **** 
  48:Lib/lvgl/src/core/lv_obj_style.c **** /**********************
  49:Lib/lvgl/src/core/lv_obj_style.c ****  *  STATIC PROTOTYPES
  50:Lib/lvgl/src/core/lv_obj_style.c ****  **********************/
  51:Lib/lvgl/src/core/lv_obj_style.c **** static lv_style_t * get_local_style(lv_obj_t * obj, lv_style_selector_t selector);
  52:Lib/lvgl/src/core/lv_obj_style.c **** static _lv_obj_style_t * get_trans_style(lv_obj_t * obj, uint32_t part);
  53:Lib/lvgl/src/core/lv_obj_style.c **** static lv_style_res_t get_prop_core(const lv_obj_t * obj, lv_style_selector_t selector, lv_style_pr
  54:Lib/lvgl/src/core/lv_obj_style.c ****                                     lv_style_value_t * v);
  55:Lib/lvgl/src/core/lv_obj_style.c **** static void report_style_change_core(void * style, lv_obj_t * obj);
ARM GAS  C:\Users\Alex\AppData\Local\Temp\ccdKwz1H.s 			page 23


  56:Lib/lvgl/src/core/lv_obj_style.c **** static void refresh_children_style(lv_obj_t * obj);
  57:Lib/lvgl/src/core/lv_obj_style.c **** static bool trans_delete(lv_obj_t * obj, lv_part_t part, lv_style_prop_t prop, trans_t * tr_limit);
  58:Lib/lvgl/src/core/lv_obj_style.c **** static void trans_anim_cb(void * _tr, int32_t v);
  59:Lib/lvgl/src/core/lv_obj_style.c **** static void trans_anim_start_cb(lv_anim_t * a);
  60:Lib/lvgl/src/core/lv_obj_style.c **** static void trans_anim_completed_cb(lv_anim_t * a);
  61:Lib/lvgl/src/core/lv_obj_style.c **** static lv_layer_type_t calculate_layer_type(lv_obj_t * obj);
  62:Lib/lvgl/src/core/lv_obj_style.c **** static void full_cache_refresh(lv_obj_t * obj, lv_part_t part);
  63:Lib/lvgl/src/core/lv_obj_style.c **** static void fade_anim_cb(void * obj, int32_t v);
  64:Lib/lvgl/src/core/lv_obj_style.c **** static void fade_in_anim_completed(lv_anim_t * a);
  65:Lib/lvgl/src/core/lv_obj_style.c **** static bool style_has_flag(const lv_style_t * style, uint32_t flag);
  66:Lib/lvgl/src/core/lv_obj_style.c **** static lv_style_res_t get_selector_style_prop(const lv_obj_t * obj, lv_style_selector_t selector, l
  67:Lib/lvgl/src/core/lv_obj_style.c ****                                               lv_style_value_t * value_act);
  68:Lib/lvgl/src/core/lv_obj_style.c **** 
  69:Lib/lvgl/src/core/lv_obj_style.c **** /**********************
  70:Lib/lvgl/src/core/lv_obj_style.c ****  *  STATIC VARIABLES
  71:Lib/lvgl/src/core/lv_obj_style.c ****  **********************/
  72:Lib/lvgl/src/core/lv_obj_style.c **** 
  73:Lib/lvgl/src/core/lv_obj_style.c **** /**********************
  74:Lib/lvgl/src/core/lv_obj_style.c ****  *      MACROS
  75:Lib/lvgl/src/core/lv_obj_style.c ****  **********************/
  76:Lib/lvgl/src/core/lv_obj_style.c **** 
  77:Lib/lvgl/src/core/lv_obj_style.c **** /**********************
  78:Lib/lvgl/src/core/lv_obj_style.c ****  *   GLOBAL FUNCTIONS
  79:Lib/lvgl/src/core/lv_obj_style.c ****  **********************/
  80:Lib/lvgl/src/core/lv_obj_style.c **** 
  81:Lib/lvgl/src/core/lv_obj_style.c **** void _lv_obj_style_init(void)
  82:Lib/lvgl/src/core/lv_obj_style.c **** {
  83:Lib/lvgl/src/core/lv_obj_style.c ****     _lv_ll_init(style_trans_ll_p, sizeof(trans_t));
  84:Lib/lvgl/src/core/lv_obj_style.c **** }
  85:Lib/lvgl/src/core/lv_obj_style.c **** 
  86:Lib/lvgl/src/core/lv_obj_style.c **** void _lv_obj_style_deinit(void)
  87:Lib/lvgl/src/core/lv_obj_style.c **** {
  88:Lib/lvgl/src/core/lv_obj_style.c ****     _lv_ll_clear(style_trans_ll_p);
  89:Lib/lvgl/src/core/lv_obj_style.c ****     if(_style_custom_prop_flag_lookup_table != NULL) {
  90:Lib/lvgl/src/core/lv_obj_style.c ****         lv_free(_style_custom_prop_flag_lookup_table);
  91:Lib/lvgl/src/core/lv_obj_style.c ****         _style_custom_prop_flag_lookup_table = NULL;
  92:Lib/lvgl/src/core/lv_obj_style.c ****     }
  93:Lib/lvgl/src/core/lv_obj_style.c **** }
  94:Lib/lvgl/src/core/lv_obj_style.c **** 
  95:Lib/lvgl/src/core/lv_obj_style.c **** void lv_obj_add_style(lv_obj_t * obj, const lv_style_t * style, lv_style_selector_t selector)
  96:Lib/lvgl/src/core/lv_obj_style.c **** {
  97:Lib/lvgl/src/core/lv_obj_style.c ****     LV_ASSERT(obj->style_cnt < 63);
  98:Lib/lvgl/src/core/lv_obj_style.c **** 
  99:Lib/lvgl/src/core/lv_obj_style.c ****     trans_delete(obj, selector, LV_STYLE_PROP_ANY, NULL);
 100:Lib/lvgl/src/core/lv_obj_style.c **** 
 101:Lib/lvgl/src/core/lv_obj_style.c ****     lv_part_t part = lv_obj_style_get_selector_part(selector);
 102:Lib/lvgl/src/core/lv_obj_style.c **** 
 103:Lib/lvgl/src/core/lv_obj_style.c ****     if(style && part == LV_PART_MAIN && style_has_flag(style, LV_STYLE_PROP_FLAG_TRANSFORM)) {
 104:Lib/lvgl/src/core/lv_obj_style.c ****         lv_obj_invalidate(obj);
 105:Lib/lvgl/src/core/lv_obj_style.c ****     }
 106:Lib/lvgl/src/core/lv_obj_style.c **** 
 107:Lib/lvgl/src/core/lv_obj_style.c ****     /*Try removing the style first to be sure it won't be added twice*/
 108:Lib/lvgl/src/core/lv_obj_style.c ****     lv_obj_remove_style(obj, style, selector);
 109:Lib/lvgl/src/core/lv_obj_style.c **** 
 110:Lib/lvgl/src/core/lv_obj_style.c ****     uint32_t i;
 111:Lib/lvgl/src/core/lv_obj_style.c ****     /*Go after the transition and local styles*/
 112:Lib/lvgl/src/core/lv_obj_style.c ****     for(i = 0; i < obj->style_cnt; i++) {
ARM GAS  C:\Users\Alex\AppData\Local\Temp\ccdKwz1H.s 			page 24


 113:Lib/lvgl/src/core/lv_obj_style.c ****         if(obj->styles[i].is_trans) continue;
 114:Lib/lvgl/src/core/lv_obj_style.c ****         if(obj->styles[i].is_local) continue;
 115:Lib/lvgl/src/core/lv_obj_style.c ****         break;
 116:Lib/lvgl/src/core/lv_obj_style.c ****     }
 117:Lib/lvgl/src/core/lv_obj_style.c **** 
 118:Lib/lvgl/src/core/lv_obj_style.c ****     /*Now `i` is at the first normal style. Insert the new style before this*/
 119:Lib/lvgl/src/core/lv_obj_style.c **** 
 120:Lib/lvgl/src/core/lv_obj_style.c ****     /*Allocate space for the new style and shift the rest of the style to the end*/
 121:Lib/lvgl/src/core/lv_obj_style.c ****     obj->style_cnt++;
 122:Lib/lvgl/src/core/lv_obj_style.c ****     LV_ASSERT(obj->style_cnt != 0);
 123:Lib/lvgl/src/core/lv_obj_style.c ****     obj->styles = lv_realloc(obj->styles, obj->style_cnt * sizeof(_lv_obj_style_t));
 124:Lib/lvgl/src/core/lv_obj_style.c ****     LV_ASSERT_MALLOC(obj->styles);
 125:Lib/lvgl/src/core/lv_obj_style.c **** 
 126:Lib/lvgl/src/core/lv_obj_style.c ****     uint32_t j;
 127:Lib/lvgl/src/core/lv_obj_style.c ****     for(j = obj->style_cnt - 1; j > i ; j--) {
 128:Lib/lvgl/src/core/lv_obj_style.c ****         obj->styles[j] = obj->styles[j - 1];
 129:Lib/lvgl/src/core/lv_obj_style.c ****     }
 130:Lib/lvgl/src/core/lv_obj_style.c **** 
 131:Lib/lvgl/src/core/lv_obj_style.c ****     lv_memzero(&obj->styles[i], sizeof(_lv_obj_style_t));
 132:Lib/lvgl/src/core/lv_obj_style.c ****     obj->styles[i].style = style;
 133:Lib/lvgl/src/core/lv_obj_style.c ****     obj->styles[i].selector = selector;
 134:Lib/lvgl/src/core/lv_obj_style.c **** 
 135:Lib/lvgl/src/core/lv_obj_style.c **** #if LV_OBJ_STYLE_CACHE
 136:Lib/lvgl/src/core/lv_obj_style.c ****     uint32_t * prop_is_set = part == LV_PART_MAIN ? &obj->style_main_prop_is_set : &obj->style_othe
 137:Lib/lvgl/src/core/lv_obj_style.c ****     if(lv_style_is_const(style)) {
 138:Lib/lvgl/src/core/lv_obj_style.c ****         lv_style_const_prop_t * props = style->values_and_props;
 139:Lib/lvgl/src/core/lv_obj_style.c ****         for(i = 0; props[i].prop_ptr; i++) {
 140:Lib/lvgl/src/core/lv_obj_style.c ****             (*prop_is_set) |= STYLE_PROP_SHIFTED(*props[i].prop_ptr);
 141:Lib/lvgl/src/core/lv_obj_style.c ****         }
 142:Lib/lvgl/src/core/lv_obj_style.c ****     }
 143:Lib/lvgl/src/core/lv_obj_style.c ****     else {
 144:Lib/lvgl/src/core/lv_obj_style.c ****         lv_style_prop_t * props = (lv_style_prop_t *)style->values_and_props + style->prop_cnt * si
 145:Lib/lvgl/src/core/lv_obj_style.c ****         for(i = 0; i < style->prop_cnt; i++) {
 146:Lib/lvgl/src/core/lv_obj_style.c ****             (*prop_is_set) |= STYLE_PROP_SHIFTED(props[i]);
 147:Lib/lvgl/src/core/lv_obj_style.c ****         }
 148:Lib/lvgl/src/core/lv_obj_style.c ****     }
 149:Lib/lvgl/src/core/lv_obj_style.c **** #endif
 150:Lib/lvgl/src/core/lv_obj_style.c **** 
 151:Lib/lvgl/src/core/lv_obj_style.c ****     lv_obj_refresh_style(obj, selector, LV_STYLE_PROP_ANY);
 152:Lib/lvgl/src/core/lv_obj_style.c **** }
 153:Lib/lvgl/src/core/lv_obj_style.c **** 
 154:Lib/lvgl/src/core/lv_obj_style.c **** bool lv_obj_replace_style(lv_obj_t * obj, const lv_style_t * old_style, const lv_style_t * new_styl
 155:Lib/lvgl/src/core/lv_obj_style.c ****                           lv_style_selector_t selector)
 156:Lib/lvgl/src/core/lv_obj_style.c **** {
 157:Lib/lvgl/src/core/lv_obj_style.c ****     lv_state_t state = lv_obj_style_get_selector_state(selector);
 158:Lib/lvgl/src/core/lv_obj_style.c ****     lv_part_t part = lv_obj_style_get_selector_part(selector);
 159:Lib/lvgl/src/core/lv_obj_style.c **** 
 160:Lib/lvgl/src/core/lv_obj_style.c ****     /*All objects must exist*/
 161:Lib/lvgl/src/core/lv_obj_style.c ****     if(!obj || !old_style || !new_style || (old_style == new_style)) {
 162:Lib/lvgl/src/core/lv_obj_style.c ****         return false;
 163:Lib/lvgl/src/core/lv_obj_style.c ****     }
 164:Lib/lvgl/src/core/lv_obj_style.c **** 
 165:Lib/lvgl/src/core/lv_obj_style.c ****     /*Similar to lv_obj_add_style, delete transition*/
 166:Lib/lvgl/src/core/lv_obj_style.c ****     trans_delete(obj, selector, LV_STYLE_PROP_ANY, NULL);
 167:Lib/lvgl/src/core/lv_obj_style.c **** 
 168:Lib/lvgl/src/core/lv_obj_style.c ****     bool replaced = false;
 169:Lib/lvgl/src/core/lv_obj_style.c ****     uint32_t i;
ARM GAS  C:\Users\Alex\AppData\Local\Temp\ccdKwz1H.s 			page 25


 170:Lib/lvgl/src/core/lv_obj_style.c ****     for(i = 0; i < obj->style_cnt; i++) {
 171:Lib/lvgl/src/core/lv_obj_style.c ****         lv_state_t state_act = lv_obj_style_get_selector_state(obj->styles[i].selector);
 172:Lib/lvgl/src/core/lv_obj_style.c ****         lv_part_t part_act = lv_obj_style_get_selector_part(obj->styles[i].selector);
 173:Lib/lvgl/src/core/lv_obj_style.c **** 
 174:Lib/lvgl/src/core/lv_obj_style.c ****         /*Skip local styles and transitions*/
 175:Lib/lvgl/src/core/lv_obj_style.c ****         if(obj->styles[i].is_local || obj->styles[i].is_trans) {
 176:Lib/lvgl/src/core/lv_obj_style.c ****             continue;
 177:Lib/lvgl/src/core/lv_obj_style.c ****         }
 178:Lib/lvgl/src/core/lv_obj_style.c **** 
 179:Lib/lvgl/src/core/lv_obj_style.c ****         /*Skip non-matching styles*/
 180:Lib/lvgl/src/core/lv_obj_style.c ****         if((state != LV_STATE_ANY && state_act != state) ||
 181:Lib/lvgl/src/core/lv_obj_style.c ****            (part != LV_PART_ANY && part_act != part) ||
 182:Lib/lvgl/src/core/lv_obj_style.c ****            (old_style != obj->styles[i].style)) {
 183:Lib/lvgl/src/core/lv_obj_style.c ****             continue;
 184:Lib/lvgl/src/core/lv_obj_style.c ****         }
 185:Lib/lvgl/src/core/lv_obj_style.c **** 
 186:Lib/lvgl/src/core/lv_obj_style.c ****         lv_memzero(&obj->styles[i], sizeof(_lv_obj_style_t));
 187:Lib/lvgl/src/core/lv_obj_style.c ****         obj->styles[i].style = new_style;
 188:Lib/lvgl/src/core/lv_obj_style.c ****         obj->styles[i].selector = selector;
 189:Lib/lvgl/src/core/lv_obj_style.c **** 
 190:Lib/lvgl/src/core/lv_obj_style.c ****         replaced = true;
 191:Lib/lvgl/src/core/lv_obj_style.c ****         /*Don't break and continue replacing other occurrences*/
 192:Lib/lvgl/src/core/lv_obj_style.c ****     }
 193:Lib/lvgl/src/core/lv_obj_style.c ****     if(replaced) {
 194:Lib/lvgl/src/core/lv_obj_style.c ****         full_cache_refresh(obj, part);
 195:Lib/lvgl/src/core/lv_obj_style.c ****         lv_obj_refresh_style(obj, part, LV_STYLE_PROP_ANY);
 196:Lib/lvgl/src/core/lv_obj_style.c ****     }
 197:Lib/lvgl/src/core/lv_obj_style.c ****     return replaced;
 198:Lib/lvgl/src/core/lv_obj_style.c **** }
 199:Lib/lvgl/src/core/lv_obj_style.c **** 
 200:Lib/lvgl/src/core/lv_obj_style.c **** void lv_obj_remove_style(lv_obj_t * obj, const lv_style_t * style, lv_style_selector_t selector)
 201:Lib/lvgl/src/core/lv_obj_style.c **** {
 202:Lib/lvgl/src/core/lv_obj_style.c ****     lv_state_t state = lv_obj_style_get_selector_state(selector);
 203:Lib/lvgl/src/core/lv_obj_style.c ****     lv_part_t part = lv_obj_style_get_selector_part(selector);
 204:Lib/lvgl/src/core/lv_obj_style.c ****     lv_style_prop_t prop = LV_STYLE_PROP_ANY;
 205:Lib/lvgl/src/core/lv_obj_style.c ****     if(style && style->prop_cnt == 0) prop = LV_STYLE_PROP_INV;
 206:Lib/lvgl/src/core/lv_obj_style.c **** 
 207:Lib/lvgl/src/core/lv_obj_style.c ****     if(style && part == LV_PART_MAIN && style_has_flag(style, LV_STYLE_PROP_FLAG_TRANSFORM)) {
 208:Lib/lvgl/src/core/lv_obj_style.c ****         lv_obj_invalidate(obj);
 209:Lib/lvgl/src/core/lv_obj_style.c ****     }
 210:Lib/lvgl/src/core/lv_obj_style.c **** 
 211:Lib/lvgl/src/core/lv_obj_style.c ****     uint32_t i = 0;
 212:Lib/lvgl/src/core/lv_obj_style.c ****     bool deleted = false;
 213:Lib/lvgl/src/core/lv_obj_style.c ****     while(i <  obj->style_cnt) {
 214:Lib/lvgl/src/core/lv_obj_style.c ****         lv_state_t state_act = lv_obj_style_get_selector_state(obj->styles[i].selector);
 215:Lib/lvgl/src/core/lv_obj_style.c ****         lv_part_t part_act = lv_obj_style_get_selector_part(obj->styles[i].selector);
 216:Lib/lvgl/src/core/lv_obj_style.c ****         if((state != LV_STATE_ANY && state_act != state) ||
 217:Lib/lvgl/src/core/lv_obj_style.c ****            (part != LV_PART_ANY && part_act != part) ||
 218:Lib/lvgl/src/core/lv_obj_style.c ****            (style != NULL && style != obj->styles[i].style)) {
 219:Lib/lvgl/src/core/lv_obj_style.c ****             i++;
 220:Lib/lvgl/src/core/lv_obj_style.c ****             continue;
 221:Lib/lvgl/src/core/lv_obj_style.c ****         }
 222:Lib/lvgl/src/core/lv_obj_style.c **** 
 223:Lib/lvgl/src/core/lv_obj_style.c ****         if(obj->styles[i].is_trans) {
 224:Lib/lvgl/src/core/lv_obj_style.c ****             trans_delete(obj, part, LV_STYLE_PROP_ANY, NULL);
 225:Lib/lvgl/src/core/lv_obj_style.c ****         }
 226:Lib/lvgl/src/core/lv_obj_style.c **** 
ARM GAS  C:\Users\Alex\AppData\Local\Temp\ccdKwz1H.s 			page 26


 227:Lib/lvgl/src/core/lv_obj_style.c ****         if(obj->styles[i].is_local || obj->styles[i].is_trans) {
 228:Lib/lvgl/src/core/lv_obj_style.c ****             if(obj->styles[i].style) lv_style_reset((lv_style_t *)obj->styles[i].style);
 229:Lib/lvgl/src/core/lv_obj_style.c ****             lv_free((lv_style_t *)obj->styles[i].style);
 230:Lib/lvgl/src/core/lv_obj_style.c ****             obj->styles[i].style = NULL;
 231:Lib/lvgl/src/core/lv_obj_style.c ****         }
 232:Lib/lvgl/src/core/lv_obj_style.c **** 
 233:Lib/lvgl/src/core/lv_obj_style.c ****         /*Shift the styles after `i` by one*/
 234:Lib/lvgl/src/core/lv_obj_style.c ****         uint32_t j;
 235:Lib/lvgl/src/core/lv_obj_style.c ****         for(j = i; j < (uint32_t)obj->style_cnt - 1 ; j++) {
 236:Lib/lvgl/src/core/lv_obj_style.c ****             obj->styles[j] = obj->styles[j + 1];
 237:Lib/lvgl/src/core/lv_obj_style.c ****         }
 238:Lib/lvgl/src/core/lv_obj_style.c **** 
 239:Lib/lvgl/src/core/lv_obj_style.c ****         obj->style_cnt--;
 240:Lib/lvgl/src/core/lv_obj_style.c ****         obj->styles = lv_realloc(obj->styles, obj->style_cnt * sizeof(_lv_obj_style_t));
 241:Lib/lvgl/src/core/lv_obj_style.c **** 
 242:Lib/lvgl/src/core/lv_obj_style.c ****         deleted = true;
 243:Lib/lvgl/src/core/lv_obj_style.c ****         /*The style from the current `i` index is removed, so `i` points to the next style.
 244:Lib/lvgl/src/core/lv_obj_style.c ****          *Therefore it doesn't needs to be incremented*/
 245:Lib/lvgl/src/core/lv_obj_style.c ****     }
 246:Lib/lvgl/src/core/lv_obj_style.c **** 
 247:Lib/lvgl/src/core/lv_obj_style.c ****     if(deleted && prop != LV_STYLE_PROP_INV) {
 248:Lib/lvgl/src/core/lv_obj_style.c ****         full_cache_refresh(obj, part);
 249:Lib/lvgl/src/core/lv_obj_style.c ****         lv_obj_refresh_style(obj, part, prop);
 250:Lib/lvgl/src/core/lv_obj_style.c ****     }
 251:Lib/lvgl/src/core/lv_obj_style.c **** }
 252:Lib/lvgl/src/core/lv_obj_style.c **** 
 253:Lib/lvgl/src/core/lv_obj_style.c **** void lv_obj_remove_style_all(lv_obj_t * obj)
 254:Lib/lvgl/src/core/lv_obj_style.c **** {
 255:Lib/lvgl/src/core/lv_obj_style.c ****     lv_obj_remove_style(obj, NULL, LV_PART_ANY | LV_STATE_ANY);
 256:Lib/lvgl/src/core/lv_obj_style.c **** }
 257:Lib/lvgl/src/core/lv_obj_style.c **** 
 258:Lib/lvgl/src/core/lv_obj_style.c **** void lv_obj_report_style_change(lv_style_t * style)
 259:Lib/lvgl/src/core/lv_obj_style.c **** {
 260:Lib/lvgl/src/core/lv_obj_style.c ****     if(!style_refr) return;
 261:Lib/lvgl/src/core/lv_obj_style.c ****     lv_display_t * d = lv_display_get_next(NULL);
 262:Lib/lvgl/src/core/lv_obj_style.c **** 
 263:Lib/lvgl/src/core/lv_obj_style.c ****     while(d) {
 264:Lib/lvgl/src/core/lv_obj_style.c ****         uint32_t i;
 265:Lib/lvgl/src/core/lv_obj_style.c ****         for(i = 0; i < d->screen_cnt; i++) {
 266:Lib/lvgl/src/core/lv_obj_style.c ****             report_style_change_core(style, d->screens[i]);
 267:Lib/lvgl/src/core/lv_obj_style.c ****         }
 268:Lib/lvgl/src/core/lv_obj_style.c ****         d = lv_display_get_next(d);
 269:Lib/lvgl/src/core/lv_obj_style.c ****     }
 270:Lib/lvgl/src/core/lv_obj_style.c **** }
 271:Lib/lvgl/src/core/lv_obj_style.c **** 
 272:Lib/lvgl/src/core/lv_obj_style.c **** void lv_obj_refresh_style(lv_obj_t * obj, lv_style_selector_t selector, lv_style_prop_t prop)
 273:Lib/lvgl/src/core/lv_obj_style.c **** {
 274:Lib/lvgl/src/core/lv_obj_style.c ****     LV_ASSERT_OBJ(obj, MY_CLASS);
 275:Lib/lvgl/src/core/lv_obj_style.c **** 
 276:Lib/lvgl/src/core/lv_obj_style.c ****     if(!style_refr) return;
 277:Lib/lvgl/src/core/lv_obj_style.c **** 
 278:Lib/lvgl/src/core/lv_obj_style.c ****     lv_obj_invalidate(obj);
 279:Lib/lvgl/src/core/lv_obj_style.c **** 
 280:Lib/lvgl/src/core/lv_obj_style.c ****     lv_part_t part = lv_obj_style_get_selector_part(selector);
 281:Lib/lvgl/src/core/lv_obj_style.c **** 
 282:Lib/lvgl/src/core/lv_obj_style.c ****     bool is_layout_refr = lv_style_prop_has_flag(prop, LV_STYLE_PROP_FLAG_LAYOUT_UPDATE);
 283:Lib/lvgl/src/core/lv_obj_style.c ****     bool is_ext_draw = lv_style_prop_has_flag(prop, LV_STYLE_PROP_FLAG_EXT_DRAW_UPDATE);
ARM GAS  C:\Users\Alex\AppData\Local\Temp\ccdKwz1H.s 			page 27


 284:Lib/lvgl/src/core/lv_obj_style.c ****     bool is_inheritable = lv_style_prop_has_flag(prop, LV_STYLE_PROP_FLAG_INHERITABLE);
 285:Lib/lvgl/src/core/lv_obj_style.c ****     bool is_layer_refr = lv_style_prop_has_flag(prop, LV_STYLE_PROP_FLAG_LAYER_UPDATE);
 286:Lib/lvgl/src/core/lv_obj_style.c **** 
 287:Lib/lvgl/src/core/lv_obj_style.c ****     if(is_layout_refr) {
 288:Lib/lvgl/src/core/lv_obj_style.c ****         if(part == LV_PART_ANY ||
 289:Lib/lvgl/src/core/lv_obj_style.c ****            part == LV_PART_MAIN ||
 290:Lib/lvgl/src/core/lv_obj_style.c ****            lv_obj_get_style_height(obj, 0) == LV_SIZE_CONTENT ||
 291:Lib/lvgl/src/core/lv_obj_style.c ****            lv_obj_get_style_width(obj, 0) == LV_SIZE_CONTENT) {
 292:Lib/lvgl/src/core/lv_obj_style.c ****             lv_obj_send_event(obj, LV_EVENT_STYLE_CHANGED, NULL);
 293:Lib/lvgl/src/core/lv_obj_style.c ****             lv_obj_mark_layout_as_dirty(obj);
 294:Lib/lvgl/src/core/lv_obj_style.c ****         }
 295:Lib/lvgl/src/core/lv_obj_style.c ****     }
 296:Lib/lvgl/src/core/lv_obj_style.c ****     if((part == LV_PART_ANY || part == LV_PART_MAIN) && (prop == LV_STYLE_PROP_ANY || is_layout_ref
 297:Lib/lvgl/src/core/lv_obj_style.c ****         lv_obj_t * parent = lv_obj_get_parent(obj);
 298:Lib/lvgl/src/core/lv_obj_style.c ****         if(parent) lv_obj_mark_layout_as_dirty(parent);
 299:Lib/lvgl/src/core/lv_obj_style.c ****     }
 300:Lib/lvgl/src/core/lv_obj_style.c **** 
 301:Lib/lvgl/src/core/lv_obj_style.c ****     /*Cache the layer type*/
 302:Lib/lvgl/src/core/lv_obj_style.c ****     if((part == LV_PART_ANY || part == LV_PART_MAIN) && is_layer_refr) {
 303:Lib/lvgl/src/core/lv_obj_style.c ****         lv_layer_type_t layer_type = calculate_layer_type(obj);
 304:Lib/lvgl/src/core/lv_obj_style.c ****         if(obj->spec_attr) obj->spec_attr->layer_type = layer_type;
 305:Lib/lvgl/src/core/lv_obj_style.c ****         else if(layer_type != LV_LAYER_TYPE_NONE) {
 306:Lib/lvgl/src/core/lv_obj_style.c ****             lv_obj_allocate_spec_attr(obj);
 307:Lib/lvgl/src/core/lv_obj_style.c ****             obj->spec_attr->layer_type = layer_type;
 308:Lib/lvgl/src/core/lv_obj_style.c ****         }
 309:Lib/lvgl/src/core/lv_obj_style.c ****     }
 310:Lib/lvgl/src/core/lv_obj_style.c **** 
 311:Lib/lvgl/src/core/lv_obj_style.c ****     if(prop == LV_STYLE_PROP_ANY || is_ext_draw) {
 312:Lib/lvgl/src/core/lv_obj_style.c ****         lv_obj_refresh_ext_draw_size(obj);
 313:Lib/lvgl/src/core/lv_obj_style.c ****     }
 314:Lib/lvgl/src/core/lv_obj_style.c ****     lv_obj_invalidate(obj);
 315:Lib/lvgl/src/core/lv_obj_style.c **** 
 316:Lib/lvgl/src/core/lv_obj_style.c ****     if(prop == LV_STYLE_PROP_ANY || (is_inheritable && (is_ext_draw || is_layout_refr))) {
 317:Lib/lvgl/src/core/lv_obj_style.c ****         if(part != LV_PART_SCROLLBAR) {
 318:Lib/lvgl/src/core/lv_obj_style.c ****             refresh_children_style(obj);
 319:Lib/lvgl/src/core/lv_obj_style.c ****         }
 320:Lib/lvgl/src/core/lv_obj_style.c ****     }
 321:Lib/lvgl/src/core/lv_obj_style.c **** }
 322:Lib/lvgl/src/core/lv_obj_style.c **** 
 323:Lib/lvgl/src/core/lv_obj_style.c **** void lv_obj_enable_style_refresh(bool en)
 324:Lib/lvgl/src/core/lv_obj_style.c **** {
 325:Lib/lvgl/src/core/lv_obj_style.c ****     style_refr = en;
 326:Lib/lvgl/src/core/lv_obj_style.c **** }
 327:Lib/lvgl/src/core/lv_obj_style.c **** 
 328:Lib/lvgl/src/core/lv_obj_style.c **** static inline lv_style_value_t lv_style_prop_get_default_inlined(lv_style_prop_t prop)
 329:Lib/lvgl/src/core/lv_obj_style.c **** {
 333              		.loc 1 329 1 is_stmt 1 view -0
 334              		.cfi_startproc
 335              		@ args = 0, pretend = 0, frame = 8
 336              		@ frame_needed = 0, uses_anonymous_args = 0
 337              		@ link register save eliminated.
 338              		.loc 1 329 1 is_stmt 0 view .LVU89
 339 0000 82B0     		sub	sp, sp, #8
 340              	.LCFI5:
 341              		.cfi_def_cfa_offset 8
 330:Lib/lvgl/src/core/lv_obj_style.c ****     const lv_color_t black = LV_COLOR_MAKE(0x00, 0x00, 0x00);
 342              		.loc 1 330 5 is_stmt 1 view .LVU90
ARM GAS  C:\Users\Alex\AppData\Local\Temp\ccdKwz1H.s 			page 28


 343              		.loc 1 330 22 is_stmt 0 view .LVU91
 344 0002 0023     		movs	r3, #0
 345 0004 8DF80030 		strb	r3, [sp]
 346 0008 8DF80130 		strb	r3, [sp, #1]
 347 000c 8DF80230 		strb	r3, [sp, #2]
 331:Lib/lvgl/src/core/lv_obj_style.c ****     const lv_color_t white = LV_COLOR_MAKE(0xff, 0xff, 0xff);
 348              		.loc 1 331 5 is_stmt 1 view .LVU92
 332:Lib/lvgl/src/core/lv_obj_style.c ****     switch(prop) {
 349              		.loc 1 332 5 view .LVU93
 350 0010 3928     		cmp	r0, #57
 351 0012 3FD8     		bhi	.L19
 352 0014 2328     		cmp	r0, #35
 353 0016 2CD2     		bcs	.L20
 354 0018 2228     		cmp	r0, #34
 355 001a 53D8     		bhi	.L21
 356 001c 0528     		cmp	r0, #5
 357 001e 51D3     		bcc	.L21
 358 0020 0538     		subs	r0, r0, #5
 359              	.LVL21:
 360              		.loc 1 332 5 is_stmt 0 view .LVU94
 361 0022 1D28     		cmp	r0, #29
 362 0024 4ED8     		bhi	.L21
 363 0026 DFE800F0 		tbb	[pc, r0]
 364              	.L30:
 365 002a 68       		.byte	(.L32-.L30)/2
 366 002b 4D       		.byte	(.L21-.L30)/2
 367 002c 68       		.byte	(.L32-.L30)/2
 368 002d 4D       		.byte	(.L21-.L30)/2
 369 002e 4D       		.byte	(.L21-.L30)/2
 370 002f 4D       		.byte	(.L21-.L30)/2
 371 0030 4D       		.byte	(.L21-.L30)/2
 372 0031 4D       		.byte	(.L21-.L30)/2
 373 0032 4D       		.byte	(.L21-.L30)/2
 374 0033 4D       		.byte	(.L21-.L30)/2
 375 0034 4D       		.byte	(.L21-.L30)/2
 376 0035 4D       		.byte	(.L21-.L30)/2
 377 0036 4D       		.byte	(.L21-.L30)/2
 378 0037 4D       		.byte	(.L21-.L30)/2
 379 0038 4D       		.byte	(.L21-.L30)/2
 380 0039 4D       		.byte	(.L21-.L30)/2
 381 003a 4D       		.byte	(.L21-.L30)/2
 382 003b 4D       		.byte	(.L21-.L30)/2
 383 003c 4D       		.byte	(.L21-.L30)/2
 384 003d 4D       		.byte	(.L21-.L30)/2
 385 003e 4D       		.byte	(.L21-.L30)/2
 386 003f 4D       		.byte	(.L21-.L30)/2
 387 0040 4D       		.byte	(.L21-.L30)/2
 388 0041 56       		.byte	(.L31-.L30)/2
 389 0042 4D       		.byte	(.L21-.L30)/2
 390 0043 4D       		.byte	(.L21-.L30)/2
 391 0044 4D       		.byte	(.L21-.L30)/2
 392 0045 4D       		.byte	(.L21-.L30)/2
 393 0046 4D       		.byte	(.L21-.L30)/2
 394 0047 62       		.byte	(.L29-.L30)/2
 395              	.LVL22:
 396              		.p2align 1
 397              	.L42:
ARM GAS  C:\Users\Alex\AppData\Local\Temp\ccdKwz1H.s 			page 29


 398              		.loc 1 332 5 view .LVU95
 399 0048 3A38     		subs	r0, r0, #58
 400              	.LVL23:
 401              		.loc 1 332 5 view .LVU96
 402 004a C0B2     		uxtb	r0, r0
 403 004c 0123     		movs	r3, #1
 404 004e 8340     		lsls	r3, r3, r0
 405 0050 2C4A     		ldr	r2, .L43
 406 0052 1342     		tst	r3, r2
 407 0054 48D1     		bne	.L25
 408 0056 2C4A     		ldr	r2, .L43+4
 409 0058 1A40     		ands	r2, r2, r3
 410 005a 002A     		cmp	r2, #0
 411 005c 32D0     		beq	.L21
 412              	.L27:
 413              	.LBB180:
 333:Lib/lvgl/src/core/lv_obj_style.c ****         case LV_STYLE_TRANSFORM_SCALE_X:
 334:Lib/lvgl/src/core/lv_obj_style.c ****         case LV_STYLE_TRANSFORM_SCALE_Y:
 335:Lib/lvgl/src/core/lv_obj_style.c ****             return (lv_style_value_t) {
 336:Lib/lvgl/src/core/lv_obj_style.c ****                 .num = LV_SCALE_NONE
 337:Lib/lvgl/src/core/lv_obj_style.c ****             };
 338:Lib/lvgl/src/core/lv_obj_style.c ****         case LV_STYLE_BG_COLOR:
 339:Lib/lvgl/src/core/lv_obj_style.c ****             return (lv_style_value_t) {
 340:Lib/lvgl/src/core/lv_obj_style.c ****                 .color = black
 341:Lib/lvgl/src/core/lv_obj_style.c ****             };
 342:Lib/lvgl/src/core/lv_obj_style.c ****         case LV_STYLE_BG_GRAD_COLOR:
 343:Lib/lvgl/src/core/lv_obj_style.c ****         case LV_STYLE_BORDER_COLOR:
 344:Lib/lvgl/src/core/lv_obj_style.c ****         case LV_STYLE_SHADOW_COLOR:
 345:Lib/lvgl/src/core/lv_obj_style.c ****         case LV_STYLE_OUTLINE_COLOR:
 346:Lib/lvgl/src/core/lv_obj_style.c ****         case LV_STYLE_ARC_COLOR:
 347:Lib/lvgl/src/core/lv_obj_style.c ****         case LV_STYLE_LINE_COLOR:
 348:Lib/lvgl/src/core/lv_obj_style.c ****         case LV_STYLE_TEXT_COLOR:
 349:Lib/lvgl/src/core/lv_obj_style.c ****         case LV_STYLE_IMAGE_RECOLOR:
 350:Lib/lvgl/src/core/lv_obj_style.c ****             return (lv_style_value_t) {
 414              		.loc 1 350 13 is_stmt 1 view .LVU97
 415              		.loc 1 350 20 is_stmt 0 view .LVU98
 416 005e 0023     		movs	r3, #0
 417 0060 0193     		str	r3, [sp, #4]
 418 0062 2A4B     		ldr	r3, .L43+8
 419 0064 1B68     		ldr	r3, [r3]
 420 0066 ADF80430 		strh	r3, [sp, #4]	@ movhi
 421 006a 1B0C     		lsrs	r3, r3, #16
 422 006c 8DF80630 		strb	r3, [sp, #6]
 423 0070 2EE0     		b	.L36
 424              	.LVL24:
 425              	.L20:
 426              		.loc 1 350 20 view .LVU99
 427              	.LBE180:
 332:Lib/lvgl/src/core/lv_obj_style.c ****     switch(prop) {
 428              		.loc 1 332 5 view .LVU100
 429 0072 2338     		subs	r0, r0, #35
 430              	.LVL25:
 332:Lib/lvgl/src/core/lv_obj_style.c ****     switch(prop) {
 431              		.loc 1 332 5 view .LVU101
 432 0074 C0B2     		uxtb	r0, r0
 433 0076 0123     		movs	r3, #1
 434 0078 8340     		lsls	r3, r3, r0
ARM GAS  C:\Users\Alex\AppData\Local\Temp\ccdKwz1H.s 			page 30


 435 007a 48F24602 		movw	r2, #32838
 436 007e 1342     		tst	r3, r2
 437 0080 32D1     		bne	.L25
 438 0082 234A     		ldr	r2, .L43+12
 439 0084 1342     		tst	r3, r2
 440 0086 EAD1     		bne	.L27
 441 0088 13F4003F 		tst	r3, #131072
 442 008c 1AD0     		beq	.L21
 443              	.LBB181:
 351:Lib/lvgl/src/core/lv_obj_style.c ****                 .color = white
 352:Lib/lvgl/src/core/lv_obj_style.c ****             };
 353:Lib/lvgl/src/core/lv_obj_style.c ****         case LV_STYLE_OPA:
 354:Lib/lvgl/src/core/lv_obj_style.c ****         case LV_STYLE_OPA_LAYERED:
 355:Lib/lvgl/src/core/lv_obj_style.c ****         case LV_STYLE_BORDER_OPA:
 356:Lib/lvgl/src/core/lv_obj_style.c ****         case LV_STYLE_TEXT_OPA:
 357:Lib/lvgl/src/core/lv_obj_style.c ****         case LV_STYLE_IMAGE_OPA:
 358:Lib/lvgl/src/core/lv_obj_style.c ****         case LV_STYLE_BG_GRAD_OPA:
 359:Lib/lvgl/src/core/lv_obj_style.c ****         case LV_STYLE_BG_MAIN_OPA:
 360:Lib/lvgl/src/core/lv_obj_style.c ****         case LV_STYLE_BG_IMAGE_OPA:
 361:Lib/lvgl/src/core/lv_obj_style.c ****         case LV_STYLE_OUTLINE_OPA:
 362:Lib/lvgl/src/core/lv_obj_style.c ****         case LV_STYLE_SHADOW_OPA:
 363:Lib/lvgl/src/core/lv_obj_style.c ****         case LV_STYLE_LINE_OPA:
 364:Lib/lvgl/src/core/lv_obj_style.c ****         case LV_STYLE_ARC_OPA:
 365:Lib/lvgl/src/core/lv_obj_style.c ****             return (lv_style_value_t) {
 366:Lib/lvgl/src/core/lv_obj_style.c ****                 .num = LV_OPA_COVER
 367:Lib/lvgl/src/core/lv_obj_style.c ****             };
 368:Lib/lvgl/src/core/lv_obj_style.c ****         case LV_STYLE_BG_GRAD_STOP:
 369:Lib/lvgl/src/core/lv_obj_style.c ****             return (lv_style_value_t) {
 370:Lib/lvgl/src/core/lv_obj_style.c ****                 .num = 255
 371:Lib/lvgl/src/core/lv_obj_style.c ****             };
 372:Lib/lvgl/src/core/lv_obj_style.c ****         case LV_STYLE_BORDER_SIDE:
 373:Lib/lvgl/src/core/lv_obj_style.c ****             return (lv_style_value_t) {
 444              		.loc 1 373 13 is_stmt 1 view .LVU102
 445              		.loc 1 373 20 is_stmt 0 view .LVU103
 446 008e 0F23     		movs	r3, #15
 447 0090 0193     		str	r3, [sp, #4]
 448 0092 1DE0     		b	.L36
 449              	.LVL26:
 450              	.L19:
 451              		.loc 1 373 20 view .LVU104
 452              	.LBE181:
 332:Lib/lvgl/src/core/lv_obj_style.c ****         case LV_STYLE_TRANSFORM_SCALE_X:
 453              		.loc 1 332 5 view .LVU105
 454 0094 5828     		cmp	r0, #88
 455 0096 13D9     		bls	.L41
 456 0098 6D28     		cmp	r0, #109
 457 009a 13D8     		bhi	.L21
 458 009c 5928     		cmp	r0, #89
 459 009e 11D3     		bcc	.L21
 460 00a0 5938     		subs	r0, r0, #89
 461              	.LVL27:
 332:Lib/lvgl/src/core/lv_obj_style.c ****         case LV_STYLE_TRANSFORM_SCALE_X:
 462              		.loc 1 332 5 view .LVU106
 463 00a2 1428     		cmp	r0, #20
 464 00a4 0ED8     		bhi	.L21
 465 00a6 DFE800F0 		tbb	[pc, r0]
 466              	.L24:
ARM GAS  C:\Users\Alex\AppData\Local\Temp\ccdKwz1H.s 			page 31


 467 00aa 1F       		.byte	(.L25-.L24)/2
 468 00ab 25       		.byte	(.L26-.L24)/2
 469 00ac 0D       		.byte	(.L21-.L24)/2
 470 00ad 0D       		.byte	(.L21-.L24)/2
 471 00ae 0D       		.byte	(.L21-.L24)/2
 472 00af 0D       		.byte	(.L21-.L24)/2
 473 00b0 1F       		.byte	(.L25-.L24)/2
 474 00b1 1F       		.byte	(.L25-.L24)/2
 475 00b2 0D       		.byte	(.L21-.L24)/2
 476 00b3 0D       		.byte	(.L21-.L24)/2
 477 00b4 0D       		.byte	(.L21-.L24)/2
 478 00b5 0D       		.byte	(.L21-.L24)/2
 479 00b6 0D       		.byte	(.L21-.L24)/2
 480 00b7 0D       		.byte	(.L21-.L24)/2
 481 00b8 0D       		.byte	(.L21-.L24)/2
 482 00b9 0D       		.byte	(.L21-.L24)/2
 483 00ba 0D       		.byte	(.L21-.L24)/2
 484 00bb 0D       		.byte	(.L21-.L24)/2
 485 00bc 0D       		.byte	(.L21-.L24)/2
 486 00bd 10       		.byte	(.L23-.L24)/2
 487 00be 10       		.byte	(.L23-.L24)/2
 488              	.LVL28:
 489 00bf 00       		.p2align 1
 490              	.L41:
 332:Lib/lvgl/src/core/lv_obj_style.c ****         case LV_STYLE_TRANSFORM_SCALE_X:
 491              		.loc 1 332 5 view .LVU107
 492 00c0 3A28     		cmp	r0, #58
 493 00c2 C1D2     		bcs	.L42
 494              	.LVL29:
 495              	.L21:
 496              	.LBB182:
 374:Lib/lvgl/src/core/lv_obj_style.c ****                 .num = LV_BORDER_SIDE_FULL
 375:Lib/lvgl/src/core/lv_obj_style.c ****             };
 376:Lib/lvgl/src/core/lv_obj_style.c ****         case LV_STYLE_TEXT_FONT:
 377:Lib/lvgl/src/core/lv_obj_style.c ****             return (lv_style_value_t) {
 378:Lib/lvgl/src/core/lv_obj_style.c ****                 .ptr = LV_FONT_DEFAULT
 379:Lib/lvgl/src/core/lv_obj_style.c ****             };
 380:Lib/lvgl/src/core/lv_obj_style.c ****         case LV_STYLE_MAX_WIDTH:
 381:Lib/lvgl/src/core/lv_obj_style.c ****         case LV_STYLE_MAX_HEIGHT:
 382:Lib/lvgl/src/core/lv_obj_style.c ****             return (lv_style_value_t) {
 383:Lib/lvgl/src/core/lv_obj_style.c ****                 .num = LV_COORD_MAX
 384:Lib/lvgl/src/core/lv_obj_style.c ****             };
 385:Lib/lvgl/src/core/lv_obj_style.c ****         default:
 386:Lib/lvgl/src/core/lv_obj_style.c ****             return (lv_style_value_t) {
 497              		.loc 1 386 13 is_stmt 1 view .LVU108
 498              		.loc 1 386 20 is_stmt 0 view .LVU109
 499 00c4 0023     		movs	r3, #0
 500 00c6 0193     		str	r3, [sp, #4]
 501 00c8 02E0     		b	.L36
 502              	.L23:
 335:Lib/lvgl/src/core/lv_obj_style.c ****                 .num = LV_SCALE_NONE
 503              		.loc 1 335 13 is_stmt 1 view .LVU110
 335:Lib/lvgl/src/core/lv_obj_style.c ****                 .num = LV_SCALE_NONE
 504              		.loc 1 335 20 is_stmt 0 view .LVU111
 505 00ca 4FF48073 		mov	r3, #256
 506 00ce 0193     		str	r3, [sp, #4]
 507              	.L36:
ARM GAS  C:\Users\Alex\AppData\Local\Temp\ccdKwz1H.s 			page 32


 508              	.LBE182:
 387:Lib/lvgl/src/core/lv_obj_style.c ****                 .ptr = 0
 388:Lib/lvgl/src/core/lv_obj_style.c ****             };
 389:Lib/lvgl/src/core/lv_obj_style.c ****     }
 390:Lib/lvgl/src/core/lv_obj_style.c **** }
 509              		.loc 1 390 1 view .LVU112
 510 00d0 0198     		ldr	r0, [sp, #4]
 511 00d2 02B0     		add	sp, sp, #8
 512              	.LCFI6:
 513              		.cfi_remember_state
 514              		.cfi_def_cfa_offset 0
 515              		@ sp needed
 516 00d4 7047     		bx	lr
 517              	.L31:
 518              	.LCFI7:
 519              		.cfi_restore_state
 520              	.LBB183:
 339:Lib/lvgl/src/core/lv_obj_style.c ****                 .color = black
 521              		.loc 1 339 13 is_stmt 1 view .LVU113
 339:Lib/lvgl/src/core/lv_obj_style.c ****                 .color = black
 522              		.loc 1 339 20 is_stmt 0 view .LVU114
 523 00d6 0023     		movs	r3, #0
 524 00d8 0193     		str	r3, [sp, #4]
 525 00da 009B     		ldr	r3, [sp]
 526 00dc ADF80430 		strh	r3, [sp, #4]	@ movhi
 527 00e0 1B0C     		lsrs	r3, r3, #16
 528 00e2 8DF80630 		strb	r3, [sp, #6]
 529 00e6 F3E7     		b	.L36
 530              	.L25:
 365:Lib/lvgl/src/core/lv_obj_style.c ****                 .num = LV_OPA_COVER
 531              		.loc 1 365 13 is_stmt 1 view .LVU115
 365:Lib/lvgl/src/core/lv_obj_style.c ****                 .num = LV_OPA_COVER
 532              		.loc 1 365 20 is_stmt 0 view .LVU116
 533 00e8 FF23     		movs	r3, #255
 534 00ea 0193     		str	r3, [sp, #4]
 535 00ec F0E7     		b	.L36
 536              	.L29:
 369:Lib/lvgl/src/core/lv_obj_style.c ****                 .num = 255
 537              		.loc 1 369 13 is_stmt 1 view .LVU117
 369:Lib/lvgl/src/core/lv_obj_style.c ****                 .num = 255
 538              		.loc 1 369 20 is_stmt 0 view .LVU118
 539 00ee FF23     		movs	r3, #255
 540 00f0 0193     		str	r3, [sp, #4]
 541 00f2 EDE7     		b	.L36
 542              	.L26:
 377:Lib/lvgl/src/core/lv_obj_style.c ****                 .ptr = LV_FONT_DEFAULT
 543              		.loc 1 377 13 is_stmt 1 view .LVU119
 377:Lib/lvgl/src/core/lv_obj_style.c ****                 .ptr = LV_FONT_DEFAULT
 544              		.loc 1 377 20 is_stmt 0 view .LVU120
 545 00f4 074B     		ldr	r3, .L43+16
 546 00f6 0193     		str	r3, [sp, #4]
 547 00f8 EAE7     		b	.L36
 548              	.L32:
 382:Lib/lvgl/src/core/lv_obj_style.c ****                 .num = LV_COORD_MAX
 549              		.loc 1 382 13 is_stmt 1 view .LVU121
 382:Lib/lvgl/src/core/lv_obj_style.c ****                 .num = LV_COORD_MAX
 550              		.loc 1 382 20 is_stmt 0 view .LVU122
ARM GAS  C:\Users\Alex\AppData\Local\Temp\ccdKwz1H.s 			page 33


 551 00fa 6FF06043 		mvn	r3, #-536870912
 552 00fe 0193     		str	r3, [sp, #4]
 553 0100 E6E7     		b	.L36
 554              	.L44:
 555 0102 00BF     		.align	2
 556              	.L43:
 557 0104 11040802 		.word	34079761
 558 0108 08080441 		.word	1090783240
 559 010c 00000000 		.word	white.0
 560 0110 01404000 		.word	4210689
 561 0114 00000000 		.word	lv_font_montserrat_14
 562              	.LBE183:
 563              		.cfi_endproc
 564              	.LFE243:
 566              		.section	.text.get_prop_core,"ax",%progbits
 567              		.align	1
 568              		.syntax unified
 569              		.thumb
 570              		.thumb_func
 572              	get_prop_core:
 573              	.LVL30:
 574              	.LFB258:
 391:Lib/lvgl/src/core/lv_obj_style.c **** 
 392:Lib/lvgl/src/core/lv_obj_style.c **** lv_style_value_t lv_obj_get_style_prop(const lv_obj_t * obj, lv_part_t part, lv_style_prop_t prop)
 393:Lib/lvgl/src/core/lv_obj_style.c **** {
 394:Lib/lvgl/src/core/lv_obj_style.c ****     LV_ASSERT_NULL(obj)
 395:Lib/lvgl/src/core/lv_obj_style.c **** 
 396:Lib/lvgl/src/core/lv_obj_style.c ****     lv_style_selector_t selector = part | obj->state;
 397:Lib/lvgl/src/core/lv_obj_style.c ****     lv_style_value_t value_act = { .ptr = NULL };
 398:Lib/lvgl/src/core/lv_obj_style.c ****     lv_style_res_t found;
 399:Lib/lvgl/src/core/lv_obj_style.c **** 
 400:Lib/lvgl/src/core/lv_obj_style.c ****     found = get_selector_style_prop(obj, selector, prop, &value_act);
 401:Lib/lvgl/src/core/lv_obj_style.c ****     if(found == LV_STYLE_RES_FOUND) return value_act;
 402:Lib/lvgl/src/core/lv_obj_style.c **** 
 403:Lib/lvgl/src/core/lv_obj_style.c ****     return lv_style_prop_get_default_inlined(prop);
 404:Lib/lvgl/src/core/lv_obj_style.c **** }
 405:Lib/lvgl/src/core/lv_obj_style.c **** 
 406:Lib/lvgl/src/core/lv_obj_style.c **** bool lv_obj_has_style_prop(const lv_obj_t * obj, lv_style_selector_t selector, lv_style_prop_t prop
 407:Lib/lvgl/src/core/lv_obj_style.c **** {
 408:Lib/lvgl/src/core/lv_obj_style.c ****     LV_ASSERT_NULL(obj)
 409:Lib/lvgl/src/core/lv_obj_style.c **** 
 410:Lib/lvgl/src/core/lv_obj_style.c ****     lv_style_value_t value_act = { .ptr = NULL };
 411:Lib/lvgl/src/core/lv_obj_style.c ****     lv_style_res_t found;
 412:Lib/lvgl/src/core/lv_obj_style.c **** 
 413:Lib/lvgl/src/core/lv_obj_style.c ****     found = get_selector_style_prop(obj, selector, prop, &value_act);
 414:Lib/lvgl/src/core/lv_obj_style.c ****     if(found == LV_STYLE_RES_FOUND) return true;
 415:Lib/lvgl/src/core/lv_obj_style.c **** 
 416:Lib/lvgl/src/core/lv_obj_style.c ****     return false;
 417:Lib/lvgl/src/core/lv_obj_style.c **** }
 418:Lib/lvgl/src/core/lv_obj_style.c **** 
 419:Lib/lvgl/src/core/lv_obj_style.c **** void lv_obj_set_local_style_prop(lv_obj_t * obj, lv_style_prop_t prop, lv_style_value_t value,
 420:Lib/lvgl/src/core/lv_obj_style.c ****                                  lv_style_selector_t selector)
 421:Lib/lvgl/src/core/lv_obj_style.c **** {
 422:Lib/lvgl/src/core/lv_obj_style.c ****     lv_style_t * style = get_local_style(obj, selector);
 423:Lib/lvgl/src/core/lv_obj_style.c ****     if(selector == LV_PART_MAIN && lv_style_prop_has_flag(prop, LV_STYLE_PROP_FLAG_TRANSFORM)) {
 424:Lib/lvgl/src/core/lv_obj_style.c ****         lv_obj_invalidate(obj);
 425:Lib/lvgl/src/core/lv_obj_style.c ****     }
ARM GAS  C:\Users\Alex\AppData\Local\Temp\ccdKwz1H.s 			page 34


 426:Lib/lvgl/src/core/lv_obj_style.c **** 
 427:Lib/lvgl/src/core/lv_obj_style.c ****     lv_style_set_prop(style, prop, value);
 428:Lib/lvgl/src/core/lv_obj_style.c **** 
 429:Lib/lvgl/src/core/lv_obj_style.c **** #if LV_OBJ_STYLE_CACHE
 430:Lib/lvgl/src/core/lv_obj_style.c ****     uint32_t prop_shifted = STYLE_PROP_SHIFTED(prop);
 431:Lib/lvgl/src/core/lv_obj_style.c ****     if(lv_obj_style_get_selector_part(selector) == LV_PART_MAIN) {
 432:Lib/lvgl/src/core/lv_obj_style.c ****         obj->style_main_prop_is_set |= prop_shifted;
 433:Lib/lvgl/src/core/lv_obj_style.c ****     }
 434:Lib/lvgl/src/core/lv_obj_style.c ****     else {
 435:Lib/lvgl/src/core/lv_obj_style.c ****         obj->style_other_prop_is_set |= prop_shifted;
 436:Lib/lvgl/src/core/lv_obj_style.c ****     }
 437:Lib/lvgl/src/core/lv_obj_style.c **** #endif
 438:Lib/lvgl/src/core/lv_obj_style.c **** 
 439:Lib/lvgl/src/core/lv_obj_style.c ****     lv_obj_refresh_style(obj, selector, prop);
 440:Lib/lvgl/src/core/lv_obj_style.c **** }
 441:Lib/lvgl/src/core/lv_obj_style.c **** 
 442:Lib/lvgl/src/core/lv_obj_style.c **** lv_style_res_t lv_obj_get_local_style_prop(lv_obj_t * obj, lv_style_prop_t prop, lv_style_value_t *
 443:Lib/lvgl/src/core/lv_obj_style.c ****                                            lv_style_selector_t selector)
 444:Lib/lvgl/src/core/lv_obj_style.c **** {
 445:Lib/lvgl/src/core/lv_obj_style.c ****     uint32_t i;
 446:Lib/lvgl/src/core/lv_obj_style.c ****     for(i = 0; i < obj->style_cnt; i++) {
 447:Lib/lvgl/src/core/lv_obj_style.c ****         if(obj->styles[i].is_local &&
 448:Lib/lvgl/src/core/lv_obj_style.c ****            obj->styles[i].selector == selector) {
 449:Lib/lvgl/src/core/lv_obj_style.c ****             return lv_style_get_prop(obj->styles[i].style, prop, value);
 450:Lib/lvgl/src/core/lv_obj_style.c ****         }
 451:Lib/lvgl/src/core/lv_obj_style.c ****     }
 452:Lib/lvgl/src/core/lv_obj_style.c **** 
 453:Lib/lvgl/src/core/lv_obj_style.c ****     return LV_STYLE_RES_NOT_FOUND;
 454:Lib/lvgl/src/core/lv_obj_style.c **** }
 455:Lib/lvgl/src/core/lv_obj_style.c **** 
 456:Lib/lvgl/src/core/lv_obj_style.c **** bool lv_obj_remove_local_style_prop(lv_obj_t * obj, lv_style_prop_t prop, lv_style_selector_t selec
 457:Lib/lvgl/src/core/lv_obj_style.c **** {
 458:Lib/lvgl/src/core/lv_obj_style.c ****     LV_ASSERT_OBJ(obj, MY_CLASS);
 459:Lib/lvgl/src/core/lv_obj_style.c **** 
 460:Lib/lvgl/src/core/lv_obj_style.c ****     uint32_t i;
 461:Lib/lvgl/src/core/lv_obj_style.c ****     /*Find the style*/
 462:Lib/lvgl/src/core/lv_obj_style.c ****     for(i = 0; i < obj->style_cnt; i++) {
 463:Lib/lvgl/src/core/lv_obj_style.c ****         if(obj->styles[i].is_local &&
 464:Lib/lvgl/src/core/lv_obj_style.c ****            obj->styles[i].selector == selector) {
 465:Lib/lvgl/src/core/lv_obj_style.c ****             break;
 466:Lib/lvgl/src/core/lv_obj_style.c ****         }
 467:Lib/lvgl/src/core/lv_obj_style.c ****     }
 468:Lib/lvgl/src/core/lv_obj_style.c **** 
 469:Lib/lvgl/src/core/lv_obj_style.c ****     /*The style is not found*/
 470:Lib/lvgl/src/core/lv_obj_style.c ****     if(i == obj->style_cnt) return false;
 471:Lib/lvgl/src/core/lv_obj_style.c **** 
 472:Lib/lvgl/src/core/lv_obj_style.c ****     lv_result_t res = lv_style_remove_prop((lv_style_t *)obj->styles[i].style, prop);
 473:Lib/lvgl/src/core/lv_obj_style.c ****     if(res == LV_RESULT_OK) {
 474:Lib/lvgl/src/core/lv_obj_style.c ****         full_cache_refresh(obj, lv_obj_style_get_selector_part(selector));
 475:Lib/lvgl/src/core/lv_obj_style.c ****         lv_obj_refresh_style(obj, selector, prop);
 476:Lib/lvgl/src/core/lv_obj_style.c ****     }
 477:Lib/lvgl/src/core/lv_obj_style.c **** 
 478:Lib/lvgl/src/core/lv_obj_style.c ****     return res;
 479:Lib/lvgl/src/core/lv_obj_style.c **** }
 480:Lib/lvgl/src/core/lv_obj_style.c **** 
 481:Lib/lvgl/src/core/lv_obj_style.c **** void _lv_obj_style_create_transition(lv_obj_t * obj, lv_part_t part, lv_state_t prev_state, lv_stat
 482:Lib/lvgl/src/core/lv_obj_style.c ****                                      const _lv_obj_style_transition_dsc_t * tr_dsc)
ARM GAS  C:\Users\Alex\AppData\Local\Temp\ccdKwz1H.s 			page 35


 483:Lib/lvgl/src/core/lv_obj_style.c **** {
 484:Lib/lvgl/src/core/lv_obj_style.c ****     trans_t * tr;
 485:Lib/lvgl/src/core/lv_obj_style.c **** 
 486:Lib/lvgl/src/core/lv_obj_style.c ****     /*Get the previous and current values*/
 487:Lib/lvgl/src/core/lv_obj_style.c ****     obj->skip_trans = 1;
 488:Lib/lvgl/src/core/lv_obj_style.c ****     obj->state = prev_state;
 489:Lib/lvgl/src/core/lv_obj_style.c ****     lv_style_value_t v1 = lv_obj_get_style_prop(obj, part, tr_dsc->prop);
 490:Lib/lvgl/src/core/lv_obj_style.c ****     obj->state = new_state;
 491:Lib/lvgl/src/core/lv_obj_style.c ****     lv_style_value_t v2 = lv_obj_get_style_prop(obj, part, tr_dsc->prop);
 492:Lib/lvgl/src/core/lv_obj_style.c ****     obj->skip_trans = 0;
 493:Lib/lvgl/src/core/lv_obj_style.c **** 
 494:Lib/lvgl/src/core/lv_obj_style.c ****     if(v1.ptr == v2.ptr && v1.num == v2.num && lv_color_eq(v1.color, v2.color))  return;
 495:Lib/lvgl/src/core/lv_obj_style.c ****     obj->state = prev_state;
 496:Lib/lvgl/src/core/lv_obj_style.c ****     v1 = lv_obj_get_style_prop(obj, part, tr_dsc->prop);
 497:Lib/lvgl/src/core/lv_obj_style.c ****     obj->state = new_state;
 498:Lib/lvgl/src/core/lv_obj_style.c **** 
 499:Lib/lvgl/src/core/lv_obj_style.c ****     _lv_obj_style_t * style_trans = get_trans_style(obj, part);
 500:Lib/lvgl/src/core/lv_obj_style.c ****     lv_style_set_prop((lv_style_t *)style_trans->style, tr_dsc->prop, v1);  /*Be sure `trans_style`
 501:Lib/lvgl/src/core/lv_obj_style.c **** 
 502:Lib/lvgl/src/core/lv_obj_style.c ****     if(tr_dsc->prop == LV_STYLE_RADIUS) {
 503:Lib/lvgl/src/core/lv_obj_style.c ****         if(v1.num == LV_RADIUS_CIRCLE || v2.num == LV_RADIUS_CIRCLE) {
 504:Lib/lvgl/src/core/lv_obj_style.c ****             int32_t whalf = lv_obj_get_width(obj) / 2;
 505:Lib/lvgl/src/core/lv_obj_style.c ****             int32_t hhalf = lv_obj_get_height(obj) / 2;
 506:Lib/lvgl/src/core/lv_obj_style.c ****             if(v1.num == LV_RADIUS_CIRCLE) v1.num = LV_MIN(whalf + 1, hhalf + 1);
 507:Lib/lvgl/src/core/lv_obj_style.c ****             if(v2.num == LV_RADIUS_CIRCLE) v2.num = LV_MIN(whalf + 1, hhalf + 1);
 508:Lib/lvgl/src/core/lv_obj_style.c ****         }
 509:Lib/lvgl/src/core/lv_obj_style.c ****     }
 510:Lib/lvgl/src/core/lv_obj_style.c **** 
 511:Lib/lvgl/src/core/lv_obj_style.c ****     tr = _lv_ll_ins_head(style_trans_ll_p);
 512:Lib/lvgl/src/core/lv_obj_style.c ****     LV_ASSERT_MALLOC(tr);
 513:Lib/lvgl/src/core/lv_obj_style.c ****     if(tr == NULL) return;
 514:Lib/lvgl/src/core/lv_obj_style.c ****     tr->start_value = v1;
 515:Lib/lvgl/src/core/lv_obj_style.c ****     tr->end_value = v2;
 516:Lib/lvgl/src/core/lv_obj_style.c ****     tr->obj = obj;
 517:Lib/lvgl/src/core/lv_obj_style.c ****     tr->prop = tr_dsc->prop;
 518:Lib/lvgl/src/core/lv_obj_style.c ****     tr->selector = part;
 519:Lib/lvgl/src/core/lv_obj_style.c **** 
 520:Lib/lvgl/src/core/lv_obj_style.c ****     lv_anim_t a;
 521:Lib/lvgl/src/core/lv_obj_style.c ****     lv_anim_init(&a);
 522:Lib/lvgl/src/core/lv_obj_style.c ****     lv_anim_set_var(&a, tr);
 523:Lib/lvgl/src/core/lv_obj_style.c ****     lv_anim_set_exec_cb(&a, trans_anim_cb);
 524:Lib/lvgl/src/core/lv_obj_style.c ****     lv_anim_set_start_cb(&a, trans_anim_start_cb);
 525:Lib/lvgl/src/core/lv_obj_style.c ****     lv_anim_set_completed_cb(&a, trans_anim_completed_cb);
 526:Lib/lvgl/src/core/lv_obj_style.c ****     lv_anim_set_values(&a, 0x00, 0xFF);
 527:Lib/lvgl/src/core/lv_obj_style.c ****     lv_anim_set_duration(&a, tr_dsc->time);
 528:Lib/lvgl/src/core/lv_obj_style.c ****     lv_anim_set_delay(&a, tr_dsc->delay);
 529:Lib/lvgl/src/core/lv_obj_style.c ****     lv_anim_set_path_cb(&a, tr_dsc->path_cb);
 530:Lib/lvgl/src/core/lv_obj_style.c ****     lv_anim_set_early_apply(&a, false);
 531:Lib/lvgl/src/core/lv_obj_style.c ****     lv_anim_set_user_data(&a, tr_dsc->user_data);
 532:Lib/lvgl/src/core/lv_obj_style.c ****     lv_anim_start(&a);
 533:Lib/lvgl/src/core/lv_obj_style.c **** }
 534:Lib/lvgl/src/core/lv_obj_style.c **** 
 535:Lib/lvgl/src/core/lv_obj_style.c **** lv_style_value_t _lv_obj_style_apply_color_filter(const lv_obj_t * obj, uint32_t part, lv_style_val
 536:Lib/lvgl/src/core/lv_obj_style.c **** {
 537:Lib/lvgl/src/core/lv_obj_style.c ****     if(obj == NULL) return v;
 538:Lib/lvgl/src/core/lv_obj_style.c ****     const lv_color_filter_dsc_t * f = lv_obj_get_style_color_filter_dsc(obj, part);
 539:Lib/lvgl/src/core/lv_obj_style.c ****     if(f && f->filter_cb) {
ARM GAS  C:\Users\Alex\AppData\Local\Temp\ccdKwz1H.s 			page 36


 540:Lib/lvgl/src/core/lv_obj_style.c ****         lv_opa_t f_opa = lv_obj_get_style_color_filter_opa(obj, part);
 541:Lib/lvgl/src/core/lv_obj_style.c ****         if(f_opa != 0) v.color = f->filter_cb(f, v.color, f_opa);
 542:Lib/lvgl/src/core/lv_obj_style.c ****     }
 543:Lib/lvgl/src/core/lv_obj_style.c ****     return v;
 544:Lib/lvgl/src/core/lv_obj_style.c **** }
 545:Lib/lvgl/src/core/lv_obj_style.c **** 
 546:Lib/lvgl/src/core/lv_obj_style.c **** _lv_style_state_cmp_t _lv_obj_style_state_compare(lv_obj_t * obj, lv_state_t state1, lv_state_t sta
 547:Lib/lvgl/src/core/lv_obj_style.c **** {
 548:Lib/lvgl/src/core/lv_obj_style.c ****     _lv_style_state_cmp_t res = _LV_STYLE_STATE_CMP_SAME;
 549:Lib/lvgl/src/core/lv_obj_style.c **** 
 550:Lib/lvgl/src/core/lv_obj_style.c ****     /*Are there any new styles for the new state?*/
 551:Lib/lvgl/src/core/lv_obj_style.c ****     uint32_t i;
 552:Lib/lvgl/src/core/lv_obj_style.c ****     for(i = 0; i < obj->style_cnt; i++) {
 553:Lib/lvgl/src/core/lv_obj_style.c ****         if(obj->styles[i].is_trans) continue;
 554:Lib/lvgl/src/core/lv_obj_style.c **** 
 555:Lib/lvgl/src/core/lv_obj_style.c ****         lv_state_t state_act = lv_obj_style_get_selector_state(obj->styles[i].selector);
 556:Lib/lvgl/src/core/lv_obj_style.c ****         /*The style is valid for a state but not the other*/
 557:Lib/lvgl/src/core/lv_obj_style.c ****         bool valid1 = state_act & (~state1) ? false : true;
 558:Lib/lvgl/src/core/lv_obj_style.c ****         bool valid2 = state_act & (~state2) ? false : true;
 559:Lib/lvgl/src/core/lv_obj_style.c ****         if(valid1 != valid2) {
 560:Lib/lvgl/src/core/lv_obj_style.c ****             const lv_style_t * style = obj->styles[i].style;
 561:Lib/lvgl/src/core/lv_obj_style.c ****             lv_style_value_t v;
 562:Lib/lvgl/src/core/lv_obj_style.c ****             /*If there is layout difference on the main part, return immediately. There is no more 
 563:Lib/lvgl/src/core/lv_obj_style.c ****             bool layout_diff = false;
 564:Lib/lvgl/src/core/lv_obj_style.c ****             if(lv_style_get_prop(style, LV_STYLE_PAD_TOP, &v))layout_diff = true;
 565:Lib/lvgl/src/core/lv_obj_style.c ****             else if(lv_style_get_prop(style, LV_STYLE_PAD_BOTTOM, &v)) layout_diff = true;
 566:Lib/lvgl/src/core/lv_obj_style.c ****             else if(lv_style_get_prop(style, LV_STYLE_PAD_LEFT, &v)) layout_diff = true;
 567:Lib/lvgl/src/core/lv_obj_style.c ****             else if(lv_style_get_prop(style, LV_STYLE_PAD_RIGHT, &v)) layout_diff = true;
 568:Lib/lvgl/src/core/lv_obj_style.c ****             else if(lv_style_get_prop(style, LV_STYLE_PAD_COLUMN, &v)) layout_diff = true;
 569:Lib/lvgl/src/core/lv_obj_style.c ****             else if(lv_style_get_prop(style, LV_STYLE_PAD_ROW, &v)) layout_diff = true;
 570:Lib/lvgl/src/core/lv_obj_style.c ****             else if(lv_style_get_prop(style, LV_STYLE_LAYOUT, &v)) layout_diff = true;
 571:Lib/lvgl/src/core/lv_obj_style.c ****             else if(lv_style_get_prop(style, LV_STYLE_TRANSLATE_X, &v)) layout_diff = true;
 572:Lib/lvgl/src/core/lv_obj_style.c ****             else if(lv_style_get_prop(style, LV_STYLE_TRANSLATE_Y, &v)) layout_diff = true;
 573:Lib/lvgl/src/core/lv_obj_style.c ****             else if(lv_style_get_prop(style, LV_STYLE_WIDTH, &v)) layout_diff = true;
 574:Lib/lvgl/src/core/lv_obj_style.c ****             else if(lv_style_get_prop(style, LV_STYLE_HEIGHT, &v)) layout_diff = true;
 575:Lib/lvgl/src/core/lv_obj_style.c ****             else if(lv_style_get_prop(style, LV_STYLE_MIN_WIDTH, &v)) layout_diff = true;
 576:Lib/lvgl/src/core/lv_obj_style.c ****             else if(lv_style_get_prop(style, LV_STYLE_MAX_WIDTH, &v)) layout_diff = true;
 577:Lib/lvgl/src/core/lv_obj_style.c ****             else if(lv_style_get_prop(style, LV_STYLE_MIN_HEIGHT, &v)) layout_diff = true;
 578:Lib/lvgl/src/core/lv_obj_style.c ****             else if(lv_style_get_prop(style, LV_STYLE_MAX_HEIGHT, &v)) layout_diff = true;
 579:Lib/lvgl/src/core/lv_obj_style.c ****             else if(lv_style_get_prop(style, LV_STYLE_BORDER_WIDTH, &v)) layout_diff = true;
 580:Lib/lvgl/src/core/lv_obj_style.c **** 
 581:Lib/lvgl/src/core/lv_obj_style.c ****             if(layout_diff) {
 582:Lib/lvgl/src/core/lv_obj_style.c ****                 return _LV_STYLE_STATE_CMP_DIFF_LAYOUT;
 583:Lib/lvgl/src/core/lv_obj_style.c ****             }
 584:Lib/lvgl/src/core/lv_obj_style.c **** 
 585:Lib/lvgl/src/core/lv_obj_style.c ****             /*Check for draw pad changes*/
 586:Lib/lvgl/src/core/lv_obj_style.c ****             if(lv_style_get_prop(style, LV_STYLE_TRANSFORM_WIDTH, &v)) res = _LV_STYLE_STATE_CMP_DI
 587:Lib/lvgl/src/core/lv_obj_style.c ****             else if(lv_style_get_prop(style, LV_STYLE_TRANSFORM_HEIGHT, &v)) res = _LV_STYLE_STATE_
 588:Lib/lvgl/src/core/lv_obj_style.c ****             else if(lv_style_get_prop(style, LV_STYLE_TRANSFORM_ROTATION, &v)) res = _LV_STYLE_STAT
 589:Lib/lvgl/src/core/lv_obj_style.c ****             else if(lv_style_get_prop(style, LV_STYLE_TRANSFORM_SCALE_X, &v)) res = _LV_STYLE_STATE
 590:Lib/lvgl/src/core/lv_obj_style.c ****             else if(lv_style_get_prop(style, LV_STYLE_TRANSFORM_SCALE_Y, &v)) res = _LV_STYLE_STATE
 591:Lib/lvgl/src/core/lv_obj_style.c ****             else if(lv_style_get_prop(style, LV_STYLE_OUTLINE_OPA, &v)) res = _LV_STYLE_STATE_CMP_D
 592:Lib/lvgl/src/core/lv_obj_style.c ****             else if(lv_style_get_prop(style, LV_STYLE_OUTLINE_PAD, &v)) res = _LV_STYLE_STATE_CMP_D
 593:Lib/lvgl/src/core/lv_obj_style.c ****             else if(lv_style_get_prop(style, LV_STYLE_OUTLINE_WIDTH, &v)) res = _LV_STYLE_STATE_CMP
 594:Lib/lvgl/src/core/lv_obj_style.c ****             else if(lv_style_get_prop(style, LV_STYLE_SHADOW_WIDTH, &v)) res = _LV_STYLE_STATE_CMP_
 595:Lib/lvgl/src/core/lv_obj_style.c ****             else if(lv_style_get_prop(style, LV_STYLE_SHADOW_OPA, &v)) res = _LV_STYLE_STATE_CMP_DI
 596:Lib/lvgl/src/core/lv_obj_style.c ****             else if(lv_style_get_prop(style, LV_STYLE_SHADOW_OFFSET_X, &v)) res = _LV_STYLE_STATE_C
ARM GAS  C:\Users\Alex\AppData\Local\Temp\ccdKwz1H.s 			page 37


 597:Lib/lvgl/src/core/lv_obj_style.c ****             else if(lv_style_get_prop(style, LV_STYLE_SHADOW_OFFSET_Y, &v)) res = _LV_STYLE_STATE_C
 598:Lib/lvgl/src/core/lv_obj_style.c ****             else if(lv_style_get_prop(style, LV_STYLE_SHADOW_SPREAD, &v)) res = _LV_STYLE_STATE_CMP
 599:Lib/lvgl/src/core/lv_obj_style.c ****             else if(lv_style_get_prop(style, LV_STYLE_LINE_WIDTH, &v)) res = _LV_STYLE_STATE_CMP_DI
 600:Lib/lvgl/src/core/lv_obj_style.c ****             else if(res == _LV_STYLE_STATE_CMP_SAME) res = _LV_STYLE_STATE_CMP_DIFF_REDRAW;
 601:Lib/lvgl/src/core/lv_obj_style.c ****         }
 602:Lib/lvgl/src/core/lv_obj_style.c ****     }
 603:Lib/lvgl/src/core/lv_obj_style.c **** 
 604:Lib/lvgl/src/core/lv_obj_style.c ****     return res;
 605:Lib/lvgl/src/core/lv_obj_style.c **** }
 606:Lib/lvgl/src/core/lv_obj_style.c **** 
 607:Lib/lvgl/src/core/lv_obj_style.c **** void lv_obj_fade_in(lv_obj_t * obj, uint32_t time, uint32_t delay)
 608:Lib/lvgl/src/core/lv_obj_style.c **** {
 609:Lib/lvgl/src/core/lv_obj_style.c ****     lv_anim_t a;
 610:Lib/lvgl/src/core/lv_obj_style.c ****     lv_anim_init(&a);
 611:Lib/lvgl/src/core/lv_obj_style.c ****     lv_anim_set_var(&a, obj);
 612:Lib/lvgl/src/core/lv_obj_style.c ****     lv_anim_set_values(&a, 0, LV_OPA_COVER);
 613:Lib/lvgl/src/core/lv_obj_style.c ****     lv_anim_set_exec_cb(&a, fade_anim_cb);
 614:Lib/lvgl/src/core/lv_obj_style.c ****     lv_anim_set_completed_cb(&a, fade_in_anim_completed);
 615:Lib/lvgl/src/core/lv_obj_style.c ****     lv_anim_set_duration(&a, time);
 616:Lib/lvgl/src/core/lv_obj_style.c ****     lv_anim_set_delay(&a, delay);
 617:Lib/lvgl/src/core/lv_obj_style.c ****     lv_anim_start(&a);
 618:Lib/lvgl/src/core/lv_obj_style.c **** }
 619:Lib/lvgl/src/core/lv_obj_style.c **** 
 620:Lib/lvgl/src/core/lv_obj_style.c **** void lv_obj_fade_out(lv_obj_t * obj, uint32_t time, uint32_t delay)
 621:Lib/lvgl/src/core/lv_obj_style.c **** {
 622:Lib/lvgl/src/core/lv_obj_style.c ****     lv_anim_t a;
 623:Lib/lvgl/src/core/lv_obj_style.c ****     lv_anim_init(&a);
 624:Lib/lvgl/src/core/lv_obj_style.c ****     lv_anim_set_var(&a, obj);
 625:Lib/lvgl/src/core/lv_obj_style.c ****     lv_anim_set_values(&a, lv_obj_get_style_opa(obj, 0), LV_OPA_TRANSP);
 626:Lib/lvgl/src/core/lv_obj_style.c ****     lv_anim_set_exec_cb(&a, fade_anim_cb);
 627:Lib/lvgl/src/core/lv_obj_style.c ****     lv_anim_set_duration(&a, time);
 628:Lib/lvgl/src/core/lv_obj_style.c ****     lv_anim_set_delay(&a, delay);
 629:Lib/lvgl/src/core/lv_obj_style.c ****     lv_anim_start(&a);
 630:Lib/lvgl/src/core/lv_obj_style.c **** }
 631:Lib/lvgl/src/core/lv_obj_style.c **** 
 632:Lib/lvgl/src/core/lv_obj_style.c **** lv_text_align_t lv_obj_calculate_style_text_align(const lv_obj_t * obj, lv_part_t part, const char 
 633:Lib/lvgl/src/core/lv_obj_style.c **** {
 634:Lib/lvgl/src/core/lv_obj_style.c ****     lv_text_align_t align = lv_obj_get_style_text_align(obj, part);
 635:Lib/lvgl/src/core/lv_obj_style.c ****     lv_base_dir_t base_dir = lv_obj_get_style_base_dir(obj, part);
 636:Lib/lvgl/src/core/lv_obj_style.c ****     lv_bidi_calculate_align(&align, &base_dir, txt);
 637:Lib/lvgl/src/core/lv_obj_style.c ****     return align;
 638:Lib/lvgl/src/core/lv_obj_style.c **** }
 639:Lib/lvgl/src/core/lv_obj_style.c **** 
 640:Lib/lvgl/src/core/lv_obj_style.c **** lv_opa_t lv_obj_get_style_opa_recursive(const lv_obj_t * obj, lv_part_t part)
 641:Lib/lvgl/src/core/lv_obj_style.c **** {
 642:Lib/lvgl/src/core/lv_obj_style.c **** 
 643:Lib/lvgl/src/core/lv_obj_style.c ****     lv_opa_t opa_obj = lv_obj_get_style_opa(obj, part);
 644:Lib/lvgl/src/core/lv_obj_style.c ****     if(opa_obj <= LV_OPA_MIN) return LV_OPA_TRANSP;
 645:Lib/lvgl/src/core/lv_obj_style.c **** 
 646:Lib/lvgl/src/core/lv_obj_style.c ****     lv_opa_t opa_final = LV_OPA_COVER;
 647:Lib/lvgl/src/core/lv_obj_style.c ****     if(opa_obj < LV_OPA_MAX) {
 648:Lib/lvgl/src/core/lv_obj_style.c ****         opa_final = LV_OPA_MIX2(opa_final, opa_obj);
 649:Lib/lvgl/src/core/lv_obj_style.c ****     }
 650:Lib/lvgl/src/core/lv_obj_style.c **** 
 651:Lib/lvgl/src/core/lv_obj_style.c ****     if(part != LV_PART_MAIN) {
 652:Lib/lvgl/src/core/lv_obj_style.c ****         part = LV_PART_MAIN;
 653:Lib/lvgl/src/core/lv_obj_style.c ****     }
ARM GAS  C:\Users\Alex\AppData\Local\Temp\ccdKwz1H.s 			page 38


 654:Lib/lvgl/src/core/lv_obj_style.c ****     else {
 655:Lib/lvgl/src/core/lv_obj_style.c ****         obj = lv_obj_get_parent(obj);
 656:Lib/lvgl/src/core/lv_obj_style.c ****     }
 657:Lib/lvgl/src/core/lv_obj_style.c **** 
 658:Lib/lvgl/src/core/lv_obj_style.c ****     while(obj) {
 659:Lib/lvgl/src/core/lv_obj_style.c ****         opa_obj = lv_obj_get_style_opa(obj, part);
 660:Lib/lvgl/src/core/lv_obj_style.c ****         if(opa_obj <= LV_OPA_MIN) return LV_OPA_TRANSP;
 661:Lib/lvgl/src/core/lv_obj_style.c ****         if(opa_obj < LV_OPA_MAX) {
 662:Lib/lvgl/src/core/lv_obj_style.c ****             opa_final = LV_OPA_MIX2(opa_final, opa_obj);
 663:Lib/lvgl/src/core/lv_obj_style.c ****         }
 664:Lib/lvgl/src/core/lv_obj_style.c **** 
 665:Lib/lvgl/src/core/lv_obj_style.c ****         obj = lv_obj_get_parent(obj);
 666:Lib/lvgl/src/core/lv_obj_style.c ****     }
 667:Lib/lvgl/src/core/lv_obj_style.c **** 
 668:Lib/lvgl/src/core/lv_obj_style.c ****     if(opa_final <= LV_OPA_MIN) return LV_OPA_TRANSP;
 669:Lib/lvgl/src/core/lv_obj_style.c ****     if(opa_final >= LV_OPA_MAX) return LV_OPA_COVER;
 670:Lib/lvgl/src/core/lv_obj_style.c ****     return opa_final;
 671:Lib/lvgl/src/core/lv_obj_style.c **** }
 672:Lib/lvgl/src/core/lv_obj_style.c **** 
 673:Lib/lvgl/src/core/lv_obj_style.c **** /**********************
 674:Lib/lvgl/src/core/lv_obj_style.c ****  *   STATIC FUNCTIONS
 675:Lib/lvgl/src/core/lv_obj_style.c ****  **********************/
 676:Lib/lvgl/src/core/lv_obj_style.c **** 
 677:Lib/lvgl/src/core/lv_obj_style.c **** /**
 678:Lib/lvgl/src/core/lv_obj_style.c ****  * Get the local style of an object for a given part and for a given state.
 679:Lib/lvgl/src/core/lv_obj_style.c ****  * If the local style for the part-state pair doesn't exist allocate and return it.
 680:Lib/lvgl/src/core/lv_obj_style.c ****  * @param obj pointer to an object
 681:Lib/lvgl/src/core/lv_obj_style.c ****  * @param selector OR-ed value of parts and state for which the style should be get
 682:Lib/lvgl/src/core/lv_obj_style.c ****  * @return pointer to the local style
 683:Lib/lvgl/src/core/lv_obj_style.c ****  */
 684:Lib/lvgl/src/core/lv_obj_style.c **** static lv_style_t * get_local_style(lv_obj_t * obj, lv_style_selector_t selector)
 685:Lib/lvgl/src/core/lv_obj_style.c **** {
 686:Lib/lvgl/src/core/lv_obj_style.c ****     uint32_t i;
 687:Lib/lvgl/src/core/lv_obj_style.c ****     for(i = 0; i < obj->style_cnt; i++) {
 688:Lib/lvgl/src/core/lv_obj_style.c ****         if(obj->styles[i].is_local &&
 689:Lib/lvgl/src/core/lv_obj_style.c ****            obj->styles[i].selector == selector) {
 690:Lib/lvgl/src/core/lv_obj_style.c ****             return (lv_style_t *)obj->styles[i].style;
 691:Lib/lvgl/src/core/lv_obj_style.c ****         }
 692:Lib/lvgl/src/core/lv_obj_style.c ****     }
 693:Lib/lvgl/src/core/lv_obj_style.c **** 
 694:Lib/lvgl/src/core/lv_obj_style.c ****     obj->style_cnt++;
 695:Lib/lvgl/src/core/lv_obj_style.c ****     LV_ASSERT(obj->style_cnt != 0);
 696:Lib/lvgl/src/core/lv_obj_style.c ****     obj->styles = lv_realloc(obj->styles, obj->style_cnt * sizeof(_lv_obj_style_t));
 697:Lib/lvgl/src/core/lv_obj_style.c ****     LV_ASSERT_MALLOC(obj->styles);
 698:Lib/lvgl/src/core/lv_obj_style.c **** 
 699:Lib/lvgl/src/core/lv_obj_style.c ****     for(i = obj->style_cnt - 1; i > 0 ; i--) {
 700:Lib/lvgl/src/core/lv_obj_style.c ****         /*Copy only normal styles (not local and transition).
 701:Lib/lvgl/src/core/lv_obj_style.c ****          *The new local style will be added as the last local style*/
 702:Lib/lvgl/src/core/lv_obj_style.c ****         if(obj->styles[i - 1].is_local || obj->styles[i - 1].is_trans) break;
 703:Lib/lvgl/src/core/lv_obj_style.c ****         obj->styles[i] = obj->styles[i - 1];
 704:Lib/lvgl/src/core/lv_obj_style.c ****     }
 705:Lib/lvgl/src/core/lv_obj_style.c **** 
 706:Lib/lvgl/src/core/lv_obj_style.c ****     lv_memzero(&obj->styles[i], sizeof(_lv_obj_style_t));
 707:Lib/lvgl/src/core/lv_obj_style.c ****     obj->styles[i].style = lv_malloc(sizeof(lv_style_t));
 708:Lib/lvgl/src/core/lv_obj_style.c ****     lv_style_init((lv_style_t *)obj->styles[i].style);
 709:Lib/lvgl/src/core/lv_obj_style.c **** 
 710:Lib/lvgl/src/core/lv_obj_style.c ****     obj->styles[i].is_local = 1;
ARM GAS  C:\Users\Alex\AppData\Local\Temp\ccdKwz1H.s 			page 39


 711:Lib/lvgl/src/core/lv_obj_style.c ****     obj->styles[i].selector = selector;
 712:Lib/lvgl/src/core/lv_obj_style.c ****     return (lv_style_t *)obj->styles[i].style;
 713:Lib/lvgl/src/core/lv_obj_style.c **** }
 714:Lib/lvgl/src/core/lv_obj_style.c **** 
 715:Lib/lvgl/src/core/lv_obj_style.c **** /**
 716:Lib/lvgl/src/core/lv_obj_style.c ****  * Get the transition style of an object for a given part and for a given state.
 717:Lib/lvgl/src/core/lv_obj_style.c ****  * If the transition style for the part-state pair doesn't exist allocate and return it.
 718:Lib/lvgl/src/core/lv_obj_style.c ****  * @param obj   pointer to an object
 719:Lib/lvgl/src/core/lv_obj_style.c ****  * @param selector OR-ed value of parts and state for which the style should be get
 720:Lib/lvgl/src/core/lv_obj_style.c ****  * @return pointer to the transition style
 721:Lib/lvgl/src/core/lv_obj_style.c ****  */
 722:Lib/lvgl/src/core/lv_obj_style.c **** static _lv_obj_style_t * get_trans_style(lv_obj_t * obj,  lv_style_selector_t selector)
 723:Lib/lvgl/src/core/lv_obj_style.c **** {
 724:Lib/lvgl/src/core/lv_obj_style.c ****     uint32_t i;
 725:Lib/lvgl/src/core/lv_obj_style.c ****     for(i = 0; i < obj->style_cnt; i++) {
 726:Lib/lvgl/src/core/lv_obj_style.c ****         if(obj->styles[i].is_trans && obj->styles[i].selector == selector) break;
 727:Lib/lvgl/src/core/lv_obj_style.c ****     }
 728:Lib/lvgl/src/core/lv_obj_style.c **** 
 729:Lib/lvgl/src/core/lv_obj_style.c ****     /*Already have a transition style for it*/
 730:Lib/lvgl/src/core/lv_obj_style.c ****     if(i != obj->style_cnt) return &obj->styles[i];
 731:Lib/lvgl/src/core/lv_obj_style.c **** 
 732:Lib/lvgl/src/core/lv_obj_style.c ****     obj->style_cnt++;
 733:Lib/lvgl/src/core/lv_obj_style.c ****     LV_ASSERT(obj->style_cnt != 0);
 734:Lib/lvgl/src/core/lv_obj_style.c ****     obj->styles = lv_realloc(obj->styles, obj->style_cnt * sizeof(_lv_obj_style_t));
 735:Lib/lvgl/src/core/lv_obj_style.c **** 
 736:Lib/lvgl/src/core/lv_obj_style.c ****     for(i = obj->style_cnt - 1; i > 0 ; i--) {
 737:Lib/lvgl/src/core/lv_obj_style.c ****         obj->styles[i] = obj->styles[i - 1];
 738:Lib/lvgl/src/core/lv_obj_style.c ****     }
 739:Lib/lvgl/src/core/lv_obj_style.c **** 
 740:Lib/lvgl/src/core/lv_obj_style.c ****     lv_memzero(&obj->styles[0], sizeof(_lv_obj_style_t));
 741:Lib/lvgl/src/core/lv_obj_style.c ****     obj->styles[0].style = lv_malloc(sizeof(lv_style_t));
 742:Lib/lvgl/src/core/lv_obj_style.c ****     lv_style_init((lv_style_t *)obj->styles[0].style);
 743:Lib/lvgl/src/core/lv_obj_style.c **** 
 744:Lib/lvgl/src/core/lv_obj_style.c ****     obj->styles[0].is_trans = 1;
 745:Lib/lvgl/src/core/lv_obj_style.c ****     obj->styles[0].selector = selector;
 746:Lib/lvgl/src/core/lv_obj_style.c ****     return &obj->styles[0];
 747:Lib/lvgl/src/core/lv_obj_style.c **** }
 748:Lib/lvgl/src/core/lv_obj_style.c **** 
 749:Lib/lvgl/src/core/lv_obj_style.c **** static lv_style_res_t get_prop_core(const lv_obj_t * obj, lv_style_selector_t selector, lv_style_pr
 750:Lib/lvgl/src/core/lv_obj_style.c ****                                     lv_style_value_t * v)
 751:Lib/lvgl/src/core/lv_obj_style.c **** {
 575              		.loc 1 751 1 is_stmt 1 view -0
 576              		.cfi_startproc
 577              		@ args = 0, pretend = 0, frame = 8
 578              		@ frame_needed = 0, uses_anonymous_args = 0
 579              		.loc 1 751 1 is_stmt 0 view .LVU124
 580 0000 2DE9F04F 		push	{r4, r5, r6, r7, r8, r9, r10, fp, lr}
 581              	.LCFI8:
 582              		.cfi_def_cfa_offset 36
 583              		.cfi_offset 4, -36
 584              		.cfi_offset 5, -32
 585              		.cfi_offset 6, -28
 586              		.cfi_offset 7, -24
 587              		.cfi_offset 8, -20
 588              		.cfi_offset 9, -16
 589              		.cfi_offset 10, -12
 590              		.cfi_offset 11, -8
ARM GAS  C:\Users\Alex\AppData\Local\Temp\ccdKwz1H.s 			page 40


 591              		.cfi_offset 14, -4
 592 0004 83B0     		sub	sp, sp, #12
 593              	.LCFI9:
 594              		.cfi_def_cfa_offset 48
 595 0006 0546     		mov	r5, r0
 596 0008 9146     		mov	r9, r2
 597 000a 0093     		str	r3, [sp]
 752:Lib/lvgl/src/core/lv_obj_style.c **** 
 753:Lib/lvgl/src/core/lv_obj_style.c ****     const uint32_t group = (uint32_t)1 << _lv_style_get_prop_group(prop);
 598              		.loc 1 753 5 is_stmt 1 view .LVU125
 599              	.LVL31:
 600              	.LBB184:
 601              	.LBI184:
 520:Lib/lvgl/src/core/../misc/lv_style.h **** 
 521:Lib/lvgl/src/core/../misc/lv_style.h **** /**
 522:Lib/lvgl/src/core/../misc/lv_style.h ****  * Checks if a style is empty (has no properties)
 523:Lib/lvgl/src/core/../misc/lv_style.h ****  * @param style pointer to a style
 524:Lib/lvgl/src/core/../misc/lv_style.h ****  * @return true if the style is empty
 525:Lib/lvgl/src/core/../misc/lv_style.h ****  */
 526:Lib/lvgl/src/core/../misc/lv_style.h **** bool lv_style_is_empty(const lv_style_t * style);
 527:Lib/lvgl/src/core/../misc/lv_style.h **** 
 528:Lib/lvgl/src/core/../misc/lv_style.h **** /**
 529:Lib/lvgl/src/core/../misc/lv_style.h ****  * Tell the group of a property. If the a property from a group is set in a style the (1 << group) 
 530:Lib/lvgl/src/core/../misc/lv_style.h ****  * It allows early skipping the style if the property is not exists in the style at all.
 531:Lib/lvgl/src/core/../misc/lv_style.h ****  * @param prop a style property
 532:Lib/lvgl/src/core/../misc/lv_style.h ****  * @return the group [0..30] 30 means all the custom properties with index > 120
 533:Lib/lvgl/src/core/../misc/lv_style.h ****  */
 534:Lib/lvgl/src/core/../misc/lv_style.h **** static inline uint32_t _lv_style_get_prop_group(lv_style_prop_t prop)
 602              		.loc 4 534 24 view .LVU126
 603              	.LBB185:
 535:Lib/lvgl/src/core/../misc/lv_style.h **** {
 536:Lib/lvgl/src/core/../misc/lv_style.h ****     uint32_t group = prop >> 2;
 604              		.loc 4 536 5 view .LVU127
 605              		.loc 4 536 27 is_stmt 0 view .LVU128
 606 000c 9308     		lsrs	r3, r2, #2
 607              	.LVL32:
 537:Lib/lvgl/src/core/../misc/lv_style.h ****     if(group > 30) group = 31;    /*The MSB marks all the custom properties*/
 608              		.loc 4 537 5 is_stmt 1 view .LVU129
 609              		.loc 4 537 7 is_stmt 0 view .LVU130
 610 000e 7B2A     		cmp	r2, #123
 611 0010 12D8     		bhi	.L61
 612              	.LVL33:
 613              	.L46:
 538:Lib/lvgl/src/core/../misc/lv_style.h ****     return group;
 614              		.loc 4 538 5 is_stmt 1 view .LVU131
 615              		.loc 4 538 5 is_stmt 0 view .LVU132
 616              	.LBE185:
 617              	.LBE184:
 618              		.loc 1 753 20 view .LVU133
 619 0012 0126     		movs	r6, #1
 620 0014 9E40     		lsls	r6, r6, r3
 621              	.LVL34:
 754:Lib/lvgl/src/core/lv_obj_style.c ****     const lv_part_t part = lv_obj_style_get_selector_part(selector);
 622              		.loc 1 754 5 is_stmt 1 view .LVU134
 623              	.LBB187:
 624              	.LBI187:
 625              		.file 5 "Lib/lvgl/src/core/lv_obj_style.h"
ARM GAS  C:\Users\Alex\AppData\Local\Temp\ccdKwz1H.s 			page 41


   1:Lib/lvgl/src/core/lv_obj_style.h **** /**
   2:Lib/lvgl/src/core/lv_obj_style.h ****  * @file lv_obj_style.h
   3:Lib/lvgl/src/core/lv_obj_style.h ****  *
   4:Lib/lvgl/src/core/lv_obj_style.h ****  */
   5:Lib/lvgl/src/core/lv_obj_style.h **** 
   6:Lib/lvgl/src/core/lv_obj_style.h **** #ifndef LV_OBJ_STYLE_H
   7:Lib/lvgl/src/core/lv_obj_style.h **** #define LV_OBJ_STYLE_H
   8:Lib/lvgl/src/core/lv_obj_style.h **** 
   9:Lib/lvgl/src/core/lv_obj_style.h **** #ifdef __cplusplus
  10:Lib/lvgl/src/core/lv_obj_style.h **** extern "C" {
  11:Lib/lvgl/src/core/lv_obj_style.h **** #endif
  12:Lib/lvgl/src/core/lv_obj_style.h **** 
  13:Lib/lvgl/src/core/lv_obj_style.h **** /*********************
  14:Lib/lvgl/src/core/lv_obj_style.h ****  *      INCLUDES
  15:Lib/lvgl/src/core/lv_obj_style.h ****  *********************/
  16:Lib/lvgl/src/core/lv_obj_style.h **** #include <stdint.h>
  17:Lib/lvgl/src/core/lv_obj_style.h **** #include <stdbool.h>
  18:Lib/lvgl/src/core/lv_obj_style.h **** #include "../misc/lv_bidi.h"
  19:Lib/lvgl/src/core/lv_obj_style.h **** #include "../misc/lv_style.h"
  20:Lib/lvgl/src/core/lv_obj_style.h **** 
  21:Lib/lvgl/src/core/lv_obj_style.h **** /*********************
  22:Lib/lvgl/src/core/lv_obj_style.h ****  *      DEFINES
  23:Lib/lvgl/src/core/lv_obj_style.h ****  *********************/
  24:Lib/lvgl/src/core/lv_obj_style.h **** 
  25:Lib/lvgl/src/core/lv_obj_style.h **** /**********************
  26:Lib/lvgl/src/core/lv_obj_style.h ****  *      TYPEDEFS
  27:Lib/lvgl/src/core/lv_obj_style.h ****  **********************/
  28:Lib/lvgl/src/core/lv_obj_style.h **** /*Can't include lv_obj.h because it includes this header file*/
  29:Lib/lvgl/src/core/lv_obj_style.h **** 
  30:Lib/lvgl/src/core/lv_obj_style.h **** #ifndef LV_OBJ_H
  31:Lib/lvgl/src/core/lv_obj_style.h **** /// @cond
  32:Lib/lvgl/src/core/lv_obj_style.h **** /**
  33:Lib/lvgl/src/core/lv_obj_style.h ****  *  Tells Doxygen to ignore a duplicate declaration
  34:Lib/lvgl/src/core/lv_obj_style.h ****  */
  35:Lib/lvgl/src/core/lv_obj_style.h **** typedef uint32_t lv_part_t;
  36:Lib/lvgl/src/core/lv_obj_style.h **** typedef uint16_t lv_state_t;
  37:Lib/lvgl/src/core/lv_obj_style.h **** /// @endcond
  38:Lib/lvgl/src/core/lv_obj_style.h **** 
  39:Lib/lvgl/src/core/lv_obj_style.h **** #endif
  40:Lib/lvgl/src/core/lv_obj_style.h **** 
  41:Lib/lvgl/src/core/lv_obj_style.h **** typedef enum {
  42:Lib/lvgl/src/core/lv_obj_style.h ****     _LV_STYLE_STATE_CMP_SAME,           /*The style properties in the 2 states are identical*/
  43:Lib/lvgl/src/core/lv_obj_style.h ****     _LV_STYLE_STATE_CMP_DIFF_REDRAW,    /*The differences can be shown with a simple redraw*/
  44:Lib/lvgl/src/core/lv_obj_style.h ****     _LV_STYLE_STATE_CMP_DIFF_DRAW_PAD,  /*The differences can be shown with a simple redraw*/
  45:Lib/lvgl/src/core/lv_obj_style.h ****     _LV_STYLE_STATE_CMP_DIFF_LAYOUT,    /*The differences can be shown with a simple redraw*/
  46:Lib/lvgl/src/core/lv_obj_style.h **** } _lv_style_state_cmp_t;
  47:Lib/lvgl/src/core/lv_obj_style.h **** 
  48:Lib/lvgl/src/core/lv_obj_style.h **** typedef uint32_t lv_style_selector_t;
  49:Lib/lvgl/src/core/lv_obj_style.h **** 
  50:Lib/lvgl/src/core/lv_obj_style.h **** typedef struct {
  51:Lib/lvgl/src/core/lv_obj_style.h ****     const lv_style_t * style;
  52:Lib/lvgl/src/core/lv_obj_style.h ****     uint32_t selector : 24;
  53:Lib/lvgl/src/core/lv_obj_style.h ****     uint32_t is_local : 1;
  54:Lib/lvgl/src/core/lv_obj_style.h ****     uint32_t is_trans : 1;
  55:Lib/lvgl/src/core/lv_obj_style.h **** } _lv_obj_style_t;
  56:Lib/lvgl/src/core/lv_obj_style.h **** 
  57:Lib/lvgl/src/core/lv_obj_style.h **** typedef struct {
ARM GAS  C:\Users\Alex\AppData\Local\Temp\ccdKwz1H.s 			page 42


  58:Lib/lvgl/src/core/lv_obj_style.h ****     uint16_t time;
  59:Lib/lvgl/src/core/lv_obj_style.h ****     uint16_t delay;
  60:Lib/lvgl/src/core/lv_obj_style.h ****     lv_style_selector_t selector;
  61:Lib/lvgl/src/core/lv_obj_style.h ****     lv_style_prop_t prop;
  62:Lib/lvgl/src/core/lv_obj_style.h ****     lv_anim_path_cb_t path_cb;
  63:Lib/lvgl/src/core/lv_obj_style.h ****     void * user_data;
  64:Lib/lvgl/src/core/lv_obj_style.h **** } _lv_obj_style_transition_dsc_t;
  65:Lib/lvgl/src/core/lv_obj_style.h **** 
  66:Lib/lvgl/src/core/lv_obj_style.h **** /**********************
  67:Lib/lvgl/src/core/lv_obj_style.h ****  * GLOBAL PROTOTYPES
  68:Lib/lvgl/src/core/lv_obj_style.h ****  **********************/
  69:Lib/lvgl/src/core/lv_obj_style.h **** 
  70:Lib/lvgl/src/core/lv_obj_style.h **** /**
  71:Lib/lvgl/src/core/lv_obj_style.h ****  * Initialize the object related style manager module.
  72:Lib/lvgl/src/core/lv_obj_style.h ****  * Called by LVGL in `lv_init()`
  73:Lib/lvgl/src/core/lv_obj_style.h ****  */
  74:Lib/lvgl/src/core/lv_obj_style.h **** void _lv_obj_style_init(void);
  75:Lib/lvgl/src/core/lv_obj_style.h **** 
  76:Lib/lvgl/src/core/lv_obj_style.h **** /**
  77:Lib/lvgl/src/core/lv_obj_style.h ****  * Deinitialize the object related style manager module.
  78:Lib/lvgl/src/core/lv_obj_style.h ****  * Called by LVGL in `lv_deinit()`
  79:Lib/lvgl/src/core/lv_obj_style.h ****  */
  80:Lib/lvgl/src/core/lv_obj_style.h **** void _lv_obj_style_deinit(void);
  81:Lib/lvgl/src/core/lv_obj_style.h **** 
  82:Lib/lvgl/src/core/lv_obj_style.h **** /**
  83:Lib/lvgl/src/core/lv_obj_style.h ****  * Add a style to an object.
  84:Lib/lvgl/src/core/lv_obj_style.h ****  * @param obj       pointer to an object
  85:Lib/lvgl/src/core/lv_obj_style.h ****  * @param style     pointer to a style to add
  86:Lib/lvgl/src/core/lv_obj_style.h ****  * @param selector  OR-ed value of parts and state to which the style should be added
  87:Lib/lvgl/src/core/lv_obj_style.h ****  * @example         lv_obj_add_style(btn, &style_btn, 0); //Default button style
  88:Lib/lvgl/src/core/lv_obj_style.h ****  * @example         lv_obj_add_style(btn, &btn_red, LV_STATE_PRESSED); //Overwrite only some colors
  89:Lib/lvgl/src/core/lv_obj_style.h ****  */
  90:Lib/lvgl/src/core/lv_obj_style.h **** void lv_obj_add_style(lv_obj_t * obj, const lv_style_t * style, lv_style_selector_t selector);
  91:Lib/lvgl/src/core/lv_obj_style.h **** 
  92:Lib/lvgl/src/core/lv_obj_style.h **** /**
  93:Lib/lvgl/src/core/lv_obj_style.h ****  * Replaces a style of an object, preserving the order of the style stack (local styles and transit
  94:Lib/lvgl/src/core/lv_obj_style.h ****  * @param obj           pointer to an object
  95:Lib/lvgl/src/core/lv_obj_style.h ****  * @param old_style     pointer to a style to replace.
  96:Lib/lvgl/src/core/lv_obj_style.h ****  * @param new_style     pointer to a style to replace the old style with.
  97:Lib/lvgl/src/core/lv_obj_style.h ****  * @param selector      OR-ed values of states and a part to replace only styles with matching sele
  98:Lib/lvgl/src/core/lv_obj_style.h ****  * @example lv_obj_replace_style(obj, &yellow_style, &blue_style, LV_PART_ANY | LV_STATE_ANY); //Re
  99:Lib/lvgl/src/core/lv_obj_style.h ****  * @example lv_obj_replace_style(obj, &yellow_style, &blue_style, LV_PART_MAIN | LV_STATE_PRESSED);
 100:Lib/lvgl/src/core/lv_obj_style.h ****  */
 101:Lib/lvgl/src/core/lv_obj_style.h **** bool lv_obj_replace_style(lv_obj_t * obj, const lv_style_t * old_style, const lv_style_t * new_styl
 102:Lib/lvgl/src/core/lv_obj_style.h ****                           lv_style_selector_t selector);
 103:Lib/lvgl/src/core/lv_obj_style.h **** 
 104:Lib/lvgl/src/core/lv_obj_style.h **** /**
 105:Lib/lvgl/src/core/lv_obj_style.h ****  * Remove a style from an object.
 106:Lib/lvgl/src/core/lv_obj_style.h ****  * @param obj       pointer to an object
 107:Lib/lvgl/src/core/lv_obj_style.h ****  * @param style     pointer to a style to remove. Can be NULL to check only the selector
 108:Lib/lvgl/src/core/lv_obj_style.h ****  * @param selector  OR-ed values of states and a part to remove only styles with matching selectors
 109:Lib/lvgl/src/core/lv_obj_style.h ****  * @example lv_obj_remove_style(obj, &style, LV_PART_ANY | LV_STATE_ANY); //Remove a specific style
 110:Lib/lvgl/src/core/lv_obj_style.h ****  * @example lv_obj_remove_style(obj, NULL, LV_PART_MAIN | LV_STATE_ANY); //Remove all styles from t
 111:Lib/lvgl/src/core/lv_obj_style.h ****  * @example lv_obj_remove_style(obj, NULL, LV_PART_ANY | LV_STATE_ANY); //Remove all styles
 112:Lib/lvgl/src/core/lv_obj_style.h ****  */
 113:Lib/lvgl/src/core/lv_obj_style.h **** void lv_obj_remove_style(lv_obj_t * obj, const lv_style_t * style, lv_style_selector_t selector);
 114:Lib/lvgl/src/core/lv_obj_style.h **** 
ARM GAS  C:\Users\Alex\AppData\Local\Temp\ccdKwz1H.s 			page 43


 115:Lib/lvgl/src/core/lv_obj_style.h **** /**
 116:Lib/lvgl/src/core/lv_obj_style.h ****  * Remove all styles from an object
 117:Lib/lvgl/src/core/lv_obj_style.h ****  * @param obj       pointer to an object
 118:Lib/lvgl/src/core/lv_obj_style.h ****  */
 119:Lib/lvgl/src/core/lv_obj_style.h **** void lv_obj_remove_style_all(lv_obj_t * obj);
 120:Lib/lvgl/src/core/lv_obj_style.h **** 
 121:Lib/lvgl/src/core/lv_obj_style.h **** /**
 122:Lib/lvgl/src/core/lv_obj_style.h ****  * Notify all object if a style is modified
 123:Lib/lvgl/src/core/lv_obj_style.h ****  * @param style     pointer to a style. Only the objects with this style will be notified
 124:Lib/lvgl/src/core/lv_obj_style.h ****  *                  (NULL to notify all objects)
 125:Lib/lvgl/src/core/lv_obj_style.h ****  */
 126:Lib/lvgl/src/core/lv_obj_style.h **** void lv_obj_report_style_change(lv_style_t * style);
 127:Lib/lvgl/src/core/lv_obj_style.h **** 
 128:Lib/lvgl/src/core/lv_obj_style.h **** /**
 129:Lib/lvgl/src/core/lv_obj_style.h ****  * Notify an object and its children about its style is modified.
 130:Lib/lvgl/src/core/lv_obj_style.h ****  * @param obj       pointer to an object
 131:Lib/lvgl/src/core/lv_obj_style.h ****  * @param part      the part whose style was changed. E.g. `LV_PART_ANY`, `LV_PART_MAIN`
 132:Lib/lvgl/src/core/lv_obj_style.h ****  * @param prop      `LV_STYLE_PROP_ANY` or an `LV_STYLE_...` property.
 133:Lib/lvgl/src/core/lv_obj_style.h ****  *                  It is used to optimize what needs to be refreshed.
 134:Lib/lvgl/src/core/lv_obj_style.h ****  *                  `LV_STYLE_PROP_INV` to perform only a style cache update
 135:Lib/lvgl/src/core/lv_obj_style.h ****  */
 136:Lib/lvgl/src/core/lv_obj_style.h **** void lv_obj_refresh_style(lv_obj_t * obj, lv_part_t part, lv_style_prop_t prop);
 137:Lib/lvgl/src/core/lv_obj_style.h **** 
 138:Lib/lvgl/src/core/lv_obj_style.h **** /**
 139:Lib/lvgl/src/core/lv_obj_style.h ****  * Enable or disable automatic style refreshing when a new style is added/removed to/from an object
 140:Lib/lvgl/src/core/lv_obj_style.h ****  * or any other style change happens.
 141:Lib/lvgl/src/core/lv_obj_style.h ****  * @param en        true: enable refreshing; false: disable refreshing
 142:Lib/lvgl/src/core/lv_obj_style.h ****  */
 143:Lib/lvgl/src/core/lv_obj_style.h **** void lv_obj_enable_style_refresh(bool en);
 144:Lib/lvgl/src/core/lv_obj_style.h **** 
 145:Lib/lvgl/src/core/lv_obj_style.h **** /**
 146:Lib/lvgl/src/core/lv_obj_style.h ****  * Get the value of a style property. The current state of the object will be considered.
 147:Lib/lvgl/src/core/lv_obj_style.h ****  * Inherited properties will be inherited.
 148:Lib/lvgl/src/core/lv_obj_style.h ****  * If a property is not set a default value will be returned.
 149:Lib/lvgl/src/core/lv_obj_style.h ****  * @param obj       pointer to an object
 150:Lib/lvgl/src/core/lv_obj_style.h ****  * @param part      a part from which the property should be get
 151:Lib/lvgl/src/core/lv_obj_style.h ****  * @param prop      the property to get
 152:Lib/lvgl/src/core/lv_obj_style.h ****  * @return          the value of the property.
 153:Lib/lvgl/src/core/lv_obj_style.h ****  *                  Should be read from the correct field of the `lv_style_value_t` according to th
 154:Lib/lvgl/src/core/lv_obj_style.h ****  */
 155:Lib/lvgl/src/core/lv_obj_style.h **** lv_style_value_t lv_obj_get_style_prop(const lv_obj_t * obj, lv_part_t part, lv_style_prop_t prop);
 156:Lib/lvgl/src/core/lv_obj_style.h **** 
 157:Lib/lvgl/src/core/lv_obj_style.h **** /**
 158:Lib/lvgl/src/core/lv_obj_style.h ****  * Check if an object has a specified style property for a given style selector.
 159:Lib/lvgl/src/core/lv_obj_style.h ****  * @param obj       pointer to an object
 160:Lib/lvgl/src/core/lv_obj_style.h ****  * @param selector  the style selector to be checked, defining the scope of the style to be examine
 161:Lib/lvgl/src/core/lv_obj_style.h ****  * @param prop      the property to be checked.
 162:Lib/lvgl/src/core/lv_obj_style.h ****  * @return          true if the object has the specified selector and property, false otherwise.
 163:Lib/lvgl/src/core/lv_obj_style.h ****  */
 164:Lib/lvgl/src/core/lv_obj_style.h **** bool lv_obj_has_style_prop(const lv_obj_t * obj, lv_style_selector_t selector, lv_style_prop_t prop
 165:Lib/lvgl/src/core/lv_obj_style.h **** 
 166:Lib/lvgl/src/core/lv_obj_style.h **** /**
 167:Lib/lvgl/src/core/lv_obj_style.h ****  * Set local style property on an object's part and state.
 168:Lib/lvgl/src/core/lv_obj_style.h ****  * @param obj       pointer to an object
 169:Lib/lvgl/src/core/lv_obj_style.h ****  * @param prop      the property
 170:Lib/lvgl/src/core/lv_obj_style.h ****  * @param value     value of the property. The correct element should be set according to the type 
 171:Lib/lvgl/src/core/lv_obj_style.h ****  * @param selector  OR-ed value of parts and state for which the style should be set
ARM GAS  C:\Users\Alex\AppData\Local\Temp\ccdKwz1H.s 			page 44


 172:Lib/lvgl/src/core/lv_obj_style.h ****  */
 173:Lib/lvgl/src/core/lv_obj_style.h **** void lv_obj_set_local_style_prop(lv_obj_t * obj, lv_style_prop_t prop, lv_style_value_t value,
 174:Lib/lvgl/src/core/lv_obj_style.h ****                                  lv_style_selector_t selector);
 175:Lib/lvgl/src/core/lv_obj_style.h **** 
 176:Lib/lvgl/src/core/lv_obj_style.h **** lv_style_res_t lv_obj_get_local_style_prop(lv_obj_t * obj, lv_style_prop_t prop, lv_style_value_t *
 177:Lib/lvgl/src/core/lv_obj_style.h ****                                            lv_style_selector_t selector);
 178:Lib/lvgl/src/core/lv_obj_style.h **** 
 179:Lib/lvgl/src/core/lv_obj_style.h **** /**
 180:Lib/lvgl/src/core/lv_obj_style.h ****  * Remove a local style property from a part of an object with a given state.
 181:Lib/lvgl/src/core/lv_obj_style.h ****  * @param obj       pointer to an object
 182:Lib/lvgl/src/core/lv_obj_style.h ****  * @param prop      a style property to remove.
 183:Lib/lvgl/src/core/lv_obj_style.h ****  * @param selector  OR-ed value of parts and state for which the style should be removed
 184:Lib/lvgl/src/core/lv_obj_style.h ****  * @return true     the property was found and removed; false: the property was not found
 185:Lib/lvgl/src/core/lv_obj_style.h ****  */
 186:Lib/lvgl/src/core/lv_obj_style.h **** bool lv_obj_remove_local_style_prop(lv_obj_t * obj, lv_style_prop_t prop, lv_style_selector_t selec
 187:Lib/lvgl/src/core/lv_obj_style.h **** 
 188:Lib/lvgl/src/core/lv_obj_style.h **** /**
 189:Lib/lvgl/src/core/lv_obj_style.h ****  * Used internally for color filtering
 190:Lib/lvgl/src/core/lv_obj_style.h ****  */
 191:Lib/lvgl/src/core/lv_obj_style.h **** lv_style_value_t _lv_obj_style_apply_color_filter(const lv_obj_t * obj, uint32_t part, lv_style_val
 192:Lib/lvgl/src/core/lv_obj_style.h **** 
 193:Lib/lvgl/src/core/lv_obj_style.h **** /**
 194:Lib/lvgl/src/core/lv_obj_style.h ****  * Used internally to create a style transition
 195:Lib/lvgl/src/core/lv_obj_style.h ****  * @param obj
 196:Lib/lvgl/src/core/lv_obj_style.h ****  * @param part
 197:Lib/lvgl/src/core/lv_obj_style.h ****  * @param prev_state
 198:Lib/lvgl/src/core/lv_obj_style.h ****  * @param new_state
 199:Lib/lvgl/src/core/lv_obj_style.h ****  * @param tr
 200:Lib/lvgl/src/core/lv_obj_style.h ****  */
 201:Lib/lvgl/src/core/lv_obj_style.h **** void _lv_obj_style_create_transition(lv_obj_t * obj, lv_part_t part, lv_state_t prev_state,
 202:Lib/lvgl/src/core/lv_obj_style.h ****                                      lv_state_t new_state, const _lv_obj_style_transition_dsc_t * t
 203:Lib/lvgl/src/core/lv_obj_style.h **** 
 204:Lib/lvgl/src/core/lv_obj_style.h **** /**
 205:Lib/lvgl/src/core/lv_obj_style.h ****  * Used internally to compare the appearance of an object in 2 states
 206:Lib/lvgl/src/core/lv_obj_style.h ****  * @param obj
 207:Lib/lvgl/src/core/lv_obj_style.h ****  * @param state1
 208:Lib/lvgl/src/core/lv_obj_style.h ****  * @param state2
 209:Lib/lvgl/src/core/lv_obj_style.h ****  * @return
 210:Lib/lvgl/src/core/lv_obj_style.h ****  */
 211:Lib/lvgl/src/core/lv_obj_style.h **** _lv_style_state_cmp_t _lv_obj_style_state_compare(lv_obj_t * obj, lv_state_t state1, lv_state_t sta
 212:Lib/lvgl/src/core/lv_obj_style.h **** 
 213:Lib/lvgl/src/core/lv_obj_style.h **** /**
 214:Lib/lvgl/src/core/lv_obj_style.h ****  * Fade in an an object and all its children.
 215:Lib/lvgl/src/core/lv_obj_style.h ****  * @param obj       the object to fade in
 216:Lib/lvgl/src/core/lv_obj_style.h ****  * @param time      time of fade
 217:Lib/lvgl/src/core/lv_obj_style.h ****  * @param delay     delay to start the animation
 218:Lib/lvgl/src/core/lv_obj_style.h ****  */
 219:Lib/lvgl/src/core/lv_obj_style.h **** void lv_obj_fade_in(lv_obj_t * obj, uint32_t time, uint32_t delay);
 220:Lib/lvgl/src/core/lv_obj_style.h **** 
 221:Lib/lvgl/src/core/lv_obj_style.h **** /**
 222:Lib/lvgl/src/core/lv_obj_style.h ****  * Fade out an an object and all its children.
 223:Lib/lvgl/src/core/lv_obj_style.h ****  * @param obj       the object to fade out
 224:Lib/lvgl/src/core/lv_obj_style.h ****  * @param time      time of fade
 225:Lib/lvgl/src/core/lv_obj_style.h ****  * @param delay     delay to start the animation
 226:Lib/lvgl/src/core/lv_obj_style.h ****  */
 227:Lib/lvgl/src/core/lv_obj_style.h **** void lv_obj_fade_out(lv_obj_t * obj, uint32_t time, uint32_t delay);
 228:Lib/lvgl/src/core/lv_obj_style.h **** 
ARM GAS  C:\Users\Alex\AppData\Local\Temp\ccdKwz1H.s 			page 45


 229:Lib/lvgl/src/core/lv_obj_style.h **** static inline lv_state_t lv_obj_style_get_selector_state(lv_style_selector_t selector)
 230:Lib/lvgl/src/core/lv_obj_style.h **** {
 231:Lib/lvgl/src/core/lv_obj_style.h ****     return selector & 0xFFFF;
 232:Lib/lvgl/src/core/lv_obj_style.h **** }
 233:Lib/lvgl/src/core/lv_obj_style.h **** 
 234:Lib/lvgl/src/core/lv_obj_style.h **** static inline lv_part_t lv_obj_style_get_selector_part(lv_style_selector_t selector)
 626              		.loc 5 234 25 view .LVU135
 627              	.LBB188:
 235:Lib/lvgl/src/core/lv_obj_style.h **** {
 236:Lib/lvgl/src/core/lv_obj_style.h ****     return selector & 0xFF0000;
 628              		.loc 5 236 5 view .LVU136
 629              		.loc 5 236 21 is_stmt 0 view .LVU137
 630 0016 01F47F07 		and	r7, r1, #16711680
 631              	.LVL35:
 632              		.loc 5 236 21 view .LVU138
 633              	.LBE188:
 634              	.LBE187:
 755:Lib/lvgl/src/core/lv_obj_style.c ****     const lv_state_t state = lv_obj_style_get_selector_state(selector);
 635              		.loc 1 755 5 is_stmt 1 view .LVU139
 636              	.LBB189:
 637              	.LBI189:
 229:Lib/lvgl/src/core/lv_obj_style.h **** {
 638              		.loc 5 229 26 view .LVU140
 639              	.LBB190:
 231:Lib/lvgl/src/core/lv_obj_style.h **** }
 640              		.loc 5 231 5 view .LVU141
 231:Lib/lvgl/src/core/lv_obj_style.h **** }
 641              		.loc 5 231 21 is_stmt 0 view .LVU142
 642 001a 8BB2     		uxth	r3, r1
 643 001c 0193     		str	r3, [sp, #4]
 644              	.LVL36:
 231:Lib/lvgl/src/core/lv_obj_style.h **** }
 645              		.loc 5 231 21 view .LVU143
 646              	.LBE190:
 647              	.LBE189:
 756:Lib/lvgl/src/core/lv_obj_style.c ****     const lv_state_t state_inv = ~state;
 648              		.loc 1 756 5 is_stmt 1 view .LVU144
 649              		.loc 1 756 22 is_stmt 0 view .LVU145
 650 001e 6FEA030A 		mvn	r10, r3
 651 0022 1FFA8AFA 		uxth	r10, r10
 652              	.LVL37:
 757:Lib/lvgl/src/core/lv_obj_style.c ****     const bool skip_trans = obj->skip_trans;
 653              		.loc 1 757 5 is_stmt 1 view .LVU146
 654              		.loc 1 757 32 is_stmt 0 view .LVU147
 655 0026 95F82A80 		ldrb	r8, [r5, #42]	@ zero_extendqisi2
 656 002a C8F3C008 		ubfx	r8, r8, #3, #1
 657              	.LVL38:
 758:Lib/lvgl/src/core/lv_obj_style.c ****     int32_t weight = -1;
 658              		.loc 1 758 5 is_stmt 1 view .LVU148
 759:Lib/lvgl/src/core/lv_obj_style.c ****     lv_style_res_t found;
 659              		.loc 1 759 5 view .LVU149
 760:Lib/lvgl/src/core/lv_obj_style.c ****     uint32_t i;
 660              		.loc 1 760 5 view .LVU150
 761:Lib/lvgl/src/core/lv_obj_style.c ****     for(i = 0; i < obj->style_cnt; i++) {
 661              		.loc 1 761 5 view .LVU151
 662              		.loc 1 761 11 is_stmt 0 view .LVU152
 663 002e 0024     		movs	r4, #0
ARM GAS  C:\Users\Alex\AppData\Local\Temp\ccdKwz1H.s 			page 46


 664 0030 3346     		mov	r3, r6
 665              	.LVL39:
 666              		.loc 1 761 11 view .LVU153
 667 0032 4646     		mov	r6, r8
 668              	.LVL40:
 669              		.loc 1 761 11 view .LVU154
 670 0034 9846     		mov	r8, r3
 671              		.loc 1 761 5 view .LVU155
 672 0036 02E0     		b	.L47
 673              	.LVL41:
 674              	.L61:
 675              	.LBB191:
 676              	.LBB186:
 537:Lib/lvgl/src/core/../misc/lv_style.h ****     return group;
 677              		.loc 4 537 26 view .LVU156
 678 0038 1F23     		movs	r3, #31
 679              	.LVL42:
 537:Lib/lvgl/src/core/../misc/lv_style.h ****     return group;
 680              		.loc 4 537 26 view .LVU157
 681 003a EAE7     		b	.L46
 682              	.LVL43:
 683              	.L49:
 537:Lib/lvgl/src/core/../misc/lv_style.h ****     return group;
 684              		.loc 4 537 26 view .LVU158
 685              	.LBE186:
 686              	.LBE191:
 687              		.loc 1 761 37 is_stmt 1 discriminator 2 view .LVU159
 688 003c 0134     		adds	r4, r4, #1
 689              	.LVL44:
 690              	.L47:
 691              		.loc 1 761 18 discriminator 1 view .LVU160
 692              		.loc 1 761 23 is_stmt 0 discriminator 1 view .LVU161
 693 003e 6B8D     		ldrh	r3, [r5, #42]
 694 0040 C3F30513 		ubfx	r3, r3, #4, #6
 695              		.loc 1 761 18 discriminator 1 view .LVU162
 696 0044 A342     		cmp	r3, r4
 697 0046 1AD9     		bls	.L62
 698              	.LBB192:
 762:Lib/lvgl/src/core/lv_obj_style.c ****         _lv_obj_style_t * obj_style = &obj->styles[i];
 699              		.loc 1 762 9 is_stmt 1 view .LVU163
 700              		.loc 1 762 43 is_stmt 0 view .LVU164
 701 0048 EA68     		ldr	r2, [r5, #12]
 702              		.loc 1 762 51 view .LVU165
 703 004a E000     		lsls	r0, r4, #3
 704              		.loc 1 762 27 view .LVU166
 705 004c 02EBC403 		add	r3, r2, r4, lsl #3
 706              	.LVL45:
 763:Lib/lvgl/src/core/lv_obj_style.c ****         if(obj_style->is_trans == false) break;
 707              		.loc 1 763 9 is_stmt 1 view .LVU167
 708              		.loc 1 763 32 is_stmt 0 view .LVU168
 709 0050 D979     		ldrb	r1, [r3, #7]	@ zero_extendqisi2
 710              		.loc 1 763 11 view .LVU169
 711 0052 11F0020F 		tst	r1, #2
 712 0056 3DD0     		beq	.L56
 764:Lib/lvgl/src/core/lv_obj_style.c ****         if(skip_trans) continue;
 713              		.loc 1 764 9 is_stmt 1 view .LVU170
 714              		.loc 1 764 11 is_stmt 0 view .LVU171
ARM GAS  C:\Users\Alex\AppData\Local\Temp\ccdKwz1H.s 			page 47


 715 0058 002E     		cmp	r6, #0
 716 005a EFD1     		bne	.L49
 765:Lib/lvgl/src/core/lv_obj_style.c **** 
 766:Lib/lvgl/src/core/lv_obj_style.c ****         lv_part_t part_act = lv_obj_style_get_selector_part(obj->styles[i].selector);
 717              		.loc 1 766 9 is_stmt 1 view .LVU172
 718              		.loc 1 766 75 is_stmt 0 view .LVU173
 719 005c 5B68     		ldr	r3, [r3, #4]
 720              	.LVL46:
 721              	.LBB193:
 722              	.LBI193:
 234:Lib/lvgl/src/core/lv_obj_style.h **** {
 723              		.loc 5 234 25 is_stmt 1 view .LVU174
 724              	.LBB194:
 725              		.loc 5 236 5 view .LVU175
 726              		.loc 5 236 21 is_stmt 0 view .LVU176
 727 005e 03F47F03 		and	r3, r3, #16711680
 728              	.LVL47:
 729              		.loc 5 236 21 view .LVU177
 730              	.LBE194:
 731              	.LBE193:
 767:Lib/lvgl/src/core/lv_obj_style.c **** 
 768:Lib/lvgl/src/core/lv_obj_style.c ****         if(part_act != part) continue;
 732              		.loc 1 768 9 is_stmt 1 view .LVU178
 733              		.loc 1 768 11 is_stmt 0 view .LVU179
 734 0062 BB42     		cmp	r3, r7
 735 0064 EAD1     		bne	.L49
 769:Lib/lvgl/src/core/lv_obj_style.c ****         if((obj_style->style->has_group & group) == 0) continue;
 736              		.loc 1 769 9 is_stmt 1 view .LVU180
 737              		.loc 1 769 22 is_stmt 0 view .LVU181
 738 0066 1058     		ldr	r0, [r2, r0]
 739              		.loc 1 769 29 view .LVU182
 740 0068 4368     		ldr	r3, [r0, #4]
 741              	.LVL48:
 742              		.loc 1 769 11 view .LVU183
 743 006a 13EA080F 		tst	r3, r8
 744 006e E5D0     		beq	.L49
 770:Lib/lvgl/src/core/lv_obj_style.c ****         found = lv_style_get_prop_inlined(obj_style->style, prop, v);
 745              		.loc 1 770 9 is_stmt 1 view .LVU184
 746              		.loc 1 770 17 is_stmt 0 view .LVU185
 747 0070 009A     		ldr	r2, [sp]
 748              	.LVL49:
 749              		.loc 1 770 17 view .LVU186
 750 0072 4946     		mov	r1, r9
 751 0074 FFF7FEFF 		bl	lv_style_get_prop_inlined
 752              	.LVL50:
 771:Lib/lvgl/src/core/lv_obj_style.c ****         if(found == LV_STYLE_RES_FOUND) {
 753              		.loc 1 771 9 is_stmt 1 view .LVU187
 754              		.loc 1 771 11 is_stmt 0 view .LVU188
 755 0078 0128     		cmp	r0, #1
 756 007a DFD1     		bne	.L49
 757 007c 32E0     		b	.L50
 758              	.LVL51:
 759              	.L62:
 760              		.loc 1 771 11 view .LVU189
 761              	.LBE192:
 762 007e 4646     		mov	r6, r8
 763 0080 4FF0FF3B 		mov	fp, #-1
ARM GAS  C:\Users\Alex\AppData\Local\Temp\ccdKwz1H.s 			page 48


 764 0084 00E0     		b	.L53
 765              	.LVL52:
 766              	.L52:
 772:Lib/lvgl/src/core/lv_obj_style.c ****             return LV_STYLE_RES_FOUND;
 773:Lib/lvgl/src/core/lv_obj_style.c ****         }
 774:Lib/lvgl/src/core/lv_obj_style.c ****     }
 775:Lib/lvgl/src/core/lv_obj_style.c **** 
 776:Lib/lvgl/src/core/lv_obj_style.c ****     for(; i < obj->style_cnt; i++) {
 767              		.loc 1 776 32 is_stmt 1 view .LVU190
 768 0086 0134     		adds	r4, r4, #1
 769              	.LVL53:
 770              	.L53:
 771              		.loc 1 776 13 discriminator 1 view .LVU191
 772              		.loc 1 776 18 is_stmt 0 discriminator 1 view .LVU192
 773 0088 6B8D     		ldrh	r3, [r5, #42]
 774 008a C3F30513 		ubfx	r3, r3, #4, #6
 775              		.loc 1 776 13 discriminator 1 view .LVU193
 776 008e A342     		cmp	r3, r4
 777 0090 24D9     		bls	.L63
 778              	.LBB195:
 777:Lib/lvgl/src/core/lv_obj_style.c ****         if((obj->styles[i].style->has_group & group) == 0) continue;
 779              		.loc 1 777 9 is_stmt 1 view .LVU194
 780              		.loc 1 777 16 is_stmt 0 view .LVU195
 781 0092 EB68     		ldr	r3, [r5, #12]
 782              		.loc 1 777 24 view .LVU196
 783 0094 03EBC402 		add	r2, r3, r4, lsl #3
 784              		.loc 1 777 27 view .LVU197
 785 0098 53F83400 		ldr	r0, [r3, r4, lsl #3]
 786              		.loc 1 777 33 view .LVU198
 787 009c 4368     		ldr	r3, [r0, #4]
 788              		.loc 1 777 11 view .LVU199
 789 009e 3342     		tst	r3, r6
 790 00a0 F1D0     		beq	.L52
 778:Lib/lvgl/src/core/lv_obj_style.c ****         _lv_obj_style_t * obj_style = &obj->styles[i];
 791              		.loc 1 778 9 is_stmt 1 view .LVU200
 792              	.LVL54:
 779:Lib/lvgl/src/core/lv_obj_style.c ****         lv_part_t part_act = lv_obj_style_get_selector_part(obj->styles[i].selector);
 793              		.loc 1 779 9 view .LVU201
 794              		.loc 1 779 75 is_stmt 0 view .LVU202
 795 00a2 5368     		ldr	r3, [r2, #4]
 796 00a4 C3F31702 		ubfx	r2, r3, #0, #24
 797              	.LVL55:
 798              	.LBB196:
 799              	.LBI196:
 234:Lib/lvgl/src/core/lv_obj_style.h **** {
 800              		.loc 5 234 25 is_stmt 1 view .LVU203
 801              	.LBB197:
 802              		.loc 5 236 5 view .LVU204
 803              		.loc 5 236 21 is_stmt 0 view .LVU205
 804 00a8 03F47F03 		and	r3, r3, #16711680
 805              	.LVL56:
 806              		.loc 5 236 21 view .LVU206
 807              	.LBE197:
 808              	.LBE196:
 780:Lib/lvgl/src/core/lv_obj_style.c ****         if(part_act != part) continue;
 809              		.loc 1 780 9 is_stmt 1 view .LVU207
 810              		.loc 1 780 11 is_stmt 0 view .LVU208
ARM GAS  C:\Users\Alex\AppData\Local\Temp\ccdKwz1H.s 			page 49


 811 00ac 9F42     		cmp	r7, r3
 812 00ae EAD1     		bne	.L52
 781:Lib/lvgl/src/core/lv_obj_style.c **** 
 782:Lib/lvgl/src/core/lv_obj_style.c ****         /*Be sure the style not specifies other state than the requested.
 783:Lib/lvgl/src/core/lv_obj_style.c ****          *E.g. For HOVER+PRESS object state, HOVER style only is OK, but HOVER+FOCUS style is not*/
 784:Lib/lvgl/src/core/lv_obj_style.c ****         lv_state_t state_act = lv_obj_style_get_selector_state(obj->styles[i].selector);
 813              		.loc 1 784 9 is_stmt 1 view .LVU209
 814              	.LVL57:
 815              	.LBB198:
 816              	.LBI198:
 229:Lib/lvgl/src/core/lv_obj_style.h **** {
 817              		.loc 5 229 26 view .LVU210
 818              	.LBB199:
 231:Lib/lvgl/src/core/lv_obj_style.h **** }
 819              		.loc 5 231 5 view .LVU211
 231:Lib/lvgl/src/core/lv_obj_style.h **** }
 820              		.loc 5 231 21 is_stmt 0 view .LVU212
 821 00b0 1FFA82F8 		uxth	r8, r2
 822              	.LVL58:
 231:Lib/lvgl/src/core/lv_obj_style.h **** }
 823              		.loc 5 231 21 view .LVU213
 824              	.LBE199:
 825              	.LBE198:
 785:Lib/lvgl/src/core/lv_obj_style.c ****         if((state_act & state_inv)) continue;
 826              		.loc 1 785 9 is_stmt 1 view .LVU214
 827              		.loc 1 785 11 is_stmt 0 view .LVU215
 828 00b4 12EA0A0F 		tst	r2, r10
 829 00b8 E5D1     		bne	.L52
 786:Lib/lvgl/src/core/lv_obj_style.c **** 
 787:Lib/lvgl/src/core/lv_obj_style.c ****         /*Check only better candidates*/
 788:Lib/lvgl/src/core/lv_obj_style.c ****         if(state_act <= weight) continue;
 830              		.loc 1 788 9 is_stmt 1 view .LVU216
 831              		.loc 1 788 11 is_stmt 0 view .LVU217
 832 00ba D845     		cmp	r8, fp
 833 00bc E3DD     		ble	.L52
 789:Lib/lvgl/src/core/lv_obj_style.c **** 
 790:Lib/lvgl/src/core/lv_obj_style.c ****         found = lv_style_get_prop_inlined(obj_style->style, prop, v);
 834              		.loc 1 790 9 is_stmt 1 view .LVU218
 835              		.loc 1 790 17 is_stmt 0 view .LVU219
 836 00be 009A     		ldr	r2, [sp]
 837 00c0 4946     		mov	r1, r9
 838 00c2 FFF7FEFF 		bl	lv_style_get_prop_inlined
 839              	.LVL59:
 791:Lib/lvgl/src/core/lv_obj_style.c ****         if(found == LV_STYLE_RES_FOUND) {
 840              		.loc 1 791 9 is_stmt 1 view .LVU220
 841              		.loc 1 791 11 is_stmt 0 view .LVU221
 842 00c6 0128     		cmp	r0, #1
 843 00c8 DDD1     		bne	.L52
 792:Lib/lvgl/src/core/lv_obj_style.c ****             if(state_act == state) {
 844              		.loc 1 792 13 is_stmt 1 view .LVU222
 845              		.loc 1 792 15 is_stmt 0 view .LVU223
 846 00ca 019B     		ldr	r3, [sp, #4]
 847 00cc 4345     		cmp	r3, r8
 848 00ce 09D0     		beq	.L50
 793:Lib/lvgl/src/core/lv_obj_style.c ****                 return LV_STYLE_RES_FOUND;
 794:Lib/lvgl/src/core/lv_obj_style.c ****             }
 795:Lib/lvgl/src/core/lv_obj_style.c ****             weight = state_act;
ARM GAS  C:\Users\Alex\AppData\Local\Temp\ccdKwz1H.s 			page 50


 849              		.loc 1 795 20 view .LVU224
 850 00d0 C346     		mov	fp, r8
 851              	.LVL60:
 852              		.loc 1 795 20 view .LVU225
 853 00d2 D8E7     		b	.L52
 854              	.LVL61:
 855              	.L56:
 856              		.loc 1 795 20 view .LVU226
 857              	.LBE195:
 858 00d4 4646     		mov	r6, r8
 859 00d6 4FF0FF3B 		mov	fp, #-1
 860 00da D5E7     		b	.L53
 861              	.LVL62:
 862              	.L63:
 796:Lib/lvgl/src/core/lv_obj_style.c ****         }
 797:Lib/lvgl/src/core/lv_obj_style.c ****     }
 798:Lib/lvgl/src/core/lv_obj_style.c **** 
 799:Lib/lvgl/src/core/lv_obj_style.c ****     if(weight >= 0) return LV_STYLE_RES_FOUND;
 863              		.loc 1 799 5 is_stmt 1 view .LVU227
 864              		.loc 1 799 7 is_stmt 0 view .LVU228
 865 00dc BBF1000F 		cmp	fp, #0
 866 00e0 03DB     		blt	.L57
 867              		.loc 1 799 28 view .LVU229
 868 00e2 0120     		movs	r0, #1
 869              	.LVL63:
 870              	.L50:
 800:Lib/lvgl/src/core/lv_obj_style.c ****     else return LV_STYLE_RES_NOT_FOUND;
 801:Lib/lvgl/src/core/lv_obj_style.c **** }
 871              		.loc 1 801 1 view .LVU230
 872 00e4 03B0     		add	sp, sp, #12
 873              	.LCFI10:
 874              		.cfi_remember_state
 875              		.cfi_def_cfa_offset 36
 876              	.LVL64:
 877              		.loc 1 801 1 view .LVU231
 878              		@ sp needed
 879 00e6 BDE8F08F 		pop	{r4, r5, r6, r7, r8, r9, r10, fp, pc}
 880              	.LVL65:
 881              	.L57:
 882              	.LCFI11:
 883              		.cfi_restore_state
 800:Lib/lvgl/src/core/lv_obj_style.c ****     else return LV_STYLE_RES_NOT_FOUND;
 884              		.loc 1 800 17 view .LVU232
 885 00ea 0020     		movs	r0, #0
 886 00ec FAE7     		b	.L50
 887              		.cfi_endproc
 888              	.LFE258:
 890              		.section	.text.get_selector_style_prop,"ax",%progbits
 891              		.align	1
 892              		.syntax unified
 893              		.thumb
 894              		.thumb_func
 896              	get_selector_style_prop:
 897              	.LVL66:
 898              	.LFB270:
 802:Lib/lvgl/src/core/lv_obj_style.c **** 
 803:Lib/lvgl/src/core/lv_obj_style.c **** /**
ARM GAS  C:\Users\Alex\AppData\Local\Temp\ccdKwz1H.s 			page 51


 804:Lib/lvgl/src/core/lv_obj_style.c ****  * Refresh the style of all children of an object. (Called recursively)
 805:Lib/lvgl/src/core/lv_obj_style.c ****  * @param style refresh objects only with this
 806:Lib/lvgl/src/core/lv_obj_style.c ****  * @param obj pointer to an object
 807:Lib/lvgl/src/core/lv_obj_style.c ****  */
 808:Lib/lvgl/src/core/lv_obj_style.c **** static void report_style_change_core(void * style, lv_obj_t * obj)
 809:Lib/lvgl/src/core/lv_obj_style.c **** {
 810:Lib/lvgl/src/core/lv_obj_style.c ****     uint32_t i;
 811:Lib/lvgl/src/core/lv_obj_style.c ****     for(i = 0; i < obj->style_cnt; i++) {
 812:Lib/lvgl/src/core/lv_obj_style.c ****         if(style == NULL || obj->styles[i].style == style) {
 813:Lib/lvgl/src/core/lv_obj_style.c ****             full_cache_refresh(obj, lv_obj_style_get_selector_part(obj->styles[i].selector));
 814:Lib/lvgl/src/core/lv_obj_style.c ****             lv_obj_refresh_style(obj, LV_PART_ANY, LV_STYLE_PROP_ANY);
 815:Lib/lvgl/src/core/lv_obj_style.c ****             break;
 816:Lib/lvgl/src/core/lv_obj_style.c ****         }
 817:Lib/lvgl/src/core/lv_obj_style.c ****     }
 818:Lib/lvgl/src/core/lv_obj_style.c **** 
 819:Lib/lvgl/src/core/lv_obj_style.c ****     uint32_t child_cnt = lv_obj_get_child_count(obj);
 820:Lib/lvgl/src/core/lv_obj_style.c ****     for(i = 0; i < child_cnt; i++) {
 821:Lib/lvgl/src/core/lv_obj_style.c ****         report_style_change_core(style, obj->spec_attr->children[i]);
 822:Lib/lvgl/src/core/lv_obj_style.c ****     }
 823:Lib/lvgl/src/core/lv_obj_style.c **** }
 824:Lib/lvgl/src/core/lv_obj_style.c **** 
 825:Lib/lvgl/src/core/lv_obj_style.c **** /**
 826:Lib/lvgl/src/core/lv_obj_style.c ****  * Recursively refresh the style of the children. Go deeper until a not NULL style is found
 827:Lib/lvgl/src/core/lv_obj_style.c ****  * because the NULL styles are inherited from the parent
 828:Lib/lvgl/src/core/lv_obj_style.c ****  * @param obj pointer to an object
 829:Lib/lvgl/src/core/lv_obj_style.c ****  */
 830:Lib/lvgl/src/core/lv_obj_style.c **** static void refresh_children_style(lv_obj_t * obj)
 831:Lib/lvgl/src/core/lv_obj_style.c **** {
 832:Lib/lvgl/src/core/lv_obj_style.c ****     uint32_t i;
 833:Lib/lvgl/src/core/lv_obj_style.c ****     uint32_t child_cnt = lv_obj_get_child_count(obj);
 834:Lib/lvgl/src/core/lv_obj_style.c ****     for(i = 0; i < child_cnt; i++) {
 835:Lib/lvgl/src/core/lv_obj_style.c ****         lv_obj_t * child = obj->spec_attr->children[i];
 836:Lib/lvgl/src/core/lv_obj_style.c ****         lv_obj_invalidate(child);
 837:Lib/lvgl/src/core/lv_obj_style.c ****         lv_obj_send_event(child, LV_EVENT_STYLE_CHANGED, NULL);
 838:Lib/lvgl/src/core/lv_obj_style.c ****         lv_obj_invalidate(child);
 839:Lib/lvgl/src/core/lv_obj_style.c **** 
 840:Lib/lvgl/src/core/lv_obj_style.c ****         refresh_children_style(child); /*Check children too*/
 841:Lib/lvgl/src/core/lv_obj_style.c ****     }
 842:Lib/lvgl/src/core/lv_obj_style.c **** }
 843:Lib/lvgl/src/core/lv_obj_style.c **** 
 844:Lib/lvgl/src/core/lv_obj_style.c **** /**
 845:Lib/lvgl/src/core/lv_obj_style.c ****  * Remove the transition from object's part's property.
 846:Lib/lvgl/src/core/lv_obj_style.c ****  * - Remove the transition from `_lv_obj_style_trans_ll` and free it
 847:Lib/lvgl/src/core/lv_obj_style.c ****  * - Delete pending transitions
 848:Lib/lvgl/src/core/lv_obj_style.c ****  * @param obj pointer to an object which transition(s) should be removed
 849:Lib/lvgl/src/core/lv_obj_style.c ****  * @param part a part of object or 0xFF to remove from all parts
 850:Lib/lvgl/src/core/lv_obj_style.c ****  * @param prop a property or 0xFF to remove all properties
 851:Lib/lvgl/src/core/lv_obj_style.c ****  * @param tr_limit delete transitions only "older" than this. `NULL` if not used
 852:Lib/lvgl/src/core/lv_obj_style.c ****  */
 853:Lib/lvgl/src/core/lv_obj_style.c **** static bool trans_delete(lv_obj_t * obj, lv_part_t part, lv_style_prop_t prop, trans_t * tr_limit)
 854:Lib/lvgl/src/core/lv_obj_style.c **** {
 855:Lib/lvgl/src/core/lv_obj_style.c ****     trans_t * tr;
 856:Lib/lvgl/src/core/lv_obj_style.c ****     trans_t * tr_prev;
 857:Lib/lvgl/src/core/lv_obj_style.c ****     bool removed = false;
 858:Lib/lvgl/src/core/lv_obj_style.c ****     tr = _lv_ll_get_tail(style_trans_ll_p);
 859:Lib/lvgl/src/core/lv_obj_style.c ****     while(tr != NULL) {
 860:Lib/lvgl/src/core/lv_obj_style.c ****         if(tr == tr_limit) break;
ARM GAS  C:\Users\Alex\AppData\Local\Temp\ccdKwz1H.s 			page 52


 861:Lib/lvgl/src/core/lv_obj_style.c **** 
 862:Lib/lvgl/src/core/lv_obj_style.c ****         /*'tr' might be deleted, so get the next object while 'tr' is valid*/
 863:Lib/lvgl/src/core/lv_obj_style.c ****         tr_prev = _lv_ll_get_prev(style_trans_ll_p, tr);
 864:Lib/lvgl/src/core/lv_obj_style.c **** 
 865:Lib/lvgl/src/core/lv_obj_style.c ****         if(tr->obj == obj && (part == tr->selector || part == LV_PART_ANY) && (prop == tr->prop || 
 866:Lib/lvgl/src/core/lv_obj_style.c ****             /*Remove any transitioned properties from the trans. style
 867:Lib/lvgl/src/core/lv_obj_style.c ****              *to allow changing it by normal styles*/
 868:Lib/lvgl/src/core/lv_obj_style.c ****             uint32_t i;
 869:Lib/lvgl/src/core/lv_obj_style.c ****             for(i = 0; i < obj->style_cnt; i++) {
 870:Lib/lvgl/src/core/lv_obj_style.c ****                 if(obj->styles[i].is_trans && (part == LV_PART_ANY || obj->styles[i].selector == pa
 871:Lib/lvgl/src/core/lv_obj_style.c ****                     lv_style_remove_prop((lv_style_t *)obj->styles[i].style, tr->prop);
 872:Lib/lvgl/src/core/lv_obj_style.c ****                 }
 873:Lib/lvgl/src/core/lv_obj_style.c ****             }
 874:Lib/lvgl/src/core/lv_obj_style.c **** 
 875:Lib/lvgl/src/core/lv_obj_style.c ****             /*Free the transition descriptor too*/
 876:Lib/lvgl/src/core/lv_obj_style.c ****             lv_anim_delete(tr, NULL);
 877:Lib/lvgl/src/core/lv_obj_style.c ****             _lv_ll_remove(style_trans_ll_p, tr);
 878:Lib/lvgl/src/core/lv_obj_style.c ****             lv_free(tr);
 879:Lib/lvgl/src/core/lv_obj_style.c ****             removed = true;
 880:Lib/lvgl/src/core/lv_obj_style.c **** 
 881:Lib/lvgl/src/core/lv_obj_style.c ****         }
 882:Lib/lvgl/src/core/lv_obj_style.c ****         tr = tr_prev;
 883:Lib/lvgl/src/core/lv_obj_style.c ****     }
 884:Lib/lvgl/src/core/lv_obj_style.c ****     return removed;
 885:Lib/lvgl/src/core/lv_obj_style.c **** }
 886:Lib/lvgl/src/core/lv_obj_style.c **** 
 887:Lib/lvgl/src/core/lv_obj_style.c **** static void trans_anim_cb(void * _tr, int32_t v)
 888:Lib/lvgl/src/core/lv_obj_style.c **** {
 889:Lib/lvgl/src/core/lv_obj_style.c ****     trans_t * tr = _tr;
 890:Lib/lvgl/src/core/lv_obj_style.c ****     lv_obj_t * obj = tr->obj;
 891:Lib/lvgl/src/core/lv_obj_style.c **** 
 892:Lib/lvgl/src/core/lv_obj_style.c ****     uint32_t i;
 893:Lib/lvgl/src/core/lv_obj_style.c ****     for(i = 0; i < obj->style_cnt; i++) {
 894:Lib/lvgl/src/core/lv_obj_style.c ****         if(obj->styles[i].is_trans == 0 || obj->styles[i].selector != tr->selector) continue;
 895:Lib/lvgl/src/core/lv_obj_style.c **** 
 896:Lib/lvgl/src/core/lv_obj_style.c ****         lv_style_value_t value_final = {0};
 897:Lib/lvgl/src/core/lv_obj_style.c ****         switch(tr->prop) {
 898:Lib/lvgl/src/core/lv_obj_style.c **** 
 899:Lib/lvgl/src/core/lv_obj_style.c ****             case LV_STYLE_BORDER_SIDE:
 900:Lib/lvgl/src/core/lv_obj_style.c ****             case LV_STYLE_BORDER_POST:
 901:Lib/lvgl/src/core/lv_obj_style.c ****             case LV_STYLE_BLEND_MODE:
 902:Lib/lvgl/src/core/lv_obj_style.c ****                 if(v < 255) value_final.num = tr->start_value.num;
 903:Lib/lvgl/src/core/lv_obj_style.c ****                 else value_final.num = tr->end_value.num;
 904:Lib/lvgl/src/core/lv_obj_style.c ****                 break;
 905:Lib/lvgl/src/core/lv_obj_style.c ****             case LV_STYLE_TRANSITION:
 906:Lib/lvgl/src/core/lv_obj_style.c ****             case LV_STYLE_TEXT_FONT:
 907:Lib/lvgl/src/core/lv_obj_style.c ****                 if(v < 255) value_final.ptr = tr->start_value.ptr;
 908:Lib/lvgl/src/core/lv_obj_style.c ****                 else value_final.ptr = tr->end_value.ptr;
 909:Lib/lvgl/src/core/lv_obj_style.c ****                 break;
 910:Lib/lvgl/src/core/lv_obj_style.c ****             case LV_STYLE_COLOR_FILTER_DSC:
 911:Lib/lvgl/src/core/lv_obj_style.c ****                 if(tr->start_value.ptr == NULL) value_final.ptr = tr->end_value.ptr;
 912:Lib/lvgl/src/core/lv_obj_style.c ****                 else if(tr->end_value.ptr == NULL) value_final.ptr = tr->start_value.ptr;
 913:Lib/lvgl/src/core/lv_obj_style.c ****                 else if(v < 128) value_final.ptr = tr->start_value.ptr;
 914:Lib/lvgl/src/core/lv_obj_style.c ****                 else value_final.ptr = tr->end_value.ptr;
 915:Lib/lvgl/src/core/lv_obj_style.c ****                 break;
 916:Lib/lvgl/src/core/lv_obj_style.c ****             case LV_STYLE_BG_COLOR:
 917:Lib/lvgl/src/core/lv_obj_style.c ****             case LV_STYLE_BG_GRAD_COLOR:
ARM GAS  C:\Users\Alex\AppData\Local\Temp\ccdKwz1H.s 			page 53


 918:Lib/lvgl/src/core/lv_obj_style.c ****             case LV_STYLE_BORDER_COLOR:
 919:Lib/lvgl/src/core/lv_obj_style.c ****             case LV_STYLE_TEXT_COLOR:
 920:Lib/lvgl/src/core/lv_obj_style.c ****             case LV_STYLE_SHADOW_COLOR:
 921:Lib/lvgl/src/core/lv_obj_style.c ****             case LV_STYLE_OUTLINE_COLOR:
 922:Lib/lvgl/src/core/lv_obj_style.c ****             case LV_STYLE_IMAGE_RECOLOR:
 923:Lib/lvgl/src/core/lv_obj_style.c ****                 if(v <= 0) value_final.color = tr->start_value.color;
 924:Lib/lvgl/src/core/lv_obj_style.c ****                 else if(v >= 255) value_final.color = tr->end_value.color;
 925:Lib/lvgl/src/core/lv_obj_style.c ****                 else value_final.color = lv_color_mix(tr->end_value.color, tr->start_value.color, v
 926:Lib/lvgl/src/core/lv_obj_style.c ****                 break;
 927:Lib/lvgl/src/core/lv_obj_style.c **** 
 928:Lib/lvgl/src/core/lv_obj_style.c ****             default:
 929:Lib/lvgl/src/core/lv_obj_style.c ****                 if(v == 0) value_final.num = tr->start_value.num;
 930:Lib/lvgl/src/core/lv_obj_style.c ****                 else if(v == 255) value_final.num = tr->end_value.num;
 931:Lib/lvgl/src/core/lv_obj_style.c ****                 else value_final.num = tr->start_value.num + ((int32_t)((int32_t)(tr->end_value.num
 932:Lib/lvgl/src/core/lv_obj_style.c ****                 break;
 933:Lib/lvgl/src/core/lv_obj_style.c ****         }
 934:Lib/lvgl/src/core/lv_obj_style.c **** 
 935:Lib/lvgl/src/core/lv_obj_style.c ****         lv_style_value_t old_value;
 936:Lib/lvgl/src/core/lv_obj_style.c ****         bool refr = true;
 937:Lib/lvgl/src/core/lv_obj_style.c ****         if(lv_style_get_prop(obj->styles[i].style, tr->prop, &old_value)) {
 938:Lib/lvgl/src/core/lv_obj_style.c ****             if(value_final.ptr == old_value.ptr && lv_color_eq(value_final.color, old_value.color) 
 939:Lib/lvgl/src/core/lv_obj_style.c ****                value_final.num == old_value.num) {
 940:Lib/lvgl/src/core/lv_obj_style.c ****                 refr = false;
 941:Lib/lvgl/src/core/lv_obj_style.c ****             }
 942:Lib/lvgl/src/core/lv_obj_style.c ****         }
 943:Lib/lvgl/src/core/lv_obj_style.c ****         lv_style_set_prop((lv_style_t *)obj->styles[i].style, tr->prop, value_final);
 944:Lib/lvgl/src/core/lv_obj_style.c ****         if(refr) lv_obj_refresh_style(tr->obj, tr->selector, tr->prop);
 945:Lib/lvgl/src/core/lv_obj_style.c ****         break;
 946:Lib/lvgl/src/core/lv_obj_style.c **** 
 947:Lib/lvgl/src/core/lv_obj_style.c ****     }
 948:Lib/lvgl/src/core/lv_obj_style.c **** 
 949:Lib/lvgl/src/core/lv_obj_style.c **** }
 950:Lib/lvgl/src/core/lv_obj_style.c **** 
 951:Lib/lvgl/src/core/lv_obj_style.c **** static void trans_anim_start_cb(lv_anim_t * a)
 952:Lib/lvgl/src/core/lv_obj_style.c **** {
 953:Lib/lvgl/src/core/lv_obj_style.c ****     trans_t * tr = a->var;
 954:Lib/lvgl/src/core/lv_obj_style.c **** 
 955:Lib/lvgl/src/core/lv_obj_style.c ****     lv_part_t part = lv_obj_style_get_selector_part(tr->selector);
 956:Lib/lvgl/src/core/lv_obj_style.c ****     tr->start_value = lv_obj_get_style_prop(tr->obj, part, tr->prop);
 957:Lib/lvgl/src/core/lv_obj_style.c **** 
 958:Lib/lvgl/src/core/lv_obj_style.c ****     /*Init prop to an invalid values to be sure `trans_del` won't delete this added `tr`*/
 959:Lib/lvgl/src/core/lv_obj_style.c ****     lv_style_prop_t prop_tmp = tr->prop;
 960:Lib/lvgl/src/core/lv_obj_style.c ****     tr->prop = LV_STYLE_PROP_INV;
 961:Lib/lvgl/src/core/lv_obj_style.c **** 
 962:Lib/lvgl/src/core/lv_obj_style.c ****     /*Delete the related transitions if any*/
 963:Lib/lvgl/src/core/lv_obj_style.c ****     trans_delete(tr->obj, part, prop_tmp, tr);
 964:Lib/lvgl/src/core/lv_obj_style.c **** 
 965:Lib/lvgl/src/core/lv_obj_style.c ****     tr->prop = prop_tmp;
 966:Lib/lvgl/src/core/lv_obj_style.c **** 
 967:Lib/lvgl/src/core/lv_obj_style.c ****     _lv_obj_style_t * style_trans = get_trans_style(tr->obj, tr->selector);
 968:Lib/lvgl/src/core/lv_obj_style.c ****     lv_style_set_prop((lv_style_t *)style_trans->style, tr->prop,
 969:Lib/lvgl/src/core/lv_obj_style.c ****                       tr->start_value);  /*Be sure `trans_style` has a valid value*/
 970:Lib/lvgl/src/core/lv_obj_style.c **** 
 971:Lib/lvgl/src/core/lv_obj_style.c **** }
 972:Lib/lvgl/src/core/lv_obj_style.c **** 
 973:Lib/lvgl/src/core/lv_obj_style.c **** static void trans_anim_completed_cb(lv_anim_t * a)
 974:Lib/lvgl/src/core/lv_obj_style.c **** {
ARM GAS  C:\Users\Alex\AppData\Local\Temp\ccdKwz1H.s 			page 54


 975:Lib/lvgl/src/core/lv_obj_style.c ****     trans_t * tr = a->var;
 976:Lib/lvgl/src/core/lv_obj_style.c ****     lv_obj_t * obj = tr->obj;
 977:Lib/lvgl/src/core/lv_obj_style.c ****     lv_style_prop_t prop = tr->prop;
 978:Lib/lvgl/src/core/lv_obj_style.c **** 
 979:Lib/lvgl/src/core/lv_obj_style.c ****     /*Remove the transitioned property from trans. style
 980:Lib/lvgl/src/core/lv_obj_style.c ****      *if there no more transitions for this property
 981:Lib/lvgl/src/core/lv_obj_style.c ****      *It allows changing it by normal styles*/
 982:Lib/lvgl/src/core/lv_obj_style.c ****     bool running = false;
 983:Lib/lvgl/src/core/lv_obj_style.c ****     trans_t * tr_i;
 984:Lib/lvgl/src/core/lv_obj_style.c ****     _LV_LL_READ(style_trans_ll_p, tr_i) {
 985:Lib/lvgl/src/core/lv_obj_style.c ****         if(tr_i != tr && tr_i->obj == tr->obj && tr_i->selector == tr->selector && tr_i->prop == tr
 986:Lib/lvgl/src/core/lv_obj_style.c ****             running = true;
 987:Lib/lvgl/src/core/lv_obj_style.c ****             break;
 988:Lib/lvgl/src/core/lv_obj_style.c ****         }
 989:Lib/lvgl/src/core/lv_obj_style.c ****     }
 990:Lib/lvgl/src/core/lv_obj_style.c **** 
 991:Lib/lvgl/src/core/lv_obj_style.c ****     if(!running) {
 992:Lib/lvgl/src/core/lv_obj_style.c ****         uint32_t i;
 993:Lib/lvgl/src/core/lv_obj_style.c ****         for(i = 0; i < obj->style_cnt; i++) {
 994:Lib/lvgl/src/core/lv_obj_style.c ****             if(obj->styles[i].is_trans && obj->styles[i].selector == tr->selector) {
 995:Lib/lvgl/src/core/lv_obj_style.c ****                 _lv_ll_remove(style_trans_ll_p, tr);
 996:Lib/lvgl/src/core/lv_obj_style.c ****                 lv_free(tr);
 997:Lib/lvgl/src/core/lv_obj_style.c **** 
 998:Lib/lvgl/src/core/lv_obj_style.c ****                 _lv_obj_style_t * obj_style = &obj->styles[i];
 999:Lib/lvgl/src/core/lv_obj_style.c ****                 lv_style_remove_prop((lv_style_t *)obj_style->style, prop);
1000:Lib/lvgl/src/core/lv_obj_style.c **** 
1001:Lib/lvgl/src/core/lv_obj_style.c ****                 if(lv_style_is_empty(obj->styles[i].style)) {
1002:Lib/lvgl/src/core/lv_obj_style.c ****                     lv_obj_remove_style(obj, (lv_style_t *)obj_style->style, obj_style->selector);
1003:Lib/lvgl/src/core/lv_obj_style.c **** 
1004:Lib/lvgl/src/core/lv_obj_style.c ****                 }
1005:Lib/lvgl/src/core/lv_obj_style.c ****                 break;
1006:Lib/lvgl/src/core/lv_obj_style.c ****             }
1007:Lib/lvgl/src/core/lv_obj_style.c ****         }
1008:Lib/lvgl/src/core/lv_obj_style.c ****     }
1009:Lib/lvgl/src/core/lv_obj_style.c **** }
1010:Lib/lvgl/src/core/lv_obj_style.c **** 
1011:Lib/lvgl/src/core/lv_obj_style.c **** static lv_layer_type_t calculate_layer_type(lv_obj_t * obj)
1012:Lib/lvgl/src/core/lv_obj_style.c **** {
1013:Lib/lvgl/src/core/lv_obj_style.c ****     if(lv_obj_get_style_transform_rotation(obj, 0) != 0) return LV_LAYER_TYPE_TRANSFORM;
1014:Lib/lvgl/src/core/lv_obj_style.c ****     if(lv_obj_get_style_transform_scale_x(obj, 0) != 256) return LV_LAYER_TYPE_TRANSFORM;
1015:Lib/lvgl/src/core/lv_obj_style.c ****     if(lv_obj_get_style_transform_scale_y(obj, 0) != 256) return LV_LAYER_TYPE_TRANSFORM;
1016:Lib/lvgl/src/core/lv_obj_style.c ****     if(lv_obj_get_style_transform_skew_x(obj, 0) != 0) return LV_LAYER_TYPE_TRANSFORM;
1017:Lib/lvgl/src/core/lv_obj_style.c ****     if(lv_obj_get_style_transform_skew_y(obj, 0) != 0) return LV_LAYER_TYPE_TRANSFORM;
1018:Lib/lvgl/src/core/lv_obj_style.c ****     if(lv_obj_get_style_opa_layered(obj, 0) != LV_OPA_COVER) return LV_LAYER_TYPE_SIMPLE;
1019:Lib/lvgl/src/core/lv_obj_style.c ****     if(lv_obj_get_style_blend_mode(obj, 0) != LV_BLEND_MODE_NORMAL) return LV_LAYER_TYPE_SIMPLE;
1020:Lib/lvgl/src/core/lv_obj_style.c ****     return LV_LAYER_TYPE_NONE;
1021:Lib/lvgl/src/core/lv_obj_style.c **** }
1022:Lib/lvgl/src/core/lv_obj_style.c **** 
1023:Lib/lvgl/src/core/lv_obj_style.c **** static void full_cache_refresh(lv_obj_t * obj, lv_part_t part)
1024:Lib/lvgl/src/core/lv_obj_style.c **** {
1025:Lib/lvgl/src/core/lv_obj_style.c **** #if LV_OBJ_STYLE_CACHE
1026:Lib/lvgl/src/core/lv_obj_style.c ****     uint32_t i;
1027:Lib/lvgl/src/core/lv_obj_style.c ****     if(part == LV_PART_MAIN || part == LV_PART_ANY) {
1028:Lib/lvgl/src/core/lv_obj_style.c ****         obj->style_main_prop_is_set = 0;
1029:Lib/lvgl/src/core/lv_obj_style.c ****         for(i = 0; i < obj->style_cnt; i++) {
1030:Lib/lvgl/src/core/lv_obj_style.c ****             if(lv_obj_style_get_selector_part(obj->styles[i].selector) != LV_PART_MAIN) continue;
1031:Lib/lvgl/src/core/lv_obj_style.c ****             lv_style_t * style = (lv_style_t *)obj->styles[i].style;
ARM GAS  C:\Users\Alex\AppData\Local\Temp\ccdKwz1H.s 			page 55


1032:Lib/lvgl/src/core/lv_obj_style.c ****             uint32_t j;
1033:Lib/lvgl/src/core/lv_obj_style.c ****             if(lv_style_is_const(style)) {
1034:Lib/lvgl/src/core/lv_obj_style.c ****                 lv_style_const_prop_t * props = style->values_and_props;
1035:Lib/lvgl/src/core/lv_obj_style.c ****                 for(j = 0; props[j].prop_ptr; j++) {
1036:Lib/lvgl/src/core/lv_obj_style.c ****                     obj->style_main_prop_is_set |= STYLE_PROP_SHIFTED(*props[j].prop_ptr);
1037:Lib/lvgl/src/core/lv_obj_style.c ****                 }
1038:Lib/lvgl/src/core/lv_obj_style.c ****             }
1039:Lib/lvgl/src/core/lv_obj_style.c ****             else {
1040:Lib/lvgl/src/core/lv_obj_style.c ****                 lv_style_prop_t * props = (lv_style_prop_t *)style->values_and_props + style->prop_
1041:Lib/lvgl/src/core/lv_obj_style.c ****                 for(j = 0; j < style->prop_cnt; j++) {
1042:Lib/lvgl/src/core/lv_obj_style.c ****                     obj->style_main_prop_is_set |= STYLE_PROP_SHIFTED(props[j]);
1043:Lib/lvgl/src/core/lv_obj_style.c ****                 }
1044:Lib/lvgl/src/core/lv_obj_style.c ****             }
1045:Lib/lvgl/src/core/lv_obj_style.c ****         }
1046:Lib/lvgl/src/core/lv_obj_style.c ****     }
1047:Lib/lvgl/src/core/lv_obj_style.c ****     if(part != LV_PART_MAIN || part == LV_PART_ANY) {
1048:Lib/lvgl/src/core/lv_obj_style.c ****         obj->style_other_prop_is_set = 0;
1049:Lib/lvgl/src/core/lv_obj_style.c ****         for(i = 0; i < obj->style_cnt; i++) {
1050:Lib/lvgl/src/core/lv_obj_style.c ****             if(lv_obj_style_get_selector_part(obj->styles[i].selector) == LV_PART_MAIN) continue;
1051:Lib/lvgl/src/core/lv_obj_style.c ****             lv_style_t * style = (lv_style_t *)obj->styles[i].style;
1052:Lib/lvgl/src/core/lv_obj_style.c ****             uint32_t j;
1053:Lib/lvgl/src/core/lv_obj_style.c ****             if(lv_style_is_const(style)) {
1054:Lib/lvgl/src/core/lv_obj_style.c ****                 lv_style_const_prop_t * props = style->values_and_props;
1055:Lib/lvgl/src/core/lv_obj_style.c ****                 for(j = 0; props[j].prop_ptr; j++) {
1056:Lib/lvgl/src/core/lv_obj_style.c ****                     obj->style_other_prop_is_set |= STYLE_PROP_SHIFTED(*props[j].prop_ptr);
1057:Lib/lvgl/src/core/lv_obj_style.c ****                 }
1058:Lib/lvgl/src/core/lv_obj_style.c ****             }
1059:Lib/lvgl/src/core/lv_obj_style.c ****             else {
1060:Lib/lvgl/src/core/lv_obj_style.c ****                 lv_style_prop_t * props = (lv_style_prop_t *)style->values_and_props + style->prop_
1061:Lib/lvgl/src/core/lv_obj_style.c ****                 for(j = 0; j < style->prop_cnt; j++) {
1062:Lib/lvgl/src/core/lv_obj_style.c ****                     obj->style_other_prop_is_set |= STYLE_PROP_SHIFTED(props[j]);
1063:Lib/lvgl/src/core/lv_obj_style.c ****                 }
1064:Lib/lvgl/src/core/lv_obj_style.c ****             }
1065:Lib/lvgl/src/core/lv_obj_style.c ****         }
1066:Lib/lvgl/src/core/lv_obj_style.c ****     }
1067:Lib/lvgl/src/core/lv_obj_style.c **** #else
1068:Lib/lvgl/src/core/lv_obj_style.c ****     LV_UNUSED(obj);
1069:Lib/lvgl/src/core/lv_obj_style.c ****     LV_UNUSED(part);
1070:Lib/lvgl/src/core/lv_obj_style.c **** #endif
1071:Lib/lvgl/src/core/lv_obj_style.c **** }
1072:Lib/lvgl/src/core/lv_obj_style.c **** 
1073:Lib/lvgl/src/core/lv_obj_style.c **** static void fade_anim_cb(void * obj, int32_t v)
1074:Lib/lvgl/src/core/lv_obj_style.c **** {
1075:Lib/lvgl/src/core/lv_obj_style.c ****     lv_obj_set_style_opa(obj, v, 0);
1076:Lib/lvgl/src/core/lv_obj_style.c **** }
1077:Lib/lvgl/src/core/lv_obj_style.c **** 
1078:Lib/lvgl/src/core/lv_obj_style.c **** static void fade_in_anim_completed(lv_anim_t * a)
1079:Lib/lvgl/src/core/lv_obj_style.c **** {
1080:Lib/lvgl/src/core/lv_obj_style.c ****     lv_obj_remove_local_style_prop(a->var, LV_STYLE_OPA, 0);
1081:Lib/lvgl/src/core/lv_obj_style.c **** }
1082:Lib/lvgl/src/core/lv_obj_style.c **** 
1083:Lib/lvgl/src/core/lv_obj_style.c **** static bool style_has_flag(const lv_style_t * style, uint32_t flag)
1084:Lib/lvgl/src/core/lv_obj_style.c **** {
1085:Lib/lvgl/src/core/lv_obj_style.c ****     if(lv_style_is_const(style)) {
1086:Lib/lvgl/src/core/lv_obj_style.c ****         lv_style_const_prop_t * props = style->values_and_props;
1087:Lib/lvgl/src/core/lv_obj_style.c ****         uint32_t i;
1088:Lib/lvgl/src/core/lv_obj_style.c ****         for(i = 0; props[i].prop_ptr; i++) {
ARM GAS  C:\Users\Alex\AppData\Local\Temp\ccdKwz1H.s 			page 56


1089:Lib/lvgl/src/core/lv_obj_style.c ****             if(lv_style_prop_has_flag(*props[i].prop_ptr, flag)) {
1090:Lib/lvgl/src/core/lv_obj_style.c ****                 return true;
1091:Lib/lvgl/src/core/lv_obj_style.c ****             }
1092:Lib/lvgl/src/core/lv_obj_style.c ****         }
1093:Lib/lvgl/src/core/lv_obj_style.c ****     }
1094:Lib/lvgl/src/core/lv_obj_style.c ****     else {
1095:Lib/lvgl/src/core/lv_obj_style.c ****         lv_style_prop_t * props = (lv_style_prop_t *)style->values_and_props + style->prop_cnt * si
1096:Lib/lvgl/src/core/lv_obj_style.c ****         uint32_t i;
1097:Lib/lvgl/src/core/lv_obj_style.c ****         for(i = 0; i < style->prop_cnt; i++) {
1098:Lib/lvgl/src/core/lv_obj_style.c ****             if(lv_style_prop_has_flag(props[i], flag)) {
1099:Lib/lvgl/src/core/lv_obj_style.c ****                 return true;
1100:Lib/lvgl/src/core/lv_obj_style.c ****             }
1101:Lib/lvgl/src/core/lv_obj_style.c ****         }
1102:Lib/lvgl/src/core/lv_obj_style.c ****     }
1103:Lib/lvgl/src/core/lv_obj_style.c ****     return false;
1104:Lib/lvgl/src/core/lv_obj_style.c **** }
1105:Lib/lvgl/src/core/lv_obj_style.c **** 
1106:Lib/lvgl/src/core/lv_obj_style.c **** static lv_style_res_t get_selector_style_prop(const lv_obj_t * obj, lv_style_selector_t selector, l
1107:Lib/lvgl/src/core/lv_obj_style.c ****                                               lv_style_value_t * value_act)
1108:Lib/lvgl/src/core/lv_obj_style.c **** {
 899              		.loc 1 1108 1 is_stmt 1 view -0
 900              		.cfi_startproc
 901              		@ args = 0, pretend = 0, frame = 0
 902              		@ frame_needed = 0, uses_anonymous_args = 0
 903              		.loc 1 1108 1 is_stmt 0 view .LVU234
 904 0000 F8B5     		push	{r3, r4, r5, r6, r7, lr}
 905              	.LCFI12:
 906              		.cfi_def_cfa_offset 24
 907              		.cfi_offset 3, -24
 908              		.cfi_offset 4, -20
 909              		.cfi_offset 5, -16
 910              		.cfi_offset 6, -12
 911              		.cfi_offset 7, -8
 912              		.cfi_offset 14, -4
 913 0002 0446     		mov	r4, r0
 914 0004 1546     		mov	r5, r2
 915 0006 1F46     		mov	r7, r3
1109:Lib/lvgl/src/core/lv_obj_style.c ****     lv_style_res_t found;
 916              		.loc 1 1109 5 is_stmt 1 view .LVU235
1110:Lib/lvgl/src/core/lv_obj_style.c ****     lv_part_t part = lv_obj_style_get_selector_part(selector);
 917              		.loc 1 1110 5 view .LVU236
 918              	.LVL67:
 919              	.LBB200:
 920              	.LBI200:
 234:Lib/lvgl/src/core/lv_obj_style.h **** {
 921              		.loc 5 234 25 view .LVU237
 922              	.LBB201:
 923              		.loc 5 236 5 view .LVU238
 924              		.loc 5 236 21 is_stmt 0 view .LVU239
 925 0008 01F47F06 		and	r6, r1, #16711680
 926              	.LVL68:
 927              		.loc 5 236 21 view .LVU240
 928              	.LBE201:
 929              	.LBE200:
1111:Lib/lvgl/src/core/lv_obj_style.c **** 
1112:Lib/lvgl/src/core/lv_obj_style.c ****     /*The happy path*/
1113:Lib/lvgl/src/core/lv_obj_style.c **** #if LV_OBJ_STYLE_CACHE
ARM GAS  C:\Users\Alex\AppData\Local\Temp\ccdKwz1H.s 			page 57


1114:Lib/lvgl/src/core/lv_obj_style.c ****     const uint32_t prop_shifted = STYLE_PROP_SHIFTED(prop);
1115:Lib/lvgl/src/core/lv_obj_style.c ****     if((part == LV_PART_MAIN ? obj->style_main_prop_is_set : obj->style_other_prop_is_set) & prop_s
1116:Lib/lvgl/src/core/lv_obj_style.c **** #endif
1117:Lib/lvgl/src/core/lv_obj_style.c ****     {
1118:Lib/lvgl/src/core/lv_obj_style.c ****         found = get_prop_core(obj, selector, prop, value_act);
 930              		.loc 1 1118 9 is_stmt 1 view .LVU241
 931              		.loc 1 1118 17 is_stmt 0 view .LVU242
 932 000c FFF7FEFF 		bl	get_prop_core
 933              	.LVL69:
1119:Lib/lvgl/src/core/lv_obj_style.c ****         if(found == LV_STYLE_RES_FOUND) return LV_STYLE_RES_FOUND;
 934              		.loc 1 1119 9 is_stmt 1 view .LVU243
 935              		.loc 1 1119 11 is_stmt 0 view .LVU244
 936 0010 0128     		cmp	r0, #1
 937 0012 3CD0     		beq	.L65
1120:Lib/lvgl/src/core/lv_obj_style.c ****     }
1121:Lib/lvgl/src/core/lv_obj_style.c **** 
1122:Lib/lvgl/src/core/lv_obj_style.c ****     extern const uint8_t _lv_style_builtin_prop_flag_lookup_table[];
 938              		.loc 1 1122 5 is_stmt 1 view .LVU245
1123:Lib/lvgl/src/core/lv_obj_style.c ****     bool inheritable = false;
 939              		.loc 1 1123 5 view .LVU246
 940              	.LVL70:
1124:Lib/lvgl/src/core/lv_obj_style.c ****     if(prop < _LV_STYLE_NUM_BUILT_IN_PROPS) {
 941              		.loc 1 1124 5 view .LVU247
 942              		.loc 1 1124 7 is_stmt 0 view .LVU248
 943 0014 822D     		cmp	r5, #130
 944 0016 12D8     		bhi	.L66
1125:Lib/lvgl/src/core/lv_obj_style.c ****         inheritable = _lv_style_builtin_prop_flag_lookup_table[prop] & LV_STYLE_PROP_FLAG_INHERITAB
 945              		.loc 1 1125 9 is_stmt 1 view .LVU249
 946              		.loc 1 1125 63 is_stmt 0 view .LVU250
 947 0018 1D4B     		ldr	r3, .L85
 948 001a 5B5D     		ldrb	r3, [r3, r5]	@ zero_extendqisi2
 949              		.loc 1 1125 21 view .LVU251
 950 001c 03F00103 		and	r3, r3, #1
 951              	.LVL71:
 952              	.L67:
1126:Lib/lvgl/src/core/lv_obj_style.c ****     }
1127:Lib/lvgl/src/core/lv_obj_style.c ****     else {
1128:Lib/lvgl/src/core/lv_obj_style.c ****         if(_style_custom_prop_flag_lookup_table != NULL) {
1129:Lib/lvgl/src/core/lv_obj_style.c ****             inheritable = _style_custom_prop_flag_lookup_table[prop - _LV_STYLE_NUM_BUILT_IN_PROPS]
1130:Lib/lvgl/src/core/lv_obj_style.c ****                           LV_STYLE_PROP_FLAG_INHERITABLE;
1131:Lib/lvgl/src/core/lv_obj_style.c ****         }
1132:Lib/lvgl/src/core/lv_obj_style.c ****     }
1133:Lib/lvgl/src/core/lv_obj_style.c **** 
1134:Lib/lvgl/src/core/lv_obj_style.c ****     if(inheritable) {
 953              		.loc 1 1134 5 is_stmt 1 view .LVU252
 954              		.loc 1 1134 7 is_stmt 0 view .LVU253
 955 0020 D3B1     		cbz	r3, .L68
1135:Lib/lvgl/src/core/lv_obj_style.c ****         /*If not found, check the `MAIN` style first, if already on the MAIN part go to the parent*
1136:Lib/lvgl/src/core/lv_obj_style.c ****         if(part != LV_PART_MAIN) part = LV_PART_MAIN;
 956              		.loc 1 1136 9 is_stmt 1 view .LVU254
 957              		.loc 1 1136 11 is_stmt 0 view .LVU255
 958 0022 AEB9     		cbnz	r6, .L76
1137:Lib/lvgl/src/core/lv_obj_style.c ****         else obj = obj->parent;
 959              		.loc 1 1137 14 is_stmt 1 view .LVU256
 960              		.loc 1 1137 18 is_stmt 0 view .LVU257
 961 0024 6468     		ldr	r4, [r4, #4]
 962              	.LVL72:
ARM GAS  C:\Users\Alex\AppData\Local\Temp\ccdKwz1H.s 			page 58


 963              	.L70:
1138:Lib/lvgl/src/core/lv_obj_style.c **** 
1139:Lib/lvgl/src/core/lv_obj_style.c ****         while(obj) {
 964              		.loc 1 1139 15 is_stmt 1 view .LVU258
 965 0026 ACB1     		cbz	r4, .L80
1140:Lib/lvgl/src/core/lv_obj_style.c **** #if LV_OBJ_STYLE_CACHE
1141:Lib/lvgl/src/core/lv_obj_style.c ****             if(obj->style_main_prop_is_set & prop_shifted)
1142:Lib/lvgl/src/core/lv_obj_style.c **** #endif
1143:Lib/lvgl/src/core/lv_obj_style.c ****             {
1144:Lib/lvgl/src/core/lv_obj_style.c ****                 selector = part | obj->state;
 966              		.loc 1 1144 17 view .LVU259
 967              		.loc 1 1144 38 is_stmt 0 view .LVU260
 968 0028 218D     		ldrh	r1, [r4, #40]
 969              	.LVL73:
1145:Lib/lvgl/src/core/lv_obj_style.c ****                 found = get_prop_core(obj, selector, prop, value_act);
 970              		.loc 1 1145 17 is_stmt 1 view .LVU261
 971              		.loc 1 1145 25 is_stmt 0 view .LVU262
 972 002a 3B46     		mov	r3, r7
 973 002c 2A46     		mov	r2, r5
 974 002e 3143     		orrs	r1, r1, r6
 975              	.LVL74:
 976              		.loc 1 1145 25 view .LVU263
 977 0030 2046     		mov	r0, r4
 978              	.LVL75:
 979              		.loc 1 1145 25 view .LVU264
 980 0032 FFF7FEFF 		bl	get_prop_core
 981              	.LVL76:
1146:Lib/lvgl/src/core/lv_obj_style.c ****                 if(found == LV_STYLE_RES_FOUND) return LV_STYLE_RES_FOUND;
 982              		.loc 1 1146 17 is_stmt 1 view .LVU265
 983              		.loc 1 1146 19 is_stmt 0 view .LVU266
 984 0036 0128     		cmp	r0, #1
 985 0038 29D0     		beq	.L65
1147:Lib/lvgl/src/core/lv_obj_style.c ****             }
1148:Lib/lvgl/src/core/lv_obj_style.c ****             /*Check the parent too.*/
1149:Lib/lvgl/src/core/lv_obj_style.c ****             obj = obj->parent;
 986              		.loc 1 1149 13 is_stmt 1 view .LVU267
 987              		.loc 1 1149 17 is_stmt 0 view .LVU268
 988 003a 6468     		ldr	r4, [r4, #4]
 989              	.LVL77:
 990              		.loc 1 1149 17 view .LVU269
 991 003c F3E7     		b	.L70
 992              	.LVL78:
 993              	.L66:
1128:Lib/lvgl/src/core/lv_obj_style.c ****             inheritable = _style_custom_prop_flag_lookup_table[prop - _LV_STYLE_NUM_BUILT_IN_PROPS]
 994              		.loc 1 1128 9 is_stmt 1 view .LVU270
1128:Lib/lvgl/src/core/lv_obj_style.c ****             inheritable = _style_custom_prop_flag_lookup_table[prop - _LV_STYLE_NUM_BUILT_IN_PROPS]
 995              		.loc 1 1128 12 is_stmt 0 view .LVU271
 996 003e 154B     		ldr	r3, .L85+4
 997 0040 1B6B     		ldr	r3, [r3, #48]
1128:Lib/lvgl/src/core/lv_obj_style.c ****             inheritable = _style_custom_prop_flag_lookup_table[prop - _LV_STYLE_NUM_BUILT_IN_PROPS]
 998              		.loc 1 1128 11 view .LVU272
 999 0042 4BB1     		cbz	r3, .L68
1129:Lib/lvgl/src/core/lv_obj_style.c ****                           LV_STYLE_PROP_FLAG_INHERITABLE;
 1000              		.loc 1 1129 13 is_stmt 1 view .LVU273
1129:Lib/lvgl/src/core/lv_obj_style.c ****                           LV_STYLE_PROP_FLAG_INHERITABLE;
 1001              		.loc 1 1129 63 is_stmt 0 view .LVU274
 1002 0044 2B44     		add	r3, r3, r5
ARM GAS  C:\Users\Alex\AppData\Local\Temp\ccdKwz1H.s 			page 59


 1003 0046 13F8833C 		ldrb	r3, [r3, #-131]	@ zero_extendqisi2
1129:Lib/lvgl/src/core/lv_obj_style.c ****                           LV_STYLE_PROP_FLAG_INHERITABLE;
 1004              		.loc 1 1129 25 view .LVU275
 1005 004a 03F00103 		and	r3, r3, #1
 1006              	.LVL79:
1129:Lib/lvgl/src/core/lv_obj_style.c ****                           LV_STYLE_PROP_FLAG_INHERITABLE;
 1007              		.loc 1 1129 25 view .LVU276
 1008 004e E7E7     		b	.L67
 1009              	.L76:
1136:Lib/lvgl/src/core/lv_obj_style.c ****         else obj = obj->parent;
 1010              		.loc 1 1136 39 view .LVU277
 1011 0050 0026     		movs	r6, #0
 1012              	.LVL80:
1136:Lib/lvgl/src/core/lv_obj_style.c ****         else obj = obj->parent;
 1013              		.loc 1 1136 39 view .LVU278
 1014 0052 E8E7     		b	.L70
 1015              	.LVL81:
 1016              	.L80:
1150:Lib/lvgl/src/core/lv_obj_style.c ****         }
1151:Lib/lvgl/src/core/lv_obj_style.c ****     }
1152:Lib/lvgl/src/core/lv_obj_style.c ****     else {
1153:Lib/lvgl/src/core/lv_obj_style.c ****         /*Get the width and height from the class.
1154:Lib/lvgl/src/core/lv_obj_style.c ****                 * WIDTH and HEIGHT are not inherited so add them in the `else` to skip checking the
1155:Lib/lvgl/src/core/lv_obj_style.c ****         if(part == LV_PART_MAIN && (prop == LV_STYLE_WIDTH || prop == LV_STYLE_HEIGHT)) {
1156:Lib/lvgl/src/core/lv_obj_style.c ****             const lv_obj_class_t * cls = obj->class_p;
1157:Lib/lvgl/src/core/lv_obj_style.c ****             while(cls) {
1158:Lib/lvgl/src/core/lv_obj_style.c ****                 if(prop == LV_STYLE_WIDTH) {
1159:Lib/lvgl/src/core/lv_obj_style.c ****                     if(cls->width_def != 0)  {
1160:Lib/lvgl/src/core/lv_obj_style.c ****                         value_act->num = cls->width_def;
1161:Lib/lvgl/src/core/lv_obj_style.c ****                         return LV_STYLE_RES_FOUND;
1162:Lib/lvgl/src/core/lv_obj_style.c ****                     }
1163:Lib/lvgl/src/core/lv_obj_style.c ****                 }
1164:Lib/lvgl/src/core/lv_obj_style.c ****                 else {
1165:Lib/lvgl/src/core/lv_obj_style.c ****                     if(cls->height_def != 0) {
1166:Lib/lvgl/src/core/lv_obj_style.c ****                         value_act->num = cls->height_def;
1167:Lib/lvgl/src/core/lv_obj_style.c ****                         return LV_STYLE_RES_FOUND;
1168:Lib/lvgl/src/core/lv_obj_style.c ****                     }
1169:Lib/lvgl/src/core/lv_obj_style.c ****                 }
1170:Lib/lvgl/src/core/lv_obj_style.c ****                 cls = cls->base_class;
1171:Lib/lvgl/src/core/lv_obj_style.c ****             }
1172:Lib/lvgl/src/core/lv_obj_style.c ****         }
1173:Lib/lvgl/src/core/lv_obj_style.c ****     }
1174:Lib/lvgl/src/core/lv_obj_style.c **** 
1175:Lib/lvgl/src/core/lv_obj_style.c ****     return LV_STYLE_RES_NOT_FOUND;
 1017              		.loc 1 1175 12 view .LVU279
 1018 0054 0020     		movs	r0, #0
 1019              	.LVL82:
 1020              		.loc 1 1175 12 view .LVU280
 1021 0056 1AE0     		b	.L65
 1022              	.LVL83:
 1023              	.L68:
1155:Lib/lvgl/src/core/lv_obj_style.c ****             const lv_obj_class_t * cls = obj->class_p;
 1024              		.loc 1 1155 9 is_stmt 1 view .LVU281
1155:Lib/lvgl/src/core/lv_obj_style.c ****             const lv_obj_class_t * cls = obj->class_p;
 1025              		.loc 1 1155 11 is_stmt 0 view .LVU282
 1026 0058 C6B9     		cbnz	r6, .L77
1155:Lib/lvgl/src/core/lv_obj_style.c ****             const lv_obj_class_t * cls = obj->class_p;
ARM GAS  C:\Users\Alex\AppData\Local\Temp\ccdKwz1H.s 			page 60


 1027              		.loc 1 1155 60 discriminator 1 view .LVU283
 1028 005a 6B1E     		subs	r3, r5, #1
 1029 005c DBB2     		uxtb	r3, r3
1155:Lib/lvgl/src/core/lv_obj_style.c ****             const lv_obj_class_t * cls = obj->class_p;
 1030              		.loc 1 1155 33 discriminator 1 view .LVU284
 1031 005e 012B     		cmp	r3, #1
 1032 0060 01D9     		bls	.L81
 1033              		.loc 1 1175 12 view .LVU285
 1034 0062 0020     		movs	r0, #0
 1035              	.LVL84:
 1036              		.loc 1 1175 12 view .LVU286
 1037 0064 13E0     		b	.L65
 1038              	.LVL85:
 1039              	.L81:
 1040              	.LBB202:
1156:Lib/lvgl/src/core/lv_obj_style.c ****             while(cls) {
 1041              		.loc 1 1156 13 is_stmt 1 view .LVU287
1156:Lib/lvgl/src/core/lv_obj_style.c ****             while(cls) {
 1042              		.loc 1 1156 36 is_stmt 0 view .LVU288
 1043 0066 2368     		ldr	r3, [r4]
 1044              	.LVL86:
1157:Lib/lvgl/src/core/lv_obj_style.c ****                 if(prop == LV_STYLE_WIDTH) {
 1045              		.loc 1 1157 13 is_stmt 1 view .LVU289
1157:Lib/lvgl/src/core/lv_obj_style.c ****                 if(prop == LV_STYLE_WIDTH) {
 1046              		.loc 1 1157 18 is_stmt 0 view .LVU290
 1047 0068 02E0     		b	.L72
 1048              	.L84:
1159:Lib/lvgl/src/core/lv_obj_style.c ****                         value_act->num = cls->width_def;
 1049              		.loc 1 1159 21 is_stmt 1 view .LVU291
1159:Lib/lvgl/src/core/lv_obj_style.c ****                         value_act->num = cls->width_def;
 1050              		.loc 1 1159 27 is_stmt 0 view .LVU292
 1051 006a 9A69     		ldr	r2, [r3, #24]
1159:Lib/lvgl/src/core/lv_obj_style.c ****                         value_act->num = cls->width_def;
 1052              		.loc 1 1159 23 view .LVU293
 1053 006c 4AB9     		cbnz	r2, .L82
 1054              	.L74:
1170:Lib/lvgl/src/core/lv_obj_style.c ****             }
 1055              		.loc 1 1170 17 is_stmt 1 view .LVU294
1170:Lib/lvgl/src/core/lv_obj_style.c ****             }
 1056              		.loc 1 1170 21 is_stmt 0 view .LVU295
 1057 006e 1B68     		ldr	r3, [r3]
 1058              	.LVL87:
 1059              	.L72:
1157:Lib/lvgl/src/core/lv_obj_style.c ****                 if(prop == LV_STYLE_WIDTH) {
 1060              		.loc 1 1157 19 is_stmt 1 view .LVU296
 1061 0070 53B1     		cbz	r3, .L83
1158:Lib/lvgl/src/core/lv_obj_style.c ****                     if(cls->width_def != 0)  {
 1062              		.loc 1 1158 17 view .LVU297
1158:Lib/lvgl/src/core/lv_obj_style.c ****                     if(cls->width_def != 0)  {
 1063              		.loc 1 1158 19 is_stmt 0 view .LVU298
 1064 0072 012D     		cmp	r5, #1
 1065 0074 F9D0     		beq	.L84
1165:Lib/lvgl/src/core/lv_obj_style.c ****                         value_act->num = cls->height_def;
 1066              		.loc 1 1165 21 is_stmt 1 view .LVU299
1165:Lib/lvgl/src/core/lv_obj_style.c ****                         value_act->num = cls->height_def;
 1067              		.loc 1 1165 27 is_stmt 0 view .LVU300
 1068 0076 DA69     		ldr	r2, [r3, #28]
ARM GAS  C:\Users\Alex\AppData\Local\Temp\ccdKwz1H.s 			page 61


1165:Lib/lvgl/src/core/lv_obj_style.c ****                         value_act->num = cls->height_def;
 1069              		.loc 1 1165 23 view .LVU301
 1070 0078 002A     		cmp	r2, #0
 1071 007a F8D0     		beq	.L74
1166:Lib/lvgl/src/core/lv_obj_style.c ****                         return LV_STYLE_RES_FOUND;
 1072              		.loc 1 1166 25 is_stmt 1 view .LVU302
1166:Lib/lvgl/src/core/lv_obj_style.c ****                         return LV_STYLE_RES_FOUND;
 1073              		.loc 1 1166 40 is_stmt 0 view .LVU303
 1074 007c 3A60     		str	r2, [r7]
1167:Lib/lvgl/src/core/lv_obj_style.c ****                     }
 1075              		.loc 1 1167 25 is_stmt 1 view .LVU304
1167:Lib/lvgl/src/core/lv_obj_style.c ****                     }
 1076              		.loc 1 1167 32 is_stmt 0 view .LVU305
 1077 007e 0120     		movs	r0, #1
 1078              	.LVL88:
1167:Lib/lvgl/src/core/lv_obj_style.c ****                     }
 1079              		.loc 1 1167 32 view .LVU306
 1080 0080 05E0     		b	.L65
 1081              	.LVL89:
 1082              	.L82:
1160:Lib/lvgl/src/core/lv_obj_style.c ****                         return LV_STYLE_RES_FOUND;
 1083              		.loc 1 1160 25 is_stmt 1 view .LVU307
1160:Lib/lvgl/src/core/lv_obj_style.c ****                         return LV_STYLE_RES_FOUND;
 1084              		.loc 1 1160 40 is_stmt 0 view .LVU308
 1085 0082 3A60     		str	r2, [r7]
1161:Lib/lvgl/src/core/lv_obj_style.c ****                     }
 1086              		.loc 1 1161 25 is_stmt 1 view .LVU309
1161:Lib/lvgl/src/core/lv_obj_style.c ****                     }
 1087              		.loc 1 1161 32 is_stmt 0 view .LVU310
 1088 0084 2846     		mov	r0, r5
 1089              	.LVL90:
1161:Lib/lvgl/src/core/lv_obj_style.c ****                     }
 1090              		.loc 1 1161 32 view .LVU311
 1091 0086 02E0     		b	.L65
 1092              	.LVL91:
 1093              	.L83:
1161:Lib/lvgl/src/core/lv_obj_style.c ****                     }
 1094              		.loc 1 1161 32 view .LVU312
 1095              	.LBE202:
 1096              		.loc 1 1175 12 view .LVU313
 1097 0088 0020     		movs	r0, #0
 1098              	.LVL92:
 1099              	.LBB203:
 1100              		.loc 1 1175 12 view .LVU314
 1101 008a 00E0     		b	.L65
 1102              	.LVL93:
 1103              	.L77:
 1104              		.loc 1 1175 12 view .LVU315
 1105              	.LBE203:
 1106 008c 0020     		movs	r0, #0
 1107              	.LVL94:
 1108              	.L65:
1176:Lib/lvgl/src/core/lv_obj_style.c **** }
 1109              		.loc 1 1176 1 view .LVU316
 1110 008e F8BD     		pop	{r3, r4, r5, r6, r7, pc}
 1111              	.LVL95:
 1112              	.L86:
ARM GAS  C:\Users\Alex\AppData\Local\Temp\ccdKwz1H.s 			page 62


 1113              		.loc 1 1176 1 view .LVU317
 1114              		.align	2
 1115              	.L85:
 1116 0090 00000000 		.word	_lv_style_builtin_prop_flag_lookup_table
 1117 0094 00000000 		.word	lv_global
 1118              		.cfi_endproc
 1119              	.LFE270:
 1121              		.section	.text.trans_delete,"ax",%progbits
 1122              		.align	1
 1123              		.syntax unified
 1124              		.thumb
 1125              		.thumb_func
 1127              	trans_delete:
 1128              	.LVL96:
 1129              	.LFB261:
 854:Lib/lvgl/src/core/lv_obj_style.c ****     trans_t * tr;
 1130              		.loc 1 854 1 is_stmt 1 view -0
 1131              		.cfi_startproc
 1132              		@ args = 0, pretend = 0, frame = 0
 1133              		@ frame_needed = 0, uses_anonymous_args = 0
 854:Lib/lvgl/src/core/lv_obj_style.c ****     trans_t * tr;
 1134              		.loc 1 854 1 is_stmt 0 view .LVU319
 1135 0000 2DE9F047 		push	{r4, r5, r6, r7, r8, r9, r10, lr}
 1136              	.LCFI13:
 1137              		.cfi_def_cfa_offset 32
 1138              		.cfi_offset 4, -32
 1139              		.cfi_offset 5, -28
 1140              		.cfi_offset 6, -24
 1141              		.cfi_offset 7, -20
 1142              		.cfi_offset 8, -16
 1143              		.cfi_offset 9, -12
 1144              		.cfi_offset 10, -8
 1145              		.cfi_offset 14, -4
 1146 0004 0646     		mov	r6, r0
 1147 0006 8946     		mov	r9, r1
 1148 0008 9246     		mov	r10, r2
 1149 000a 9846     		mov	r8, r3
 855:Lib/lvgl/src/core/lv_obj_style.c ****     trans_t * tr_prev;
 1150              		.loc 1 855 5 is_stmt 1 view .LVU320
 856:Lib/lvgl/src/core/lv_obj_style.c ****     bool removed = false;
 1151              		.loc 1 856 5 view .LVU321
 857:Lib/lvgl/src/core/lv_obj_style.c ****     tr = _lv_ll_get_tail(style_trans_ll_p);
 1152              		.loc 1 857 5 view .LVU322
 1153              	.LVL97:
 858:Lib/lvgl/src/core/lv_obj_style.c ****     while(tr != NULL) {
 1154              		.loc 1 858 5 view .LVU323
 858:Lib/lvgl/src/core/lv_obj_style.c ****     while(tr != NULL) {
 1155              		.loc 1 858 10 is_stmt 0 view .LVU324
 1156 000c 2748     		ldr	r0, .L103
 1157              	.LVL98:
 858:Lib/lvgl/src/core/lv_obj_style.c ****     while(tr != NULL) {
 1158              		.loc 1 858 10 view .LVU325
 1159 000e FFF7FEFF 		bl	_lv_ll_get_tail
 1160              	.LVL99:
 858:Lib/lvgl/src/core/lv_obj_style.c ****     while(tr != NULL) {
 1161              		.loc 1 858 10 view .LVU326
 1162 0012 0446     		mov	r4, r0
ARM GAS  C:\Users\Alex\AppData\Local\Temp\ccdKwz1H.s 			page 63


 1163              	.LVL100:
 859:Lib/lvgl/src/core/lv_obj_style.c ****         if(tr == tr_limit) break;
 1164              		.loc 1 859 5 is_stmt 1 view .LVU327
 857:Lib/lvgl/src/core/lv_obj_style.c ****     tr = _lv_ll_get_tail(style_trans_ll_p);
 1165              		.loc 1 857 10 is_stmt 0 view .LVU328
 1166 0014 0027     		movs	r7, #0
 859:Lib/lvgl/src/core/lv_obj_style.c ****         if(tr == tr_limit) break;
 1167              		.loc 1 859 10 view .LVU329
 1168 0016 06E0     		b	.L88
 1169              	.LVL101:
 1170              	.L91:
 865:Lib/lvgl/src/core/lv_obj_style.c ****             /*Remove any transitioned properties from the trans. style
 1171              		.loc 1 865 90 discriminator 4 view .LVU330
 1172 0018 2379     		ldrb	r3, [r4, #4]	@ zero_extendqisi2
 865:Lib/lvgl/src/core/lv_obj_style.c ****             /*Remove any transitioned properties from the trans. style
 1173              		.loc 1 865 76 discriminator 4 view .LVU331
 1174 001a 5345     		cmp	r3, r10
 1175 001c 31D0     		beq	.L98
 865:Lib/lvgl/src/core/lv_obj_style.c ****             /*Remove any transitioned properties from the trans. style
 1176              		.loc 1 865 97 discriminator 5 view .LVU332
 1177 001e BAF1FF0F 		cmp	r10, #255
 1178 0022 30D0     		beq	.L101
 1179              	.LVL102:
 1180              	.L90:
 1181              	.LBB204:
 879:Lib/lvgl/src/core/lv_obj_style.c **** 
 1182              		.loc 1 879 21 view .LVU333
 1183 0024 2C46     		mov	r4, r5
 1184              	.LVL103:
 1185              	.L88:
 879:Lib/lvgl/src/core/lv_obj_style.c **** 
 1186              		.loc 1 879 21 view .LVU334
 1187              	.LBE204:
 859:Lib/lvgl/src/core/lv_obj_style.c ****         if(tr == tr_limit) break;
 1188              		.loc 1 859 14 is_stmt 1 view .LVU335
 1189 0026 002C     		cmp	r4, #0
 1190 0028 3CD0     		beq	.L89
 860:Lib/lvgl/src/core/lv_obj_style.c **** 
 1191              		.loc 1 860 9 view .LVU336
 860:Lib/lvgl/src/core/lv_obj_style.c **** 
 1192              		.loc 1 860 11 is_stmt 0 view .LVU337
 1193 002a 4445     		cmp	r4, r8
 1194 002c 3AD0     		beq	.L89
 863:Lib/lvgl/src/core/lv_obj_style.c **** 
 1195              		.loc 1 863 9 is_stmt 1 view .LVU338
 863:Lib/lvgl/src/core/lv_obj_style.c **** 
 1196              		.loc 1 863 19 is_stmt 0 view .LVU339
 1197 002e 2146     		mov	r1, r4
 1198 0030 1E48     		ldr	r0, .L103
 1199 0032 FFF7FEFF 		bl	_lv_ll_get_prev
 1200              	.LVL104:
 1201 0036 0546     		mov	r5, r0
 1202              	.LVL105:
 865:Lib/lvgl/src/core/lv_obj_style.c ****             /*Remove any transitioned properties from the trans. style
 1203              		.loc 1 865 9 is_stmt 1 view .LVU340
 865:Lib/lvgl/src/core/lv_obj_style.c ****             /*Remove any transitioned properties from the trans. style
 1204              		.loc 1 865 14 is_stmt 0 view .LVU341
ARM GAS  C:\Users\Alex\AppData\Local\Temp\ccdKwz1H.s 			page 64


 1205 0038 2068     		ldr	r0, [r4]
 1206              	.LVL106:
 865:Lib/lvgl/src/core/lv_obj_style.c ****             /*Remove any transitioned properties from the trans. style
 1207              		.loc 1 865 11 view .LVU342
 1208 003a B042     		cmp	r0, r6
 1209 003c F2D1     		bne	.L90
 865:Lib/lvgl/src/core/lv_obj_style.c ****             /*Remove any transitioned properties from the trans. style
 1210              		.loc 1 865 41 discriminator 1 view .LVU343
