ARM GAS  C:\Users\Alex\AppData\Local\Temp\cccZpk1s.s 			page 1


   1              		.cpu cortex-m4
   2              		.arch armv7e-m
   3              		.fpu fpv4-sp-d16
   4              		.eabi_attribute 27, 1
   5              		.eabi_attribute 28, 1
   6              		.eabi_attribute 20, 1
   7              		.eabi_attribute 21, 1
   8              		.eabi_attribute 23, 3
   9              		.eabi_attribute 24, 1
  10              		.eabi_attribute 25, 1
  11              		.eabi_attribute 26, 1
  12              		.eabi_attribute 30, 1
  13              		.eabi_attribute 34, 1
  14              		.eabi_attribute 18, 4
  15              		.file	"lv_obj_draw.c"
  16              		.text
  17              	.Ltext0:
  18              		.cfi_sections	.debug_frame
  19              		.file 1 "Lib/lvgl/src/core/lv_obj_draw.c"
  20              		.section	.text.lv_obj_get_style_bg_color_filtered,"ax",%progbits
  21              		.align	1
  22              		.syntax unified
  23              		.thumb
  24              		.thumb_func
  26              	lv_obj_get_style_bg_color_filtered:
  27              	.LVL0:
  28              	.LFB130:
  29              		.file 2 "Lib/lvgl/src/core/lv_obj_style_gen.h"
   1:Lib/lvgl/src/core/lv_obj_style_gen.h **** 
   2:Lib/lvgl/src/core/lv_obj_style_gen.h **** /*
   3:Lib/lvgl/src/core/lv_obj_style_gen.h ****  **********************************************************************
   4:Lib/lvgl/src/core/lv_obj_style_gen.h ****  *                            DO NOT EDIT
   5:Lib/lvgl/src/core/lv_obj_style_gen.h ****  * This file is automatically generated by "style_api_gen.py"
   6:Lib/lvgl/src/core/lv_obj_style_gen.h ****  **********************************************************************
   7:Lib/lvgl/src/core/lv_obj_style_gen.h ****  */
   8:Lib/lvgl/src/core/lv_obj_style_gen.h **** 
   9:Lib/lvgl/src/core/lv_obj_style_gen.h **** #ifndef LV_OBJ_STYLE_GEN_H
  10:Lib/lvgl/src/core/lv_obj_style_gen.h **** #define LV_OBJ_STYLE_GEN_H
  11:Lib/lvgl/src/core/lv_obj_style_gen.h **** 
  12:Lib/lvgl/src/core/lv_obj_style_gen.h **** #include "../misc/lv_area.h"
  13:Lib/lvgl/src/core/lv_obj_style_gen.h **** #include "../misc/lv_style.h"
  14:Lib/lvgl/src/core/lv_obj_style_gen.h **** #include "../core/lv_obj_style.h"
  15:Lib/lvgl/src/core/lv_obj_style_gen.h **** 
  16:Lib/lvgl/src/core/lv_obj_style_gen.h **** static inline int32_t lv_obj_get_style_width(const lv_obj_t * obj, uint32_t part)
  17:Lib/lvgl/src/core/lv_obj_style_gen.h **** {
  18:Lib/lvgl/src/core/lv_obj_style_gen.h ****     lv_style_value_t v = lv_obj_get_style_prop(obj, part, LV_STYLE_WIDTH);
  19:Lib/lvgl/src/core/lv_obj_style_gen.h ****     return (int32_t)v.num;
  20:Lib/lvgl/src/core/lv_obj_style_gen.h **** }
  21:Lib/lvgl/src/core/lv_obj_style_gen.h **** 
  22:Lib/lvgl/src/core/lv_obj_style_gen.h **** static inline int32_t lv_obj_get_style_min_width(const lv_obj_t * obj, uint32_t part)
  23:Lib/lvgl/src/core/lv_obj_style_gen.h **** {
  24:Lib/lvgl/src/core/lv_obj_style_gen.h ****     lv_style_value_t v = lv_obj_get_style_prop(obj, part, LV_STYLE_MIN_WIDTH);
  25:Lib/lvgl/src/core/lv_obj_style_gen.h ****     return (int32_t)v.num;
  26:Lib/lvgl/src/core/lv_obj_style_gen.h **** }
  27:Lib/lvgl/src/core/lv_obj_style_gen.h **** 
  28:Lib/lvgl/src/core/lv_obj_style_gen.h **** static inline int32_t lv_obj_get_style_max_width(const lv_obj_t * obj, uint32_t part)
  29:Lib/lvgl/src/core/lv_obj_style_gen.h **** {
ARM GAS  C:\Users\Alex\AppData\Local\Temp\cccZpk1s.s 			page 2


  30:Lib/lvgl/src/core/lv_obj_style_gen.h ****     lv_style_value_t v = lv_obj_get_style_prop(obj, part, LV_STYLE_MAX_WIDTH);
  31:Lib/lvgl/src/core/lv_obj_style_gen.h ****     return (int32_t)v.num;
  32:Lib/lvgl/src/core/lv_obj_style_gen.h **** }
  33:Lib/lvgl/src/core/lv_obj_style_gen.h **** 
  34:Lib/lvgl/src/core/lv_obj_style_gen.h **** static inline int32_t lv_obj_get_style_height(const lv_obj_t * obj, uint32_t part)
  35:Lib/lvgl/src/core/lv_obj_style_gen.h **** {
  36:Lib/lvgl/src/core/lv_obj_style_gen.h ****     lv_style_value_t v = lv_obj_get_style_prop(obj, part, LV_STYLE_HEIGHT);
  37:Lib/lvgl/src/core/lv_obj_style_gen.h ****     return (int32_t)v.num;
  38:Lib/lvgl/src/core/lv_obj_style_gen.h **** }
  39:Lib/lvgl/src/core/lv_obj_style_gen.h **** 
  40:Lib/lvgl/src/core/lv_obj_style_gen.h **** static inline int32_t lv_obj_get_style_min_height(const lv_obj_t * obj, uint32_t part)
  41:Lib/lvgl/src/core/lv_obj_style_gen.h **** {
  42:Lib/lvgl/src/core/lv_obj_style_gen.h ****     lv_style_value_t v = lv_obj_get_style_prop(obj, part, LV_STYLE_MIN_HEIGHT);
  43:Lib/lvgl/src/core/lv_obj_style_gen.h ****     return (int32_t)v.num;
  44:Lib/lvgl/src/core/lv_obj_style_gen.h **** }
  45:Lib/lvgl/src/core/lv_obj_style_gen.h **** 
  46:Lib/lvgl/src/core/lv_obj_style_gen.h **** static inline int32_t lv_obj_get_style_max_height(const lv_obj_t * obj, uint32_t part)
  47:Lib/lvgl/src/core/lv_obj_style_gen.h **** {
  48:Lib/lvgl/src/core/lv_obj_style_gen.h ****     lv_style_value_t v = lv_obj_get_style_prop(obj, part, LV_STYLE_MAX_HEIGHT);
  49:Lib/lvgl/src/core/lv_obj_style_gen.h ****     return (int32_t)v.num;
  50:Lib/lvgl/src/core/lv_obj_style_gen.h **** }
  51:Lib/lvgl/src/core/lv_obj_style_gen.h **** 
  52:Lib/lvgl/src/core/lv_obj_style_gen.h **** static inline int32_t lv_obj_get_style_length(const lv_obj_t * obj, uint32_t part)
  53:Lib/lvgl/src/core/lv_obj_style_gen.h **** {
  54:Lib/lvgl/src/core/lv_obj_style_gen.h ****     lv_style_value_t v = lv_obj_get_style_prop(obj, part, LV_STYLE_LENGTH);
  55:Lib/lvgl/src/core/lv_obj_style_gen.h ****     return (int32_t)v.num;
  56:Lib/lvgl/src/core/lv_obj_style_gen.h **** }
  57:Lib/lvgl/src/core/lv_obj_style_gen.h **** 
  58:Lib/lvgl/src/core/lv_obj_style_gen.h **** static inline int32_t lv_obj_get_style_x(const lv_obj_t * obj, uint32_t part)
  59:Lib/lvgl/src/core/lv_obj_style_gen.h **** {
  60:Lib/lvgl/src/core/lv_obj_style_gen.h ****     lv_style_value_t v = lv_obj_get_style_prop(obj, part, LV_STYLE_X);
  61:Lib/lvgl/src/core/lv_obj_style_gen.h ****     return (int32_t)v.num;
  62:Lib/lvgl/src/core/lv_obj_style_gen.h **** }
  63:Lib/lvgl/src/core/lv_obj_style_gen.h **** 
  64:Lib/lvgl/src/core/lv_obj_style_gen.h **** static inline int32_t lv_obj_get_style_y(const lv_obj_t * obj, uint32_t part)
  65:Lib/lvgl/src/core/lv_obj_style_gen.h **** {
  66:Lib/lvgl/src/core/lv_obj_style_gen.h ****     lv_style_value_t v = lv_obj_get_style_prop(obj, part, LV_STYLE_Y);
  67:Lib/lvgl/src/core/lv_obj_style_gen.h ****     return (int32_t)v.num;
  68:Lib/lvgl/src/core/lv_obj_style_gen.h **** }
  69:Lib/lvgl/src/core/lv_obj_style_gen.h **** 
  70:Lib/lvgl/src/core/lv_obj_style_gen.h **** static inline lv_align_t lv_obj_get_style_align(const lv_obj_t * obj, uint32_t part)
  71:Lib/lvgl/src/core/lv_obj_style_gen.h **** {
  72:Lib/lvgl/src/core/lv_obj_style_gen.h ****     lv_style_value_t v = lv_obj_get_style_prop(obj, part, LV_STYLE_ALIGN);
  73:Lib/lvgl/src/core/lv_obj_style_gen.h ****     return (lv_align_t)v.num;
  74:Lib/lvgl/src/core/lv_obj_style_gen.h **** }
  75:Lib/lvgl/src/core/lv_obj_style_gen.h **** 
  76:Lib/lvgl/src/core/lv_obj_style_gen.h **** static inline int32_t lv_obj_get_style_transform_width(const lv_obj_t * obj, uint32_t part)
  77:Lib/lvgl/src/core/lv_obj_style_gen.h **** {
  78:Lib/lvgl/src/core/lv_obj_style_gen.h ****     lv_style_value_t v = lv_obj_get_style_prop(obj, part, LV_STYLE_TRANSFORM_WIDTH);
  79:Lib/lvgl/src/core/lv_obj_style_gen.h ****     return (int32_t)v.num;
  80:Lib/lvgl/src/core/lv_obj_style_gen.h **** }
  81:Lib/lvgl/src/core/lv_obj_style_gen.h **** 
  82:Lib/lvgl/src/core/lv_obj_style_gen.h **** static inline int32_t lv_obj_get_style_transform_height(const lv_obj_t * obj, uint32_t part)
  83:Lib/lvgl/src/core/lv_obj_style_gen.h **** {
  84:Lib/lvgl/src/core/lv_obj_style_gen.h ****     lv_style_value_t v = lv_obj_get_style_prop(obj, part, LV_STYLE_TRANSFORM_HEIGHT);
  85:Lib/lvgl/src/core/lv_obj_style_gen.h ****     return (int32_t)v.num;
  86:Lib/lvgl/src/core/lv_obj_style_gen.h **** }
ARM GAS  C:\Users\Alex\AppData\Local\Temp\cccZpk1s.s 			page 3


  87:Lib/lvgl/src/core/lv_obj_style_gen.h **** 
  88:Lib/lvgl/src/core/lv_obj_style_gen.h **** static inline int32_t lv_obj_get_style_translate_x(const lv_obj_t * obj, uint32_t part)
  89:Lib/lvgl/src/core/lv_obj_style_gen.h **** {
  90:Lib/lvgl/src/core/lv_obj_style_gen.h ****     lv_style_value_t v = lv_obj_get_style_prop(obj, part, LV_STYLE_TRANSLATE_X);
  91:Lib/lvgl/src/core/lv_obj_style_gen.h ****     return (int32_t)v.num;
  92:Lib/lvgl/src/core/lv_obj_style_gen.h **** }
  93:Lib/lvgl/src/core/lv_obj_style_gen.h **** 
  94:Lib/lvgl/src/core/lv_obj_style_gen.h **** static inline int32_t lv_obj_get_style_translate_y(const lv_obj_t * obj, uint32_t part)
  95:Lib/lvgl/src/core/lv_obj_style_gen.h **** {
  96:Lib/lvgl/src/core/lv_obj_style_gen.h ****     lv_style_value_t v = lv_obj_get_style_prop(obj, part, LV_STYLE_TRANSLATE_Y);
  97:Lib/lvgl/src/core/lv_obj_style_gen.h ****     return (int32_t)v.num;
  98:Lib/lvgl/src/core/lv_obj_style_gen.h **** }
  99:Lib/lvgl/src/core/lv_obj_style_gen.h **** 
 100:Lib/lvgl/src/core/lv_obj_style_gen.h **** static inline int32_t lv_obj_get_style_transform_scale_x(const lv_obj_t * obj, uint32_t part)
 101:Lib/lvgl/src/core/lv_obj_style_gen.h **** {
 102:Lib/lvgl/src/core/lv_obj_style_gen.h ****     lv_style_value_t v = lv_obj_get_style_prop(obj, part, LV_STYLE_TRANSFORM_SCALE_X);
 103:Lib/lvgl/src/core/lv_obj_style_gen.h ****     return (int32_t)v.num;
 104:Lib/lvgl/src/core/lv_obj_style_gen.h **** }
 105:Lib/lvgl/src/core/lv_obj_style_gen.h **** 
 106:Lib/lvgl/src/core/lv_obj_style_gen.h **** static inline int32_t lv_obj_get_style_transform_scale_y(const lv_obj_t * obj, uint32_t part)
 107:Lib/lvgl/src/core/lv_obj_style_gen.h **** {
 108:Lib/lvgl/src/core/lv_obj_style_gen.h ****     lv_style_value_t v = lv_obj_get_style_prop(obj, part, LV_STYLE_TRANSFORM_SCALE_Y);
 109:Lib/lvgl/src/core/lv_obj_style_gen.h ****     return (int32_t)v.num;
 110:Lib/lvgl/src/core/lv_obj_style_gen.h **** }
 111:Lib/lvgl/src/core/lv_obj_style_gen.h **** 
 112:Lib/lvgl/src/core/lv_obj_style_gen.h **** static inline int32_t lv_obj_get_style_transform_rotation(const lv_obj_t * obj, uint32_t part)
 113:Lib/lvgl/src/core/lv_obj_style_gen.h **** {
 114:Lib/lvgl/src/core/lv_obj_style_gen.h ****     lv_style_value_t v = lv_obj_get_style_prop(obj, part, LV_STYLE_TRANSFORM_ROTATION);
 115:Lib/lvgl/src/core/lv_obj_style_gen.h ****     return (int32_t)v.num;
 116:Lib/lvgl/src/core/lv_obj_style_gen.h **** }
 117:Lib/lvgl/src/core/lv_obj_style_gen.h **** 
 118:Lib/lvgl/src/core/lv_obj_style_gen.h **** static inline int32_t lv_obj_get_style_transform_pivot_x(const lv_obj_t * obj, uint32_t part)
 119:Lib/lvgl/src/core/lv_obj_style_gen.h **** {
 120:Lib/lvgl/src/core/lv_obj_style_gen.h ****     lv_style_value_t v = lv_obj_get_style_prop(obj, part, LV_STYLE_TRANSFORM_PIVOT_X);
 121:Lib/lvgl/src/core/lv_obj_style_gen.h ****     return (int32_t)v.num;
 122:Lib/lvgl/src/core/lv_obj_style_gen.h **** }
 123:Lib/lvgl/src/core/lv_obj_style_gen.h **** 
 124:Lib/lvgl/src/core/lv_obj_style_gen.h **** static inline int32_t lv_obj_get_style_transform_pivot_y(const lv_obj_t * obj, uint32_t part)
 125:Lib/lvgl/src/core/lv_obj_style_gen.h **** {
 126:Lib/lvgl/src/core/lv_obj_style_gen.h ****     lv_style_value_t v = lv_obj_get_style_prop(obj, part, LV_STYLE_TRANSFORM_PIVOT_Y);
 127:Lib/lvgl/src/core/lv_obj_style_gen.h ****     return (int32_t)v.num;
 128:Lib/lvgl/src/core/lv_obj_style_gen.h **** }
 129:Lib/lvgl/src/core/lv_obj_style_gen.h **** 
 130:Lib/lvgl/src/core/lv_obj_style_gen.h **** static inline int32_t lv_obj_get_style_transform_skew_x(const lv_obj_t * obj, uint32_t part)
 131:Lib/lvgl/src/core/lv_obj_style_gen.h **** {
 132:Lib/lvgl/src/core/lv_obj_style_gen.h ****     lv_style_value_t v = lv_obj_get_style_prop(obj, part, LV_STYLE_TRANSFORM_SKEW_X);
 133:Lib/lvgl/src/core/lv_obj_style_gen.h ****     return (int32_t)v.num;
 134:Lib/lvgl/src/core/lv_obj_style_gen.h **** }
 135:Lib/lvgl/src/core/lv_obj_style_gen.h **** 
 136:Lib/lvgl/src/core/lv_obj_style_gen.h **** static inline int32_t lv_obj_get_style_transform_skew_y(const lv_obj_t * obj, uint32_t part)
 137:Lib/lvgl/src/core/lv_obj_style_gen.h **** {
 138:Lib/lvgl/src/core/lv_obj_style_gen.h ****     lv_style_value_t v = lv_obj_get_style_prop(obj, part, LV_STYLE_TRANSFORM_SKEW_Y);
 139:Lib/lvgl/src/core/lv_obj_style_gen.h ****     return (int32_t)v.num;
 140:Lib/lvgl/src/core/lv_obj_style_gen.h **** }
 141:Lib/lvgl/src/core/lv_obj_style_gen.h **** 
 142:Lib/lvgl/src/core/lv_obj_style_gen.h **** static inline int32_t lv_obj_get_style_pad_top(const lv_obj_t * obj, uint32_t part)
 143:Lib/lvgl/src/core/lv_obj_style_gen.h **** {
ARM GAS  C:\Users\Alex\AppData\Local\Temp\cccZpk1s.s 			page 4


 144:Lib/lvgl/src/core/lv_obj_style_gen.h ****     lv_style_value_t v = lv_obj_get_style_prop(obj, part, LV_STYLE_PAD_TOP);
 145:Lib/lvgl/src/core/lv_obj_style_gen.h ****     return (int32_t)v.num;
 146:Lib/lvgl/src/core/lv_obj_style_gen.h **** }
 147:Lib/lvgl/src/core/lv_obj_style_gen.h **** 
 148:Lib/lvgl/src/core/lv_obj_style_gen.h **** static inline int32_t lv_obj_get_style_pad_bottom(const lv_obj_t * obj, uint32_t part)
 149:Lib/lvgl/src/core/lv_obj_style_gen.h **** {
 150:Lib/lvgl/src/core/lv_obj_style_gen.h ****     lv_style_value_t v = lv_obj_get_style_prop(obj, part, LV_STYLE_PAD_BOTTOM);
 151:Lib/lvgl/src/core/lv_obj_style_gen.h ****     return (int32_t)v.num;
 152:Lib/lvgl/src/core/lv_obj_style_gen.h **** }
 153:Lib/lvgl/src/core/lv_obj_style_gen.h **** 
 154:Lib/lvgl/src/core/lv_obj_style_gen.h **** static inline int32_t lv_obj_get_style_pad_left(const lv_obj_t * obj, uint32_t part)
 155:Lib/lvgl/src/core/lv_obj_style_gen.h **** {
 156:Lib/lvgl/src/core/lv_obj_style_gen.h ****     lv_style_value_t v = lv_obj_get_style_prop(obj, part, LV_STYLE_PAD_LEFT);
 157:Lib/lvgl/src/core/lv_obj_style_gen.h ****     return (int32_t)v.num;
 158:Lib/lvgl/src/core/lv_obj_style_gen.h **** }
 159:Lib/lvgl/src/core/lv_obj_style_gen.h **** 
 160:Lib/lvgl/src/core/lv_obj_style_gen.h **** static inline int32_t lv_obj_get_style_pad_right(const lv_obj_t * obj, uint32_t part)
 161:Lib/lvgl/src/core/lv_obj_style_gen.h **** {
 162:Lib/lvgl/src/core/lv_obj_style_gen.h ****     lv_style_value_t v = lv_obj_get_style_prop(obj, part, LV_STYLE_PAD_RIGHT);
 163:Lib/lvgl/src/core/lv_obj_style_gen.h ****     return (int32_t)v.num;
 164:Lib/lvgl/src/core/lv_obj_style_gen.h **** }
 165:Lib/lvgl/src/core/lv_obj_style_gen.h **** 
 166:Lib/lvgl/src/core/lv_obj_style_gen.h **** static inline int32_t lv_obj_get_style_pad_row(const lv_obj_t * obj, uint32_t part)
 167:Lib/lvgl/src/core/lv_obj_style_gen.h **** {
 168:Lib/lvgl/src/core/lv_obj_style_gen.h ****     lv_style_value_t v = lv_obj_get_style_prop(obj, part, LV_STYLE_PAD_ROW);
 169:Lib/lvgl/src/core/lv_obj_style_gen.h ****     return (int32_t)v.num;
 170:Lib/lvgl/src/core/lv_obj_style_gen.h **** }
 171:Lib/lvgl/src/core/lv_obj_style_gen.h **** 
 172:Lib/lvgl/src/core/lv_obj_style_gen.h **** static inline int32_t lv_obj_get_style_pad_column(const lv_obj_t * obj, uint32_t part)
 173:Lib/lvgl/src/core/lv_obj_style_gen.h **** {
 174:Lib/lvgl/src/core/lv_obj_style_gen.h ****     lv_style_value_t v = lv_obj_get_style_prop(obj, part, LV_STYLE_PAD_COLUMN);
 175:Lib/lvgl/src/core/lv_obj_style_gen.h ****     return (int32_t)v.num;
 176:Lib/lvgl/src/core/lv_obj_style_gen.h **** }
 177:Lib/lvgl/src/core/lv_obj_style_gen.h **** 
 178:Lib/lvgl/src/core/lv_obj_style_gen.h **** static inline int32_t lv_obj_get_style_margin_top(const lv_obj_t * obj, uint32_t part)
 179:Lib/lvgl/src/core/lv_obj_style_gen.h **** {
 180:Lib/lvgl/src/core/lv_obj_style_gen.h ****     lv_style_value_t v = lv_obj_get_style_prop(obj, part, LV_STYLE_MARGIN_TOP);
 181:Lib/lvgl/src/core/lv_obj_style_gen.h ****     return (int32_t)v.num;
 182:Lib/lvgl/src/core/lv_obj_style_gen.h **** }
 183:Lib/lvgl/src/core/lv_obj_style_gen.h **** 
 184:Lib/lvgl/src/core/lv_obj_style_gen.h **** static inline int32_t lv_obj_get_style_margin_bottom(const lv_obj_t * obj, uint32_t part)
 185:Lib/lvgl/src/core/lv_obj_style_gen.h **** {
 186:Lib/lvgl/src/core/lv_obj_style_gen.h ****     lv_style_value_t v = lv_obj_get_style_prop(obj, part, LV_STYLE_MARGIN_BOTTOM);
 187:Lib/lvgl/src/core/lv_obj_style_gen.h ****     return (int32_t)v.num;
 188:Lib/lvgl/src/core/lv_obj_style_gen.h **** }
 189:Lib/lvgl/src/core/lv_obj_style_gen.h **** 
 190:Lib/lvgl/src/core/lv_obj_style_gen.h **** static inline int32_t lv_obj_get_style_margin_left(const lv_obj_t * obj, uint32_t part)
 191:Lib/lvgl/src/core/lv_obj_style_gen.h **** {
 192:Lib/lvgl/src/core/lv_obj_style_gen.h ****     lv_style_value_t v = lv_obj_get_style_prop(obj, part, LV_STYLE_MARGIN_LEFT);
 193:Lib/lvgl/src/core/lv_obj_style_gen.h ****     return (int32_t)v.num;
 194:Lib/lvgl/src/core/lv_obj_style_gen.h **** }
 195:Lib/lvgl/src/core/lv_obj_style_gen.h **** 
 196:Lib/lvgl/src/core/lv_obj_style_gen.h **** static inline int32_t lv_obj_get_style_margin_right(const lv_obj_t * obj, uint32_t part)
 197:Lib/lvgl/src/core/lv_obj_style_gen.h **** {
 198:Lib/lvgl/src/core/lv_obj_style_gen.h ****     lv_style_value_t v = lv_obj_get_style_prop(obj, part, LV_STYLE_MARGIN_RIGHT);
 199:Lib/lvgl/src/core/lv_obj_style_gen.h ****     return (int32_t)v.num;
 200:Lib/lvgl/src/core/lv_obj_style_gen.h **** }
ARM GAS  C:\Users\Alex\AppData\Local\Temp\cccZpk1s.s 			page 5


 201:Lib/lvgl/src/core/lv_obj_style_gen.h **** 
 202:Lib/lvgl/src/core/lv_obj_style_gen.h **** static inline lv_color_t lv_obj_get_style_bg_color(const lv_obj_t * obj, uint32_t part)
 203:Lib/lvgl/src/core/lv_obj_style_gen.h **** {
 204:Lib/lvgl/src/core/lv_obj_style_gen.h ****     lv_style_value_t v = lv_obj_get_style_prop(obj, part, LV_STYLE_BG_COLOR);
 205:Lib/lvgl/src/core/lv_obj_style_gen.h ****     return v.color;
 206:Lib/lvgl/src/core/lv_obj_style_gen.h **** }
 207:Lib/lvgl/src/core/lv_obj_style_gen.h **** 
 208:Lib/lvgl/src/core/lv_obj_style_gen.h **** static inline lv_color_t lv_obj_get_style_bg_color_filtered(const lv_obj_t * obj, uint32_t part)
 209:Lib/lvgl/src/core/lv_obj_style_gen.h **** {
  30              		.loc 2 209 1 view -0
  31              		.cfi_startproc
  32              		@ args = 0, pretend = 0, frame = 16
  33              		@ frame_needed = 0, uses_anonymous_args = 0
  34              		.loc 2 209 1 is_stmt 0 view .LVU1
  35 0000 30B5     		push	{r4, r5, lr}
  36              	.LCFI0:
  37              		.cfi_def_cfa_offset 12
  38              		.cfi_offset 4, -12
  39              		.cfi_offset 5, -8
  40              		.cfi_offset 14, -4
  41 0002 85B0     		sub	sp, sp, #20
  42              	.LCFI1:
  43              		.cfi_def_cfa_offset 32
  44 0004 0446     		mov	r4, r0
  45 0006 0D46     		mov	r5, r1
 210:Lib/lvgl/src/core/lv_obj_style_gen.h ****     lv_style_value_t v = _lv_obj_style_apply_color_filter(obj, part, lv_obj_get_style_prop(obj, par
  46              		.loc 2 210 5 is_stmt 1 view .LVU2
  47              		.loc 2 210 26 is_stmt 0 view .LVU3
  48 0008 1C22     		movs	r2, #28
  49 000a FFF7FEFF 		bl	lv_obj_get_style_prop
  50              	.LVL1:
  51              		.loc 2 210 26 view .LVU4
  52 000e 0246     		mov	r2, r0
  53 0010 0290     		str	r0, [sp, #8]
  54 0012 2946     		mov	r1, r5
  55 0014 2046     		mov	r0, r4
  56 0016 FFF7FEFF 		bl	_lv_obj_style_apply_color_filter
  57              	.LVL2:
  58 001a 0190     		str	r0, [sp, #4]
 211:Lib/lvgl/src/core/lv_obj_style_gen.h ****     return v.color;
  59              		.loc 2 211 5 is_stmt 1 view .LVU5
  60              		.loc 2 211 13 is_stmt 0 view .LVU6
  61 001c ADF80C00 		strh	r0, [sp, #12]	@ movhi
  62 0020 030C     		lsrs	r3, r0, #16
  63 0022 8DF80E30 		strb	r3, [sp, #14]
  64 0026 0020     		movs	r0, #0
  65 0028 9DF80C30 		ldrb	r3, [sp, #12]	@ zero_extendqisi2
  66 002c 63F30700 		bfi	r0, r3, #0, #8
  67 0030 9DF80D30 		ldrb	r3, [sp, #13]	@ zero_extendqisi2
  68 0034 63F30F20 		bfi	r0, r3, #8, #8
  69 0038 9DF80E30 		ldrb	r3, [sp, #14]	@ zero_extendqisi2
  70 003c 63F31740 		bfi	r0, r3, #16, #8
 212:Lib/lvgl/src/core/lv_obj_style_gen.h **** }
  71              		.loc 2 212 1 view .LVU7
  72 0040 05B0     		add	sp, sp, #20
  73              	.LCFI2:
  74              		.cfi_def_cfa_offset 12
ARM GAS  C:\Users\Alex\AppData\Local\Temp\cccZpk1s.s 			page 6


  75              		@ sp needed
  76 0042 30BD     		pop	{r4, r5, pc}
  77              		.loc 2 212 1 view .LVU8
  78              		.cfi_endproc
  79              	.LFE130:
  81              		.section	.text.lv_obj_get_style_bg_grad_color_filtered,"ax",%progbits
  82              		.align	1
  83              		.syntax unified
  84              		.thumb
  85              		.thumb_func
  87              	lv_obj_get_style_bg_grad_color_filtered:
  88              	.LVL3:
  89              	.LFB133:
 213:Lib/lvgl/src/core/lv_obj_style_gen.h **** 
 214:Lib/lvgl/src/core/lv_obj_style_gen.h **** static inline lv_opa_t lv_obj_get_style_bg_opa(const lv_obj_t * obj, uint32_t part)
 215:Lib/lvgl/src/core/lv_obj_style_gen.h **** {
 216:Lib/lvgl/src/core/lv_obj_style_gen.h ****     lv_style_value_t v = lv_obj_get_style_prop(obj, part, LV_STYLE_BG_OPA);
 217:Lib/lvgl/src/core/lv_obj_style_gen.h ****     return (lv_opa_t)v.num;
 218:Lib/lvgl/src/core/lv_obj_style_gen.h **** }
 219:Lib/lvgl/src/core/lv_obj_style_gen.h **** 
 220:Lib/lvgl/src/core/lv_obj_style_gen.h **** static inline lv_color_t lv_obj_get_style_bg_grad_color(const lv_obj_t * obj, uint32_t part)
 221:Lib/lvgl/src/core/lv_obj_style_gen.h **** {
 222:Lib/lvgl/src/core/lv_obj_style_gen.h ****     lv_style_value_t v = lv_obj_get_style_prop(obj, part, LV_STYLE_BG_GRAD_COLOR);
 223:Lib/lvgl/src/core/lv_obj_style_gen.h ****     return v.color;
 224:Lib/lvgl/src/core/lv_obj_style_gen.h **** }
 225:Lib/lvgl/src/core/lv_obj_style_gen.h **** 
 226:Lib/lvgl/src/core/lv_obj_style_gen.h **** static inline lv_color_t lv_obj_get_style_bg_grad_color_filtered(const lv_obj_t * obj, uint32_t par
 227:Lib/lvgl/src/core/lv_obj_style_gen.h **** {
  90              		.loc 2 227 1 is_stmt 1 view -0
  91              		.cfi_startproc
  92              		@ args = 0, pretend = 0, frame = 16
  93              		@ frame_needed = 0, uses_anonymous_args = 0
  94              		.loc 2 227 1 is_stmt 0 view .LVU10
  95 0000 30B5     		push	{r4, r5, lr}
  96              	.LCFI3:
  97              		.cfi_def_cfa_offset 12
  98              		.cfi_offset 4, -12
  99              		.cfi_offset 5, -8
 100              		.cfi_offset 14, -4
 101 0002 85B0     		sub	sp, sp, #20
 102              	.LCFI4:
 103              		.cfi_def_cfa_offset 32
 104 0004 0446     		mov	r4, r0
 105 0006 0D46     		mov	r5, r1
 228:Lib/lvgl/src/core/lv_obj_style_gen.h ****     lv_style_value_t v = _lv_obj_style_apply_color_filter(obj, part, lv_obj_get_style_prop(obj, par
 106              		.loc 2 228 5 is_stmt 1 view .LVU11
 107              		.loc 2 228 26 is_stmt 0 view .LVU12
 108 0008 2322     		movs	r2, #35
 109 000a FFF7FEFF 		bl	lv_obj_get_style_prop
 110              	.LVL4:
 111              		.loc 2 228 26 view .LVU13
 112 000e 0246     		mov	r2, r0
 113 0010 0290     		str	r0, [sp, #8]
 114 0012 2946     		mov	r1, r5
 115 0014 2046     		mov	r0, r4
 116 0016 FFF7FEFF 		bl	_lv_obj_style_apply_color_filter
 117              	.LVL5:
ARM GAS  C:\Users\Alex\AppData\Local\Temp\cccZpk1s.s 			page 7


 118 001a 0190     		str	r0, [sp, #4]
 229:Lib/lvgl/src/core/lv_obj_style_gen.h ****                                                                                            LV_STYLE
 230:Lib/lvgl/src/core/lv_obj_style_gen.h ****     return v.color;
 119              		.loc 2 230 5 is_stmt 1 view .LVU14
 120              		.loc 2 230 13 is_stmt 0 view .LVU15
 121 001c ADF80C00 		strh	r0, [sp, #12]	@ movhi
 122 0020 030C     		lsrs	r3, r0, #16
 123 0022 8DF80E30 		strb	r3, [sp, #14]
 124 0026 0020     		movs	r0, #0
 125 0028 9DF80C30 		ldrb	r3, [sp, #12]	@ zero_extendqisi2
 126 002c 63F30700 		bfi	r0, r3, #0, #8
 127 0030 9DF80D30 		ldrb	r3, [sp, #13]	@ zero_extendqisi2
 128 0034 63F30F20 		bfi	r0, r3, #8, #8
 129 0038 9DF80E30 		ldrb	r3, [sp, #14]	@ zero_extendqisi2
 130 003c 63F31740 		bfi	r0, r3, #16, #8
 231:Lib/lvgl/src/core/lv_obj_style_gen.h **** }
 131              		.loc 2 231 1 view .LVU16
 132 0040 05B0     		add	sp, sp, #20
 133              	.LCFI5:
 134              		.cfi_def_cfa_offset 12
 135              		@ sp needed
 136 0042 30BD     		pop	{r4, r5, pc}
 137              		.loc 2 231 1 view .LVU17
 138              		.cfi_endproc
 139              	.LFE133:
 141              		.section	.text.lv_obj_get_style_border_color_filtered,"ax",%progbits
 142              		.align	1
 143              		.syntax unified
 144              		.thumb
 145              		.thumb_func
 147              	lv_obj_get_style_border_color_filtered:
 148              	.LVL6:
 149              	.LFB147:
 232:Lib/lvgl/src/core/lv_obj_style_gen.h **** 
 233:Lib/lvgl/src/core/lv_obj_style_gen.h **** static inline lv_grad_dir_t lv_obj_get_style_bg_grad_dir(const lv_obj_t * obj, uint32_t part)
 234:Lib/lvgl/src/core/lv_obj_style_gen.h **** {
 235:Lib/lvgl/src/core/lv_obj_style_gen.h ****     lv_style_value_t v = lv_obj_get_style_prop(obj, part, LV_STYLE_BG_GRAD_DIR);
 236:Lib/lvgl/src/core/lv_obj_style_gen.h ****     return (lv_grad_dir_t)v.num;
 237:Lib/lvgl/src/core/lv_obj_style_gen.h **** }
 238:Lib/lvgl/src/core/lv_obj_style_gen.h **** 
 239:Lib/lvgl/src/core/lv_obj_style_gen.h **** static inline int32_t lv_obj_get_style_bg_main_stop(const lv_obj_t * obj, uint32_t part)
 240:Lib/lvgl/src/core/lv_obj_style_gen.h **** {
 241:Lib/lvgl/src/core/lv_obj_style_gen.h ****     lv_style_value_t v = lv_obj_get_style_prop(obj, part, LV_STYLE_BG_MAIN_STOP);
 242:Lib/lvgl/src/core/lv_obj_style_gen.h ****     return (int32_t)v.num;
 243:Lib/lvgl/src/core/lv_obj_style_gen.h **** }
 244:Lib/lvgl/src/core/lv_obj_style_gen.h **** 
 245:Lib/lvgl/src/core/lv_obj_style_gen.h **** static inline int32_t lv_obj_get_style_bg_grad_stop(const lv_obj_t * obj, uint32_t part)
 246:Lib/lvgl/src/core/lv_obj_style_gen.h **** {
 247:Lib/lvgl/src/core/lv_obj_style_gen.h ****     lv_style_value_t v = lv_obj_get_style_prop(obj, part, LV_STYLE_BG_GRAD_STOP);
 248:Lib/lvgl/src/core/lv_obj_style_gen.h ****     return (int32_t)v.num;
 249:Lib/lvgl/src/core/lv_obj_style_gen.h **** }
 250:Lib/lvgl/src/core/lv_obj_style_gen.h **** 
 251:Lib/lvgl/src/core/lv_obj_style_gen.h **** static inline lv_opa_t lv_obj_get_style_bg_main_opa(const lv_obj_t * obj, uint32_t part)
 252:Lib/lvgl/src/core/lv_obj_style_gen.h **** {
 253:Lib/lvgl/src/core/lv_obj_style_gen.h ****     lv_style_value_t v = lv_obj_get_style_prop(obj, part, LV_STYLE_BG_MAIN_OPA);
 254:Lib/lvgl/src/core/lv_obj_style_gen.h ****     return (lv_opa_t)v.num;
 255:Lib/lvgl/src/core/lv_obj_style_gen.h **** }
ARM GAS  C:\Users\Alex\AppData\Local\Temp\cccZpk1s.s 			page 8


 256:Lib/lvgl/src/core/lv_obj_style_gen.h **** 
 257:Lib/lvgl/src/core/lv_obj_style_gen.h **** static inline lv_opa_t lv_obj_get_style_bg_grad_opa(const lv_obj_t * obj, uint32_t part)
 258:Lib/lvgl/src/core/lv_obj_style_gen.h **** {
 259:Lib/lvgl/src/core/lv_obj_style_gen.h ****     lv_style_value_t v = lv_obj_get_style_prop(obj, part, LV_STYLE_BG_GRAD_OPA);
 260:Lib/lvgl/src/core/lv_obj_style_gen.h ****     return (lv_opa_t)v.num;
 261:Lib/lvgl/src/core/lv_obj_style_gen.h **** }
 262:Lib/lvgl/src/core/lv_obj_style_gen.h **** 
 263:Lib/lvgl/src/core/lv_obj_style_gen.h **** static inline const lv_grad_dsc_t * lv_obj_get_style_bg_grad(const lv_obj_t * obj, uint32_t part)
 264:Lib/lvgl/src/core/lv_obj_style_gen.h **** {
 265:Lib/lvgl/src/core/lv_obj_style_gen.h ****     lv_style_value_t v = lv_obj_get_style_prop(obj, part, LV_STYLE_BG_GRAD);
 266:Lib/lvgl/src/core/lv_obj_style_gen.h ****     return (const lv_grad_dsc_t *)v.ptr;
 267:Lib/lvgl/src/core/lv_obj_style_gen.h **** }
 268:Lib/lvgl/src/core/lv_obj_style_gen.h **** 
 269:Lib/lvgl/src/core/lv_obj_style_gen.h **** static inline const void * lv_obj_get_style_bg_image_src(const lv_obj_t * obj, uint32_t part)
 270:Lib/lvgl/src/core/lv_obj_style_gen.h **** {
 271:Lib/lvgl/src/core/lv_obj_style_gen.h ****     lv_style_value_t v = lv_obj_get_style_prop(obj, part, LV_STYLE_BG_IMAGE_SRC);
 272:Lib/lvgl/src/core/lv_obj_style_gen.h ****     return (const void *)v.ptr;
 273:Lib/lvgl/src/core/lv_obj_style_gen.h **** }
 274:Lib/lvgl/src/core/lv_obj_style_gen.h **** 
 275:Lib/lvgl/src/core/lv_obj_style_gen.h **** static inline lv_opa_t lv_obj_get_style_bg_image_opa(const lv_obj_t * obj, uint32_t part)
 276:Lib/lvgl/src/core/lv_obj_style_gen.h **** {
 277:Lib/lvgl/src/core/lv_obj_style_gen.h ****     lv_style_value_t v = lv_obj_get_style_prop(obj, part, LV_STYLE_BG_IMAGE_OPA);
 278:Lib/lvgl/src/core/lv_obj_style_gen.h ****     return (lv_opa_t)v.num;
 279:Lib/lvgl/src/core/lv_obj_style_gen.h **** }
 280:Lib/lvgl/src/core/lv_obj_style_gen.h **** 
 281:Lib/lvgl/src/core/lv_obj_style_gen.h **** static inline lv_color_t lv_obj_get_style_bg_image_recolor(const lv_obj_t * obj, uint32_t part)
 282:Lib/lvgl/src/core/lv_obj_style_gen.h **** {
 283:Lib/lvgl/src/core/lv_obj_style_gen.h ****     lv_style_value_t v = lv_obj_get_style_prop(obj, part, LV_STYLE_BG_IMAGE_RECOLOR);
 284:Lib/lvgl/src/core/lv_obj_style_gen.h ****     return v.color;
 285:Lib/lvgl/src/core/lv_obj_style_gen.h **** }
 286:Lib/lvgl/src/core/lv_obj_style_gen.h **** 
 287:Lib/lvgl/src/core/lv_obj_style_gen.h **** static inline lv_color_t lv_obj_get_style_bg_image_recolor_filtered(const lv_obj_t * obj, uint32_t 
 288:Lib/lvgl/src/core/lv_obj_style_gen.h **** {
 289:Lib/lvgl/src/core/lv_obj_style_gen.h ****     lv_style_value_t v = _lv_obj_style_apply_color_filter(obj, part, lv_obj_get_style_prop(obj, par
 290:Lib/lvgl/src/core/lv_obj_style_gen.h ****                                                                                            LV_STYLE
 291:Lib/lvgl/src/core/lv_obj_style_gen.h ****     return v.color;
 292:Lib/lvgl/src/core/lv_obj_style_gen.h **** }
 293:Lib/lvgl/src/core/lv_obj_style_gen.h **** 
 294:Lib/lvgl/src/core/lv_obj_style_gen.h **** static inline lv_opa_t lv_obj_get_style_bg_image_recolor_opa(const lv_obj_t * obj, uint32_t part)
 295:Lib/lvgl/src/core/lv_obj_style_gen.h **** {
 296:Lib/lvgl/src/core/lv_obj_style_gen.h ****     lv_style_value_t v = lv_obj_get_style_prop(obj, part, LV_STYLE_BG_IMAGE_RECOLOR_OPA);
 297:Lib/lvgl/src/core/lv_obj_style_gen.h ****     return (lv_opa_t)v.num;
 298:Lib/lvgl/src/core/lv_obj_style_gen.h **** }
 299:Lib/lvgl/src/core/lv_obj_style_gen.h **** 
 300:Lib/lvgl/src/core/lv_obj_style_gen.h **** static inline bool lv_obj_get_style_bg_image_tiled(const lv_obj_t * obj, uint32_t part)
 301:Lib/lvgl/src/core/lv_obj_style_gen.h **** {
 302:Lib/lvgl/src/core/lv_obj_style_gen.h ****     lv_style_value_t v = lv_obj_get_style_prop(obj, part, LV_STYLE_BG_IMAGE_TILED);
 303:Lib/lvgl/src/core/lv_obj_style_gen.h ****     return (bool)v.num;
 304:Lib/lvgl/src/core/lv_obj_style_gen.h **** }
 305:Lib/lvgl/src/core/lv_obj_style_gen.h **** 
 306:Lib/lvgl/src/core/lv_obj_style_gen.h **** static inline lv_color_t lv_obj_get_style_border_color(const lv_obj_t * obj, uint32_t part)
 307:Lib/lvgl/src/core/lv_obj_style_gen.h **** {
 308:Lib/lvgl/src/core/lv_obj_style_gen.h ****     lv_style_value_t v = lv_obj_get_style_prop(obj, part, LV_STYLE_BORDER_COLOR);
 309:Lib/lvgl/src/core/lv_obj_style_gen.h ****     return v.color;
 310:Lib/lvgl/src/core/lv_obj_style_gen.h **** }
 311:Lib/lvgl/src/core/lv_obj_style_gen.h **** 
 312:Lib/lvgl/src/core/lv_obj_style_gen.h **** static inline lv_color_t lv_obj_get_style_border_color_filtered(const lv_obj_t * obj, uint32_t part
ARM GAS  C:\Users\Alex\AppData\Local\Temp\cccZpk1s.s 			page 9


 313:Lib/lvgl/src/core/lv_obj_style_gen.h **** {
 150              		.loc 2 313 1 is_stmt 1 view -0
 151              		.cfi_startproc
 152              		@ args = 0, pretend = 0, frame = 16
 153              		@ frame_needed = 0, uses_anonymous_args = 0
 154              		.loc 2 313 1 is_stmt 0 view .LVU19
 155 0000 30B5     		push	{r4, r5, lr}
 156              	.LCFI6:
 157              		.cfi_def_cfa_offset 12
 158              		.cfi_offset 4, -12
 159              		.cfi_offset 5, -8
 160              		.cfi_offset 14, -4
 161 0002 85B0     		sub	sp, sp, #20
 162              	.LCFI7:
 163              		.cfi_def_cfa_offset 32
 164 0004 0446     		mov	r4, r0
 165 0006 0D46     		mov	r5, r1
 314:Lib/lvgl/src/core/lv_obj_style_gen.h ****     lv_style_value_t v = _lv_obj_style_apply_color_filter(obj, part, lv_obj_get_style_prop(obj, par
 166              		.loc 2 314 5 is_stmt 1 view .LVU20
 167              		.loc 2 314 26 is_stmt 0 view .LVU21
 168 0008 3122     		movs	r2, #49
 169 000a FFF7FEFF 		bl	lv_obj_get_style_prop
 170              	.LVL7:
 171              		.loc 2 314 26 view .LVU22
 172 000e 0246     		mov	r2, r0
 173 0010 0290     		str	r0, [sp, #8]
 174 0012 2946     		mov	r1, r5
 175 0014 2046     		mov	r0, r4
 176 0016 FFF7FEFF 		bl	_lv_obj_style_apply_color_filter
 177              	.LVL8:
 178 001a 0190     		str	r0, [sp, #4]
 315:Lib/lvgl/src/core/lv_obj_style_gen.h ****                                                                                            LV_STYLE
 316:Lib/lvgl/src/core/lv_obj_style_gen.h ****     return v.color;
 179              		.loc 2 316 5 is_stmt 1 view .LVU23
 180              		.loc 2 316 13 is_stmt 0 view .LVU24
 181 001c ADF80C00 		strh	r0, [sp, #12]	@ movhi
 182 0020 030C     		lsrs	r3, r0, #16
 183 0022 8DF80E30 		strb	r3, [sp, #14]
 184 0026 0020     		movs	r0, #0
 185 0028 9DF80C30 		ldrb	r3, [sp, #12]	@ zero_extendqisi2
 186 002c 63F30700 		bfi	r0, r3, #0, #8
 187 0030 9DF80D30 		ldrb	r3, [sp, #13]	@ zero_extendqisi2
 188 0034 63F30F20 		bfi	r0, r3, #8, #8
 189 0038 9DF80E30 		ldrb	r3, [sp, #14]	@ zero_extendqisi2
 190 003c 63F31740 		bfi	r0, r3, #16, #8
 317:Lib/lvgl/src/core/lv_obj_style_gen.h **** }
 191              		.loc 2 317 1 view .LVU25
 192 0040 05B0     		add	sp, sp, #20
 193              	.LCFI8:
 194              		.cfi_def_cfa_offset 12
 195              		@ sp needed
 196 0042 30BD     		pop	{r4, r5, pc}
 197              		.loc 2 317 1 view .LVU26
 198              		.cfi_endproc
 199              	.LFE147:
 201              		.section	.text.lv_obj_get_style_outline_color_filtered,"ax",%progbits
 202              		.align	1
ARM GAS  C:\Users\Alex\AppData\Local\Temp\cccZpk1s.s 			page 10


 203              		.syntax unified
 204              		.thumb
 205              		.thumb_func
 207              	lv_obj_get_style_outline_color_filtered:
 208              	.LVL9:
 209              	.LFB154:
 318:Lib/lvgl/src/core/lv_obj_style_gen.h **** 
 319:Lib/lvgl/src/core/lv_obj_style_gen.h **** static inline lv_opa_t lv_obj_get_style_border_opa(const lv_obj_t * obj, uint32_t part)
 320:Lib/lvgl/src/core/lv_obj_style_gen.h **** {
 321:Lib/lvgl/src/core/lv_obj_style_gen.h ****     lv_style_value_t v = lv_obj_get_style_prop(obj, part, LV_STYLE_BORDER_OPA);
 322:Lib/lvgl/src/core/lv_obj_style_gen.h ****     return (lv_opa_t)v.num;
 323:Lib/lvgl/src/core/lv_obj_style_gen.h **** }
 324:Lib/lvgl/src/core/lv_obj_style_gen.h **** 
 325:Lib/lvgl/src/core/lv_obj_style_gen.h **** static inline int32_t lv_obj_get_style_border_width(const lv_obj_t * obj, uint32_t part)
 326:Lib/lvgl/src/core/lv_obj_style_gen.h **** {
 327:Lib/lvgl/src/core/lv_obj_style_gen.h ****     lv_style_value_t v = lv_obj_get_style_prop(obj, part, LV_STYLE_BORDER_WIDTH);
 328:Lib/lvgl/src/core/lv_obj_style_gen.h ****     return (int32_t)v.num;
 329:Lib/lvgl/src/core/lv_obj_style_gen.h **** }
 330:Lib/lvgl/src/core/lv_obj_style_gen.h **** 
 331:Lib/lvgl/src/core/lv_obj_style_gen.h **** static inline lv_border_side_t lv_obj_get_style_border_side(const lv_obj_t * obj, uint32_t part)
 332:Lib/lvgl/src/core/lv_obj_style_gen.h **** {
 333:Lib/lvgl/src/core/lv_obj_style_gen.h ****     lv_style_value_t v = lv_obj_get_style_prop(obj, part, LV_STYLE_BORDER_SIDE);
 334:Lib/lvgl/src/core/lv_obj_style_gen.h ****     return (lv_border_side_t)v.num;
 335:Lib/lvgl/src/core/lv_obj_style_gen.h **** }
 336:Lib/lvgl/src/core/lv_obj_style_gen.h **** 
 337:Lib/lvgl/src/core/lv_obj_style_gen.h **** static inline bool lv_obj_get_style_border_post(const lv_obj_t * obj, uint32_t part)
 338:Lib/lvgl/src/core/lv_obj_style_gen.h **** {
 339:Lib/lvgl/src/core/lv_obj_style_gen.h ****     lv_style_value_t v = lv_obj_get_style_prop(obj, part, LV_STYLE_BORDER_POST);
 340:Lib/lvgl/src/core/lv_obj_style_gen.h ****     return (bool)v.num;
 341:Lib/lvgl/src/core/lv_obj_style_gen.h **** }
 342:Lib/lvgl/src/core/lv_obj_style_gen.h **** 
 343:Lib/lvgl/src/core/lv_obj_style_gen.h **** static inline int32_t lv_obj_get_style_outline_width(const lv_obj_t * obj, uint32_t part)
 344:Lib/lvgl/src/core/lv_obj_style_gen.h **** {
 345:Lib/lvgl/src/core/lv_obj_style_gen.h ****     lv_style_value_t v = lv_obj_get_style_prop(obj, part, LV_STYLE_OUTLINE_WIDTH);
 346:Lib/lvgl/src/core/lv_obj_style_gen.h ****     return (int32_t)v.num;
 347:Lib/lvgl/src/core/lv_obj_style_gen.h **** }
 348:Lib/lvgl/src/core/lv_obj_style_gen.h **** 
 349:Lib/lvgl/src/core/lv_obj_style_gen.h **** static inline lv_color_t lv_obj_get_style_outline_color(const lv_obj_t * obj, uint32_t part)
 350:Lib/lvgl/src/core/lv_obj_style_gen.h **** {
 351:Lib/lvgl/src/core/lv_obj_style_gen.h ****     lv_style_value_t v = lv_obj_get_style_prop(obj, part, LV_STYLE_OUTLINE_COLOR);
 352:Lib/lvgl/src/core/lv_obj_style_gen.h ****     return v.color;
 353:Lib/lvgl/src/core/lv_obj_style_gen.h **** }
 354:Lib/lvgl/src/core/lv_obj_style_gen.h **** 
 355:Lib/lvgl/src/core/lv_obj_style_gen.h **** static inline lv_color_t lv_obj_get_style_outline_color_filtered(const lv_obj_t * obj, uint32_t par
 356:Lib/lvgl/src/core/lv_obj_style_gen.h **** {
 210              		.loc 2 356 1 is_stmt 1 view -0
 211              		.cfi_startproc
 212              		@ args = 0, pretend = 0, frame = 16
 213              		@ frame_needed = 0, uses_anonymous_args = 0
 214              		.loc 2 356 1 is_stmt 0 view .LVU28
 215 0000 30B5     		push	{r4, r5, lr}
 216              	.LCFI9:
 217              		.cfi_def_cfa_offset 12
 218              		.cfi_offset 4, -12
 219              		.cfi_offset 5, -8
 220              		.cfi_offset 14, -4
 221 0002 85B0     		sub	sp, sp, #20
ARM GAS  C:\Users\Alex\AppData\Local\Temp\cccZpk1s.s 			page 11


 222              	.LCFI10:
 223              		.cfi_def_cfa_offset 32
 224 0004 0446     		mov	r4, r0
 225 0006 0D46     		mov	r5, r1
 357:Lib/lvgl/src/core/lv_obj_style_gen.h ****     lv_style_value_t v = _lv_obj_style_apply_color_filter(obj, part, lv_obj_get_style_prop(obj, par
 226              		.loc 2 357 5 is_stmt 1 view .LVU29
 227              		.loc 2 357 26 is_stmt 0 view .LVU30
 228 0008 3922     		movs	r2, #57
 229 000a FFF7FEFF 		bl	lv_obj_get_style_prop
 230              	.LVL10:
 231              		.loc 2 357 26 view .LVU31
 232 000e 0246     		mov	r2, r0
 233 0010 0290     		str	r0, [sp, #8]
 234 0012 2946     		mov	r1, r5
 235 0014 2046     		mov	r0, r4
 236 0016 FFF7FEFF 		bl	_lv_obj_style_apply_color_filter
 237              	.LVL11:
 238 001a 0190     		str	r0, [sp, #4]
 358:Lib/lvgl/src/core/lv_obj_style_gen.h ****                                                                                            LV_STYLE
 359:Lib/lvgl/src/core/lv_obj_style_gen.h ****     return v.color;
 239              		.loc 2 359 5 is_stmt 1 view .LVU32
 240              		.loc 2 359 13 is_stmt 0 view .LVU33
 241 001c ADF80C00 		strh	r0, [sp, #12]	@ movhi
 242 0020 030C     		lsrs	r3, r0, #16
 243 0022 8DF80E30 		strb	r3, [sp, #14]
 244 0026 0020     		movs	r0, #0
 245 0028 9DF80C30 		ldrb	r3, [sp, #12]	@ zero_extendqisi2
 246 002c 63F30700 		bfi	r0, r3, #0, #8
 247 0030 9DF80D30 		ldrb	r3, [sp, #13]	@ zero_extendqisi2
 248 0034 63F30F20 		bfi	r0, r3, #8, #8
 249 0038 9DF80E30 		ldrb	r3, [sp, #14]	@ zero_extendqisi2
 250 003c 63F31740 		bfi	r0, r3, #16, #8
 360:Lib/lvgl/src/core/lv_obj_style_gen.h **** }
 251              		.loc 2 360 1 view .LVU34
 252 0040 05B0     		add	sp, sp, #20
 253              	.LCFI11:
 254              		.cfi_def_cfa_offset 12
 255              		@ sp needed
 256 0042 30BD     		pop	{r4, r5, pc}
 257              		.loc 2 360 1 view .LVU35
 258              		.cfi_endproc
 259              	.LFE154:
 261              		.section	.text.lv_obj_get_style_text_color_filtered,"ax",%progbits
 262              		.align	1
 263              		.syntax unified
 264              		.thumb
 265              		.thumb_func
 267              	lv_obj_get_style_text_color_filtered:
 268              	.LVL12:
 269              	.LFB182:
 361:Lib/lvgl/src/core/lv_obj_style_gen.h **** 
 362:Lib/lvgl/src/core/lv_obj_style_gen.h **** static inline lv_opa_t lv_obj_get_style_outline_opa(const lv_obj_t * obj, uint32_t part)
 363:Lib/lvgl/src/core/lv_obj_style_gen.h **** {
 364:Lib/lvgl/src/core/lv_obj_style_gen.h ****     lv_style_value_t v = lv_obj_get_style_prop(obj, part, LV_STYLE_OUTLINE_OPA);
 365:Lib/lvgl/src/core/lv_obj_style_gen.h ****     return (lv_opa_t)v.num;
 366:Lib/lvgl/src/core/lv_obj_style_gen.h **** }
 367:Lib/lvgl/src/core/lv_obj_style_gen.h **** 
ARM GAS  C:\Users\Alex\AppData\Local\Temp\cccZpk1s.s 			page 12


 368:Lib/lvgl/src/core/lv_obj_style_gen.h **** static inline int32_t lv_obj_get_style_outline_pad(const lv_obj_t * obj, uint32_t part)
 369:Lib/lvgl/src/core/lv_obj_style_gen.h **** {
 370:Lib/lvgl/src/core/lv_obj_style_gen.h ****     lv_style_value_t v = lv_obj_get_style_prop(obj, part, LV_STYLE_OUTLINE_PAD);
 371:Lib/lvgl/src/core/lv_obj_style_gen.h ****     return (int32_t)v.num;
 372:Lib/lvgl/src/core/lv_obj_style_gen.h **** }
 373:Lib/lvgl/src/core/lv_obj_style_gen.h **** 
 374:Lib/lvgl/src/core/lv_obj_style_gen.h **** static inline int32_t lv_obj_get_style_shadow_width(const lv_obj_t * obj, uint32_t part)
 375:Lib/lvgl/src/core/lv_obj_style_gen.h **** {
 376:Lib/lvgl/src/core/lv_obj_style_gen.h ****     lv_style_value_t v = lv_obj_get_style_prop(obj, part, LV_STYLE_SHADOW_WIDTH);
 377:Lib/lvgl/src/core/lv_obj_style_gen.h ****     return (int32_t)v.num;
 378:Lib/lvgl/src/core/lv_obj_style_gen.h **** }
 379:Lib/lvgl/src/core/lv_obj_style_gen.h **** 
 380:Lib/lvgl/src/core/lv_obj_style_gen.h **** static inline int32_t lv_obj_get_style_shadow_offset_x(const lv_obj_t * obj, uint32_t part)
 381:Lib/lvgl/src/core/lv_obj_style_gen.h **** {
 382:Lib/lvgl/src/core/lv_obj_style_gen.h ****     lv_style_value_t v = lv_obj_get_style_prop(obj, part, LV_STYLE_SHADOW_OFFSET_X);
 383:Lib/lvgl/src/core/lv_obj_style_gen.h ****     return (int32_t)v.num;
 384:Lib/lvgl/src/core/lv_obj_style_gen.h **** }
 385:Lib/lvgl/src/core/lv_obj_style_gen.h **** 
 386:Lib/lvgl/src/core/lv_obj_style_gen.h **** static inline int32_t lv_obj_get_style_shadow_offset_y(const lv_obj_t * obj, uint32_t part)
 387:Lib/lvgl/src/core/lv_obj_style_gen.h **** {
 388:Lib/lvgl/src/core/lv_obj_style_gen.h ****     lv_style_value_t v = lv_obj_get_style_prop(obj, part, LV_STYLE_SHADOW_OFFSET_Y);
 389:Lib/lvgl/src/core/lv_obj_style_gen.h ****     return (int32_t)v.num;
 390:Lib/lvgl/src/core/lv_obj_style_gen.h **** }
 391:Lib/lvgl/src/core/lv_obj_style_gen.h **** 
 392:Lib/lvgl/src/core/lv_obj_style_gen.h **** static inline int32_t lv_obj_get_style_shadow_spread(const lv_obj_t * obj, uint32_t part)
 393:Lib/lvgl/src/core/lv_obj_style_gen.h **** {
 394:Lib/lvgl/src/core/lv_obj_style_gen.h ****     lv_style_value_t v = lv_obj_get_style_prop(obj, part, LV_STYLE_SHADOW_SPREAD);
 395:Lib/lvgl/src/core/lv_obj_style_gen.h ****     return (int32_t)v.num;
 396:Lib/lvgl/src/core/lv_obj_style_gen.h **** }
 397:Lib/lvgl/src/core/lv_obj_style_gen.h **** 
 398:Lib/lvgl/src/core/lv_obj_style_gen.h **** static inline lv_color_t lv_obj_get_style_shadow_color(const lv_obj_t * obj, uint32_t part)
 399:Lib/lvgl/src/core/lv_obj_style_gen.h **** {
 400:Lib/lvgl/src/core/lv_obj_style_gen.h ****     lv_style_value_t v = lv_obj_get_style_prop(obj, part, LV_STYLE_SHADOW_COLOR);
 401:Lib/lvgl/src/core/lv_obj_style_gen.h ****     return v.color;
 402:Lib/lvgl/src/core/lv_obj_style_gen.h **** }
 403:Lib/lvgl/src/core/lv_obj_style_gen.h **** 
 404:Lib/lvgl/src/core/lv_obj_style_gen.h **** static inline lv_color_t lv_obj_get_style_shadow_color_filtered(const lv_obj_t * obj, uint32_t part
 405:Lib/lvgl/src/core/lv_obj_style_gen.h **** {
 406:Lib/lvgl/src/core/lv_obj_style_gen.h ****     lv_style_value_t v = _lv_obj_style_apply_color_filter(obj, part, lv_obj_get_style_prop(obj, par
 407:Lib/lvgl/src/core/lv_obj_style_gen.h ****                                                                                            LV_STYLE
 408:Lib/lvgl/src/core/lv_obj_style_gen.h ****     return v.color;
 409:Lib/lvgl/src/core/lv_obj_style_gen.h **** }
 410:Lib/lvgl/src/core/lv_obj_style_gen.h **** 
 411:Lib/lvgl/src/core/lv_obj_style_gen.h **** static inline lv_opa_t lv_obj_get_style_shadow_opa(const lv_obj_t * obj, uint32_t part)
 412:Lib/lvgl/src/core/lv_obj_style_gen.h **** {
 413:Lib/lvgl/src/core/lv_obj_style_gen.h ****     lv_style_value_t v = lv_obj_get_style_prop(obj, part, LV_STYLE_SHADOW_OPA);
 414:Lib/lvgl/src/core/lv_obj_style_gen.h ****     return (lv_opa_t)v.num;
 415:Lib/lvgl/src/core/lv_obj_style_gen.h **** }
 416:Lib/lvgl/src/core/lv_obj_style_gen.h **** 
 417:Lib/lvgl/src/core/lv_obj_style_gen.h **** static inline lv_opa_t lv_obj_get_style_image_opa(const lv_obj_t * obj, uint32_t part)
 418:Lib/lvgl/src/core/lv_obj_style_gen.h **** {
 419:Lib/lvgl/src/core/lv_obj_style_gen.h ****     lv_style_value_t v = lv_obj_get_style_prop(obj, part, LV_STYLE_IMAGE_OPA);
 420:Lib/lvgl/src/core/lv_obj_style_gen.h ****     return (lv_opa_t)v.num;
 421:Lib/lvgl/src/core/lv_obj_style_gen.h **** }
 422:Lib/lvgl/src/core/lv_obj_style_gen.h **** 
 423:Lib/lvgl/src/core/lv_obj_style_gen.h **** static inline lv_color_t lv_obj_get_style_image_recolor(const lv_obj_t * obj, uint32_t part)
 424:Lib/lvgl/src/core/lv_obj_style_gen.h **** {
ARM GAS  C:\Users\Alex\AppData\Local\Temp\cccZpk1s.s 			page 13


 425:Lib/lvgl/src/core/lv_obj_style_gen.h ****     lv_style_value_t v = lv_obj_get_style_prop(obj, part, LV_STYLE_IMAGE_RECOLOR);
 426:Lib/lvgl/src/core/lv_obj_style_gen.h ****     return v.color;
 427:Lib/lvgl/src/core/lv_obj_style_gen.h **** }
 428:Lib/lvgl/src/core/lv_obj_style_gen.h **** 
 429:Lib/lvgl/src/core/lv_obj_style_gen.h **** static inline lv_color_t lv_obj_get_style_image_recolor_filtered(const lv_obj_t * obj, uint32_t par
 430:Lib/lvgl/src/core/lv_obj_style_gen.h **** {
 431:Lib/lvgl/src/core/lv_obj_style_gen.h ****     lv_style_value_t v = _lv_obj_style_apply_color_filter(obj, part, lv_obj_get_style_prop(obj, par
 432:Lib/lvgl/src/core/lv_obj_style_gen.h ****                                                                                            LV_STYLE
 433:Lib/lvgl/src/core/lv_obj_style_gen.h ****     return v.color;
 434:Lib/lvgl/src/core/lv_obj_style_gen.h **** }
 435:Lib/lvgl/src/core/lv_obj_style_gen.h **** 
 436:Lib/lvgl/src/core/lv_obj_style_gen.h **** static inline lv_opa_t lv_obj_get_style_image_recolor_opa(const lv_obj_t * obj, uint32_t part)
 437:Lib/lvgl/src/core/lv_obj_style_gen.h **** {
 438:Lib/lvgl/src/core/lv_obj_style_gen.h ****     lv_style_value_t v = lv_obj_get_style_prop(obj, part, LV_STYLE_IMAGE_RECOLOR_OPA);
 439:Lib/lvgl/src/core/lv_obj_style_gen.h ****     return (lv_opa_t)v.num;
 440:Lib/lvgl/src/core/lv_obj_style_gen.h **** }
 441:Lib/lvgl/src/core/lv_obj_style_gen.h **** 
 442:Lib/lvgl/src/core/lv_obj_style_gen.h **** static inline int32_t lv_obj_get_style_line_width(const lv_obj_t * obj, uint32_t part)
 443:Lib/lvgl/src/core/lv_obj_style_gen.h **** {
 444:Lib/lvgl/src/core/lv_obj_style_gen.h ****     lv_style_value_t v = lv_obj_get_style_prop(obj, part, LV_STYLE_LINE_WIDTH);
 445:Lib/lvgl/src/core/lv_obj_style_gen.h ****     return (int32_t)v.num;
 446:Lib/lvgl/src/core/lv_obj_style_gen.h **** }
 447:Lib/lvgl/src/core/lv_obj_style_gen.h **** 
 448:Lib/lvgl/src/core/lv_obj_style_gen.h **** static inline int32_t lv_obj_get_style_line_dash_width(const lv_obj_t * obj, uint32_t part)
 449:Lib/lvgl/src/core/lv_obj_style_gen.h **** {
 450:Lib/lvgl/src/core/lv_obj_style_gen.h ****     lv_style_value_t v = lv_obj_get_style_prop(obj, part, LV_STYLE_LINE_DASH_WIDTH);
 451:Lib/lvgl/src/core/lv_obj_style_gen.h ****     return (int32_t)v.num;
 452:Lib/lvgl/src/core/lv_obj_style_gen.h **** }
 453:Lib/lvgl/src/core/lv_obj_style_gen.h **** 
 454:Lib/lvgl/src/core/lv_obj_style_gen.h **** static inline int32_t lv_obj_get_style_line_dash_gap(const lv_obj_t * obj, uint32_t part)
 455:Lib/lvgl/src/core/lv_obj_style_gen.h **** {
 456:Lib/lvgl/src/core/lv_obj_style_gen.h ****     lv_style_value_t v = lv_obj_get_style_prop(obj, part, LV_STYLE_LINE_DASH_GAP);
 457:Lib/lvgl/src/core/lv_obj_style_gen.h ****     return (int32_t)v.num;
 458:Lib/lvgl/src/core/lv_obj_style_gen.h **** }
 459:Lib/lvgl/src/core/lv_obj_style_gen.h **** 
 460:Lib/lvgl/src/core/lv_obj_style_gen.h **** static inline bool lv_obj_get_style_line_rounded(const lv_obj_t * obj, uint32_t part)
 461:Lib/lvgl/src/core/lv_obj_style_gen.h **** {
 462:Lib/lvgl/src/core/lv_obj_style_gen.h ****     lv_style_value_t v = lv_obj_get_style_prop(obj, part, LV_STYLE_LINE_ROUNDED);
 463:Lib/lvgl/src/core/lv_obj_style_gen.h ****     return (bool)v.num;
 464:Lib/lvgl/src/core/lv_obj_style_gen.h **** }
 465:Lib/lvgl/src/core/lv_obj_style_gen.h **** 
 466:Lib/lvgl/src/core/lv_obj_style_gen.h **** static inline lv_color_t lv_obj_get_style_line_color(const lv_obj_t * obj, uint32_t part)
 467:Lib/lvgl/src/core/lv_obj_style_gen.h **** {
 468:Lib/lvgl/src/core/lv_obj_style_gen.h ****     lv_style_value_t v = lv_obj_get_style_prop(obj, part, LV_STYLE_LINE_COLOR);
 469:Lib/lvgl/src/core/lv_obj_style_gen.h ****     return v.color;
 470:Lib/lvgl/src/core/lv_obj_style_gen.h **** }
 471:Lib/lvgl/src/core/lv_obj_style_gen.h **** 
 472:Lib/lvgl/src/core/lv_obj_style_gen.h **** static inline lv_color_t lv_obj_get_style_line_color_filtered(const lv_obj_t * obj, uint32_t part)
 473:Lib/lvgl/src/core/lv_obj_style_gen.h **** {
 474:Lib/lvgl/src/core/lv_obj_style_gen.h ****     lv_style_value_t v = _lv_obj_style_apply_color_filter(obj, part, lv_obj_get_style_prop(obj, par
 475:Lib/lvgl/src/core/lv_obj_style_gen.h ****     return v.color;
 476:Lib/lvgl/src/core/lv_obj_style_gen.h **** }
 477:Lib/lvgl/src/core/lv_obj_style_gen.h **** 
 478:Lib/lvgl/src/core/lv_obj_style_gen.h **** static inline lv_opa_t lv_obj_get_style_line_opa(const lv_obj_t * obj, uint32_t part)
 479:Lib/lvgl/src/core/lv_obj_style_gen.h **** {
 480:Lib/lvgl/src/core/lv_obj_style_gen.h ****     lv_style_value_t v = lv_obj_get_style_prop(obj, part, LV_STYLE_LINE_OPA);
 481:Lib/lvgl/src/core/lv_obj_style_gen.h ****     return (lv_opa_t)v.num;
ARM GAS  C:\Users\Alex\AppData\Local\Temp\cccZpk1s.s 			page 14


 482:Lib/lvgl/src/core/lv_obj_style_gen.h **** }
 483:Lib/lvgl/src/core/lv_obj_style_gen.h **** 
 484:Lib/lvgl/src/core/lv_obj_style_gen.h **** static inline int32_t lv_obj_get_style_arc_width(const lv_obj_t * obj, uint32_t part)
 485:Lib/lvgl/src/core/lv_obj_style_gen.h **** {
 486:Lib/lvgl/src/core/lv_obj_style_gen.h ****     lv_style_value_t v = lv_obj_get_style_prop(obj, part, LV_STYLE_ARC_WIDTH);
 487:Lib/lvgl/src/core/lv_obj_style_gen.h ****     return (int32_t)v.num;
 488:Lib/lvgl/src/core/lv_obj_style_gen.h **** }
 489:Lib/lvgl/src/core/lv_obj_style_gen.h **** 
 490:Lib/lvgl/src/core/lv_obj_style_gen.h **** static inline bool lv_obj_get_style_arc_rounded(const lv_obj_t * obj, uint32_t part)
 491:Lib/lvgl/src/core/lv_obj_style_gen.h **** {
 492:Lib/lvgl/src/core/lv_obj_style_gen.h ****     lv_style_value_t v = lv_obj_get_style_prop(obj, part, LV_STYLE_ARC_ROUNDED);
 493:Lib/lvgl/src/core/lv_obj_style_gen.h ****     return (bool)v.num;
 494:Lib/lvgl/src/core/lv_obj_style_gen.h **** }
 495:Lib/lvgl/src/core/lv_obj_style_gen.h **** 
 496:Lib/lvgl/src/core/lv_obj_style_gen.h **** static inline lv_color_t lv_obj_get_style_arc_color(const lv_obj_t * obj, uint32_t part)
 497:Lib/lvgl/src/core/lv_obj_style_gen.h **** {
 498:Lib/lvgl/src/core/lv_obj_style_gen.h ****     lv_style_value_t v = lv_obj_get_style_prop(obj, part, LV_STYLE_ARC_COLOR);
 499:Lib/lvgl/src/core/lv_obj_style_gen.h ****     return v.color;
 500:Lib/lvgl/src/core/lv_obj_style_gen.h **** }
 501:Lib/lvgl/src/core/lv_obj_style_gen.h **** 
 502:Lib/lvgl/src/core/lv_obj_style_gen.h **** static inline lv_color_t lv_obj_get_style_arc_color_filtered(const lv_obj_t * obj, uint32_t part)
 503:Lib/lvgl/src/core/lv_obj_style_gen.h **** {
 504:Lib/lvgl/src/core/lv_obj_style_gen.h ****     lv_style_value_t v = _lv_obj_style_apply_color_filter(obj, part, lv_obj_get_style_prop(obj, par
 505:Lib/lvgl/src/core/lv_obj_style_gen.h ****     return v.color;
 506:Lib/lvgl/src/core/lv_obj_style_gen.h **** }
 507:Lib/lvgl/src/core/lv_obj_style_gen.h **** 
 508:Lib/lvgl/src/core/lv_obj_style_gen.h **** static inline lv_opa_t lv_obj_get_style_arc_opa(const lv_obj_t * obj, uint32_t part)
 509:Lib/lvgl/src/core/lv_obj_style_gen.h **** {
 510:Lib/lvgl/src/core/lv_obj_style_gen.h ****     lv_style_value_t v = lv_obj_get_style_prop(obj, part, LV_STYLE_ARC_OPA);
 511:Lib/lvgl/src/core/lv_obj_style_gen.h ****     return (lv_opa_t)v.num;
 512:Lib/lvgl/src/core/lv_obj_style_gen.h **** }
 513:Lib/lvgl/src/core/lv_obj_style_gen.h **** 
 514:Lib/lvgl/src/core/lv_obj_style_gen.h **** static inline const void * lv_obj_get_style_arc_image_src(const lv_obj_t * obj, uint32_t part)
 515:Lib/lvgl/src/core/lv_obj_style_gen.h **** {
 516:Lib/lvgl/src/core/lv_obj_style_gen.h ****     lv_style_value_t v = lv_obj_get_style_prop(obj, part, LV_STYLE_ARC_IMAGE_SRC);
 517:Lib/lvgl/src/core/lv_obj_style_gen.h ****     return (const void *)v.ptr;
 518:Lib/lvgl/src/core/lv_obj_style_gen.h **** }
 519:Lib/lvgl/src/core/lv_obj_style_gen.h **** 
 520:Lib/lvgl/src/core/lv_obj_style_gen.h **** static inline lv_color_t lv_obj_get_style_text_color(const lv_obj_t * obj, uint32_t part)
 521:Lib/lvgl/src/core/lv_obj_style_gen.h **** {
 522:Lib/lvgl/src/core/lv_obj_style_gen.h ****     lv_style_value_t v = lv_obj_get_style_prop(obj, part, LV_STYLE_TEXT_COLOR);
 523:Lib/lvgl/src/core/lv_obj_style_gen.h ****     return v.color;
 524:Lib/lvgl/src/core/lv_obj_style_gen.h **** }
 525:Lib/lvgl/src/core/lv_obj_style_gen.h **** 
 526:Lib/lvgl/src/core/lv_obj_style_gen.h **** static inline lv_color_t lv_obj_get_style_text_color_filtered(const lv_obj_t * obj, uint32_t part)
 527:Lib/lvgl/src/core/lv_obj_style_gen.h **** {
 270              		.loc 2 527 1 is_stmt 1 view -0
 271              		.cfi_startproc
 272              		@ args = 0, pretend = 0, frame = 16
 273              		@ frame_needed = 0, uses_anonymous_args = 0
 274              		.loc 2 527 1 is_stmt 0 view .LVU37
 275 0000 30B5     		push	{r4, r5, lr}
 276              	.LCFI12:
 277              		.cfi_def_cfa_offset 12
 278              		.cfi_offset 4, -12
 279              		.cfi_offset 5, -8
 280              		.cfi_offset 14, -4
ARM GAS  C:\Users\Alex\AppData\Local\Temp\cccZpk1s.s 			page 15


 281 0002 85B0     		sub	sp, sp, #20
 282              	.LCFI13:
 283              		.cfi_def_cfa_offset 32
 284 0004 0446     		mov	r4, r0
 285 0006 0D46     		mov	r5, r1
 528:Lib/lvgl/src/core/lv_obj_style_gen.h ****     lv_style_value_t v = _lv_obj_style_apply_color_filter(obj, part, lv_obj_get_style_prop(obj, par
 286              		.loc 2 528 5 is_stmt 1 view .LVU38
 287              		.loc 2 528 26 is_stmt 0 view .LVU39
 288 0008 5822     		movs	r2, #88
 289 000a FFF7FEFF 		bl	lv_obj_get_style_prop
 290              	.LVL13:
 291              		.loc 2 528 26 view .LVU40
 292 000e 0246     		mov	r2, r0
 293 0010 0290     		str	r0, [sp, #8]
 294 0012 2946     		mov	r1, r5
 295 0014 2046     		mov	r0, r4
 296 0016 FFF7FEFF 		bl	_lv_obj_style_apply_color_filter
 297              	.LVL14:
 298 001a 0190     		str	r0, [sp, #4]
 529:Lib/lvgl/src/core/lv_obj_style_gen.h ****     return v.color;
 299              		.loc 2 529 5 is_stmt 1 view .LVU41
 300              		.loc 2 529 13 is_stmt 0 view .LVU42
 301 001c ADF80C00 		strh	r0, [sp, #12]	@ movhi
 302 0020 030C     		lsrs	r3, r0, #16
 303 0022 8DF80E30 		strb	r3, [sp, #14]
 304 0026 0020     		movs	r0, #0
 305 0028 9DF80C30 		ldrb	r3, [sp, #12]	@ zero_extendqisi2
 306 002c 63F30700 		bfi	r0, r3, #0, #8
 307 0030 9DF80D30 		ldrb	r3, [sp, #13]	@ zero_extendqisi2
 308 0034 63F30F20 		bfi	r0, r3, #8, #8
 309 0038 9DF80E30 		ldrb	r3, [sp, #14]	@ zero_extendqisi2
 310 003c 63F31740 		bfi	r0, r3, #16, #8
 530:Lib/lvgl/src/core/lv_obj_style_gen.h **** }
 311              		.loc 2 530 1 view .LVU43
 312 0040 05B0     		add	sp, sp, #20
 313              	.LCFI14:
 314              		.cfi_def_cfa_offset 12
 315              		@ sp needed
 316 0042 30BD     		pop	{r4, r5, pc}
 317              		.loc 2 530 1 view .LVU44
 318              		.cfi_endproc
 319              	.LFE182:
 321              		.section	.text.lv_obj_get_style_bg_image_recolor_filtered,"ax",%progbits
 322              		.align	1
 323              		.syntax unified
 324              		.thumb
 325              		.thumb_func
 327              	lv_obj_get_style_bg_image_recolor_filtered:
 328              	.LVL15:
 329              	.LFB143:
 288:Lib/lvgl/src/core/lv_obj_style_gen.h ****     lv_style_value_t v = _lv_obj_style_apply_color_filter(obj, part, lv_obj_get_style_prop(obj, par
 330              		.loc 2 288 1 is_stmt 1 view -0
 331              		.cfi_startproc
 332              		@ args = 0, pretend = 0, frame = 16
 333              		@ frame_needed = 0, uses_anonymous_args = 0
 288:Lib/lvgl/src/core/lv_obj_style_gen.h ****     lv_style_value_t v = _lv_obj_style_apply_color_filter(obj, part, lv_obj_get_style_prop(obj, par
 334              		.loc 2 288 1 is_stmt 0 view .LVU46
ARM GAS  C:\Users\Alex\AppData\Local\Temp\cccZpk1s.s 			page 16


 335 0000 30B5     		push	{r4, r5, lr}
 336              	.LCFI15:
 337              		.cfi_def_cfa_offset 12
 338              		.cfi_offset 4, -12
 339              		.cfi_offset 5, -8
 340              		.cfi_offset 14, -4
 341 0002 85B0     		sub	sp, sp, #20
 342              	.LCFI16:
 343              		.cfi_def_cfa_offset 32
 344 0004 0446     		mov	r4, r0
 345 0006 0D46     		mov	r5, r1
 289:Lib/lvgl/src/core/lv_obj_style_gen.h ****                                                                                            LV_STYLE
 346              		.loc 2 289 5 is_stmt 1 view .LVU47
 289:Lib/lvgl/src/core/lv_obj_style_gen.h ****                                                                                            LV_STYLE
 347              		.loc 2 289 26 is_stmt 0 view .LVU48
 348 0008 2A22     		movs	r2, #42
 349 000a FFF7FEFF 		bl	lv_obj_get_style_prop
 350              	.LVL16:
 289:Lib/lvgl/src/core/lv_obj_style_gen.h ****                                                                                            LV_STYLE
 351              		.loc 2 289 26 view .LVU49
 352 000e 0246     		mov	r2, r0
 353 0010 0290     		str	r0, [sp, #8]
 354 0012 2946     		mov	r1, r5
 355 0014 2046     		mov	r0, r4
 356 0016 FFF7FEFF 		bl	_lv_obj_style_apply_color_filter
 357              	.LVL17:
 358 001a 0190     		str	r0, [sp, #4]
 291:Lib/lvgl/src/core/lv_obj_style_gen.h **** }
 359              		.loc 2 291 5 is_stmt 1 view .LVU50
 291:Lib/lvgl/src/core/lv_obj_style_gen.h **** }
 360              		.loc 2 291 13 is_stmt 0 view .LVU51
 361 001c ADF80C00 		strh	r0, [sp, #12]	@ movhi
 362 0020 030C     		lsrs	r3, r0, #16
 363 0022 8DF80E30 		strb	r3, [sp, #14]
 364 0026 0020     		movs	r0, #0
 365 0028 9DF80C30 		ldrb	r3, [sp, #12]	@ zero_extendqisi2
 366 002c 63F30700 		bfi	r0, r3, #0, #8
 367 0030 9DF80D30 		ldrb	r3, [sp, #13]	@ zero_extendqisi2
 368 0034 63F30F20 		bfi	r0, r3, #8, #8
 369 0038 9DF80E30 		ldrb	r3, [sp, #14]	@ zero_extendqisi2
 370 003c 63F31740 		bfi	r0, r3, #16, #8
 292:Lib/lvgl/src/core/lv_obj_style_gen.h **** 
 371              		.loc 2 292 1 view .LVU52
 372 0040 05B0     		add	sp, sp, #20
 373              	.LCFI17:
 374              		.cfi_def_cfa_offset 12
 375              		@ sp needed
 376 0042 30BD     		pop	{r4, r5, pc}
 292:Lib/lvgl/src/core/lv_obj_style_gen.h **** 
 377              		.loc 2 292 1 view .LVU53
 378              		.cfi_endproc
 379              	.LFE143:
 381              		.section	.text.lv_obj_get_style_shadow_color_filtered,"ax",%progbits
 382              		.align	1
 383              		.syntax unified
 384              		.thumb
 385              		.thumb_func
ARM GAS  C:\Users\Alex\AppData\Local\Temp\cccZpk1s.s 			page 17


 387              	lv_obj_get_style_shadow_color_filtered:
 388              	.LVL18:
 389              	.LFB162:
 405:Lib/lvgl/src/core/lv_obj_style_gen.h ****     lv_style_value_t v = _lv_obj_style_apply_color_filter(obj, part, lv_obj_get_style_prop(obj, par
 390              		.loc 2 405 1 is_stmt 1 view -0
 391              		.cfi_startproc
 392              		@ args = 0, pretend = 0, frame = 16
 393              		@ frame_needed = 0, uses_anonymous_args = 0
 405:Lib/lvgl/src/core/lv_obj_style_gen.h ****     lv_style_value_t v = _lv_obj_style_apply_color_filter(obj, part, lv_obj_get_style_prop(obj, par
 394              		.loc 2 405 1 is_stmt 0 view .LVU55
 395 0000 30B5     		push	{r4, r5, lr}
 396              	.LCFI18:
 397              		.cfi_def_cfa_offset 12
 398              		.cfi_offset 4, -12
 399              		.cfi_offset 5, -8
 400              		.cfi_offset 14, -4
 401 0002 85B0     		sub	sp, sp, #20
 402              	.LCFI19:
 403              		.cfi_def_cfa_offset 32
 404 0004 0446     		mov	r4, r0
 405 0006 0D46     		mov	r5, r1
 406:Lib/lvgl/src/core/lv_obj_style_gen.h ****                                                                                            LV_STYLE
 406              		.loc 2 406 5 is_stmt 1 view .LVU56
 406:Lib/lvgl/src/core/lv_obj_style_gen.h ****                                                                                            LV_STYLE
 407              		.loc 2 406 26 is_stmt 0 view .LVU57
 408 0008 3D22     		movs	r2, #61
 409 000a FFF7FEFF 		bl	lv_obj_get_style_prop
 410              	.LVL19:
 406:Lib/lvgl/src/core/lv_obj_style_gen.h ****                                                                                            LV_STYLE
 411              		.loc 2 406 26 view .LVU58
 412 000e 0246     		mov	r2, r0
 413 0010 0290     		str	r0, [sp, #8]
 414 0012 2946     		mov	r1, r5
 415 0014 2046     		mov	r0, r4
 416 0016 FFF7FEFF 		bl	_lv_obj_style_apply_color_filter
 417              	.LVL20:
 418 001a 0190     		str	r0, [sp, #4]
 408:Lib/lvgl/src/core/lv_obj_style_gen.h **** }
 419              		.loc 2 408 5 is_stmt 1 view .LVU59
 408:Lib/lvgl/src/core/lv_obj_style_gen.h **** }
 420              		.loc 2 408 13 is_stmt 0 view .LVU60
 421 001c ADF80C00 		strh	r0, [sp, #12]	@ movhi
 422 0020 030C     		lsrs	r3, r0, #16
 423 0022 8DF80E30 		strb	r3, [sp, #14]
 424 0026 0020     		movs	r0, #0
 425 0028 9DF80C30 		ldrb	r3, [sp, #12]	@ zero_extendqisi2
 426 002c 63F30700 		bfi	r0, r3, #0, #8
 427 0030 9DF80D30 		ldrb	r3, [sp, #13]	@ zero_extendqisi2
 428 0034 63F30F20 		bfi	r0, r3, #8, #8
 429 0038 9DF80E30 		ldrb	r3, [sp, #14]	@ zero_extendqisi2
 430 003c 63F31740 		bfi	r0, r3, #16, #8
 409:Lib/lvgl/src/core/lv_obj_style_gen.h **** 
 431              		.loc 2 409 1 view .LVU61
 432 0040 05B0     		add	sp, sp, #20
 433              	.LCFI20:
 434              		.cfi_def_cfa_offset 12
 435              		@ sp needed
ARM GAS  C:\Users\Alex\AppData\Local\Temp\cccZpk1s.s 			page 18


 436 0042 30BD     		pop	{r4, r5, pc}
 409:Lib/lvgl/src/core/lv_obj_style_gen.h **** 
 437              		.loc 2 409 1 view .LVU62
 438              		.cfi_endproc
 439              	.LFE162:
 441              		.section	.text.lv_obj_get_style_image_recolor_filtered,"ax",%progbits
 442              		.align	1
 443              		.syntax unified
 444              		.thumb
 445              		.thumb_func
 447              	lv_obj_get_style_image_recolor_filtered:
 448              	.LVL21:
 449              	.LFB166:
 430:Lib/lvgl/src/core/lv_obj_style_gen.h ****     lv_style_value_t v = _lv_obj_style_apply_color_filter(obj, part, lv_obj_get_style_prop(obj, par
 450              		.loc 2 430 1 is_stmt 1 view -0
 451              		.cfi_startproc
 452              		@ args = 0, pretend = 0, frame = 16
 453              		@ frame_needed = 0, uses_anonymous_args = 0
 430:Lib/lvgl/src/core/lv_obj_style_gen.h ****     lv_style_value_t v = _lv_obj_style_apply_color_filter(obj, part, lv_obj_get_style_prop(obj, par
 454              		.loc 2 430 1 is_stmt 0 view .LVU64
 455 0000 30B5     		push	{r4, r5, lr}
 456              	.LCFI21:
 457              		.cfi_def_cfa_offset 12
 458              		.cfi_offset 4, -12
 459              		.cfi_offset 5, -8
 460              		.cfi_offset 14, -4
 461 0002 85B0     		sub	sp, sp, #20
 462              	.LCFI22:
 463              		.cfi_def_cfa_offset 32
 464 0004 0446     		mov	r4, r0
 465 0006 0D46     		mov	r5, r1
 431:Lib/lvgl/src/core/lv_obj_style_gen.h ****                                                                                            LV_STYLE
 466              		.loc 2 431 5 is_stmt 1 view .LVU65
 431:Lib/lvgl/src/core/lv_obj_style_gen.h ****                                                                                            LV_STYLE
 467              		.loc 2 431 26 is_stmt 0 view .LVU66
 468 0008 4522     		movs	r2, #69
 469 000a FFF7FEFF 		bl	lv_obj_get_style_prop
 470              	.LVL22:
 431:Lib/lvgl/src/core/lv_obj_style_gen.h ****                                                                                            LV_STYLE
 471              		.loc 2 431 26 view .LVU67
 472 000e 0246     		mov	r2, r0
 473 0010 0290     		str	r0, [sp, #8]
 474 0012 2946     		mov	r1, r5
 475 0014 2046     		mov	r0, r4
 476 0016 FFF7FEFF 		bl	_lv_obj_style_apply_color_filter
 477              	.LVL23:
 478 001a 0190     		str	r0, [sp, #4]
 433:Lib/lvgl/src/core/lv_obj_style_gen.h **** }
 479              		.loc 2 433 5 is_stmt 1 view .LVU68
 433:Lib/lvgl/src/core/lv_obj_style_gen.h **** }
 480              		.loc 2 433 13 is_stmt 0 view .LVU69
 481 001c ADF80C00 		strh	r0, [sp, #12]	@ movhi
 482 0020 030C     		lsrs	r3, r0, #16
 483 0022 8DF80E30 		strb	r3, [sp, #14]
 484 0026 0020     		movs	r0, #0
 485 0028 9DF80C30 		ldrb	r3, [sp, #12]	@ zero_extendqisi2
 486 002c 63F30700 		bfi	r0, r3, #0, #8
ARM GAS  C:\Users\Alex\AppData\Local\Temp\cccZpk1s.s 			page 19


 487 0030 9DF80D30 		ldrb	r3, [sp, #13]	@ zero_extendqisi2
 488 0034 63F30F20 		bfi	r0, r3, #8, #8
 489 0038 9DF80E30 		ldrb	r3, [sp, #14]	@ zero_extendqisi2
 490 003c 63F31740 		bfi	r0, r3, #16, #8
 434:Lib/lvgl/src/core/lv_obj_style_gen.h **** 
 491              		.loc 2 434 1 view .LVU70
 492 0040 05B0     		add	sp, sp, #20
 493              	.LCFI23:
 494              		.cfi_def_cfa_offset 12
 495              		@ sp needed
 496 0042 30BD     		pop	{r4, r5, pc}
 434:Lib/lvgl/src/core/lv_obj_style_gen.h **** 
 497              		.loc 2 434 1 view .LVU71
 498              		.cfi_endproc
 499              	.LFE166:
 501              		.section	.text.lv_obj_get_style_line_color_filtered,"ax",%progbits
 502              		.align	1
 503              		.syntax unified
 504              		.thumb
 505              		.thumb_func
 507              	lv_obj_get_style_line_color_filtered:
 508              	.LVL24:
 509              	.LFB173:
 473:Lib/lvgl/src/core/lv_obj_style_gen.h ****     lv_style_value_t v = _lv_obj_style_apply_color_filter(obj, part, lv_obj_get_style_prop(obj, par
 510              		.loc 2 473 1 is_stmt 1 view -0
 511              		.cfi_startproc
 512              		@ args = 0, pretend = 0, frame = 16
 513              		@ frame_needed = 0, uses_anonymous_args = 0
 473:Lib/lvgl/src/core/lv_obj_style_gen.h ****     lv_style_value_t v = _lv_obj_style_apply_color_filter(obj, part, lv_obj_get_style_prop(obj, par
 514              		.loc 2 473 1 is_stmt 0 view .LVU73
 515 0000 30B5     		push	{r4, r5, lr}
 516              	.LCFI24:
 517              		.cfi_def_cfa_offset 12
 518              		.cfi_offset 4, -12
 519              		.cfi_offset 5, -8
 520              		.cfi_offset 14, -4
 521 0002 85B0     		sub	sp, sp, #20
 522              	.LCFI25:
 523              		.cfi_def_cfa_offset 32
 524 0004 0446     		mov	r4, r0
 525 0006 0D46     		mov	r5, r1
 474:Lib/lvgl/src/core/lv_obj_style_gen.h ****     return v.color;
 526              		.loc 2 474 5 is_stmt 1 view .LVU74
 474:Lib/lvgl/src/core/lv_obj_style_gen.h ****     return v.color;
 527              		.loc 2 474 26 is_stmt 0 view .LVU75
 528 0008 4C22     		movs	r2, #76
 529 000a FFF7FEFF 		bl	lv_obj_get_style_prop
 530              	.LVL25:
 474:Lib/lvgl/src/core/lv_obj_style_gen.h ****     return v.color;
 531              		.loc 2 474 26 view .LVU76
 532 000e 0246     		mov	r2, r0
 533 0010 0290     		str	r0, [sp, #8]
 534 0012 2946     		mov	r1, r5
 535 0014 2046     		mov	r0, r4
 536 0016 FFF7FEFF 		bl	_lv_obj_style_apply_color_filter
 537              	.LVL26:
 538 001a 0190     		str	r0, [sp, #4]
ARM GAS  C:\Users\Alex\AppData\Local\Temp\cccZpk1s.s 			page 20


 475:Lib/lvgl/src/core/lv_obj_style_gen.h **** }
 539              		.loc 2 475 5 is_stmt 1 view .LVU77
 475:Lib/lvgl/src/core/lv_obj_style_gen.h **** }
 540              		.loc 2 475 13 is_stmt 0 view .LVU78
 541 001c ADF80C00 		strh	r0, [sp, #12]	@ movhi
 542 0020 030C     		lsrs	r3, r0, #16
 543 0022 8DF80E30 		strb	r3, [sp, #14]
 544 0026 0020     		movs	r0, #0
 545 0028 9DF80C30 		ldrb	r3, [sp, #12]	@ zero_extendqisi2
 546 002c 63F30700 		bfi	r0, r3, #0, #8
 547 0030 9DF80D30 		ldrb	r3, [sp, #13]	@ zero_extendqisi2
 548 0034 63F30F20 		bfi	r0, r3, #8, #8
 549 0038 9DF80E30 		ldrb	r3, [sp, #14]	@ zero_extendqisi2
 550 003c 63F31740 		bfi	r0, r3, #16, #8
 476:Lib/lvgl/src/core/lv_obj_style_gen.h **** 
 551              		.loc 2 476 1 view .LVU79
 552 0040 05B0     		add	sp, sp, #20
 553              	.LCFI26:
 554              		.cfi_def_cfa_offset 12
 555              		@ sp needed
 556 0042 30BD     		pop	{r4, r5, pc}
 476:Lib/lvgl/src/core/lv_obj_style_gen.h **** 
 557              		.loc 2 476 1 view .LVU80
 558              		.cfi_endproc
 559              	.LFE173:
 561              		.section	.text.lv_obj_get_style_arc_color_filtered,"ax",%progbits
 562              		.align	1
 563              		.syntax unified
 564              		.thumb
 565              		.thumb_func
 567              	lv_obj_get_style_arc_color_filtered:
 568              	.LVL27:
 569              	.LFB178:
 503:Lib/lvgl/src/core/lv_obj_style_gen.h ****     lv_style_value_t v = _lv_obj_style_apply_color_filter(obj, part, lv_obj_get_style_prop(obj, par
 570              		.loc 2 503 1 is_stmt 1 view -0
 571              		.cfi_startproc
 572              		@ args = 0, pretend = 0, frame = 16
 573              		@ frame_needed = 0, uses_anonymous_args = 0
 503:Lib/lvgl/src/core/lv_obj_style_gen.h ****     lv_style_value_t v = _lv_obj_style_apply_color_filter(obj, part, lv_obj_get_style_prop(obj, par
 574              		.loc 2 503 1 is_stmt 0 view .LVU82
 575 0000 30B5     		push	{r4, r5, lr}
 576              	.LCFI27:
 577              		.cfi_def_cfa_offset 12
 578              		.cfi_offset 4, -12
 579              		.cfi_offset 5, -8
 580              		.cfi_offset 14, -4
 581 0002 85B0     		sub	sp, sp, #20
 582              	.LCFI28:
 583              		.cfi_def_cfa_offset 32
 584 0004 0446     		mov	r4, r0
 585 0006 0D46     		mov	r5, r1
 504:Lib/lvgl/src/core/lv_obj_style_gen.h ****     return v.color;
 586              		.loc 2 504 5 is_stmt 1 view .LVU83
 504:Lib/lvgl/src/core/lv_obj_style_gen.h ****     return v.color;
 587              		.loc 2 504 26 is_stmt 0 view .LVU84
 588 0008 5222     		movs	r2, #82
 589 000a FFF7FEFF 		bl	lv_obj_get_style_prop
ARM GAS  C:\Users\Alex\AppData\Local\Temp\cccZpk1s.s 			page 21


 590              	.LVL28:
 504:Lib/lvgl/src/core/lv_obj_style_gen.h ****     return v.color;
 591              		.loc 2 504 26 view .LVU85
 592 000e 0246     		mov	r2, r0
 593 0010 0290     		str	r0, [sp, #8]
 594 0012 2946     		mov	r1, r5
 595 0014 2046     		mov	r0, r4
 596 0016 FFF7FEFF 		bl	_lv_obj_style_apply_color_filter
 597              	.LVL29:
 598 001a 0190     		str	r0, [sp, #4]
 505:Lib/lvgl/src/core/lv_obj_style_gen.h **** }
 599              		.loc 2 505 5 is_stmt 1 view .LVU86
 505:Lib/lvgl/src/core/lv_obj_style_gen.h **** }
 600              		.loc 2 505 13 is_stmt 0 view .LVU87
 601 001c ADF80C00 		strh	r0, [sp, #12]	@ movhi
 602 0020 030C     		lsrs	r3, r0, #16
 603 0022 8DF80E30 		strb	r3, [sp, #14]
 604 0026 0020     		movs	r0, #0
 605 0028 9DF80C30 		ldrb	r3, [sp, #12]	@ zero_extendqisi2
 606 002c 63F30700 		bfi	r0, r3, #0, #8
 607 0030 9DF80D30 		ldrb	r3, [sp, #13]	@ zero_extendqisi2
 608 0034 63F30F20 		bfi	r0, r3, #8, #8
 609 0038 9DF80E30 		ldrb	r3, [sp, #14]	@ zero_extendqisi2
 610 003c 63F31740 		bfi	r0, r3, #16, #8
 506:Lib/lvgl/src/core/lv_obj_style_gen.h **** 
 611              		.loc 2 506 1 view .LVU88
 612 0040 05B0     		add	sp, sp, #20
 613              	.LCFI29:
 614              		.cfi_def_cfa_offset 12
 615              		@ sp needed
 616 0042 30BD     		pop	{r4, r5, pc}
 506:Lib/lvgl/src/core/lv_obj_style_gen.h **** 
 617              		.loc 2 506 1 view .LVU89
 618              		.cfi_endproc
 619              	.LFE178:
 621              		.section	.text.lv_obj_init_draw_rect_dsc,"ax",%progbits
 622              		.align	1
 623              		.global	lv_obj_init_draw_rect_dsc
 624              		.syntax unified
 625              		.thumb
 626              		.thumb_func
 628              	lv_obj_init_draw_rect_dsc:
 629              	.LVL30:
 630              	.LFB233:
   1:Lib/lvgl/src/core/lv_obj_draw.c **** /**
   2:Lib/lvgl/src/core/lv_obj_draw.c ****  * @file lv_obj_draw.c
   3:Lib/lvgl/src/core/lv_obj_draw.c ****  *
   4:Lib/lvgl/src/core/lv_obj_draw.c ****  */
   5:Lib/lvgl/src/core/lv_obj_draw.c **** 
   6:Lib/lvgl/src/core/lv_obj_draw.c **** /*********************
   7:Lib/lvgl/src/core/lv_obj_draw.c ****  *      INCLUDES
   8:Lib/lvgl/src/core/lv_obj_draw.c ****  *********************/
   9:Lib/lvgl/src/core/lv_obj_draw.c **** #include "lv_obj_draw.h"
  10:Lib/lvgl/src/core/lv_obj_draw.c **** #include "lv_obj.h"
  11:Lib/lvgl/src/core/lv_obj_draw.c **** #include "../display/lv_display.h"
  12:Lib/lvgl/src/core/lv_obj_draw.c **** #include "../indev/lv_indev.h"
  13:Lib/lvgl/src/core/lv_obj_draw.c **** #include "../stdlib/lv_string.h"
ARM GAS  C:\Users\Alex\AppData\Local\Temp\cccZpk1s.s 			page 22


  14:Lib/lvgl/src/core/lv_obj_draw.c **** 
  15:Lib/lvgl/src/core/lv_obj_draw.c **** /*********************
  16:Lib/lvgl/src/core/lv_obj_draw.c ****  *      DEFINES
  17:Lib/lvgl/src/core/lv_obj_draw.c ****  *********************/
  18:Lib/lvgl/src/core/lv_obj_draw.c **** #define MY_CLASS &lv_obj_class
  19:Lib/lvgl/src/core/lv_obj_draw.c **** 
  20:Lib/lvgl/src/core/lv_obj_draw.c **** /**********************
  21:Lib/lvgl/src/core/lv_obj_draw.c ****  *      TYPEDEFS
  22:Lib/lvgl/src/core/lv_obj_draw.c ****  **********************/
  23:Lib/lvgl/src/core/lv_obj_draw.c **** 
  24:Lib/lvgl/src/core/lv_obj_draw.c **** /**********************
  25:Lib/lvgl/src/core/lv_obj_draw.c ****  *  STATIC PROTOTYPES
  26:Lib/lvgl/src/core/lv_obj_draw.c ****  **********************/
  27:Lib/lvgl/src/core/lv_obj_draw.c **** 
  28:Lib/lvgl/src/core/lv_obj_draw.c **** /**********************
  29:Lib/lvgl/src/core/lv_obj_draw.c ****  *  STATIC VARIABLES
  30:Lib/lvgl/src/core/lv_obj_draw.c ****  **********************/
  31:Lib/lvgl/src/core/lv_obj_draw.c **** 
  32:Lib/lvgl/src/core/lv_obj_draw.c **** /**********************
  33:Lib/lvgl/src/core/lv_obj_draw.c ****  *      MACROS
  34:Lib/lvgl/src/core/lv_obj_draw.c ****  **********************/
  35:Lib/lvgl/src/core/lv_obj_draw.c **** 
  36:Lib/lvgl/src/core/lv_obj_draw.c **** /**********************
  37:Lib/lvgl/src/core/lv_obj_draw.c ****  *   GLOBAL FUNCTIONS
  38:Lib/lvgl/src/core/lv_obj_draw.c ****  **********************/
  39:Lib/lvgl/src/core/lv_obj_draw.c **** 
  40:Lib/lvgl/src/core/lv_obj_draw.c **** void lv_obj_init_draw_rect_dsc(lv_obj_t * obj, uint32_t part, lv_draw_rect_dsc_t * draw_dsc)
  41:Lib/lvgl/src/core/lv_obj_draw.c **** {
 631              		.loc 1 41 1 is_stmt 1 view -0
 632              		.cfi_startproc
 633              		@ args = 0, pretend = 0, frame = 8
 634              		@ frame_needed = 0, uses_anonymous_args = 0
 635              		.loc 1 41 1 is_stmt 0 view .LVU91
 636 0000 F0B5     		push	{r4, r5, r6, r7, lr}
 637              	.LCFI30:
 638              		.cfi_def_cfa_offset 20
 639              		.cfi_offset 4, -20
 640              		.cfi_offset 5, -16
 641              		.cfi_offset 6, -12
 642              		.cfi_offset 7, -8
 643              		.cfi_offset 14, -4
 644 0002 83B0     		sub	sp, sp, #12
 645              	.LCFI31:
 646              		.cfi_def_cfa_offset 32
 647 0004 0746     		mov	r7, r0
 648 0006 0D46     		mov	r5, r1
 649 0008 1446     		mov	r4, r2
  42:Lib/lvgl/src/core/lv_obj_draw.c ****     draw_dsc->base.obj = obj;
 650              		.loc 1 42 5 is_stmt 1 view .LVU92
 651              		.loc 1 42 24 is_stmt 0 view .LVU93
 652 000a 1060     		str	r0, [r2]
  43:Lib/lvgl/src/core/lv_obj_draw.c ****     draw_dsc->base.part = part;
 653              		.loc 1 43 5 is_stmt 1 view .LVU94
 654              		.loc 1 43 25 is_stmt 0 view .LVU95
 655 000c 5160     		str	r1, [r2, #4]
  44:Lib/lvgl/src/core/lv_obj_draw.c **** 
  45:Lib/lvgl/src/core/lv_obj_draw.c ****     lv_opa_t opa = lv_obj_get_style_opa_recursive(obj, part);
ARM GAS  C:\Users\Alex\AppData\Local\Temp\cccZpk1s.s 			page 23


 656              		.loc 1 45 5 is_stmt 1 view .LVU96
 657              		.loc 1 45 20 is_stmt 0 view .LVU97
 658 000e FFF7FEFF 		bl	lv_obj_get_style_opa_recursive
 659              	.LVL31:
 660              		.loc 1 45 20 view .LVU98
 661 0012 0646     		mov	r6, r0
 662              	.LVL32:
  46:Lib/lvgl/src/core/lv_obj_draw.c ****     if(part != LV_PART_MAIN) {
 663              		.loc 1 46 5 is_stmt 1 view .LVU99
 664              		.loc 1 46 7 is_stmt 0 view .LVU100
 665 0014 0DB1     		cbz	r5, .L22
  47:Lib/lvgl/src/core/lv_obj_draw.c ****         if(opa <= LV_OPA_MIN) {
 666              		.loc 1 47 9 is_stmt 1 view .LVU101
 667              		.loc 1 47 11 is_stmt 0 view .LVU102
 668 0016 0228     		cmp	r0, #2
 669 0018 45D9     		bls	.L32
 670              	.L22:
  48:Lib/lvgl/src/core/lv_obj_draw.c ****             draw_dsc->bg_opa = LV_OPA_TRANSP;
  49:Lib/lvgl/src/core/lv_obj_draw.c ****             draw_dsc->bg_image_opa = LV_OPA_TRANSP;
  50:Lib/lvgl/src/core/lv_obj_draw.c ****             draw_dsc->border_opa = LV_OPA_TRANSP;
  51:Lib/lvgl/src/core/lv_obj_draw.c ****             draw_dsc->outline_opa = LV_OPA_TRANSP;
  52:Lib/lvgl/src/core/lv_obj_draw.c ****             draw_dsc->shadow_opa = LV_OPA_TRANSP;
  53:Lib/lvgl/src/core/lv_obj_draw.c ****             return;
  54:Lib/lvgl/src/core/lv_obj_draw.c ****         }
  55:Lib/lvgl/src/core/lv_obj_draw.c ****     }
  56:Lib/lvgl/src/core/lv_obj_draw.c **** 
  57:Lib/lvgl/src/core/lv_obj_draw.c ****     draw_dsc->radius = lv_obj_get_style_radius(obj, part);
 671              		.loc 1 57 5 is_stmt 1 view .LVU103
 672              	.LVL33:
 673              	.LBB119:
 674              	.LBI119:
 531:Lib/lvgl/src/core/lv_obj_style_gen.h **** 
 532:Lib/lvgl/src/core/lv_obj_style_gen.h **** static inline lv_opa_t lv_obj_get_style_text_opa(const lv_obj_t * obj, uint32_t part)
 533:Lib/lvgl/src/core/lv_obj_style_gen.h **** {
 534:Lib/lvgl/src/core/lv_obj_style_gen.h ****     lv_style_value_t v = lv_obj_get_style_prop(obj, part, LV_STYLE_TEXT_OPA);
 535:Lib/lvgl/src/core/lv_obj_style_gen.h ****     return (lv_opa_t)v.num;
 536:Lib/lvgl/src/core/lv_obj_style_gen.h **** }
 537:Lib/lvgl/src/core/lv_obj_style_gen.h **** 
 538:Lib/lvgl/src/core/lv_obj_style_gen.h **** static inline const lv_font_t * lv_obj_get_style_text_font(const lv_obj_t * obj, uint32_t part)
 539:Lib/lvgl/src/core/lv_obj_style_gen.h **** {
 540:Lib/lvgl/src/core/lv_obj_style_gen.h ****     lv_style_value_t v = lv_obj_get_style_prop(obj, part, LV_STYLE_TEXT_FONT);
 541:Lib/lvgl/src/core/lv_obj_style_gen.h ****     return (const lv_font_t *)v.ptr;
 542:Lib/lvgl/src/core/lv_obj_style_gen.h **** }
 543:Lib/lvgl/src/core/lv_obj_style_gen.h **** 
 544:Lib/lvgl/src/core/lv_obj_style_gen.h **** static inline int32_t lv_obj_get_style_text_letter_space(const lv_obj_t * obj, uint32_t part)
 545:Lib/lvgl/src/core/lv_obj_style_gen.h **** {
 546:Lib/lvgl/src/core/lv_obj_style_gen.h ****     lv_style_value_t v = lv_obj_get_style_prop(obj, part, LV_STYLE_TEXT_LETTER_SPACE);
 547:Lib/lvgl/src/core/lv_obj_style_gen.h ****     return (int32_t)v.num;
 548:Lib/lvgl/src/core/lv_obj_style_gen.h **** }
 549:Lib/lvgl/src/core/lv_obj_style_gen.h **** 
 550:Lib/lvgl/src/core/lv_obj_style_gen.h **** static inline int32_t lv_obj_get_style_text_line_space(const lv_obj_t * obj, uint32_t part)
 551:Lib/lvgl/src/core/lv_obj_style_gen.h **** {
 552:Lib/lvgl/src/core/lv_obj_style_gen.h ****     lv_style_value_t v = lv_obj_get_style_prop(obj, part, LV_STYLE_TEXT_LINE_SPACE);
 553:Lib/lvgl/src/core/lv_obj_style_gen.h ****     return (int32_t)v.num;
 554:Lib/lvgl/src/core/lv_obj_style_gen.h **** }
 555:Lib/lvgl/src/core/lv_obj_style_gen.h **** 
 556:Lib/lvgl/src/core/lv_obj_style_gen.h **** static inline lv_text_decor_t lv_obj_get_style_text_decor(const lv_obj_t * obj, uint32_t part)
ARM GAS  C:\Users\Alex\AppData\Local\Temp\cccZpk1s.s 			page 24


 557:Lib/lvgl/src/core/lv_obj_style_gen.h **** {
 558:Lib/lvgl/src/core/lv_obj_style_gen.h ****     lv_style_value_t v = lv_obj_get_style_prop(obj, part, LV_STYLE_TEXT_DECOR);
 559:Lib/lvgl/src/core/lv_obj_style_gen.h ****     return (lv_text_decor_t)v.num;
 560:Lib/lvgl/src/core/lv_obj_style_gen.h **** }
 561:Lib/lvgl/src/core/lv_obj_style_gen.h **** 
 562:Lib/lvgl/src/core/lv_obj_style_gen.h **** static inline lv_text_align_t lv_obj_get_style_text_align(const lv_obj_t * obj, uint32_t part)
 563:Lib/lvgl/src/core/lv_obj_style_gen.h **** {
 564:Lib/lvgl/src/core/lv_obj_style_gen.h ****     lv_style_value_t v = lv_obj_get_style_prop(obj, part, LV_STYLE_TEXT_ALIGN);
 565:Lib/lvgl/src/core/lv_obj_style_gen.h ****     return (lv_text_align_t)v.num;
 566:Lib/lvgl/src/core/lv_obj_style_gen.h **** }
 567:Lib/lvgl/src/core/lv_obj_style_gen.h **** 
 568:Lib/lvgl/src/core/lv_obj_style_gen.h **** static inline int32_t lv_obj_get_style_radius(const lv_obj_t * obj, uint32_t part)
 675              		.loc 2 568 23 view .LVU104
 676              	.LBB120:
 569:Lib/lvgl/src/core/lv_obj_style_gen.h **** {
 570:Lib/lvgl/src/core/lv_obj_style_gen.h ****     lv_style_value_t v = lv_obj_get_style_prop(obj, part, LV_STYLE_RADIUS);
 677              		.loc 2 570 5 view .LVU105
 678              		.loc 2 570 26 is_stmt 0 view .LVU106
 679 001a 0C22     		movs	r2, #12
 680 001c 2946     		mov	r1, r5
 681 001e 3846     		mov	r0, r7
 682              	.LVL34:
 683              		.loc 2 570 26 view .LVU107
 684 0020 FFF7FEFF 		bl	lv_obj_get_style_prop
 685              	.LVL35:
 686 0024 0190     		str	r0, [sp, #4]
 571:Lib/lvgl/src/core/lv_obj_style_gen.h ****     return (int32_t)v.num;
 687              		.loc 2 571 5 is_stmt 1 view .LVU108
 688              	.LVL36:
 689              		.loc 2 571 5 is_stmt 0 view .LVU109
 690              	.LBE120:
 691              	.LBE119:
 692              		.loc 1 57 22 view .LVU110
 693 0026 E061     		str	r0, [r4, #28]
  58:Lib/lvgl/src/core/lv_obj_draw.c **** 
  59:Lib/lvgl/src/core/lv_obj_draw.c ****     if(draw_dsc->bg_opa != LV_OPA_TRANSP) {
 694              		.loc 1 59 5 is_stmt 1 view .LVU111
 695              		.loc 1 59 16 is_stmt 0 view .LVU112
 696 0028 94F82030 		ldrb	r3, [r4, #32]	@ zero_extendqisi2
 697              		.loc 1 59 7 view .LVU113
 698 002c 002B     		cmp	r3, #0
 699 002e 46D1     		bne	.L33
 700              	.L24:
  60:Lib/lvgl/src/core/lv_obj_draw.c ****         draw_dsc->bg_opa = lv_obj_get_style_bg_opa(obj, part);
  61:Lib/lvgl/src/core/lv_obj_draw.c ****         if(draw_dsc->bg_opa > LV_OPA_MIN) {
  62:Lib/lvgl/src/core/lv_obj_draw.c ****             draw_dsc->bg_color = lv_obj_get_style_bg_color_filtered(obj, part);
  63:Lib/lvgl/src/core/lv_obj_draw.c ****             const lv_grad_dsc_t * grad = lv_obj_get_style_bg_grad(obj, part);
  64:Lib/lvgl/src/core/lv_obj_draw.c ****             if(grad && grad->dir != LV_GRAD_DIR_NONE) {
  65:Lib/lvgl/src/core/lv_obj_draw.c ****                 lv_memcpy(&draw_dsc->bg_grad, grad, sizeof(*grad));
  66:Lib/lvgl/src/core/lv_obj_draw.c ****             }
  67:Lib/lvgl/src/core/lv_obj_draw.c ****             else {
  68:Lib/lvgl/src/core/lv_obj_draw.c ****                 draw_dsc->bg_grad.dir = lv_obj_get_style_bg_grad_dir(obj, part);
  69:Lib/lvgl/src/core/lv_obj_draw.c ****                 if(draw_dsc->bg_grad.dir != LV_GRAD_DIR_NONE) {
  70:Lib/lvgl/src/core/lv_obj_draw.c ****                     draw_dsc->bg_grad.stops[0].color = lv_obj_get_style_bg_color_filtered(obj, part
  71:Lib/lvgl/src/core/lv_obj_draw.c ****                     draw_dsc->bg_grad.stops[1].color = lv_obj_get_style_bg_grad_color_filtered(obj,
  72:Lib/lvgl/src/core/lv_obj_draw.c ****                     draw_dsc->bg_grad.stops[0].frac = lv_obj_get_style_bg_main_stop(obj, part);
  73:Lib/lvgl/src/core/lv_obj_draw.c ****                     draw_dsc->bg_grad.stops[1].frac = lv_obj_get_style_bg_grad_stop(obj, part);
ARM GAS  C:\Users\Alex\AppData\Local\Temp\cccZpk1s.s 			page 25


  74:Lib/lvgl/src/core/lv_obj_draw.c ****                     draw_dsc->bg_grad.stops[0].opa = lv_obj_get_style_bg_main_opa(obj, part);
  75:Lib/lvgl/src/core/lv_obj_draw.c ****                     draw_dsc->bg_grad.stops[1].opa = lv_obj_get_style_bg_grad_opa(obj, part);
  76:Lib/lvgl/src/core/lv_obj_draw.c ****                 }
  77:Lib/lvgl/src/core/lv_obj_draw.c ****             }
  78:Lib/lvgl/src/core/lv_obj_draw.c ****         }
  79:Lib/lvgl/src/core/lv_obj_draw.c ****     }
  80:Lib/lvgl/src/core/lv_obj_draw.c **** 
  81:Lib/lvgl/src/core/lv_obj_draw.c ****     if(draw_dsc->border_opa != LV_OPA_TRANSP) {
 701              		.loc 1 81 5 is_stmt 1 view .LVU114
 702              		.loc 1 81 16 is_stmt 0 view .LVU115
 703 0030 94F84830 		ldrb	r3, [r4, #72]	@ zero_extendqisi2
 704              		.loc 1 81 7 view .LVU116
 705 0034 002B     		cmp	r3, #0
 706 0036 40F0BA80 		bne	.L34
 707              	.L26:
  82:Lib/lvgl/src/core/lv_obj_draw.c ****         draw_dsc->border_width = lv_obj_get_style_border_width(obj, part);
  83:Lib/lvgl/src/core/lv_obj_draw.c ****         if(draw_dsc->border_width) {
  84:Lib/lvgl/src/core/lv_obj_draw.c ****             draw_dsc->border_opa = lv_obj_get_style_border_opa(obj, part);
  85:Lib/lvgl/src/core/lv_obj_draw.c ****             if(draw_dsc->border_opa > LV_OPA_MIN) {
  86:Lib/lvgl/src/core/lv_obj_draw.c ****                 draw_dsc->border_side = lv_obj_get_style_border_side(obj, part);
  87:Lib/lvgl/src/core/lv_obj_draw.c ****                 draw_dsc->border_color = lv_obj_get_style_border_color_filtered(obj, part);
  88:Lib/lvgl/src/core/lv_obj_draw.c ****             }
  89:Lib/lvgl/src/core/lv_obj_draw.c ****         }
  90:Lib/lvgl/src/core/lv_obj_draw.c ****     }
  91:Lib/lvgl/src/core/lv_obj_draw.c **** 
  92:Lib/lvgl/src/core/lv_obj_draw.c ****     if(draw_dsc->outline_opa != LV_OPA_TRANSP) {
 708              		.loc 1 92 5 is_stmt 1 view .LVU117
 709              		.loc 1 92 16 is_stmt 0 view .LVU118
 710 003a 94F85830 		ldrb	r3, [r4, #88]	@ zero_extendqisi2
 711              		.loc 1 92 7 view .LVU119
 712 003e 002B     		cmp	r3, #0
 713 0040 40F0E680 		bne	.L35
 714              	.L27:
  93:Lib/lvgl/src/core/lv_obj_draw.c ****         draw_dsc->outline_width = lv_obj_get_style_outline_width(obj, part);
  94:Lib/lvgl/src/core/lv_obj_draw.c ****         if(draw_dsc->outline_width) {
  95:Lib/lvgl/src/core/lv_obj_draw.c ****             draw_dsc->outline_opa = lv_obj_get_style_outline_opa(obj, part);
  96:Lib/lvgl/src/core/lv_obj_draw.c ****             if(draw_dsc->outline_opa > LV_OPA_MIN) {
  97:Lib/lvgl/src/core/lv_obj_draw.c ****                 draw_dsc->outline_pad = lv_obj_get_style_outline_pad(obj, part);
  98:Lib/lvgl/src/core/lv_obj_draw.c ****                 draw_dsc->outline_color = lv_obj_get_style_outline_color_filtered(obj, part);
  99:Lib/lvgl/src/core/lv_obj_draw.c ****             }
 100:Lib/lvgl/src/core/lv_obj_draw.c ****         }
 101:Lib/lvgl/src/core/lv_obj_draw.c ****     }
 102:Lib/lvgl/src/core/lv_obj_draw.c **** 
 103:Lib/lvgl/src/core/lv_obj_draw.c ****     if(draw_dsc->bg_image_opa != LV_OPA_TRANSP) {
 715              		.loc 1 103 5 is_stmt 1 view .LVU120
 716              		.loc 1 103 16 is_stmt 0 view .LVU121
 717 0044 94F83B30 		ldrb	r3, [r4, #59]	@ zero_extendqisi2
 718              		.loc 1 103 7 view .LVU122
 719 0048 002B     		cmp	r3, #0
 720 004a 40F00D81 		bne	.L36
 721              	.L28:
 104:Lib/lvgl/src/core/lv_obj_draw.c ****         draw_dsc->bg_image_src = lv_obj_get_style_bg_image_src(obj, part);
 105:Lib/lvgl/src/core/lv_obj_draw.c ****         if(draw_dsc->bg_image_src) {
 106:Lib/lvgl/src/core/lv_obj_draw.c ****             draw_dsc->bg_image_opa = lv_obj_get_style_bg_image_opa(obj, part);
 107:Lib/lvgl/src/core/lv_obj_draw.c ****             if(draw_dsc->bg_image_opa > LV_OPA_MIN) {
 108:Lib/lvgl/src/core/lv_obj_draw.c ****                 if(lv_image_src_get_type(draw_dsc->bg_image_src) == LV_IMAGE_SRC_SYMBOL) {
 109:Lib/lvgl/src/core/lv_obj_draw.c ****                     draw_dsc->bg_image_symbol_font = lv_obj_get_style_text_font(obj, part);
ARM GAS  C:\Users\Alex\AppData\Local\Temp\cccZpk1s.s 			page 26


 110:Lib/lvgl/src/core/lv_obj_draw.c ****                     draw_dsc->bg_image_recolor = lv_obj_get_style_text_color_filtered(obj, part);
 111:Lib/lvgl/src/core/lv_obj_draw.c ****                 }
 112:Lib/lvgl/src/core/lv_obj_draw.c ****                 else {
 113:Lib/lvgl/src/core/lv_obj_draw.c ****                     draw_dsc->bg_image_recolor = lv_obj_get_style_bg_image_recolor_filtered(obj, pa
 114:Lib/lvgl/src/core/lv_obj_draw.c ****                     draw_dsc->bg_image_recolor_opa = lv_obj_get_style_bg_image_recolor_opa(obj, par
 115:Lib/lvgl/src/core/lv_obj_draw.c ****                     draw_dsc->bg_image_tiled = lv_obj_get_style_bg_image_tiled(obj, part);
 116:Lib/lvgl/src/core/lv_obj_draw.c ****                 }
 117:Lib/lvgl/src/core/lv_obj_draw.c ****             }
 118:Lib/lvgl/src/core/lv_obj_draw.c ****         }
 119:Lib/lvgl/src/core/lv_obj_draw.c ****     }
 120:Lib/lvgl/src/core/lv_obj_draw.c **** 
 121:Lib/lvgl/src/core/lv_obj_draw.c ****     if(draw_dsc->shadow_opa) {
 722              		.loc 1 121 5 is_stmt 1 view .LVU123
 723              		.loc 1 121 16 is_stmt 0 view .LVU124
 724 004e 94F86C30 		ldrb	r3, [r4, #108]	@ zero_extendqisi2
 725              		.loc 1 121 7 view .LVU125
 726 0052 002B     		cmp	r3, #0
 727 0054 40F05B81 		bne	.L37
 728              	.L30:
 122:Lib/lvgl/src/core/lv_obj_draw.c ****         draw_dsc->shadow_width = lv_obj_get_style_shadow_width(obj, part);
 123:Lib/lvgl/src/core/lv_obj_draw.c ****         if(draw_dsc->shadow_width) {
 124:Lib/lvgl/src/core/lv_obj_draw.c ****             if(draw_dsc->shadow_opa > LV_OPA_MIN) {
 125:Lib/lvgl/src/core/lv_obj_draw.c ****                 draw_dsc->shadow_opa = lv_obj_get_style_shadow_opa(obj, part);
 126:Lib/lvgl/src/core/lv_obj_draw.c ****                 if(draw_dsc->shadow_opa > LV_OPA_MIN) {
 127:Lib/lvgl/src/core/lv_obj_draw.c ****                     draw_dsc->shadow_offset_x = lv_obj_get_style_shadow_offset_x(obj, part);
 128:Lib/lvgl/src/core/lv_obj_draw.c ****                     draw_dsc->shadow_offset_y = lv_obj_get_style_shadow_offset_y(obj, part);
 129:Lib/lvgl/src/core/lv_obj_draw.c ****                     draw_dsc->shadow_spread = lv_obj_get_style_shadow_spread(obj, part);
 130:Lib/lvgl/src/core/lv_obj_draw.c ****                     draw_dsc->shadow_color = lv_obj_get_style_shadow_color_filtered(obj, part);
 131:Lib/lvgl/src/core/lv_obj_draw.c ****                 }
 132:Lib/lvgl/src/core/lv_obj_draw.c ****             }
 133:Lib/lvgl/src/core/lv_obj_draw.c ****         }
 134:Lib/lvgl/src/core/lv_obj_draw.c ****     }
 135:Lib/lvgl/src/core/lv_obj_draw.c **** 
 136:Lib/lvgl/src/core/lv_obj_draw.c ****     if(opa < LV_OPA_MAX) {
 729              		.loc 1 136 5 is_stmt 1 view .LVU126
 730              		.loc 1 136 7 is_stmt 0 view .LVU127
 731 0058 FC2E     		cmp	r6, #252
 732 005a 22D8     		bhi	.L21
 137:Lib/lvgl/src/core/lv_obj_draw.c ****         draw_dsc->bg_opa = LV_OPA_MIX2(draw_dsc->bg_opa, opa);
 733              		.loc 1 137 9 is_stmt 1 view .LVU128
 734              		.loc 1 137 28 is_stmt 0 view .LVU129
 735 005c 94F82030 		ldrb	r3, [r4, #32]	@ zero_extendqisi2
 736 0060 06FB03F3 		mul	r3, r6, r3
 737 0064 1B12     		asrs	r3, r3, #8
 738              		.loc 1 137 26 view .LVU130
 739 0066 84F82030 		strb	r3, [r4, #32]
 138:Lib/lvgl/src/core/lv_obj_draw.c ****         draw_dsc->bg_image_opa = LV_OPA_MIX2(draw_dsc->bg_image_opa, opa);
 740              		.loc 1 138 9 is_stmt 1 view .LVU131
 741              		.loc 1 138 34 is_stmt 0 view .LVU132
 742 006a 94F83B30 		ldrb	r3, [r4, #59]	@ zero_extendqisi2
 743 006e 06FB03F3 		mul	r3, r6, r3
 744 0072 1B12     		asrs	r3, r3, #8
 745              		.loc 1 138 32 view .LVU133
 746 0074 84F83B30 		strb	r3, [r4, #59]
 139:Lib/lvgl/src/core/lv_obj_draw.c ****         draw_dsc->border_opa = LV_OPA_MIX2(draw_dsc->border_opa, opa);
 747              		.loc 1 139 9 is_stmt 1 view .LVU134
 748              		.loc 1 139 32 is_stmt 0 view .LVU135
ARM GAS  C:\Users\Alex\AppData\Local\Temp\cccZpk1s.s 			page 27


 749 0078 94F84830 		ldrb	r3, [r4, #72]	@ zero_extendqisi2
 750 007c 06FB03F3 		mul	r3, r6, r3
 751 0080 1B12     		asrs	r3, r3, #8
 752              		.loc 1 139 30 view .LVU136
 753 0082 84F84830 		strb	r3, [r4, #72]
 140:Lib/lvgl/src/core/lv_obj_draw.c ****         draw_dsc->shadow_opa = LV_OPA_MIX2(draw_dsc->shadow_opa, opa);
 754              		.loc 1 140 9 is_stmt 1 view .LVU137
 755              		.loc 1 140 32 is_stmt 0 view .LVU138
 756 0086 94F86C30 		ldrb	r3, [r4, #108]	@ zero_extendqisi2
 757 008a 06FB03F3 		mul	r3, r6, r3
 758 008e 1B12     		asrs	r3, r3, #8
 759              		.loc 1 140 30 view .LVU139
 760 0090 84F86C30 		strb	r3, [r4, #108]
 141:Lib/lvgl/src/core/lv_obj_draw.c ****         draw_dsc->outline_opa = LV_OPA_MIX2(draw_dsc->outline_opa, opa);
 761              		.loc 1 141 9 is_stmt 1 view .LVU140
 762              		.loc 1 141 33 is_stmt 0 view .LVU141
 763 0094 94F85830 		ldrb	r3, [r4, #88]	@ zero_extendqisi2
 764 0098 03FB06F6 		mul	r6, r3, r6
 765 009c 3612     		asrs	r6, r6, #8
 766              		.loc 1 141 31 view .LVU142
 767 009e 84F85860 		strb	r6, [r4, #88]
 768              	.L21:
 142:Lib/lvgl/src/core/lv_obj_draw.c ****     }
 143:Lib/lvgl/src/core/lv_obj_draw.c **** }
 769              		.loc 1 143 1 view .LVU143
 770 00a2 03B0     		add	sp, sp, #12
 771              	.LCFI32:
 772              		.cfi_remember_state
 773              		.cfi_def_cfa_offset 20
 774              		@ sp needed
 775 00a4 F0BD     		pop	{r4, r5, r6, r7, pc}
 776              	.LVL37:
 777              	.L32:
 778              	.LCFI33:
 779              		.cfi_restore_state
  48:Lib/lvgl/src/core/lv_obj_draw.c ****             draw_dsc->bg_image_opa = LV_OPA_TRANSP;
 780              		.loc 1 48 13 is_stmt 1 view .LVU144
  48:Lib/lvgl/src/core/lv_obj_draw.c ****             draw_dsc->bg_image_opa = LV_OPA_TRANSP;
 781              		.loc 1 48 30 is_stmt 0 view .LVU145
 782 00a6 0023     		movs	r3, #0
 783 00a8 84F82030 		strb	r3, [r4, #32]
  49:Lib/lvgl/src/core/lv_obj_draw.c ****             draw_dsc->border_opa = LV_OPA_TRANSP;
 784              		.loc 1 49 13 is_stmt 1 view .LVU146
  49:Lib/lvgl/src/core/lv_obj_draw.c ****             draw_dsc->border_opa = LV_OPA_TRANSP;
 785              		.loc 1 49 36 is_stmt 0 view .LVU147
 786 00ac 84F83B30 		strb	r3, [r4, #59]
  50:Lib/lvgl/src/core/lv_obj_draw.c ****             draw_dsc->outline_opa = LV_OPA_TRANSP;
 787              		.loc 1 50 13 is_stmt 1 view .LVU148
  50:Lib/lvgl/src/core/lv_obj_draw.c ****             draw_dsc->outline_opa = LV_OPA_TRANSP;
 788              		.loc 1 50 34 is_stmt 0 view .LVU149
 789 00b0 84F84830 		strb	r3, [r4, #72]
  51:Lib/lvgl/src/core/lv_obj_draw.c ****             draw_dsc->shadow_opa = LV_OPA_TRANSP;
 790              		.loc 1 51 13 is_stmt 1 view .LVU150
  51:Lib/lvgl/src/core/lv_obj_draw.c ****             draw_dsc->shadow_opa = LV_OPA_TRANSP;
 791              		.loc 1 51 35 is_stmt 0 view .LVU151
 792 00b4 84F85830 		strb	r3, [r4, #88]
  52:Lib/lvgl/src/core/lv_obj_draw.c ****             return;
ARM GAS  C:\Users\Alex\AppData\Local\Temp\cccZpk1s.s 			page 28


 793              		.loc 1 52 13 is_stmt 1 view .LVU152
  52:Lib/lvgl/src/core/lv_obj_draw.c ****             return;
 794              		.loc 1 52 34 is_stmt 0 view .LVU153
 795 00b8 84F86C30 		strb	r3, [r4, #108]
  53:Lib/lvgl/src/core/lv_obj_draw.c ****         }
 796              		.loc 1 53 13 is_stmt 1 view .LVU154
 797 00bc F1E7     		b	.L21
 798              	.LVL38:
 799              	.L33:
  60:Lib/lvgl/src/core/lv_obj_draw.c ****         if(draw_dsc->bg_opa > LV_OPA_MIN) {
 800              		.loc 1 60 9 view .LVU155
 801              	.LBB121:
 802              	.LBI121:
 214:Lib/lvgl/src/core/lv_obj_style_gen.h **** {
 803              		.loc 2 214 24 view .LVU156
 804              	.LBB122:
 216:Lib/lvgl/src/core/lv_obj_style_gen.h ****     return (lv_opa_t)v.num;
 805              		.loc 2 216 5 view .LVU157
 216:Lib/lvgl/src/core/lv_obj_style_gen.h ****     return (lv_opa_t)v.num;
 806              		.loc 2 216 26 is_stmt 0 view .LVU158
 807 00be 1D22     		movs	r2, #29
 808 00c0 2946     		mov	r1, r5
 809 00c2 3846     		mov	r0, r7
 810 00c4 FFF7FEFF 		bl	lv_obj_get_style_prop
 811              	.LVL39:
 812 00c8 0190     		str	r0, [sp, #4]
 217:Lib/lvgl/src/core/lv_obj_style_gen.h **** }
 813              		.loc 2 217 5 is_stmt 1 view .LVU159
 217:Lib/lvgl/src/core/lv_obj_style_gen.h **** }
 814              		.loc 2 217 12 is_stmt 0 view .LVU160
 815 00ca C0B2     		uxtb	r0, r0
 816              	.LVL40:
 217:Lib/lvgl/src/core/lv_obj_style_gen.h **** }
 817              		.loc 2 217 12 view .LVU161
 818              	.LBE122:
 819              	.LBE121:
  60:Lib/lvgl/src/core/lv_obj_draw.c ****         if(draw_dsc->bg_opa > LV_OPA_MIN) {
 820              		.loc 1 60 26 view .LVU162
 821 00cc 84F82000 		strb	r0, [r4, #32]
  61:Lib/lvgl/src/core/lv_obj_draw.c ****             draw_dsc->bg_color = lv_obj_get_style_bg_color_filtered(obj, part);
 822              		.loc 1 61 9 is_stmt 1 view .LVU163
  61:Lib/lvgl/src/core/lv_obj_draw.c ****             draw_dsc->bg_color = lv_obj_get_style_bg_color_filtered(obj, part);
 823              		.loc 1 61 11 is_stmt 0 view .LVU164
 824 00d0 0228     		cmp	r0, #2
 825 00d2 ADD9     		bls	.L24
 826              	.LBB123:
  62:Lib/lvgl/src/core/lv_obj_draw.c ****             const lv_grad_dsc_t * grad = lv_obj_get_style_bg_grad(obj, part);
 827              		.loc 1 62 13 is_stmt 1 view .LVU165
  62:Lib/lvgl/src/core/lv_obj_draw.c ****             const lv_grad_dsc_t * grad = lv_obj_get_style_bg_grad(obj, part);
 828              		.loc 1 62 34 is_stmt 0 view .LVU166
 829 00d4 2946     		mov	r1, r5
 830 00d6 3846     		mov	r0, r7
 831 00d8 FFF7FEFF 		bl	lv_obj_get_style_bg_color_filtered
 832              	.LVL41:
 833 00dc 84F82100 		strb	r0, [r4, #33]
 834 00e0 C0F30723 		ubfx	r3, r0, #8, #8
 835 00e4 84F82230 		strb	r3, [r4, #34]
ARM GAS  C:\Users\Alex\AppData\Local\Temp\cccZpk1s.s 			page 29


 836 00e8 C0F30740 		ubfx	r0, r0, #16, #8
 837 00ec 84F82300 		strb	r0, [r4, #35]
  63:Lib/lvgl/src/core/lv_obj_draw.c ****             if(grad && grad->dir != LV_GRAD_DIR_NONE) {
 838              		.loc 1 63 13 is_stmt 1 view .LVU167
 839              	.LVL42:
 840              	.LBB124:
 841              	.LBI124:
 263:Lib/lvgl/src/core/lv_obj_style_gen.h **** {
 842              		.loc 2 263 37 view .LVU168
 843              	.LBB125:
 265:Lib/lvgl/src/core/lv_obj_style_gen.h ****     return (const lv_grad_dsc_t *)v.ptr;
 844              		.loc 2 265 5 view .LVU169
 265:Lib/lvgl/src/core/lv_obj_style_gen.h ****     return (const lv_grad_dsc_t *)v.ptr;
 845              		.loc 2 265 26 is_stmt 0 view .LVU170
 846 00f0 2622     		movs	r2, #38
 847 00f2 2946     		mov	r1, r5
 848 00f4 3846     		mov	r0, r7
 849 00f6 FFF7FEFF 		bl	lv_obj_get_style_prop
 850              	.LVL43:
 851 00fa 0190     		str	r0, [sp, #4]
 266:Lib/lvgl/src/core/lv_obj_style_gen.h **** }
 852              		.loc 2 266 5 is_stmt 1 view .LVU171
 853              	.LVL44:
 266:Lib/lvgl/src/core/lv_obj_style_gen.h **** }
 854              		.loc 2 266 5 is_stmt 0 view .LVU172
 855              	.LBE125:
 856              	.LBE124:
  64:Lib/lvgl/src/core/lv_obj_draw.c ****                 lv_memcpy(&draw_dsc->bg_grad, grad, sizeof(*grad));
 857              		.loc 1 64 13 is_stmt 1 view .LVU173
  64:Lib/lvgl/src/core/lv_obj_draw.c ****                 lv_memcpy(&draw_dsc->bg_grad, grad, sizeof(*grad));
 858              		.loc 1 64 15 is_stmt 0 view .LVU174
 859 00fc 18B1     		cbz	r0, .L25
  64:Lib/lvgl/src/core/lv_obj_draw.c ****                 lv_memcpy(&draw_dsc->bg_grad, grad, sizeof(*grad));
 860              		.loc 1 64 34 discriminator 1 view .LVU175
 861 00fe C37A     		ldrb	r3, [r0, #11]	@ zero_extendqisi2
  64:Lib/lvgl/src/core/lv_obj_draw.c ****                 lv_memcpy(&draw_dsc->bg_grad, grad, sizeof(*grad));
 862              		.loc 1 64 21 discriminator 1 view .LVU176
 863 0100 13F0070F 		tst	r3, #7
 864 0104 4CD1     		bne	.L38
 865              	.L25:
  68:Lib/lvgl/src/core/lv_obj_draw.c ****                 if(draw_dsc->bg_grad.dir != LV_GRAD_DIR_NONE) {
 866              		.loc 1 68 17 is_stmt 1 view .LVU177
 867              	.LVL45:
 868              	.LBB126:
 869              	.LBI126:
 233:Lib/lvgl/src/core/lv_obj_style_gen.h **** {
 870              		.loc 2 233 29 view .LVU178
 871              	.LBB127:
 235:Lib/lvgl/src/core/lv_obj_style_gen.h ****     return (lv_grad_dir_t)v.num;
 872              		.loc 2 235 5 view .LVU179
 235:Lib/lvgl/src/core/lv_obj_style_gen.h ****     return (lv_grad_dir_t)v.num;
 873              		.loc 2 235 26 is_stmt 0 view .LVU180
 874 0106 2022     		movs	r2, #32
 875 0108 2946     		mov	r1, r5
 876 010a 3846     		mov	r0, r7
 877              	.LVL46:
 235:Lib/lvgl/src/core/lv_obj_style_gen.h ****     return (lv_grad_dir_t)v.num;
ARM GAS  C:\Users\Alex\AppData\Local\Temp\cccZpk1s.s 			page 30


 878              		.loc 2 235 26 view .LVU181
 879 010c FFF7FEFF 		bl	lv_obj_get_style_prop
 880              	.LVL47:
 235:Lib/lvgl/src/core/lv_obj_style_gen.h ****     return (lv_grad_dir_t)v.num;
 881              		.loc 2 235 26 view .LVU182
 882 0110 0190     		str	r0, [sp, #4]
 236:Lib/lvgl/src/core/lv_obj_style_gen.h **** }
 883              		.loc 2 236 5 is_stmt 1 view .LVU183
 884              	.LVL48:
 236:Lib/lvgl/src/core/lv_obj_style_gen.h **** }
 885              		.loc 2 236 5 is_stmt 0 view .LVU184
 886              	.LBE127:
 887              	.LBE126:
  68:Lib/lvgl/src/core/lv_obj_draw.c ****                 if(draw_dsc->bg_grad.dir != LV_GRAD_DIR_NONE) {
 888              		.loc 1 68 39 view .LVU185
 889 0112 94F82F30 		ldrb	r3, [r4, #47]	@ zero_extendqisi2
 890 0116 60F30203 		bfi	r3, r0, #0, #3
 891 011a 84F82F30 		strb	r3, [r4, #47]
  69:Lib/lvgl/src/core/lv_obj_draw.c ****                     draw_dsc->bg_grad.stops[0].color = lv_obj_get_style_bg_color_filtered(obj, part
 892              		.loc 1 69 17 is_stmt 1 view .LVU186
  69:Lib/lvgl/src/core/lv_obj_draw.c ****                     draw_dsc->bg_grad.stops[0].color = lv_obj_get_style_bg_color_filtered(obj, part
 893              		.loc 1 69 42 is_stmt 0 view .LVU187
 894 011e DBB2     		uxtb	r3, r3
  69:Lib/lvgl/src/core/lv_obj_draw.c ****                     draw_dsc->bg_grad.stops[0].color = lv_obj_get_style_bg_color_filtered(obj, part
 895              		.loc 1 69 19 view .LVU188
 896 0120 13F0070F 		tst	r3, #7
 897 0124 84D0     		beq	.L24
  70:Lib/lvgl/src/core/lv_obj_draw.c ****                     draw_dsc->bg_grad.stops[1].color = lv_obj_get_style_bg_grad_color_filtered(obj,
 898              		.loc 1 70 21 is_stmt 1 view .LVU189
  70:Lib/lvgl/src/core/lv_obj_draw.c ****                     draw_dsc->bg_grad.stops[1].color = lv_obj_get_style_bg_grad_color_filtered(obj,
 899              		.loc 1 70 56 is_stmt 0 view .LVU190
 900 0126 2946     		mov	r1, r5
 901 0128 3846     		mov	r0, r7
 902 012a FFF7FEFF 		bl	lv_obj_get_style_bg_color_filtered
 903              	.LVL49:
 904 012e 84F82400 		strb	r0, [r4, #36]
 905 0132 C0F30723 		ubfx	r3, r0, #8, #8
 906 0136 84F82530 		strb	r3, [r4, #37]
 907 013a C0F30740 		ubfx	r0, r0, #16, #8
 908 013e 84F82600 		strb	r0, [r4, #38]
  71:Lib/lvgl/src/core/lv_obj_draw.c ****                     draw_dsc->bg_grad.stops[0].frac = lv_obj_get_style_bg_main_stop(obj, part);
 909              		.loc 1 71 21 is_stmt 1 view .LVU191
  71:Lib/lvgl/src/core/lv_obj_draw.c ****                     draw_dsc->bg_grad.stops[0].frac = lv_obj_get_style_bg_main_stop(obj, part);
 910              		.loc 1 71 56 is_stmt 0 view .LVU192
 911 0142 2946     		mov	r1, r5
 912 0144 3846     		mov	r0, r7
 913 0146 FFF7FEFF 		bl	lv_obj_get_style_bg_grad_color_filtered
 914              	.LVL50:
 915 014a 84F82900 		strb	r0, [r4, #41]
 916 014e C0F30723 		ubfx	r3, r0, #8, #8
 917 0152 84F82A30 		strb	r3, [r4, #42]
 918 0156 C0F30740 		ubfx	r0, r0, #16, #8
 919 015a 84F82B00 		strb	r0, [r4, #43]
  72:Lib/lvgl/src/core/lv_obj_draw.c ****                     draw_dsc->bg_grad.stops[1].frac = lv_obj_get_style_bg_grad_stop(obj, part);
 920              		.loc 1 72 21 is_stmt 1 view .LVU193
 921              	.LVL51:
 922              	.LBB128:
ARM GAS  C:\Users\Alex\AppData\Local\Temp\cccZpk1s.s 			page 31


 923              	.LBI128:
 239:Lib/lvgl/src/core/lv_obj_style_gen.h **** {
 924              		.loc 2 239 23 view .LVU194
 925              	.LBB129:
 241:Lib/lvgl/src/core/lv_obj_style_gen.h ****     return (int32_t)v.num;
 926              		.loc 2 241 5 view .LVU195
 241:Lib/lvgl/src/core/lv_obj_style_gen.h ****     return (int32_t)v.num;
 927              		.loc 2 241 26 is_stmt 0 view .LVU196
 928 015e 2122     		movs	r2, #33
 929 0160 2946     		mov	r1, r5
 930 0162 3846     		mov	r0, r7
 931 0164 FFF7FEFF 		bl	lv_obj_get_style_prop
 932              	.LVL52:
 933 0168 0190     		str	r0, [sp, #4]
 242:Lib/lvgl/src/core/lv_obj_style_gen.h **** }
 934              		.loc 2 242 5 is_stmt 1 view .LVU197
 935              	.LVL53:
 242:Lib/lvgl/src/core/lv_obj_style_gen.h **** }
 936              		.loc 2 242 5 is_stmt 0 view .LVU198
 937              	.LBE129:
 938              	.LBE128:
  72:Lib/lvgl/src/core/lv_obj_draw.c ****                     draw_dsc->bg_grad.stops[1].frac = lv_obj_get_style_bg_grad_stop(obj, part);
 939              		.loc 1 72 53 view .LVU199
 940 016a 84F82800 		strb	r0, [r4, #40]
  73:Lib/lvgl/src/core/lv_obj_draw.c ****                     draw_dsc->bg_grad.stops[0].opa = lv_obj_get_style_bg_main_opa(obj, part);
 941              		.loc 1 73 21 is_stmt 1 view .LVU200
 942              	.LVL54:
 943              	.LBB130:
 944              	.LBI130:
 245:Lib/lvgl/src/core/lv_obj_style_gen.h **** {
 945              		.loc 2 245 23 view .LVU201
 946              	.LBB131:
 247:Lib/lvgl/src/core/lv_obj_style_gen.h ****     return (int32_t)v.num;
 947              		.loc 2 247 5 view .LVU202
 247:Lib/lvgl/src/core/lv_obj_style_gen.h ****     return (int32_t)v.num;
 948              		.loc 2 247 26 is_stmt 0 view .LVU203
 949 016e 2222     		movs	r2, #34
 950 0170 2946     		mov	r1, r5
 951 0172 3846     		mov	r0, r7
 952 0174 FFF7FEFF 		bl	lv_obj_get_style_prop
 953              	.LVL55:
 954 0178 0190     		str	r0, [sp, #4]
 248:Lib/lvgl/src/core/lv_obj_style_gen.h **** }
 955              		.loc 2 248 5 is_stmt 1 view .LVU204
 956              	.LVL56:
 248:Lib/lvgl/src/core/lv_obj_style_gen.h **** }
 957              		.loc 2 248 5 is_stmt 0 view .LVU205
 958              	.LBE131:
 959              	.LBE130:
  73:Lib/lvgl/src/core/lv_obj_draw.c ****                     draw_dsc->bg_grad.stops[0].opa = lv_obj_get_style_bg_main_opa(obj, part);
 960              		.loc 1 73 53 view .LVU206
 961 017a 84F82D00 		strb	r0, [r4, #45]
  74:Lib/lvgl/src/core/lv_obj_draw.c ****                     draw_dsc->bg_grad.stops[1].opa = lv_obj_get_style_bg_grad_opa(obj, part);
 962              		.loc 1 74 21 is_stmt 1 view .LVU207
 963              	.LVL57:
 964              	.LBB132:
 965              	.LBI132:
ARM GAS  C:\Users\Alex\AppData\Local\Temp\cccZpk1s.s 			page 32


 251:Lib/lvgl/src/core/lv_obj_style_gen.h **** {
 966              		.loc 2 251 24 view .LVU208
 967              	.LBB133:
 253:Lib/lvgl/src/core/lv_obj_style_gen.h ****     return (lv_opa_t)v.num;
 968              		.loc 2 253 5 view .LVU209
 253:Lib/lvgl/src/core/lv_obj_style_gen.h ****     return (lv_opa_t)v.num;
 969              		.loc 2 253 26 is_stmt 0 view .LVU210
 970 017e 2422     		movs	r2, #36
 971 0180 2946     		mov	r1, r5
 972 0182 3846     		mov	r0, r7
 973 0184 FFF7FEFF 		bl	lv_obj_get_style_prop
 974              	.LVL58:
 975 0188 0190     		str	r0, [sp, #4]
 254:Lib/lvgl/src/core/lv_obj_style_gen.h **** }
 976              		.loc 2 254 5 is_stmt 1 view .LVU211
 977              	.LVL59:
 254:Lib/lvgl/src/core/lv_obj_style_gen.h **** }
 978              		.loc 2 254 5 is_stmt 0 view .LVU212
 979              	.LBE133:
 980              	.LBE132:
  74:Lib/lvgl/src/core/lv_obj_draw.c ****                     draw_dsc->bg_grad.stops[1].opa = lv_obj_get_style_bg_grad_opa(obj, part);
 981              		.loc 1 74 52 view .LVU213
 982 018a 84F82700 		strb	r0, [r4, #39]
  75:Lib/lvgl/src/core/lv_obj_draw.c ****                 }
 983              		.loc 1 75 21 is_stmt 1 view .LVU214
 984              	.LVL60:
 985              	.LBB134:
 986              	.LBI134:
 257:Lib/lvgl/src/core/lv_obj_style_gen.h **** {
 987              		.loc 2 257 24 view .LVU215
 988              	.LBB135:
 259:Lib/lvgl/src/core/lv_obj_style_gen.h ****     return (lv_opa_t)v.num;
 989              		.loc 2 259 5 view .LVU216
 259:Lib/lvgl/src/core/lv_obj_style_gen.h ****     return (lv_opa_t)v.num;
 990              		.loc 2 259 26 is_stmt 0 view .LVU217
 991 018e 2522     		movs	r2, #37
 992 0190 2946     		mov	r1, r5
 993 0192 3846     		mov	r0, r7
 994 0194 FFF7FEFF 		bl	lv_obj_get_style_prop
 995              	.LVL61:
 996 0198 0190     		str	r0, [sp, #4]
 260:Lib/lvgl/src/core/lv_obj_style_gen.h **** }
 997              		.loc 2 260 5 is_stmt 1 view .LVU218
 998              	.LVL62:
 260:Lib/lvgl/src/core/lv_obj_style_gen.h **** }
 999              		.loc 2 260 5 is_stmt 0 view .LVU219
 1000              	.LBE135:
 1001              	.LBE134:
  75:Lib/lvgl/src/core/lv_obj_draw.c ****                 }
 1002              		.loc 1 75 52 view .LVU220
 1003 019a 84F82C00 		strb	r0, [r4, #44]
 1004 019e 47E7     		b	.L24
 1005              	.LVL63:
 1006              	.L38:
  65:Lib/lvgl/src/core/lv_obj_draw.c ****             }
 1007              		.loc 1 65 17 is_stmt 1 view .LVU221
 1008 01a0 0C22     		movs	r2, #12
ARM GAS  C:\Users\Alex\AppData\Local\Temp\cccZpk1s.s 			page 33


 1009 01a2 0146     		mov	r1, r0
 1010 01a4 04F12400 		add	r0, r4, #36
 1011              	.LVL64:
  65:Lib/lvgl/src/core/lv_obj_draw.c ****             }
 1012              		.loc 1 65 17 is_stmt 0 view .LVU222
 1013 01a8 FFF7FEFF 		bl	lv_memcpy
 1014              	.LVL65:
  65:Lib/lvgl/src/core/lv_obj_draw.c ****             }
 1015              		.loc 1 65 17 view .LVU223
 1016 01ac 40E7     		b	.L24
 1017              	.LVL66:
 1018              	.L34:
  65:Lib/lvgl/src/core/lv_obj_draw.c ****             }
 1019              		.loc 1 65 17 view .LVU224
 1020              	.LBE123:
  82:Lib/lvgl/src/core/lv_obj_draw.c ****         if(draw_dsc->border_width) {
 1021              		.loc 1 82 9 is_stmt 1 view .LVU225
 1022              	.LBB136:
 1023              	.LBI136:
 325:Lib/lvgl/src/core/lv_obj_style_gen.h **** {
 1024              		.loc 2 325 23 view .LVU226
 1025              	.LBB137:
 327:Lib/lvgl/src/core/lv_obj_style_gen.h ****     return (int32_t)v.num;
 1026              		.loc 2 327 5 view .LVU227
 327:Lib/lvgl/src/core/lv_obj_style_gen.h ****     return (int32_t)v.num;
 1027              		.loc 2 327 26 is_stmt 0 view .LVU228
 1028 01ae 3022     		movs	r2, #48
 1029 01b0 2946     		mov	r1, r5
 1030 01b2 3846     		mov	r0, r7
 1031 01b4 FFF7FEFF 		bl	lv_obj_get_style_prop
 1032              	.LVL67:
 1033 01b8 0190     		str	r0, [sp, #4]
 328:Lib/lvgl/src/core/lv_obj_style_gen.h **** }
 1034              		.loc 2 328 5 is_stmt 1 view .LVU229
 1035              	.LVL68:
 328:Lib/lvgl/src/core/lv_obj_style_gen.h **** }
 1036              		.loc 2 328 5 is_stmt 0 view .LVU230
 1037              	.LBE137:
 1038              	.LBE136:
  82:Lib/lvgl/src/core/lv_obj_draw.c ****         if(draw_dsc->border_width) {
 1039              		.loc 1 82 32 view .LVU231
 1040 01ba 6064     		str	r0, [r4, #68]
  83:Lib/lvgl/src/core/lv_obj_draw.c ****             draw_dsc->border_opa = lv_obj_get_style_border_opa(obj, part);
 1041              		.loc 1 83 9 is_stmt 1 view .LVU232
  83:Lib/lvgl/src/core/lv_obj_draw.c ****             draw_dsc->border_opa = lv_obj_get_style_border_opa(obj, part);
 1042              		.loc 1 83 11 is_stmt 0 view .LVU233
 1043 01bc 0028     		cmp	r0, #0
 1044 01be 3FF43CAF 		beq	.L26
  84:Lib/lvgl/src/core/lv_obj_draw.c ****             if(draw_dsc->border_opa > LV_OPA_MIN) {
 1045              		.loc 1 84 13 is_stmt 1 view .LVU234
 1046              	.LVL69:
 1047              	.LBB138:
 1048              	.LBI138:
 319:Lib/lvgl/src/core/lv_obj_style_gen.h **** {
 1049              		.loc 2 319 24 view .LVU235
 1050              	.LBB139:
 321:Lib/lvgl/src/core/lv_obj_style_gen.h ****     return (lv_opa_t)v.num;
ARM GAS  C:\Users\Alex\AppData\Local\Temp\cccZpk1s.s 			page 34


 1051              		.loc 2 321 5 view .LVU236
 321:Lib/lvgl/src/core/lv_obj_style_gen.h ****     return (lv_opa_t)v.num;
 1052              		.loc 2 321 26 is_stmt 0 view .LVU237
 1053 01c2 3222     		movs	r2, #50
 1054 01c4 2946     		mov	r1, r5
 1055 01c6 3846     		mov	r0, r7
 1056 01c8 FFF7FEFF 		bl	lv_obj_get_style_prop
 1057              	.LVL70:
 1058 01cc 0190     		str	r0, [sp, #4]
 322:Lib/lvgl/src/core/lv_obj_style_gen.h **** }
 1059              		.loc 2 322 5 is_stmt 1 view .LVU238
 322:Lib/lvgl/src/core/lv_obj_style_gen.h **** }
 1060              		.loc 2 322 12 is_stmt 0 view .LVU239
 1061 01ce C0B2     		uxtb	r0, r0
 1062              	.LVL71:
 322:Lib/lvgl/src/core/lv_obj_style_gen.h **** }
 1063              		.loc 2 322 12 view .LVU240
 1064              	.LBE139:
 1065              	.LBE138:
  84:Lib/lvgl/src/core/lv_obj_draw.c ****             if(draw_dsc->border_opa > LV_OPA_MIN) {
 1066              		.loc 1 84 34 view .LVU241
 1067 01d0 84F84800 		strb	r0, [r4, #72]
  85:Lib/lvgl/src/core/lv_obj_draw.c ****                 draw_dsc->border_side = lv_obj_get_style_border_side(obj, part);
 1068              		.loc 1 85 13 is_stmt 1 view .LVU242
  85:Lib/lvgl/src/core/lv_obj_draw.c ****                 draw_dsc->border_side = lv_obj_get_style_border_side(obj, part);
 1069              		.loc 1 85 15 is_stmt 0 view .LVU243
 1070 01d4 0228     		cmp	r0, #2
 1071 01d6 7FF630AF 		bls	.L26
  86:Lib/lvgl/src/core/lv_obj_draw.c ****                 draw_dsc->border_color = lv_obj_get_style_border_color_filtered(obj, part);
 1072              		.loc 1 86 17 is_stmt 1 view .LVU244
 1073              	.LVL72:
 1074              	.LBB140:
 1075              	.LBI140:
 331:Lib/lvgl/src/core/lv_obj_style_gen.h **** {
 1076              		.loc 2 331 32 view .LVU245
 1077              	.LBB141:
 333:Lib/lvgl/src/core/lv_obj_style_gen.h ****     return (lv_border_side_t)v.num;
 1078              		.loc 2 333 5 view .LVU246
 333:Lib/lvgl/src/core/lv_obj_style_gen.h ****     return (lv_border_side_t)v.num;
 1079              		.loc 2 333 26 is_stmt 0 view .LVU247
 1080 01da 3422     		movs	r2, #52
 1081 01dc 2946     		mov	r1, r5
 1082 01de 3846     		mov	r0, r7
 1083 01e0 FFF7FEFF 		bl	lv_obj_get_style_prop
 1084              	.LVL73:
 1085 01e4 0190     		str	r0, [sp, #4]
 334:Lib/lvgl/src/core/lv_obj_style_gen.h **** }
 1086              		.loc 2 334 5 is_stmt 1 view .LVU248
 1087              	.LVL74:
 334:Lib/lvgl/src/core/lv_obj_style_gen.h **** }
 1088              		.loc 2 334 5 is_stmt 0 view .LVU249
 1089              	.LBE141:
 1090              	.LBE140:
  86:Lib/lvgl/src/core/lv_obj_draw.c ****                 draw_dsc->border_color = lv_obj_get_style_border_color_filtered(obj, part);
 1091              		.loc 1 86 39 view .LVU250
 1092 01e6 94F84930 		ldrb	r3, [r4, #73]	@ zero_extendqisi2
 1093 01ea 60F30403 		bfi	r3, r0, #0, #5
ARM GAS  C:\Users\Alex\AppData\Local\Temp\cccZpk1s.s 			page 35


 1094 01ee 84F84930 		strb	r3, [r4, #73]
  87:Lib/lvgl/src/core/lv_obj_draw.c ****             }
 1095              		.loc 1 87 17 is_stmt 1 view .LVU251
  87:Lib/lvgl/src/core/lv_obj_draw.c ****             }
 1096              		.loc 1 87 42 is_stmt 0 view .LVU252
 1097 01f2 2946     		mov	r1, r5
 1098 01f4 3846     		mov	r0, r7
 1099 01f6 FFF7FEFF 		bl	lv_obj_get_style_border_color_filtered
 1100              	.LVL75:
 1101 01fa 84F83E00 		strb	r0, [r4, #62]
 1102 01fe C0F30723 		ubfx	r3, r0, #8, #8
 1103 0202 84F83F30 		strb	r3, [r4, #63]
 1104 0206 C0F30740 		ubfx	r0, r0, #16, #8
 1105 020a 84F84000 		strb	r0, [r4, #64]
 1106 020e 14E7     		b	.L26
 1107              	.L35:
  93:Lib/lvgl/src/core/lv_obj_draw.c ****         if(draw_dsc->outline_width) {
 1108              		.loc 1 93 9 is_stmt 1 view .LVU253
 1109              	.LVL76:
 1110              	.LBB142:
 1111              	.LBI142:
 343:Lib/lvgl/src/core/lv_obj_style_gen.h **** {
 1112              		.loc 2 343 23 view .LVU254
 1113              	.LBB143:
 345:Lib/lvgl/src/core/lv_obj_style_gen.h ****     return (int32_t)v.num;
 1114              		.loc 2 345 5 view .LVU255
 345:Lib/lvgl/src/core/lv_obj_style_gen.h ****     return (int32_t)v.num;
 1115              		.loc 2 345 26 is_stmt 0 view .LVU256
 1116 0210 3822     		movs	r2, #56
 1117 0212 2946     		mov	r1, r5
 1118 0214 3846     		mov	r0, r7
 1119 0216 FFF7FEFF 		bl	lv_obj_get_style_prop
 1120              	.LVL77:
 1121 021a 0190     		str	r0, [sp, #4]
 346:Lib/lvgl/src/core/lv_obj_style_gen.h **** }
 1122              		.loc 2 346 5 is_stmt 1 view .LVU257
 1123              	.LVL78:
 346:Lib/lvgl/src/core/lv_obj_style_gen.h **** }
 1124              		.loc 2 346 5 is_stmt 0 view .LVU258
 1125              	.LBE143:
 1126              	.LBE142:
  93:Lib/lvgl/src/core/lv_obj_draw.c ****         if(draw_dsc->outline_width) {
 1127              		.loc 1 93 33 view .LVU259
 1128 021c 2065     		str	r0, [r4, #80]
  94:Lib/lvgl/src/core/lv_obj_draw.c ****             draw_dsc->outline_opa = lv_obj_get_style_outline_opa(obj, part);
 1129              		.loc 1 94 9 is_stmt 1 view .LVU260
  94:Lib/lvgl/src/core/lv_obj_draw.c ****             draw_dsc->outline_opa = lv_obj_get_style_outline_opa(obj, part);
 1130              		.loc 1 94 11 is_stmt 0 view .LVU261
 1131 021e 0028     		cmp	r0, #0
 1132 0220 3FF410AF 		beq	.L27
  95:Lib/lvgl/src/core/lv_obj_draw.c ****             if(draw_dsc->outline_opa > LV_OPA_MIN) {
 1133              		.loc 1 95 13 is_stmt 1 view .LVU262
 1134              	.LVL79:
 1135              	.LBB144:
 1136              	.LBI144:
 362:Lib/lvgl/src/core/lv_obj_style_gen.h **** {
 1137              		.loc 2 362 24 view .LVU263
ARM GAS  C:\Users\Alex\AppData\Local\Temp\cccZpk1s.s 			page 36


 1138              	.LBB145:
 364:Lib/lvgl/src/core/lv_obj_style_gen.h ****     return (lv_opa_t)v.num;
 1139              		.loc 2 364 5 view .LVU264
 364:Lib/lvgl/src/core/lv_obj_style_gen.h ****     return (lv_opa_t)v.num;
 1140              		.loc 2 364 26 is_stmt 0 view .LVU265
 1141 0224 3A22     		movs	r2, #58
 1142 0226 2946     		mov	r1, r5
 1143 0228 3846     		mov	r0, r7
 1144 022a FFF7FEFF 		bl	lv_obj_get_style_prop
 1145              	.LVL80:
 1146 022e 0190     		str	r0, [sp, #4]
 365:Lib/lvgl/src/core/lv_obj_style_gen.h **** }
 1147              		.loc 2 365 5 is_stmt 1 view .LVU266
 365:Lib/lvgl/src/core/lv_obj_style_gen.h **** }
 1148              		.loc 2 365 12 is_stmt 0 view .LVU267
 1149 0230 C0B2     		uxtb	r0, r0
 1150              	.LVL81:
 365:Lib/lvgl/src/core/lv_obj_style_gen.h **** }
 1151              		.loc 2 365 12 view .LVU268
 1152              	.LBE145:
 1153              	.LBE144:
  95:Lib/lvgl/src/core/lv_obj_draw.c ****             if(draw_dsc->outline_opa > LV_OPA_MIN) {
 1154              		.loc 1 95 35 view .LVU269
 1155 0232 84F85800 		strb	r0, [r4, #88]
  96:Lib/lvgl/src/core/lv_obj_draw.c ****                 draw_dsc->outline_pad = lv_obj_get_style_outline_pad(obj, part);
 1156              		.loc 1 96 13 is_stmt 1 view .LVU270
  96:Lib/lvgl/src/core/lv_obj_draw.c ****                 draw_dsc->outline_pad = lv_obj_get_style_outline_pad(obj, part);
 1157              		.loc 1 96 15 is_stmt 0 view .LVU271
 1158 0236 0228     		cmp	r0, #2
 1159 0238 7FF604AF 		bls	.L27
  97:Lib/lvgl/src/core/lv_obj_draw.c ****                 draw_dsc->outline_color = lv_obj_get_style_outline_color_filtered(obj, part);
 1160              		.loc 1 97 17 is_stmt 1 view .LVU272
 1161              	.LVL82:
 1162              	.LBB146:
 1163              	.LBI146:
 368:Lib/lvgl/src/core/lv_obj_style_gen.h **** {
 1164              		.loc 2 368 23 view .LVU273
 1165              	.LBB147:
 370:Lib/lvgl/src/core/lv_obj_style_gen.h ****     return (int32_t)v.num;
 1166              		.loc 2 370 5 view .LVU274
 370:Lib/lvgl/src/core/lv_obj_style_gen.h ****     return (int32_t)v.num;
 1167              		.loc 2 370 26 is_stmt 0 view .LVU275
 1168 023c 3B22     		movs	r2, #59
 1169 023e 2946     		mov	r1, r5
 1170 0240 3846     		mov	r0, r7
 1171 0242 FFF7FEFF 		bl	lv_obj_get_style_prop
 1172              	.LVL83:
 1173 0246 0190     		str	r0, [sp, #4]
 371:Lib/lvgl/src/core/lv_obj_style_gen.h **** }
 1174              		.loc 2 371 5 is_stmt 1 view .LVU276
 1175              	.LVL84:
 371:Lib/lvgl/src/core/lv_obj_style_gen.h **** }
 1176              		.loc 2 371 5 is_stmt 0 view .LVU277
 1177              	.LBE147:
 1178              	.LBE146:
  97:Lib/lvgl/src/core/lv_obj_draw.c ****                 draw_dsc->outline_color = lv_obj_get_style_outline_color_filtered(obj, part);
 1179              		.loc 1 97 39 view .LVU278
ARM GAS  C:\Users\Alex\AppData\Local\Temp\cccZpk1s.s 			page 37


 1180 0248 6065     		str	r0, [r4, #84]
  98:Lib/lvgl/src/core/lv_obj_draw.c ****             }
 1181              		.loc 1 98 17 is_stmt 1 view .LVU279
  98:Lib/lvgl/src/core/lv_obj_draw.c ****             }
 1182              		.loc 1 98 43 is_stmt 0 view .LVU280
 1183 024a 2946     		mov	r1, r5
 1184 024c 3846     		mov	r0, r7
 1185 024e FFF7FEFF 		bl	lv_obj_get_style_outline_color_filtered
 1186              	.LVL85:
 1187 0252 84F84A00 		strb	r0, [r4, #74]
 1188 0256 C0F30723 		ubfx	r3, r0, #8, #8
 1189 025a 84F84B30 		strb	r3, [r4, #75]
 1190 025e C0F30740 		ubfx	r0, r0, #16, #8
 1191 0262 84F84C00 		strb	r0, [r4, #76]
 1192 0266 EDE6     		b	.L27
 1193              	.L36:
 104:Lib/lvgl/src/core/lv_obj_draw.c ****         if(draw_dsc->bg_image_src) {
 1194              		.loc 1 104 9 is_stmt 1 view .LVU281
 1195              	.LVL86:
 1196              	.LBB148:
 1197              	.LBI148:
 269:Lib/lvgl/src/core/lv_obj_style_gen.h **** {
 1198              		.loc 2 269 28 view .LVU282
 1199              	.LBB149:
 271:Lib/lvgl/src/core/lv_obj_style_gen.h ****     return (const void *)v.ptr;
 1200              		.loc 2 271 5 view .LVU283
 271:Lib/lvgl/src/core/lv_obj_style_gen.h ****     return (const void *)v.ptr;
 1201              		.loc 2 271 26 is_stmt 0 view .LVU284
 1202 0268 2822     		movs	r2, #40
 1203 026a 2946     		mov	r1, r5
 1204 026c 3846     		mov	r0, r7
 1205 026e FFF7FEFF 		bl	lv_obj_get_style_prop
 1206              	.LVL87:
 1207 0272 0190     		str	r0, [sp, #4]
 272:Lib/lvgl/src/core/lv_obj_style_gen.h **** }
 1208              		.loc 2 272 5 is_stmt 1 view .LVU285
 1209              	.LVL88:
 272:Lib/lvgl/src/core/lv_obj_style_gen.h **** }
 1210              		.loc 2 272 5 is_stmt 0 view .LVU286
 1211              	.LBE149:
 1212              	.LBE148:
 104:Lib/lvgl/src/core/lv_obj_draw.c ****         if(draw_dsc->bg_image_src) {
 1213              		.loc 1 104 32 view .LVU287
 1214 0274 2063     		str	r0, [r4, #48]
 105:Lib/lvgl/src/core/lv_obj_draw.c ****             draw_dsc->bg_image_opa = lv_obj_get_style_bg_image_opa(obj, part);
 1215              		.loc 1 105 9 is_stmt 1 view .LVU288
 105:Lib/lvgl/src/core/lv_obj_draw.c ****             draw_dsc->bg_image_opa = lv_obj_get_style_bg_image_opa(obj, part);
 1216              		.loc 1 105 11 is_stmt 0 view .LVU289
 1217 0276 0028     		cmp	r0, #0
 1218 0278 3FF4E9AE 		beq	.L28
 106:Lib/lvgl/src/core/lv_obj_draw.c ****             if(draw_dsc->bg_image_opa > LV_OPA_MIN) {
 1219              		.loc 1 106 13 is_stmt 1 view .LVU290
 1220              	.LVL89:
 1221              	.LBB150:
 1222              	.LBI150:
 275:Lib/lvgl/src/core/lv_obj_style_gen.h **** {
 1223              		.loc 2 275 24 view .LVU291
ARM GAS  C:\Users\Alex\AppData\Local\Temp\cccZpk1s.s 			page 38


 1224              	.LBB151:
 277:Lib/lvgl/src/core/lv_obj_style_gen.h ****     return (lv_opa_t)v.num;
 1225              		.loc 2 277 5 view .LVU292
 277:Lib/lvgl/src/core/lv_obj_style_gen.h ****     return (lv_opa_t)v.num;
 1226              		.loc 2 277 26 is_stmt 0 view .LVU293
 1227 027c 2922     		movs	r2, #41
 1228 027e 2946     		mov	r1, r5
 1229 0280 3846     		mov	r0, r7
 1230 0282 FFF7FEFF 		bl	lv_obj_get_style_prop
 1231              	.LVL90:
 1232 0286 0190     		str	r0, [sp, #4]
 278:Lib/lvgl/src/core/lv_obj_style_gen.h **** }
 1233              		.loc 2 278 5 is_stmt 1 view .LVU294
 278:Lib/lvgl/src/core/lv_obj_style_gen.h **** }
 1234              		.loc 2 278 12 is_stmt 0 view .LVU295
 1235 0288 C0B2     		uxtb	r0, r0
 1236              	.LVL91:
 278:Lib/lvgl/src/core/lv_obj_style_gen.h **** }
 1237              		.loc 2 278 12 view .LVU296
 1238              	.LBE151:
 1239              	.LBE150:
 106:Lib/lvgl/src/core/lv_obj_draw.c ****             if(draw_dsc->bg_image_opa > LV_OPA_MIN) {
 1240              		.loc 1 106 36 view .LVU297
 1241 028a 84F83B00 		strb	r0, [r4, #59]
 107:Lib/lvgl/src/core/lv_obj_draw.c ****                 if(lv_image_src_get_type(draw_dsc->bg_image_src) == LV_IMAGE_SRC_SYMBOL) {
 1242              		.loc 1 107 13 is_stmt 1 view .LVU298
 107:Lib/lvgl/src/core/lv_obj_draw.c ****                 if(lv_image_src_get_type(draw_dsc->bg_image_src) == LV_IMAGE_SRC_SYMBOL) {
 1243              		.loc 1 107 15 is_stmt 0 view .LVU299
 1244 028e 0228     		cmp	r0, #2
 1245 0290 7FF6DDAE 		bls	.L28
 108:Lib/lvgl/src/core/lv_obj_draw.c ****                     draw_dsc->bg_image_symbol_font = lv_obj_get_style_text_font(obj, part);
 1246              		.loc 1 108 17 is_stmt 1 view .LVU300
 108:Lib/lvgl/src/core/lv_obj_draw.c ****                     draw_dsc->bg_image_symbol_font = lv_obj_get_style_text_font(obj, part);
 1247              		.loc 1 108 20 is_stmt 0 view .LVU301
 1248 0294 206B     		ldr	r0, [r4, #48]
 1249 0296 FFF7FEFF 		bl	lv_image_src_get_type
 1250              	.LVL92:
 108:Lib/lvgl/src/core/lv_obj_draw.c ****                     draw_dsc->bg_image_symbol_font = lv_obj_get_style_text_font(obj, part);
 1251              		.loc 1 108 19 view .LVU302
 1252 029a 0228     		cmp	r0, #2
 1253 029c 21D0     		beq	.L39
 113:Lib/lvgl/src/core/lv_obj_draw.c ****                     draw_dsc->bg_image_recolor_opa = lv_obj_get_style_bg_image_recolor_opa(obj, par
 1254              		.loc 1 113 21 is_stmt 1 view .LVU303
 113:Lib/lvgl/src/core/lv_obj_draw.c ****                     draw_dsc->bg_image_recolor_opa = lv_obj_get_style_bg_image_recolor_opa(obj, par
 1255              		.loc 1 113 50 is_stmt 0 view .LVU304
 1256 029e 2946     		mov	r1, r5
 1257 02a0 3846     		mov	r0, r7
 1258 02a2 FFF7FEFF 		bl	lv_obj_get_style_bg_image_recolor_filtered
 1259              	.LVL93:
 1260 02a6 84F83800 		strb	r0, [r4, #56]
 1261 02aa C0F30723 		ubfx	r3, r0, #8, #8
 1262 02ae 84F83930 		strb	r3, [r4, #57]
 1263 02b2 C0F30740 		ubfx	r0, r0, #16, #8
 1264 02b6 84F83A00 		strb	r0, [r4, #58]
 114:Lib/lvgl/src/core/lv_obj_draw.c ****                     draw_dsc->bg_image_tiled = lv_obj_get_style_bg_image_tiled(obj, part);
 1265              		.loc 1 114 21 is_stmt 1 view .LVU305
 1266              	.LVL94:
ARM GAS  C:\Users\Alex\AppData\Local\Temp\cccZpk1s.s 			page 39


 1267              	.LBB152:
 1268              	.LBI152:
 294:Lib/lvgl/src/core/lv_obj_style_gen.h **** {
 1269              		.loc 2 294 24 view .LVU306
 1270              	.LBB153:
 296:Lib/lvgl/src/core/lv_obj_style_gen.h ****     return (lv_opa_t)v.num;
 1271              		.loc 2 296 5 view .LVU307
 296:Lib/lvgl/src/core/lv_obj_style_gen.h ****     return (lv_opa_t)v.num;
 1272              		.loc 2 296 26 is_stmt 0 view .LVU308
 1273 02ba 2B22     		movs	r2, #43
 1274 02bc 2946     		mov	r1, r5
 1275 02be 3846     		mov	r0, r7
 1276 02c0 FFF7FEFF 		bl	lv_obj_get_style_prop
 1277              	.LVL95:
 1278 02c4 0190     		str	r0, [sp, #4]
 297:Lib/lvgl/src/core/lv_obj_style_gen.h **** }
 1279              		.loc 2 297 5 is_stmt 1 view .LVU309
 1280              	.LVL96:
 297:Lib/lvgl/src/core/lv_obj_style_gen.h **** }
 1281              		.loc 2 297 5 is_stmt 0 view .LVU310
 1282              	.LBE153:
 1283              	.LBE152:
 114:Lib/lvgl/src/core/lv_obj_draw.c ****                     draw_dsc->bg_image_tiled = lv_obj_get_style_bg_image_tiled(obj, part);
 1284              		.loc 1 114 52 view .LVU311
 1285 02c6 84F83C00 		strb	r0, [r4, #60]
 115:Lib/lvgl/src/core/lv_obj_draw.c ****                 }
 1286              		.loc 1 115 21 is_stmt 1 view .LVU312
 1287              	.LVL97:
 1288              	.LBB154:
 1289              	.LBI154:
 300:Lib/lvgl/src/core/lv_obj_style_gen.h **** {
 1290              		.loc 2 300 20 view .LVU313
 1291              	.LBB155:
 302:Lib/lvgl/src/core/lv_obj_style_gen.h ****     return (bool)v.num;
 1292              		.loc 2 302 5 view .LVU314
 302:Lib/lvgl/src/core/lv_obj_style_gen.h ****     return (bool)v.num;
 1293              		.loc 2 302 26 is_stmt 0 view .LVU315
 1294 02ca 2C22     		movs	r2, #44
 1295 02cc 2946     		mov	r1, r5
 1296 02ce 3846     		mov	r0, r7
 1297 02d0 FFF7FEFF 		bl	lv_obj_get_style_prop
 1298              	.LVL98:
 1299 02d4 0190     		str	r0, [sp, #4]
 303:Lib/lvgl/src/core/lv_obj_style_gen.h **** }
 1300              		.loc 2 303 5 is_stmt 1 view .LVU316
 303:Lib/lvgl/src/core/lv_obj_style_gen.h **** }
 1301              		.loc 2 303 12 is_stmt 0 view .LVU317
 1302 02d6 0038     		subs	r0, r0, #0
 1303 02d8 18BF     		it	ne
 1304 02da 0120     		movne	r0, #1
 1305              	.LVL99:
 303:Lib/lvgl/src/core/lv_obj_style_gen.h **** }
 1306              		.loc 2 303 12 view .LVU318
 1307              	.LBE155:
 1308              	.LBE154:
 115:Lib/lvgl/src/core/lv_obj_draw.c ****                 }
 1309              		.loc 1 115 46 view .LVU319
ARM GAS  C:\Users\Alex\AppData\Local\Temp\cccZpk1s.s 			page 40


 1310 02dc 84F83D00 		strb	r0, [r4, #61]
 1311 02e0 B5E6     		b	.L28
 1312              	.L39:
 109:Lib/lvgl/src/core/lv_obj_draw.c ****                     draw_dsc->bg_image_recolor = lv_obj_get_style_text_color_filtered(obj, part);
 1313              		.loc 1 109 21 is_stmt 1 view .LVU320
 1314              	.LVL100:
 1315              	.LBB156:
 1316              	.LBI156:
 538:Lib/lvgl/src/core/lv_obj_style_gen.h **** {
 1317              		.loc 2 538 33 view .LVU321
 1318              	.LBB157:
 540:Lib/lvgl/src/core/lv_obj_style_gen.h ****     return (const lv_font_t *)v.ptr;
 1319              		.loc 2 540 5 view .LVU322
 540:Lib/lvgl/src/core/lv_obj_style_gen.h ****     return (const lv_font_t *)v.ptr;
 1320              		.loc 2 540 26 is_stmt 0 view .LVU323
 1321 02e2 5A22     		movs	r2, #90
 1322 02e4 2946     		mov	r1, r5
 1323 02e6 3846     		mov	r0, r7
 1324 02e8 FFF7FEFF 		bl	lv_obj_get_style_prop
 1325              	.LVL101:
 1326 02ec 0190     		str	r0, [sp, #4]
 541:Lib/lvgl/src/core/lv_obj_style_gen.h **** }
 1327              		.loc 2 541 5 is_stmt 1 view .LVU324
 1328              	.LVL102:
 541:Lib/lvgl/src/core/lv_obj_style_gen.h **** }
 1329              		.loc 2 541 5 is_stmt 0 view .LVU325
 1330              	.LBE157:
 1331              	.LBE156:
 109:Lib/lvgl/src/core/lv_obj_draw.c ****                     draw_dsc->bg_image_recolor = lv_obj_get_style_text_color_filtered(obj, part);
 1332              		.loc 1 109 52 view .LVU326
 1333 02ee 6063     		str	r0, [r4, #52]
 110:Lib/lvgl/src/core/lv_obj_draw.c ****                 }
 1334              		.loc 1 110 21 is_stmt 1 view .LVU327
 110:Lib/lvgl/src/core/lv_obj_draw.c ****                 }
 1335              		.loc 1 110 50 is_stmt 0 view .LVU328
 1336 02f0 2946     		mov	r1, r5
 1337 02f2 3846     		mov	r0, r7
 1338 02f4 FFF7FEFF 		bl	lv_obj_get_style_text_color_filtered
 1339              	.LVL103:
 1340 02f8 84F83800 		strb	r0, [r4, #56]
 1341 02fc C0F30723 		ubfx	r3, r0, #8, #8
 1342 0300 84F83930 		strb	r3, [r4, #57]
 1343 0304 C0F30740 		ubfx	r0, r0, #16, #8
 1344 0308 84F83A00 		strb	r0, [r4, #58]
 1345 030c 9FE6     		b	.L28
 1346              	.L37:
 122:Lib/lvgl/src/core/lv_obj_draw.c ****         if(draw_dsc->shadow_width) {
 1347              		.loc 1 122 9 is_stmt 1 view .LVU329
 1348              	.LVL104:
 1349              	.LBB158:
 1350              	.LBI158:
 374:Lib/lvgl/src/core/lv_obj_style_gen.h **** {
 1351              		.loc 2 374 23 view .LVU330
 1352              	.LBB159:
 376:Lib/lvgl/src/core/lv_obj_style_gen.h ****     return (int32_t)v.num;
 1353              		.loc 2 376 5 view .LVU331
 376:Lib/lvgl/src/core/lv_obj_style_gen.h ****     return (int32_t)v.num;
ARM GAS  C:\Users\Alex\AppData\Local\Temp\cccZpk1s.s 			page 41


 1354              		.loc 2 376 26 is_stmt 0 view .LVU332
 1355 030e 3C22     		movs	r2, #60
 1356 0310 2946     		mov	r1, r5
 1357 0312 3846     		mov	r0, r7
 1358 0314 FFF7FEFF 		bl	lv_obj_get_style_prop
 1359              	.LVL105:
 1360 0318 0190     		str	r0, [sp, #4]
 377:Lib/lvgl/src/core/lv_obj_style_gen.h **** }
 1361              		.loc 2 377 5 is_stmt 1 view .LVU333
 1362              	.LVL106:
 377:Lib/lvgl/src/core/lv_obj_style_gen.h **** }
 1363              		.loc 2 377 5 is_stmt 0 view .LVU334
 1364              	.LBE159:
 1365              	.LBE158:
 122:Lib/lvgl/src/core/lv_obj_draw.c ****         if(draw_dsc->shadow_width) {
 1366              		.loc 1 122 32 view .LVU335
 1367 031a E065     		str	r0, [r4, #92]
 123:Lib/lvgl/src/core/lv_obj_draw.c ****             if(draw_dsc->shadow_opa > LV_OPA_MIN) {
 1368              		.loc 1 123 9 is_stmt 1 view .LVU336
 123:Lib/lvgl/src/core/lv_obj_draw.c ****             if(draw_dsc->shadow_opa > LV_OPA_MIN) {
 1369              		.loc 1 123 11 is_stmt 0 view .LVU337
 1370 031c 0028     		cmp	r0, #0
 1371 031e 3FF49BAE 		beq	.L30
 124:Lib/lvgl/src/core/lv_obj_draw.c ****                 draw_dsc->shadow_opa = lv_obj_get_style_shadow_opa(obj, part);
 1372              		.loc 1 124 13 is_stmt 1 view .LVU338
 124:Lib/lvgl/src/core/lv_obj_draw.c ****                 draw_dsc->shadow_opa = lv_obj_get_style_shadow_opa(obj, part);
 1373              		.loc 1 124 24 is_stmt 0 view .LVU339
 1374 0322 94F86C30 		ldrb	r3, [r4, #108]	@ zero_extendqisi2
 124:Lib/lvgl/src/core/lv_obj_draw.c ****                 draw_dsc->shadow_opa = lv_obj_get_style_shadow_opa(obj, part);
 1375              		.loc 1 124 15 view .LVU340
 1376 0326 022B     		cmp	r3, #2
 1377 0328 7FF696AE 		bls	.L30
 125:Lib/lvgl/src/core/lv_obj_draw.c ****                 if(draw_dsc->shadow_opa > LV_OPA_MIN) {
 1378              		.loc 1 125 17 is_stmt 1 view .LVU341
 1379              	.LVL107:
 1380              	.LBB160:
 1381              	.LBI160:
 411:Lib/lvgl/src/core/lv_obj_style_gen.h **** {
 1382              		.loc 2 411 24 view .LVU342
 1383              	.LBB161:
 413:Lib/lvgl/src/core/lv_obj_style_gen.h ****     return (lv_opa_t)v.num;
 1384              		.loc 2 413 5 view .LVU343
 413:Lib/lvgl/src/core/lv_obj_style_gen.h ****     return (lv_opa_t)v.num;
 1385              		.loc 2 413 26 is_stmt 0 view .LVU344
 1386 032c 3E22     		movs	r2, #62
 1387 032e 2946     		mov	r1, r5
 1388 0330 3846     		mov	r0, r7
 1389 0332 FFF7FEFF 		bl	lv_obj_get_style_prop
 1390              	.LVL108:
 1391 0336 0190     		str	r0, [sp, #4]
 414:Lib/lvgl/src/core/lv_obj_style_gen.h **** }
 1392              		.loc 2 414 5 is_stmt 1 view .LVU345
 414:Lib/lvgl/src/core/lv_obj_style_gen.h **** }
 1393              		.loc 2 414 12 is_stmt 0 view .LVU346
 1394 0338 C3B2     		uxtb	r3, r0
 1395              	.LVL109:
 414:Lib/lvgl/src/core/lv_obj_style_gen.h **** }
ARM GAS  C:\Users\Alex\AppData\Local\Temp\cccZpk1s.s 			page 42


 1396              		.loc 2 414 12 view .LVU347
 1397              	.LBE161:
 1398              	.LBE160:
 125:Lib/lvgl/src/core/lv_obj_draw.c ****                 if(draw_dsc->shadow_opa > LV_OPA_MIN) {
 1399              		.loc 1 125 38 view .LVU348
 1400 033a 84F86C30 		strb	r3, [r4, #108]
 126:Lib/lvgl/src/core/lv_obj_draw.c ****                     draw_dsc->shadow_offset_x = lv_obj_get_style_shadow_offset_x(obj, part);
 1401              		.loc 1 126 17 is_stmt 1 view .LVU349
 126:Lib/lvgl/src/core/lv_obj_draw.c ****                     draw_dsc->shadow_offset_x = lv_obj_get_style_shadow_offset_x(obj, part);
 1402              		.loc 1 126 19 is_stmt 0 view .LVU350
 1403 033e 022B     		cmp	r3, #2
 1404 0340 7FF68AAE 		bls	.L30
 127:Lib/lvgl/src/core/lv_obj_draw.c ****                     draw_dsc->shadow_offset_y = lv_obj_get_style_shadow_offset_y(obj, part);
 1405              		.loc 1 127 21 is_stmt 1 view .LVU351
 1406              	.LVL110:
 1407              	.LBB162:
 1408              	.LBI162:
 380:Lib/lvgl/src/core/lv_obj_style_gen.h **** {
 1409              		.loc 2 380 23 view .LVU352
 1410              	.LBB163:
 382:Lib/lvgl/src/core/lv_obj_style_gen.h ****     return (int32_t)v.num;
 1411              		.loc 2 382 5 view .LVU353
 382:Lib/lvgl/src/core/lv_obj_style_gen.h ****     return (int32_t)v.num;
 1412              		.loc 2 382 26 is_stmt 0 view .LVU354
 1413 0344 4022     		movs	r2, #64
 1414 0346 2946     		mov	r1, r5
 1415 0348 3846     		mov	r0, r7
 1416 034a FFF7FEFF 		bl	lv_obj_get_style_prop
 1417              	.LVL111:
 1418 034e 0190     		str	r0, [sp, #4]
 383:Lib/lvgl/src/core/lv_obj_style_gen.h **** }
 1419              		.loc 2 383 5 is_stmt 1 view .LVU355
 1420              	.LVL112:
 383:Lib/lvgl/src/core/lv_obj_style_gen.h **** }
 1421              		.loc 2 383 5 is_stmt 0 view .LVU356
 1422              	.LBE163:
 1423              	.LBE162:
 127:Lib/lvgl/src/core/lv_obj_draw.c ****                     draw_dsc->shadow_offset_y = lv_obj_get_style_shadow_offset_y(obj, part);
 1424              		.loc 1 127 47 view .LVU357
 1425 0350 2066     		str	r0, [r4, #96]
 128:Lib/lvgl/src/core/lv_obj_draw.c ****                     draw_dsc->shadow_spread = lv_obj_get_style_shadow_spread(obj, part);
 1426              		.loc 1 128 21 is_stmt 1 view .LVU358
 1427              	.LVL113:
 1428              	.LBB164:
 1429              	.LBI164:
 386:Lib/lvgl/src/core/lv_obj_style_gen.h **** {
 1430              		.loc 2 386 23 view .LVU359
 1431              	.LBB165:
 388:Lib/lvgl/src/core/lv_obj_style_gen.h ****     return (int32_t)v.num;
 1432              		.loc 2 388 5 view .LVU360
 388:Lib/lvgl/src/core/lv_obj_style_gen.h ****     return (int32_t)v.num;
 1433              		.loc 2 388 26 is_stmt 0 view .LVU361
 1434 0352 4122     		movs	r2, #65
 1435 0354 2946     		mov	r1, r5
 1436 0356 3846     		mov	r0, r7
 1437 0358 FFF7FEFF 		bl	lv_obj_get_style_prop
 1438              	.LVL114:
ARM GAS  C:\Users\Alex\AppData\Local\Temp\cccZpk1s.s 			page 43


 1439 035c 0190     		str	r0, [sp, #4]
 389:Lib/lvgl/src/core/lv_obj_style_gen.h **** }
 1440              		.loc 2 389 5 is_stmt 1 view .LVU362
 1441              	.LVL115:
 389:Lib/lvgl/src/core/lv_obj_style_gen.h **** }
 1442              		.loc 2 389 5 is_stmt 0 view .LVU363
 1443              	.LBE165:
 1444              	.LBE164:
 128:Lib/lvgl/src/core/lv_obj_draw.c ****                     draw_dsc->shadow_spread = lv_obj_get_style_shadow_spread(obj, part);
 1445              		.loc 1 128 47 view .LVU364
 1446 035e 6066     		str	r0, [r4, #100]
 129:Lib/lvgl/src/core/lv_obj_draw.c ****                     draw_dsc->shadow_color = lv_obj_get_style_shadow_color_filtered(obj, part);
 1447              		.loc 1 129 21 is_stmt 1 view .LVU365
 1448              	.LVL116:
 1449              	.LBB166:
 1450              	.LBI166:
 392:Lib/lvgl/src/core/lv_obj_style_gen.h **** {
 1451              		.loc 2 392 23 view .LVU366
 1452              	.LBB167:
 394:Lib/lvgl/src/core/lv_obj_style_gen.h ****     return (int32_t)v.num;
 1453              		.loc 2 394 5 view .LVU367
 394:Lib/lvgl/src/core/lv_obj_style_gen.h ****     return (int32_t)v.num;
 1454              		.loc 2 394 26 is_stmt 0 view .LVU368
 1455 0360 4222     		movs	r2, #66
 1456 0362 2946     		mov	r1, r5
 1457 0364 3846     		mov	r0, r7
 1458 0366 FFF7FEFF 		bl	lv_obj_get_style_prop
 1459              	.LVL117:
 1460 036a 0190     		str	r0, [sp, #4]
 395:Lib/lvgl/src/core/lv_obj_style_gen.h **** }
 1461              		.loc 2 395 5 is_stmt 1 view .LVU369
 1462              	.LVL118:
 395:Lib/lvgl/src/core/lv_obj_style_gen.h **** }
 1463              		.loc 2 395 5 is_stmt 0 view .LVU370
 1464              	.LBE167:
 1465              	.LBE166:
 129:Lib/lvgl/src/core/lv_obj_draw.c ****                     draw_dsc->shadow_color = lv_obj_get_style_shadow_color_filtered(obj, part);
 1466              		.loc 1 129 45 view .LVU371
 1467 036c A066     		str	r0, [r4, #104]
 130:Lib/lvgl/src/core/lv_obj_draw.c ****                 }
 1468              		.loc 1 130 21 is_stmt 1 view .LVU372
 130:Lib/lvgl/src/core/lv_obj_draw.c ****                 }
 1469              		.loc 1 130 46 is_stmt 0 view .LVU373
 1470 036e 2946     		mov	r1, r5
 1471 0370 3846     		mov	r0, r7
 1472 0372 FFF7FEFF 		bl	lv_obj_get_style_shadow_color_filtered
 1473              	.LVL119:
 1474 0376 84F85900 		strb	r0, [r4, #89]
 1475 037a C0F30723 		ubfx	r3, r0, #8, #8
 1476 037e 84F85A30 		strb	r3, [r4, #90]
 1477 0382 C0F30740 		ubfx	r0, r0, #16, #8
 1478 0386 84F85B00 		strb	r0, [r4, #91]
 1479 038a 65E6     		b	.L30
 1480              		.cfi_endproc
 1481              	.LFE233:
 1483              		.section	.text.lv_obj_init_draw_label_dsc,"ax",%progbits
 1484              		.align	1
ARM GAS  C:\Users\Alex\AppData\Local\Temp\cccZpk1s.s 			page 44


 1485              		.global	lv_obj_init_draw_label_dsc
 1486              		.syntax unified
 1487              		.thumb
 1488              		.thumb_func
 1490              	lv_obj_init_draw_label_dsc:
 1491              	.LVL120:
 1492              	.LFB234:
 144:Lib/lvgl/src/core/lv_obj_draw.c **** 
 145:Lib/lvgl/src/core/lv_obj_draw.c **** void lv_obj_init_draw_label_dsc(lv_obj_t * obj, uint32_t part, lv_draw_label_dsc_t * draw_dsc)
 146:Lib/lvgl/src/core/lv_obj_draw.c **** {
 1493              		.loc 1 146 1 is_stmt 1 view -0
 1494              		.cfi_startproc
 1495              		@ args = 0, pretend = 0, frame = 8
 1496              		@ frame_needed = 0, uses_anonymous_args = 0
 1497              		.loc 1 146 1 is_stmt 0 view .LVU375
 1498 0000 70B5     		push	{r4, r5, r6, lr}
 1499              	.LCFI34:
 1500              		.cfi_def_cfa_offset 16
 1501              		.cfi_offset 4, -16
 1502              		.cfi_offset 5, -12
 1503              		.cfi_offset 6, -8
 1504              		.cfi_offset 14, -4
 1505 0002 82B0     		sub	sp, sp, #8
 1506              	.LCFI35:
 1507              		.cfi_def_cfa_offset 24
 1508 0004 0646     		mov	r6, r0
 1509 0006 0D46     		mov	r5, r1
 1510 0008 1446     		mov	r4, r2
 147:Lib/lvgl/src/core/lv_obj_draw.c ****     draw_dsc->base.obj = obj;
 1511              		.loc 1 147 5 is_stmt 1 view .LVU376
 1512              		.loc 1 147 24 is_stmt 0 view .LVU377
 1513 000a 1060     		str	r0, [r2]
 148:Lib/lvgl/src/core/lv_obj_draw.c ****     draw_dsc->base.part = part;
 1514              		.loc 1 148 5 is_stmt 1 view .LVU378
 1515              		.loc 1 148 25 is_stmt 0 view .LVU379
 1516 000c 5160     		str	r1, [r2, #4]
 149:Lib/lvgl/src/core/lv_obj_draw.c **** 
 150:Lib/lvgl/src/core/lv_obj_draw.c ****     draw_dsc->opa = lv_obj_get_style_text_opa(obj, part);
 1517              		.loc 1 150 5 is_stmt 1 view .LVU380
 1518              	.LVL121:
 1519              	.LBB168:
 1520              	.LBI168:
 532:Lib/lvgl/src/core/lv_obj_style_gen.h **** {
 1521              		.loc 2 532 24 view .LVU381
 1522              	.LBB169:
 534:Lib/lvgl/src/core/lv_obj_style_gen.h ****     return (lv_opa_t)v.num;
 1523              		.loc 2 534 5 view .LVU382
 534:Lib/lvgl/src/core/lv_obj_style_gen.h ****     return (lv_opa_t)v.num;
 1524              		.loc 2 534 26 is_stmt 0 view .LVU383
 1525 000e 5922     		movs	r2, #89
 1526              	.LVL122:
 534:Lib/lvgl/src/core/lv_obj_style_gen.h ****     return (lv_opa_t)v.num;
 1527              		.loc 2 534 26 view .LVU384
 1528 0010 FFF7FEFF 		bl	lv_obj_get_style_prop
 1529              	.LVL123:
 534:Lib/lvgl/src/core/lv_obj_style_gen.h ****     return (lv_opa_t)v.num;
 1530              		.loc 2 534 26 view .LVU385
ARM GAS  C:\Users\Alex\AppData\Local\Temp\cccZpk1s.s 			page 45


 1531 0014 0190     		str	r0, [sp, #4]
 535:Lib/lvgl/src/core/lv_obj_style_gen.h **** }
 1532              		.loc 2 535 5 is_stmt 1 view .LVU386
 535:Lib/lvgl/src/core/lv_obj_style_gen.h **** }
 1533              		.loc 2 535 12 is_stmt 0 view .LVU387
 1534 0016 C3B2     		uxtb	r3, r0
 1535              	.LVL124:
 535:Lib/lvgl/src/core/lv_obj_style_gen.h **** }
 1536              		.loc 2 535 12 view .LVU388
 1537              	.LBE169:
 1538              	.LBE168:
 1539              		.loc 1 150 19 view .LVU389
 1540 0018 84F84830 		strb	r3, [r4, #72]
 151:Lib/lvgl/src/core/lv_obj_draw.c ****     if(draw_dsc->opa <= LV_OPA_MIN) return;
 1541              		.loc 1 151 5 is_stmt 1 view .LVU390
 1542              		.loc 1 151 7 is_stmt 0 view .LVU391
 1543 001c 022B     		cmp	r3, #2
 1544 001e 01D8     		bhi	.L45
 1545              	.L40:
 152:Lib/lvgl/src/core/lv_obj_draw.c **** 
 153:Lib/lvgl/src/core/lv_obj_draw.c ****     lv_opa_t opa = lv_obj_get_style_opa_recursive(obj, part);
 154:Lib/lvgl/src/core/lv_obj_draw.c ****     if(opa < LV_OPA_MAX) {
 155:Lib/lvgl/src/core/lv_obj_draw.c ****         draw_dsc->opa = LV_OPA_MIX2(draw_dsc->opa, opa);
 156:Lib/lvgl/src/core/lv_obj_draw.c ****     }
 157:Lib/lvgl/src/core/lv_obj_draw.c ****     if(draw_dsc->opa <= LV_OPA_MIN) return;
 158:Lib/lvgl/src/core/lv_obj_draw.c **** 
 159:Lib/lvgl/src/core/lv_obj_draw.c ****     draw_dsc->color = lv_obj_get_style_text_color_filtered(obj, part);
 160:Lib/lvgl/src/core/lv_obj_draw.c ****     draw_dsc->letter_space = lv_obj_get_style_text_letter_space(obj, part);
 161:Lib/lvgl/src/core/lv_obj_draw.c ****     draw_dsc->line_space = lv_obj_get_style_text_line_space(obj, part);
 162:Lib/lvgl/src/core/lv_obj_draw.c ****     draw_dsc->decor = lv_obj_get_style_text_decor(obj, part);
 163:Lib/lvgl/src/core/lv_obj_draw.c ****     if(part != LV_PART_MAIN) draw_dsc->blend_mode = lv_obj_get_style_blend_mode(obj, part);
 164:Lib/lvgl/src/core/lv_obj_draw.c **** 
 165:Lib/lvgl/src/core/lv_obj_draw.c ****     draw_dsc->font = lv_obj_get_style_text_font(obj, part);
 166:Lib/lvgl/src/core/lv_obj_draw.c **** 
 167:Lib/lvgl/src/core/lv_obj_draw.c **** #if LV_USE_BIDI
 168:Lib/lvgl/src/core/lv_obj_draw.c ****     draw_dsc->bidi_dir = lv_obj_get_style_base_dir(obj, LV_PART_MAIN);
 169:Lib/lvgl/src/core/lv_obj_draw.c **** #endif
 170:Lib/lvgl/src/core/lv_obj_draw.c **** 
 171:Lib/lvgl/src/core/lv_obj_draw.c ****     draw_dsc->align = lv_obj_get_style_text_align(obj, part);
 172:Lib/lvgl/src/core/lv_obj_draw.c **** }
 1546              		.loc 1 172 1 view .LVU392
 1547 0020 02B0     		add	sp, sp, #8
 1548              	.LCFI36:
 1549              		.cfi_remember_state
 1550              		.cfi_def_cfa_offset 16
 1551              		@ sp needed
 1552 0022 70BD     		pop	{r4, r5, r6, pc}
 1553              	.LVL125:
 1554              	.L45:
 1555              	.LCFI37:
 1556              		.cfi_restore_state
 153:Lib/lvgl/src/core/lv_obj_draw.c ****     if(opa < LV_OPA_MAX) {
 1557              		.loc 1 153 5 is_stmt 1 view .LVU393
 153:Lib/lvgl/src/core/lv_obj_draw.c ****     if(opa < LV_OPA_MAX) {
 1558              		.loc 1 153 20 is_stmt 0 view .LVU394
 1559 0024 2946     		mov	r1, r5
 1560 0026 3046     		mov	r0, r6
ARM GAS  C:\Users\Alex\AppData\Local\Temp\cccZpk1s.s 			page 46


 1561 0028 FFF7FEFF 		bl	lv_obj_get_style_opa_recursive
 1562              	.LVL126:
 154:Lib/lvgl/src/core/lv_obj_draw.c ****         draw_dsc->opa = LV_OPA_MIX2(draw_dsc->opa, opa);
 1563              		.loc 1 154 5 is_stmt 1 view .LVU395
 154:Lib/lvgl/src/core/lv_obj_draw.c ****         draw_dsc->opa = LV_OPA_MIX2(draw_dsc->opa, opa);
 1564              		.loc 1 154 7 is_stmt 0 view .LVU396
 1565 002c FC28     		cmp	r0, #252
 1566 002e 06D8     		bhi	.L42
 155:Lib/lvgl/src/core/lv_obj_draw.c ****     }
 1567              		.loc 1 155 9 is_stmt 1 view .LVU397
 155:Lib/lvgl/src/core/lv_obj_draw.c ****     }
 1568              		.loc 1 155 25 is_stmt 0 view .LVU398
 1569 0030 94F84830 		ldrb	r3, [r4, #72]	@ zero_extendqisi2
 1570 0034 03FB00F0 		mul	r0, r3, r0
 1571              	.LVL127:
 155:Lib/lvgl/src/core/lv_obj_draw.c ****     }
 1572              		.loc 1 155 25 view .LVU399
 1573 0038 0012     		asrs	r0, r0, #8
 155:Lib/lvgl/src/core/lv_obj_draw.c ****     }
 1574              		.loc 1 155 23 view .LVU400
 1575 003a 84F84800 		strb	r0, [r4, #72]
 1576              	.L42:
 157:Lib/lvgl/src/core/lv_obj_draw.c **** 
 1577              		.loc 1 157 5 is_stmt 1 view .LVU401
 157:Lib/lvgl/src/core/lv_obj_draw.c **** 
 1578              		.loc 1 157 16 is_stmt 0 view .LVU402
 1579 003e 94F84830 		ldrb	r3, [r4, #72]	@ zero_extendqisi2
 157:Lib/lvgl/src/core/lv_obj_draw.c **** 
 1580              		.loc 1 157 7 view .LVU403
 1581 0042 022B     		cmp	r3, #2
 1582 0044 ECD9     		bls	.L40
 159:Lib/lvgl/src/core/lv_obj_draw.c ****     draw_dsc->letter_space = lv_obj_get_style_text_letter_space(obj, part);
 1583              		.loc 1 159 5 is_stmt 1 view .LVU404
 159:Lib/lvgl/src/core/lv_obj_draw.c ****     draw_dsc->letter_space = lv_obj_get_style_text_letter_space(obj, part);
 1584              		.loc 1 159 23 is_stmt 0 view .LVU405
 1585 0046 2946     		mov	r1, r5
 1586 0048 3046     		mov	r0, r6
 1587 004a FFF7FEFF 		bl	lv_obj_get_style_text_color_filtered
 1588              	.LVL128:
 1589 004e 84F82C00 		strb	r0, [r4, #44]
 1590 0052 C0F30723 		ubfx	r3, r0, #8, #8
 1591 0056 84F82D30 		strb	r3, [r4, #45]
 1592 005a C0F30740 		ubfx	r0, r0, #16, #8
 1593 005e 84F82E00 		strb	r0, [r4, #46]
 160:Lib/lvgl/src/core/lv_obj_draw.c ****     draw_dsc->line_space = lv_obj_get_style_text_line_space(obj, part);
 1594              		.loc 1 160 5 is_stmt 1 view .LVU406
 1595              	.LVL129:
 1596              	.LBB170:
 1597              	.LBI170:
 544:Lib/lvgl/src/core/lv_obj_style_gen.h **** {
 1598              		.loc 2 544 23 view .LVU407
 1599              	.LBB171:
 546:Lib/lvgl/src/core/lv_obj_style_gen.h ****     return (int32_t)v.num;
 1600              		.loc 2 546 5 view .LVU408
 546:Lib/lvgl/src/core/lv_obj_style_gen.h ****     return (int32_t)v.num;
 1601              		.loc 2 546 26 is_stmt 0 view .LVU409
 1602 0062 5B22     		movs	r2, #91
ARM GAS  C:\Users\Alex\AppData\Local\Temp\cccZpk1s.s 			page 47


 1603 0064 2946     		mov	r1, r5
 1604 0066 3046     		mov	r0, r6
 1605 0068 FFF7FEFF 		bl	lv_obj_get_style_prop
 1606              	.LVL130:
 1607 006c 0190     		str	r0, [sp, #4]
 547:Lib/lvgl/src/core/lv_obj_style_gen.h **** }
 1608              		.loc 2 547 5 is_stmt 1 view .LVU410
 1609              	.LVL131:
 547:Lib/lvgl/src/core/lv_obj_style_gen.h **** }
 1610              		.loc 2 547 5 is_stmt 0 view .LVU411
 1611              	.LBE171:
 1612              	.LBE170:
 160:Lib/lvgl/src/core/lv_obj_draw.c ****     draw_dsc->line_space = lv_obj_get_style_text_line_space(obj, part);
 1613              		.loc 1 160 28 view .LVU412
 1614 006e E063     		str	r0, [r4, #60]
 161:Lib/lvgl/src/core/lv_obj_draw.c ****     draw_dsc->decor = lv_obj_get_style_text_decor(obj, part);
 1615              		.loc 1 161 5 is_stmt 1 view .LVU413
 1616              	.LVL132:
 1617              	.LBB172:
 1618              	.LBI172:
 550:Lib/lvgl/src/core/lv_obj_style_gen.h **** {
 1619              		.loc 2 550 23 view .LVU414
 1620              	.LBB173:
 552:Lib/lvgl/src/core/lv_obj_style_gen.h ****     return (int32_t)v.num;
 1621              		.loc 2 552 5 view .LVU415
 552:Lib/lvgl/src/core/lv_obj_style_gen.h ****     return (int32_t)v.num;
 1622              		.loc 2 552 26 is_stmt 0 view .LVU416
 1623 0070 5C22     		movs	r2, #92
 1624 0072 2946     		mov	r1, r5
 1625 0074 3046     		mov	r0, r6
 1626 0076 FFF7FEFF 		bl	lv_obj_get_style_prop
 1627              	.LVL133:
 1628 007a 0190     		str	r0, [sp, #4]
 553:Lib/lvgl/src/core/lv_obj_style_gen.h **** }
 1629              		.loc 2 553 5 is_stmt 1 view .LVU417
 1630              	.LVL134:
 553:Lib/lvgl/src/core/lv_obj_style_gen.h **** }
 1631              		.loc 2 553 5 is_stmt 0 view .LVU418
 1632              	.LBE173:
 1633              	.LBE172:
 161:Lib/lvgl/src/core/lv_obj_draw.c ****     draw_dsc->decor = lv_obj_get_style_text_decor(obj, part);
 1634              		.loc 1 161 26 view .LVU419
 1635 007c A063     		str	r0, [r4, #56]
 162:Lib/lvgl/src/core/lv_obj_draw.c ****     if(part != LV_PART_MAIN) draw_dsc->blend_mode = lv_obj_get_style_blend_mode(obj, part);
 1636              		.loc 1 162 5 is_stmt 1 view .LVU420
 1637              	.LVL135:
 1638              	.LBB174:
 1639              	.LBI174:
 556:Lib/lvgl/src/core/lv_obj_style_gen.h **** {
 1640              		.loc 2 556 31 view .LVU421
 1641              	.LBB175:
 558:Lib/lvgl/src/core/lv_obj_style_gen.h ****     return (lv_text_decor_t)v.num;
 1642              		.loc 2 558 5 view .LVU422
 558:Lib/lvgl/src/core/lv_obj_style_gen.h ****     return (lv_text_decor_t)v.num;
 1643              		.loc 2 558 26 is_stmt 0 view .LVU423
 1644 007e 5D22     		movs	r2, #93
 1645 0080 2946     		mov	r1, r5
ARM GAS  C:\Users\Alex\AppData\Local\Temp\cccZpk1s.s 			page 48


 1646 0082 3046     		mov	r0, r6
 1647 0084 FFF7FEFF 		bl	lv_obj_get_style_prop
 1648              	.LVL136:
 1649 0088 0190     		str	r0, [sp, #4]
 559:Lib/lvgl/src/core/lv_obj_style_gen.h **** }
 1650              		.loc 2 559 5 is_stmt 1 view .LVU424
 1651              	.LVL137:
 559:Lib/lvgl/src/core/lv_obj_style_gen.h **** }
 1652              		.loc 2 559 5 is_stmt 0 view .LVU425
 1653              	.LBE175:
 1654              	.LBE174:
 162:Lib/lvgl/src/core/lv_obj_draw.c ****     if(part != LV_PART_MAIN) draw_dsc->blend_mode = lv_obj_get_style_blend_mode(obj, part);
 1655              		.loc 1 162 21 view .LVU426
 1656 008a 94F84C30 		ldrb	r3, [r4, #76]	@ zero_extendqisi2
 1657 008e 60F30203 		bfi	r3, r0, #0, #3
 1658 0092 84F84C30 		strb	r3, [r4, #76]
 163:Lib/lvgl/src/core/lv_obj_draw.c **** 
 1659              		.loc 1 163 5 is_stmt 1 view .LVU427
 163:Lib/lvgl/src/core/lv_obj_draw.c **** 
 1660              		.loc 1 163 7 is_stmt 0 view .LVU428
 1661 0096 7DB9     		cbnz	r5, .L46
 1662              	.L43:
 165:Lib/lvgl/src/core/lv_obj_draw.c **** 
 1663              		.loc 1 165 5 is_stmt 1 view .LVU429
 1664              	.LVL138:
 1665              	.LBB176:
 1666              	.LBI176:
 538:Lib/lvgl/src/core/lv_obj_style_gen.h **** {
 1667              		.loc 2 538 33 view .LVU430
 1668              	.LBB177:
 540:Lib/lvgl/src/core/lv_obj_style_gen.h ****     return (const lv_font_t *)v.ptr;
 1669              		.loc 2 540 5 view .LVU431
 540:Lib/lvgl/src/core/lv_obj_style_gen.h ****     return (const lv_font_t *)v.ptr;
 1670              		.loc 2 540 26 is_stmt 0 view .LVU432
 1671 0098 5A22     		movs	r2, #90
 1672 009a 2946     		mov	r1, r5
 1673 009c 3046     		mov	r0, r6
 1674 009e FFF7FEFF 		bl	lv_obj_get_style_prop
 1675              	.LVL139:
 1676 00a2 0190     		str	r0, [sp, #4]
 541:Lib/lvgl/src/core/lv_obj_style_gen.h **** }
 1677              		.loc 2 541 5 is_stmt 1 view .LVU433
 1678              	.LVL140:
 541:Lib/lvgl/src/core/lv_obj_style_gen.h **** }
 1679              		.loc 2 541 5 is_stmt 0 view .LVU434
 1680              	.LBE177:
 1681              	.LBE176:
 165:Lib/lvgl/src/core/lv_obj_draw.c **** 
 1682              		.loc 1 165 20 view .LVU435
 1683 00a4 2062     		str	r0, [r4, #32]
 171:Lib/lvgl/src/core/lv_obj_draw.c **** }
 1684              		.loc 1 171 5 is_stmt 1 view .LVU436
 1685              	.LVL141:
 1686              	.LBB178:
 1687              	.LBI178:
 562:Lib/lvgl/src/core/lv_obj_style_gen.h **** {
 1688              		.loc 2 562 31 view .LVU437
ARM GAS  C:\Users\Alex\AppData\Local\Temp\cccZpk1s.s 			page 49


 1689              	.LBB179:
 564:Lib/lvgl/src/core/lv_obj_style_gen.h ****     return (lv_text_align_t)v.num;
 1690              		.loc 2 564 5 view .LVU438
 564:Lib/lvgl/src/core/lv_obj_style_gen.h ****     return (lv_text_align_t)v.num;
 1691              		.loc 2 564 26 is_stmt 0 view .LVU439
 1692 00a6 5E22     		movs	r2, #94
 1693 00a8 2946     		mov	r1, r5
 1694 00aa 3046     		mov	r0, r6
 1695 00ac FFF7FEFF 		bl	lv_obj_get_style_prop
 1696              	.LVL142:
 1697 00b0 0190     		str	r0, [sp, #4]
 565:Lib/lvgl/src/core/lv_obj_style_gen.h **** }
 1698              		.loc 2 565 5 is_stmt 1 view .LVU440
 1699              	.LVL143:
 565:Lib/lvgl/src/core/lv_obj_style_gen.h **** }
 1700              		.loc 2 565 5 is_stmt 0 view .LVU441
 1701              	.LBE179:
 1702              	.LBE178:
 171:Lib/lvgl/src/core/lv_obj_draw.c **** }
 1703              		.loc 1 171 21 view .LVU442
 1704 00b2 84F84A00 		strb	r0, [r4, #74]
 1705 00b6 B3E7     		b	.L40
 1706              	.L46:
 163:Lib/lvgl/src/core/lv_obj_draw.c **** 
 1707              		.loc 1 163 30 is_stmt 1 view .LVU443
 1708              	.LVL144:
 1709              	.LBB180:
 1710              	.LBI180:
 572:Lib/lvgl/src/core/lv_obj_style_gen.h **** }
 573:Lib/lvgl/src/core/lv_obj_style_gen.h **** 
 574:Lib/lvgl/src/core/lv_obj_style_gen.h **** static inline bool lv_obj_get_style_clip_corner(const lv_obj_t * obj, uint32_t part)
 575:Lib/lvgl/src/core/lv_obj_style_gen.h **** {
 576:Lib/lvgl/src/core/lv_obj_style_gen.h ****     lv_style_value_t v = lv_obj_get_style_prop(obj, part, LV_STYLE_CLIP_CORNER);
 577:Lib/lvgl/src/core/lv_obj_style_gen.h ****     return (bool)v.num;
 578:Lib/lvgl/src/core/lv_obj_style_gen.h **** }
 579:Lib/lvgl/src/core/lv_obj_style_gen.h **** 
 580:Lib/lvgl/src/core/lv_obj_style_gen.h **** static inline lv_opa_t lv_obj_get_style_opa(const lv_obj_t * obj, uint32_t part)
 581:Lib/lvgl/src/core/lv_obj_style_gen.h **** {
 582:Lib/lvgl/src/core/lv_obj_style_gen.h ****     lv_style_value_t v = lv_obj_get_style_prop(obj, part, LV_STYLE_OPA);
 583:Lib/lvgl/src/core/lv_obj_style_gen.h ****     return (lv_opa_t)v.num;
 584:Lib/lvgl/src/core/lv_obj_style_gen.h **** }
 585:Lib/lvgl/src/core/lv_obj_style_gen.h **** 
 586:Lib/lvgl/src/core/lv_obj_style_gen.h **** static inline lv_opa_t lv_obj_get_style_opa_layered(const lv_obj_t * obj, uint32_t part)
 587:Lib/lvgl/src/core/lv_obj_style_gen.h **** {
 588:Lib/lvgl/src/core/lv_obj_style_gen.h ****     lv_style_value_t v = lv_obj_get_style_prop(obj, part, LV_STYLE_OPA_LAYERED);
 589:Lib/lvgl/src/core/lv_obj_style_gen.h ****     return (lv_opa_t)v.num;
 590:Lib/lvgl/src/core/lv_obj_style_gen.h **** }
 591:Lib/lvgl/src/core/lv_obj_style_gen.h **** 
 592:Lib/lvgl/src/core/lv_obj_style_gen.h **** static inline const lv_color_filter_dsc_t * lv_obj_get_style_color_filter_dsc(const lv_obj_t * obj,
 593:Lib/lvgl/src/core/lv_obj_style_gen.h **** {
 594:Lib/lvgl/src/core/lv_obj_style_gen.h ****     lv_style_value_t v = lv_obj_get_style_prop(obj, part, LV_STYLE_COLOR_FILTER_DSC);
 595:Lib/lvgl/src/core/lv_obj_style_gen.h ****     return (const lv_color_filter_dsc_t *)v.ptr;
 596:Lib/lvgl/src/core/lv_obj_style_gen.h **** }
 597:Lib/lvgl/src/core/lv_obj_style_gen.h **** 
 598:Lib/lvgl/src/core/lv_obj_style_gen.h **** static inline lv_opa_t lv_obj_get_style_color_filter_opa(const lv_obj_t * obj, uint32_t part)
 599:Lib/lvgl/src/core/lv_obj_style_gen.h **** {
 600:Lib/lvgl/src/core/lv_obj_style_gen.h ****     lv_style_value_t v = lv_obj_get_style_prop(obj, part, LV_STYLE_COLOR_FILTER_OPA);
ARM GAS  C:\Users\Alex\AppData\Local\Temp\cccZpk1s.s 			page 50


 601:Lib/lvgl/src/core/lv_obj_style_gen.h ****     return (lv_opa_t)v.num;
 602:Lib/lvgl/src/core/lv_obj_style_gen.h **** }
 603:Lib/lvgl/src/core/lv_obj_style_gen.h **** 
 604:Lib/lvgl/src/core/lv_obj_style_gen.h **** static inline const lv_anim_t * lv_obj_get_style_anim(const lv_obj_t * obj, uint32_t part)
 605:Lib/lvgl/src/core/lv_obj_style_gen.h **** {
 606:Lib/lvgl/src/core/lv_obj_style_gen.h ****     lv_style_value_t v = lv_obj_get_style_prop(obj, part, LV_STYLE_ANIM);
 607:Lib/lvgl/src/core/lv_obj_style_gen.h ****     return (const lv_anim_t *)v.ptr;
 608:Lib/lvgl/src/core/lv_obj_style_gen.h **** }
 609:Lib/lvgl/src/core/lv_obj_style_gen.h **** 
 610:Lib/lvgl/src/core/lv_obj_style_gen.h **** static inline uint32_t lv_obj_get_style_anim_duration(const lv_obj_t * obj, uint32_t part)
 611:Lib/lvgl/src/core/lv_obj_style_gen.h **** {
 612:Lib/lvgl/src/core/lv_obj_style_gen.h ****     lv_style_value_t v = lv_obj_get_style_prop(obj, part, LV_STYLE_ANIM_DURATION);
 613:Lib/lvgl/src/core/lv_obj_style_gen.h ****     return (uint32_t)v.num;
 614:Lib/lvgl/src/core/lv_obj_style_gen.h **** }
 615:Lib/lvgl/src/core/lv_obj_style_gen.h **** 
 616:Lib/lvgl/src/core/lv_obj_style_gen.h **** static inline const lv_style_transition_dsc_t * lv_obj_get_style_transition(const lv_obj_t * obj, u
 617:Lib/lvgl/src/core/lv_obj_style_gen.h **** {
 618:Lib/lvgl/src/core/lv_obj_style_gen.h ****     lv_style_value_t v = lv_obj_get_style_prop(obj, part, LV_STYLE_TRANSITION);
 619:Lib/lvgl/src/core/lv_obj_style_gen.h ****     return (const lv_style_transition_dsc_t *)v.ptr;
 620:Lib/lvgl/src/core/lv_obj_style_gen.h **** }
 621:Lib/lvgl/src/core/lv_obj_style_gen.h **** 
 622:Lib/lvgl/src/core/lv_obj_style_gen.h **** static inline lv_blend_mode_t lv_obj_get_style_blend_mode(const lv_obj_t * obj, uint32_t part)
 1711              		.loc 2 622 31 view .LVU444
 1712              	.LBB181:
 623:Lib/lvgl/src/core/lv_obj_style_gen.h **** {
 624:Lib/lvgl/src/core/lv_obj_style_gen.h ****     lv_style_value_t v = lv_obj_get_style_prop(obj, part, LV_STYLE_BLEND_MODE);
 1713              		.loc 2 624 5 view .LVU445
 1714              		.loc 2 624 26 is_stmt 0 view .LVU446
 1715 00b8 6722     		movs	r2, #103
 1716 00ba 2946     		mov	r1, r5
 1717 00bc 3046     		mov	r0, r6
 1718 00be FFF7FEFF 		bl	lv_obj_get_style_prop
 1719              	.LVL145:
 1720 00c2 0190     		str	r0, [sp, #4]
 625:Lib/lvgl/src/core/lv_obj_style_gen.h ****     return (lv_blend_mode_t)v.num;
 1721              		.loc 2 625 5 is_stmt 1 view .LVU447
 1722              	.LVL146:
 1723              		.loc 2 625 5 is_stmt 0 view .LVU448
 1724              	.LBE181:
 1725              	.LBE180:
 163:Lib/lvgl/src/core/lv_obj_draw.c **** 
 1726              		.loc 1 163 51 view .LVU449
 1727 00c4 94F84C30 		ldrb	r3, [r4, #76]	@ zero_extendqisi2
 1728 00c8 60F3C503 		bfi	r3, r0, #3, #3
 1729 00cc 84F84C30 		strb	r3, [r4, #76]
 1730 00d0 E2E7     		b	.L43
 1731              		.cfi_endproc
 1732              	.LFE234:
 1734              		.section	.text.lv_obj_init_draw_image_dsc,"ax",%progbits
 1735              		.align	1
 1736              		.global	lv_obj_init_draw_image_dsc
 1737              		.syntax unified
 1738              		.thumb
 1739              		.thumb_func
 1741              	lv_obj_init_draw_image_dsc:
 1742              	.LVL147:
 1743              	.LFB235:
ARM GAS  C:\Users\Alex\AppData\Local\Temp\cccZpk1s.s 			page 51


 173:Lib/lvgl/src/core/lv_obj_draw.c **** 
 174:Lib/lvgl/src/core/lv_obj_draw.c **** void lv_obj_init_draw_image_dsc(lv_obj_t * obj, uint32_t part, lv_draw_image_dsc_t * draw_dsc)
 175:Lib/lvgl/src/core/lv_obj_draw.c **** {
 1744              		.loc 1 175 1 is_stmt 1 view -0
 1745              		.cfi_startproc
 1746              		@ args = 0, pretend = 0, frame = 8
 1747              		@ frame_needed = 0, uses_anonymous_args = 0
 1748              		.loc 1 175 1 is_stmt 0 view .LVU451
 1749 0000 70B5     		push	{r4, r5, r6, lr}
 1750              	.LCFI38:
 1751              		.cfi_def_cfa_offset 16
 1752              		.cfi_offset 4, -16
 1753              		.cfi_offset 5, -12
 1754              		.cfi_offset 6, -8
 1755              		.cfi_offset 14, -4
 1756 0002 82B0     		sub	sp, sp, #8
 1757              	.LCFI39:
 1758              		.cfi_def_cfa_offset 24
 1759 0004 0546     		mov	r5, r0
 1760 0006 0E46     		mov	r6, r1
 1761 0008 1446     		mov	r4, r2
 176:Lib/lvgl/src/core/lv_obj_draw.c ****     draw_dsc->base.obj = obj;
 1762              		.loc 1 176 5 is_stmt 1 view .LVU452
 1763              		.loc 1 176 24 is_stmt 0 view .LVU453
 1764 000a 1060     		str	r0, [r2]
 177:Lib/lvgl/src/core/lv_obj_draw.c ****     draw_dsc->base.part = part;
 1765              		.loc 1 177 5 is_stmt 1 view .LVU454
 1766              		.loc 1 177 25 is_stmt 0 view .LVU455
 1767 000c 5160     		str	r1, [r2, #4]
 178:Lib/lvgl/src/core/lv_obj_draw.c **** 
 179:Lib/lvgl/src/core/lv_obj_draw.c ****     draw_dsc->opa = lv_obj_get_style_image_opa(obj, part);
 1768              		.loc 1 179 5 is_stmt 1 view .LVU456
 1769              	.LVL148:
 1770              	.LBB182:
 1771              	.LBI182:
 417:Lib/lvgl/src/core/lv_obj_style_gen.h **** {
 1772              		.loc 2 417 24 view .LVU457
 1773              	.LBB183:
 419:Lib/lvgl/src/core/lv_obj_style_gen.h ****     return (lv_opa_t)v.num;
 1774              		.loc 2 419 5 view .LVU458
 419:Lib/lvgl/src/core/lv_obj_style_gen.h ****     return (lv_opa_t)v.num;
 1775              		.loc 2 419 26 is_stmt 0 view .LVU459
 1776 000e 4422     		movs	r2, #68
 1777              	.LVL149:
 419:Lib/lvgl/src/core/lv_obj_style_gen.h ****     return (lv_opa_t)v.num;
 1778              		.loc 2 419 26 view .LVU460
 1779 0010 FFF7FEFF 		bl	lv_obj_get_style_prop
 1780              	.LVL150:
 419:Lib/lvgl/src/core/lv_obj_style_gen.h ****     return (lv_opa_t)v.num;
 1781              		.loc 2 419 26 view .LVU461
 1782 0014 0190     		str	r0, [sp, #4]
 420:Lib/lvgl/src/core/lv_obj_style_gen.h **** }
 1783              		.loc 2 420 5 is_stmt 1 view .LVU462
 420:Lib/lvgl/src/core/lv_obj_style_gen.h **** }
 1784              		.loc 2 420 12 is_stmt 0 view .LVU463
 1785 0016 C3B2     		uxtb	r3, r0
 1786              	.LVL151:
ARM GAS  C:\Users\Alex\AppData\Local\Temp\cccZpk1s.s 			page 52


 420:Lib/lvgl/src/core/lv_obj_style_gen.h **** }
 1787              		.loc 2 420 12 view .LVU464
 1788              	.LBE183:
 1789              	.LBE182:
 1790              		.loc 1 179 19 view .LVU465
 1791 0018 84F84C30 		strb	r3, [r4, #76]
 180:Lib/lvgl/src/core/lv_obj_draw.c ****     if(draw_dsc->opa <= LV_OPA_MIN) return;
 1792              		.loc 1 180 5 is_stmt 1 view .LVU466
 1793              		.loc 1 180 7 is_stmt 0 view .LVU467
 1794 001c 022B     		cmp	r3, #2
 1795 001e 01D8     		bhi	.L51
 1796              	.L47:
 181:Lib/lvgl/src/core/lv_obj_draw.c **** 
 182:Lib/lvgl/src/core/lv_obj_draw.c ****     lv_opa_t opa = lv_obj_get_style_opa_recursive(obj, part);
 183:Lib/lvgl/src/core/lv_obj_draw.c ****     if(opa < LV_OPA_MAX) {
 184:Lib/lvgl/src/core/lv_obj_draw.c ****         draw_dsc->opa = LV_OPA_MIX2(draw_dsc->opa, opa);
 185:Lib/lvgl/src/core/lv_obj_draw.c ****     }
 186:Lib/lvgl/src/core/lv_obj_draw.c ****     if(draw_dsc->opa <= LV_OPA_MIN) return;
 187:Lib/lvgl/src/core/lv_obj_draw.c **** 
 188:Lib/lvgl/src/core/lv_obj_draw.c ****     draw_dsc->rotation = 0;
 189:Lib/lvgl/src/core/lv_obj_draw.c ****     draw_dsc->scale_x = LV_SCALE_NONE;
 190:Lib/lvgl/src/core/lv_obj_draw.c ****     draw_dsc->scale_y = LV_SCALE_NONE;
 191:Lib/lvgl/src/core/lv_obj_draw.c ****     draw_dsc->pivot.x = lv_area_get_width(&obj->coords) / 2;
 192:Lib/lvgl/src/core/lv_obj_draw.c ****     draw_dsc->pivot.y = lv_area_get_height(&obj->coords) / 2;
 193:Lib/lvgl/src/core/lv_obj_draw.c **** 
 194:Lib/lvgl/src/core/lv_obj_draw.c ****     draw_dsc->recolor_opa = lv_obj_get_style_image_recolor_opa(obj, part);
 195:Lib/lvgl/src/core/lv_obj_draw.c ****     draw_dsc->recolor = lv_obj_get_style_image_recolor_filtered(obj, part);
 196:Lib/lvgl/src/core/lv_obj_draw.c **** 
 197:Lib/lvgl/src/core/lv_obj_draw.c ****     if(part != LV_PART_MAIN) draw_dsc->blend_mode = lv_obj_get_style_blend_mode(obj, part);
 198:Lib/lvgl/src/core/lv_obj_draw.c **** }
 1797              		.loc 1 198 1 view .LVU468
 1798 0020 02B0     		add	sp, sp, #8
 1799              	.LCFI40:
 1800              		.cfi_remember_state
 1801              		.cfi_def_cfa_offset 16
 1802              		@ sp needed
 1803 0022 70BD     		pop	{r4, r5, r6, pc}
 1804              	.LVL152:
 1805              	.L51:
 1806              	.LCFI41:
 1807              		.cfi_restore_state
 182:Lib/lvgl/src/core/lv_obj_draw.c ****     if(opa < LV_OPA_MAX) {
 1808              		.loc 1 182 5 is_stmt 1 view .LVU469
 182:Lib/lvgl/src/core/lv_obj_draw.c ****     if(opa < LV_OPA_MAX) {
 1809              		.loc 1 182 20 is_stmt 0 view .LVU470
 1810 0024 3146     		mov	r1, r6
 1811 0026 2846     		mov	r0, r5
 1812 0028 FFF7FEFF 		bl	lv_obj_get_style_opa_recursive
 1813              	.LVL153:
 183:Lib/lvgl/src/core/lv_obj_draw.c ****         draw_dsc->opa = LV_OPA_MIX2(draw_dsc->opa, opa);
 1814              		.loc 1 183 5 is_stmt 1 view .LVU471
 183:Lib/lvgl/src/core/lv_obj_draw.c ****         draw_dsc->opa = LV_OPA_MIX2(draw_dsc->opa, opa);
 1815              		.loc 1 183 7 is_stmt 0 view .LVU472
 1816 002c FC28     		cmp	r0, #252
 1817 002e 06D8     		bhi	.L49
 184:Lib/lvgl/src/core/lv_obj_draw.c ****     }
 1818              		.loc 1 184 9 is_stmt 1 view .LVU473
ARM GAS  C:\Users\Alex\AppData\Local\Temp\cccZpk1s.s 			page 53


 184:Lib/lvgl/src/core/lv_obj_draw.c ****     }
 1819              		.loc 1 184 25 is_stmt 0 view .LVU474
 1820 0030 94F84C30 		ldrb	r3, [r4, #76]	@ zero_extendqisi2
 1821 0034 03FB00F0 		mul	r0, r3, r0
 1822              	.LVL154:
 184:Lib/lvgl/src/core/lv_obj_draw.c ****     }
 1823              		.loc 1 184 25 view .LVU475
 1824 0038 0012     		asrs	r0, r0, #8
 184:Lib/lvgl/src/core/lv_obj_draw.c ****     }
 1825              		.loc 1 184 23 view .LVU476
 1826 003a 84F84C00 		strb	r0, [r4, #76]
 1827              	.L49:
 186:Lib/lvgl/src/core/lv_obj_draw.c **** 
 1828              		.loc 1 186 5 is_stmt 1 view .LVU477
 186:Lib/lvgl/src/core/lv_obj_draw.c **** 
 1829              		.loc 1 186 16 is_stmt 0 view .LVU478
 1830 003e 94F84C30 		ldrb	r3, [r4, #76]	@ zero_extendqisi2
 186:Lib/lvgl/src/core/lv_obj_draw.c **** 
 1831              		.loc 1 186 7 view .LVU479
 1832 0042 022B     		cmp	r3, #2
 1833 0044 ECD9     		bls	.L47
 188:Lib/lvgl/src/core/lv_obj_draw.c ****     draw_dsc->scale_x = LV_SCALE_NONE;
 1834              		.loc 1 188 5 is_stmt 1 view .LVU480
 188:Lib/lvgl/src/core/lv_obj_draw.c ****     draw_dsc->scale_x = LV_SCALE_NONE;
 1835              		.loc 1 188 24 is_stmt 0 view .LVU481
 1836 0046 0023     		movs	r3, #0
 1837 0048 E362     		str	r3, [r4, #44]
 189:Lib/lvgl/src/core/lv_obj_draw.c ****     draw_dsc->scale_y = LV_SCALE_NONE;
 1838              		.loc 1 189 5 is_stmt 1 view .LVU482
 189:Lib/lvgl/src/core/lv_obj_draw.c ****     draw_dsc->scale_y = LV_SCALE_NONE;
 1839              		.loc 1 189 23 is_stmt 0 view .LVU483
 1840 004a 4FF48073 		mov	r3, #256
 1841 004e 2363     		str	r3, [r4, #48]
 190:Lib/lvgl/src/core/lv_obj_draw.c ****     draw_dsc->pivot.x = lv_area_get_width(&obj->coords) / 2;
 1842              		.loc 1 190 5 is_stmt 1 view .LVU484
 190:Lib/lvgl/src/core/lv_obj_draw.c ****     draw_dsc->pivot.x = lv_area_get_width(&obj->coords) / 2;
 1843              		.loc 1 190 23 is_stmt 0 view .LVU485
 1844 0050 6363     		str	r3, [r4, #52]
 191:Lib/lvgl/src/core/lv_obj_draw.c ****     draw_dsc->pivot.y = lv_area_get_height(&obj->coords) / 2;
 1845              		.loc 1 191 5 is_stmt 1 view .LVU486
 1846              	.LVL155:
 1847              	.LBB184:
 1848              	.LBI184:
 1849              		.file 3 "Lib/lvgl/src/core/../draw/../misc/../font/../draw/../misc/lv_area.h"
   1:Lib/lvgl/src/core/../draw/../misc/../font/../draw/../misc/lv_area.h **** /**
   2:Lib/lvgl/src/core/../draw/../misc/../font/../draw/../misc/lv_area.h ****  * @file lv_area.h
   3:Lib/lvgl/src/core/../draw/../misc/../font/../draw/../misc/lv_area.h ****  *
   4:Lib/lvgl/src/core/../draw/../misc/../font/../draw/../misc/lv_area.h ****  */
   5:Lib/lvgl/src/core/../draw/../misc/../font/../draw/../misc/lv_area.h **** 
   6:Lib/lvgl/src/core/../draw/../misc/../font/../draw/../misc/lv_area.h **** #ifndef LV_AREA_H
   7:Lib/lvgl/src/core/../draw/../misc/../font/../draw/../misc/lv_area.h **** #define LV_AREA_H
   8:Lib/lvgl/src/core/../draw/../misc/../font/../draw/../misc/lv_area.h **** 
   9:Lib/lvgl/src/core/../draw/../misc/../font/../draw/../misc/lv_area.h **** #ifdef __cplusplus
  10:Lib/lvgl/src/core/../draw/../misc/../font/../draw/../misc/lv_area.h **** extern "C" {
  11:Lib/lvgl/src/core/../draw/../misc/../font/../draw/../misc/lv_area.h **** #endif
  12:Lib/lvgl/src/core/../draw/../misc/../font/../draw/../misc/lv_area.h **** 
  13:Lib/lvgl/src/core/../draw/../misc/../font/../draw/../misc/lv_area.h **** /*********************
ARM GAS  C:\Users\Alex\AppData\Local\Temp\cccZpk1s.s 			page 54


  14:Lib/lvgl/src/core/../draw/../misc/../font/../draw/../misc/lv_area.h ****  *      INCLUDES
  15:Lib/lvgl/src/core/../draw/../misc/../font/../draw/../misc/lv_area.h ****  *********************/
  16:Lib/lvgl/src/core/../draw/../misc/../font/../draw/../misc/lv_area.h **** #include "../lv_conf_internal.h"
  17:Lib/lvgl/src/core/../draw/../misc/../font/../draw/../misc/lv_area.h **** #include "lv_types.h"
  18:Lib/lvgl/src/core/../draw/../misc/../font/../draw/../misc/lv_area.h **** #include <stdbool.h>
  19:Lib/lvgl/src/core/../draw/../misc/../font/../draw/../misc/lv_area.h **** #include <stdint.h>
  20:Lib/lvgl/src/core/../draw/../misc/../font/../draw/../misc/lv_area.h **** 
  21:Lib/lvgl/src/core/../draw/../misc/../font/../draw/../misc/lv_area.h **** /*********************
  22:Lib/lvgl/src/core/../draw/../misc/../font/../draw/../misc/lv_area.h ****  *      DEFINES
  23:Lib/lvgl/src/core/../draw/../misc/../font/../draw/../misc/lv_area.h ****  *********************/
  24:Lib/lvgl/src/core/../draw/../misc/../font/../draw/../misc/lv_area.h **** 
  25:Lib/lvgl/src/core/../draw/../misc/../font/../draw/../misc/lv_area.h **** /**********************
  26:Lib/lvgl/src/core/../draw/../misc/../font/../draw/../misc/lv_area.h ****  *      TYPEDEFS
  27:Lib/lvgl/src/core/../draw/../misc/../font/../draw/../misc/lv_area.h ****  **********************/
  28:Lib/lvgl/src/core/../draw/../misc/../font/../draw/../misc/lv_area.h **** 
  29:Lib/lvgl/src/core/../draw/../misc/../font/../draw/../misc/lv_area.h **** /**
  30:Lib/lvgl/src/core/../draw/../misc/../font/../draw/../misc/lv_area.h ****  * Represents a point on the screen.
  31:Lib/lvgl/src/core/../draw/../misc/../font/../draw/../misc/lv_area.h ****  */
  32:Lib/lvgl/src/core/../draw/../misc/../font/../draw/../misc/lv_area.h **** typedef struct {
  33:Lib/lvgl/src/core/../draw/../misc/../font/../draw/../misc/lv_area.h ****     int32_t x;
  34:Lib/lvgl/src/core/../draw/../misc/../font/../draw/../misc/lv_area.h ****     int32_t y;
  35:Lib/lvgl/src/core/../draw/../misc/../font/../draw/../misc/lv_area.h **** } lv_point_t;
  36:Lib/lvgl/src/core/../draw/../misc/../font/../draw/../misc/lv_area.h **** 
  37:Lib/lvgl/src/core/../draw/../misc/../font/../draw/../misc/lv_area.h **** typedef struct {
  38:Lib/lvgl/src/core/../draw/../misc/../font/../draw/../misc/lv_area.h ****     lv_value_precise_t x;
  39:Lib/lvgl/src/core/../draw/../misc/../font/../draw/../misc/lv_area.h ****     lv_value_precise_t y;
  40:Lib/lvgl/src/core/../draw/../misc/../font/../draw/../misc/lv_area.h **** } lv_point_precise_t;
  41:Lib/lvgl/src/core/../draw/../misc/../font/../draw/../misc/lv_area.h **** 
  42:Lib/lvgl/src/core/../draw/../misc/../font/../draw/../misc/lv_area.h **** /** Represents an area of the screen.*/
  43:Lib/lvgl/src/core/../draw/../misc/../font/../draw/../misc/lv_area.h **** typedef struct {
  44:Lib/lvgl/src/core/../draw/../misc/../font/../draw/../misc/lv_area.h ****     int32_t x1;
  45:Lib/lvgl/src/core/../draw/../misc/../font/../draw/../misc/lv_area.h ****     int32_t y1;
  46:Lib/lvgl/src/core/../draw/../misc/../font/../draw/../misc/lv_area.h ****     int32_t x2;
  47:Lib/lvgl/src/core/../draw/../misc/../font/../draw/../misc/lv_area.h ****     int32_t y2;
  48:Lib/lvgl/src/core/../draw/../misc/../font/../draw/../misc/lv_area.h **** } lv_area_t;
  49:Lib/lvgl/src/core/../draw/../misc/../font/../draw/../misc/lv_area.h **** 
  50:Lib/lvgl/src/core/../draw/../misc/../font/../draw/../misc/lv_area.h **** /** Alignments*/
  51:Lib/lvgl/src/core/../draw/../misc/../font/../draw/../misc/lv_area.h **** 
  52:Lib/lvgl/src/core/../draw/../misc/../font/../draw/../misc/lv_area.h **** enum _lv_align_t {
  53:Lib/lvgl/src/core/../draw/../misc/../font/../draw/../misc/lv_area.h ****     LV_ALIGN_DEFAULT = 0,
  54:Lib/lvgl/src/core/../draw/../misc/../font/../draw/../misc/lv_area.h ****     LV_ALIGN_TOP_LEFT,
  55:Lib/lvgl/src/core/../draw/../misc/../font/../draw/../misc/lv_area.h ****     LV_ALIGN_TOP_MID,
  56:Lib/lvgl/src/core/../draw/../misc/../font/../draw/../misc/lv_area.h ****     LV_ALIGN_TOP_RIGHT,
  57:Lib/lvgl/src/core/../draw/../misc/../font/../draw/../misc/lv_area.h ****     LV_ALIGN_BOTTOM_LEFT,
  58:Lib/lvgl/src/core/../draw/../misc/../font/../draw/../misc/lv_area.h ****     LV_ALIGN_BOTTOM_MID,
  59:Lib/lvgl/src/core/../draw/../misc/../font/../draw/../misc/lv_area.h ****     LV_ALIGN_BOTTOM_RIGHT,
  60:Lib/lvgl/src/core/../draw/../misc/../font/../draw/../misc/lv_area.h ****     LV_ALIGN_LEFT_MID,
  61:Lib/lvgl/src/core/../draw/../misc/../font/../draw/../misc/lv_area.h ****     LV_ALIGN_RIGHT_MID,
  62:Lib/lvgl/src/core/../draw/../misc/../font/../draw/../misc/lv_area.h ****     LV_ALIGN_CENTER,
  63:Lib/lvgl/src/core/../draw/../misc/../font/../draw/../misc/lv_area.h **** 
  64:Lib/lvgl/src/core/../draw/../misc/../font/../draw/../misc/lv_area.h ****     LV_ALIGN_OUT_TOP_LEFT,
  65:Lib/lvgl/src/core/../draw/../misc/../font/../draw/../misc/lv_area.h ****     LV_ALIGN_OUT_TOP_MID,
  66:Lib/lvgl/src/core/../draw/../misc/../font/../draw/../misc/lv_area.h ****     LV_ALIGN_OUT_TOP_RIGHT,
  67:Lib/lvgl/src/core/../draw/../misc/../font/../draw/../misc/lv_area.h ****     LV_ALIGN_OUT_BOTTOM_LEFT,
  68:Lib/lvgl/src/core/../draw/../misc/../font/../draw/../misc/lv_area.h ****     LV_ALIGN_OUT_BOTTOM_MID,
  69:Lib/lvgl/src/core/../draw/../misc/../font/../draw/../misc/lv_area.h ****     LV_ALIGN_OUT_BOTTOM_RIGHT,
  70:Lib/lvgl/src/core/../draw/../misc/../font/../draw/../misc/lv_area.h ****     LV_ALIGN_OUT_LEFT_TOP,
ARM GAS  C:\Users\Alex\AppData\Local\Temp\cccZpk1s.s 			page 55


  71:Lib/lvgl/src/core/../draw/../misc/../font/../draw/../misc/lv_area.h ****     LV_ALIGN_OUT_LEFT_MID,
  72:Lib/lvgl/src/core/../draw/../misc/../font/../draw/../misc/lv_area.h ****     LV_ALIGN_OUT_LEFT_BOTTOM,
  73:Lib/lvgl/src/core/../draw/../misc/../font/../draw/../misc/lv_area.h ****     LV_ALIGN_OUT_RIGHT_TOP,
  74:Lib/lvgl/src/core/../draw/../misc/../font/../draw/../misc/lv_area.h ****     LV_ALIGN_OUT_RIGHT_MID,
  75:Lib/lvgl/src/core/../draw/../misc/../font/../draw/../misc/lv_area.h ****     LV_ALIGN_OUT_RIGHT_BOTTOM,
  76:Lib/lvgl/src/core/../draw/../misc/../font/../draw/../misc/lv_area.h **** };
  77:Lib/lvgl/src/core/../draw/../misc/../font/../draw/../misc/lv_area.h **** 
  78:Lib/lvgl/src/core/../draw/../misc/../font/../draw/../misc/lv_area.h **** #ifdef DOXYGEN
  79:Lib/lvgl/src/core/../draw/../misc/../font/../draw/../misc/lv_area.h **** typedef _lv_align_t lv_align_t;
  80:Lib/lvgl/src/core/../draw/../misc/../font/../draw/../misc/lv_area.h **** #else
  81:Lib/lvgl/src/core/../draw/../misc/../font/../draw/../misc/lv_area.h **** typedef uint8_t lv_align_t;
  82:Lib/lvgl/src/core/../draw/../misc/../font/../draw/../misc/lv_area.h **** #endif /*DOXYGEN*/
  83:Lib/lvgl/src/core/../draw/../misc/../font/../draw/../misc/lv_area.h **** 
  84:Lib/lvgl/src/core/../draw/../misc/../font/../draw/../misc/lv_area.h **** enum _lv_dir_t {
  85:Lib/lvgl/src/core/../draw/../misc/../font/../draw/../misc/lv_area.h ****     LV_DIR_NONE     = 0x00,
  86:Lib/lvgl/src/core/../draw/../misc/../font/../draw/../misc/lv_area.h ****     LV_DIR_LEFT     = (1 << 0),
  87:Lib/lvgl/src/core/../draw/../misc/../font/../draw/../misc/lv_area.h ****     LV_DIR_RIGHT    = (1 << 1),
  88:Lib/lvgl/src/core/../draw/../misc/../font/../draw/../misc/lv_area.h ****     LV_DIR_TOP      = (1 << 2),
  89:Lib/lvgl/src/core/../draw/../misc/../font/../draw/../misc/lv_area.h ****     LV_DIR_BOTTOM   = (1 << 3),
  90:Lib/lvgl/src/core/../draw/../misc/../font/../draw/../misc/lv_area.h ****     LV_DIR_HOR      = LV_DIR_LEFT | LV_DIR_RIGHT,
  91:Lib/lvgl/src/core/../draw/../misc/../font/../draw/../misc/lv_area.h ****     LV_DIR_VER      = LV_DIR_TOP | LV_DIR_BOTTOM,
  92:Lib/lvgl/src/core/../draw/../misc/../font/../draw/../misc/lv_area.h ****     LV_DIR_ALL      = LV_DIR_HOR | LV_DIR_VER,
  93:Lib/lvgl/src/core/../draw/../misc/../font/../draw/../misc/lv_area.h **** };
  94:Lib/lvgl/src/core/../draw/../misc/../font/../draw/../misc/lv_area.h **** 
  95:Lib/lvgl/src/core/../draw/../misc/../font/../draw/../misc/lv_area.h **** #ifdef DOXYGEN
  96:Lib/lvgl/src/core/../draw/../misc/../font/../draw/../misc/lv_area.h **** typedef _lv_dir_t lv_dir_t;
  97:Lib/lvgl/src/core/../draw/../misc/../font/../draw/../misc/lv_area.h **** #else
  98:Lib/lvgl/src/core/../draw/../misc/../font/../draw/../misc/lv_area.h **** typedef uint8_t lv_dir_t;
  99:Lib/lvgl/src/core/../draw/../misc/../font/../draw/../misc/lv_area.h **** #endif /*DOXYGEN*/
 100:Lib/lvgl/src/core/../draw/../misc/../font/../draw/../misc/lv_area.h **** 
 101:Lib/lvgl/src/core/../draw/../misc/../font/../draw/../misc/lv_area.h **** typedef struct  {
 102:Lib/lvgl/src/core/../draw/../misc/../font/../draw/../misc/lv_area.h ****     int32_t angle_prev;
 103:Lib/lvgl/src/core/../draw/../misc/../font/../draw/../misc/lv_area.h ****     int32_t sinma;
 104:Lib/lvgl/src/core/../draw/../misc/../font/../draw/../misc/lv_area.h ****     int32_t cosma;
 105:Lib/lvgl/src/core/../draw/../misc/../font/../draw/../misc/lv_area.h **** } lv_area_transform_cache_t;
 106:Lib/lvgl/src/core/../draw/../misc/../font/../draw/../misc/lv_area.h **** 
 107:Lib/lvgl/src/core/../draw/../misc/../font/../draw/../misc/lv_area.h **** /**********************
 108:Lib/lvgl/src/core/../draw/../misc/../font/../draw/../misc/lv_area.h ****  * GLOBAL PROTOTYPES
 109:Lib/lvgl/src/core/../draw/../misc/../font/../draw/../misc/lv_area.h ****  **********************/
 110:Lib/lvgl/src/core/../draw/../misc/../font/../draw/../misc/lv_area.h **** 
 111:Lib/lvgl/src/core/../draw/../misc/../font/../draw/../misc/lv_area.h **** /**
 112:Lib/lvgl/src/core/../draw/../misc/../font/../draw/../misc/lv_area.h ****  * Initialize an area
 113:Lib/lvgl/src/core/../draw/../misc/../font/../draw/../misc/lv_area.h ****  * @param area_p pointer to an area
 114:Lib/lvgl/src/core/../draw/../misc/../font/../draw/../misc/lv_area.h ****  * @param x1 left coordinate of the area
 115:Lib/lvgl/src/core/../draw/../misc/../font/../draw/../misc/lv_area.h ****  * @param y1 top coordinate of the area
 116:Lib/lvgl/src/core/../draw/../misc/../font/../draw/../misc/lv_area.h ****  * @param x2 right coordinate of the area
 117:Lib/lvgl/src/core/../draw/../misc/../font/../draw/../misc/lv_area.h ****  * @param y2 bottom coordinate of the area
 118:Lib/lvgl/src/core/../draw/../misc/../font/../draw/../misc/lv_area.h ****  */
 119:Lib/lvgl/src/core/../draw/../misc/../font/../draw/../misc/lv_area.h **** void lv_area_set(lv_area_t * area_p, int32_t x1, int32_t y1, int32_t x2, int32_t y2);
 120:Lib/lvgl/src/core/../draw/../misc/../font/../draw/../misc/lv_area.h **** 
 121:Lib/lvgl/src/core/../draw/../misc/../font/../draw/../misc/lv_area.h **** /**
 122:Lib/lvgl/src/core/../draw/../misc/../font/../draw/../misc/lv_area.h ****  * Copy an area
 123:Lib/lvgl/src/core/../draw/../misc/../font/../draw/../misc/lv_area.h ****  * @param dest pointer to the destination area
 124:Lib/lvgl/src/core/../draw/../misc/../font/../draw/../misc/lv_area.h ****  * @param src pointer to the source area
 125:Lib/lvgl/src/core/../draw/../misc/../font/../draw/../misc/lv_area.h ****  */
 126:Lib/lvgl/src/core/../draw/../misc/../font/../draw/../misc/lv_area.h **** inline static void lv_area_copy(lv_area_t * dest, const lv_area_t * src)
 127:Lib/lvgl/src/core/../draw/../misc/../font/../draw/../misc/lv_area.h **** {
ARM GAS  C:\Users\Alex\AppData\Local\Temp\cccZpk1s.s 			page 56


 128:Lib/lvgl/src/core/../draw/../misc/../font/../draw/../misc/lv_area.h ****     dest->x1 = src->x1;
 129:Lib/lvgl/src/core/../draw/../misc/../font/../draw/../misc/lv_area.h ****     dest->y1 = src->y1;
 130:Lib/lvgl/src/core/../draw/../misc/../font/../draw/../misc/lv_area.h ****     dest->x2 = src->x2;
 131:Lib/lvgl/src/core/../draw/../misc/../font/../draw/../misc/lv_area.h ****     dest->y2 = src->y2;
 132:Lib/lvgl/src/core/../draw/../misc/../font/../draw/../misc/lv_area.h **** }
 133:Lib/lvgl/src/core/../draw/../misc/../font/../draw/../misc/lv_area.h **** 
 134:Lib/lvgl/src/core/../draw/../misc/../font/../draw/../misc/lv_area.h **** /**
 135:Lib/lvgl/src/core/../draw/../misc/../font/../draw/../misc/lv_area.h ****  * Get the width of an area
 136:Lib/lvgl/src/core/../draw/../misc/../font/../draw/../misc/lv_area.h ****  * @param area_p pointer to an area
 137:Lib/lvgl/src/core/../draw/../misc/../font/../draw/../misc/lv_area.h ****  * @return the width of the area (if x1 == x2 -> width = 1)
 138:Lib/lvgl/src/core/../draw/../misc/../font/../draw/../misc/lv_area.h ****  */
 139:Lib/lvgl/src/core/../draw/../misc/../font/../draw/../misc/lv_area.h **** static inline int32_t lv_area_get_width(const lv_area_t * area_p)
 1850              		.loc 3 139 23 view .LVU487
 1851              	.LBB185:
 140:Lib/lvgl/src/core/../draw/../misc/../font/../draw/../misc/lv_area.h **** {
 141:Lib/lvgl/src/core/../draw/../misc/../font/../draw/../misc/lv_area.h ****     return (int32_t)(area_p->x2 - area_p->x1 + 1);
 1852              		.loc 3 141 5 view .LVU488
 1853              		.loc 3 141 28 is_stmt 0 view .LVU489
 1854 0052 EB69     		ldr	r3, [r5, #28]
 1855              		.loc 3 141 41 view .LVU490
 1856 0054 6A69     		ldr	r2, [r5, #20]
 1857              		.loc 3 141 33 view .LVU491
 1858 0056 9B1A     		subs	r3, r3, r2
 1859              		.loc 3 141 12 view .LVU492
 1860 0058 0133     		adds	r3, r3, #1
 1861              	.LVL156:
 1862              		.loc 3 141 12 view .LVU493
 1863              	.LBE185:
 1864              	.LBE184:
 191:Lib/lvgl/src/core/lv_obj_draw.c ****     draw_dsc->pivot.y = lv_area_get_height(&obj->coords) / 2;
 1865              		.loc 1 191 57 view .LVU494
 1866 005a 03EBD373 		add	r3, r3, r3, lsr #31
 1867 005e 5B10     		asrs	r3, r3, #1
 191:Lib/lvgl/src/core/lv_obj_draw.c ****     draw_dsc->pivot.y = lv_area_get_height(&obj->coords) / 2;
 1868              		.loc 1 191 23 view .LVU495
 1869 0060 2364     		str	r3, [r4, #64]
 192:Lib/lvgl/src/core/lv_obj_draw.c **** 
 1870              		.loc 1 192 5 is_stmt 1 view .LVU496
 1871              	.LVL157:
 1872              	.LBB186:
 1873              	.LBI186:
 142:Lib/lvgl/src/core/../draw/../misc/../font/../draw/../misc/lv_area.h **** }
 143:Lib/lvgl/src/core/../draw/../misc/../font/../draw/../misc/lv_area.h **** 
 144:Lib/lvgl/src/core/../draw/../misc/../font/../draw/../misc/lv_area.h **** /**
 145:Lib/lvgl/src/core/../draw/../misc/../font/../draw/../misc/lv_area.h ****  * Get the height of an area
 146:Lib/lvgl/src/core/../draw/../misc/../font/../draw/../misc/lv_area.h ****  * @param area_p pointer to an area
 147:Lib/lvgl/src/core/../draw/../misc/../font/../draw/../misc/lv_area.h ****  * @return the height of the area (if y1 == y2 -> height = 1)
 148:Lib/lvgl/src/core/../draw/../misc/../font/../draw/../misc/lv_area.h ****  */
 149:Lib/lvgl/src/core/../draw/../misc/../font/../draw/../misc/lv_area.h **** static inline int32_t lv_area_get_height(const lv_area_t * area_p)
 1874              		.loc 3 149 23 view .LVU497
 1875              	.LBB187:
 150:Lib/lvgl/src/core/../draw/../misc/../font/../draw/../misc/lv_area.h **** {
 151:Lib/lvgl/src/core/../draw/../misc/../font/../draw/../misc/lv_area.h ****     return (int32_t)(area_p->y2 - area_p->y1 + 1);
 1876              		.loc 3 151 5 view .LVU498
 1877              		.loc 3 151 28 is_stmt 0 view .LVU499
 1878 0062 2B6A     		ldr	r3, [r5, #32]
 1879              		.loc 3 151 41 view .LVU500
ARM GAS  C:\Users\Alex\AppData\Local\Temp\cccZpk1s.s 			page 57


 1880 0064 AA69     		ldr	r2, [r5, #24]
 1881              		.loc 3 151 33 view .LVU501
 1882 0066 9B1A     		subs	r3, r3, r2
 1883              		.loc 3 151 12 view .LVU502
 1884 0068 0133     		adds	r3, r3, #1
 1885              	.LVL158:
 1886              		.loc 3 151 12 view .LVU503
 1887              	.LBE187:
 1888              	.LBE186:
 192:Lib/lvgl/src/core/lv_obj_draw.c **** 
 1889              		.loc 1 192 58 view .LVU504
 1890 006a 03EBD373 		add	r3, r3, r3, lsr #31
 1891 006e 5B10     		asrs	r3, r3, #1
 192:Lib/lvgl/src/core/lv_obj_draw.c **** 
 1892              		.loc 1 192 23 view .LVU505
 1893 0070 6364     		str	r3, [r4, #68]
 194:Lib/lvgl/src/core/lv_obj_draw.c ****     draw_dsc->recolor = lv_obj_get_style_image_recolor_filtered(obj, part);
 1894              		.loc 1 194 5 is_stmt 1 view .LVU506
 1895              	.LVL159:
 1896              	.LBB188:
 1897              	.LBI188:
 436:Lib/lvgl/src/core/lv_obj_style_gen.h **** {
 1898              		.loc 2 436 24 view .LVU507
 1899              	.LBB189:
 438:Lib/lvgl/src/core/lv_obj_style_gen.h ****     return (lv_opa_t)v.num;
 1900              		.loc 2 438 5 view .LVU508
 438:Lib/lvgl/src/core/lv_obj_style_gen.h ****     return (lv_opa_t)v.num;
 1901              		.loc 2 438 26 is_stmt 0 view .LVU509
 1902 0072 4622     		movs	r2, #70
 1903 0074 3146     		mov	r1, r6
 1904 0076 2846     		mov	r0, r5
 1905 0078 FFF7FEFF 		bl	lv_obj_get_style_prop
 1906              	.LVL160:
 1907 007c 0190     		str	r0, [sp, #4]
 439:Lib/lvgl/src/core/lv_obj_style_gen.h **** }
 1908              		.loc 2 439 5 is_stmt 1 view .LVU510
 1909              	.LVL161:
 439:Lib/lvgl/src/core/lv_obj_style_gen.h **** }
 1910              		.loc 2 439 5 is_stmt 0 view .LVU511
 1911              	.LBE189:
 1912              	.LBE188:
 194:Lib/lvgl/src/core/lv_obj_draw.c ****     draw_dsc->recolor = lv_obj_get_style_image_recolor_filtered(obj, part);
 1913              		.loc 1 194 27 view .LVU512
 1914 007e 84F84B00 		strb	r0, [r4, #75]
 195:Lib/lvgl/src/core/lv_obj_draw.c **** 
 1915              		.loc 1 195 5 is_stmt 1 view .LVU513
 195:Lib/lvgl/src/core/lv_obj_draw.c **** 
 1916              		.loc 1 195 25 is_stmt 0 view .LVU514
 1917 0082 3146     		mov	r1, r6
 1918 0084 2846     		mov	r0, r5
 1919 0086 FFF7FEFF 		bl	lv_obj_get_style_image_recolor_filtered
 1920              	.LVL162:
 1921 008a 84F84800 		strb	r0, [r4, #72]
 1922 008e C0F30723 		ubfx	r3, r0, #8, #8
 1923 0092 84F84930 		strb	r3, [r4, #73]
 1924 0096 C0F30740 		ubfx	r0, r0, #16, #8
 1925 009a 84F84A00 		strb	r0, [r4, #74]
ARM GAS  C:\Users\Alex\AppData\Local\Temp\cccZpk1s.s 			page 58


 197:Lib/lvgl/src/core/lv_obj_draw.c **** }
 1926              		.loc 1 197 5 is_stmt 1 view .LVU515
 197:Lib/lvgl/src/core/lv_obj_draw.c **** }
 1927              		.loc 1 197 7 is_stmt 0 view .LVU516
 1928 009e 002E     		cmp	r6, #0
 1929 00a0 BED0     		beq	.L47
 197:Lib/lvgl/src/core/lv_obj_draw.c **** }
 1930              		.loc 1 197 30 is_stmt 1 view .LVU517
 1931              	.LVL163:
 1932              	.LBB190:
 1933              	.LBI190:
 622:Lib/lvgl/src/core/lv_obj_style_gen.h **** {
 1934              		.loc 2 622 31 view .LVU518
 1935              	.LBB191:
 624:Lib/lvgl/src/core/lv_obj_style_gen.h ****     return (lv_blend_mode_t)v.num;
 1936              		.loc 2 624 5 view .LVU519
 624:Lib/lvgl/src/core/lv_obj_style_gen.h ****     return (lv_blend_mode_t)v.num;
 1937              		.loc 2 624 26 is_stmt 0 view .LVU520
 1938 00a2 6722     		movs	r2, #103
 1939 00a4 3146     		mov	r1, r6
 1940 00a6 2846     		mov	r0, r5
 1941 00a8 FFF7FEFF 		bl	lv_obj_get_style_prop
 1942              	.LVL164:
 1943 00ac 0190     		str	r0, [sp, #4]
 1944              		.loc 2 625 5 is_stmt 1 view .LVU521
 1945              	.LVL165:
 1946              		.loc 2 625 5 is_stmt 0 view .LVU522
 1947              	.LBE191:
 1948              	.LBE190:
 197:Lib/lvgl/src/core/lv_obj_draw.c **** }
 1949              		.loc 1 197 51 view .LVU523
 1950 00ae 94F84D30 		ldrb	r3, [r4, #77]	@ zero_extendqisi2
 1951 00b2 60F30303 		bfi	r3, r0, #0, #4
 1952 00b6 84F84D30 		strb	r3, [r4, #77]
 1953 00ba B1E7     		b	.L47
 1954              		.cfi_endproc
 1955              	.LFE235:
 1957              		.section	.text.lv_obj_init_draw_line_dsc,"ax",%progbits
 1958              		.align	1
 1959              		.global	lv_obj_init_draw_line_dsc
 1960              		.syntax unified
 1961              		.thumb
 1962              		.thumb_func
 1964              	lv_obj_init_draw_line_dsc:
 1965              	.LVL166:
 1966              	.LFB236:
 199:Lib/lvgl/src/core/lv_obj_draw.c **** 
 200:Lib/lvgl/src/core/lv_obj_draw.c **** void lv_obj_init_draw_line_dsc(lv_obj_t * obj, uint32_t part, lv_draw_line_dsc_t * draw_dsc)
 201:Lib/lvgl/src/core/lv_obj_draw.c **** {
 1967              		.loc 1 201 1 is_stmt 1 view -0
 1968              		.cfi_startproc
 1969              		@ args = 0, pretend = 0, frame = 8
 1970              		@ frame_needed = 0, uses_anonymous_args = 0
 1971              		.loc 1 201 1 is_stmt 0 view .LVU525
 1972 0000 70B5     		push	{r4, r5, r6, lr}
 1973              	.LCFI42:
 1974              		.cfi_def_cfa_offset 16
ARM GAS  C:\Users\Alex\AppData\Local\Temp\cccZpk1s.s 			page 59


 1975              		.cfi_offset 4, -16
 1976              		.cfi_offset 5, -12
 1977              		.cfi_offset 6, -8
 1978              		.cfi_offset 14, -4
 1979 0002 82B0     		sub	sp, sp, #8
 1980              	.LCFI43:
 1981              		.cfi_def_cfa_offset 24
 1982 0004 0646     		mov	r6, r0
 1983 0006 0D46     		mov	r5, r1
 1984 0008 1446     		mov	r4, r2
 202:Lib/lvgl/src/core/lv_obj_draw.c ****     draw_dsc->base.obj = obj;
 1985              		.loc 1 202 5 is_stmt 1 view .LVU526
 1986              		.loc 1 202 24 is_stmt 0 view .LVU527
 1987 000a 1060     		str	r0, [r2]
 203:Lib/lvgl/src/core/lv_obj_draw.c ****     draw_dsc->base.part = part;
 1988              		.loc 1 203 5 is_stmt 1 view .LVU528
 1989              		.loc 1 203 25 is_stmt 0 view .LVU529
 1990 000c 5160     		str	r1, [r2, #4]
 204:Lib/lvgl/src/core/lv_obj_draw.c **** 
 205:Lib/lvgl/src/core/lv_obj_draw.c ****     draw_dsc->opa = lv_obj_get_style_line_opa(obj, part);
 1991              		.loc 1 205 5 is_stmt 1 view .LVU530
 1992              	.LVL167:
 1993              	.LBB192:
 1994              	.LBI192:
 478:Lib/lvgl/src/core/lv_obj_style_gen.h **** {
 1995              		.loc 2 478 24 view .LVU531
 1996              	.LBB193:
 480:Lib/lvgl/src/core/lv_obj_style_gen.h ****     return (lv_opa_t)v.num;
 1997              		.loc 2 480 5 view .LVU532
 480:Lib/lvgl/src/core/lv_obj_style_gen.h ****     return (lv_opa_t)v.num;
 1998              		.loc 2 480 26 is_stmt 0 view .LVU533
 1999 000e 4D22     		movs	r2, #77
 2000              	.LVL168:
 480:Lib/lvgl/src/core/lv_obj_style_gen.h ****     return (lv_opa_t)v.num;
 2001              		.loc 2 480 26 view .LVU534
 2002 0010 FFF7FEFF 		bl	lv_obj_get_style_prop
 2003              	.LVL169:
 480:Lib/lvgl/src/core/lv_obj_style_gen.h ****     return (lv_opa_t)v.num;
 2004              		.loc 2 480 26 view .LVU535
 2005 0014 0190     		str	r0, [sp, #4]
 481:Lib/lvgl/src/core/lv_obj_style_gen.h **** }
 2006              		.loc 2 481 5 is_stmt 1 view .LVU536
 481:Lib/lvgl/src/core/lv_obj_style_gen.h **** }
 2007              		.loc 2 481 12 is_stmt 0 view .LVU537
 2008 0016 C3B2     		uxtb	r3, r0
 2009              	.LVL170:
 481:Lib/lvgl/src/core/lv_obj_style_gen.h **** }
 2010              		.loc 2 481 12 view .LVU538
 2011              	.LBE193:
 2012              	.LBE192:
 2013              		.loc 1 205 19 view .LVU539
 2014 0018 84F83C30 		strb	r3, [r4, #60]
 206:Lib/lvgl/src/core/lv_obj_draw.c ****     if(draw_dsc->opa <= LV_OPA_MIN)  return;
 2015              		.loc 1 206 5 is_stmt 1 view .LVU540
 2016              		.loc 1 206 7 is_stmt 0 view .LVU541
 2017 001c 022B     		cmp	r3, #2
 2018 001e 01D8     		bhi	.L57
ARM GAS  C:\Users\Alex\AppData\Local\Temp\cccZpk1s.s 			page 60


 2019              	.L52:
 207:Lib/lvgl/src/core/lv_obj_draw.c **** 
 208:Lib/lvgl/src/core/lv_obj_draw.c ****     lv_opa_t opa = lv_obj_get_style_opa_recursive(obj, part);
 209:Lib/lvgl/src/core/lv_obj_draw.c ****     if(opa < LV_OPA_MAX) {
 210:Lib/lvgl/src/core/lv_obj_draw.c ****         draw_dsc->opa = LV_OPA_MIX2(draw_dsc->opa, opa);
 211:Lib/lvgl/src/core/lv_obj_draw.c ****     }
 212:Lib/lvgl/src/core/lv_obj_draw.c ****     if(draw_dsc->opa <= LV_OPA_MIN) return;
 213:Lib/lvgl/src/core/lv_obj_draw.c **** 
 214:Lib/lvgl/src/core/lv_obj_draw.c ****     draw_dsc->width = lv_obj_get_style_line_width(obj, part);
 215:Lib/lvgl/src/core/lv_obj_draw.c ****     if(draw_dsc->width == 0) return;
 216:Lib/lvgl/src/core/lv_obj_draw.c **** 
 217:Lib/lvgl/src/core/lv_obj_draw.c ****     draw_dsc->color = lv_obj_get_style_line_color_filtered(obj, part);
 218:Lib/lvgl/src/core/lv_obj_draw.c **** 
 219:Lib/lvgl/src/core/lv_obj_draw.c ****     draw_dsc->dash_width = lv_obj_get_style_line_dash_width(obj, part);
 220:Lib/lvgl/src/core/lv_obj_draw.c ****     if(draw_dsc->dash_width) {
 221:Lib/lvgl/src/core/lv_obj_draw.c ****         draw_dsc->dash_gap = lv_obj_get_style_line_dash_gap(obj, part);
 222:Lib/lvgl/src/core/lv_obj_draw.c ****     }
 223:Lib/lvgl/src/core/lv_obj_draw.c **** 
 224:Lib/lvgl/src/core/lv_obj_draw.c ****     draw_dsc->round_start = lv_obj_get_style_line_rounded(obj, part);
 225:Lib/lvgl/src/core/lv_obj_draw.c ****     draw_dsc->round_end = draw_dsc->round_start;
 226:Lib/lvgl/src/core/lv_obj_draw.c **** 
 227:Lib/lvgl/src/core/lv_obj_draw.c ****     if(part != LV_PART_MAIN) draw_dsc->blend_mode = lv_obj_get_style_blend_mode(obj, part);
 228:Lib/lvgl/src/core/lv_obj_draw.c **** }
 2020              		.loc 1 228 1 view .LVU542
 2021 0020 02B0     		add	sp, sp, #8
 2022              	.LCFI44:
 2023              		.cfi_remember_state
 2024              		.cfi_def_cfa_offset 16
 2025              		@ sp needed
 2026 0022 70BD     		pop	{r4, r5, r6, pc}
 2027              	.LVL171:
 2028              	.L57:
 2029              	.LCFI45:
 2030              		.cfi_restore_state
 208:Lib/lvgl/src/core/lv_obj_draw.c ****     if(opa < LV_OPA_MAX) {
 2031              		.loc 1 208 5 is_stmt 1 view .LVU543
 208:Lib/lvgl/src/core/lv_obj_draw.c ****     if(opa < LV_OPA_MAX) {
 2032              		.loc 1 208 20 is_stmt 0 view .LVU544
 2033 0024 2946     		mov	r1, r5
 2034 0026 3046     		mov	r0, r6
 2035 0028 FFF7FEFF 		bl	lv_obj_get_style_opa_recursive
 2036              	.LVL172:
 209:Lib/lvgl/src/core/lv_obj_draw.c ****         draw_dsc->opa = LV_OPA_MIX2(draw_dsc->opa, opa);
 2037              		.loc 1 209 5 is_stmt 1 view .LVU545
 209:Lib/lvgl/src/core/lv_obj_draw.c ****         draw_dsc->opa = LV_OPA_MIX2(draw_dsc->opa, opa);
 2038              		.loc 1 209 7 is_stmt 0 view .LVU546
 2039 002c FC28     		cmp	r0, #252
 2040 002e 06D8     		bhi	.L54
 210:Lib/lvgl/src/core/lv_obj_draw.c ****     }
 2041              		.loc 1 210 9 is_stmt 1 view .LVU547
 210:Lib/lvgl/src/core/lv_obj_draw.c ****     }
 2042              		.loc 1 210 25 is_stmt 0 view .LVU548
 2043 0030 94F83C30 		ldrb	r3, [r4, #60]	@ zero_extendqisi2
 2044 0034 03FB00F0 		mul	r0, r3, r0
 2045              	.LVL173:
 210:Lib/lvgl/src/core/lv_obj_draw.c ****     }
 2046              		.loc 1 210 25 view .LVU549
ARM GAS  C:\Users\Alex\AppData\Local\Temp\cccZpk1s.s 			page 61


 2047 0038 0012     		asrs	r0, r0, #8
 210:Lib/lvgl/src/core/lv_obj_draw.c ****     }
 2048              		.loc 1 210 23 view .LVU550
 2049 003a 84F83C00 		strb	r0, [r4, #60]
 2050              	.L54:
 212:Lib/lvgl/src/core/lv_obj_draw.c **** 
 2051              		.loc 1 212 5 is_stmt 1 view .LVU551
 212:Lib/lvgl/src/core/lv_obj_draw.c **** 
 2052              		.loc 1 212 16 is_stmt 0 view .LVU552
 2053 003e 94F83C30 		ldrb	r3, [r4, #60]	@ zero_extendqisi2
 212:Lib/lvgl/src/core/lv_obj_draw.c **** 
 2054              		.loc 1 212 7 view .LVU553
 2055 0042 022B     		cmp	r3, #2
 2056 0044 ECD9     		bls	.L52
 214:Lib/lvgl/src/core/lv_obj_draw.c ****     if(draw_dsc->width == 0) return;
 2057              		.loc 1 214 5 is_stmt 1 view .LVU554
 2058              	.LVL174:
 2059              	.LBB194:
 2060              	.LBI194:
 442:Lib/lvgl/src/core/lv_obj_style_gen.h **** {
 2061              		.loc 2 442 23 view .LVU555
 2062              	.LBB195:
 444:Lib/lvgl/src/core/lv_obj_style_gen.h ****     return (int32_t)v.num;
 2063              		.loc 2 444 5 view .LVU556
 444:Lib/lvgl/src/core/lv_obj_style_gen.h ****     return (int32_t)v.num;
 2064              		.loc 2 444 26 is_stmt 0 view .LVU557
 2065 0046 4822     		movs	r2, #72
 2066 0048 2946     		mov	r1, r5
 2067 004a 3046     		mov	r0, r6
 2068 004c FFF7FEFF 		bl	lv_obj_get_style_prop
 2069              	.LVL175:
 2070 0050 0190     		str	r0, [sp, #4]
 445:Lib/lvgl/src/core/lv_obj_style_gen.h **** }
 2071              		.loc 2 445 5 is_stmt 1 view .LVU558
 2072              	.LVL176:
 445:Lib/lvgl/src/core/lv_obj_style_gen.h **** }
 2073              		.loc 2 445 5 is_stmt 0 view .LVU559
 2074              	.LBE195:
 2075              	.LBE194:
 214:Lib/lvgl/src/core/lv_obj_draw.c ****     if(draw_dsc->width == 0) return;
 2076              		.loc 1 214 21 view .LVU560
 2077 0052 2063     		str	r0, [r4, #48]
 215:Lib/lvgl/src/core/lv_obj_draw.c **** 
 2078              		.loc 1 215 5 is_stmt 1 view .LVU561
 215:Lib/lvgl/src/core/lv_obj_draw.c **** 
 2079              		.loc 1 215 7 is_stmt 0 view .LVU562
 2080 0054 0028     		cmp	r0, #0
 2081 0056 E3D0     		beq	.L52
 217:Lib/lvgl/src/core/lv_obj_draw.c **** 
 2082              		.loc 1 217 5 is_stmt 1 view .LVU563
 217:Lib/lvgl/src/core/lv_obj_draw.c **** 
 2083              		.loc 1 217 23 is_stmt 0 view .LVU564
 2084 0058 2946     		mov	r1, r5
 2085 005a 3046     		mov	r0, r6
 2086 005c FFF7FEFF 		bl	lv_obj_get_style_line_color_filtered
 2087              	.LVL177:
 2088 0060 84F82C00 		strb	r0, [r4, #44]
ARM GAS  C:\Users\Alex\AppData\Local\Temp\cccZpk1s.s 			page 62


 2089 0064 C0F30723 		ubfx	r3, r0, #8, #8
 2090 0068 84F82D30 		strb	r3, [r4, #45]
 2091 006c C0F30740 		ubfx	r0, r0, #16, #8
 2092 0070 84F82E00 		strb	r0, [r4, #46]
 219:Lib/lvgl/src/core/lv_obj_draw.c ****     if(draw_dsc->dash_width) {
 2093              		.loc 1 219 5 is_stmt 1 view .LVU565
 2094              	.LVL178:
 2095              	.LBB196:
 2096              	.LBI196:
 448:Lib/lvgl/src/core/lv_obj_style_gen.h **** {
 2097              		.loc 2 448 23 view .LVU566
 2098              	.LBB197:
 450:Lib/lvgl/src/core/lv_obj_style_gen.h ****     return (int32_t)v.num;
 2099              		.loc 2 450 5 view .LVU567
 450:Lib/lvgl/src/core/lv_obj_style_gen.h ****     return (int32_t)v.num;
 2100              		.loc 2 450 26 is_stmt 0 view .LVU568
 2101 0074 4922     		movs	r2, #73
 2102 0076 2946     		mov	r1, r5
 2103 0078 3046     		mov	r0, r6
 2104 007a FFF7FEFF 		bl	lv_obj_get_style_prop
 2105              	.LVL179:
 2106 007e 0190     		str	r0, [sp, #4]
 451:Lib/lvgl/src/core/lv_obj_style_gen.h **** }
 2107              		.loc 2 451 5 is_stmt 1 view .LVU569
 2108              	.LVL180:
 451:Lib/lvgl/src/core/lv_obj_style_gen.h **** }
 2109              		.loc 2 451 5 is_stmt 0 view .LVU570
 2110              	.LBE197:
 2111              	.LBE196:
 219:Lib/lvgl/src/core/lv_obj_draw.c ****     if(draw_dsc->dash_width) {
 2112              		.loc 1 219 26 view .LVU571
 2113 0080 6063     		str	r0, [r4, #52]
 220:Lib/lvgl/src/core/lv_obj_draw.c ****         draw_dsc->dash_gap = lv_obj_get_style_line_dash_gap(obj, part);
 2114              		.loc 1 220 5 is_stmt 1 view .LVU572
 220:Lib/lvgl/src/core/lv_obj_draw.c ****         draw_dsc->dash_gap = lv_obj_get_style_line_dash_gap(obj, part);
 2115              		.loc 1 220 7 is_stmt 0 view .LVU573
 2116 0082 10BB     		cbnz	r0, .L58
 2117              	.L55:
 224:Lib/lvgl/src/core/lv_obj_draw.c ****     draw_dsc->round_end = draw_dsc->round_start;
 2118              		.loc 1 224 5 is_stmt 1 view .LVU574
 2119              	.LVL181:
 2120              	.LBB198:
 2121              	.LBI198:
 460:Lib/lvgl/src/core/lv_obj_style_gen.h **** {
 2122              		.loc 2 460 20 view .LVU575
 2123              	.LBB199:
 462:Lib/lvgl/src/core/lv_obj_style_gen.h ****     return (bool)v.num;
 2124              		.loc 2 462 5 view .LVU576
 462:Lib/lvgl/src/core/lv_obj_style_gen.h ****     return (bool)v.num;
 2125              		.loc 2 462 26 is_stmt 0 view .LVU577
 2126 0084 4B22     		movs	r2, #75
 2127 0086 2946     		mov	r1, r5
 2128 0088 3046     		mov	r0, r6
 2129 008a FFF7FEFF 		bl	lv_obj_get_style_prop
 2130              	.LVL182:
 2131 008e 0190     		str	r0, [sp, #4]
 463:Lib/lvgl/src/core/lv_obj_style_gen.h **** }
ARM GAS  C:\Users\Alex\AppData\Local\Temp\cccZpk1s.s 			page 63


 2132              		.loc 2 463 5 is_stmt 1 view .LVU578
 463:Lib/lvgl/src/core/lv_obj_style_gen.h **** }
 2133              		.loc 2 463 12 is_stmt 0 view .LVU579
 2134 0090 0038     		subs	r0, r0, #0
 2135 0092 18BF     		it	ne
 2136 0094 0120     		movne	r0, #1
 2137              	.LVL183:
 463:Lib/lvgl/src/core/lv_obj_style_gen.h **** }
 2138              		.loc 2 463 12 view .LVU580
 2139              	.LBE199:
 2140              	.LBE198:
 224:Lib/lvgl/src/core/lv_obj_draw.c ****     draw_dsc->round_end = draw_dsc->round_start;
 2141              		.loc 1 224 27 view .LVU581
 2142 0096 94F83D30 		ldrb	r3, [r4, #61]	@ zero_extendqisi2
 2143 009a 60F38203 		bfi	r3, r0, #2, #1
 2144 009e 84F83D30 		strb	r3, [r4, #61]
 225:Lib/lvgl/src/core/lv_obj_draw.c **** 
 2145              		.loc 1 225 5 is_stmt 1 view .LVU582
 225:Lib/lvgl/src/core/lv_obj_draw.c **** 
 2146              		.loc 1 225 25 is_stmt 0 view .LVU583
 2147 00a2 DBB2     		uxtb	r3, r3
 2148 00a4 60F3C303 		bfi	r3, r0, #3, #1
 2149 00a8 84F83D30 		strb	r3, [r4, #61]
 227:Lib/lvgl/src/core/lv_obj_draw.c **** }
 2150              		.loc 1 227 5 is_stmt 1 view .LVU584
 227:Lib/lvgl/src/core/lv_obj_draw.c **** }
 2151              		.loc 1 227 7 is_stmt 0 view .LVU585
 2152 00ac 002D     		cmp	r5, #0
 2153 00ae B7D0     		beq	.L52
 227:Lib/lvgl/src/core/lv_obj_draw.c **** }
 2154              		.loc 1 227 30 is_stmt 1 view .LVU586
 2155              	.LVL184:
 2156              	.LBB200:
 2157              	.LBI200:
 622:Lib/lvgl/src/core/lv_obj_style_gen.h **** {
 2158              		.loc 2 622 31 view .LVU587
 2159              	.LBB201:
 624:Lib/lvgl/src/core/lv_obj_style_gen.h ****     return (lv_blend_mode_t)v.num;
 2160              		.loc 2 624 5 view .LVU588
 624:Lib/lvgl/src/core/lv_obj_style_gen.h ****     return (lv_blend_mode_t)v.num;
 2161              		.loc 2 624 26 is_stmt 0 view .LVU589
 2162 00b0 6722     		movs	r2, #103
 2163 00b2 2946     		mov	r1, r5
 2164 00b4 3046     		mov	r0, r6
 2165 00b6 FFF7FEFF 		bl	lv_obj_get_style_prop
 2166              	.LVL185:
 2167 00ba 0190     		str	r0, [sp, #4]
 2168              		.loc 2 625 5 is_stmt 1 view .LVU590
 2169              	.LVL186:
 2170              		.loc 2 625 5 is_stmt 0 view .LVU591
 2171              	.LBE201:
 2172              	.LBE200:
 227:Lib/lvgl/src/core/lv_obj_draw.c **** }
 2173              		.loc 1 227 51 view .LVU592
 2174 00bc 94F83D30 		ldrb	r3, [r4, #61]	@ zero_extendqisi2
 2175 00c0 60F30103 		bfi	r3, r0, #0, #2
 2176 00c4 84F83D30 		strb	r3, [r4, #61]
ARM GAS  C:\Users\Alex\AppData\Local\Temp\cccZpk1s.s 			page 64


 2177 00c8 AAE7     		b	.L52
 2178              	.L58:
 221:Lib/lvgl/src/core/lv_obj_draw.c ****     }
 2179              		.loc 1 221 9 is_stmt 1 view .LVU593
 2180              	.LVL187:
 2181              	.LBB202:
 2182              	.LBI202:
 454:Lib/lvgl/src/core/lv_obj_style_gen.h **** {
 2183              		.loc 2 454 23 view .LVU594
 2184              	.LBB203:
 456:Lib/lvgl/src/core/lv_obj_style_gen.h ****     return (int32_t)v.num;
 2185              		.loc 2 456 5 view .LVU595
 456:Lib/lvgl/src/core/lv_obj_style_gen.h ****     return (int32_t)v.num;
 2186              		.loc 2 456 26 is_stmt 0 view .LVU596
 2187 00ca 4A22     		movs	r2, #74
 2188 00cc 2946     		mov	r1, r5
 2189 00ce 3046     		mov	r0, r6
 2190 00d0 FFF7FEFF 		bl	lv_obj_get_style_prop
 2191              	.LVL188:
 2192 00d4 0190     		str	r0, [sp, #4]
 457:Lib/lvgl/src/core/lv_obj_style_gen.h **** }
 2193              		.loc 2 457 5 is_stmt 1 view .LVU597
 2194              	.LVL189:
 457:Lib/lvgl/src/core/lv_obj_style_gen.h **** }
 2195              		.loc 2 457 5 is_stmt 0 view .LVU598
 2196              	.LBE203:
 2197              	.LBE202:
 221:Lib/lvgl/src/core/lv_obj_draw.c ****     }
 2198              		.loc 1 221 28 view .LVU599
 2199 00d6 A063     		str	r0, [r4, #56]
 2200 00d8 D4E7     		b	.L55
 2201              		.cfi_endproc
 2202              	.LFE236:
 2204              		.section	.text.lv_obj_init_draw_arc_dsc,"ax",%progbits
 2205              		.align	1
 2206              		.global	lv_obj_init_draw_arc_dsc
 2207              		.syntax unified
 2208              		.thumb
 2209              		.thumb_func
 2211              	lv_obj_init_draw_arc_dsc:
 2212              	.LVL190:
 2213              	.LFB237:
 229:Lib/lvgl/src/core/lv_obj_draw.c **** 
 230:Lib/lvgl/src/core/lv_obj_draw.c **** void lv_obj_init_draw_arc_dsc(lv_obj_t * obj, uint32_t part, lv_draw_arc_dsc_t * draw_dsc)
 231:Lib/lvgl/src/core/lv_obj_draw.c **** {
 2214              		.loc 1 231 1 is_stmt 1 view -0
 2215              		.cfi_startproc
 2216              		@ args = 0, pretend = 0, frame = 8
 2217              		@ frame_needed = 0, uses_anonymous_args = 0
 2218              		.loc 1 231 1 is_stmt 0 view .LVU601
 2219 0000 70B5     		push	{r4, r5, r6, lr}
 2220              	.LCFI46:
 2221              		.cfi_def_cfa_offset 16
 2222              		.cfi_offset 4, -16
 2223              		.cfi_offset 5, -12
 2224              		.cfi_offset 6, -8
 2225              		.cfi_offset 14, -4
ARM GAS  C:\Users\Alex\AppData\Local\Temp\cccZpk1s.s 			page 65


 2226 0002 82B0     		sub	sp, sp, #8
 2227              	.LCFI47:
 2228              		.cfi_def_cfa_offset 24
 2229 0004 0546     		mov	r5, r0
 2230 0006 0E46     		mov	r6, r1
 2231 0008 1446     		mov	r4, r2
 232:Lib/lvgl/src/core/lv_obj_draw.c ****     draw_dsc->base.obj = obj;
 2232              		.loc 1 232 5 is_stmt 1 view .LVU602
 2233              		.loc 1 232 24 is_stmt 0 view .LVU603
 2234 000a 1060     		str	r0, [r2]
 233:Lib/lvgl/src/core/lv_obj_draw.c ****     draw_dsc->base.part = part;
 2235              		.loc 1 233 5 is_stmt 1 view .LVU604
 2236              		.loc 1 233 25 is_stmt 0 view .LVU605
 2237 000c 5160     		str	r1, [r2, #4]
 234:Lib/lvgl/src/core/lv_obj_draw.c **** 
 235:Lib/lvgl/src/core/lv_obj_draw.c ****     draw_dsc->width = lv_obj_get_style_arc_width(obj, part);
 2238              		.loc 1 235 5 is_stmt 1 view .LVU606
 2239              	.LVL191:
 2240              	.LBB204:
 2241              	.LBI204:
 484:Lib/lvgl/src/core/lv_obj_style_gen.h **** {
 2242              		.loc 2 484 23 view .LVU607
 2243              	.LBB205:
 486:Lib/lvgl/src/core/lv_obj_style_gen.h ****     return (int32_t)v.num;
 2244              		.loc 2 486 5 view .LVU608
 486:Lib/lvgl/src/core/lv_obj_style_gen.h ****     return (int32_t)v.num;
 2245              		.loc 2 486 26 is_stmt 0 view .LVU609
 2246 000e 5022     		movs	r2, #80
 2247              	.LVL192:
 486:Lib/lvgl/src/core/lv_obj_style_gen.h ****     return (int32_t)v.num;
 2248              		.loc 2 486 26 view .LVU610
 2249 0010 FFF7FEFF 		bl	lv_obj_get_style_prop
 2250              	.LVL193:
 486:Lib/lvgl/src/core/lv_obj_style_gen.h ****     return (int32_t)v.num;
 2251              		.loc 2 486 26 view .LVU611
 2252 0014 0190     		str	r0, [sp, #4]
 487:Lib/lvgl/src/core/lv_obj_style_gen.h **** }
 2253              		.loc 2 487 5 is_stmt 1 view .LVU612
 2254              	.LVL194:
 487:Lib/lvgl/src/core/lv_obj_style_gen.h **** }
 2255              		.loc 2 487 5 is_stmt 0 view .LVU613
 2256              	.LBE205:
 2257              	.LBE204:
 2258              		.loc 1 235 21 view .LVU614
 2259 0016 2062     		str	r0, [r4, #32]
 236:Lib/lvgl/src/core/lv_obj_draw.c ****     if(draw_dsc->width == 0) return;
 2260              		.loc 1 236 5 is_stmt 1 view .LVU615
 2261              		.loc 1 236 7 is_stmt 0 view .LVU616
 2262 0018 08B9     		cbnz	r0, .L63
 2263              	.L59:
 237:Lib/lvgl/src/core/lv_obj_draw.c **** 
 238:Lib/lvgl/src/core/lv_obj_draw.c ****     draw_dsc->opa = lv_obj_get_style_arc_opa(obj, part);
 239:Lib/lvgl/src/core/lv_obj_draw.c ****     if(draw_dsc->opa <= LV_OPA_MIN)  return;
 240:Lib/lvgl/src/core/lv_obj_draw.c **** 
 241:Lib/lvgl/src/core/lv_obj_draw.c ****     lv_opa_t opa = lv_obj_get_style_opa_recursive(obj, part);
 242:Lib/lvgl/src/core/lv_obj_draw.c ****     if(opa < LV_OPA_MAX) {
 243:Lib/lvgl/src/core/lv_obj_draw.c ****         draw_dsc->opa = LV_OPA_MIX2(draw_dsc->opa, opa);
ARM GAS  C:\Users\Alex\AppData\Local\Temp\cccZpk1s.s 			page 66


 244:Lib/lvgl/src/core/lv_obj_draw.c ****     }
 245:Lib/lvgl/src/core/lv_obj_draw.c ****     if(draw_dsc->opa <= LV_OPA_MIN) return;
 246:Lib/lvgl/src/core/lv_obj_draw.c **** 
 247:Lib/lvgl/src/core/lv_obj_draw.c ****     draw_dsc->color = lv_obj_get_style_arc_color_filtered(obj, part);
 248:Lib/lvgl/src/core/lv_obj_draw.c ****     draw_dsc->img_src = lv_obj_get_style_arc_image_src(obj, part);
 249:Lib/lvgl/src/core/lv_obj_draw.c **** 
 250:Lib/lvgl/src/core/lv_obj_draw.c ****     draw_dsc->rounded = lv_obj_get_style_arc_rounded(obj, part);
 251:Lib/lvgl/src/core/lv_obj_draw.c **** }
 2264              		.loc 1 251 1 view .LVU617
 2265 001a 02B0     		add	sp, sp, #8
 2266              	.LCFI48:
 2267              		.cfi_remember_state
 2268              		.cfi_def_cfa_offset 16
 2269              		@ sp needed
 2270 001c 70BD     		pop	{r4, r5, r6, pc}
 2271              	.LVL195:
 2272              	.L63:
 2273              	.LCFI49:
 2274              		.cfi_restore_state
 238:Lib/lvgl/src/core/lv_obj_draw.c ****     if(draw_dsc->opa <= LV_OPA_MIN)  return;
 2275              		.loc 1 238 5 is_stmt 1 view .LVU618
 2276              	.LBB206:
 2277              	.LBI206:
 508:Lib/lvgl/src/core/lv_obj_style_gen.h **** {
 2278              		.loc 2 508 24 view .LVU619
 2279              	.LBB207:
 510:Lib/lvgl/src/core/lv_obj_style_gen.h ****     return (lv_opa_t)v.num;
 2280              		.loc 2 510 5 view .LVU620
 510:Lib/lvgl/src/core/lv_obj_style_gen.h ****     return (lv_opa_t)v.num;
 2281              		.loc 2 510 26 is_stmt 0 view .LVU621
 2282 001e 5322     		movs	r2, #83
 2283 0020 3146     		mov	r1, r6
 2284 0022 2846     		mov	r0, r5
 2285 0024 FFF7FEFF 		bl	lv_obj_get_style_prop
 2286              	.LVL196:
 2287 0028 0190     		str	r0, [sp, #4]
 511:Lib/lvgl/src/core/lv_obj_style_gen.h **** }
 2288              		.loc 2 511 5 is_stmt 1 view .LVU622
 511:Lib/lvgl/src/core/lv_obj_style_gen.h **** }
 2289              		.loc 2 511 12 is_stmt 0 view .LVU623
 2290 002a C0B2     		uxtb	r0, r0
 2291              	.LVL197:
 511:Lib/lvgl/src/core/lv_obj_style_gen.h **** }
 2292              		.loc 2 511 12 view .LVU624
 2293              	.LBE207:
 2294              	.LBE206:
 238:Lib/lvgl/src/core/lv_obj_draw.c ****     if(draw_dsc->opa <= LV_OPA_MIN)  return;
 2295              		.loc 1 238 19 view .LVU625
 2296 002c 84F83C00 		strb	r0, [r4, #60]
 239:Lib/lvgl/src/core/lv_obj_draw.c **** 
 2297              		.loc 1 239 5 is_stmt 1 view .LVU626
 239:Lib/lvgl/src/core/lv_obj_draw.c **** 
 2298              		.loc 1 239 7 is_stmt 0 view .LVU627
 2299 0030 0228     		cmp	r0, #2
 2300 0032 F2D9     		bls	.L59
 241:Lib/lvgl/src/core/lv_obj_draw.c ****     if(opa < LV_OPA_MAX) {
 2301              		.loc 1 241 5 is_stmt 1 view .LVU628
ARM GAS  C:\Users\Alex\AppData\Local\Temp\cccZpk1s.s 			page 67


 241:Lib/lvgl/src/core/lv_obj_draw.c ****     if(opa < LV_OPA_MAX) {
 2302              		.loc 1 241 20 is_stmt 0 view .LVU629
 2303 0034 3146     		mov	r1, r6
 2304 0036 2846     		mov	r0, r5
 2305 0038 FFF7FEFF 		bl	lv_obj_get_style_opa_recursive
 2306              	.LVL198:
 242:Lib/lvgl/src/core/lv_obj_draw.c ****         draw_dsc->opa = LV_OPA_MIX2(draw_dsc->opa, opa);
 2307              		.loc 1 242 5 is_stmt 1 view .LVU630
 242:Lib/lvgl/src/core/lv_obj_draw.c ****         draw_dsc->opa = LV_OPA_MIX2(draw_dsc->opa, opa);
 2308              		.loc 1 242 7 is_stmt 0 view .LVU631
 2309 003c FC28     		cmp	r0, #252
 2310 003e 06D8     		bhi	.L61
 243:Lib/lvgl/src/core/lv_obj_draw.c ****     }
 2311              		.loc 1 243 9 is_stmt 1 view .LVU632
 243:Lib/lvgl/src/core/lv_obj_draw.c ****     }
 2312              		.loc 1 243 25 is_stmt 0 view .LVU633
 2313 0040 94F83C30 		ldrb	r3, [r4, #60]	@ zero_extendqisi2
 2314 0044 03FB00F0 		mul	r0, r3, r0
 2315              	.LVL199:
 243:Lib/lvgl/src/core/lv_obj_draw.c ****     }
 2316              		.loc 1 243 25 view .LVU634
 2317 0048 0012     		asrs	r0, r0, #8
 243:Lib/lvgl/src/core/lv_obj_draw.c ****     }
 2318              		.loc 1 243 23 view .LVU635
 2319 004a 84F83C00 		strb	r0, [r4, #60]
 2320              	.L61:
 245:Lib/lvgl/src/core/lv_obj_draw.c **** 
 2321              		.loc 1 245 5 is_stmt 1 view .LVU636
 245:Lib/lvgl/src/core/lv_obj_draw.c **** 
 2322              		.loc 1 245 16 is_stmt 0 view .LVU637
 2323 004e 94F83C30 		ldrb	r3, [r4, #60]	@ zero_extendqisi2
 245:Lib/lvgl/src/core/lv_obj_draw.c **** 
 2324              		.loc 1 245 7 view .LVU638
 2325 0052 022B     		cmp	r3, #2
 2326 0054 E1D9     		bls	.L59
 247:Lib/lvgl/src/core/lv_obj_draw.c ****     draw_dsc->img_src = lv_obj_get_style_arc_image_src(obj, part);
 2327              		.loc 1 247 5 is_stmt 1 view .LVU639
 247:Lib/lvgl/src/core/lv_obj_draw.c ****     draw_dsc->img_src = lv_obj_get_style_arc_image_src(obj, part);
 2328              		.loc 1 247 23 is_stmt 0 view .LVU640
 2329 0056 3146     		mov	r1, r6
 2330 0058 2846     		mov	r0, r5
 2331 005a FFF7FEFF 		bl	lv_obj_get_style_arc_color_filtered
 2332              	.LVL200:
 2333 005e 2077     		strb	r0, [r4, #28]
 2334 0060 C0F30723 		ubfx	r3, r0, #8, #8
 2335 0064 6377     		strb	r3, [r4, #29]
 2336 0066 C0F30740 		ubfx	r0, r0, #16, #8
 2337 006a A077     		strb	r0, [r4, #30]
 248:Lib/lvgl/src/core/lv_obj_draw.c **** 
 2338              		.loc 1 248 5 is_stmt 1 view .LVU641
 2339              	.LVL201:
 2340              	.LBB208:
 2341              	.LBI208:
 514:Lib/lvgl/src/core/lv_obj_style_gen.h **** {
 2342              		.loc 2 514 28 view .LVU642
 2343              	.LBB209:
 516:Lib/lvgl/src/core/lv_obj_style_gen.h ****     return (const void *)v.ptr;
ARM GAS  C:\Users\Alex\AppData\Local\Temp\cccZpk1s.s 			page 68


 2344              		.loc 2 516 5 view .LVU643
 516:Lib/lvgl/src/core/lv_obj_style_gen.h ****     return (const void *)v.ptr;
 2345              		.loc 2 516 26 is_stmt 0 view .LVU644
 2346 006c 5422     		movs	r2, #84
 2347 006e 3146     		mov	r1, r6
 2348 0070 2846     		mov	r0, r5
 2349 0072 FFF7FEFF 		bl	lv_obj_get_style_prop
 2350              	.LVL202:
 2351 0076 0190     		str	r0, [sp, #4]
 517:Lib/lvgl/src/core/lv_obj_style_gen.h **** }
 2352              		.loc 2 517 5 is_stmt 1 view .LVU645
 2353              	.LVL203:
 517:Lib/lvgl/src/core/lv_obj_style_gen.h **** }
 2354              		.loc 2 517 5 is_stmt 0 view .LVU646
 2355              	.LBE209:
 2356              	.LBE208:
 248:Lib/lvgl/src/core/lv_obj_draw.c **** 
 2357              		.loc 1 248 23 view .LVU647
 2358 0078 A063     		str	r0, [r4, #56]
 250:Lib/lvgl/src/core/lv_obj_draw.c **** }
 2359              		.loc 1 250 5 is_stmt 1 view .LVU648
 2360              	.LVL204:
 2361              	.LBB210:
 2362              	.LBI210:
 490:Lib/lvgl/src/core/lv_obj_style_gen.h **** {
 2363              		.loc 2 490 20 view .LVU649
 2364              	.LBB211:
 492:Lib/lvgl/src/core/lv_obj_style_gen.h ****     return (bool)v.num;
 2365              		.loc 2 492 5 view .LVU650
 492:Lib/lvgl/src/core/lv_obj_style_gen.h ****     return (bool)v.num;
 2366              		.loc 2 492 26 is_stmt 0 view .LVU651
 2367 007a 5122     		movs	r2, #81
 2368 007c 3146     		mov	r1, r6
 2369 007e 2846     		mov	r0, r5
 2370 0080 FFF7FEFF 		bl	lv_obj_get_style_prop
 2371              	.LVL205:
 2372 0084 0190     		str	r0, [sp, #4]
 493:Lib/lvgl/src/core/lv_obj_style_gen.h **** }
 2373              		.loc 2 493 5 is_stmt 1 view .LVU652
 493:Lib/lvgl/src/core/lv_obj_style_gen.h **** }
 2374              		.loc 2 493 12 is_stmt 0 view .LVU653
 2375 0086 0038     		subs	r0, r0, #0
 2376 0088 18BF     		it	ne
 2377 008a 0120     		movne	r0, #1
 2378              	.LVL206:
 493:Lib/lvgl/src/core/lv_obj_style_gen.h **** }
 2379              		.loc 2 493 12 view .LVU654
 2380              	.LBE211:
 2381              	.LBE210:
 250:Lib/lvgl/src/core/lv_obj_draw.c **** }
 2382              		.loc 1 250 23 view .LVU655
 2383 008c 94F83D30 		ldrb	r3, [r4, #61]	@ zero_extendqisi2
 2384 0090 60F30003 		bfi	r3, r0, #0, #1
 2385 0094 84F83D30 		strb	r3, [r4, #61]
 2386 0098 BFE7     		b	.L59
 2387              		.cfi_endproc
 2388              	.LFE237:
ARM GAS  C:\Users\Alex\AppData\Local\Temp\cccZpk1s.s 			page 69


 2390              		.section	.text.lv_obj_calculate_ext_draw_size,"ax",%progbits
 2391              		.align	1
 2392              		.global	lv_obj_calculate_ext_draw_size
 2393              		.syntax unified
 2394              		.thumb
 2395              		.thumb_func
 2397              	lv_obj_calculate_ext_draw_size:
 2398              	.LVL207:
 2399              	.LFB238:
 252:Lib/lvgl/src/core/lv_obj_draw.c **** 
 253:Lib/lvgl/src/core/lv_obj_draw.c **** int32_t lv_obj_calculate_ext_draw_size(lv_obj_t * obj, uint32_t part)
 254:Lib/lvgl/src/core/lv_obj_draw.c **** {
 2400              		.loc 1 254 1 is_stmt 1 view -0
 2401              		.cfi_startproc
 2402              		@ args = 0, pretend = 0, frame = 8
 2403              		@ frame_needed = 0, uses_anonymous_args = 0
 2404              		.loc 1 254 1 is_stmt 0 view .LVU657
 2405 0000 F0B5     		push	{r4, r5, r6, r7, lr}
 2406              	.LCFI50:
 2407              		.cfi_def_cfa_offset 20
 2408              		.cfi_offset 4, -20
 2409              		.cfi_offset 5, -16
 2410              		.cfi_offset 6, -12
 2411              		.cfi_offset 7, -8
 2412              		.cfi_offset 14, -4
 2413 0002 83B0     		sub	sp, sp, #12
 2414              	.LCFI51:
 2415              		.cfi_def_cfa_offset 32
 2416 0004 0546     		mov	r5, r0
 2417 0006 0E46     		mov	r6, r1
 255:Lib/lvgl/src/core/lv_obj_draw.c ****     int32_t s = 0;
 2418              		.loc 1 255 5 is_stmt 1 view .LVU658
 2419              	.LVL208:
 256:Lib/lvgl/src/core/lv_obj_draw.c **** 
 257:Lib/lvgl/src/core/lv_obj_draw.c ****     int32_t sh_width = lv_obj_get_style_shadow_width(obj, part);
 2420              		.loc 1 257 5 view .LVU659
 2421              	.LBB212:
 2422              	.LBI212:
 374:Lib/lvgl/src/core/lv_obj_style_gen.h **** {
 2423              		.loc 2 374 23 view .LVU660
 2424              	.LBB213:
 376:Lib/lvgl/src/core/lv_obj_style_gen.h ****     return (int32_t)v.num;
 2425              		.loc 2 376 5 view .LVU661
 376:Lib/lvgl/src/core/lv_obj_style_gen.h ****     return (int32_t)v.num;
 2426              		.loc 2 376 26 is_stmt 0 view .LVU662
 2427 0008 3C22     		movs	r2, #60
 2428 000a FFF7FEFF 		bl	lv_obj_get_style_prop
 2429              	.LVL209:
 376:Lib/lvgl/src/core/lv_obj_style_gen.h ****     return (int32_t)v.num;
 2430              		.loc 2 376 26 view .LVU663
 2431 000e 0190     		str	r0, [sp, #4]
 377:Lib/lvgl/src/core/lv_obj_style_gen.h **** }
 2432              		.loc 2 377 5 is_stmt 1 view .LVU664
 377:Lib/lvgl/src/core/lv_obj_style_gen.h **** }
 2433              		.loc 2 377 12 is_stmt 0 view .LVU665
 2434 0010 0746     		mov	r7, r0
 2435              	.LVL210:
ARM GAS  C:\Users\Alex\AppData\Local\Temp\cccZpk1s.s 			page 70


 377:Lib/lvgl/src/core/lv_obj_style_gen.h **** }
 2436              		.loc 2 377 12 view .LVU666
 2437              	.LBE213:
 2438              	.LBE212:
 258:Lib/lvgl/src/core/lv_obj_draw.c ****     if(sh_width) {
 2439              		.loc 1 258 5 is_stmt 1 view .LVU667
 2440              		.loc 1 258 7 is_stmt 0 view .LVU668
 2441 0012 F0B9     		cbnz	r0, .L70
 2442              	.LVL211:
 2443              	.L65:
 259:Lib/lvgl/src/core/lv_obj_draw.c ****         lv_opa_t sh_opa = lv_obj_get_style_shadow_opa(obj, part);
 260:Lib/lvgl/src/core/lv_obj_draw.c ****         if(sh_opa > LV_OPA_MIN) {
 261:Lib/lvgl/src/core/lv_obj_draw.c ****             sh_width = sh_width / 2 + 1;    /*The blur adds only half width*/
 262:Lib/lvgl/src/core/lv_obj_draw.c ****             sh_width += lv_obj_get_style_shadow_spread(obj, part);
 263:Lib/lvgl/src/core/lv_obj_draw.c ****             int32_t sh_ofs_x = lv_obj_get_style_shadow_offset_x(obj, part);
 264:Lib/lvgl/src/core/lv_obj_draw.c ****             int32_t sh_ofs_y = lv_obj_get_style_shadow_offset_y(obj, part);
 265:Lib/lvgl/src/core/lv_obj_draw.c ****             sh_width += LV_MAX(LV_ABS(sh_ofs_x), LV_ABS(sh_ofs_y));
 266:Lib/lvgl/src/core/lv_obj_draw.c ****             s = LV_MAX(s, sh_width);
 267:Lib/lvgl/src/core/lv_obj_draw.c ****         }
 268:Lib/lvgl/src/core/lv_obj_draw.c ****     }
 269:Lib/lvgl/src/core/lv_obj_draw.c **** 
 270:Lib/lvgl/src/core/lv_obj_draw.c ****     int32_t outline_width = lv_obj_get_style_outline_width(obj, part);
 2444              		.loc 1 270 5 is_stmt 1 view .LVU669
 2445              	.LBB214:
 2446              	.LBI214:
 343:Lib/lvgl/src/core/lv_obj_style_gen.h **** {
 2447              		.loc 2 343 23 view .LVU670
 2448              	.LBB215:
 345:Lib/lvgl/src/core/lv_obj_style_gen.h ****     return (int32_t)v.num;
 2449              		.loc 2 345 5 view .LVU671
 345:Lib/lvgl/src/core/lv_obj_style_gen.h ****     return (int32_t)v.num;
 2450              		.loc 2 345 26 is_stmt 0 view .LVU672
 2451 0014 3822     		movs	r2, #56
 2452 0016 3146     		mov	r1, r6
 2453 0018 2846     		mov	r0, r5
 2454 001a FFF7FEFF 		bl	lv_obj_get_style_prop
 2455              	.LVL212:
 2456 001e 0446     		mov	r4, r0
 2457 0020 0190     		str	r0, [sp, #4]
 346:Lib/lvgl/src/core/lv_obj_style_gen.h **** }
 2458              		.loc 2 346 5 is_stmt 1 view .LVU673
 2459              	.LVL213:
 346:Lib/lvgl/src/core/lv_obj_style_gen.h **** }
 2460              		.loc 2 346 5 is_stmt 0 view .LVU674
 2461              	.LBE215:
 2462              	.LBE214:
 271:Lib/lvgl/src/core/lv_obj_draw.c ****     if(outline_width) {
 2463              		.loc 1 271 5 is_stmt 1 view .LVU675
 2464              		.loc 1 271 7 is_stmt 0 view .LVU676
 2465 0022 0028     		cmp	r0, #0
 2466 0024 45D1     		bne	.L71
 2467              	.LVL214:
 2468              	.L66:
 272:Lib/lvgl/src/core/lv_obj_draw.c ****         lv_opa_t outline_opa = lv_obj_get_style_outline_opa(obj, part);
 273:Lib/lvgl/src/core/lv_obj_draw.c ****         if(outline_opa > LV_OPA_MIN) {
 274:Lib/lvgl/src/core/lv_obj_draw.c ****             int32_t outline_pad = lv_obj_get_style_outline_pad(obj, part);
 275:Lib/lvgl/src/core/lv_obj_draw.c ****             s = LV_MAX(s, outline_pad + outline_width);
ARM GAS  C:\Users\Alex\AppData\Local\Temp\cccZpk1s.s 			page 71


 276:Lib/lvgl/src/core/lv_obj_draw.c ****         }
 277:Lib/lvgl/src/core/lv_obj_draw.c ****     }
 278:Lib/lvgl/src/core/lv_obj_draw.c **** 
 279:Lib/lvgl/src/core/lv_obj_draw.c ****     int32_t w = lv_obj_get_style_transform_width(obj, part);
 2469              		.loc 1 279 5 is_stmt 1 view .LVU677
 2470              	.LBB216:
 2471              	.LBI216:
  76:Lib/lvgl/src/core/lv_obj_style_gen.h **** {
 2472              		.loc 2 76 23 view .LVU678
 2473              	.LBB217:
  78:Lib/lvgl/src/core/lv_obj_style_gen.h ****     return (int32_t)v.num;
 2474              		.loc 2 78 5 view .LVU679
  78:Lib/lvgl/src/core/lv_obj_style_gen.h ****     return (int32_t)v.num;
 2475              		.loc 2 78 26 is_stmt 0 view .LVU680
 2476 0026 6822     		movs	r2, #104
 2477 0028 3146     		mov	r1, r6
 2478 002a 2846     		mov	r0, r5
 2479 002c FFF7FEFF 		bl	lv_obj_get_style_prop
 2480              	.LVL215:
 2481 0030 0446     		mov	r4, r0
 2482 0032 0190     		str	r0, [sp, #4]
  79:Lib/lvgl/src/core/lv_obj_style_gen.h **** }
 2483              		.loc 2 79 5 is_stmt 1 view .LVU681
 2484              	.LVL216:
  79:Lib/lvgl/src/core/lv_obj_style_gen.h **** }
 2485              		.loc 2 79 5 is_stmt 0 view .LVU682
 2486              	.LBE217:
 2487              	.LBE216:
 280:Lib/lvgl/src/core/lv_obj_draw.c ****     int32_t h = lv_obj_get_style_transform_height(obj, part);
 2488              		.loc 1 280 5 is_stmt 1 view .LVU683
 2489              	.LBB218:
 2490              	.LBI218:
  82:Lib/lvgl/src/core/lv_obj_style_gen.h **** {
 2491              		.loc 2 82 23 view .LVU684
 2492              	.LBB219:
  84:Lib/lvgl/src/core/lv_obj_style_gen.h ****     return (int32_t)v.num;
 2493              		.loc 2 84 5 view .LVU685
  84:Lib/lvgl/src/core/lv_obj_style_gen.h ****     return (int32_t)v.num;
 2494              		.loc 2 84 26 is_stmt 0 view .LVU686
 2495 0034 6922     		movs	r2, #105
 2496 0036 3146     		mov	r1, r6
 2497 0038 2846     		mov	r0, r5
 2498              	.LVL217:
  84:Lib/lvgl/src/core/lv_obj_style_gen.h ****     return (int32_t)v.num;
 2499              		.loc 2 84 26 view .LVU687
 2500 003a FFF7FEFF 		bl	lv_obj_get_style_prop
 2501              	.LVL218:
 2502 003e 0190     		str	r0, [sp, #4]
  85:Lib/lvgl/src/core/lv_obj_style_gen.h **** }
 2503              		.loc 2 85 5 is_stmt 1 view .LVU688
 2504              	.LVL219:
  85:Lib/lvgl/src/core/lv_obj_style_gen.h **** }
 2505              		.loc 2 85 5 is_stmt 0 view .LVU689
 2506              	.LBE219:
 2507              	.LBE218:
 281:Lib/lvgl/src/core/lv_obj_draw.c ****     int32_t wh = LV_MAX(w, h);
 2508              		.loc 1 281 5 is_stmt 1 view .LVU690
ARM GAS  C:\Users\Alex\AppData\Local\Temp\cccZpk1s.s 			page 72


 2509              		.loc 1 281 13 is_stmt 0 view .LVU691
 2510 0040 A042     		cmp	r0, r4
 2511 0042 B8BF     		it	lt
 2512 0044 2046     		movlt	r0, r4
 2513              	.LVL220:
 282:Lib/lvgl/src/core/lv_obj_draw.c ****     if(wh > 0) s += wh;
 2514              		.loc 1 282 5 is_stmt 1 view .LVU692
 2515              		.loc 1 282 7 is_stmt 0 view .LVU693
 2516 0046 0028     		cmp	r0, #0
 2517 0048 00DD     		ble	.L64
 2518              		.loc 1 282 16 is_stmt 1 discriminator 1 view .LVU694
 2519              		.loc 1 282 18 is_stmt 0 discriminator 1 view .LVU695
 2520 004a 0744     		add	r7, r7, r0
 2521              	.LVL221:
 283:Lib/lvgl/src/core/lv_obj_draw.c **** 
 284:Lib/lvgl/src/core/lv_obj_draw.c ****     return s;
 2522              		.loc 1 284 5 is_stmt 1 discriminator 1 view .LVU696
 2523              	.L64:
 285:Lib/lvgl/src/core/lv_obj_draw.c **** }
 2524              		.loc 1 285 1 is_stmt 0 view .LVU697
 2525 004c 3846     		mov	r0, r7
 2526              	.LVL222:
 2527              		.loc 1 285 1 view .LVU698
 2528 004e 03B0     		add	sp, sp, #12
 2529              	.LCFI52:
 2530              		.cfi_remember_state
 2531              		.cfi_def_cfa_offset 20
 2532              		@ sp needed
 2533 0050 F0BD     		pop	{r4, r5, r6, r7, pc}
 2534              	.LVL223:
 2535              	.L70:
 2536              	.LCFI53:
 2537              		.cfi_restore_state
 2538              	.LBB220:
 259:Lib/lvgl/src/core/lv_obj_draw.c ****         if(sh_opa > LV_OPA_MIN) {
 2539              		.loc 1 259 9 is_stmt 1 view .LVU699
 2540              	.LBB221:
 2541              	.LBI221:
 411:Lib/lvgl/src/core/lv_obj_style_gen.h **** {
 2542              		.loc 2 411 24 view .LVU700
 2543              	.LBB222:
 413:Lib/lvgl/src/core/lv_obj_style_gen.h ****     return (lv_opa_t)v.num;
 2544              		.loc 2 413 5 view .LVU701
 413:Lib/lvgl/src/core/lv_obj_style_gen.h ****     return (lv_opa_t)v.num;
 2545              		.loc 2 413 26 is_stmt 0 view .LVU702
 2546 0052 3E22     		movs	r2, #62
 2547 0054 3146     		mov	r1, r6
 2548 0056 2846     		mov	r0, r5
 2549              	.LVL224:
 413:Lib/lvgl/src/core/lv_obj_style_gen.h ****     return (lv_opa_t)v.num;
 2550              		.loc 2 413 26 view .LVU703
 2551 0058 FFF7FEFF 		bl	lv_obj_get_style_prop
 2552              	.LVL225:
 2553 005c 0190     		str	r0, [sp, #4]
 414:Lib/lvgl/src/core/lv_obj_style_gen.h **** }
 2554              		.loc 2 414 5 is_stmt 1 view .LVU704
 414:Lib/lvgl/src/core/lv_obj_style_gen.h **** }
ARM GAS  C:\Users\Alex\AppData\Local\Temp\cccZpk1s.s 			page 73


 2555              		.loc 2 414 12 is_stmt 0 view .LVU705
 2556 005e C0B2     		uxtb	r0, r0
 2557              	.LVL226:
 414:Lib/lvgl/src/core/lv_obj_style_gen.h **** }
 2558              		.loc 2 414 12 view .LVU706
 2559              	.LBE222:
 2560              	.LBE221:
 260:Lib/lvgl/src/core/lv_obj_draw.c ****             sh_width = sh_width / 2 + 1;    /*The blur adds only half width*/
 2561              		.loc 1 260 9 is_stmt 1 view .LVU707
 260:Lib/lvgl/src/core/lv_obj_draw.c ****             sh_width = sh_width / 2 + 1;    /*The blur adds only half width*/
 2562              		.loc 1 260 11 is_stmt 0 view .LVU708
 2563 0060 0228     		cmp	r0, #2
 2564 0062 01D8     		bhi	.L72
 2565              	.LBE220:
 255:Lib/lvgl/src/core/lv_obj_draw.c **** 
 2566              		.loc 1 255 13 view .LVU709
 2567 0064 0027     		movs	r7, #0
 2568              	.LVL227:
 255:Lib/lvgl/src/core/lv_obj_draw.c **** 
 2569              		.loc 1 255 13 view .LVU710
 2570 0066 D5E7     		b	.L65
 2571              	.LVL228:
 2572              	.L72:
 2573              	.LBB230:
 2574              	.LBB223:
 261:Lib/lvgl/src/core/lv_obj_draw.c ****             sh_width += lv_obj_get_style_shadow_spread(obj, part);
 2575              		.loc 1 261 13 is_stmt 1 view .LVU711
 261:Lib/lvgl/src/core/lv_obj_draw.c ****             sh_width += lv_obj_get_style_shadow_spread(obj, part);
 2576              		.loc 1 261 33 is_stmt 0 view .LVU712
 2577 0068 07EBD774 		add	r4, r7, r7, lsr #31
 2578 006c 6410     		asrs	r4, r4, #1
 261:Lib/lvgl/src/core/lv_obj_draw.c ****             sh_width += lv_obj_get_style_shadow_spread(obj, part);
 2579              		.loc 1 261 22 view .LVU713
 2580 006e 0134     		adds	r4, r4, #1
 2581              	.LVL229:
 262:Lib/lvgl/src/core/lv_obj_draw.c ****             int32_t sh_ofs_x = lv_obj_get_style_shadow_offset_x(obj, part);
 2582              		.loc 1 262 13 is_stmt 1 view .LVU714
 2583              	.LBB224:
 2584              	.LBI224:
 392:Lib/lvgl/src/core/lv_obj_style_gen.h **** {
 2585              		.loc 2 392 23 view .LVU715
 2586              	.LBB225:
 394:Lib/lvgl/src/core/lv_obj_style_gen.h ****     return (int32_t)v.num;
 2587              		.loc 2 394 5 view .LVU716
 394:Lib/lvgl/src/core/lv_obj_style_gen.h ****     return (int32_t)v.num;
 2588              		.loc 2 394 26 is_stmt 0 view .LVU717
 2589 0070 4222     		movs	r2, #66
 2590 0072 3146     		mov	r1, r6
 2591 0074 2846     		mov	r0, r5
 2592              	.LVL230:
 394:Lib/lvgl/src/core/lv_obj_style_gen.h ****     return (int32_t)v.num;
 2593              		.loc 2 394 26 view .LVU718
 2594 0076 FFF7FEFF 		bl	lv_obj_get_style_prop
 2595              	.LVL231:
 394:Lib/lvgl/src/core/lv_obj_style_gen.h ****     return (int32_t)v.num;
 2596              		.loc 2 394 26 view .LVU719
 2597 007a 0190     		str	r0, [sp, #4]
ARM GAS  C:\Users\Alex\AppData\Local\Temp\cccZpk1s.s 			page 74


 395:Lib/lvgl/src/core/lv_obj_style_gen.h **** }
 2598              		.loc 2 395 5 is_stmt 1 view .LVU720
 2599              	.LVL232:
 395:Lib/lvgl/src/core/lv_obj_style_gen.h **** }
 2600              		.loc 2 395 5 is_stmt 0 view .LVU721
 2601              	.LBE225:
 2602              	.LBE224:
 262:Lib/lvgl/src/core/lv_obj_draw.c ****             int32_t sh_ofs_x = lv_obj_get_style_shadow_offset_x(obj, part);
 2603              		.loc 1 262 22 view .LVU722
 2604 007c 0444     		add	r4, r4, r0
 2605              	.LVL233:
 263:Lib/lvgl/src/core/lv_obj_draw.c ****             int32_t sh_ofs_y = lv_obj_get_style_shadow_offset_y(obj, part);
 2606              		.loc 1 263 13 is_stmt 1 view .LVU723
 2607              	.LBB226:
 2608              	.LBI226:
 380:Lib/lvgl/src/core/lv_obj_style_gen.h **** {
 2609              		.loc 2 380 23 view .LVU724
 2610              	.LBB227:
 382:Lib/lvgl/src/core/lv_obj_style_gen.h ****     return (int32_t)v.num;
 2611              		.loc 2 382 5 view .LVU725
 382:Lib/lvgl/src/core/lv_obj_style_gen.h ****     return (int32_t)v.num;
 2612              		.loc 2 382 26 is_stmt 0 view .LVU726
 2613 007e 4022     		movs	r2, #64
 2614 0080 3146     		mov	r1, r6
 2615 0082 2846     		mov	r0, r5
 2616 0084 FFF7FEFF 		bl	lv_obj_get_style_prop
 2617              	.LVL234:
 2618 0088 0746     		mov	r7, r0
 2619 008a 0190     		str	r0, [sp, #4]
 383:Lib/lvgl/src/core/lv_obj_style_gen.h **** }
 2620              		.loc 2 383 5 is_stmt 1 view .LVU727
 2621              	.LVL235:
 383:Lib/lvgl/src/core/lv_obj_style_gen.h **** }
 2622              		.loc 2 383 5 is_stmt 0 view .LVU728
 2623              	.LBE227:
 2624              	.LBE226:
 264:Lib/lvgl/src/core/lv_obj_draw.c ****             sh_width += LV_MAX(LV_ABS(sh_ofs_x), LV_ABS(sh_ofs_y));
 2625              		.loc 1 264 13 is_stmt 1 view .LVU729
 2626              	.LBB228:
 2627              	.LBI228:
 386:Lib/lvgl/src/core/lv_obj_style_gen.h **** {
 2628              		.loc 2 386 23 view .LVU730
 2629              	.LBB229:
 388:Lib/lvgl/src/core/lv_obj_style_gen.h ****     return (int32_t)v.num;
 2630              		.loc 2 388 5 view .LVU731
 388:Lib/lvgl/src/core/lv_obj_style_gen.h ****     return (int32_t)v.num;
 2631              		.loc 2 388 26 is_stmt 0 view .LVU732
 2632 008c 4122     		movs	r2, #65
 2633 008e 3146     		mov	r1, r6
 2634 0090 2846     		mov	r0, r5
 2635              	.LVL236:
 388:Lib/lvgl/src/core/lv_obj_style_gen.h ****     return (int32_t)v.num;
 2636              		.loc 2 388 26 view .LVU733
 2637 0092 FFF7FEFF 		bl	lv_obj_get_style_prop
 2638              	.LVL237:
 2639 0096 0190     		str	r0, [sp, #4]
 389:Lib/lvgl/src/core/lv_obj_style_gen.h **** }
ARM GAS  C:\Users\Alex\AppData\Local\Temp\cccZpk1s.s 			page 75


 2640              		.loc 2 389 5 is_stmt 1 view .LVU734
 2641              	.LVL238:
 389:Lib/lvgl/src/core/lv_obj_style_gen.h **** }
 2642              		.loc 2 389 5 is_stmt 0 view .LVU735
 2643              	.LBE229:
 2644              	.LBE228:
 265:Lib/lvgl/src/core/lv_obj_draw.c ****             s = LV_MAX(s, sh_width);
 2645              		.loc 1 265 13 is_stmt 1 view .LVU736
 265:Lib/lvgl/src/core/lv_obj_draw.c ****             s = LV_MAX(s, sh_width);
 2646              		.loc 1 265 25 is_stmt 0 view .LVU737
 2647 0098 0028     		cmp	r0, #0
 2648 009a B8BF     		it	lt
 2649 009c 4042     		rsblt	r0, r0, #0
 2650              	.LVL239:
 265:Lib/lvgl/src/core/lv_obj_draw.c ****             s = LV_MAX(s, sh_width);
 2651              		.loc 1 265 25 view .LVU738
 2652 009e 002F     		cmp	r7, #0
 2653 00a0 B8BF     		it	lt
 2654 00a2 7F42     		rsblt	r7, r7, #0
 2655              	.LVL240:
 265:Lib/lvgl/src/core/lv_obj_draw.c ****             s = LV_MAX(s, sh_width);
 2656              		.loc 1 265 22 view .LVU739
 2657 00a4 B842     		cmp	r0, r7
 2658 00a6 ACBF     		ite	ge
 2659 00a8 2418     		addge	r4, r4, r0
 2660 00aa E419     		addlt	r4, r4, r7
 2661              	.LVL241:
 266:Lib/lvgl/src/core/lv_obj_draw.c ****         }
 2662              		.loc 1 266 13 is_stmt 1 view .LVU740
 266:Lib/lvgl/src/core/lv_obj_draw.c ****         }
 2663              		.loc 1 266 15 is_stmt 0 view .LVU741
 2664 00ac 24EAE477 		bic	r7, r4, r4, asr #31
 2665              	.LVL242:
 266:Lib/lvgl/src/core/lv_obj_draw.c ****         }
 2666              		.loc 1 266 15 view .LVU742
 2667 00b0 B0E7     		b	.L65
 2668              	.LVL243:
 2669              	.L71:
 266:Lib/lvgl/src/core/lv_obj_draw.c ****         }
 2670              		.loc 1 266 15 view .LVU743
 2671              	.LBE223:
 2672              	.LBE230:
 2673              	.LBB231:
 272:Lib/lvgl/src/core/lv_obj_draw.c ****         if(outline_opa > LV_OPA_MIN) {
 2674              		.loc 1 272 9 is_stmt 1 view .LVU744
 2675              	.LBB232:
 2676              	.LBI232:
 362:Lib/lvgl/src/core/lv_obj_style_gen.h **** {
 2677              		.loc 2 362 24 view .LVU745
 2678              	.LBB233:
 364:Lib/lvgl/src/core/lv_obj_style_gen.h ****     return (lv_opa_t)v.num;
 2679              		.loc 2 364 5 view .LVU746
 364:Lib/lvgl/src/core/lv_obj_style_gen.h ****     return (lv_opa_t)v.num;
 2680              		.loc 2 364 26 is_stmt 0 view .LVU747
 2681 00b2 3A22     		movs	r2, #58
 2682 00b4 3146     		mov	r1, r6
 2683 00b6 2846     		mov	r0, r5
ARM GAS  C:\Users\Alex\AppData\Local\Temp\cccZpk1s.s 			page 76


 2684              	.LVL244:
 364:Lib/lvgl/src/core/lv_obj_style_gen.h ****     return (lv_opa_t)v.num;
 2685              		.loc 2 364 26 view .LVU748
 2686 00b8 FFF7FEFF 		bl	lv_obj_get_style_prop
 2687              	.LVL245:
 2688 00bc 0190     		str	r0, [sp, #4]
 365:Lib/lvgl/src/core/lv_obj_style_gen.h **** }
 2689              		.loc 2 365 5 is_stmt 1 view .LVU749
 365:Lib/lvgl/src/core/lv_obj_style_gen.h **** }
 2690              		.loc 2 365 12 is_stmt 0 view .LVU750
 2691 00be C0B2     		uxtb	r0, r0
 2692              	.LVL246:
 365:Lib/lvgl/src/core/lv_obj_style_gen.h **** }
 2693              		.loc 2 365 12 view .LVU751
 2694              	.LBE233:
 2695              	.LBE232:
 273:Lib/lvgl/src/core/lv_obj_draw.c ****             int32_t outline_pad = lv_obj_get_style_outline_pad(obj, part);
 2696              		.loc 1 273 9 is_stmt 1 view .LVU752
 273:Lib/lvgl/src/core/lv_obj_draw.c ****             int32_t outline_pad = lv_obj_get_style_outline_pad(obj, part);
 2697              		.loc 1 273 11 is_stmt 0 view .LVU753
 2698 00c0 0228     		cmp	r0, #2
 2699 00c2 B0D9     		bls	.L66
 2700              	.LBB234:
 274:Lib/lvgl/src/core/lv_obj_draw.c ****             s = LV_MAX(s, outline_pad + outline_width);
 2701              		.loc 1 274 13 is_stmt 1 view .LVU754
 2702              	.LVL247:
 2703              	.LBB235:
 2704              	.LBI235:
 368:Lib/lvgl/src/core/lv_obj_style_gen.h **** {
 2705              		.loc 2 368 23 view .LVU755
 2706              	.LBB236:
 370:Lib/lvgl/src/core/lv_obj_style_gen.h ****     return (int32_t)v.num;
 2707              		.loc 2 370 5 view .LVU756
 370:Lib/lvgl/src/core/lv_obj_style_gen.h ****     return (int32_t)v.num;
 2708              		.loc 2 370 26 is_stmt 0 view .LVU757
 2709 00c4 3B22     		movs	r2, #59
 2710 00c6 3146     		mov	r1, r6
 2711 00c8 2846     		mov	r0, r5
 2712              	.LVL248:
 370:Lib/lvgl/src/core/lv_obj_style_gen.h ****     return (int32_t)v.num;
 2713              		.loc 2 370 26 view .LVU758
 2714 00ca FFF7FEFF 		bl	lv_obj_get_style_prop
 2715              	.LVL249:
 370:Lib/lvgl/src/core/lv_obj_style_gen.h ****     return (int32_t)v.num;
 2716              		.loc 2 370 26 view .LVU759
 2717 00ce 0190     		str	r0, [sp, #4]
 371:Lib/lvgl/src/core/lv_obj_style_gen.h **** }
 2718              		.loc 2 371 5 is_stmt 1 view .LVU760
 2719              	.LVL250:
 371:Lib/lvgl/src/core/lv_obj_style_gen.h **** }
 2720              		.loc 2 371 5 is_stmt 0 view .LVU761
 2721              	.LBE236:
 2722              	.LBE235:
 275:Lib/lvgl/src/core/lv_obj_draw.c ****         }
 2723              		.loc 1 275 13 is_stmt 1 view .LVU762
 275:Lib/lvgl/src/core/lv_obj_draw.c ****         }
 2724              		.loc 1 275 17 is_stmt 0 view .LVU763
ARM GAS  C:\Users\Alex\AppData\Local\Temp\cccZpk1s.s 			page 77


 2725 00d0 0444     		add	r4, r4, r0
 2726              	.LVL251:
 275:Lib/lvgl/src/core/lv_obj_draw.c ****         }
 2727              		.loc 1 275 15 view .LVU764
 2728 00d2 A742     		cmp	r7, r4
 2729 00d4 B8BF     		it	lt
 2730 00d6 2746     		movlt	r7, r4
 2731              	.LVL252:
 275:Lib/lvgl/src/core/lv_obj_draw.c ****         }
 2732              		.loc 1 275 15 view .LVU765
 2733 00d8 A5E7     		b	.L66
 2734              	.LBE234:
 2735              	.LBE231:
 2736              		.cfi_endproc
 2737              	.LFE238:
 2739              		.section	.text._lv_obj_get_ext_draw_size,"ax",%progbits
 2740              		.align	1
 2741              		.global	_lv_obj_get_ext_draw_size
 2742              		.syntax unified
 2743              		.thumb
 2744              		.thumb_func
 2746              	_lv_obj_get_ext_draw_size:
 2747              	.LVL253:
 2748              	.LFB240:
 286:Lib/lvgl/src/core/lv_obj_draw.c **** 
 287:Lib/lvgl/src/core/lv_obj_draw.c **** void lv_obj_refresh_ext_draw_size(lv_obj_t * obj)
 288:Lib/lvgl/src/core/lv_obj_draw.c **** {
 289:Lib/lvgl/src/core/lv_obj_draw.c ****     LV_ASSERT_OBJ(obj, MY_CLASS);
 290:Lib/lvgl/src/core/lv_obj_draw.c **** 
 291:Lib/lvgl/src/core/lv_obj_draw.c ****     int32_t s_old = _lv_obj_get_ext_draw_size(obj);
 292:Lib/lvgl/src/core/lv_obj_draw.c ****     int32_t s_new = 0;
 293:Lib/lvgl/src/core/lv_obj_draw.c ****     lv_obj_send_event(obj, LV_EVENT_REFR_EXT_DRAW_SIZE, &s_new);
 294:Lib/lvgl/src/core/lv_obj_draw.c **** 
 295:Lib/lvgl/src/core/lv_obj_draw.c ****     if(s_new != s_old) lv_obj_invalidate(obj);
 296:Lib/lvgl/src/core/lv_obj_draw.c **** 
 297:Lib/lvgl/src/core/lv_obj_draw.c ****     /*Store the result if the special attrs already allocated*/
 298:Lib/lvgl/src/core/lv_obj_draw.c ****     if(obj->spec_attr) {
 299:Lib/lvgl/src/core/lv_obj_draw.c ****         obj->spec_attr->ext_draw_size = s_new;
 300:Lib/lvgl/src/core/lv_obj_draw.c ****     }
 301:Lib/lvgl/src/core/lv_obj_draw.c ****     /*Allocate spec. attrs. only if the result is not zero.
 302:Lib/lvgl/src/core/lv_obj_draw.c ****      *Zero is the default value if the spec. attr. are not defined.*/
 303:Lib/lvgl/src/core/lv_obj_draw.c ****     else if(s_new != 0) {
 304:Lib/lvgl/src/core/lv_obj_draw.c ****         lv_obj_allocate_spec_attr(obj);
 305:Lib/lvgl/src/core/lv_obj_draw.c ****         obj->spec_attr->ext_draw_size = s_new;
 306:Lib/lvgl/src/core/lv_obj_draw.c ****     }
 307:Lib/lvgl/src/core/lv_obj_draw.c **** 
 308:Lib/lvgl/src/core/lv_obj_draw.c ****     if(s_new != s_old) lv_obj_invalidate(obj);
 309:Lib/lvgl/src/core/lv_obj_draw.c **** }
 310:Lib/lvgl/src/core/lv_obj_draw.c **** 
 311:Lib/lvgl/src/core/lv_obj_draw.c **** int32_t _lv_obj_get_ext_draw_size(const lv_obj_t * obj)
 312:Lib/lvgl/src/core/lv_obj_draw.c **** {
 2749              		.loc 1 312 1 is_stmt 1 view -0
 2750              		.cfi_startproc
 2751              		@ args = 0, pretend = 0, frame = 0
 2752              		@ frame_needed = 0, uses_anonymous_args = 0
 2753              		@ link register save eliminated.
 313:Lib/lvgl/src/core/lv_obj_draw.c ****     if(obj->spec_attr) return obj->spec_attr->ext_draw_size;
ARM GAS  C:\Users\Alex\AppData\Local\Temp\cccZpk1s.s 			page 78


 2754              		.loc 1 313 5 view .LVU767
 2755              		.loc 1 313 11 is_stmt 0 view .LVU768
