ARM GAS  C:\Users\Alex\AppData\Local\Temp\cc6CnhIe.s 			page 1


   1              		.cpu cortex-m4
   2              		.arch armv7e-m
   3              		.fpu fpv4-sp-d16
   4              		.eabi_attribute 27, 1
   5              		.eabi_attribute 28, 1
   6              		.eabi_attribute 20, 1
   7              		.eabi_attribute 21, 1
   8              		.eabi_attribute 23, 3
   9              		.eabi_attribute 24, 1
  10              		.eabi_attribute 25, 1
  11              		.eabi_attribute 26, 1
  12              		.eabi_attribute 30, 1
  13              		.eabi_attribute 34, 1
  14              		.eabi_attribute 18, 4
  15              		.file	"lv_obj_style_gen.c"
  16              		.text
  17              	.Ltext0:
  18              		.cfi_sections	.debug_frame
  19              		.file 1 "Lib/lvgl/src/core/lv_obj_style_gen.c"
  20              		.section	.text.lv_obj_set_style_width,"ax",%progbits
  21              		.align	1
  22              		.global	lv_obj_set_style_width
  23              		.syntax unified
  24              		.thumb
  25              		.thumb_func
  27              	lv_obj_set_style_width:
  28              	.LVL0:
  29              	.LFB233:
   1:Lib/lvgl/src/core/lv_obj_style_gen.c **** 
   2:Lib/lvgl/src/core/lv_obj_style_gen.c **** /*
   3:Lib/lvgl/src/core/lv_obj_style_gen.c ****  **********************************************************************
   4:Lib/lvgl/src/core/lv_obj_style_gen.c ****  *                            DO NOT EDIT
   5:Lib/lvgl/src/core/lv_obj_style_gen.c ****  * This file is automatically generated by "style_api_gen.py"
   6:Lib/lvgl/src/core/lv_obj_style_gen.c ****  **********************************************************************
   7:Lib/lvgl/src/core/lv_obj_style_gen.c ****  */
   8:Lib/lvgl/src/core/lv_obj_style_gen.c **** 
   9:Lib/lvgl/src/core/lv_obj_style_gen.c **** 
  10:Lib/lvgl/src/core/lv_obj_style_gen.c **** #include "lv_obj.h"
  11:Lib/lvgl/src/core/lv_obj_style_gen.c **** 
  12:Lib/lvgl/src/core/lv_obj_style_gen.c **** 
  13:Lib/lvgl/src/core/lv_obj_style_gen.c **** void lv_obj_set_style_width(lv_obj_t * obj, int32_t value, lv_style_selector_t selector)
  14:Lib/lvgl/src/core/lv_obj_style_gen.c **** {
  30              		.loc 1 14 1 view -0
  31              		.cfi_startproc
  32              		@ args = 0, pretend = 0, frame = 8
  33              		@ frame_needed = 0, uses_anonymous_args = 0
  34              		.loc 1 14 1 is_stmt 0 view .LVU1
  35 0000 00B5     		push	{lr}
  36              	.LCFI0:
  37              		.cfi_def_cfa_offset 4
  38              		.cfi_offset 14, -4
  39 0002 83B0     		sub	sp, sp, #12
  40              	.LCFI1:
  41              		.cfi_def_cfa_offset 16
  42 0004 1346     		mov	r3, r2
  15:Lib/lvgl/src/core/lv_obj_style_gen.c ****     lv_style_value_t v = {
  43              		.loc 1 15 5 is_stmt 1 view .LVU2
ARM GAS  C:\Users\Alex\AppData\Local\Temp\cc6CnhIe.s 			page 2


  44              		.loc 1 15 22 is_stmt 0 view .LVU3
  45 0006 0191     		str	r1, [sp, #4]
  16:Lib/lvgl/src/core/lv_obj_style_gen.c ****         .num = (int32_t)value
  17:Lib/lvgl/src/core/lv_obj_style_gen.c ****     };
  18:Lib/lvgl/src/core/lv_obj_style_gen.c ****     lv_obj_set_local_style_prop(obj, LV_STYLE_WIDTH, v, selector);
  46              		.loc 1 18 5 is_stmt 1 view .LVU4
  47 0008 0A46     		mov	r2, r1
  48              	.LVL1:
  49              		.loc 1 18 5 is_stmt 0 view .LVU5
  50 000a 0121     		movs	r1, #1
  51              	.LVL2:
  52              		.loc 1 18 5 view .LVU6
  53 000c FFF7FEFF 		bl	lv_obj_set_local_style_prop
  54              	.LVL3:
  19:Lib/lvgl/src/core/lv_obj_style_gen.c **** }
  55              		.loc 1 19 1 view .LVU7
  56 0010 03B0     		add	sp, sp, #12
  57              	.LCFI2:
  58              		.cfi_def_cfa_offset 4
  59              		@ sp needed
  60 0012 5DF804FB 		ldr	pc, [sp], #4
  61              		.loc 1 19 1 view .LVU8
  62              		.cfi_endproc
  63              	.LFE233:
  65              		.section	.text.lv_obj_set_style_min_width,"ax",%progbits
  66              		.align	1
  67              		.global	lv_obj_set_style_min_width
  68              		.syntax unified
  69              		.thumb
  70              		.thumb_func
  72              	lv_obj_set_style_min_width:
  73              	.LVL4:
  74              	.LFB234:
  20:Lib/lvgl/src/core/lv_obj_style_gen.c **** 
  21:Lib/lvgl/src/core/lv_obj_style_gen.c **** void lv_obj_set_style_min_width(lv_obj_t * obj, int32_t value, lv_style_selector_t selector)
  22:Lib/lvgl/src/core/lv_obj_style_gen.c **** {
  75              		.loc 1 22 1 is_stmt 1 view -0
  76              		.cfi_startproc
  77              		@ args = 0, pretend = 0, frame = 8
  78              		@ frame_needed = 0, uses_anonymous_args = 0
  79              		.loc 1 22 1 is_stmt 0 view .LVU10
  80 0000 00B5     		push	{lr}
  81              	.LCFI3:
  82              		.cfi_def_cfa_offset 4
  83              		.cfi_offset 14, -4
  84 0002 83B0     		sub	sp, sp, #12
  85              	.LCFI4:
  86              		.cfi_def_cfa_offset 16
  87 0004 1346     		mov	r3, r2
  23:Lib/lvgl/src/core/lv_obj_style_gen.c ****     lv_style_value_t v = {
  88              		.loc 1 23 5 is_stmt 1 view .LVU11
  89              		.loc 1 23 22 is_stmt 0 view .LVU12
  90 0006 0191     		str	r1, [sp, #4]
  24:Lib/lvgl/src/core/lv_obj_style_gen.c ****         .num = (int32_t)value
  25:Lib/lvgl/src/core/lv_obj_style_gen.c ****     };
  26:Lib/lvgl/src/core/lv_obj_style_gen.c ****     lv_obj_set_local_style_prop(obj, LV_STYLE_MIN_WIDTH, v, selector);
  91              		.loc 1 26 5 is_stmt 1 view .LVU13
ARM GAS  C:\Users\Alex\AppData\Local\Temp\cc6CnhIe.s 			page 3


  92 0008 0A46     		mov	r2, r1
  93              	.LVL5:
  94              		.loc 1 26 5 is_stmt 0 view .LVU14
  95 000a 0421     		movs	r1, #4
  96              	.LVL6:
  97              		.loc 1 26 5 view .LVU15
  98 000c FFF7FEFF 		bl	lv_obj_set_local_style_prop
  99              	.LVL7:
  27:Lib/lvgl/src/core/lv_obj_style_gen.c **** }
 100              		.loc 1 27 1 view .LVU16
 101 0010 03B0     		add	sp, sp, #12
 102              	.LCFI5:
 103              		.cfi_def_cfa_offset 4
 104              		@ sp needed
 105 0012 5DF804FB 		ldr	pc, [sp], #4
 106              		.loc 1 27 1 view .LVU17
 107              		.cfi_endproc
 108              	.LFE234:
 110              		.section	.text.lv_obj_set_style_max_width,"ax",%progbits
 111              		.align	1
 112              		.global	lv_obj_set_style_max_width
 113              		.syntax unified
 114              		.thumb
 115              		.thumb_func
 117              	lv_obj_set_style_max_width:
 118              	.LVL8:
 119              	.LFB235:
  28:Lib/lvgl/src/core/lv_obj_style_gen.c **** 
  29:Lib/lvgl/src/core/lv_obj_style_gen.c **** void lv_obj_set_style_max_width(lv_obj_t * obj, int32_t value, lv_style_selector_t selector)
  30:Lib/lvgl/src/core/lv_obj_style_gen.c **** {
 120              		.loc 1 30 1 is_stmt 1 view -0
 121              		.cfi_startproc
 122              		@ args = 0, pretend = 0, frame = 8
 123              		@ frame_needed = 0, uses_anonymous_args = 0
 124              		.loc 1 30 1 is_stmt 0 view .LVU19
 125 0000 00B5     		push	{lr}
 126              	.LCFI6:
 127              		.cfi_def_cfa_offset 4
 128              		.cfi_offset 14, -4
 129 0002 83B0     		sub	sp, sp, #12
 130              	.LCFI7:
 131              		.cfi_def_cfa_offset 16
 132 0004 1346     		mov	r3, r2
  31:Lib/lvgl/src/core/lv_obj_style_gen.c ****     lv_style_value_t v = {
 133              		.loc 1 31 5 is_stmt 1 view .LVU20
 134              		.loc 1 31 22 is_stmt 0 view .LVU21
 135 0006 0191     		str	r1, [sp, #4]
  32:Lib/lvgl/src/core/lv_obj_style_gen.c ****         .num = (int32_t)value
  33:Lib/lvgl/src/core/lv_obj_style_gen.c ****     };
  34:Lib/lvgl/src/core/lv_obj_style_gen.c ****     lv_obj_set_local_style_prop(obj, LV_STYLE_MAX_WIDTH, v, selector);
 136              		.loc 1 34 5 is_stmt 1 view .LVU22
 137 0008 0A46     		mov	r2, r1
 138              	.LVL9:
 139              		.loc 1 34 5 is_stmt 0 view .LVU23
 140 000a 0521     		movs	r1, #5
 141              	.LVL10:
 142              		.loc 1 34 5 view .LVU24
ARM GAS  C:\Users\Alex\AppData\Local\Temp\cc6CnhIe.s 			page 4


 143 000c FFF7FEFF 		bl	lv_obj_set_local_style_prop
 144              	.LVL11:
  35:Lib/lvgl/src/core/lv_obj_style_gen.c **** }
 145              		.loc 1 35 1 view .LVU25
 146 0010 03B0     		add	sp, sp, #12
 147              	.LCFI8:
 148              		.cfi_def_cfa_offset 4
 149              		@ sp needed
 150 0012 5DF804FB 		ldr	pc, [sp], #4
 151              		.loc 1 35 1 view .LVU26
 152              		.cfi_endproc
 153              	.LFE235:
 155              		.section	.text.lv_obj_set_style_height,"ax",%progbits
 156              		.align	1
 157              		.global	lv_obj_set_style_height
 158              		.syntax unified
 159              		.thumb
 160              		.thumb_func
 162              	lv_obj_set_style_height:
 163              	.LVL12:
 164              	.LFB236:
  36:Lib/lvgl/src/core/lv_obj_style_gen.c **** 
  37:Lib/lvgl/src/core/lv_obj_style_gen.c **** void lv_obj_set_style_height(lv_obj_t * obj, int32_t value, lv_style_selector_t selector)
  38:Lib/lvgl/src/core/lv_obj_style_gen.c **** {
 165              		.loc 1 38 1 is_stmt 1 view -0
 166              		.cfi_startproc
 167              		@ args = 0, pretend = 0, frame = 8
 168              		@ frame_needed = 0, uses_anonymous_args = 0
 169              		.loc 1 38 1 is_stmt 0 view .LVU28
 170 0000 00B5     		push	{lr}
 171              	.LCFI9:
 172              		.cfi_def_cfa_offset 4
 173              		.cfi_offset 14, -4
 174 0002 83B0     		sub	sp, sp, #12
 175              	.LCFI10:
 176              		.cfi_def_cfa_offset 16
 177 0004 1346     		mov	r3, r2
  39:Lib/lvgl/src/core/lv_obj_style_gen.c ****     lv_style_value_t v = {
 178              		.loc 1 39 5 is_stmt 1 view .LVU29
 179              		.loc 1 39 22 is_stmt 0 view .LVU30
 180 0006 0191     		str	r1, [sp, #4]
  40:Lib/lvgl/src/core/lv_obj_style_gen.c ****         .num = (int32_t)value
  41:Lib/lvgl/src/core/lv_obj_style_gen.c ****     };
  42:Lib/lvgl/src/core/lv_obj_style_gen.c ****     lv_obj_set_local_style_prop(obj, LV_STYLE_HEIGHT, v, selector);
 181              		.loc 1 42 5 is_stmt 1 view .LVU31
 182 0008 0A46     		mov	r2, r1
 183              	.LVL13:
 184              		.loc 1 42 5 is_stmt 0 view .LVU32
 185 000a 0221     		movs	r1, #2
 186              	.LVL14:
 187              		.loc 1 42 5 view .LVU33
 188 000c FFF7FEFF 		bl	lv_obj_set_local_style_prop
 189              	.LVL15:
  43:Lib/lvgl/src/core/lv_obj_style_gen.c **** }
 190              		.loc 1 43 1 view .LVU34
 191 0010 03B0     		add	sp, sp, #12
 192              	.LCFI11:
ARM GAS  C:\Users\Alex\AppData\Local\Temp\cc6CnhIe.s 			page 5


 193              		.cfi_def_cfa_offset 4
 194              		@ sp needed
 195 0012 5DF804FB 		ldr	pc, [sp], #4
 196              		.loc 1 43 1 view .LVU35
 197              		.cfi_endproc
 198              	.LFE236:
 200              		.section	.text.lv_obj_set_style_min_height,"ax",%progbits
 201              		.align	1
 202              		.global	lv_obj_set_style_min_height
 203              		.syntax unified
 204              		.thumb
 205              		.thumb_func
 207              	lv_obj_set_style_min_height:
 208              	.LVL16:
 209              	.LFB237:
  44:Lib/lvgl/src/core/lv_obj_style_gen.c **** 
  45:Lib/lvgl/src/core/lv_obj_style_gen.c **** void lv_obj_set_style_min_height(lv_obj_t * obj, int32_t value, lv_style_selector_t selector)
  46:Lib/lvgl/src/core/lv_obj_style_gen.c **** {
 210              		.loc 1 46 1 is_stmt 1 view -0
 211              		.cfi_startproc
 212              		@ args = 0, pretend = 0, frame = 8
 213              		@ frame_needed = 0, uses_anonymous_args = 0
 214              		.loc 1 46 1 is_stmt 0 view .LVU37
 215 0000 00B5     		push	{lr}
 216              	.LCFI12:
 217              		.cfi_def_cfa_offset 4
 218              		.cfi_offset 14, -4
 219 0002 83B0     		sub	sp, sp, #12
 220              	.LCFI13:
 221              		.cfi_def_cfa_offset 16
 222 0004 1346     		mov	r3, r2
  47:Lib/lvgl/src/core/lv_obj_style_gen.c ****     lv_style_value_t v = {
 223              		.loc 1 47 5 is_stmt 1 view .LVU38
 224              		.loc 1 47 22 is_stmt 0 view .LVU39
 225 0006 0191     		str	r1, [sp, #4]
  48:Lib/lvgl/src/core/lv_obj_style_gen.c ****         .num = (int32_t)value
  49:Lib/lvgl/src/core/lv_obj_style_gen.c ****     };
  50:Lib/lvgl/src/core/lv_obj_style_gen.c ****     lv_obj_set_local_style_prop(obj, LV_STYLE_MIN_HEIGHT, v, selector);
 226              		.loc 1 50 5 is_stmt 1 view .LVU40
 227 0008 0A46     		mov	r2, r1
 228              	.LVL17:
 229              		.loc 1 50 5 is_stmt 0 view .LVU41
 230 000a 0621     		movs	r1, #6
 231              	.LVL18:
 232              		.loc 1 50 5 view .LVU42
 233 000c FFF7FEFF 		bl	lv_obj_set_local_style_prop
 234              	.LVL19:
  51:Lib/lvgl/src/core/lv_obj_style_gen.c **** }
 235              		.loc 1 51 1 view .LVU43
 236 0010 03B0     		add	sp, sp, #12
 237              	.LCFI14:
 238              		.cfi_def_cfa_offset 4
 239              		@ sp needed
 240 0012 5DF804FB 		ldr	pc, [sp], #4
 241              		.loc 1 51 1 view .LVU44
 242              		.cfi_endproc
 243              	.LFE237:
ARM GAS  C:\Users\Alex\AppData\Local\Temp\cc6CnhIe.s 			page 6


 245              		.section	.text.lv_obj_set_style_max_height,"ax",%progbits
 246              		.align	1
 247              		.global	lv_obj_set_style_max_height
 248              		.syntax unified
 249              		.thumb
 250              		.thumb_func
 252              	lv_obj_set_style_max_height:
 253              	.LVL20:
 254              	.LFB238:
  52:Lib/lvgl/src/core/lv_obj_style_gen.c **** 
  53:Lib/lvgl/src/core/lv_obj_style_gen.c **** void lv_obj_set_style_max_height(lv_obj_t * obj, int32_t value, lv_style_selector_t selector)
  54:Lib/lvgl/src/core/lv_obj_style_gen.c **** {
 255              		.loc 1 54 1 is_stmt 1 view -0
 256              		.cfi_startproc
 257              		@ args = 0, pretend = 0, frame = 8
 258              		@ frame_needed = 0, uses_anonymous_args = 0
 259              		.loc 1 54 1 is_stmt 0 view .LVU46
 260 0000 00B5     		push	{lr}
 261              	.LCFI15:
 262              		.cfi_def_cfa_offset 4
 263              		.cfi_offset 14, -4
 264 0002 83B0     		sub	sp, sp, #12
 265              	.LCFI16:
 266              		.cfi_def_cfa_offset 16
 267 0004 1346     		mov	r3, r2
  55:Lib/lvgl/src/core/lv_obj_style_gen.c ****     lv_style_value_t v = {
 268              		.loc 1 55 5 is_stmt 1 view .LVU47
 269              		.loc 1 55 22 is_stmt 0 view .LVU48
 270 0006 0191     		str	r1, [sp, #4]
  56:Lib/lvgl/src/core/lv_obj_style_gen.c ****         .num = (int32_t)value
  57:Lib/lvgl/src/core/lv_obj_style_gen.c ****     };
  58:Lib/lvgl/src/core/lv_obj_style_gen.c ****     lv_obj_set_local_style_prop(obj, LV_STYLE_MAX_HEIGHT, v, selector);
 271              		.loc 1 58 5 is_stmt 1 view .LVU49
 272 0008 0A46     		mov	r2, r1
 273              	.LVL21:
 274              		.loc 1 58 5 is_stmt 0 view .LVU50
 275 000a 0721     		movs	r1, #7
 276              	.LVL22:
 277              		.loc 1 58 5 view .LVU51
 278 000c FFF7FEFF 		bl	lv_obj_set_local_style_prop
 279              	.LVL23:
  59:Lib/lvgl/src/core/lv_obj_style_gen.c **** }
 280              		.loc 1 59 1 view .LVU52
 281 0010 03B0     		add	sp, sp, #12
 282              	.LCFI17:
 283              		.cfi_def_cfa_offset 4
 284              		@ sp needed
 285 0012 5DF804FB 		ldr	pc, [sp], #4
 286              		.loc 1 59 1 view .LVU53
 287              		.cfi_endproc
 288              	.LFE238:
 290              		.section	.text.lv_obj_set_style_length,"ax",%progbits
 291              		.align	1
 292              		.global	lv_obj_set_style_length
 293              		.syntax unified
 294              		.thumb
 295              		.thumb_func
ARM GAS  C:\Users\Alex\AppData\Local\Temp\cc6CnhIe.s 			page 7


 297              	lv_obj_set_style_length:
 298              	.LVL24:
 299              	.LFB239:
  60:Lib/lvgl/src/core/lv_obj_style_gen.c **** 
  61:Lib/lvgl/src/core/lv_obj_style_gen.c **** void lv_obj_set_style_length(lv_obj_t * obj, int32_t value, lv_style_selector_t selector)
  62:Lib/lvgl/src/core/lv_obj_style_gen.c **** {
 300              		.loc 1 62 1 is_stmt 1 view -0
 301              		.cfi_startproc
 302              		@ args = 0, pretend = 0, frame = 8
 303              		@ frame_needed = 0, uses_anonymous_args = 0
 304              		.loc 1 62 1 is_stmt 0 view .LVU55
 305 0000 00B5     		push	{lr}
 306              	.LCFI18:
 307              		.cfi_def_cfa_offset 4
 308              		.cfi_offset 14, -4
 309 0002 83B0     		sub	sp, sp, #12
 310              	.LCFI19:
 311              		.cfi_def_cfa_offset 16
 312 0004 1346     		mov	r3, r2
  63:Lib/lvgl/src/core/lv_obj_style_gen.c ****     lv_style_value_t v = {
 313              		.loc 1 63 5 is_stmt 1 view .LVU56
 314              		.loc 1 63 22 is_stmt 0 view .LVU57
 315 0006 0191     		str	r1, [sp, #4]
  64:Lib/lvgl/src/core/lv_obj_style_gen.c ****         .num = (int32_t)value
  65:Lib/lvgl/src/core/lv_obj_style_gen.c ****     };
  66:Lib/lvgl/src/core/lv_obj_style_gen.c ****     lv_obj_set_local_style_prop(obj, LV_STYLE_LENGTH, v, selector);
 316              		.loc 1 66 5 is_stmt 1 view .LVU58
 317 0008 0A46     		mov	r2, r1
 318              	.LVL25:
 319              		.loc 1 66 5 is_stmt 0 view .LVU59
 320 000a 0321     		movs	r1, #3
 321              	.LVL26:
 322              		.loc 1 66 5 view .LVU60
 323 000c FFF7FEFF 		bl	lv_obj_set_local_style_prop
 324              	.LVL27:
  67:Lib/lvgl/src/core/lv_obj_style_gen.c **** }
 325              		.loc 1 67 1 view .LVU61
 326 0010 03B0     		add	sp, sp, #12
 327              	.LCFI20:
 328              		.cfi_def_cfa_offset 4
 329              		@ sp needed
 330 0012 5DF804FB 		ldr	pc, [sp], #4
 331              		.loc 1 67 1 view .LVU62
 332              		.cfi_endproc
 333              	.LFE239:
 335              		.section	.text.lv_obj_set_style_x,"ax",%progbits
 336              		.align	1
 337              		.global	lv_obj_set_style_x
 338              		.syntax unified
 339              		.thumb
 340              		.thumb_func
 342              	lv_obj_set_style_x:
 343              	.LVL28:
 344              	.LFB240:
  68:Lib/lvgl/src/core/lv_obj_style_gen.c **** 
  69:Lib/lvgl/src/core/lv_obj_style_gen.c **** void lv_obj_set_style_x(lv_obj_t * obj, int32_t value, lv_style_selector_t selector)
  70:Lib/lvgl/src/core/lv_obj_style_gen.c **** {
ARM GAS  C:\Users\Alex\AppData\Local\Temp\cc6CnhIe.s 			page 8


 345              		.loc 1 70 1 is_stmt 1 view -0
 346              		.cfi_startproc
 347              		@ args = 0, pretend = 0, frame = 8
 348              		@ frame_needed = 0, uses_anonymous_args = 0
 349              		.loc 1 70 1 is_stmt 0 view .LVU64
 350 0000 00B5     		push	{lr}
 351              	.LCFI21:
 352              		.cfi_def_cfa_offset 4
 353              		.cfi_offset 14, -4
 354 0002 83B0     		sub	sp, sp, #12
 355              	.LCFI22:
 356              		.cfi_def_cfa_offset 16
 357 0004 1346     		mov	r3, r2
  71:Lib/lvgl/src/core/lv_obj_style_gen.c ****     lv_style_value_t v = {
 358              		.loc 1 71 5 is_stmt 1 view .LVU65
 359              		.loc 1 71 22 is_stmt 0 view .LVU66
 360 0006 0191     		str	r1, [sp, #4]
  72:Lib/lvgl/src/core/lv_obj_style_gen.c ****         .num = (int32_t)value
  73:Lib/lvgl/src/core/lv_obj_style_gen.c ****     };
  74:Lib/lvgl/src/core/lv_obj_style_gen.c ****     lv_obj_set_local_style_prop(obj, LV_STYLE_X, v, selector);
 361              		.loc 1 74 5 is_stmt 1 view .LVU67
 362 0008 0A46     		mov	r2, r1
 363              	.LVL29:
 364              		.loc 1 74 5 is_stmt 0 view .LVU68
 365 000a 0821     		movs	r1, #8
 366              	.LVL30:
 367              		.loc 1 74 5 view .LVU69
 368 000c FFF7FEFF 		bl	lv_obj_set_local_style_prop
 369              	.LVL31:
  75:Lib/lvgl/src/core/lv_obj_style_gen.c **** }
 370              		.loc 1 75 1 view .LVU70
 371 0010 03B0     		add	sp, sp, #12
 372              	.LCFI23:
 373              		.cfi_def_cfa_offset 4
 374              		@ sp needed
 375 0012 5DF804FB 		ldr	pc, [sp], #4
 376              		.loc 1 75 1 view .LVU71
 377              		.cfi_endproc
 378              	.LFE240:
 380              		.section	.text.lv_obj_set_style_y,"ax",%progbits
 381              		.align	1
 382              		.global	lv_obj_set_style_y
 383              		.syntax unified
 384              		.thumb
 385              		.thumb_func
 387              	lv_obj_set_style_y:
 388              	.LVL32:
 389              	.LFB241:
  76:Lib/lvgl/src/core/lv_obj_style_gen.c **** 
  77:Lib/lvgl/src/core/lv_obj_style_gen.c **** void lv_obj_set_style_y(lv_obj_t * obj, int32_t value, lv_style_selector_t selector)
  78:Lib/lvgl/src/core/lv_obj_style_gen.c **** {
 390              		.loc 1 78 1 is_stmt 1 view -0
 391              		.cfi_startproc
 392              		@ args = 0, pretend = 0, frame = 8
 393              		@ frame_needed = 0, uses_anonymous_args = 0
 394              		.loc 1 78 1 is_stmt 0 view .LVU73
 395 0000 00B5     		push	{lr}
ARM GAS  C:\Users\Alex\AppData\Local\Temp\cc6CnhIe.s 			page 9


 396              	.LCFI24:
 397              		.cfi_def_cfa_offset 4
 398              		.cfi_offset 14, -4
 399 0002 83B0     		sub	sp, sp, #12
 400              	.LCFI25:
 401              		.cfi_def_cfa_offset 16
 402 0004 1346     		mov	r3, r2
  79:Lib/lvgl/src/core/lv_obj_style_gen.c ****     lv_style_value_t v = {
 403              		.loc 1 79 5 is_stmt 1 view .LVU74
 404              		.loc 1 79 22 is_stmt 0 view .LVU75
 405 0006 0191     		str	r1, [sp, #4]
  80:Lib/lvgl/src/core/lv_obj_style_gen.c ****         .num = (int32_t)value
  81:Lib/lvgl/src/core/lv_obj_style_gen.c ****     };
  82:Lib/lvgl/src/core/lv_obj_style_gen.c ****     lv_obj_set_local_style_prop(obj, LV_STYLE_Y, v, selector);
 406              		.loc 1 82 5 is_stmt 1 view .LVU76
 407 0008 0A46     		mov	r2, r1
 408              	.LVL33:
 409              		.loc 1 82 5 is_stmt 0 view .LVU77
 410 000a 0921     		movs	r1, #9
 411              	.LVL34:
 412              		.loc 1 82 5 view .LVU78
 413 000c FFF7FEFF 		bl	lv_obj_set_local_style_prop
 414              	.LVL35:
  83:Lib/lvgl/src/core/lv_obj_style_gen.c **** }
 415              		.loc 1 83 1 view .LVU79
 416 0010 03B0     		add	sp, sp, #12
 417              	.LCFI26:
 418              		.cfi_def_cfa_offset 4
 419              		@ sp needed
 420 0012 5DF804FB 		ldr	pc, [sp], #4
 421              		.loc 1 83 1 view .LVU80
 422              		.cfi_endproc
 423              	.LFE241:
 425              		.section	.text.lv_obj_set_style_align,"ax",%progbits
 426              		.align	1
 427              		.global	lv_obj_set_style_align
 428              		.syntax unified
 429              		.thumb
 430              		.thumb_func
 432              	lv_obj_set_style_align:
 433              	.LVL36:
 434              	.LFB242:
  84:Lib/lvgl/src/core/lv_obj_style_gen.c **** 
  85:Lib/lvgl/src/core/lv_obj_style_gen.c **** void lv_obj_set_style_align(lv_obj_t * obj, lv_align_t value, lv_style_selector_t selector)
  86:Lib/lvgl/src/core/lv_obj_style_gen.c **** {
 435              		.loc 1 86 1 is_stmt 1 view -0
 436              		.cfi_startproc
 437              		@ args = 0, pretend = 0, frame = 8
 438              		@ frame_needed = 0, uses_anonymous_args = 0
 439              		.loc 1 86 1 is_stmt 0 view .LVU82
 440 0000 00B5     		push	{lr}
 441              	.LCFI27:
 442              		.cfi_def_cfa_offset 4
 443              		.cfi_offset 14, -4
 444 0002 83B0     		sub	sp, sp, #12
 445              	.LCFI28:
 446              		.cfi_def_cfa_offset 16
ARM GAS  C:\Users\Alex\AppData\Local\Temp\cc6CnhIe.s 			page 10


 447 0004 1346     		mov	r3, r2
  87:Lib/lvgl/src/core/lv_obj_style_gen.c ****     lv_style_value_t v = {
 448              		.loc 1 87 5 is_stmt 1 view .LVU83
 449              		.loc 1 87 22 is_stmt 0 view .LVU84
 450 0006 0191     		str	r1, [sp, #4]
  88:Lib/lvgl/src/core/lv_obj_style_gen.c ****         .num = (int32_t)value
  89:Lib/lvgl/src/core/lv_obj_style_gen.c ****     };
  90:Lib/lvgl/src/core/lv_obj_style_gen.c ****     lv_obj_set_local_style_prop(obj, LV_STYLE_ALIGN, v, selector);
 451              		.loc 1 90 5 is_stmt 1 view .LVU85
 452 0008 0A46     		mov	r2, r1
 453              	.LVL37:
 454              		.loc 1 90 5 is_stmt 0 view .LVU86
 455 000a 0A21     		movs	r1, #10
 456              	.LVL38:
 457              		.loc 1 90 5 view .LVU87
 458 000c FFF7FEFF 		bl	lv_obj_set_local_style_prop
 459              	.LVL39:
  91:Lib/lvgl/src/core/lv_obj_style_gen.c **** }
 460              		.loc 1 91 1 view .LVU88
 461 0010 03B0     		add	sp, sp, #12
 462              	.LCFI29:
 463              		.cfi_def_cfa_offset 4
 464              		@ sp needed
 465 0012 5DF804FB 		ldr	pc, [sp], #4
 466              		.cfi_endproc
 467              	.LFE242:
 469              		.section	.text.lv_obj_set_style_transform_width,"ax",%progbits
 470              		.align	1
 471              		.global	lv_obj_set_style_transform_width
 472              		.syntax unified
 473              		.thumb
 474              		.thumb_func
 476              	lv_obj_set_style_transform_width:
 477              	.LVL40:
 478              	.LFB243:
  92:Lib/lvgl/src/core/lv_obj_style_gen.c **** 
  93:Lib/lvgl/src/core/lv_obj_style_gen.c **** void lv_obj_set_style_transform_width(lv_obj_t * obj, int32_t value, lv_style_selector_t selector)
  94:Lib/lvgl/src/core/lv_obj_style_gen.c **** {
 479              		.loc 1 94 1 is_stmt 1 view -0
 480              		.cfi_startproc
 481              		@ args = 0, pretend = 0, frame = 8
 482              		@ frame_needed = 0, uses_anonymous_args = 0
 483              		.loc 1 94 1 is_stmt 0 view .LVU90
 484 0000 00B5     		push	{lr}
 485              	.LCFI30:
 486              		.cfi_def_cfa_offset 4
 487              		.cfi_offset 14, -4
 488 0002 83B0     		sub	sp, sp, #12
 489              	.LCFI31:
 490              		.cfi_def_cfa_offset 16
 491 0004 1346     		mov	r3, r2
  95:Lib/lvgl/src/core/lv_obj_style_gen.c ****     lv_style_value_t v = {
 492              		.loc 1 95 5 is_stmt 1 view .LVU91
 493              		.loc 1 95 22 is_stmt 0 view .LVU92
 494 0006 0191     		str	r1, [sp, #4]
  96:Lib/lvgl/src/core/lv_obj_style_gen.c ****         .num = (int32_t)value
  97:Lib/lvgl/src/core/lv_obj_style_gen.c ****     };
ARM GAS  C:\Users\Alex\AppData\Local\Temp\cc6CnhIe.s 			page 11


  98:Lib/lvgl/src/core/lv_obj_style_gen.c ****     lv_obj_set_local_style_prop(obj, LV_STYLE_TRANSFORM_WIDTH, v, selector);
 495              		.loc 1 98 5 is_stmt 1 view .LVU93
 496 0008 0A46     		mov	r2, r1
 497              	.LVL41:
 498              		.loc 1 98 5 is_stmt 0 view .LVU94
 499 000a 6821     		movs	r1, #104
 500              	.LVL42:
 501              		.loc 1 98 5 view .LVU95
 502 000c FFF7FEFF 		bl	lv_obj_set_local_style_prop
 503              	.LVL43:
  99:Lib/lvgl/src/core/lv_obj_style_gen.c **** }
 504              		.loc 1 99 1 view .LVU96
 505 0010 03B0     		add	sp, sp, #12
 506              	.LCFI32:
 507              		.cfi_def_cfa_offset 4
 508              		@ sp needed
 509 0012 5DF804FB 		ldr	pc, [sp], #4
 510              		.loc 1 99 1 view .LVU97
 511              		.cfi_endproc
 512              	.LFE243:
 514              		.section	.text.lv_obj_set_style_transform_height,"ax",%progbits
 515              		.align	1
 516              		.global	lv_obj_set_style_transform_height
 517              		.syntax unified
 518              		.thumb
 519              		.thumb_func
 521              	lv_obj_set_style_transform_height:
 522              	.LVL44:
 523              	.LFB244:
 100:Lib/lvgl/src/core/lv_obj_style_gen.c **** 
 101:Lib/lvgl/src/core/lv_obj_style_gen.c **** void lv_obj_set_style_transform_height(lv_obj_t * obj, int32_t value, lv_style_selector_t selector)
 102:Lib/lvgl/src/core/lv_obj_style_gen.c **** {
 524              		.loc 1 102 1 is_stmt 1 view -0
 525              		.cfi_startproc
 526              		@ args = 0, pretend = 0, frame = 8
 527              		@ frame_needed = 0, uses_anonymous_args = 0
 528              		.loc 1 102 1 is_stmt 0 view .LVU99
 529 0000 00B5     		push	{lr}
 530              	.LCFI33:
 531              		.cfi_def_cfa_offset 4
 532              		.cfi_offset 14, -4
 533 0002 83B0     		sub	sp, sp, #12
 534              	.LCFI34:
 535              		.cfi_def_cfa_offset 16
 536 0004 1346     		mov	r3, r2
 103:Lib/lvgl/src/core/lv_obj_style_gen.c ****     lv_style_value_t v = {
 537              		.loc 1 103 5 is_stmt 1 view .LVU100
 538              		.loc 1 103 22 is_stmt 0 view .LVU101
 539 0006 0191     		str	r1, [sp, #4]
 104:Lib/lvgl/src/core/lv_obj_style_gen.c ****         .num = (int32_t)value
 105:Lib/lvgl/src/core/lv_obj_style_gen.c ****     };
 106:Lib/lvgl/src/core/lv_obj_style_gen.c ****     lv_obj_set_local_style_prop(obj, LV_STYLE_TRANSFORM_HEIGHT, v, selector);
 540              		.loc 1 106 5 is_stmt 1 view .LVU102
 541 0008 0A46     		mov	r2, r1
 542              	.LVL45:
 543              		.loc 1 106 5 is_stmt 0 view .LVU103
 544 000a 6921     		movs	r1, #105
ARM GAS  C:\Users\Alex\AppData\Local\Temp\cc6CnhIe.s 			page 12


 545              	.LVL46:
 546              		.loc 1 106 5 view .LVU104
 547 000c FFF7FEFF 		bl	lv_obj_set_local_style_prop
 548              	.LVL47:
 107:Lib/lvgl/src/core/lv_obj_style_gen.c **** }
 549              		.loc 1 107 1 view .LVU105
 550 0010 03B0     		add	sp, sp, #12
 551              	.LCFI35:
 552              		.cfi_def_cfa_offset 4
 553              		@ sp needed
 554 0012 5DF804FB 		ldr	pc, [sp], #4
 555              		.loc 1 107 1 view .LVU106
 556              		.cfi_endproc
 557              	.LFE244:
 559              		.section	.text.lv_obj_set_style_translate_x,"ax",%progbits
 560              		.align	1
 561              		.global	lv_obj_set_style_translate_x
 562              		.syntax unified
 563              		.thumb
 564              		.thumb_func
 566              	lv_obj_set_style_translate_x:
 567              	.LVL48:
 568              	.LFB245:
 108:Lib/lvgl/src/core/lv_obj_style_gen.c **** 
 109:Lib/lvgl/src/core/lv_obj_style_gen.c **** void lv_obj_set_style_translate_x(lv_obj_t * obj, int32_t value, lv_style_selector_t selector)
 110:Lib/lvgl/src/core/lv_obj_style_gen.c **** {
 569              		.loc 1 110 1 is_stmt 1 view -0
 570              		.cfi_startproc
 571              		@ args = 0, pretend = 0, frame = 8
 572              		@ frame_needed = 0, uses_anonymous_args = 0
 573              		.loc 1 110 1 is_stmt 0 view .LVU108
 574 0000 00B5     		push	{lr}
 575              	.LCFI36:
 576              		.cfi_def_cfa_offset 4
 577              		.cfi_offset 14, -4
 578 0002 83B0     		sub	sp, sp, #12
 579              	.LCFI37:
 580              		.cfi_def_cfa_offset 16
 581 0004 1346     		mov	r3, r2
 111:Lib/lvgl/src/core/lv_obj_style_gen.c ****     lv_style_value_t v = {
 582              		.loc 1 111 5 is_stmt 1 view .LVU109
 583              		.loc 1 111 22 is_stmt 0 view .LVU110
 584 0006 0191     		str	r1, [sp, #4]
 112:Lib/lvgl/src/core/lv_obj_style_gen.c ****         .num = (int32_t)value
 113:Lib/lvgl/src/core/lv_obj_style_gen.c ****     };
 114:Lib/lvgl/src/core/lv_obj_style_gen.c ****     lv_obj_set_local_style_prop(obj, LV_STYLE_TRANSLATE_X, v, selector);
 585              		.loc 1 114 5 is_stmt 1 view .LVU111
 586 0008 0A46     		mov	r2, r1
 587              	.LVL49:
 588              		.loc 1 114 5 is_stmt 0 view .LVU112
 589 000a 6A21     		movs	r1, #106
 590              	.LVL50:
 591              		.loc 1 114 5 view .LVU113
 592 000c FFF7FEFF 		bl	lv_obj_set_local_style_prop
 593              	.LVL51:
 115:Lib/lvgl/src/core/lv_obj_style_gen.c **** }
 594              		.loc 1 115 1 view .LVU114
ARM GAS  C:\Users\Alex\AppData\Local\Temp\cc6CnhIe.s 			page 13


 595 0010 03B0     		add	sp, sp, #12
 596              	.LCFI38:
 597              		.cfi_def_cfa_offset 4
 598              		@ sp needed
 599 0012 5DF804FB 		ldr	pc, [sp], #4
 600              		.loc 1 115 1 view .LVU115
 601              		.cfi_endproc
 602              	.LFE245:
 604              		.section	.text.lv_obj_set_style_translate_y,"ax",%progbits
 605              		.align	1
 606              		.global	lv_obj_set_style_translate_y
 607              		.syntax unified
 608              		.thumb
 609              		.thumb_func
 611              	lv_obj_set_style_translate_y:
 612              	.LVL52:
 613              	.LFB246:
 116:Lib/lvgl/src/core/lv_obj_style_gen.c **** 
 117:Lib/lvgl/src/core/lv_obj_style_gen.c **** void lv_obj_set_style_translate_y(lv_obj_t * obj, int32_t value, lv_style_selector_t selector)
 118:Lib/lvgl/src/core/lv_obj_style_gen.c **** {
 614              		.loc 1 118 1 is_stmt 1 view -0
 615              		.cfi_startproc
 616              		@ args = 0, pretend = 0, frame = 8
 617              		@ frame_needed = 0, uses_anonymous_args = 0
 618              		.loc 1 118 1 is_stmt 0 view .LVU117
 619 0000 00B5     		push	{lr}
 620              	.LCFI39:
 621              		.cfi_def_cfa_offset 4
 622              		.cfi_offset 14, -4
 623 0002 83B0     		sub	sp, sp, #12
 624              	.LCFI40:
 625              		.cfi_def_cfa_offset 16
 626 0004 1346     		mov	r3, r2
 119:Lib/lvgl/src/core/lv_obj_style_gen.c ****     lv_style_value_t v = {
 627              		.loc 1 119 5 is_stmt 1 view .LVU118
 628              		.loc 1 119 22 is_stmt 0 view .LVU119
 629 0006 0191     		str	r1, [sp, #4]
 120:Lib/lvgl/src/core/lv_obj_style_gen.c ****         .num = (int32_t)value
 121:Lib/lvgl/src/core/lv_obj_style_gen.c ****     };
 122:Lib/lvgl/src/core/lv_obj_style_gen.c ****     lv_obj_set_local_style_prop(obj, LV_STYLE_TRANSLATE_Y, v, selector);
 630              		.loc 1 122 5 is_stmt 1 view .LVU120
 631 0008 0A46     		mov	r2, r1
 632              	.LVL53:
 633              		.loc 1 122 5 is_stmt 0 view .LVU121
 634 000a 6B21     		movs	r1, #107
 635              	.LVL54:
 636              		.loc 1 122 5 view .LVU122
 637 000c FFF7FEFF 		bl	lv_obj_set_local_style_prop
 638              	.LVL55:
 123:Lib/lvgl/src/core/lv_obj_style_gen.c **** }
 639              		.loc 1 123 1 view .LVU123
 640 0010 03B0     		add	sp, sp, #12
 641              	.LCFI41:
 642              		.cfi_def_cfa_offset 4
 643              		@ sp needed
 644 0012 5DF804FB 		ldr	pc, [sp], #4
 645              		.loc 1 123 1 view .LVU124
ARM GAS  C:\Users\Alex\AppData\Local\Temp\cc6CnhIe.s 			page 14


 646              		.cfi_endproc
 647              	.LFE246:
 649              		.section	.text.lv_obj_set_style_transform_scale_x,"ax",%progbits
 650              		.align	1
 651              		.global	lv_obj_set_style_transform_scale_x
 652              		.syntax unified
 653              		.thumb
 654              		.thumb_func
 656              	lv_obj_set_style_transform_scale_x:
 657              	.LVL56:
 658              	.LFB247:
 124:Lib/lvgl/src/core/lv_obj_style_gen.c **** 
 125:Lib/lvgl/src/core/lv_obj_style_gen.c **** void lv_obj_set_style_transform_scale_x(lv_obj_t * obj, int32_t value, lv_style_selector_t selector
 126:Lib/lvgl/src/core/lv_obj_style_gen.c **** {
 659              		.loc 1 126 1 is_stmt 1 view -0
 660              		.cfi_startproc
 661              		@ args = 0, pretend = 0, frame = 8
 662              		@ frame_needed = 0, uses_anonymous_args = 0
 663              		.loc 1 126 1 is_stmt 0 view .LVU126
 664 0000 00B5     		push	{lr}
 665              	.LCFI42:
 666              		.cfi_def_cfa_offset 4
 667              		.cfi_offset 14, -4
 668 0002 83B0     		sub	sp, sp, #12
 669              	.LCFI43:
 670              		.cfi_def_cfa_offset 16
 671 0004 1346     		mov	r3, r2
 127:Lib/lvgl/src/core/lv_obj_style_gen.c ****     lv_style_value_t v = {
 672              		.loc 1 127 5 is_stmt 1 view .LVU127
 673              		.loc 1 127 22 is_stmt 0 view .LVU128
 674 0006 0191     		str	r1, [sp, #4]
 128:Lib/lvgl/src/core/lv_obj_style_gen.c ****         .num = (int32_t)value
 129:Lib/lvgl/src/core/lv_obj_style_gen.c ****     };
 130:Lib/lvgl/src/core/lv_obj_style_gen.c ****     lv_obj_set_local_style_prop(obj, LV_STYLE_TRANSFORM_SCALE_X, v, selector);
 675              		.loc 1 130 5 is_stmt 1 view .LVU129
 676 0008 0A46     		mov	r2, r1
 677              	.LVL57:
 678              		.loc 1 130 5 is_stmt 0 view .LVU130
 679 000a 6C21     		movs	r1, #108
 680              	.LVL58:
 681              		.loc 1 130 5 view .LVU131
 682 000c FFF7FEFF 		bl	lv_obj_set_local_style_prop
 683              	.LVL59:
 131:Lib/lvgl/src/core/lv_obj_style_gen.c **** }
 684              		.loc 1 131 1 view .LVU132
 685 0010 03B0     		add	sp, sp, #12
 686              	.LCFI44:
 687              		.cfi_def_cfa_offset 4
 688              		@ sp needed
 689 0012 5DF804FB 		ldr	pc, [sp], #4
 690              		.loc 1 131 1 view .LVU133
 691              		.cfi_endproc
 692              	.LFE247:
 694              		.section	.text.lv_obj_set_style_transform_scale_y,"ax",%progbits
 695              		.align	1
 696              		.global	lv_obj_set_style_transform_scale_y
 697              		.syntax unified
ARM GAS  C:\Users\Alex\AppData\Local\Temp\cc6CnhIe.s 			page 15


 698              		.thumb
 699              		.thumb_func
 701              	lv_obj_set_style_transform_scale_y:
 702              	.LVL60:
 703              	.LFB248:
 132:Lib/lvgl/src/core/lv_obj_style_gen.c **** 
 133:Lib/lvgl/src/core/lv_obj_style_gen.c **** void lv_obj_set_style_transform_scale_y(lv_obj_t * obj, int32_t value, lv_style_selector_t selector
 134:Lib/lvgl/src/core/lv_obj_style_gen.c **** {
 704              		.loc 1 134 1 is_stmt 1 view -0
 705              		.cfi_startproc
 706              		@ args = 0, pretend = 0, frame = 8
 707              		@ frame_needed = 0, uses_anonymous_args = 0
 708              		.loc 1 134 1 is_stmt 0 view .LVU135
 709 0000 00B5     		push	{lr}
 710              	.LCFI45:
 711              		.cfi_def_cfa_offset 4
 712              		.cfi_offset 14, -4
 713 0002 83B0     		sub	sp, sp, #12
 714              	.LCFI46:
 715              		.cfi_def_cfa_offset 16
 716 0004 1346     		mov	r3, r2
 135:Lib/lvgl/src/core/lv_obj_style_gen.c ****     lv_style_value_t v = {
 717              		.loc 1 135 5 is_stmt 1 view .LVU136
 718              		.loc 1 135 22 is_stmt 0 view .LVU137
 719 0006 0191     		str	r1, [sp, #4]
 136:Lib/lvgl/src/core/lv_obj_style_gen.c ****         .num = (int32_t)value
 137:Lib/lvgl/src/core/lv_obj_style_gen.c ****     };
 138:Lib/lvgl/src/core/lv_obj_style_gen.c ****     lv_obj_set_local_style_prop(obj, LV_STYLE_TRANSFORM_SCALE_Y, v, selector);
 720              		.loc 1 138 5 is_stmt 1 view .LVU138
 721 0008 0A46     		mov	r2, r1
 722              	.LVL61:
 723              		.loc 1 138 5 is_stmt 0 view .LVU139
 724 000a 6D21     		movs	r1, #109
 725              	.LVL62:
 726              		.loc 1 138 5 view .LVU140
 727 000c FFF7FEFF 		bl	lv_obj_set_local_style_prop
 728              	.LVL63:
 139:Lib/lvgl/src/core/lv_obj_style_gen.c **** }
 729              		.loc 1 139 1 view .LVU141
 730 0010 03B0     		add	sp, sp, #12
 731              	.LCFI47:
 732              		.cfi_def_cfa_offset 4
 733              		@ sp needed
 734 0012 5DF804FB 		ldr	pc, [sp], #4
 735              		.loc 1 139 1 view .LVU142
 736              		.cfi_endproc
 737              	.LFE248:
 739              		.section	.text.lv_obj_set_style_transform_rotation,"ax",%progbits
 740              		.align	1
 741              		.global	lv_obj_set_style_transform_rotation
 742              		.syntax unified
 743              		.thumb
 744              		.thumb_func
 746              	lv_obj_set_style_transform_rotation:
 747              	.LVL64:
 748              	.LFB249:
 140:Lib/lvgl/src/core/lv_obj_style_gen.c **** 
ARM GAS  C:\Users\Alex\AppData\Local\Temp\cc6CnhIe.s 			page 16


 141:Lib/lvgl/src/core/lv_obj_style_gen.c **** void lv_obj_set_style_transform_rotation(lv_obj_t * obj, int32_t value, lv_style_selector_t selecto
 142:Lib/lvgl/src/core/lv_obj_style_gen.c **** {
 749              		.loc 1 142 1 is_stmt 1 view -0
 750              		.cfi_startproc
 751              		@ args = 0, pretend = 0, frame = 8
 752              		@ frame_needed = 0, uses_anonymous_args = 0
 753              		.loc 1 142 1 is_stmt 0 view .LVU144
 754 0000 00B5     		push	{lr}
 755              	.LCFI48:
 756              		.cfi_def_cfa_offset 4
 757              		.cfi_offset 14, -4
 758 0002 83B0     		sub	sp, sp, #12
 759              	.LCFI49:
 760              		.cfi_def_cfa_offset 16
 761 0004 1346     		mov	r3, r2
 143:Lib/lvgl/src/core/lv_obj_style_gen.c ****     lv_style_value_t v = {
 762              		.loc 1 143 5 is_stmt 1 view .LVU145
 763              		.loc 1 143 22 is_stmt 0 view .LVU146
 764 0006 0191     		str	r1, [sp, #4]
 144:Lib/lvgl/src/core/lv_obj_style_gen.c ****         .num = (int32_t)value
 145:Lib/lvgl/src/core/lv_obj_style_gen.c ****     };
 146:Lib/lvgl/src/core/lv_obj_style_gen.c ****     lv_obj_set_local_style_prop(obj, LV_STYLE_TRANSFORM_ROTATION, v, selector);
 765              		.loc 1 146 5 is_stmt 1 view .LVU147
 766 0008 0A46     		mov	r2, r1
 767              	.LVL65:
 768              		.loc 1 146 5 is_stmt 0 view .LVU148
 769 000a 6E21     		movs	r1, #110
 770              	.LVL66:
 771              		.loc 1 146 5 view .LVU149
 772 000c FFF7FEFF 		bl	lv_obj_set_local_style_prop
 773              	.LVL67:
 147:Lib/lvgl/src/core/lv_obj_style_gen.c **** }
 774              		.loc 1 147 1 view .LVU150
 775 0010 03B0     		add	sp, sp, #12
 776              	.LCFI50:
 777              		.cfi_def_cfa_offset 4
 778              		@ sp needed
 779 0012 5DF804FB 		ldr	pc, [sp], #4
 780              		.loc 1 147 1 view .LVU151
 781              		.cfi_endproc
 782              	.LFE249:
 784              		.section	.text.lv_obj_set_style_transform_pivot_x,"ax",%progbits
 785              		.align	1
 786              		.global	lv_obj_set_style_transform_pivot_x
 787              		.syntax unified
 788              		.thumb
 789              		.thumb_func
 791              	lv_obj_set_style_transform_pivot_x:
 792              	.LVL68:
 793              	.LFB250:
 148:Lib/lvgl/src/core/lv_obj_style_gen.c **** 
 149:Lib/lvgl/src/core/lv_obj_style_gen.c **** void lv_obj_set_style_transform_pivot_x(lv_obj_t * obj, int32_t value, lv_style_selector_t selector
 150:Lib/lvgl/src/core/lv_obj_style_gen.c **** {
 794              		.loc 1 150 1 is_stmt 1 view -0
 795              		.cfi_startproc
 796              		@ args = 0, pretend = 0, frame = 8
 797              		@ frame_needed = 0, uses_anonymous_args = 0
ARM GAS  C:\Users\Alex\AppData\Local\Temp\cc6CnhIe.s 			page 17


 798              		.loc 1 150 1 is_stmt 0 view .LVU153
 799 0000 00B5     		push	{lr}
 800              	.LCFI51:
 801              		.cfi_def_cfa_offset 4
 802              		.cfi_offset 14, -4
 803 0002 83B0     		sub	sp, sp, #12
 804              	.LCFI52:
 805              		.cfi_def_cfa_offset 16
 806 0004 1346     		mov	r3, r2
 151:Lib/lvgl/src/core/lv_obj_style_gen.c ****     lv_style_value_t v = {
 807              		.loc 1 151 5 is_stmt 1 view .LVU154
 808              		.loc 1 151 22 is_stmt 0 view .LVU155
 809 0006 0191     		str	r1, [sp, #4]
 152:Lib/lvgl/src/core/lv_obj_style_gen.c ****         .num = (int32_t)value
 153:Lib/lvgl/src/core/lv_obj_style_gen.c ****     };
 154:Lib/lvgl/src/core/lv_obj_style_gen.c ****     lv_obj_set_local_style_prop(obj, LV_STYLE_TRANSFORM_PIVOT_X, v, selector);
 810              		.loc 1 154 5 is_stmt 1 view .LVU156
 811 0008 0A46     		mov	r2, r1
 812              	.LVL69:
 813              		.loc 1 154 5 is_stmt 0 view .LVU157
 814 000a 6F21     		movs	r1, #111
 815              	.LVL70:
 816              		.loc 1 154 5 view .LVU158
 817 000c FFF7FEFF 		bl	lv_obj_set_local_style_prop
 818              	.LVL71:
 155:Lib/lvgl/src/core/lv_obj_style_gen.c **** }
 819              		.loc 1 155 1 view .LVU159
 820 0010 03B0     		add	sp, sp, #12
 821              	.LCFI53:
 822              		.cfi_def_cfa_offset 4
 823              		@ sp needed
 824 0012 5DF804FB 		ldr	pc, [sp], #4
 825              		.loc 1 155 1 view .LVU160
 826              		.cfi_endproc
 827              	.LFE250:
 829              		.section	.text.lv_obj_set_style_transform_pivot_y,"ax",%progbits
 830              		.align	1
 831              		.global	lv_obj_set_style_transform_pivot_y
 832              		.syntax unified
 833              		.thumb
 834              		.thumb_func
 836              	lv_obj_set_style_transform_pivot_y:
 837              	.LVL72:
 838              	.LFB251:
 156:Lib/lvgl/src/core/lv_obj_style_gen.c **** 
 157:Lib/lvgl/src/core/lv_obj_style_gen.c **** void lv_obj_set_style_transform_pivot_y(lv_obj_t * obj, int32_t value, lv_style_selector_t selector
 158:Lib/lvgl/src/core/lv_obj_style_gen.c **** {
 839              		.loc 1 158 1 is_stmt 1 view -0
 840              		.cfi_startproc
 841              		@ args = 0, pretend = 0, frame = 8
 842              		@ frame_needed = 0, uses_anonymous_args = 0
 843              		.loc 1 158 1 is_stmt 0 view .LVU162
 844 0000 00B5     		push	{lr}
 845              	.LCFI54:
 846              		.cfi_def_cfa_offset 4
 847              		.cfi_offset 14, -4
 848 0002 83B0     		sub	sp, sp, #12
ARM GAS  C:\Users\Alex\AppData\Local\Temp\cc6CnhIe.s 			page 18


 849              	.LCFI55:
 850              		.cfi_def_cfa_offset 16
 851 0004 1346     		mov	r3, r2
 159:Lib/lvgl/src/core/lv_obj_style_gen.c ****     lv_style_value_t v = {
 852              		.loc 1 159 5 is_stmt 1 view .LVU163
 853              		.loc 1 159 22 is_stmt 0 view .LVU164
 854 0006 0191     		str	r1, [sp, #4]
 160:Lib/lvgl/src/core/lv_obj_style_gen.c ****         .num = (int32_t)value
 161:Lib/lvgl/src/core/lv_obj_style_gen.c ****     };
 162:Lib/lvgl/src/core/lv_obj_style_gen.c ****     lv_obj_set_local_style_prop(obj, LV_STYLE_TRANSFORM_PIVOT_Y, v, selector);
 855              		.loc 1 162 5 is_stmt 1 view .LVU165
 856 0008 0A46     		mov	r2, r1
 857              	.LVL73:
 858              		.loc 1 162 5 is_stmt 0 view .LVU166
 859 000a 7021     		movs	r1, #112
 860              	.LVL74:
 861              		.loc 1 162 5 view .LVU167
 862 000c FFF7FEFF 		bl	lv_obj_set_local_style_prop
 863              	.LVL75:
 163:Lib/lvgl/src/core/lv_obj_style_gen.c **** }
 864              		.loc 1 163 1 view .LVU168
 865 0010 03B0     		add	sp, sp, #12
 866              	.LCFI56:
 867              		.cfi_def_cfa_offset 4
 868              		@ sp needed
 869 0012 5DF804FB 		ldr	pc, [sp], #4
 870              		.loc 1 163 1 view .LVU169
 871              		.cfi_endproc
 872              	.LFE251:
 874              		.section	.text.lv_obj_set_style_transform_skew_x,"ax",%progbits
 875              		.align	1
 876              		.global	lv_obj_set_style_transform_skew_x
 877              		.syntax unified
 878              		.thumb
 879              		.thumb_func
 881              	lv_obj_set_style_transform_skew_x:
 882              	.LVL76:
 883              	.LFB252:
 164:Lib/lvgl/src/core/lv_obj_style_gen.c **** 
 165:Lib/lvgl/src/core/lv_obj_style_gen.c **** void lv_obj_set_style_transform_skew_x(lv_obj_t * obj, int32_t value, lv_style_selector_t selector)
 166:Lib/lvgl/src/core/lv_obj_style_gen.c **** {
 884              		.loc 1 166 1 is_stmt 1 view -0
 885              		.cfi_startproc
 886              		@ args = 0, pretend = 0, frame = 8
 887              		@ frame_needed = 0, uses_anonymous_args = 0
 888              		.loc 1 166 1 is_stmt 0 view .LVU171
 889 0000 00B5     		push	{lr}
 890              	.LCFI57:
 891              		.cfi_def_cfa_offset 4
 892              		.cfi_offset 14, -4
 893 0002 83B0     		sub	sp, sp, #12
 894              	.LCFI58:
 895              		.cfi_def_cfa_offset 16
 896 0004 1346     		mov	r3, r2
 167:Lib/lvgl/src/core/lv_obj_style_gen.c ****     lv_style_value_t v = {
 897              		.loc 1 167 5 is_stmt 1 view .LVU172
 898              		.loc 1 167 22 is_stmt 0 view .LVU173
ARM GAS  C:\Users\Alex\AppData\Local\Temp\cc6CnhIe.s 			page 19


 899 0006 0191     		str	r1, [sp, #4]
 168:Lib/lvgl/src/core/lv_obj_style_gen.c ****         .num = (int32_t)value
 169:Lib/lvgl/src/core/lv_obj_style_gen.c ****     };
 170:Lib/lvgl/src/core/lv_obj_style_gen.c ****     lv_obj_set_local_style_prop(obj, LV_STYLE_TRANSFORM_SKEW_X, v, selector);
 900              		.loc 1 170 5 is_stmt 1 view .LVU174
 901 0008 0A46     		mov	r2, r1
 902              	.LVL77:
 903              		.loc 1 170 5 is_stmt 0 view .LVU175
 904 000a 7121     		movs	r1, #113
 905              	.LVL78:
 906              		.loc 1 170 5 view .LVU176
 907 000c FFF7FEFF 		bl	lv_obj_set_local_style_prop
 908              	.LVL79:
 171:Lib/lvgl/src/core/lv_obj_style_gen.c **** }
 909              		.loc 1 171 1 view .LVU177
 910 0010 03B0     		add	sp, sp, #12
 911              	.LCFI59:
 912              		.cfi_def_cfa_offset 4
 913              		@ sp needed
 914 0012 5DF804FB 		ldr	pc, [sp], #4
 915              		.loc 1 171 1 view .LVU178
 916              		.cfi_endproc
 917              	.LFE252:
 919              		.section	.text.lv_obj_set_style_transform_skew_y,"ax",%progbits
 920              		.align	1
 921              		.global	lv_obj_set_style_transform_skew_y
 922              		.syntax unified
 923              		.thumb
 924              		.thumb_func
 926              	lv_obj_set_style_transform_skew_y:
 927              	.LVL80:
 928              	.LFB253:
 172:Lib/lvgl/src/core/lv_obj_style_gen.c **** 
 173:Lib/lvgl/src/core/lv_obj_style_gen.c **** void lv_obj_set_style_transform_skew_y(lv_obj_t * obj, int32_t value, lv_style_selector_t selector)
 174:Lib/lvgl/src/core/lv_obj_style_gen.c **** {
 929              		.loc 1 174 1 is_stmt 1 view -0
 930              		.cfi_startproc
 931              		@ args = 0, pretend = 0, frame = 8
 932              		@ frame_needed = 0, uses_anonymous_args = 0
 933              		.loc 1 174 1 is_stmt 0 view .LVU180
 934 0000 00B5     		push	{lr}
 935              	.LCFI60:
 936              		.cfi_def_cfa_offset 4
 937              		.cfi_offset 14, -4
 938 0002 83B0     		sub	sp, sp, #12
 939              	.LCFI61:
 940              		.cfi_def_cfa_offset 16
 941 0004 1346     		mov	r3, r2
 175:Lib/lvgl/src/core/lv_obj_style_gen.c ****     lv_style_value_t v = {
 942              		.loc 1 175 5 is_stmt 1 view .LVU181
 943              		.loc 1 175 22 is_stmt 0 view .LVU182
 944 0006 0191     		str	r1, [sp, #4]
 176:Lib/lvgl/src/core/lv_obj_style_gen.c ****         .num = (int32_t)value
 177:Lib/lvgl/src/core/lv_obj_style_gen.c ****     };
 178:Lib/lvgl/src/core/lv_obj_style_gen.c ****     lv_obj_set_local_style_prop(obj, LV_STYLE_TRANSFORM_SKEW_Y, v, selector);
 945              		.loc 1 178 5 is_stmt 1 view .LVU183
 946 0008 0A46     		mov	r2, r1
ARM GAS  C:\Users\Alex\AppData\Local\Temp\cc6CnhIe.s 			page 20


 947              	.LVL81:
 948              		.loc 1 178 5 is_stmt 0 view .LVU184
 949 000a 7221     		movs	r1, #114
 950              	.LVL82:
 951              		.loc 1 178 5 view .LVU185
 952 000c FFF7FEFF 		bl	lv_obj_set_local_style_prop
 953              	.LVL83:
 179:Lib/lvgl/src/core/lv_obj_style_gen.c **** }
 954              		.loc 1 179 1 view .LVU186
 955 0010 03B0     		add	sp, sp, #12
 956              	.LCFI62:
 957              		.cfi_def_cfa_offset 4
 958              		@ sp needed
 959 0012 5DF804FB 		ldr	pc, [sp], #4
 960              		.loc 1 179 1 view .LVU187
 961              		.cfi_endproc
 962              	.LFE253:
 964              		.section	.text.lv_obj_set_style_pad_top,"ax",%progbits
 965              		.align	1
 966              		.global	lv_obj_set_style_pad_top
 967              		.syntax unified
 968              		.thumb
 969              		.thumb_func
 971              	lv_obj_set_style_pad_top:
 972              	.LVL84:
 973              	.LFB254:
 180:Lib/lvgl/src/core/lv_obj_style_gen.c **** 
 181:Lib/lvgl/src/core/lv_obj_style_gen.c **** void lv_obj_set_style_pad_top(lv_obj_t * obj, int32_t value, lv_style_selector_t selector)
 182:Lib/lvgl/src/core/lv_obj_style_gen.c **** {
 974              		.loc 1 182 1 is_stmt 1 view -0
 975              		.cfi_startproc
 976              		@ args = 0, pretend = 0, frame = 8
 977              		@ frame_needed = 0, uses_anonymous_args = 0
 978              		.loc 1 182 1 is_stmt 0 view .LVU189
 979 0000 00B5     		push	{lr}
 980              	.LCFI63:
 981              		.cfi_def_cfa_offset 4
 982              		.cfi_offset 14, -4
 983 0002 83B0     		sub	sp, sp, #12
 984              	.LCFI64:
 985              		.cfi_def_cfa_offset 16
 986 0004 1346     		mov	r3, r2
 183:Lib/lvgl/src/core/lv_obj_style_gen.c ****     lv_style_value_t v = {
 987              		.loc 1 183 5 is_stmt 1 view .LVU190
 988              		.loc 1 183 22 is_stmt 0 view .LVU191
 989 0006 0191     		str	r1, [sp, #4]
 184:Lib/lvgl/src/core/lv_obj_style_gen.c ****         .num = (int32_t)value
 185:Lib/lvgl/src/core/lv_obj_style_gen.c ****     };
 186:Lib/lvgl/src/core/lv_obj_style_gen.c ****     lv_obj_set_local_style_prop(obj, LV_STYLE_PAD_TOP, v, selector);
 990              		.loc 1 186 5 is_stmt 1 view .LVU192
 991 0008 0A46     		mov	r2, r1
 992              	.LVL85:
 993              		.loc 1 186 5 is_stmt 0 view .LVU193
 994 000a 1021     		movs	r1, #16
 995              	.LVL86:
 996              		.loc 1 186 5 view .LVU194
 997 000c FFF7FEFF 		bl	lv_obj_set_local_style_prop
ARM GAS  C:\Users\Alex\AppData\Local\Temp\cc6CnhIe.s 			page 21


 998              	.LVL87:
 187:Lib/lvgl/src/core/lv_obj_style_gen.c **** }
 999              		.loc 1 187 1 view .LVU195
 1000 0010 03B0     		add	sp, sp, #12
 1001              	.LCFI65:
 1002              		.cfi_def_cfa_offset 4
 1003              		@ sp needed
 1004 0012 5DF804FB 		ldr	pc, [sp], #4
 1005              		.loc 1 187 1 view .LVU196
 1006              		.cfi_endproc
 1007              	.LFE254:
 1009              		.section	.text.lv_obj_set_style_pad_bottom,"ax",%progbits
 1010              		.align	1
 1011              		.global	lv_obj_set_style_pad_bottom
 1012              		.syntax unified
 1013              		.thumb
 1014              		.thumb_func
 1016              	lv_obj_set_style_pad_bottom:
 1017              	.LVL88:
 1018              	.LFB255:
 188:Lib/lvgl/src/core/lv_obj_style_gen.c **** 
 189:Lib/lvgl/src/core/lv_obj_style_gen.c **** void lv_obj_set_style_pad_bottom(lv_obj_t * obj, int32_t value, lv_style_selector_t selector)
 190:Lib/lvgl/src/core/lv_obj_style_gen.c **** {
 1019              		.loc 1 190 1 is_stmt 1 view -0
 1020              		.cfi_startproc
 1021              		@ args = 0, pretend = 0, frame = 8
 1022              		@ frame_needed = 0, uses_anonymous_args = 0
 1023              		.loc 1 190 1 is_stmt 0 view .LVU198
 1024 0000 00B5     		push	{lr}
 1025              	.LCFI66:
 1026              		.cfi_def_cfa_offset 4
 1027              		.cfi_offset 14, -4
 1028 0002 83B0     		sub	sp, sp, #12
 1029              	.LCFI67:
 1030              		.cfi_def_cfa_offset 16
 1031 0004 1346     		mov	r3, r2
 191:Lib/lvgl/src/core/lv_obj_style_gen.c ****     lv_style_value_t v = {
 1032              		.loc 1 191 5 is_stmt 1 view .LVU199
 1033              		.loc 1 191 22 is_stmt 0 view .LVU200
 1034 0006 0191     		str	r1, [sp, #4]
 192:Lib/lvgl/src/core/lv_obj_style_gen.c ****         .num = (int32_t)value
 193:Lib/lvgl/src/core/lv_obj_style_gen.c ****     };
 194:Lib/lvgl/src/core/lv_obj_style_gen.c ****     lv_obj_set_local_style_prop(obj, LV_STYLE_PAD_BOTTOM, v, selector);
 1035              		.loc 1 194 5 is_stmt 1 view .LVU201
 1036 0008 0A46     		mov	r2, r1
 1037              	.LVL89:
 1038              		.loc 1 194 5 is_stmt 0 view .LVU202
 1039 000a 1121     		movs	r1, #17
 1040              	.LVL90:
 1041              		.loc 1 194 5 view .LVU203
 1042 000c FFF7FEFF 		bl	lv_obj_set_local_style_prop
 1043              	.LVL91:
 195:Lib/lvgl/src/core/lv_obj_style_gen.c **** }
 1044              		.loc 1 195 1 view .LVU204
 1045 0010 03B0     		add	sp, sp, #12
 1046              	.LCFI68:
 1047              		.cfi_def_cfa_offset 4
ARM GAS  C:\Users\Alex\AppData\Local\Temp\cc6CnhIe.s 			page 22


 1048              		@ sp needed
 1049 0012 5DF804FB 		ldr	pc, [sp], #4
 1050              		.loc 1 195 1 view .LVU205
 1051              		.cfi_endproc
 1052              	.LFE255:
 1054              		.section	.text.lv_obj_set_style_pad_left,"ax",%progbits
 1055              		.align	1
 1056              		.global	lv_obj_set_style_pad_left
 1057              		.syntax unified
 1058              		.thumb
 1059              		.thumb_func
 1061              	lv_obj_set_style_pad_left:
 1062              	.LVL92:
 1063              	.LFB256:
 196:Lib/lvgl/src/core/lv_obj_style_gen.c **** 
 197:Lib/lvgl/src/core/lv_obj_style_gen.c **** void lv_obj_set_style_pad_left(lv_obj_t * obj, int32_t value, lv_style_selector_t selector)
 198:Lib/lvgl/src/core/lv_obj_style_gen.c **** {
 1064              		.loc 1 198 1 is_stmt 1 view -0
 1065              		.cfi_startproc
 1066              		@ args = 0, pretend = 0, frame = 8
 1067              		@ frame_needed = 0, uses_anonymous_args = 0
 1068              		.loc 1 198 1 is_stmt 0 view .LVU207
 1069 0000 00B5     		push	{lr}
 1070              	.LCFI69:
 1071              		.cfi_def_cfa_offset 4
 1072              		.cfi_offset 14, -4
 1073 0002 83B0     		sub	sp, sp, #12
 1074              	.LCFI70:
 1075              		.cfi_def_cfa_offset 16
 1076 0004 1346     		mov	r3, r2
 199:Lib/lvgl/src/core/lv_obj_style_gen.c ****     lv_style_value_t v = {
 1077              		.loc 1 199 5 is_stmt 1 view .LVU208
 1078              		.loc 1 199 22 is_stmt 0 view .LVU209
 1079 0006 0191     		str	r1, [sp, #4]
 200:Lib/lvgl/src/core/lv_obj_style_gen.c ****         .num = (int32_t)value
 201:Lib/lvgl/src/core/lv_obj_style_gen.c ****     };
 202:Lib/lvgl/src/core/lv_obj_style_gen.c ****     lv_obj_set_local_style_prop(obj, LV_STYLE_PAD_LEFT, v, selector);
 1080              		.loc 1 202 5 is_stmt 1 view .LVU210
 1081 0008 0A46     		mov	r2, r1
 1082              	.LVL93:
 1083              		.loc 1 202 5 is_stmt 0 view .LVU211
 1084 000a 1221     		movs	r1, #18
 1085              	.LVL94:
 1086              		.loc 1 202 5 view .LVU212
 1087 000c FFF7FEFF 		bl	lv_obj_set_local_style_prop
 1088              	.LVL95:
 203:Lib/lvgl/src/core/lv_obj_style_gen.c **** }
 1089              		.loc 1 203 1 view .LVU213
 1090 0010 03B0     		add	sp, sp, #12
 1091              	.LCFI71:
 1092              		.cfi_def_cfa_offset 4
 1093              		@ sp needed
 1094 0012 5DF804FB 		ldr	pc, [sp], #4
 1095              		.loc 1 203 1 view .LVU214
 1096              		.cfi_endproc
 1097              	.LFE256:
 1099              		.section	.text.lv_obj_set_style_pad_right,"ax",%progbits
ARM GAS  C:\Users\Alex\AppData\Local\Temp\cc6CnhIe.s 			page 23


 1100              		.align	1
 1101              		.global	lv_obj_set_style_pad_right
 1102              		.syntax unified
 1103              		.thumb
 1104              		.thumb_func
 1106              	lv_obj_set_style_pad_right:
 1107              	.LVL96:
 1108              	.LFB257:
 204:Lib/lvgl/src/core/lv_obj_style_gen.c **** 
 205:Lib/lvgl/src/core/lv_obj_style_gen.c **** void lv_obj_set_style_pad_right(lv_obj_t * obj, int32_t value, lv_style_selector_t selector)
 206:Lib/lvgl/src/core/lv_obj_style_gen.c **** {
 1109              		.loc 1 206 1 is_stmt 1 view -0
 1110              		.cfi_startproc
 1111              		@ args = 0, pretend = 0, frame = 8
 1112              		@ frame_needed = 0, uses_anonymous_args = 0
 1113              		.loc 1 206 1 is_stmt 0 view .LVU216
 1114 0000 00B5     		push	{lr}
 1115              	.LCFI72:
 1116              		.cfi_def_cfa_offset 4
 1117              		.cfi_offset 14, -4
 1118 0002 83B0     		sub	sp, sp, #12
 1119              	.LCFI73:
 1120              		.cfi_def_cfa_offset 16
 1121 0004 1346     		mov	r3, r2
 207:Lib/lvgl/src/core/lv_obj_style_gen.c ****     lv_style_value_t v = {
 1122              		.loc 1 207 5 is_stmt 1 view .LVU217
 1123              		.loc 1 207 22 is_stmt 0 view .LVU218
 1124 0006 0191     		str	r1, [sp, #4]
 208:Lib/lvgl/src/core/lv_obj_style_gen.c ****         .num = (int32_t)value
 209:Lib/lvgl/src/core/lv_obj_style_gen.c ****     };
 210:Lib/lvgl/src/core/lv_obj_style_gen.c ****     lv_obj_set_local_style_prop(obj, LV_STYLE_PAD_RIGHT, v, selector);
 1125              		.loc 1 210 5 is_stmt 1 view .LVU219
 1126 0008 0A46     		mov	r2, r1
 1127              	.LVL97:
 1128              		.loc 1 210 5 is_stmt 0 view .LVU220
 1129 000a 1321     		movs	r1, #19
 1130              	.LVL98:
 1131              		.loc 1 210 5 view .LVU221
 1132 000c FFF7FEFF 		bl	lv_obj_set_local_style_prop
 1133              	.LVL99:
 211:Lib/lvgl/src/core/lv_obj_style_gen.c **** }
 1134              		.loc 1 211 1 view .LVU222
 1135 0010 03B0     		add	sp, sp, #12
 1136              	.LCFI74:
 1137              		.cfi_def_cfa_offset 4
 1138              		@ sp needed
 1139 0012 5DF804FB 		ldr	pc, [sp], #4
 1140              		.loc 1 211 1 view .LVU223
 1141              		.cfi_endproc
 1142              	.LFE257:
 1144              		.section	.text.lv_obj_set_style_pad_row,"ax",%progbits
 1145              		.align	1
 1146              		.global	lv_obj_set_style_pad_row
 1147              		.syntax unified
 1148              		.thumb
 1149              		.thumb_func
 1151              	lv_obj_set_style_pad_row:
ARM GAS  C:\Users\Alex\AppData\Local\Temp\cc6CnhIe.s 			page 24


 1152              	.LVL100:
 1153              	.LFB258:
 212:Lib/lvgl/src/core/lv_obj_style_gen.c **** 
 213:Lib/lvgl/src/core/lv_obj_style_gen.c **** void lv_obj_set_style_pad_row(lv_obj_t * obj, int32_t value, lv_style_selector_t selector)
 214:Lib/lvgl/src/core/lv_obj_style_gen.c **** {
 1154              		.loc 1 214 1 is_stmt 1 view -0
 1155              		.cfi_startproc
 1156              		@ args = 0, pretend = 0, frame = 8
 1157              		@ frame_needed = 0, uses_anonymous_args = 0
 1158              		.loc 1 214 1 is_stmt 0 view .LVU225
 1159 0000 00B5     		push	{lr}
 1160              	.LCFI75:
 1161              		.cfi_def_cfa_offset 4
 1162              		.cfi_offset 14, -4
 1163 0002 83B0     		sub	sp, sp, #12
 1164              	.LCFI76:
 1165              		.cfi_def_cfa_offset 16
 1166 0004 1346     		mov	r3, r2
 215:Lib/lvgl/src/core/lv_obj_style_gen.c ****     lv_style_value_t v = {
 1167              		.loc 1 215 5 is_stmt 1 view .LVU226
 1168              		.loc 1 215 22 is_stmt 0 view .LVU227
 1169 0006 0191     		str	r1, [sp, #4]
 216:Lib/lvgl/src/core/lv_obj_style_gen.c ****         .num = (int32_t)value
 217:Lib/lvgl/src/core/lv_obj_style_gen.c ****     };
 218:Lib/lvgl/src/core/lv_obj_style_gen.c ****     lv_obj_set_local_style_prop(obj, LV_STYLE_PAD_ROW, v, selector);
 1170              		.loc 1 218 5 is_stmt 1 view .LVU228
 1171 0008 0A46     		mov	r2, r1
 1172              	.LVL101:
 1173              		.loc 1 218 5 is_stmt 0 view .LVU229
 1174 000a 1421     		movs	r1, #20
 1175              	.LVL102:
 1176              		.loc 1 218 5 view .LVU230
 1177 000c FFF7FEFF 		bl	lv_obj_set_local_style_prop
 1178              	.LVL103:
 219:Lib/lvgl/src/core/lv_obj_style_gen.c **** }
 1179              		.loc 1 219 1 view .LVU231
 1180 0010 03B0     		add	sp, sp, #12
 1181              	.LCFI77:
 1182              		.cfi_def_cfa_offset 4
 1183              		@ sp needed
 1184 0012 5DF804FB 		ldr	pc, [sp], #4
 1185              		.loc 1 219 1 view .LVU232
 1186              		.cfi_endproc
 1187              	.LFE258:
 1189              		.section	.text.lv_obj_set_style_pad_column,"ax",%progbits
 1190              		.align	1
 1191              		.global	lv_obj_set_style_pad_column
 1192              		.syntax unified
 1193              		.thumb
 1194              		.thumb_func
 1196              	lv_obj_set_style_pad_column:
 1197              	.LVL104:
 1198              	.LFB259:
 220:Lib/lvgl/src/core/lv_obj_style_gen.c **** 
 221:Lib/lvgl/src/core/lv_obj_style_gen.c **** void lv_obj_set_style_pad_column(lv_obj_t * obj, int32_t value, lv_style_selector_t selector)
 222:Lib/lvgl/src/core/lv_obj_style_gen.c **** {
 1199              		.loc 1 222 1 is_stmt 1 view -0
ARM GAS  C:\Users\Alex\AppData\Local\Temp\cc6CnhIe.s 			page 25


 1200              		.cfi_startproc
 1201              		@ args = 0, pretend = 0, frame = 8
 1202              		@ frame_needed = 0, uses_anonymous_args = 0
 1203              		.loc 1 222 1 is_stmt 0 view .LVU234
 1204 0000 00B5     		push	{lr}
 1205              	.LCFI78:
 1206              		.cfi_def_cfa_offset 4
 1207              		.cfi_offset 14, -4
 1208 0002 83B0     		sub	sp, sp, #12
 1209              	.LCFI79:
 1210              		.cfi_def_cfa_offset 16
 1211 0004 1346     		mov	r3, r2
 223:Lib/lvgl/src/core/lv_obj_style_gen.c ****     lv_style_value_t v = {
 1212              		.loc 1 223 5 is_stmt 1 view .LVU235
 1213              		.loc 1 223 22 is_stmt 0 view .LVU236
 1214 0006 0191     		str	r1, [sp, #4]
 224:Lib/lvgl/src/core/lv_obj_style_gen.c ****         .num = (int32_t)value
 225:Lib/lvgl/src/core/lv_obj_style_gen.c ****     };
 226:Lib/lvgl/src/core/lv_obj_style_gen.c ****     lv_obj_set_local_style_prop(obj, LV_STYLE_PAD_COLUMN, v, selector);
 1215              		.loc 1 226 5 is_stmt 1 view .LVU237
 1216 0008 0A46     		mov	r2, r1
 1217              	.LVL105:
 1218              		.loc 1 226 5 is_stmt 0 view .LVU238
 1219 000a 1521     		movs	r1, #21
 1220              	.LVL106:
 1221              		.loc 1 226 5 view .LVU239
 1222 000c FFF7FEFF 		bl	lv_obj_set_local_style_prop
 1223              	.LVL107:
 227:Lib/lvgl/src/core/lv_obj_style_gen.c **** }
 1224              		.loc 1 227 1 view .LVU240
 1225 0010 03B0     		add	sp, sp, #12
 1226              	.LCFI80:
 1227              		.cfi_def_cfa_offset 4
 1228              		@ sp needed
 1229 0012 5DF804FB 		ldr	pc, [sp], #4
 1230              		.loc 1 227 1 view .LVU241
 1231              		.cfi_endproc
 1232              	.LFE259:
 1234              		.section	.text.lv_obj_set_style_margin_top,"ax",%progbits
 1235              		.align	1
 1236              		.global	lv_obj_set_style_margin_top
 1237              		.syntax unified
 1238              		.thumb
 1239              		.thumb_func
 1241              	lv_obj_set_style_margin_top:
 1242              	.LVL108:
 1243              	.LFB260:
 228:Lib/lvgl/src/core/lv_obj_style_gen.c **** 
 229:Lib/lvgl/src/core/lv_obj_style_gen.c **** void lv_obj_set_style_margin_top(lv_obj_t * obj, int32_t value, lv_style_selector_t selector)
 230:Lib/lvgl/src/core/lv_obj_style_gen.c **** {
 1244              		.loc 1 230 1 is_stmt 1 view -0
 1245              		.cfi_startproc
 1246              		@ args = 0, pretend = 0, frame = 8
 1247              		@ frame_needed = 0, uses_anonymous_args = 0
 1248              		.loc 1 230 1 is_stmt 0 view .LVU243
 1249 0000 00B5     		push	{lr}
 1250              	.LCFI81:
ARM GAS  C:\Users\Alex\AppData\Local\Temp\cc6CnhIe.s 			page 26


 1251              		.cfi_def_cfa_offset 4
 1252              		.cfi_offset 14, -4
 1253 0002 83B0     		sub	sp, sp, #12
 1254              	.LCFI82:
 1255              		.cfi_def_cfa_offset 16
 1256 0004 1346     		mov	r3, r2
 231:Lib/lvgl/src/core/lv_obj_style_gen.c ****     lv_style_value_t v = {
 1257              		.loc 1 231 5 is_stmt 1 view .LVU244
 1258              		.loc 1 231 22 is_stmt 0 view .LVU245
 1259 0006 0191     		str	r1, [sp, #4]
 232:Lib/lvgl/src/core/lv_obj_style_gen.c ****         .num = (int32_t)value
 233:Lib/lvgl/src/core/lv_obj_style_gen.c ****     };
 234:Lib/lvgl/src/core/lv_obj_style_gen.c ****     lv_obj_set_local_style_prop(obj, LV_STYLE_MARGIN_TOP, v, selector);
 1260              		.loc 1 234 5 is_stmt 1 view .LVU246
 1261 0008 0A46     		mov	r2, r1
 1262              	.LVL109:
 1263              		.loc 1 234 5 is_stmt 0 view .LVU247
 1264 000a 1821     		movs	r1, #24
 1265              	.LVL110:
 1266              		.loc 1 234 5 view .LVU248
 1267 000c FFF7FEFF 		bl	lv_obj_set_local_style_prop
 1268              	.LVL111:
 235:Lib/lvgl/src/core/lv_obj_style_gen.c **** }
 1269              		.loc 1 235 1 view .LVU249
 1270 0010 03B0     		add	sp, sp, #12
 1271              	.LCFI83:
 1272              		.cfi_def_cfa_offset 4
 1273              		@ sp needed
 1274 0012 5DF804FB 		ldr	pc, [sp], #4
 1275              		.loc 1 235 1 view .LVU250
 1276              		.cfi_endproc
 1277              	.LFE260:
 1279              		.section	.text.lv_obj_set_style_margin_bottom,"ax",%progbits
 1280              		.align	1
 1281              		.global	lv_obj_set_style_margin_bottom
 1282              		.syntax unified
 1283              		.thumb
 1284              		.thumb_func
 1286              	lv_obj_set_style_margin_bottom:
 1287              	.LVL112:
 1288              	.LFB261:
 236:Lib/lvgl/src/core/lv_obj_style_gen.c **** 
 237:Lib/lvgl/src/core/lv_obj_style_gen.c **** void lv_obj_set_style_margin_bottom(lv_obj_t * obj, int32_t value, lv_style_selector_t selector)
 238:Lib/lvgl/src/core/lv_obj_style_gen.c **** {
 1289              		.loc 1 238 1 is_stmt 1 view -0
 1290              		.cfi_startproc
 1291              		@ args = 0, pretend = 0, frame = 8
 1292              		@ frame_needed = 0, uses_anonymous_args = 0
 1293              		.loc 1 238 1 is_stmt 0 view .LVU252
 1294 0000 00B5     		push	{lr}
 1295              	.LCFI84:
 1296              		.cfi_def_cfa_offset 4
 1297              		.cfi_offset 14, -4
 1298 0002 83B0     		sub	sp, sp, #12
 1299              	.LCFI85:
 1300              		.cfi_def_cfa_offset 16
 1301 0004 1346     		mov	r3, r2
ARM GAS  C:\Users\Alex\AppData\Local\Temp\cc6CnhIe.s 			page 27


 239:Lib/lvgl/src/core/lv_obj_style_gen.c ****     lv_style_value_t v = {
 1302              		.loc 1 239 5 is_stmt 1 view .LVU253
 1303              		.loc 1 239 22 is_stmt 0 view .LVU254
 1304 0006 0191     		str	r1, [sp, #4]
 240:Lib/lvgl/src/core/lv_obj_style_gen.c ****         .num = (int32_t)value
 241:Lib/lvgl/src/core/lv_obj_style_gen.c ****     };
 242:Lib/lvgl/src/core/lv_obj_style_gen.c ****     lv_obj_set_local_style_prop(obj, LV_STYLE_MARGIN_BOTTOM, v, selector);
 1305              		.loc 1 242 5 is_stmt 1 view .LVU255
 1306 0008 0A46     		mov	r2, r1
 1307              	.LVL113:
 1308              		.loc 1 242 5 is_stmt 0 view .LVU256
 1309 000a 1921     		movs	r1, #25
 1310              	.LVL114:
 1311              		.loc 1 242 5 view .LVU257
 1312 000c FFF7FEFF 		bl	lv_obj_set_local_style_prop
 1313              	.LVL115:
 243:Lib/lvgl/src/core/lv_obj_style_gen.c **** }
 1314              		.loc 1 243 1 view .LVU258
 1315 0010 03B0     		add	sp, sp, #12
 1316              	.LCFI86:
 1317              		.cfi_def_cfa_offset 4
 1318              		@ sp needed
 1319 0012 5DF804FB 		ldr	pc, [sp], #4
 1320              		.loc 1 243 1 view .LVU259
 1321              		.cfi_endproc
 1322              	.LFE261:
 1324              		.section	.text.lv_obj_set_style_margin_left,"ax",%progbits
 1325              		.align	1
 1326              		.global	lv_obj_set_style_margin_left
 1327              		.syntax unified
 1328              		.thumb
 1329              		.thumb_func
 1331              	lv_obj_set_style_margin_left:
 1332              	.LVL116:
 1333              	.LFB262:
 244:Lib/lvgl/src/core/lv_obj_style_gen.c **** 
 245:Lib/lvgl/src/core/lv_obj_style_gen.c **** void lv_obj_set_style_margin_left(lv_obj_t * obj, int32_t value, lv_style_selector_t selector)
 246:Lib/lvgl/src/core/lv_obj_style_gen.c **** {
 1334              		.loc 1 246 1 is_stmt 1 view -0
 1335              		.cfi_startproc
 1336              		@ args = 0, pretend = 0, frame = 8
 1337              		@ frame_needed = 0, uses_anonymous_args = 0
 1338              		.loc 1 246 1 is_stmt 0 view .LVU261
 1339 0000 00B5     		push	{lr}
 1340              	.LCFI87:
 1341              		.cfi_def_cfa_offset 4
 1342              		.cfi_offset 14, -4
 1343 0002 83B0     		sub	sp, sp, #12
 1344              	.LCFI88:
 1345              		.cfi_def_cfa_offset 16
 1346 0004 1346     		mov	r3, r2
 247:Lib/lvgl/src/core/lv_obj_style_gen.c ****     lv_style_value_t v = {
 1347              		.loc 1 247 5 is_stmt 1 view .LVU262
 1348              		.loc 1 247 22 is_stmt 0 view .LVU263
 1349 0006 0191     		str	r1, [sp, #4]
 248:Lib/lvgl/src/core/lv_obj_style_gen.c ****         .num = (int32_t)value
 249:Lib/lvgl/src/core/lv_obj_style_gen.c ****     };
ARM GAS  C:\Users\Alex\AppData\Local\Temp\cc6CnhIe.s 			page 28


 250:Lib/lvgl/src/core/lv_obj_style_gen.c ****     lv_obj_set_local_style_prop(obj, LV_STYLE_MARGIN_LEFT, v, selector);
 1350              		.loc 1 250 5 is_stmt 1 view .LVU264
 1351 0008 0A46     		mov	r2, r1
 1352              	.LVL117:
 1353              		.loc 1 250 5 is_stmt 0 view .LVU265
 1354 000a 1A21     		movs	r1, #26
 1355              	.LVL118:
 1356              		.loc 1 250 5 view .LVU266
 1357 000c FFF7FEFF 		bl	lv_obj_set_local_style_prop
 1358              	.LVL119:
 251:Lib/lvgl/src/core/lv_obj_style_gen.c **** }
 1359              		.loc 1 251 1 view .LVU267
 1360 0010 03B0     		add	sp, sp, #12
 1361              	.LCFI89:
 1362              		.cfi_def_cfa_offset 4
 1363              		@ sp needed
 1364 0012 5DF804FB 		ldr	pc, [sp], #4
 1365              		.loc 1 251 1 view .LVU268
 1366              		.cfi_endproc
 1367              	.LFE262:
 1369              		.section	.text.lv_obj_set_style_margin_right,"ax",%progbits
 1370              		.align	1
 1371              		.global	lv_obj_set_style_margin_right
 1372              		.syntax unified
 1373              		.thumb
 1374              		.thumb_func
 1376              	lv_obj_set_style_margin_right:
 1377              	.LVL120:
 1378              	.LFB263:
 252:Lib/lvgl/src/core/lv_obj_style_gen.c **** 
 253:Lib/lvgl/src/core/lv_obj_style_gen.c **** void lv_obj_set_style_margin_right(lv_obj_t * obj, int32_t value, lv_style_selector_t selector)
 254:Lib/lvgl/src/core/lv_obj_style_gen.c **** {
 1379              		.loc 1 254 1 is_stmt 1 view -0
 1380              		.cfi_startproc
 1381              		@ args = 0, pretend = 0, frame = 8
 1382              		@ frame_needed = 0, uses_anonymous_args = 0
 1383              		.loc 1 254 1 is_stmt 0 view .LVU270
 1384 0000 00B5     		push	{lr}
 1385              	.LCFI90:
 1386              		.cfi_def_cfa_offset 4
 1387              		.cfi_offset 14, -4
 1388 0002 83B0     		sub	sp, sp, #12
 1389              	.LCFI91:
 1390              		.cfi_def_cfa_offset 16
 1391 0004 1346     		mov	r3, r2
 255:Lib/lvgl/src/core/lv_obj_style_gen.c ****     lv_style_value_t v = {
 1392              		.loc 1 255 5 is_stmt 1 view .LVU271
 1393              		.loc 1 255 22 is_stmt 0 view .LVU272
 1394 0006 0191     		str	r1, [sp, #4]
 256:Lib/lvgl/src/core/lv_obj_style_gen.c ****         .num = (int32_t)value
 257:Lib/lvgl/src/core/lv_obj_style_gen.c ****     };
 258:Lib/lvgl/src/core/lv_obj_style_gen.c ****     lv_obj_set_local_style_prop(obj, LV_STYLE_MARGIN_RIGHT, v, selector);
 1395              		.loc 1 258 5 is_stmt 1 view .LVU273
 1396 0008 0A46     		mov	r2, r1
 1397              	.LVL121:
 1398              		.loc 1 258 5 is_stmt 0 view .LVU274
 1399 000a 1B21     		movs	r1, #27
ARM GAS  C:\Users\Alex\AppData\Local\Temp\cc6CnhIe.s 			page 29


 1400              	.LVL122:
 1401              		.loc 1 258 5 view .LVU275
 1402 000c FFF7FEFF 		bl	lv_obj_set_local_style_prop
 1403              	.LVL123:
 259:Lib/lvgl/src/core/lv_obj_style_gen.c **** }
 1404              		.loc 1 259 1 view .LVU276
 1405 0010 03B0     		add	sp, sp, #12
 1406              	.LCFI92:
 1407              		.cfi_def_cfa_offset 4
 1408              		@ sp needed
 1409 0012 5DF804FB 		ldr	pc, [sp], #4
 1410              		.loc 1 259 1 view .LVU277
 1411              		.cfi_endproc
 1412              	.LFE263:
 1414              		.section	.text.lv_obj_set_style_bg_color,"ax",%progbits
 1415              		.align	1
 1416              		.global	lv_obj_set_style_bg_color
 1417              		.syntax unified
 1418              		.thumb
 1419              		.thumb_func
 1421              	lv_obj_set_style_bg_color:
 1422              	.LVL124:
 1423              	.LFB264:
 260:Lib/lvgl/src/core/lv_obj_style_gen.c **** 
 261:Lib/lvgl/src/core/lv_obj_style_gen.c **** void lv_obj_set_style_bg_color(lv_obj_t * obj, lv_color_t value, lv_style_selector_t selector)
 262:Lib/lvgl/src/core/lv_obj_style_gen.c **** {
 1424              		.loc 1 262 1 is_stmt 1 view -0
 1425              		.cfi_startproc
 1426              		@ args = 0, pretend = 0, frame = 16
 1427              		@ frame_needed = 0, uses_anonymous_args = 0
 1428              		.loc 1 262 1 is_stmt 0 view .LVU279
 1429 0000 00B5     		push	{lr}
 1430              	.LCFI93:
 1431              		.cfi_def_cfa_offset 4
 1432              		.cfi_offset 14, -4
 1433 0002 85B0     		sub	sp, sp, #20
 1434              	.LCFI94:
 1435              		.cfi_def_cfa_offset 24
 1436 0004 0191     		str	r1, [sp, #4]
 1437 0006 1346     		mov	r3, r2
 263:Lib/lvgl/src/core/lv_obj_style_gen.c ****     lv_style_value_t v = {
 1438              		.loc 1 263 5 is_stmt 1 view .LVU280
 1439              		.loc 1 263 22 is_stmt 0 view .LVU281
 1440 0008 0022     		movs	r2, #0
 1441              	.LVL125:
 1442              		.loc 1 263 22 view .LVU282
 1443 000a 0392     		str	r2, [sp, #12]
 1444 000c ADF80C10 		strh	r1, [sp, #12]	@ movhi
 1445 0010 090C     		lsrs	r1, r1, #16
 1446 0012 8DF80E10 		strb	r1, [sp, #14]
 264:Lib/lvgl/src/core/lv_obj_style_gen.c ****         .color = value
 265:Lib/lvgl/src/core/lv_obj_style_gen.c ****     };
 266:Lib/lvgl/src/core/lv_obj_style_gen.c ****     lv_obj_set_local_style_prop(obj, LV_STYLE_BG_COLOR, v, selector);
 1447              		.loc 1 266 5 is_stmt 1 view .LVU283
 1448 0016 039A     		ldr	r2, [sp, #12]
 1449 0018 1C21     		movs	r1, #28
 1450 001a FFF7FEFF 		bl	lv_obj_set_local_style_prop
ARM GAS  C:\Users\Alex\AppData\Local\Temp\cc6CnhIe.s 			page 30


 1451              	.LVL126:
 267:Lib/lvgl/src/core/lv_obj_style_gen.c **** }
 1452              		.loc 1 267 1 is_stmt 0 view .LVU284
 1453 001e 05B0     		add	sp, sp, #20
 1454              	.LCFI95:
 1455              		.cfi_def_cfa_offset 4
 1456              		@ sp needed
 1457 0020 5DF804FB 		ldr	pc, [sp], #4
 1458              		.cfi_endproc
 1459              	.LFE264:
 1461              		.section	.text.lv_obj_set_style_bg_opa,"ax",%progbits
 1462              		.align	1
 1463              		.global	lv_obj_set_style_bg_opa
 1464              		.syntax unified
 1465              		.thumb
 1466              		.thumb_func
 1468              	lv_obj_set_style_bg_opa:
 1469              	.LVL127:
 1470              	.LFB265:
 268:Lib/lvgl/src/core/lv_obj_style_gen.c **** 
 269:Lib/lvgl/src/core/lv_obj_style_gen.c **** void lv_obj_set_style_bg_opa(lv_obj_t * obj, lv_opa_t value, lv_style_selector_t selector)
 270:Lib/lvgl/src/core/lv_obj_style_gen.c **** {
 1471              		.loc 1 270 1 is_stmt 1 view -0
 1472              		.cfi_startproc
 1473              		@ args = 0, pretend = 0, frame = 8
 1474              		@ frame_needed = 0, uses_anonymous_args = 0
 1475              		.loc 1 270 1 is_stmt 0 view .LVU286
 1476 0000 00B5     		push	{lr}
 1477              	.LCFI96:
 1478              		.cfi_def_cfa_offset 4
 1479              		.cfi_offset 14, -4
 1480 0002 83B0     		sub	sp, sp, #12
 1481              	.LCFI97:
 1482              		.cfi_def_cfa_offset 16
 1483 0004 1346     		mov	r3, r2
 271:Lib/lvgl/src/core/lv_obj_style_gen.c ****     lv_style_value_t v = {
 1484              		.loc 1 271 5 is_stmt 1 view .LVU287
 1485              		.loc 1 271 22 is_stmt 0 view .LVU288
 1486 0006 0191     		str	r1, [sp, #4]
 272:Lib/lvgl/src/core/lv_obj_style_gen.c ****         .num = (int32_t)value
 273:Lib/lvgl/src/core/lv_obj_style_gen.c ****     };
 274:Lib/lvgl/src/core/lv_obj_style_gen.c ****     lv_obj_set_local_style_prop(obj, LV_STYLE_BG_OPA, v, selector);
 1487              		.loc 1 274 5 is_stmt 1 view .LVU289
 1488 0008 0A46     		mov	r2, r1
 1489              	.LVL128:
 1490              		.loc 1 274 5 is_stmt 0 view .LVU290
 1491 000a 1D21     		movs	r1, #29
 1492              	.LVL129:
 1493              		.loc 1 274 5 view .LVU291
 1494 000c FFF7FEFF 		bl	lv_obj_set_local_style_prop
 1495              	.LVL130:
 275:Lib/lvgl/src/core/lv_obj_style_gen.c **** }
 1496              		.loc 1 275 1 view .LVU292
 1497 0010 03B0     		add	sp, sp, #12
 1498              	.LCFI98:
 1499              		.cfi_def_cfa_offset 4
 1500              		@ sp needed
ARM GAS  C:\Users\Alex\AppData\Local\Temp\cc6CnhIe.s 			page 31


 1501 0012 5DF804FB 		ldr	pc, [sp], #4
 1502              		.cfi_endproc
 1503              	.LFE265:
 1505              		.section	.text.lv_obj_set_style_bg_grad_color,"ax",%progbits
 1506              		.align	1
 1507              		.global	lv_obj_set_style_bg_grad_color
 1508              		.syntax unified
 1509              		.thumb
 1510              		.thumb_func
 1512              	lv_obj_set_style_bg_grad_color:
 1513              	.LVL131:
 1514              	.LFB266:
 276:Lib/lvgl/src/core/lv_obj_style_gen.c **** 
 277:Lib/lvgl/src/core/lv_obj_style_gen.c **** void lv_obj_set_style_bg_grad_color(lv_obj_t * obj, lv_color_t value, lv_style_selector_t selector)
 278:Lib/lvgl/src/core/lv_obj_style_gen.c **** {
 1515              		.loc 1 278 1 is_stmt 1 view -0
 1516              		.cfi_startproc
 1517              		@ args = 0, pretend = 0, frame = 16
 1518              		@ frame_needed = 0, uses_anonymous_args = 0
 1519              		.loc 1 278 1 is_stmt 0 view .LVU294
 1520 0000 00B5     		push	{lr}
 1521              	.LCFI99:
 1522              		.cfi_def_cfa_offset 4
 1523              		.cfi_offset 14, -4
 1524 0002 85B0     		sub	sp, sp, #20
 1525              	.LCFI100:
 1526              		.cfi_def_cfa_offset 24
 1527 0004 0191     		str	r1, [sp, #4]
 1528 0006 1346     		mov	r3, r2
 279:Lib/lvgl/src/core/lv_obj_style_gen.c ****     lv_style_value_t v = {
 1529              		.loc 1 279 5 is_stmt 1 view .LVU295
 1530              		.loc 1 279 22 is_stmt 0 view .LVU296
 1531 0008 0022     		movs	r2, #0
 1532              	.LVL132:
 1533              		.loc 1 279 22 view .LVU297
 1534 000a 0392     		str	r2, [sp, #12]
 1535 000c ADF80C10 		strh	r1, [sp, #12]	@ movhi
 1536 0010 090C     		lsrs	r1, r1, #16
 1537 0012 8DF80E10 		strb	r1, [sp, #14]
 280:Lib/lvgl/src/core/lv_obj_style_gen.c ****         .color = value
 281:Lib/lvgl/src/core/lv_obj_style_gen.c ****     };
 282:Lib/lvgl/src/core/lv_obj_style_gen.c ****     lv_obj_set_local_style_prop(obj, LV_STYLE_BG_GRAD_COLOR, v, selector);
 1538              		.loc 1 282 5 is_stmt 1 view .LVU298
 1539 0016 039A     		ldr	r2, [sp, #12]
 1540 0018 2321     		movs	r1, #35
 1541 001a FFF7FEFF 		bl	lv_obj_set_local_style_prop
 1542              	.LVL133:
 283:Lib/lvgl/src/core/lv_obj_style_gen.c **** }
 1543              		.loc 1 283 1 is_stmt 0 view .LVU299
 1544 001e 05B0     		add	sp, sp, #20
 1545              	.LCFI101:
 1546              		.cfi_def_cfa_offset 4
 1547              		@ sp needed
 1548 0020 5DF804FB 		ldr	pc, [sp], #4
 1549              		.cfi_endproc
 1550              	.LFE266:
 1552              		.section	.text.lv_obj_set_style_bg_grad_dir,"ax",%progbits
ARM GAS  C:\Users\Alex\AppData\Local\Temp\cc6CnhIe.s 			page 32


 1553              		.align	1
 1554              		.global	lv_obj_set_style_bg_grad_dir
 1555              		.syntax unified
 1556              		.thumb
 1557              		.thumb_func
 1559              	lv_obj_set_style_bg_grad_dir:
 1560              	.LVL134:
 1561              	.LFB267:
 284:Lib/lvgl/src/core/lv_obj_style_gen.c **** 
 285:Lib/lvgl/src/core/lv_obj_style_gen.c **** void lv_obj_set_style_bg_grad_dir(lv_obj_t * obj, lv_grad_dir_t value, lv_style_selector_t selector
 286:Lib/lvgl/src/core/lv_obj_style_gen.c **** {
 1562              		.loc 1 286 1 is_stmt 1 view -0
 1563              		.cfi_startproc
 1564              		@ args = 0, pretend = 0, frame = 8
 1565              		@ frame_needed = 0, uses_anonymous_args = 0
 1566              		.loc 1 286 1 is_stmt 0 view .LVU301
 1567 0000 00B5     		push	{lr}
 1568              	.LCFI102:
 1569              		.cfi_def_cfa_offset 4
 1570              		.cfi_offset 14, -4
 1571 0002 83B0     		sub	sp, sp, #12
 1572              	.LCFI103:
 1573              		.cfi_def_cfa_offset 16
 1574 0004 1346     		mov	r3, r2
 287:Lib/lvgl/src/core/lv_obj_style_gen.c ****     lv_style_value_t v = {
 1575              		.loc 1 287 5 is_stmt 1 view .LVU302
 1576              		.loc 1 287 22 is_stmt 0 view .LVU303
 1577 0006 0191     		str	r1, [sp, #4]
 288:Lib/lvgl/src/core/lv_obj_style_gen.c ****         .num = (int32_t)value
 289:Lib/lvgl/src/core/lv_obj_style_gen.c ****     };
 290:Lib/lvgl/src/core/lv_obj_style_gen.c ****     lv_obj_set_local_style_prop(obj, LV_STYLE_BG_GRAD_DIR, v, selector);
 1578              		.loc 1 290 5 is_stmt 1 view .LVU304
 1579 0008 0A46     		mov	r2, r1
 1580              	.LVL135:
 1581              		.loc 1 290 5 is_stmt 0 view .LVU305
 1582 000a 2021     		movs	r1, #32
 1583              	.LVL136:
 1584              		.loc 1 290 5 view .LVU306
 1585 000c FFF7FEFF 		bl	lv_obj_set_local_style_prop
 1586              	.LVL137:
 291:Lib/lvgl/src/core/lv_obj_style_gen.c **** }
 1587              		.loc 1 291 1 view .LVU307
 1588 0010 03B0     		add	sp, sp, #12
 1589              	.LCFI104:
 1590              		.cfi_def_cfa_offset 4
 1591              		@ sp needed
 1592 0012 5DF804FB 		ldr	pc, [sp], #4
 1593              		.cfi_endproc
 1594              	.LFE267:
 1596              		.section	.text.lv_obj_set_style_bg_main_stop,"ax",%progbits
 1597              		.align	1
 1598              		.global	lv_obj_set_style_bg_main_stop
 1599              		.syntax unified
 1600              		.thumb
 1601              		.thumb_func
 1603              	lv_obj_set_style_bg_main_stop:
 1604              	.LVL138:
ARM GAS  C:\Users\Alex\AppData\Local\Temp\cc6CnhIe.s 			page 33


 1605              	.LFB268:
 292:Lib/lvgl/src/core/lv_obj_style_gen.c **** 
 293:Lib/lvgl/src/core/lv_obj_style_gen.c **** void lv_obj_set_style_bg_main_stop(lv_obj_t * obj, int32_t value, lv_style_selector_t selector)
 294:Lib/lvgl/src/core/lv_obj_style_gen.c **** {
 1606              		.loc 1 294 1 is_stmt 1 view -0
 1607              		.cfi_startproc
 1608              		@ args = 0, pretend = 0, frame = 8
 1609              		@ frame_needed = 0, uses_anonymous_args = 0
 1610              		.loc 1 294 1 is_stmt 0 view .LVU309
 1611 0000 00B5     		push	{lr}
 1612              	.LCFI105:
 1613              		.cfi_def_cfa_offset 4
 1614              		.cfi_offset 14, -4
 1615 0002 83B0     		sub	sp, sp, #12
 1616              	.LCFI106:
 1617              		.cfi_def_cfa_offset 16
 1618 0004 1346     		mov	r3, r2
 295:Lib/lvgl/src/core/lv_obj_style_gen.c ****     lv_style_value_t v = {
 1619              		.loc 1 295 5 is_stmt 1 view .LVU310
 1620              		.loc 1 295 22 is_stmt 0 view .LVU311
 1621 0006 0191     		str	r1, [sp, #4]
 296:Lib/lvgl/src/core/lv_obj_style_gen.c ****         .num = (int32_t)value
 297:Lib/lvgl/src/core/lv_obj_style_gen.c ****     };
 298:Lib/lvgl/src/core/lv_obj_style_gen.c ****     lv_obj_set_local_style_prop(obj, LV_STYLE_BG_MAIN_STOP, v, selector);
 1622              		.loc 1 298 5 is_stmt 1 view .LVU312
 1623 0008 0A46     		mov	r2, r1
 1624              	.LVL139:
 1625              		.loc 1 298 5 is_stmt 0 view .LVU313
 1626 000a 2121     		movs	r1, #33
 1627              	.LVL140:
 1628              		.loc 1 298 5 view .LVU314
 1629 000c FFF7FEFF 		bl	lv_obj_set_local_style_prop
 1630              	.LVL141:
 299:Lib/lvgl/src/core/lv_obj_style_gen.c **** }
 1631              		.loc 1 299 1 view .LVU315
 1632 0010 03B0     		add	sp, sp, #12
 1633              	.LCFI107:
 1634              		.cfi_def_cfa_offset 4
 1635              		@ sp needed
 1636 0012 5DF804FB 		ldr	pc, [sp], #4
 1637              		.loc 1 299 1 view .LVU316
 1638              		.cfi_endproc
 1639              	.LFE268:
 1641              		.section	.text.lv_obj_set_style_bg_grad_stop,"ax",%progbits
 1642              		.align	1
 1643              		.global	lv_obj_set_style_bg_grad_stop
 1644              		.syntax unified
 1645              		.thumb
 1646              		.thumb_func
 1648              	lv_obj_set_style_bg_grad_stop:
 1649              	.LVL142:
 1650              	.LFB269:
 300:Lib/lvgl/src/core/lv_obj_style_gen.c **** 
 301:Lib/lvgl/src/core/lv_obj_style_gen.c **** void lv_obj_set_style_bg_grad_stop(lv_obj_t * obj, int32_t value, lv_style_selector_t selector)
 302:Lib/lvgl/src/core/lv_obj_style_gen.c **** {
 1651              		.loc 1 302 1 is_stmt 1 view -0
 1652              		.cfi_startproc
ARM GAS  C:\Users\Alex\AppData\Local\Temp\cc6CnhIe.s 			page 34


 1653              		@ args = 0, pretend = 0, frame = 8
 1654              		@ frame_needed = 0, uses_anonymous_args = 0
 1655              		.loc 1 302 1 is_stmt 0 view .LVU318
 1656 0000 00B5     		push	{lr}
 1657              	.LCFI108:
 1658              		.cfi_def_cfa_offset 4
 1659              		.cfi_offset 14, -4
 1660 0002 83B0     		sub	sp, sp, #12
 1661              	.LCFI109:
 1662              		.cfi_def_cfa_offset 16
 1663 0004 1346     		mov	r3, r2
 303:Lib/lvgl/src/core/lv_obj_style_gen.c ****     lv_style_value_t v = {
 1664              		.loc 1 303 5 is_stmt 1 view .LVU319
 1665              		.loc 1 303 22 is_stmt 0 view .LVU320
 1666 0006 0191     		str	r1, [sp, #4]
 304:Lib/lvgl/src/core/lv_obj_style_gen.c ****         .num = (int32_t)value
 305:Lib/lvgl/src/core/lv_obj_style_gen.c ****     };
 306:Lib/lvgl/src/core/lv_obj_style_gen.c ****     lv_obj_set_local_style_prop(obj, LV_STYLE_BG_GRAD_STOP, v, selector);
 1667              		.loc 1 306 5 is_stmt 1 view .LVU321
 1668 0008 0A46     		mov	r2, r1
 1669              	.LVL143:
 1670              		.loc 1 306 5 is_stmt 0 view .LVU322
 1671 000a 2221     		movs	r1, #34
 1672              	.LVL144:
 1673              		.loc 1 306 5 view .LVU323
 1674 000c FFF7FEFF 		bl	lv_obj_set_local_style_prop
 1675              	.LVL145:
 307:Lib/lvgl/src/core/lv_obj_style_gen.c **** }
 1676              		.loc 1 307 1 view .LVU324
 1677 0010 03B0     		add	sp, sp, #12
 1678              	.LCFI110:
 1679              		.cfi_def_cfa_offset 4
 1680              		@ sp needed
 1681 0012 5DF804FB 		ldr	pc, [sp], #4
 1682              		.loc 1 307 1 view .LVU325
 1683              		.cfi_endproc
 1684              	.LFE269:
 1686              		.section	.text.lv_obj_set_style_bg_main_opa,"ax",%progbits
 1687              		.align	1
 1688              		.global	lv_obj_set_style_bg_main_opa
 1689              		.syntax unified
 1690              		.thumb
 1691              		.thumb_func
 1693              	lv_obj_set_style_bg_main_opa:
 1694              	.LVL146:
 1695              	.LFB270:
 308:Lib/lvgl/src/core/lv_obj_style_gen.c **** 
 309:Lib/lvgl/src/core/lv_obj_style_gen.c **** void lv_obj_set_style_bg_main_opa(lv_obj_t * obj, lv_opa_t value, lv_style_selector_t selector)
 310:Lib/lvgl/src/core/lv_obj_style_gen.c **** {
 1696              		.loc 1 310 1 is_stmt 1 view -0
 1697              		.cfi_startproc
 1698              		@ args = 0, pretend = 0, frame = 8
 1699              		@ frame_needed = 0, uses_anonymous_args = 0
 1700              		.loc 1 310 1 is_stmt 0 view .LVU327
 1701 0000 00B5     		push	{lr}
 1702              	.LCFI111:
 1703              		.cfi_def_cfa_offset 4
ARM GAS  C:\Users\Alex\AppData\Local\Temp\cc6CnhIe.s 			page 35


 1704              		.cfi_offset 14, -4
 1705 0002 83B0     		sub	sp, sp, #12
 1706              	.LCFI112:
 1707              		.cfi_def_cfa_offset 16
 1708 0004 1346     		mov	r3, r2
 311:Lib/lvgl/src/core/lv_obj_style_gen.c ****     lv_style_value_t v = {
 1709              		.loc 1 311 5 is_stmt 1 view .LVU328
 1710              		.loc 1 311 22 is_stmt 0 view .LVU329
 1711 0006 0191     		str	r1, [sp, #4]
 312:Lib/lvgl/src/core/lv_obj_style_gen.c ****         .num = (int32_t)value
 313:Lib/lvgl/src/core/lv_obj_style_gen.c ****     };
 314:Lib/lvgl/src/core/lv_obj_style_gen.c ****     lv_obj_set_local_style_prop(obj, LV_STYLE_BG_MAIN_OPA, v, selector);
 1712              		.loc 1 314 5 is_stmt 1 view .LVU330
 1713 0008 0A46     		mov	r2, r1
 1714              	.LVL147:
 1715              		.loc 1 314 5 is_stmt 0 view .LVU331
 1716 000a 2421     		movs	r1, #36
 1717              	.LVL148:
 1718              		.loc 1 314 5 view .LVU332
 1719 000c FFF7FEFF 		bl	lv_obj_set_local_style_prop
 1720              	.LVL149:
 315:Lib/lvgl/src/core/lv_obj_style_gen.c **** }
 1721              		.loc 1 315 1 view .LVU333
 1722 0010 03B0     		add	sp, sp, #12
 1723              	.LCFI113:
 1724              		.cfi_def_cfa_offset 4
 1725              		@ sp needed
 1726 0012 5DF804FB 		ldr	pc, [sp], #4
 1727              		.cfi_endproc
 1728              	.LFE270:
 1730              		.section	.text.lv_obj_set_style_bg_grad_opa,"ax",%progbits
 1731              		.align	1
 1732              		.global	lv_obj_set_style_bg_grad_opa
 1733              		.syntax unified
 1734              		.thumb
 1735              		.thumb_func
 1737              	lv_obj_set_style_bg_grad_opa:
 1738              	.LVL150:
 1739              	.LFB271:
 316:Lib/lvgl/src/core/lv_obj_style_gen.c **** 
 317:Lib/lvgl/src/core/lv_obj_style_gen.c **** void lv_obj_set_style_bg_grad_opa(lv_obj_t * obj, lv_opa_t value, lv_style_selector_t selector)
 318:Lib/lvgl/src/core/lv_obj_style_gen.c **** {
 1740              		.loc 1 318 1 is_stmt 1 view -0
 1741              		.cfi_startproc
 1742              		@ args = 0, pretend = 0, frame = 8
 1743              		@ frame_needed = 0, uses_anonymous_args = 0
 1744              		.loc 1 318 1 is_stmt 0 view .LVU335
 1745 0000 00B5     		push	{lr}
 1746              	.LCFI114:
 1747              		.cfi_def_cfa_offset 4
 1748              		.cfi_offset 14, -4
 1749 0002 83B0     		sub	sp, sp, #12
 1750              	.LCFI115:
 1751              		.cfi_def_cfa_offset 16
 1752 0004 1346     		mov	r3, r2
 319:Lib/lvgl/src/core/lv_obj_style_gen.c ****     lv_style_value_t v = {
 1753              		.loc 1 319 5 is_stmt 1 view .LVU336
ARM GAS  C:\Users\Alex\AppData\Local\Temp\cc6CnhIe.s 			page 36


 1754              		.loc 1 319 22 is_stmt 0 view .LVU337
 1755 0006 0191     		str	r1, [sp, #4]
 320:Lib/lvgl/src/core/lv_obj_style_gen.c ****         .num = (int32_t)value
 321:Lib/lvgl/src/core/lv_obj_style_gen.c ****     };
 322:Lib/lvgl/src/core/lv_obj_style_gen.c ****     lv_obj_set_local_style_prop(obj, LV_STYLE_BG_GRAD_OPA, v, selector);
 1756              		.loc 1 322 5 is_stmt 1 view .LVU338
 1757 0008 0A46     		mov	r2, r1
 1758              	.LVL151:
 1759              		.loc 1 322 5 is_stmt 0 view .LVU339
 1760 000a 2521     		movs	r1, #37
 1761              	.LVL152:
 1762              		.loc 1 322 5 view .LVU340
 1763 000c FFF7FEFF 		bl	lv_obj_set_local_style_prop
 1764              	.LVL153:
 323:Lib/lvgl/src/core/lv_obj_style_gen.c **** }
 1765              		.loc 1 323 1 view .LVU341
 1766 0010 03B0     		add	sp, sp, #12
 1767              	.LCFI116:
 1768              		.cfi_def_cfa_offset 4
 1769              		@ sp needed
 1770 0012 5DF804FB 		ldr	pc, [sp], #4
 1771              		.cfi_endproc
 1772              	.LFE271:
 1774              		.section	.text.lv_obj_set_style_bg_grad,"ax",%progbits
 1775              		.align	1
 1776              		.global	lv_obj_set_style_bg_grad
 1777              		.syntax unified
 1778              		.thumb
 1779              		.thumb_func
 1781              	lv_obj_set_style_bg_grad:
 1782              	.LVL154:
 1783              	.LFB272:
 324:Lib/lvgl/src/core/lv_obj_style_gen.c **** 
 325:Lib/lvgl/src/core/lv_obj_style_gen.c **** void lv_obj_set_style_bg_grad(lv_obj_t * obj, const lv_grad_dsc_t * value, lv_style_selector_t sele
 326:Lib/lvgl/src/core/lv_obj_style_gen.c **** {
 1784              		.loc 1 326 1 is_stmt 1 view -0
 1785              		.cfi_startproc
 1786              		@ args = 0, pretend = 0, frame = 8
 1787              		@ frame_needed = 0, uses_anonymous_args = 0
 1788              		.loc 1 326 1 is_stmt 0 view .LVU343
 1789 0000 00B5     		push	{lr}
 1790              	.LCFI117:
 1791              		.cfi_def_cfa_offset 4
 1792              		.cfi_offset 14, -4
 1793 0002 83B0     		sub	sp, sp, #12
 1794              	.LCFI118:
 1795              		.cfi_def_cfa_offset 16
 1796 0004 1346     		mov	r3, r2
 327:Lib/lvgl/src/core/lv_obj_style_gen.c ****     lv_style_value_t v = {
 1797              		.loc 1 327 5 is_stmt 1 view .LVU344
 1798              		.loc 1 327 22 is_stmt 0 view .LVU345
 1799 0006 0191     		str	r1, [sp, #4]
 328:Lib/lvgl/src/core/lv_obj_style_gen.c ****         .ptr = value
 329:Lib/lvgl/src/core/lv_obj_style_gen.c ****     };
 330:Lib/lvgl/src/core/lv_obj_style_gen.c ****     lv_obj_set_local_style_prop(obj, LV_STYLE_BG_GRAD, v, selector);
 1800              		.loc 1 330 5 is_stmt 1 view .LVU346
 1801 0008 0A46     		mov	r2, r1
ARM GAS  C:\Users\Alex\AppData\Local\Temp\cc6CnhIe.s 			page 37


 1802              	.LVL155:
 1803              		.loc 1 330 5 is_stmt 0 view .LVU347
 1804 000a 2621     		movs	r1, #38
 1805              	.LVL156:
 1806              		.loc 1 330 5 view .LVU348
 1807 000c FFF7FEFF 		bl	lv_obj_set_local_style_prop
 1808              	.LVL157:
 331:Lib/lvgl/src/core/lv_obj_style_gen.c **** }
 1809              		.loc 1 331 1 view .LVU349
 1810 0010 03B0     		add	sp, sp, #12
 1811              	.LCFI119:
 1812              		.cfi_def_cfa_offset 4
 1813              		@ sp needed
 1814 0012 5DF804FB 		ldr	pc, [sp], #4
 1815              		.loc 1 331 1 view .LVU350
 1816              		.cfi_endproc
 1817              	.LFE272:
 1819              		.section	.text.lv_obj_set_style_bg_image_src,"ax",%progbits
 1820              		.align	1
 1821              		.global	lv_obj_set_style_bg_image_src
 1822              		.syntax unified
 1823              		.thumb
 1824              		.thumb_func
 1826              	lv_obj_set_style_bg_image_src:
 1827              	.LVL158:
 1828              	.LFB273:
 332:Lib/lvgl/src/core/lv_obj_style_gen.c **** 
 333:Lib/lvgl/src/core/lv_obj_style_gen.c **** void lv_obj_set_style_bg_image_src(lv_obj_t * obj, const void * value, lv_style_selector_t selector
 334:Lib/lvgl/src/core/lv_obj_style_gen.c **** {
 1829              		.loc 1 334 1 is_stmt 1 view -0
 1830              		.cfi_startproc
 1831              		@ args = 0, pretend = 0, frame = 8
 1832              		@ frame_needed = 0, uses_anonymous_args = 0
 1833              		.loc 1 334 1 is_stmt 0 view .LVU352
 1834 0000 00B5     		push	{lr}
 1835              	.LCFI120:
 1836              		.cfi_def_cfa_offset 4
 1837              		.cfi_offset 14, -4
 1838 0002 83B0     		sub	sp, sp, #12
 1839              	.LCFI121:
 1840              		.cfi_def_cfa_offset 16
 1841 0004 1346     		mov	r3, r2
 335:Lib/lvgl/src/core/lv_obj_style_gen.c ****     lv_style_value_t v = {
 1842              		.loc 1 335 5 is_stmt 1 view .LVU353
 1843              		.loc 1 335 22 is_stmt 0 view .LVU354
 1844 0006 0191     		str	r1, [sp, #4]
 336:Lib/lvgl/src/core/lv_obj_style_gen.c ****         .ptr = value
 337:Lib/lvgl/src/core/lv_obj_style_gen.c ****     };
 338:Lib/lvgl/src/core/lv_obj_style_gen.c ****     lv_obj_set_local_style_prop(obj, LV_STYLE_BG_IMAGE_SRC, v, selector);
 1845              		.loc 1 338 5 is_stmt 1 view .LVU355
 1846 0008 0A46     		mov	r2, r1
 1847              	.LVL159:
 1848              		.loc 1 338 5 is_stmt 0 view .LVU356
 1849 000a 2821     		movs	r1, #40
 1850              	.LVL160:
 1851              		.loc 1 338 5 view .LVU357
 1852 000c FFF7FEFF 		bl	lv_obj_set_local_style_prop
ARM GAS  C:\Users\Alex\AppData\Local\Temp\cc6CnhIe.s 			page 38


 1853              	.LVL161:
 339:Lib/lvgl/src/core/lv_obj_style_gen.c **** }
 1854              		.loc 1 339 1 view .LVU358
 1855 0010 03B0     		add	sp, sp, #12
 1856              	.LCFI122:
 1857              		.cfi_def_cfa_offset 4
 1858              		@ sp needed
 1859 0012 5DF804FB 		ldr	pc, [sp], #4
 1860              		.loc 1 339 1 view .LVU359
 1861              		.cfi_endproc
 1862              	.LFE273:
 1864              		.section	.text.lv_obj_set_style_bg_image_opa,"ax",%progbits
 1865              		.align	1
 1866              		.global	lv_obj_set_style_bg_image_opa
 1867              		.syntax unified
 1868              		.thumb
 1869              		.thumb_func
 1871              	lv_obj_set_style_bg_image_opa:
 1872              	.LVL162:
 1873              	.LFB274:
 340:Lib/lvgl/src/core/lv_obj_style_gen.c **** 
 341:Lib/lvgl/src/core/lv_obj_style_gen.c **** void lv_obj_set_style_bg_image_opa(lv_obj_t * obj, lv_opa_t value, lv_style_selector_t selector)
 342:Lib/lvgl/src/core/lv_obj_style_gen.c **** {
 1874              		.loc 1 342 1 is_stmt 1 view -0
 1875              		.cfi_startproc
 1876              		@ args = 0, pretend = 0, frame = 8
 1877              		@ frame_needed = 0, uses_anonymous_args = 0
 1878              		.loc 1 342 1 is_stmt 0 view .LVU361
 1879 0000 00B5     		push	{lr}
 1880              	.LCFI123:
 1881              		.cfi_def_cfa_offset 4
 1882              		.cfi_offset 14, -4
 1883 0002 83B0     		sub	sp, sp, #12
 1884              	.LCFI124:
 1885              		.cfi_def_cfa_offset 16
 1886 0004 1346     		mov	r3, r2
 343:Lib/lvgl/src/core/lv_obj_style_gen.c ****     lv_style_value_t v = {
 1887              		.loc 1 343 5 is_stmt 1 view .LVU362
 1888              		.loc 1 343 22 is_stmt 0 view .LVU363
 1889 0006 0191     		str	r1, [sp, #4]
 344:Lib/lvgl/src/core/lv_obj_style_gen.c ****         .num = (int32_t)value
 345:Lib/lvgl/src/core/lv_obj_style_gen.c ****     };
 346:Lib/lvgl/src/core/lv_obj_style_gen.c ****     lv_obj_set_local_style_prop(obj, LV_STYLE_BG_IMAGE_OPA, v, selector);
 1890              		.loc 1 346 5 is_stmt 1 view .LVU364
 1891 0008 0A46     		mov	r2, r1
 1892              	.LVL163:
 1893              		.loc 1 346 5 is_stmt 0 view .LVU365
 1894 000a 2921     		movs	r1, #41
 1895              	.LVL164:
 1896              		.loc 1 346 5 view .LVU366
 1897 000c FFF7FEFF 		bl	lv_obj_set_local_style_prop
 1898              	.LVL165:
 347:Lib/lvgl/src/core/lv_obj_style_gen.c **** }
 1899              		.loc 1 347 1 view .LVU367
 1900 0010 03B0     		add	sp, sp, #12
 1901              	.LCFI125:
 1902              		.cfi_def_cfa_offset 4
ARM GAS  C:\Users\Alex\AppData\Local\Temp\cc6CnhIe.s 			page 39


 1903              		@ sp needed
 1904 0012 5DF804FB 		ldr	pc, [sp], #4
 1905              		.cfi_endproc
 1906              	.LFE274:
 1908              		.section	.text.lv_obj_set_style_bg_image_recolor,"ax",%progbits
 1909              		.align	1
 1910              		.global	lv_obj_set_style_bg_image_recolor
 1911              		.syntax unified
 1912              		.thumb
 1913              		.thumb_func
 1915              	lv_obj_set_style_bg_image_recolor:
 1916              	.LVL166:
 1917              	.LFB275:
 348:Lib/lvgl/src/core/lv_obj_style_gen.c **** 
 349:Lib/lvgl/src/core/lv_obj_style_gen.c **** void lv_obj_set_style_bg_image_recolor(lv_obj_t * obj, lv_color_t value, lv_style_selector_t select
 350:Lib/lvgl/src/core/lv_obj_style_gen.c **** {
 1918              		.loc 1 350 1 is_stmt 1 view -0
 1919              		.cfi_startproc
 1920              		@ args = 0, pretend = 0, frame = 16
 1921              		@ frame_needed = 0, uses_anonymous_args = 0
 1922              		.loc 1 350 1 is_stmt 0 view .LVU369
 1923 0000 00B5     		push	{lr}
 1924              	.LCFI126:
 1925              		.cfi_def_cfa_offset 4
 1926              		.cfi_offset 14, -4
 1927 0002 85B0     		sub	sp, sp, #20
 1928              	.LCFI127:
 1929              		.cfi_def_cfa_offset 24
 1930 0004 0191     		str	r1, [sp, #4]
 1931 0006 1346     		mov	r3, r2
 351:Lib/lvgl/src/core/lv_obj_style_gen.c ****     lv_style_value_t v = {
 1932              		.loc 1 351 5 is_stmt 1 view .LVU370
 1933              		.loc 1 351 22 is_stmt 0 view .LVU371
 1934 0008 0022     		movs	r2, #0
 1935              	.LVL167:
 1936              		.loc 1 351 22 view .LVU372
 1937 000a 0392     		str	r2, [sp, #12]
 1938 000c ADF80C10 		strh	r1, [sp, #12]	@ movhi
 1939 0010 090C     		lsrs	r1, r1, #16
 1940 0012 8DF80E10 		strb	r1, [sp, #14]
 352:Lib/lvgl/src/core/lv_obj_style_gen.c ****         .color = value
 353:Lib/lvgl/src/core/lv_obj_style_gen.c ****     };
 354:Lib/lvgl/src/core/lv_obj_style_gen.c ****     lv_obj_set_local_style_prop(obj, LV_STYLE_BG_IMAGE_RECOLOR, v, selector);
 1941              		.loc 1 354 5 is_stmt 1 view .LVU373
 1942 0016 039A     		ldr	r2, [sp, #12]
 1943 0018 2A21     		movs	r1, #42
 1944 001a FFF7FEFF 		bl	lv_obj_set_local_style_prop
 1945              	.LVL168:
 355:Lib/lvgl/src/core/lv_obj_style_gen.c **** }
 1946              		.loc 1 355 1 is_stmt 0 view .LVU374
 1947 001e 05B0     		add	sp, sp, #20
 1948              	.LCFI128:
 1949              		.cfi_def_cfa_offset 4
 1950              		@ sp needed
 1951 0020 5DF804FB 		ldr	pc, [sp], #4
 1952              		.cfi_endproc
 1953              	.LFE275:
ARM GAS  C:\Users\Alex\AppData\Local\Temp\cc6CnhIe.s 			page 40


 1955              		.section	.text.lv_obj_set_style_bg_image_recolor_opa,"ax",%progbits
 1956              		.align	1
 1957              		.global	lv_obj_set_style_bg_image_recolor_opa
 1958              		.syntax unified
 1959              		.thumb
 1960              		.thumb_func
 1962              	lv_obj_set_style_bg_image_recolor_opa:
 1963              	.LVL169:
 1964              	.LFB276:
 356:Lib/lvgl/src/core/lv_obj_style_gen.c **** 
 357:Lib/lvgl/src/core/lv_obj_style_gen.c **** void lv_obj_set_style_bg_image_recolor_opa(lv_obj_t * obj, lv_opa_t value, lv_style_selector_t sele
 358:Lib/lvgl/src/core/lv_obj_style_gen.c **** {
 1965              		.loc 1 358 1 is_stmt 1 view -0
 1966              		.cfi_startproc
 1967              		@ args = 0, pretend = 0, frame = 8
 1968              		@ frame_needed = 0, uses_anonymous_args = 0
 1969              		.loc 1 358 1 is_stmt 0 view .LVU376
 1970 0000 00B5     		push	{lr}
 1971              	.LCFI129:
 1972              		.cfi_def_cfa_offset 4
 1973              		.cfi_offset 14, -4
 1974 0002 83B0     		sub	sp, sp, #12
 1975              	.LCFI130:
 1976              		.cfi_def_cfa_offset 16
 1977 0004 1346     		mov	r3, r2
 359:Lib/lvgl/src/core/lv_obj_style_gen.c ****     lv_style_value_t v = {
 1978              		.loc 1 359 5 is_stmt 1 view .LVU377
 1979              		.loc 1 359 22 is_stmt 0 view .LVU378
 1980 0006 0191     		str	r1, [sp, #4]
 360:Lib/lvgl/src/core/lv_obj_style_gen.c ****         .num = (int32_t)value
 361:Lib/lvgl/src/core/lv_obj_style_gen.c ****     };
 362:Lib/lvgl/src/core/lv_obj_style_gen.c ****     lv_obj_set_local_style_prop(obj, LV_STYLE_BG_IMAGE_RECOLOR_OPA, v, selector);
 1981              		.loc 1 362 5 is_stmt 1 view .LVU379
 1982 0008 0A46     		mov	r2, r1
 1983              	.LVL170:
 1984              		.loc 1 362 5 is_stmt 0 view .LVU380
 1985 000a 2B21     		movs	r1, #43
 1986              	.LVL171:
 1987              		.loc 1 362 5 view .LVU381
 1988 000c FFF7FEFF 		bl	lv_obj_set_local_style_prop
 1989              	.LVL172:
 363:Lib/lvgl/src/core/lv_obj_style_gen.c **** }
 1990              		.loc 1 363 1 view .LVU382
 1991 0010 03B0     		add	sp, sp, #12
 1992              	.LCFI131:
 1993              		.cfi_def_cfa_offset 4
 1994              		@ sp needed
 1995 0012 5DF804FB 		ldr	pc, [sp], #4
 1996              		.cfi_endproc
 1997              	.LFE276:
 1999              		.section	.text.lv_obj_set_style_bg_image_tiled,"ax",%progbits
 2000              		.align	1
 2001              		.global	lv_obj_set_style_bg_image_tiled
 2002              		.syntax unified
 2003              		.thumb
 2004              		.thumb_func
 2006              	lv_obj_set_style_bg_image_tiled:
ARM GAS  C:\Users\Alex\AppData\Local\Temp\cc6CnhIe.s 			page 41


 2007              	.LVL173:
 2008              	.LFB277:
 364:Lib/lvgl/src/core/lv_obj_style_gen.c **** 
 365:Lib/lvgl/src/core/lv_obj_style_gen.c **** void lv_obj_set_style_bg_image_tiled(lv_obj_t * obj, bool value, lv_style_selector_t selector)
 366:Lib/lvgl/src/core/lv_obj_style_gen.c **** {
 2009              		.loc 1 366 1 is_stmt 1 view -0
 2010              		.cfi_startproc
 2011              		@ args = 0, pretend = 0, frame = 8
 2012              		@ frame_needed = 0, uses_anonymous_args = 0
 2013              		.loc 1 366 1 is_stmt 0 view .LVU384
 2014 0000 00B5     		push	{lr}
 2015              	.LCFI132:
 2016              		.cfi_def_cfa_offset 4
 2017              		.cfi_offset 14, -4
 2018 0002 83B0     		sub	sp, sp, #12
 2019              	.LCFI133:
 2020              		.cfi_def_cfa_offset 16
 2021 0004 1346     		mov	r3, r2
 367:Lib/lvgl/src/core/lv_obj_style_gen.c ****     lv_style_value_t v = {
 2022              		.loc 1 367 5 is_stmt 1 view .LVU385
 2023              		.loc 1 367 22 is_stmt 0 view .LVU386
 2024 0006 0191     		str	r1, [sp, #4]
 368:Lib/lvgl/src/core/lv_obj_style_gen.c ****         .num = (int32_t)value
 369:Lib/lvgl/src/core/lv_obj_style_gen.c ****     };
 370:Lib/lvgl/src/core/lv_obj_style_gen.c ****     lv_obj_set_local_style_prop(obj, LV_STYLE_BG_IMAGE_TILED, v, selector);
 2025              		.loc 1 370 5 is_stmt 1 view .LVU387
 2026 0008 0A46     		mov	r2, r1
 2027              	.LVL174:
 2028              		.loc 1 370 5 is_stmt 0 view .LVU388
 2029 000a 2C21     		movs	r1, #44
 2030              	.LVL175:
 2031              		.loc 1 370 5 view .LVU389
 2032 000c FFF7FEFF 		bl	lv_obj_set_local_style_prop
 2033              	.LVL176:
 371:Lib/lvgl/src/core/lv_obj_style_gen.c **** }
 2034              		.loc 1 371 1 view .LVU390
 2035 0010 03B0     		add	sp, sp, #12
 2036              	.LCFI134:
 2037              		.cfi_def_cfa_offset 4
 2038              		@ sp needed
 2039 0012 5DF804FB 		ldr	pc, [sp], #4
 2040              		.cfi_endproc
 2041              	.LFE277:
 2043              		.section	.text.lv_obj_set_style_border_color,"ax",%progbits
 2044              		.align	1
 2045              		.global	lv_obj_set_style_border_color
 2046              		.syntax unified
 2047              		.thumb
 2048              		.thumb_func
 2050              	lv_obj_set_style_border_color:
 2051              	.LVL177:
 2052              	.LFB278:
 372:Lib/lvgl/src/core/lv_obj_style_gen.c **** 
 373:Lib/lvgl/src/core/lv_obj_style_gen.c **** void lv_obj_set_style_border_color(lv_obj_t * obj, lv_color_t value, lv_style_selector_t selector)
 374:Lib/lvgl/src/core/lv_obj_style_gen.c **** {
 2053              		.loc 1 374 1 is_stmt 1 view -0
 2054              		.cfi_startproc
ARM GAS  C:\Users\Alex\AppData\Local\Temp\cc6CnhIe.s 			page 42


 2055              		@ args = 0, pretend = 0, frame = 16
 2056              		@ frame_needed = 0, uses_anonymous_args = 0
 2057              		.loc 1 374 1 is_stmt 0 view .LVU392
 2058 0000 00B5     		push	{lr}
 2059              	.LCFI135:
 2060              		.cfi_def_cfa_offset 4
 2061              		.cfi_offset 14, -4
 2062 0002 85B0     		sub	sp, sp, #20
 2063              	.LCFI136:
 2064              		.cfi_def_cfa_offset 24
 2065 0004 0191     		str	r1, [sp, #4]
 2066 0006 1346     		mov	r3, r2
 375:Lib/lvgl/src/core/lv_obj_style_gen.c ****     lv_style_value_t v = {
 2067              		.loc 1 375 5 is_stmt 1 view .LVU393
 2068              		.loc 1 375 22 is_stmt 0 view .LVU394
 2069 0008 0022     		movs	r2, #0
 2070              	.LVL178:
 2071              		.loc 1 375 22 view .LVU395
 2072 000a 0392     		str	r2, [sp, #12]
 2073 000c ADF80C10 		strh	r1, [sp, #12]	@ movhi
 2074 0010 090C     		lsrs	r1, r1, #16
 2075 0012 8DF80E10 		strb	r1, [sp, #14]
 376:Lib/lvgl/src/core/lv_obj_style_gen.c ****         .color = value
 377:Lib/lvgl/src/core/lv_obj_style_gen.c ****     };
 378:Lib/lvgl/src/core/lv_obj_style_gen.c ****     lv_obj_set_local_style_prop(obj, LV_STYLE_BORDER_COLOR, v, selector);
 2076              		.loc 1 378 5 is_stmt 1 view .LVU396
 2077 0016 039A     		ldr	r2, [sp, #12]
 2078 0018 3121     		movs	r1, #49
 2079 001a FFF7FEFF 		bl	lv_obj_set_local_style_prop
 2080              	.LVL179:
 379:Lib/lvgl/src/core/lv_obj_style_gen.c **** }
 2081              		.loc 1 379 1 is_stmt 0 view .LVU397
 2082 001e 05B0     		add	sp, sp, #20
 2083              	.LCFI137:
 2084              		.cfi_def_cfa_offset 4
 2085              		@ sp needed
 2086 0020 5DF804FB 		ldr	pc, [sp], #4
 2087              		.cfi_endproc
 2088              	.LFE278:
 2090              		.section	.text.lv_obj_set_style_border_opa,"ax",%progbits
 2091              		.align	1
 2092              		.global	lv_obj_set_style_border_opa
 2093              		.syntax unified
 2094              		.thumb
 2095              		.thumb_func
 2097              	lv_obj_set_style_border_opa:
 2098              	.LVL180:
 2099              	.LFB279:
 380:Lib/lvgl/src/core/lv_obj_style_gen.c **** 
 381:Lib/lvgl/src/core/lv_obj_style_gen.c **** void lv_obj_set_style_border_opa(lv_obj_t * obj, lv_opa_t value, lv_style_selector_t selector)
 382:Lib/lvgl/src/core/lv_obj_style_gen.c **** {
 2100              		.loc 1 382 1 is_stmt 1 view -0
 2101              		.cfi_startproc
 2102              		@ args = 0, pretend = 0, frame = 8
 2103              		@ frame_needed = 0, uses_anonymous_args = 0
 2104              		.loc 1 382 1 is_stmt 0 view .LVU399
 2105 0000 00B5     		push	{lr}
ARM GAS  C:\Users\Alex\AppData\Local\Temp\cc6CnhIe.s 			page 43


 2106              	.LCFI138:
 2107              		.cfi_def_cfa_offset 4
 2108              		.cfi_offset 14, -4
 2109 0002 83B0     		sub	sp, sp, #12
 2110              	.LCFI139:
 2111              		.cfi_def_cfa_offset 16
 2112 0004 1346     		mov	r3, r2
 383:Lib/lvgl/src/core/lv_obj_style_gen.c ****     lv_style_value_t v = {
 2113              		.loc 1 383 5 is_stmt 1 view .LVU400
 2114              		.loc 1 383 22 is_stmt 0 view .LVU401
 2115 0006 0191     		str	r1, [sp, #4]
 384:Lib/lvgl/src/core/lv_obj_style_gen.c ****         .num = (int32_t)value
 385:Lib/lvgl/src/core/lv_obj_style_gen.c ****     };
 386:Lib/lvgl/src/core/lv_obj_style_gen.c ****     lv_obj_set_local_style_prop(obj, LV_STYLE_BORDER_OPA, v, selector);
 2116              		.loc 1 386 5 is_stmt 1 view .LVU402
 2117 0008 0A46     		mov	r2, r1
 2118              	.LVL181:
 2119              		.loc 1 386 5 is_stmt 0 view .LVU403
 2120 000a 3221     		movs	r1, #50
 2121              	.LVL182:
 2122              		.loc 1 386 5 view .LVU404
 2123 000c FFF7FEFF 		bl	lv_obj_set_local_style_prop
 2124              	.LVL183:
 387:Lib/lvgl/src/core/lv_obj_style_gen.c **** }
 2125              		.loc 1 387 1 view .LVU405
 2126 0010 03B0     		add	sp, sp, #12
 2127              	.LCFI140:
 2128              		.cfi_def_cfa_offset 4
 2129              		@ sp needed
 2130 0012 5DF804FB 		ldr	pc, [sp], #4
 2131              		.cfi_endproc
 2132              	.LFE279:
 2134              		.section	.text.lv_obj_set_style_border_width,"ax",%progbits
 2135              		.align	1
 2136              		.global	lv_obj_set_style_border_width
 2137              		.syntax unified
 2138              		.thumb
 2139              		.thumb_func
 2141              	lv_obj_set_style_border_width:
 2142              	.LVL184:
 2143              	.LFB280:
 388:Lib/lvgl/src/core/lv_obj_style_gen.c **** 
 389:Lib/lvgl/src/core/lv_obj_style_gen.c **** void lv_obj_set_style_border_width(lv_obj_t * obj, int32_t value, lv_style_selector_t selector)
 390:Lib/lvgl/src/core/lv_obj_style_gen.c **** {
 2144              		.loc 1 390 1 is_stmt 1 view -0
 2145              		.cfi_startproc
 2146              		@ args = 0, pretend = 0, frame = 8
 2147              		@ frame_needed = 0, uses_anonymous_args = 0
 2148              		.loc 1 390 1 is_stmt 0 view .LVU407
 2149 0000 00B5     		push	{lr}
 2150              	.LCFI141:
 2151              		.cfi_def_cfa_offset 4
 2152              		.cfi_offset 14, -4
 2153 0002 83B0     		sub	sp, sp, #12
 2154              	.LCFI142:
 2155              		.cfi_def_cfa_offset 16
 2156 0004 1346     		mov	r3, r2
ARM GAS  C:\Users\Alex\AppData\Local\Temp\cc6CnhIe.s 			page 44


 391:Lib/lvgl/src/core/lv_obj_style_gen.c ****     lv_style_value_t v = {
 2157              		.loc 1 391 5 is_stmt 1 view .LVU408
 2158              		.loc 1 391 22 is_stmt 0 view .LVU409
 2159 0006 0191     		str	r1, [sp, #4]
 392:Lib/lvgl/src/core/lv_obj_style_gen.c ****         .num = (int32_t)value
 393:Lib/lvgl/src/core/lv_obj_style_gen.c ****     };
 394:Lib/lvgl/src/core/lv_obj_style_gen.c ****     lv_obj_set_local_style_prop(obj, LV_STYLE_BORDER_WIDTH, v, selector);
 2160              		.loc 1 394 5 is_stmt 1 view .LVU410
 2161 0008 0A46     		mov	r2, r1
 2162              	.LVL185:
 2163              		.loc 1 394 5 is_stmt 0 view .LVU411
 2164 000a 3021     		movs	r1, #48
 2165              	.LVL186:
 2166              		.loc 1 394 5 view .LVU412
 2167 000c FFF7FEFF 		bl	lv_obj_set_local_style_prop
 2168              	.LVL187:
 395:Lib/lvgl/src/core/lv_obj_style_gen.c **** }
 2169              		.loc 1 395 1 view .LVU413
 2170 0010 03B0     		add	sp, sp, #12
 2171              	.LCFI143:
 2172              		.cfi_def_cfa_offset 4
 2173              		@ sp needed
 2174 0012 5DF804FB 		ldr	pc, [sp], #4
 2175              		.loc 1 395 1 view .LVU414
 2176              		.cfi_endproc
 2177              	.LFE280:
 2179              		.section	.text.lv_obj_set_style_border_side,"ax",%progbits
 2180              		.align	1
 2181              		.global	lv_obj_set_style_border_side
 2182              		.syntax unified
 2183              		.thumb
 2184              		.thumb_func
 2186              	lv_obj_set_style_border_side:
 2187              	.LVL188:
 2188              	.LFB281:
 396:Lib/lvgl/src/core/lv_obj_style_gen.c **** 
 397:Lib/lvgl/src/core/lv_obj_style_gen.c **** void lv_obj_set_style_border_side(lv_obj_t * obj, lv_border_side_t value, lv_style_selector_t selec
 398:Lib/lvgl/src/core/lv_obj_style_gen.c **** {
 2189              		.loc 1 398 1 is_stmt 1 view -0
 2190              		.cfi_startproc
 2191              		@ args = 0, pretend = 0, frame = 8
 2192              		@ frame_needed = 0, uses_anonymous_args = 0
 2193              		.loc 1 398 1 is_stmt 0 view .LVU416
 2194 0000 00B5     		push	{lr}
 2195              	.LCFI144:
 2196              		.cfi_def_cfa_offset 4
 2197              		.cfi_offset 14, -4
 2198 0002 83B0     		sub	sp, sp, #12
 2199              	.LCFI145:
 2200              		.cfi_def_cfa_offset 16
 2201 0004 1346     		mov	r3, r2
 399:Lib/lvgl/src/core/lv_obj_style_gen.c ****     lv_style_value_t v = {
 2202              		.loc 1 399 5 is_stmt 1 view .LVU417
 2203              		.loc 1 399 22 is_stmt 0 view .LVU418
 2204 0006 0191     		str	r1, [sp, #4]
 400:Lib/lvgl/src/core/lv_obj_style_gen.c ****         .num = (int32_t)value
 401:Lib/lvgl/src/core/lv_obj_style_gen.c ****     };
ARM GAS  C:\Users\Alex\AppData\Local\Temp\cc6CnhIe.s 			page 45


 402:Lib/lvgl/src/core/lv_obj_style_gen.c ****     lv_obj_set_local_style_prop(obj, LV_STYLE_BORDER_SIDE, v, selector);
 2205              		.loc 1 402 5 is_stmt 1 view .LVU419
 2206 0008 0A46     		mov	r2, r1
 2207              	.LVL189:
 2208              		.loc 1 402 5 is_stmt 0 view .LVU420
 2209 000a 3421     		movs	r1, #52
 2210              	.LVL190:
 2211              		.loc 1 402 5 view .LVU421
 2212 000c FFF7FEFF 		bl	lv_obj_set_local_style_prop
 2213              	.LVL191:
 403:Lib/lvgl/src/core/lv_obj_style_gen.c **** }
 2214              		.loc 1 403 1 view .LVU422
 2215 0010 03B0     		add	sp, sp, #12
 2216              	.LCFI146:
 2217              		.cfi_def_cfa_offset 4
 2218              		@ sp needed
 2219 0012 5DF804FB 		ldr	pc, [sp], #4
 2220              		.cfi_endproc
 2221              	.LFE281:
 2223              		.section	.text.lv_obj_set_style_border_post,"ax",%progbits
 2224              		.align	1
 2225              		.global	lv_obj_set_style_border_post
 2226              		.syntax unified
 2227              		.thumb
 2228              		.thumb_func
 2230              	lv_obj_set_style_border_post:
 2231              	.LVL192:
 2232              	.LFB282:
 404:Lib/lvgl/src/core/lv_obj_style_gen.c **** 
 405:Lib/lvgl/src/core/lv_obj_style_gen.c **** void lv_obj_set_style_border_post(lv_obj_t * obj, bool value, lv_style_selector_t selector)
 406:Lib/lvgl/src/core/lv_obj_style_gen.c **** {
 2233              		.loc 1 406 1 is_stmt 1 view -0
 2234              		.cfi_startproc
 2235              		@ args = 0, pretend = 0, frame = 8
 2236              		@ frame_needed = 0, uses_anonymous_args = 0
 2237              		.loc 1 406 1 is_stmt 0 view .LVU424
 2238 0000 00B5     		push	{lr}
 2239              	.LCFI147:
 2240              		.cfi_def_cfa_offset 4
 2241              		.cfi_offset 14, -4
 2242 0002 83B0     		sub	sp, sp, #12
 2243              	.LCFI148:
 2244              		.cfi_def_cfa_offset 16
 2245 0004 1346     		mov	r3, r2
 407:Lib/lvgl/src/core/lv_obj_style_gen.c ****     lv_style_value_t v = {
 2246              		.loc 1 407 5 is_stmt 1 view .LVU425
 2247              		.loc 1 407 22 is_stmt 0 view .LVU426
 2248 0006 0191     		str	r1, [sp, #4]
 408:Lib/lvgl/src/core/lv_obj_style_gen.c ****         .num = (int32_t)value
 409:Lib/lvgl/src/core/lv_obj_style_gen.c ****     };
 410:Lib/lvgl/src/core/lv_obj_style_gen.c ****     lv_obj_set_local_style_prop(obj, LV_STYLE_BORDER_POST, v, selector);
 2249              		.loc 1 410 5 is_stmt 1 view .LVU427
 2250 0008 0A46     		mov	r2, r1
 2251              	.LVL193:
 2252              		.loc 1 410 5 is_stmt 0 view .LVU428
 2253 000a 3521     		movs	r1, #53
 2254              	.LVL194:
ARM GAS  C:\Users\Alex\AppData\Local\Temp\cc6CnhIe.s 			page 46


 2255              		.loc 1 410 5 view .LVU429
 2256 000c FFF7FEFF 		bl	lv_obj_set_local_style_prop
 2257              	.LVL195:
 411:Lib/lvgl/src/core/lv_obj_style_gen.c **** }
 2258              		.loc 1 411 1 view .LVU430
 2259 0010 03B0     		add	sp, sp, #12
 2260              	.LCFI149:
 2261              		.cfi_def_cfa_offset 4
 2262              		@ sp needed
 2263 0012 5DF804FB 		ldr	pc, [sp], #4
 2264              		.cfi_endproc
 2265              	.LFE282:
 2267              		.section	.text.lv_obj_set_style_outline_width,"ax",%progbits
 2268              		.align	1
 2269              		.global	lv_obj_set_style_outline_width
 2270              		.syntax unified
 2271              		.thumb
 2272              		.thumb_func
 2274              	lv_obj_set_style_outline_width:
 2275              	.LVL196:
 2276              	.LFB283:
 412:Lib/lvgl/src/core/lv_obj_style_gen.c **** 
 413:Lib/lvgl/src/core/lv_obj_style_gen.c **** void lv_obj_set_style_outline_width(lv_obj_t * obj, int32_t value, lv_style_selector_t selector)
 414:Lib/lvgl/src/core/lv_obj_style_gen.c **** {
 2277              		.loc 1 414 1 is_stmt 1 view -0
 2278              		.cfi_startproc
 2279              		@ args = 0, pretend = 0, frame = 8
 2280              		@ frame_needed = 0, uses_anonymous_args = 0
 2281              		.loc 1 414 1 is_stmt 0 view .LVU432
 2282 0000 00B5     		push	{lr}
 2283              	.LCFI150:
 2284              		.cfi_def_cfa_offset 4
 2285              		.cfi_offset 14, -4
 2286 0002 83B0     		sub	sp, sp, #12
 2287              	.LCFI151:
 2288              		.cfi_def_cfa_offset 16
 2289 0004 1346     		mov	r3, r2
 415:Lib/lvgl/src/core/lv_obj_style_gen.c ****     lv_style_value_t v = {
 2290              		.loc 1 415 5 is_stmt 1 view .LVU433
 2291              		.loc 1 415 22 is_stmt 0 view .LVU434
 2292 0006 0191     		str	r1, [sp, #4]
 416:Lib/lvgl/src/core/lv_obj_style_gen.c ****         .num = (int32_t)value
 417:Lib/lvgl/src/core/lv_obj_style_gen.c ****     };
 418:Lib/lvgl/src/core/lv_obj_style_gen.c ****     lv_obj_set_local_style_prop(obj, LV_STYLE_OUTLINE_WIDTH, v, selector);
 2293              		.loc 1 418 5 is_stmt 1 view .LVU435
 2294 0008 0A46     		mov	r2, r1
 2295              	.LVL197:
 2296              		.loc 1 418 5 is_stmt 0 view .LVU436
 2297 000a 3821     		movs	r1, #56
 2298              	.LVL198:
 2299              		.loc 1 418 5 view .LVU437
 2300 000c FFF7FEFF 		bl	lv_obj_set_local_style_prop
 2301              	.LVL199:
 419:Lib/lvgl/src/core/lv_obj_style_gen.c **** }
 2302              		.loc 1 419 1 view .LVU438
 2303 0010 03B0     		add	sp, sp, #12
 2304              	.LCFI152:
ARM GAS  C:\Users\Alex\AppData\Local\Temp\cc6CnhIe.s 			page 47


 2305              		.cfi_def_cfa_offset 4
 2306              		@ sp needed
 2307 0012 5DF804FB 		ldr	pc, [sp], #4
 2308              		.loc 1 419 1 view .LVU439
 2309              		.cfi_endproc
 2310              	.LFE283:
 2312              		.section	.text.lv_obj_set_style_outline_color,"ax",%progbits
 2313              		.align	1
 2314              		.global	lv_obj_set_style_outline_color
 2315              		.syntax unified
 2316              		.thumb
 2317              		.thumb_func
 2319              	lv_obj_set_style_outline_color:
 2320              	.LVL200:
 2321              	.LFB284:
 420:Lib/lvgl/src/core/lv_obj_style_gen.c **** 
 421:Lib/lvgl/src/core/lv_obj_style_gen.c **** void lv_obj_set_style_outline_color(lv_obj_t * obj, lv_color_t value, lv_style_selector_t selector)
 422:Lib/lvgl/src/core/lv_obj_style_gen.c **** {
 2322              		.loc 1 422 1 is_stmt 1 view -0
 2323              		.cfi_startproc
 2324              		@ args = 0, pretend = 0, frame = 16
 2325              		@ frame_needed = 0, uses_anonymous_args = 0
 2326              		.loc 1 422 1 is_stmt 0 view .LVU441
 2327 0000 00B5     		push	{lr}
 2328              	.LCFI153:
 2329              		.cfi_def_cfa_offset 4
 2330              		.cfi_offset 14, -4
 2331 0002 85B0     		sub	sp, sp, #20
 2332              	.LCFI154:
 2333              		.cfi_def_cfa_offset 24
 2334 0004 0191     		str	r1, [sp, #4]
 2335 0006 1346     		mov	r3, r2
 423:Lib/lvgl/src/core/lv_obj_style_gen.c ****     lv_style_value_t v = {
 2336              		.loc 1 423 5 is_stmt 1 view .LVU442
 2337              		.loc 1 423 22 is_stmt 0 view .LVU443
 2338 0008 0022     		movs	r2, #0
 2339              	.LVL201:
 2340              		.loc 1 423 22 view .LVU444
 2341 000a 0392     		str	r2, [sp, #12]
 2342 000c ADF80C10 		strh	r1, [sp, #12]	@ movhi
 2343 0010 090C     		lsrs	r1, r1, #16
 2344 0012 8DF80E10 		strb	r1, [sp, #14]
 424:Lib/lvgl/src/core/lv_obj_style_gen.c ****         .color = value
 425:Lib/lvgl/src/core/lv_obj_style_gen.c ****     };
 426:Lib/lvgl/src/core/lv_obj_style_gen.c ****     lv_obj_set_local_style_prop(obj, LV_STYLE_OUTLINE_COLOR, v, selector);
 2345              		.loc 1 426 5 is_stmt 1 view .LVU445
 2346 0016 039A     		ldr	r2, [sp, #12]
 2347 0018 3921     		movs	r1, #57
 2348 001a FFF7FEFF 		bl	lv_obj_set_local_style_prop
 2349              	.LVL202:
 427:Lib/lvgl/src/core/lv_obj_style_gen.c **** }
 2350              		.loc 1 427 1 is_stmt 0 view .LVU446
 2351 001e 05B0     		add	sp, sp, #20
 2352              	.LCFI155:
 2353              		.cfi_def_cfa_offset 4
 2354              		@ sp needed
 2355 0020 5DF804FB 		ldr	pc, [sp], #4
ARM GAS  C:\Users\Alex\AppData\Local\Temp\cc6CnhIe.s 			page 48


 2356              		.cfi_endproc
 2357              	.LFE284:
 2359              		.section	.text.lv_obj_set_style_outline_opa,"ax",%progbits
 2360              		.align	1
 2361              		.global	lv_obj_set_style_outline_opa
 2362              		.syntax unified
 2363              		.thumb
 2364              		.thumb_func
 2366              	lv_obj_set_style_outline_opa:
 2367              	.LVL203:
 2368              	.LFB285:
 428:Lib/lvgl/src/core/lv_obj_style_gen.c **** 
 429:Lib/lvgl/src/core/lv_obj_style_gen.c **** void lv_obj_set_style_outline_opa(lv_obj_t * obj, lv_opa_t value, lv_style_selector_t selector)
 430:Lib/lvgl/src/core/lv_obj_style_gen.c **** {
 2369              		.loc 1 430 1 is_stmt 1 view -0
 2370              		.cfi_startproc
 2371              		@ args = 0, pretend = 0, frame = 8
 2372              		@ frame_needed = 0, uses_anonymous_args = 0
 2373              		.loc 1 430 1 is_stmt 0 view .LVU448
 2374 0000 00B5     		push	{lr}
 2375              	.LCFI156:
 2376              		.cfi_def_cfa_offset 4
 2377              		.cfi_offset 14, -4
 2378 0002 83B0     		sub	sp, sp, #12
 2379              	.LCFI157:
 2380              		.cfi_def_cfa_offset 16
 2381 0004 1346     		mov	r3, r2
 431:Lib/lvgl/src/core/lv_obj_style_gen.c ****     lv_style_value_t v = {
 2382              		.loc 1 431 5 is_stmt 1 view .LVU449
 2383              		.loc 1 431 22 is_stmt 0 view .LVU450
 2384 0006 0191     		str	r1, [sp, #4]
 432:Lib/lvgl/src/core/lv_obj_style_gen.c ****         .num = (int32_t)value
 433:Lib/lvgl/src/core/lv_obj_style_gen.c ****     };
 434:Lib/lvgl/src/core/lv_obj_style_gen.c ****     lv_obj_set_local_style_prop(obj, LV_STYLE_OUTLINE_OPA, v, selector);
 2385              		.loc 1 434 5 is_stmt 1 view .LVU451
 2386 0008 0A46     		mov	r2, r1
 2387              	.LVL204:
 2388              		.loc 1 434 5 is_stmt 0 view .LVU452
 2389 000a 3A21     		movs	r1, #58
 2390              	.LVL205:
 2391              		.loc 1 434 5 view .LVU453
 2392 000c FFF7FEFF 		bl	lv_obj_set_local_style_prop
 2393              	.LVL206:
 435:Lib/lvgl/src/core/lv_obj_style_gen.c **** }
 2394              		.loc 1 435 1 view .LVU454
 2395 0010 03B0     		add	sp, sp, #12
 2396              	.LCFI158:
 2397              		.cfi_def_cfa_offset 4
 2398              		@ sp needed
 2399 0012 5DF804FB 		ldr	pc, [sp], #4
 2400              		.cfi_endproc
 2401              	.LFE285:
 2403              		.section	.text.lv_obj_set_style_outline_pad,"ax",%progbits
 2404              		.align	1
 2405              		.global	lv_obj_set_style_outline_pad
 2406              		.syntax unified
 2407              		.thumb
ARM GAS  C:\Users\Alex\AppData\Local\Temp\cc6CnhIe.s 			page 49


 2408              		.thumb_func
 2410              	lv_obj_set_style_outline_pad:
 2411              	.LVL207:
 2412              	.LFB286:
 436:Lib/lvgl/src/core/lv_obj_style_gen.c **** 
 437:Lib/lvgl/src/core/lv_obj_style_gen.c **** void lv_obj_set_style_outline_pad(lv_obj_t * obj, int32_t value, lv_style_selector_t selector)
 438:Lib/lvgl/src/core/lv_obj_style_gen.c **** {
 2413              		.loc 1 438 1 is_stmt 1 view -0
 2414              		.cfi_startproc
 2415              		@ args = 0, pretend = 0, frame = 8
 2416              		@ frame_needed = 0, uses_anonymous_args = 0
 2417              		.loc 1 438 1 is_stmt 0 view .LVU456
 2418 0000 00B5     		push	{lr}
 2419              	.LCFI159:
 2420              		.cfi_def_cfa_offset 4
 2421              		.cfi_offset 14, -4
 2422 0002 83B0     		sub	sp, sp, #12
 2423              	.LCFI160:
 2424              		.cfi_def_cfa_offset 16
 2425 0004 1346     		mov	r3, r2
 439:Lib/lvgl/src/core/lv_obj_style_gen.c ****     lv_style_value_t v = {
 2426              		.loc 1 439 5 is_stmt 1 view .LVU457
 2427              		.loc 1 439 22 is_stmt 0 view .LVU458
 2428 0006 0191     		str	r1, [sp, #4]
 440:Lib/lvgl/src/core/lv_obj_style_gen.c ****         .num = (int32_t)value
 441:Lib/lvgl/src/core/lv_obj_style_gen.c ****     };
 442:Lib/lvgl/src/core/lv_obj_style_gen.c ****     lv_obj_set_local_style_prop(obj, LV_STYLE_OUTLINE_PAD, v, selector);
 2429              		.loc 1 442 5 is_stmt 1 view .LVU459
 2430 0008 0A46     		mov	r2, r1
 2431              	.LVL208:
 2432              		.loc 1 442 5 is_stmt 0 view .LVU460
 2433 000a 3B21     		movs	r1, #59
 2434              	.LVL209:
 2435              		.loc 1 442 5 view .LVU461
 2436 000c FFF7FEFF 		bl	lv_obj_set_local_style_prop
 2437              	.LVL210:
 443:Lib/lvgl/src/core/lv_obj_style_gen.c **** }
 2438              		.loc 1 443 1 view .LVU462
 2439 0010 03B0     		add	sp, sp, #12
 2440              	.LCFI161:
 2441              		.cfi_def_cfa_offset 4
 2442              		@ sp needed
 2443 0012 5DF804FB 		ldr	pc, [sp], #4
 2444              		.loc 1 443 1 view .LVU463
 2445              		.cfi_endproc
 2446              	.LFE286:
 2448              		.section	.text.lv_obj_set_style_shadow_width,"ax",%progbits
 2449              		.align	1
 2450              		.global	lv_obj_set_style_shadow_width
 2451              		.syntax unified
 2452              		.thumb
 2453              		.thumb_func
 2455              	lv_obj_set_style_shadow_width:
 2456              	.LVL211:
 2457              	.LFB287:
 444:Lib/lvgl/src/core/lv_obj_style_gen.c **** 
 445:Lib/lvgl/src/core/lv_obj_style_gen.c **** void lv_obj_set_style_shadow_width(lv_obj_t * obj, int32_t value, lv_style_selector_t selector)
ARM GAS  C:\Users\Alex\AppData\Local\Temp\cc6CnhIe.s 			page 50


 446:Lib/lvgl/src/core/lv_obj_style_gen.c **** {
 2458              		.loc 1 446 1 is_stmt 1 view -0
 2459              		.cfi_startproc
 2460              		@ args = 0, pretend = 0, frame = 8
 2461              		@ frame_needed = 0, uses_anonymous_args = 0
 2462              		.loc 1 446 1 is_stmt 0 view .LVU465
 2463 0000 00B5     		push	{lr}
 2464              	.LCFI162:
 2465              		.cfi_def_cfa_offset 4
 2466              		.cfi_offset 14, -4
 2467 0002 83B0     		sub	sp, sp, #12
 2468              	.LCFI163:
 2469              		.cfi_def_cfa_offset 16
 2470 0004 1346     		mov	r3, r2
 447:Lib/lvgl/src/core/lv_obj_style_gen.c ****     lv_style_value_t v = {
 2471              		.loc 1 447 5 is_stmt 1 view .LVU466
 2472              		.loc 1 447 22 is_stmt 0 view .LVU467
 2473 0006 0191     		str	r1, [sp, #4]
 448:Lib/lvgl/src/core/lv_obj_style_gen.c ****         .num = (int32_t)value
 449:Lib/lvgl/src/core/lv_obj_style_gen.c ****     };
 450:Lib/lvgl/src/core/lv_obj_style_gen.c ****     lv_obj_set_local_style_prop(obj, LV_STYLE_SHADOW_WIDTH, v, selector);
 2474              		.loc 1 450 5 is_stmt 1 view .LVU468
 2475 0008 0A46     		mov	r2, r1
 2476              	.LVL212:
 2477              		.loc 1 450 5 is_stmt 0 view .LVU469
 2478 000a 3C21     		movs	r1, #60
 2479              	.LVL213:
 2480              		.loc 1 450 5 view .LVU470
 2481 000c FFF7FEFF 		bl	lv_obj_set_local_style_prop
 2482              	.LVL214:
 451:Lib/lvgl/src/core/lv_obj_style_gen.c **** }
 2483              		.loc 1 451 1 view .LVU471
 2484 0010 03B0     		add	sp, sp, #12
 2485              	.LCFI164:
 2486              		.cfi_def_cfa_offset 4
 2487              		@ sp needed
 2488 0012 5DF804FB 		ldr	pc, [sp], #4
 2489              		.loc 1 451 1 view .LVU472
 2490              		.cfi_endproc
 2491              	.LFE287:
 2493              		.section	.text.lv_obj_set_style_shadow_offset_x,"ax",%progbits
 2494              		.align	1
 2495              		.global	lv_obj_set_style_shadow_offset_x
 2496              		.syntax unified
 2497              		.thumb
 2498              		.thumb_func
 2500              	lv_obj_set_style_shadow_offset_x:
 2501              	.LVL215:
 2502              	.LFB288:
 452:Lib/lvgl/src/core/lv_obj_style_gen.c **** 
 453:Lib/lvgl/src/core/lv_obj_style_gen.c **** void lv_obj_set_style_shadow_offset_x(lv_obj_t * obj, int32_t value, lv_style_selector_t selector)
 454:Lib/lvgl/src/core/lv_obj_style_gen.c **** {
 2503              		.loc 1 454 1 is_stmt 1 view -0
 2504              		.cfi_startproc
 2505              		@ args = 0, pretend = 0, frame = 8
 2506              		@ frame_needed = 0, uses_anonymous_args = 0
 2507              		.loc 1 454 1 is_stmt 0 view .LVU474
ARM GAS  C:\Users\Alex\AppData\Local\Temp\cc6CnhIe.s 			page 51


 2508 0000 00B5     		push	{lr}
 2509              	.LCFI165:
 2510              		.cfi_def_cfa_offset 4
 2511              		.cfi_offset 14, -4
 2512 0002 83B0     		sub	sp, sp, #12
 2513              	.LCFI166:
 2514              		.cfi_def_cfa_offset 16
 2515 0004 1346     		mov	r3, r2
 455:Lib/lvgl/src/core/lv_obj_style_gen.c ****     lv_style_value_t v = {
 2516              		.loc 1 455 5 is_stmt 1 view .LVU475
 2517              		.loc 1 455 22 is_stmt 0 view .LVU476
 2518 0006 0191     		str	r1, [sp, #4]
 456:Lib/lvgl/src/core/lv_obj_style_gen.c ****         .num = (int32_t)value
 457:Lib/lvgl/src/core/lv_obj_style_gen.c ****     };
 458:Lib/lvgl/src/core/lv_obj_style_gen.c ****     lv_obj_set_local_style_prop(obj, LV_STYLE_SHADOW_OFFSET_X, v, selector);
 2519              		.loc 1 458 5 is_stmt 1 view .LVU477
 2520 0008 0A46     		mov	r2, r1
 2521              	.LVL216:
 2522              		.loc 1 458 5 is_stmt 0 view .LVU478
 2523 000a 4021     		movs	r1, #64
 2524              	.LVL217:
 2525              		.loc 1 458 5 view .LVU479
 2526 000c FFF7FEFF 		bl	lv_obj_set_local_style_prop
 2527              	.LVL218:
 459:Lib/lvgl/src/core/lv_obj_style_gen.c **** }
 2528              		.loc 1 459 1 view .LVU480
 2529 0010 03B0     		add	sp, sp, #12
 2530              	.LCFI167:
 2531              		.cfi_def_cfa_offset 4
 2532              		@ sp needed
 2533 0012 5DF804FB 		ldr	pc, [sp], #4
 2534              		.loc 1 459 1 view .LVU481
 2535              		.cfi_endproc
 2536              	.LFE288:
 2538              		.section	.text.lv_obj_set_style_shadow_offset_y,"ax",%progbits
 2539              		.align	1
 2540              		.global	lv_obj_set_style_shadow_offset_y
 2541              		.syntax unified
 2542              		.thumb
 2543              		.thumb_func
 2545              	lv_obj_set_style_shadow_offset_y:
 2546              	.LVL219:
 2547              	.LFB289:
 460:Lib/lvgl/src/core/lv_obj_style_gen.c **** 
 461:Lib/lvgl/src/core/lv_obj_style_gen.c **** void lv_obj_set_style_shadow_offset_y(lv_obj_t * obj, int32_t value, lv_style_selector_t selector)
 462:Lib/lvgl/src/core/lv_obj_style_gen.c **** {
 2548              		.loc 1 462 1 is_stmt 1 view -0
 2549              		.cfi_startproc
 2550              		@ args = 0, pretend = 0, frame = 8
 2551              		@ frame_needed = 0, uses_anonymous_args = 0
 2552              		.loc 1 462 1 is_stmt 0 view .LVU483
 2553 0000 00B5     		push	{lr}
 2554              	.LCFI168:
 2555              		.cfi_def_cfa_offset 4
 2556              		.cfi_offset 14, -4
 2557 0002 83B0     		sub	sp, sp, #12
 2558              	.LCFI169:
ARM GAS  C:\Users\Alex\AppData\Local\Temp\cc6CnhIe.s 			page 52


 2559              		.cfi_def_cfa_offset 16
 2560 0004 1346     		mov	r3, r2
 463:Lib/lvgl/src/core/lv_obj_style_gen.c ****     lv_style_value_t v = {
 2561              		.loc 1 463 5 is_stmt 1 view .LVU484
 2562              		.loc 1 463 22 is_stmt 0 view .LVU485
 2563 0006 0191     		str	r1, [sp, #4]
 464:Lib/lvgl/src/core/lv_obj_style_gen.c ****         .num = (int32_t)value
 465:Lib/lvgl/src/core/lv_obj_style_gen.c ****     };
 466:Lib/lvgl/src/core/lv_obj_style_gen.c ****     lv_obj_set_local_style_prop(obj, LV_STYLE_SHADOW_OFFSET_Y, v, selector);
 2564              		.loc 1 466 5 is_stmt 1 view .LVU486
 2565 0008 0A46     		mov	r2, r1
 2566              	.LVL220:
 2567              		.loc 1 466 5 is_stmt 0 view .LVU487
 2568 000a 4121     		movs	r1, #65
 2569              	.LVL221:
 2570              		.loc 1 466 5 view .LVU488
 2571 000c FFF7FEFF 		bl	lv_obj_set_local_style_prop
 2572              	.LVL222:
 467:Lib/lvgl/src/core/lv_obj_style_gen.c **** }
 2573              		.loc 1 467 1 view .LVU489
 2574 0010 03B0     		add	sp, sp, #12
 2575              	.LCFI170:
 2576              		.cfi_def_cfa_offset 4
 2577              		@ sp needed
 2578 0012 5DF804FB 		ldr	pc, [sp], #4
 2579              		.loc 1 467 1 view .LVU490
 2580              		.cfi_endproc
 2581              	.LFE289:
 2583              		.section	.text.lv_obj_set_style_shadow_spread,"ax",%progbits
 2584              		.align	1
 2585              		.global	lv_obj_set_style_shadow_spread
 2586              		.syntax unified
 2587              		.thumb
 2588              		.thumb_func
 2590              	lv_obj_set_style_shadow_spread:
 2591              	.LVL223:
 2592              	.LFB290:
 468:Lib/lvgl/src/core/lv_obj_style_gen.c **** 
 469:Lib/lvgl/src/core/lv_obj_style_gen.c **** void lv_obj_set_style_shadow_spread(lv_obj_t * obj, int32_t value, lv_style_selector_t selector)
 470:Lib/lvgl/src/core/lv_obj_style_gen.c **** {
 2593              		.loc 1 470 1 is_stmt 1 view -0
 2594              		.cfi_startproc
 2595              		@ args = 0, pretend = 0, frame = 8
 2596              		@ frame_needed = 0, uses_anonymous_args = 0
 2597              		.loc 1 470 1 is_stmt 0 view .LVU492
 2598 0000 00B5     		push	{lr}
 2599              	.LCFI171:
 2600              		.cfi_def_cfa_offset 4
 2601              		.cfi_offset 14, -4
 2602 0002 83B0     		sub	sp, sp, #12
 2603              	.LCFI172:
 2604              		.cfi_def_cfa_offset 16
 2605 0004 1346     		mov	r3, r2
 471:Lib/lvgl/src/core/lv_obj_style_gen.c ****     lv_style_value_t v = {
 2606              		.loc 1 471 5 is_stmt 1 view .LVU493
 2607              		.loc 1 471 22 is_stmt 0 view .LVU494
 2608 0006 0191     		str	r1, [sp, #4]
ARM GAS  C:\Users\Alex\AppData\Local\Temp\cc6CnhIe.s 			page 53


 472:Lib/lvgl/src/core/lv_obj_style_gen.c ****         .num = (int32_t)value
 473:Lib/lvgl/src/core/lv_obj_style_gen.c ****     };
 474:Lib/lvgl/src/core/lv_obj_style_gen.c ****     lv_obj_set_local_style_prop(obj, LV_STYLE_SHADOW_SPREAD, v, selector);
 2609              		.loc 1 474 5 is_stmt 1 view .LVU495
 2610 0008 0A46     		mov	r2, r1
 2611              	.LVL224:
 2612              		.loc 1 474 5 is_stmt 0 view .LVU496
 2613 000a 4221     		movs	r1, #66
 2614              	.LVL225:
 2615              		.loc 1 474 5 view .LVU497
 2616 000c FFF7FEFF 		bl	lv_obj_set_local_style_prop
 2617              	.LVL226:
 475:Lib/lvgl/src/core/lv_obj_style_gen.c **** }
 2618              		.loc 1 475 1 view .LVU498
 2619 0010 03B0     		add	sp, sp, #12
 2620              	.LCFI173:
 2621              		.cfi_def_cfa_offset 4
 2622              		@ sp needed
 2623 0012 5DF804FB 		ldr	pc, [sp], #4
 2624              		.loc 1 475 1 view .LVU499
 2625              		.cfi_endproc
 2626              	.LFE290:
 2628              		.section	.text.lv_obj_set_style_shadow_color,"ax",%progbits
 2629              		.align	1
 2630              		.global	lv_obj_set_style_shadow_color
 2631              		.syntax unified
 2632              		.thumb
 2633              		.thumb_func
 2635              	lv_obj_set_style_shadow_color:
 2636              	.LVL227:
 2637              	.LFB291:
 476:Lib/lvgl/src/core/lv_obj_style_gen.c **** 
 477:Lib/lvgl/src/core/lv_obj_style_gen.c **** void lv_obj_set_style_shadow_color(lv_obj_t * obj, lv_color_t value, lv_style_selector_t selector)
 478:Lib/lvgl/src/core/lv_obj_style_gen.c **** {
 2638              		.loc 1 478 1 is_stmt 1 view -0
 2639              		.cfi_startproc
 2640              		@ args = 0, pretend = 0, frame = 16
 2641              		@ frame_needed = 0, uses_anonymous_args = 0
 2642              		.loc 1 478 1 is_stmt 0 view .LVU501
 2643 0000 00B5     		push	{lr}
 2644              	.LCFI174:
 2645              		.cfi_def_cfa_offset 4
 2646              		.cfi_offset 14, -4
 2647 0002 85B0     		sub	sp, sp, #20
 2648              	.LCFI175:
 2649              		.cfi_def_cfa_offset 24
 2650 0004 0191     		str	r1, [sp, #4]
 2651 0006 1346     		mov	r3, r2
 479:Lib/lvgl/src/core/lv_obj_style_gen.c ****     lv_style_value_t v = {
 2652              		.loc 1 479 5 is_stmt 1 view .LVU502
 2653              		.loc 1 479 22 is_stmt 0 view .LVU503
 2654 0008 0022     		movs	r2, #0
 2655              	.LVL228:
 2656              		.loc 1 479 22 view .LVU504
 2657 000a 0392     		str	r2, [sp, #12]
 2658 000c ADF80C10 		strh	r1, [sp, #12]	@ movhi
 2659 0010 090C     		lsrs	r1, r1, #16
ARM GAS  C:\Users\Alex\AppData\Local\Temp\cc6CnhIe.s 			page 54


 2660 0012 8DF80E10 		strb	r1, [sp, #14]
 480:Lib/lvgl/src/core/lv_obj_style_gen.c ****         .color = value
 481:Lib/lvgl/src/core/lv_obj_style_gen.c ****     };
 482:Lib/lvgl/src/core/lv_obj_style_gen.c ****     lv_obj_set_local_style_prop(obj, LV_STYLE_SHADOW_COLOR, v, selector);
 2661              		.loc 1 482 5 is_stmt 1 view .LVU505
 2662 0016 039A     		ldr	r2, [sp, #12]
 2663 0018 3D21     		movs	r1, #61
 2664 001a FFF7FEFF 		bl	lv_obj_set_local_style_prop
 2665              	.LVL229:
 483:Lib/lvgl/src/core/lv_obj_style_gen.c **** }
 2666              		.loc 1 483 1 is_stmt 0 view .LVU506
 2667 001e 05B0     		add	sp, sp, #20
 2668              	.LCFI176:
 2669              		.cfi_def_cfa_offset 4
 2670              		@ sp needed
 2671 0020 5DF804FB 		ldr	pc, [sp], #4
 2672              		.cfi_endproc
 2673              	.LFE291:
 2675              		.section	.text.lv_obj_set_style_shadow_opa,"ax",%progbits
 2676              		.align	1
 2677              		.global	lv_obj_set_style_shadow_opa
 2678              		.syntax unified
 2679              		.thumb
 2680              		.thumb_func
 2682              	lv_obj_set_style_shadow_opa:
 2683              	.LVL230:
 2684              	.LFB292:
 484:Lib/lvgl/src/core/lv_obj_style_gen.c **** 
 485:Lib/lvgl/src/core/lv_obj_style_gen.c **** void lv_obj_set_style_shadow_opa(lv_obj_t * obj, lv_opa_t value, lv_style_selector_t selector)
 486:Lib/lvgl/src/core/lv_obj_style_gen.c **** {
 2685              		.loc 1 486 1 is_stmt 1 view -0
 2686              		.cfi_startproc
 2687              		@ args = 0, pretend = 0, frame = 8
 2688              		@ frame_needed = 0, uses_anonymous_args = 0
 2689              		.loc 1 486 1 is_stmt 0 view .LVU508
 2690 0000 00B5     		push	{lr}
 2691              	.LCFI177:
 2692              		.cfi_def_cfa_offset 4
 2693              		.cfi_offset 14, -4
 2694 0002 83B0     		sub	sp, sp, #12
 2695              	.LCFI178:
 2696              		.cfi_def_cfa_offset 16
 2697 0004 1346     		mov	r3, r2
 487:Lib/lvgl/src/core/lv_obj_style_gen.c ****     lv_style_value_t v = {
 2698              		.loc 1 487 5 is_stmt 1 view .LVU509
 2699              		.loc 1 487 22 is_stmt 0 view .LVU510
 2700 0006 0191     		str	r1, [sp, #4]
 488:Lib/lvgl/src/core/lv_obj_style_gen.c ****         .num = (int32_t)value
 489:Lib/lvgl/src/core/lv_obj_style_gen.c ****     };
 490:Lib/lvgl/src/core/lv_obj_style_gen.c ****     lv_obj_set_local_style_prop(obj, LV_STYLE_SHADOW_OPA, v, selector);
 2701              		.loc 1 490 5 is_stmt 1 view .LVU511
 2702 0008 0A46     		mov	r2, r1
 2703              	.LVL231:
 2704              		.loc 1 490 5 is_stmt 0 view .LVU512
 2705 000a 3E21     		movs	r1, #62
 2706              	.LVL232:
 2707              		.loc 1 490 5 view .LVU513
ARM GAS  C:\Users\Alex\AppData\Local\Temp\cc6CnhIe.s 			page 55


 2708 000c FFF7FEFF 		bl	lv_obj_set_local_style_prop
 2709              	.LVL233:
 491:Lib/lvgl/src/core/lv_obj_style_gen.c **** }
 2710              		.loc 1 491 1 view .LVU514
 2711 0010 03B0     		add	sp, sp, #12
 2712              	.LCFI179:
 2713              		.cfi_def_cfa_offset 4
 2714              		@ sp needed
 2715 0012 5DF804FB 		ldr	pc, [sp], #4
 2716              		.cfi_endproc
 2717              	.LFE292:
 2719              		.section	.text.lv_obj_set_style_image_opa,"ax",%progbits
 2720              		.align	1
 2721              		.global	lv_obj_set_style_image_opa
 2722              		.syntax unified
 2723              		.thumb
 2724              		.thumb_func
 2726              	lv_obj_set_style_image_opa:
 2727              	.LVL234:
 2728              	.LFB293:
 492:Lib/lvgl/src/core/lv_obj_style_gen.c **** 
 493:Lib/lvgl/src/core/lv_obj_style_gen.c **** void lv_obj_set_style_image_opa(lv_obj_t * obj, lv_opa_t value, lv_style_selector_t selector)
 494:Lib/lvgl/src/core/lv_obj_style_gen.c **** {
 2729              		.loc 1 494 1 is_stmt 1 view -0
 2730              		.cfi_startproc
 2731              		@ args = 0, pretend = 0, frame = 8
 2732              		@ frame_needed = 0, uses_anonymous_args = 0
 2733              		.loc 1 494 1 is_stmt 0 view .LVU516
 2734 0000 00B5     		push	{lr}
 2735              	.LCFI180:
 2736              		.cfi_def_cfa_offset 4
 2737              		.cfi_offset 14, -4
 2738 0002 83B0     		sub	sp, sp, #12
 2739              	.LCFI181:
 2740              		.cfi_def_cfa_offset 16
 2741 0004 1346     		mov	r3, r2
 495:Lib/lvgl/src/core/lv_obj_style_gen.c ****     lv_style_value_t v = {
 2742              		.loc 1 495 5 is_stmt 1 view .LVU517
 2743              		.loc 1 495 22 is_stmt 0 view .LVU518
 2744 0006 0191     		str	r1, [sp, #4]
 496:Lib/lvgl/src/core/lv_obj_style_gen.c ****         .num = (int32_t)value
 497:Lib/lvgl/src/core/lv_obj_style_gen.c ****     };
 498:Lib/lvgl/src/core/lv_obj_style_gen.c ****     lv_obj_set_local_style_prop(obj, LV_STYLE_IMAGE_OPA, v, selector);
 2745              		.loc 1 498 5 is_stmt 1 view .LVU519
 2746 0008 0A46     		mov	r2, r1
 2747              	.LVL235:
 2748              		.loc 1 498 5 is_stmt 0 view .LVU520
 2749 000a 4421     		movs	r1, #68
 2750              	.LVL236:
 2751              		.loc 1 498 5 view .LVU521
 2752 000c FFF7FEFF 		bl	lv_obj_set_local_style_prop
 2753              	.LVL237:
 499:Lib/lvgl/src/core/lv_obj_style_gen.c **** }
 2754              		.loc 1 499 1 view .LVU522
 2755 0010 03B0     		add	sp, sp, #12
 2756              	.LCFI182:
 2757              		.cfi_def_cfa_offset 4
ARM GAS  C:\Users\Alex\AppData\Local\Temp\cc6CnhIe.s 			page 56


 2758              		@ sp needed
 2759 0012 5DF804FB 		ldr	pc, [sp], #4
 2760              		.cfi_endproc
 2761              	.LFE293:
 2763              		.section	.text.lv_obj_set_style_image_recolor,"ax",%progbits
 2764              		.align	1
 2765              		.global	lv_obj_set_style_image_recolor
 2766              		.syntax unified
 2767              		.thumb
 2768              		.thumb_func
 2770              	lv_obj_set_style_image_recolor:
 2771              	.LVL238:
 2772              	.LFB294:
 500:Lib/lvgl/src/core/lv_obj_style_gen.c **** 
 501:Lib/lvgl/src/core/lv_obj_style_gen.c **** void lv_obj_set_style_image_recolor(lv_obj_t * obj, lv_color_t value, lv_style_selector_t selector)
 502:Lib/lvgl/src/core/lv_obj_style_gen.c **** {
 2773              		.loc 1 502 1 is_stmt 1 view -0
 2774              		.cfi_startproc
 2775              		@ args = 0, pretend = 0, frame = 16
 2776              		@ frame_needed = 0, uses_anonymous_args = 0
 2777              		.loc 1 502 1 is_stmt 0 view .LVU524
 2778 0000 00B5     		push	{lr}
 2779              	.LCFI183:
 2780              		.cfi_def_cfa_offset 4
 2781              		.cfi_offset 14, -4
 2782 0002 85B0     		sub	sp, sp, #20
 2783              	.LCFI184:
 2784              		.cfi_def_cfa_offset 24
 2785 0004 0191     		str	r1, [sp, #4]
 2786 0006 1346     		mov	r3, r2
 503:Lib/lvgl/src/core/lv_obj_style_gen.c ****     lv_style_value_t v = {
 2787              		.loc 1 503 5 is_stmt 1 view .LVU525
 2788              		.loc 1 503 22 is_stmt 0 view .LVU526
 2789 0008 0022     		movs	r2, #0
 2790              	.LVL239:
 2791              		.loc 1 503 22 view .LVU527
 2792 000a 0392     		str	r2, [sp, #12]
 2793 000c ADF80C10 		strh	r1, [sp, #12]	@ movhi
 2794 0010 090C     		lsrs	r1, r1, #16
 2795 0012 8DF80E10 		strb	r1, [sp, #14]
 504:Lib/lvgl/src/core/lv_obj_style_gen.c ****         .color = value
 505:Lib/lvgl/src/core/lv_obj_style_gen.c ****     };
 506:Lib/lvgl/src/core/lv_obj_style_gen.c ****     lv_obj_set_local_style_prop(obj, LV_STYLE_IMAGE_RECOLOR, v, selector);
 2796              		.loc 1 506 5 is_stmt 1 view .LVU528
 2797 0016 039A     		ldr	r2, [sp, #12]
 2798 0018 4521     		movs	r1, #69
 2799 001a FFF7FEFF 		bl	lv_obj_set_local_style_prop
 2800              	.LVL240:
 507:Lib/lvgl/src/core/lv_obj_style_gen.c **** }
 2801              		.loc 1 507 1 is_stmt 0 view .LVU529
 2802 001e 05B0     		add	sp, sp, #20
 2803              	.LCFI185:
 2804              		.cfi_def_cfa_offset 4
 2805              		@ sp needed
 2806 0020 5DF804FB 		ldr	pc, [sp], #4
 2807              		.cfi_endproc
 2808              	.LFE294:
ARM GAS  C:\Users\Alex\AppData\Local\Temp\cc6CnhIe.s 			page 57


 2810              		.section	.text.lv_obj_set_style_image_recolor_opa,"ax",%progbits
 2811              		.align	1
 2812              		.global	lv_obj_set_style_image_recolor_opa
 2813              		.syntax unified
 2814              		.thumb
 2815              		.thumb_func
 2817              	lv_obj_set_style_image_recolor_opa:
 2818              	.LVL241:
 2819              	.LFB295:
 508:Lib/lvgl/src/core/lv_obj_style_gen.c **** 
 509:Lib/lvgl/src/core/lv_obj_style_gen.c **** void lv_obj_set_style_image_recolor_opa(lv_obj_t * obj, lv_opa_t value, lv_style_selector_t selecto
 510:Lib/lvgl/src/core/lv_obj_style_gen.c **** {
 2820              		.loc 1 510 1 is_stmt 1 view -0
 2821              		.cfi_startproc
 2822              		@ args = 0, pretend = 0, frame = 8
 2823              		@ frame_needed = 0, uses_anonymous_args = 0
 2824              		.loc 1 510 1 is_stmt 0 view .LVU531
 2825 0000 00B5     		push	{lr}
 2826              	.LCFI186:
 2827              		.cfi_def_cfa_offset 4
 2828              		.cfi_offset 14, -4
 2829 0002 83B0     		sub	sp, sp, #12
 2830              	.LCFI187:
 2831              		.cfi_def_cfa_offset 16
 2832 0004 1346     		mov	r3, r2
 511:Lib/lvgl/src/core/lv_obj_style_gen.c ****     lv_style_value_t v = {
 2833              		.loc 1 511 5 is_stmt 1 view .LVU532
 2834              		.loc 1 511 22 is_stmt 0 view .LVU533
 2835 0006 0191     		str	r1, [sp, #4]
 512:Lib/lvgl/src/core/lv_obj_style_gen.c ****         .num = (int32_t)value
 513:Lib/lvgl/src/core/lv_obj_style_gen.c ****     };
 514:Lib/lvgl/src/core/lv_obj_style_gen.c ****     lv_obj_set_local_style_prop(obj, LV_STYLE_IMAGE_RECOLOR_OPA, v, selector);
 2836              		.loc 1 514 5 is_stmt 1 view .LVU534
 2837 0008 0A46     		mov	r2, r1
 2838              	.LVL242:
 2839              		.loc 1 514 5 is_stmt 0 view .LVU535
 2840 000a 4621     		movs	r1, #70
 2841              	.LVL243:
 2842              		.loc 1 514 5 view .LVU536
 2843 000c FFF7FEFF 		bl	lv_obj_set_local_style_prop
 2844              	.LVL244:
 515:Lib/lvgl/src/core/lv_obj_style_gen.c **** }
 2845              		.loc 1 515 1 view .LVU537
 2846 0010 03B0     		add	sp, sp, #12
 2847              	.LCFI188:
 2848              		.cfi_def_cfa_offset 4
 2849              		@ sp needed
 2850 0012 5DF804FB 		ldr	pc, [sp], #4
 2851              		.cfi_endproc
 2852              	.LFE295:
 2854              		.section	.text.lv_obj_set_style_line_width,"ax",%progbits
 2855              		.align	1
 2856              		.global	lv_obj_set_style_line_width
 2857              		.syntax unified
 2858              		.thumb
 2859              		.thumb_func
 2861              	lv_obj_set_style_line_width:
ARM GAS  C:\Users\Alex\AppData\Local\Temp\cc6CnhIe.s 			page 58


 2862              	.LVL245:
 2863              	.LFB296:
 516:Lib/lvgl/src/core/lv_obj_style_gen.c **** 
 517:Lib/lvgl/src/core/lv_obj_style_gen.c **** void lv_obj_set_style_line_width(lv_obj_t * obj, int32_t value, lv_style_selector_t selector)
 518:Lib/lvgl/src/core/lv_obj_style_gen.c **** {
 2864              		.loc 1 518 1 is_stmt 1 view -0
 2865              		.cfi_startproc
 2866              		@ args = 0, pretend = 0, frame = 8
 2867              		@ frame_needed = 0, uses_anonymous_args = 0
 2868              		.loc 1 518 1 is_stmt 0 view .LVU539
 2869 0000 00B5     		push	{lr}
 2870              	.LCFI189:
 2871              		.cfi_def_cfa_offset 4
 2872              		.cfi_offset 14, -4
 2873 0002 83B0     		sub	sp, sp, #12
 2874              	.LCFI190:
 2875              		.cfi_def_cfa_offset 16
 2876 0004 1346     		mov	r3, r2
 519:Lib/lvgl/src/core/lv_obj_style_gen.c ****     lv_style_value_t v = {
 2877              		.loc 1 519 5 is_stmt 1 view .LVU540
 2878              		.loc 1 519 22 is_stmt 0 view .LVU541
 2879 0006 0191     		str	r1, [sp, #4]
 520:Lib/lvgl/src/core/lv_obj_style_gen.c ****         .num = (int32_t)value
 521:Lib/lvgl/src/core/lv_obj_style_gen.c ****     };
 522:Lib/lvgl/src/core/lv_obj_style_gen.c ****     lv_obj_set_local_style_prop(obj, LV_STYLE_LINE_WIDTH, v, selector);
 2880              		.loc 1 522 5 is_stmt 1 view .LVU542
 2881 0008 0A46     		mov	r2, r1
 2882              	.LVL246:
 2883              		.loc 1 522 5 is_stmt 0 view .LVU543
 2884 000a 4821     		movs	r1, #72
 2885              	.LVL247:
 2886              		.loc 1 522 5 view .LVU544
 2887 000c FFF7FEFF 		bl	lv_obj_set_local_style_prop
 2888              	.LVL248:
 523:Lib/lvgl/src/core/lv_obj_style_gen.c **** }
 2889              		.loc 1 523 1 view .LVU545
 2890 0010 03B0     		add	sp, sp, #12
 2891              	.LCFI191:
 2892              		.cfi_def_cfa_offset 4
 2893              		@ sp needed
 2894 0012 5DF804FB 		ldr	pc, [sp], #4
 2895              		.loc 1 523 1 view .LVU546
 2896              		.cfi_endproc
 2897              	.LFE296:
 2899              		.section	.text.lv_obj_set_style_line_dash_width,"ax",%progbits
 2900              		.align	1
 2901              		.global	lv_obj_set_style_line_dash_width
 2902              		.syntax unified
 2903              		.thumb
 2904              		.thumb_func
 2906              	lv_obj_set_style_line_dash_width:
 2907              	.LVL249:
 2908              	.LFB297:
 524:Lib/lvgl/src/core/lv_obj_style_gen.c **** 
 525:Lib/lvgl/src/core/lv_obj_style_gen.c **** void lv_obj_set_style_line_dash_width(lv_obj_t * obj, int32_t value, lv_style_selector_t selector)
 526:Lib/lvgl/src/core/lv_obj_style_gen.c **** {
 2909              		.loc 1 526 1 is_stmt 1 view -0
ARM GAS  C:\Users\Alex\AppData\Local\Temp\cc6CnhIe.s 			page 59


 2910              		.cfi_startproc
 2911              		@ args = 0, pretend = 0, frame = 8
 2912              		@ frame_needed = 0, uses_anonymous_args = 0
 2913              		.loc 1 526 1 is_stmt 0 view .LVU548
 2914 0000 00B5     		push	{lr}
 2915              	.LCFI192:
 2916              		.cfi_def_cfa_offset 4
 2917              		.cfi_offset 14, -4
 2918 0002 83B0     		sub	sp, sp, #12
 2919              	.LCFI193:
 2920              		.cfi_def_cfa_offset 16
 2921 0004 1346     		mov	r3, r2
 527:Lib/lvgl/src/core/lv_obj_style_gen.c ****     lv_style_value_t v = {
 2922              		.loc 1 527 5 is_stmt 1 view .LVU549
 2923              		.loc 1 527 22 is_stmt 0 view .LVU550
 2924 0006 0191     		str	r1, [sp, #4]
 528:Lib/lvgl/src/core/lv_obj_style_gen.c ****         .num = (int32_t)value
 529:Lib/lvgl/src/core/lv_obj_style_gen.c ****     };
 530:Lib/lvgl/src/core/lv_obj_style_gen.c ****     lv_obj_set_local_style_prop(obj, LV_STYLE_LINE_DASH_WIDTH, v, selector);
 2925              		.loc 1 530 5 is_stmt 1 view .LVU551
 2926 0008 0A46     		mov	r2, r1
 2927              	.LVL250:
 2928              		.loc 1 530 5 is_stmt 0 view .LVU552
 2929 000a 4921     		movs	r1, #73
 2930              	.LVL251:
 2931              		.loc 1 530 5 view .LVU553
 2932 000c FFF7FEFF 		bl	lv_obj_set_local_style_prop
 2933              	.LVL252:
 531:Lib/lvgl/src/core/lv_obj_style_gen.c **** }
 2934              		.loc 1 531 1 view .LVU554
 2935 0010 03B0     		add	sp, sp, #12
 2936              	.LCFI194:
 2937              		.cfi_def_cfa_offset 4
 2938              		@ sp needed
 2939 0012 5DF804FB 		ldr	pc, [sp], #4
 2940              		.loc 1 531 1 view .LVU555
 2941              		.cfi_endproc
 2942              	.LFE297:
 2944              		.section	.text.lv_obj_set_style_line_dash_gap,"ax",%progbits
 2945              		.align	1
 2946              		.global	lv_obj_set_style_line_dash_gap
 2947              		.syntax unified
 2948              		.thumb
 2949              		.thumb_func
 2951              	lv_obj_set_style_line_dash_gap:
 2952              	.LVL253:
 2953              	.LFB298:
 532:Lib/lvgl/src/core/lv_obj_style_gen.c **** 
 533:Lib/lvgl/src/core/lv_obj_style_gen.c **** void lv_obj_set_style_line_dash_gap(lv_obj_t * obj, int32_t value, lv_style_selector_t selector)
 534:Lib/lvgl/src/core/lv_obj_style_gen.c **** {
 2954              		.loc 1 534 1 is_stmt 1 view -0
 2955              		.cfi_startproc
 2956              		@ args = 0, pretend = 0, frame = 8
 2957              		@ frame_needed = 0, uses_anonymous_args = 0
 2958              		.loc 1 534 1 is_stmt 0 view .LVU557
 2959 0000 00B5     		push	{lr}
 2960              	.LCFI195:
ARM GAS  C:\Users\Alex\AppData\Local\Temp\cc6CnhIe.s 			page 60


 2961              		.cfi_def_cfa_offset 4
 2962              		.cfi_offset 14, -4
 2963 0002 83B0     		sub	sp, sp, #12
 2964              	.LCFI196:
 2965              		.cfi_def_cfa_offset 16
 2966 0004 1346     		mov	r3, r2
 535:Lib/lvgl/src/core/lv_obj_style_gen.c ****     lv_style_value_t v = {
 2967              		.loc 1 535 5 is_stmt 1 view .LVU558
 2968              		.loc 1 535 22 is_stmt 0 view .LVU559
 2969 0006 0191     		str	r1, [sp, #4]
 536:Lib/lvgl/src/core/lv_obj_style_gen.c ****         .num = (int32_t)value
 537:Lib/lvgl/src/core/lv_obj_style_gen.c ****     };
 538:Lib/lvgl/src/core/lv_obj_style_gen.c ****     lv_obj_set_local_style_prop(obj, LV_STYLE_LINE_DASH_GAP, v, selector);
 2970              		.loc 1 538 5 is_stmt 1 view .LVU560
 2971 0008 0A46     		mov	r2, r1
 2972              	.LVL254:
 2973              		.loc 1 538 5 is_stmt 0 view .LVU561
 2974 000a 4A21     		movs	r1, #74
 2975              	.LVL255:
 2976              		.loc 1 538 5 view .LVU562
 2977 000c FFF7FEFF 		bl	lv_obj_set_local_style_prop
 2978              	.LVL256:
 539:Lib/lvgl/src/core/lv_obj_style_gen.c **** }
 2979              		.loc 1 539 1 view .LVU563
 2980 0010 03B0     		add	sp, sp, #12
 2981              	.LCFI197:
 2982              		.cfi_def_cfa_offset 4
 2983              		@ sp needed
 2984 0012 5DF804FB 		ldr	pc, [sp], #4
 2985              		.loc 1 539 1 view .LVU564
 2986              		.cfi_endproc
 2987              	.LFE298:
 2989              		.section	.text.lv_obj_set_style_line_rounded,"ax",%progbits
 2990              		.align	1
 2991              		.global	lv_obj_set_style_line_rounded
 2992              		.syntax unified
 2993              		.thumb
 2994              		.thumb_func
 2996              	lv_obj_set_style_line_rounded:
 2997              	.LVL257:
 2998              	.LFB299:
 540:Lib/lvgl/src/core/lv_obj_style_gen.c **** 
 541:Lib/lvgl/src/core/lv_obj_style_gen.c **** void lv_obj_set_style_line_rounded(lv_obj_t * obj, bool value, lv_style_selector_t selector)
 542:Lib/lvgl/src/core/lv_obj_style_gen.c **** {
 2999              		.loc 1 542 1 is_stmt 1 view -0
 3000              		.cfi_startproc
 3001              		@ args = 0, pretend = 0, frame = 8
 3002              		@ frame_needed = 0, uses_anonymous_args = 0
 3003              		.loc 1 542 1 is_stmt 0 view .LVU566
 3004 0000 00B5     		push	{lr}
 3005              	.LCFI198:
 3006              		.cfi_def_cfa_offset 4
 3007              		.cfi_offset 14, -4
 3008 0002 83B0     		sub	sp, sp, #12
 3009              	.LCFI199:
 3010              		.cfi_def_cfa_offset 16
 3011 0004 1346     		mov	r3, r2
ARM GAS  C:\Users\Alex\AppData\Local\Temp\cc6CnhIe.s 			page 61


 543:Lib/lvgl/src/core/lv_obj_style_gen.c ****     lv_style_value_t v = {
 3012              		.loc 1 543 5 is_stmt 1 view .LVU567
 3013              		.loc 1 543 22 is_stmt 0 view .LVU568
 3014 0006 0191     		str	r1, [sp, #4]
 544:Lib/lvgl/src/core/lv_obj_style_gen.c ****         .num = (int32_t)value
 545:Lib/lvgl/src/core/lv_obj_style_gen.c ****     };
 546:Lib/lvgl/src/core/lv_obj_style_gen.c ****     lv_obj_set_local_style_prop(obj, LV_STYLE_LINE_ROUNDED, v, selector);
 3015              		.loc 1 546 5 is_stmt 1 view .LVU569
 3016 0008 0A46     		mov	r2, r1
 3017              	.LVL258:
 3018              		.loc 1 546 5 is_stmt 0 view .LVU570
 3019 000a 4B21     		movs	r1, #75
 3020              	.LVL259:
 3021              		.loc 1 546 5 view .LVU571
 3022 000c FFF7FEFF 		bl	lv_obj_set_local_style_prop
 3023              	.LVL260:
 547:Lib/lvgl/src/core/lv_obj_style_gen.c **** }
 3024              		.loc 1 547 1 view .LVU572
 3025 0010 03B0     		add	sp, sp, #12
 3026              	.LCFI200:
 3027              		.cfi_def_cfa_offset 4
 3028              		@ sp needed
 3029 0012 5DF804FB 		ldr	pc, [sp], #4
 3030              		.cfi_endproc
 3031              	.LFE299:
 3033              		.section	.text.lv_obj_set_style_line_color,"ax",%progbits
 3034              		.align	1
 3035              		.global	lv_obj_set_style_line_color
 3036              		.syntax unified
 3037              		.thumb
 3038              		.thumb_func
 3040              	lv_obj_set_style_line_color:
 3041              	.LVL261:
 3042              	.LFB300:
 548:Lib/lvgl/src/core/lv_obj_style_gen.c **** 
 549:Lib/lvgl/src/core/lv_obj_style_gen.c **** void lv_obj_set_style_line_color(lv_obj_t * obj, lv_color_t value, lv_style_selector_t selector)
 550:Lib/lvgl/src/core/lv_obj_style_gen.c **** {
 3043              		.loc 1 550 1 is_stmt 1 view -0
 3044              		.cfi_startproc
 3045              		@ args = 0, pretend = 0, frame = 16
 3046              		@ frame_needed = 0, uses_anonymous_args = 0
 3047              		.loc 1 550 1 is_stmt 0 view .LVU574
 3048 0000 00B5     		push	{lr}
 3049              	.LCFI201:
 3050              		.cfi_def_cfa_offset 4
 3051              		.cfi_offset 14, -4
 3052 0002 85B0     		sub	sp, sp, #20
 3053              	.LCFI202:
 3054              		.cfi_def_cfa_offset 24
 3055 0004 0191     		str	r1, [sp, #4]
 3056 0006 1346     		mov	r3, r2
 551:Lib/lvgl/src/core/lv_obj_style_gen.c ****     lv_style_value_t v = {
 3057              		.loc 1 551 5 is_stmt 1 view .LVU575
 3058              		.loc 1 551 22 is_stmt 0 view .LVU576
 3059 0008 0022     		movs	r2, #0
 3060              	.LVL262:
 3061              		.loc 1 551 22 view .LVU577
ARM GAS  C:\Users\Alex\AppData\Local\Temp\cc6CnhIe.s 			page 62


 3062 000a 0392     		str	r2, [sp, #12]
 3063 000c ADF80C10 		strh	r1, [sp, #12]	@ movhi
 3064 0010 090C     		lsrs	r1, r1, #16
 3065 0012 8DF80E10 		strb	r1, [sp, #14]
 552:Lib/lvgl/src/core/lv_obj_style_gen.c ****         .color = value
 553:Lib/lvgl/src/core/lv_obj_style_gen.c ****     };
 554:Lib/lvgl/src/core/lv_obj_style_gen.c ****     lv_obj_set_local_style_prop(obj, LV_STYLE_LINE_COLOR, v, selector);
 3066              		.loc 1 554 5 is_stmt 1 view .LVU578
 3067 0016 039A     		ldr	r2, [sp, #12]
 3068 0018 4C21     		movs	r1, #76
 3069 001a FFF7FEFF 		bl	lv_obj_set_local_style_prop
 3070              	.LVL263:
 555:Lib/lvgl/src/core/lv_obj_style_gen.c **** }
 3071              		.loc 1 555 1 is_stmt 0 view .LVU579
 3072 001e 05B0     		add	sp, sp, #20
 3073              	.LCFI203:
 3074              		.cfi_def_cfa_offset 4
 3075              		@ sp needed
 3076 0020 5DF804FB 		ldr	pc, [sp], #4
 3077              		.cfi_endproc
 3078              	.LFE300:
 3080              		.section	.text.lv_obj_set_style_line_opa,"ax",%progbits
 3081              		.align	1
 3082              		.global	lv_obj_set_style_line_opa
 3083              		.syntax unified
 3084              		.thumb
 3085              		.thumb_func
 3087              	lv_obj_set_style_line_opa:
 3088              	.LVL264:
 3089              	.LFB301:
 556:Lib/lvgl/src/core/lv_obj_style_gen.c **** 
 557:Lib/lvgl/src/core/lv_obj_style_gen.c **** void lv_obj_set_style_line_opa(lv_obj_t * obj, lv_opa_t value, lv_style_selector_t selector)
 558:Lib/lvgl/src/core/lv_obj_style_gen.c **** {
 3090              		.loc 1 558 1 is_stmt 1 view -0
 3091              		.cfi_startproc
 3092              		@ args = 0, pretend = 0, frame = 8
 3093              		@ frame_needed = 0, uses_anonymous_args = 0
 3094              		.loc 1 558 1 is_stmt 0 view .LVU581
 3095 0000 00B5     		push	{lr}
 3096              	.LCFI204:
 3097              		.cfi_def_cfa_offset 4
 3098              		.cfi_offset 14, -4
 3099 0002 83B0     		sub	sp, sp, #12
 3100              	.LCFI205:
 3101              		.cfi_def_cfa_offset 16
 3102 0004 1346     		mov	r3, r2
 559:Lib/lvgl/src/core/lv_obj_style_gen.c ****     lv_style_value_t v = {
 3103              		.loc 1 559 5 is_stmt 1 view .LVU582
 3104              		.loc 1 559 22 is_stmt 0 view .LVU583
 3105 0006 0191     		str	r1, [sp, #4]
 560:Lib/lvgl/src/core/lv_obj_style_gen.c ****         .num = (int32_t)value
 561:Lib/lvgl/src/core/lv_obj_style_gen.c ****     };
 562:Lib/lvgl/src/core/lv_obj_style_gen.c ****     lv_obj_set_local_style_prop(obj, LV_STYLE_LINE_OPA, v, selector);
 3106              		.loc 1 562 5 is_stmt 1 view .LVU584
 3107 0008 0A46     		mov	r2, r1
 3108              	.LVL265:
 3109              		.loc 1 562 5 is_stmt 0 view .LVU585
ARM GAS  C:\Users\Alex\AppData\Local\Temp\cc6CnhIe.s 			page 63


 3110 000a 4D21     		movs	r1, #77
 3111              	.LVL266:
 3112              		.loc 1 562 5 view .LVU586
 3113 000c FFF7FEFF 		bl	lv_obj_set_local_style_prop
 3114              	.LVL267:
 563:Lib/lvgl/src/core/lv_obj_style_gen.c **** }
 3115              		.loc 1 563 1 view .LVU587
 3116 0010 03B0     		add	sp, sp, #12
 3117              	.LCFI206:
 3118              		.cfi_def_cfa_offset 4
 3119              		@ sp needed
 3120 0012 5DF804FB 		ldr	pc, [sp], #4
 3121              		.cfi_endproc
 3122              	.LFE301:
 3124              		.section	.text.lv_obj_set_style_arc_width,"ax",%progbits
 3125              		.align	1
 3126              		.global	lv_obj_set_style_arc_width
 3127              		.syntax unified
 3128              		.thumb
 3129              		.thumb_func
 3131              	lv_obj_set_style_arc_width:
 3132              	.LVL268:
 3133              	.LFB302:
 564:Lib/lvgl/src/core/lv_obj_style_gen.c **** 
 565:Lib/lvgl/src/core/lv_obj_style_gen.c **** void lv_obj_set_style_arc_width(lv_obj_t * obj, int32_t value, lv_style_selector_t selector)
 566:Lib/lvgl/src/core/lv_obj_style_gen.c **** {
 3134              		.loc 1 566 1 is_stmt 1 view -0
 3135              		.cfi_startproc
 3136              		@ args = 0, pretend = 0, frame = 8
 3137              		@ frame_needed = 0, uses_anonymous_args = 0
 3138              		.loc 1 566 1 is_stmt 0 view .LVU589
 3139 0000 00B5     		push	{lr}
 3140              	.LCFI207:
 3141              		.cfi_def_cfa_offset 4
 3142              		.cfi_offset 14, -4
 3143 0002 83B0     		sub	sp, sp, #12
 3144              	.LCFI208:
 3145              		.cfi_def_cfa_offset 16
 3146 0004 1346     		mov	r3, r2
 567:Lib/lvgl/src/core/lv_obj_style_gen.c ****     lv_style_value_t v = {
 3147              		.loc 1 567 5 is_stmt 1 view .LVU590
 3148              		.loc 1 567 22 is_stmt 0 view .LVU591
 3149 0006 0191     		str	r1, [sp, #4]
 568:Lib/lvgl/src/core/lv_obj_style_gen.c ****         .num = (int32_t)value
 569:Lib/lvgl/src/core/lv_obj_style_gen.c ****     };
 570:Lib/lvgl/src/core/lv_obj_style_gen.c ****     lv_obj_set_local_style_prop(obj, LV_STYLE_ARC_WIDTH, v, selector);
 3150              		.loc 1 570 5 is_stmt 1 view .LVU592
 3151 0008 0A46     		mov	r2, r1
 3152              	.LVL269:
 3153              		.loc 1 570 5 is_stmt 0 view .LVU593
 3154 000a 5021     		movs	r1, #80
 3155              	.LVL270:
 3156              		.loc 1 570 5 view .LVU594
 3157 000c FFF7FEFF 		bl	lv_obj_set_local_style_prop
 3158              	.LVL271:
 571:Lib/lvgl/src/core/lv_obj_style_gen.c **** }
 3159              		.loc 1 571 1 view .LVU595
ARM GAS  C:\Users\Alex\AppData\Local\Temp\cc6CnhIe.s 			page 64


 3160 0010 03B0     		add	sp, sp, #12
 3161              	.LCFI209:
 3162              		.cfi_def_cfa_offset 4
 3163              		@ sp needed
 3164 0012 5DF804FB 		ldr	pc, [sp], #4
 3165              		.loc 1 571 1 view .LVU596
 3166              		.cfi_endproc
 3167              	.LFE302:
 3169              		.section	.text.lv_obj_set_style_arc_rounded,"ax",%progbits
 3170              		.align	1
 3171              		.global	lv_obj_set_style_arc_rounded
 3172              		.syntax unified
 3173              		.thumb
 3174              		.thumb_func
 3176              	lv_obj_set_style_arc_rounded:
 3177              	.LVL272:
 3178              	.LFB303:
 572:Lib/lvgl/src/core/lv_obj_style_gen.c **** 
 573:Lib/lvgl/src/core/lv_obj_style_gen.c **** void lv_obj_set_style_arc_rounded(lv_obj_t * obj, bool value, lv_style_selector_t selector)
 574:Lib/lvgl/src/core/lv_obj_style_gen.c **** {
 3179              		.loc 1 574 1 is_stmt 1 view -0
 3180              		.cfi_startproc
 3181              		@ args = 0, pretend = 0, frame = 8
 3182              		@ frame_needed = 0, uses_anonymous_args = 0
 3183              		.loc 1 574 1 is_stmt 0 view .LVU598
 3184 0000 00B5     		push	{lr}
 3185              	.LCFI210:
 3186              		.cfi_def_cfa_offset 4
 3187              		.cfi_offset 14, -4
 3188 0002 83B0     		sub	sp, sp, #12
 3189              	.LCFI211:
 3190              		.cfi_def_cfa_offset 16
 3191 0004 1346     		mov	r3, r2
 575:Lib/lvgl/src/core/lv_obj_style_gen.c ****     lv_style_value_t v = {
 3192              		.loc 1 575 5 is_stmt 1 view .LVU599
 3193              		.loc 1 575 22 is_stmt 0 view .LVU600
 3194 0006 0191     		str	r1, [sp, #4]
 576:Lib/lvgl/src/core/lv_obj_style_gen.c ****         .num = (int32_t)value
 577:Lib/lvgl/src/core/lv_obj_style_gen.c ****     };
 578:Lib/lvgl/src/core/lv_obj_style_gen.c ****     lv_obj_set_local_style_prop(obj, LV_STYLE_ARC_ROUNDED, v, selector);
 3195              		.loc 1 578 5 is_stmt 1 view .LVU601
 3196 0008 0A46     		mov	r2, r1
 3197              	.LVL273:
 3198              		.loc 1 578 5 is_stmt 0 view .LVU602
 3199 000a 5121     		movs	r1, #81
 3200              	.LVL274:
 3201              		.loc 1 578 5 view .LVU603
 3202 000c FFF7FEFF 		bl	lv_obj_set_local_style_prop
 3203              	.LVL275:
 579:Lib/lvgl/src/core/lv_obj_style_gen.c **** }
 3204              		.loc 1 579 1 view .LVU604
 3205 0010 03B0     		add	sp, sp, #12
 3206              	.LCFI212:
 3207              		.cfi_def_cfa_offset 4
 3208              		@ sp needed
 3209 0012 5DF804FB 		ldr	pc, [sp], #4
 3210              		.cfi_endproc
ARM GAS  C:\Users\Alex\AppData\Local\Temp\cc6CnhIe.s 			page 65


 3211              	.LFE303:
 3213              		.section	.text.lv_obj_set_style_arc_color,"ax",%progbits
 3214              		.align	1
 3215              		.global	lv_obj_set_style_arc_color
 3216              		.syntax unified
 3217              		.thumb
 3218              		.thumb_func
 3220              	lv_obj_set_style_arc_color:
 3221              	.LVL276:
 3222              	.LFB304:
 580:Lib/lvgl/src/core/lv_obj_style_gen.c **** 
 581:Lib/lvgl/src/core/lv_obj_style_gen.c **** void lv_obj_set_style_arc_color(lv_obj_t * obj, lv_color_t value, lv_style_selector_t selector)
 582:Lib/lvgl/src/core/lv_obj_style_gen.c **** {
 3223              		.loc 1 582 1 is_stmt 1 view -0
 3224              		.cfi_startproc
 3225              		@ args = 0, pretend = 0, frame = 16
 3226              		@ frame_needed = 0, uses_anonymous_args = 0
 3227              		.loc 1 582 1 is_stmt 0 view .LVU606
 3228 0000 00B5     		push	{lr}
 3229              	.LCFI213:
 3230              		.cfi_def_cfa_offset 4
 3231              		.cfi_offset 14, -4
 3232 0002 85B0     		sub	sp, sp, #20
 3233              	.LCFI214:
 3234              		.cfi_def_cfa_offset 24
 3235 0004 0191     		str	r1, [sp, #4]
 3236 0006 1346     		mov	r3, r2
 583:Lib/lvgl/src/core/lv_obj_style_gen.c ****     lv_style_value_t v = {
 3237              		.loc 1 583 5 is_stmt 1 view .LVU607
 3238              		.loc 1 583 22 is_stmt 0 view .LVU608
 3239 0008 0022     		movs	r2, #0
 3240              	.LVL277:
 3241              		.loc 1 583 22 view .LVU609
 3242 000a 0392     		str	r2, [sp, #12]
 3243 000c ADF80C10 		strh	r1, [sp, #12]	@ movhi
 3244 0010 090C     		lsrs	r1, r1, #16
 3245 0012 8DF80E10 		strb	r1, [sp, #14]
 584:Lib/lvgl/src/core/lv_obj_style_gen.c ****         .color = value
 585:Lib/lvgl/src/core/lv_obj_style_gen.c ****     };
 586:Lib/lvgl/src/core/lv_obj_style_gen.c ****     lv_obj_set_local_style_prop(obj, LV_STYLE_ARC_COLOR, v, selector);
 3246              		.loc 1 586 5 is_stmt 1 view .LVU610
 3247 0016 039A     		ldr	r2, [sp, #12]
 3248 0018 5221     		movs	r1, #82
 3249 001a FFF7FEFF 		bl	lv_obj_set_local_style_prop
 3250              	.LVL278:
 587:Lib/lvgl/src/core/lv_obj_style_gen.c **** }
 3251              		.loc 1 587 1 is_stmt 0 view .LVU611
 3252 001e 05B0     		add	sp, sp, #20
 3253              	.LCFI215:
 3254              		.cfi_def_cfa_offset 4
 3255              		@ sp needed
 3256 0020 5DF804FB 		ldr	pc, [sp], #4
 3257              		.cfi_endproc
 3258              	.LFE304:
 3260              		.section	.text.lv_obj_set_style_arc_opa,"ax",%progbits
 3261              		.align	1
 3262              		.global	lv_obj_set_style_arc_opa
ARM GAS  C:\Users\Alex\AppData\Local\Temp\cc6CnhIe.s 			page 66


 3263              		.syntax unified
 3264              		.thumb
 3265              		.thumb_func
 3267              	lv_obj_set_style_arc_opa:
 3268              	.LVL279:
 3269              	.LFB305:
 588:Lib/lvgl/src/core/lv_obj_style_gen.c **** 
 589:Lib/lvgl/src/core/lv_obj_style_gen.c **** void lv_obj_set_style_arc_opa(lv_obj_t * obj, lv_opa_t value, lv_style_selector_t selector)
 590:Lib/lvgl/src/core/lv_obj_style_gen.c **** {
 3270              		.loc 1 590 1 is_stmt 1 view -0
 3271              		.cfi_startproc
 3272              		@ args = 0, pretend = 0, frame = 8
 3273              		@ frame_needed = 0, uses_anonymous_args = 0
 3274              		.loc 1 590 1 is_stmt 0 view .LVU613
 3275 0000 00B5     		push	{lr}
 3276              	.LCFI216:
 3277              		.cfi_def_cfa_offset 4
 3278              		.cfi_offset 14, -4
 3279 0002 83B0     		sub	sp, sp, #12
 3280              	.LCFI217:
 3281              		.cfi_def_cfa_offset 16
 3282 0004 1346     		mov	r3, r2
 591:Lib/lvgl/src/core/lv_obj_style_gen.c ****     lv_style_value_t v = {
 3283              		.loc 1 591 5 is_stmt 1 view .LVU614
 3284              		.loc 1 591 22 is_stmt 0 view .LVU615
 3285 0006 0191     		str	r1, [sp, #4]
 592:Lib/lvgl/src/core/lv_obj_style_gen.c ****         .num = (int32_t)value
 593:Lib/lvgl/src/core/lv_obj_style_gen.c ****     };
 594:Lib/lvgl/src/core/lv_obj_style_gen.c ****     lv_obj_set_local_style_prop(obj, LV_STYLE_ARC_OPA, v, selector);
 3286              		.loc 1 594 5 is_stmt 1 view .LVU616
 3287 0008 0A46     		mov	r2, r1
 3288              	.LVL280:
 3289              		.loc 1 594 5 is_stmt 0 view .LVU617
 3290 000a 5321     		movs	r1, #83
 3291              	.LVL281:
 3292              		.loc 1 594 5 view .LVU618
 3293 000c FFF7FEFF 		bl	lv_obj_set_local_style_prop
 3294              	.LVL282:
 595:Lib/lvgl/src/core/lv_obj_style_gen.c **** }
 3295              		.loc 1 595 1 view .LVU619
 3296 0010 03B0     		add	sp, sp, #12
 3297              	.LCFI218:
 3298              		.cfi_def_cfa_offset 4
 3299              		@ sp needed
 3300 0012 5DF804FB 		ldr	pc, [sp], #4
 3301              		.cfi_endproc
 3302              	.LFE305:
 3304              		.section	.text.lv_obj_set_style_arc_image_src,"ax",%progbits
 3305              		.align	1
 3306              		.global	lv_obj_set_style_arc_image_src
 3307              		.syntax unified
 3308              		.thumb
 3309              		.thumb_func
 3311              	lv_obj_set_style_arc_image_src:
 3312              	.LVL283:
 3313              	.LFB306:
 596:Lib/lvgl/src/core/lv_obj_style_gen.c **** 
ARM GAS  C:\Users\Alex\AppData\Local\Temp\cc6CnhIe.s 			page 67


 597:Lib/lvgl/src/core/lv_obj_style_gen.c **** void lv_obj_set_style_arc_image_src(lv_obj_t * obj, const void * value, lv_style_selector_t selecto
 598:Lib/lvgl/src/core/lv_obj_style_gen.c **** {
 3314              		.loc 1 598 1 is_stmt 1 view -0
 3315              		.cfi_startproc
 3316              		@ args = 0, pretend = 0, frame = 8
 3317              		@ frame_needed = 0, uses_anonymous_args = 0
 3318              		.loc 1 598 1 is_stmt 0 view .LVU621
 3319 0000 00B5     		push	{lr}
 3320              	.LCFI219:
 3321              		.cfi_def_cfa_offset 4
 3322              		.cfi_offset 14, -4
 3323 0002 83B0     		sub	sp, sp, #12
 3324              	.LCFI220:
 3325              		.cfi_def_cfa_offset 16
 3326 0004 1346     		mov	r3, r2
 599:Lib/lvgl/src/core/lv_obj_style_gen.c ****     lv_style_value_t v = {
 3327              		.loc 1 599 5 is_stmt 1 view .LVU622
 3328              		.loc 1 599 22 is_stmt 0 view .LVU623
 3329 0006 0191     		str	r1, [sp, #4]
 600:Lib/lvgl/src/core/lv_obj_style_gen.c ****         .ptr = value
 601:Lib/lvgl/src/core/lv_obj_style_gen.c ****     };
 602:Lib/lvgl/src/core/lv_obj_style_gen.c ****     lv_obj_set_local_style_prop(obj, LV_STYLE_ARC_IMAGE_SRC, v, selector);
 3330              		.loc 1 602 5 is_stmt 1 view .LVU624
 3331 0008 0A46     		mov	r2, r1
 3332              	.LVL284:
 3333              		.loc 1 602 5 is_stmt 0 view .LVU625
 3334 000a 5421     		movs	r1, #84
 3335              	.LVL285:
 3336              		.loc 1 602 5 view .LVU626
 3337 000c FFF7FEFF 		bl	lv_obj_set_local_style_prop
 3338              	.LVL286:
 603:Lib/lvgl/src/core/lv_obj_style_gen.c **** }
 3339              		.loc 1 603 1 view .LVU627
 3340 0010 03B0     		add	sp, sp, #12
 3341              	.LCFI221:
 3342              		.cfi_def_cfa_offset 4
 3343              		@ sp needed
 3344 0012 5DF804FB 		ldr	pc, [sp], #4
 3345              		.loc 1 603 1 view .LVU628
 3346              		.cfi_endproc
 3347              	.LFE306:
 3349              		.section	.text.lv_obj_set_style_text_color,"ax",%progbits
 3350              		.align	1
 3351              		.global	lv_obj_set_style_text_color
 3352              		.syntax unified
 3353              		.thumb
 3354              		.thumb_func
 3356              	lv_obj_set_style_text_color:
 3357              	.LVL287:
 3358              	.LFB307:
 604:Lib/lvgl/src/core/lv_obj_style_gen.c **** 
 605:Lib/lvgl/src/core/lv_obj_style_gen.c **** void lv_obj_set_style_text_color(lv_obj_t * obj, lv_color_t value, lv_style_selector_t selector)
 606:Lib/lvgl/src/core/lv_obj_style_gen.c **** {
 3359              		.loc 1 606 1 is_stmt 1 view -0
 3360              		.cfi_startproc
 3361              		@ args = 0, pretend = 0, frame = 16
 3362              		@ frame_needed = 0, uses_anonymous_args = 0
ARM GAS  C:\Users\Alex\AppData\Local\Temp\cc6CnhIe.s 			page 68


 3363              		.loc 1 606 1 is_stmt 0 view .LVU630
 3364 0000 00B5     		push	{lr}
 3365              	.LCFI222:
 3366              		.cfi_def_cfa_offset 4
 3367              		.cfi_offset 14, -4
 3368 0002 85B0     		sub	sp, sp, #20
 3369              	.LCFI223:
 3370              		.cfi_def_cfa_offset 24
 3371 0004 0191     		str	r1, [sp, #4]
 3372 0006 1346     		mov	r3, r2
 607:Lib/lvgl/src/core/lv_obj_style_gen.c ****     lv_style_value_t v = {
 3373              		.loc 1 607 5 is_stmt 1 view .LVU631
 3374              		.loc 1 607 22 is_stmt 0 view .LVU632
 3375 0008 0022     		movs	r2, #0
 3376              	.LVL288:
 3377              		.loc 1 607 22 view .LVU633
 3378 000a 0392     		str	r2, [sp, #12]
 3379 000c ADF80C10 		strh	r1, [sp, #12]	@ movhi
 3380 0010 090C     		lsrs	r1, r1, #16
 3381 0012 8DF80E10 		strb	r1, [sp, #14]
 608:Lib/lvgl/src/core/lv_obj_style_gen.c ****         .color = value
 609:Lib/lvgl/src/core/lv_obj_style_gen.c ****     };
 610:Lib/lvgl/src/core/lv_obj_style_gen.c ****     lv_obj_set_local_style_prop(obj, LV_STYLE_TEXT_COLOR, v, selector);
 3382              		.loc 1 610 5 is_stmt 1 view .LVU634
 3383 0016 039A     		ldr	r2, [sp, #12]
 3384 0018 5821     		movs	r1, #88
 3385 001a FFF7FEFF 		bl	lv_obj_set_local_style_prop
 3386              	.LVL289:
 611:Lib/lvgl/src/core/lv_obj_style_gen.c **** }
 3387              		.loc 1 611 1 is_stmt 0 view .LVU635
 3388 001e 05B0     		add	sp, sp, #20
 3389              	.LCFI224:
 3390              		.cfi_def_cfa_offset 4
 3391              		@ sp needed
 3392 0020 5DF804FB 		ldr	pc, [sp], #4
 3393              		.cfi_endproc
 3394              	.LFE307:
 3396              		.section	.text.lv_obj_set_style_text_opa,"ax",%progbits
 3397              		.align	1
 3398              		.global	lv_obj_set_style_text_opa
 3399              		.syntax unified
 3400              		.thumb
 3401              		.thumb_func
 3403              	lv_obj_set_style_text_opa:
 3404              	.LVL290:
 3405              	.LFB308:
 612:Lib/lvgl/src/core/lv_obj_style_gen.c **** 
 613:Lib/lvgl/src/core/lv_obj_style_gen.c **** void lv_obj_set_style_text_opa(lv_obj_t * obj, lv_opa_t value, lv_style_selector_t selector)
 614:Lib/lvgl/src/core/lv_obj_style_gen.c **** {
 3406              		.loc 1 614 1 is_stmt 1 view -0
 3407              		.cfi_startproc
 3408              		@ args = 0, pretend = 0, frame = 8
 3409              		@ frame_needed = 0, uses_anonymous_args = 0
 3410              		.loc 1 614 1 is_stmt 0 view .LVU637
 3411 0000 00B5     		push	{lr}
 3412              	.LCFI225:
 3413              		.cfi_def_cfa_offset 4
ARM GAS  C:\Users\Alex\AppData\Local\Temp\cc6CnhIe.s 			page 69


 3414              		.cfi_offset 14, -4
 3415 0002 83B0     		sub	sp, sp, #12
 3416              	.LCFI226:
 3417              		.cfi_def_cfa_offset 16
 3418 0004 1346     		mov	r3, r2
 615:Lib/lvgl/src/core/lv_obj_style_gen.c ****     lv_style_value_t v = {
 3419              		.loc 1 615 5 is_stmt 1 view .LVU638
 3420              		.loc 1 615 22 is_stmt 0 view .LVU639
 3421 0006 0191     		str	r1, [sp, #4]
 616:Lib/lvgl/src/core/lv_obj_style_gen.c ****         .num = (int32_t)value
 617:Lib/lvgl/src/core/lv_obj_style_gen.c ****     };
 618:Lib/lvgl/src/core/lv_obj_style_gen.c ****     lv_obj_set_local_style_prop(obj, LV_STYLE_TEXT_OPA, v, selector);
 3422              		.loc 1 618 5 is_stmt 1 view .LVU640
 3423 0008 0A46     		mov	r2, r1
 3424              	.LVL291:
 3425              		.loc 1 618 5 is_stmt 0 view .LVU641
 3426 000a 5921     		movs	r1, #89
 3427              	.LVL292:
 3428              		.loc 1 618 5 view .LVU642
 3429 000c FFF7FEFF 		bl	lv_obj_set_local_style_prop
 3430              	.LVL293:
 619:Lib/lvgl/src/core/lv_obj_style_gen.c **** }
 3431              		.loc 1 619 1 view .LVU643
 3432 0010 03B0     		add	sp, sp, #12
 3433              	.LCFI227:
 3434              		.cfi_def_cfa_offset 4
 3435              		@ sp needed
 3436 0012 5DF804FB 		ldr	pc, [sp], #4
 3437              		.cfi_endproc
 3438              	.LFE308:
 3440              		.section	.text.lv_obj_set_style_text_font,"ax",%progbits
 3441              		.align	1
 3442              		.global	lv_obj_set_style_text_font
 3443              		.syntax unified
 3444              		.thumb
 3445              		.thumb_func
 3447              	lv_obj_set_style_text_font:
 3448              	.LVL294:
 3449              	.LFB309:
 620:Lib/lvgl/src/core/lv_obj_style_gen.c **** 
 621:Lib/lvgl/src/core/lv_obj_style_gen.c **** void lv_obj_set_style_text_font(lv_obj_t * obj, const lv_font_t * value, lv_style_selector_t select
 622:Lib/lvgl/src/core/lv_obj_style_gen.c **** {
 3450              		.loc 1 622 1 is_stmt 1 view -0
 3451              		.cfi_startproc
 3452              		@ args = 0, pretend = 0, frame = 8
 3453              		@ frame_needed = 0, uses_anonymous_args = 0
 3454              		.loc 1 622 1 is_stmt 0 view .LVU645
 3455 0000 00B5     		push	{lr}
 3456              	.LCFI228:
 3457              		.cfi_def_cfa_offset 4
 3458              		.cfi_offset 14, -4
 3459 0002 83B0     		sub	sp, sp, #12
 3460              	.LCFI229:
 3461              		.cfi_def_cfa_offset 16
 3462 0004 1346     		mov	r3, r2
 623:Lib/lvgl/src/core/lv_obj_style_gen.c ****     lv_style_value_t v = {
 3463              		.loc 1 623 5 is_stmt 1 view .LVU646
ARM GAS  C:\Users\Alex\AppData\Local\Temp\cc6CnhIe.s 			page 70


 3464              		.loc 1 623 22 is_stmt 0 view .LVU647
 3465 0006 0191     		str	r1, [sp, #4]
 624:Lib/lvgl/src/core/lv_obj_style_gen.c ****         .ptr = value
 625:Lib/lvgl/src/core/lv_obj_style_gen.c ****     };
 626:Lib/lvgl/src/core/lv_obj_style_gen.c ****     lv_obj_set_local_style_prop(obj, LV_STYLE_TEXT_FONT, v, selector);
 3466              		.loc 1 626 5 is_stmt 1 view .LVU648
 3467 0008 0A46     		mov	r2, r1
 3468              	.LVL295:
 3469              		.loc 1 626 5 is_stmt 0 view .LVU649
 3470 000a 5A21     		movs	r1, #90
 3471              	.LVL296:
 3472              		.loc 1 626 5 view .LVU650
 3473 000c FFF7FEFF 		bl	lv_obj_set_local_style_prop
 3474              	.LVL297:
 627:Lib/lvgl/src/core/lv_obj_style_gen.c **** }
 3475              		.loc 1 627 1 view .LVU651
 3476 0010 03B0     		add	sp, sp, #12
 3477              	.LCFI230:
 3478              		.cfi_def_cfa_offset 4
 3479              		@ sp needed
 3480 0012 5DF804FB 		ldr	pc, [sp], #4
 3481              		.loc 1 627 1 view .LVU652
 3482              		.cfi_endproc
 3483              	.LFE309:
 3485              		.section	.text.lv_obj_set_style_text_letter_space,"ax",%progbits
 3486              		.align	1
 3487              		.global	lv_obj_set_style_text_letter_space
 3488              		.syntax unified
 3489              		.thumb
 3490              		.thumb_func
 3492              	lv_obj_set_style_text_letter_space:
 3493              	.LVL298:
 3494              	.LFB310:
 628:Lib/lvgl/src/core/lv_obj_style_gen.c **** 
 629:Lib/lvgl/src/core/lv_obj_style_gen.c **** void lv_obj_set_style_text_letter_space(lv_obj_t * obj, int32_t value, lv_style_selector_t selector
 630:Lib/lvgl/src/core/lv_obj_style_gen.c **** {
 3495              		.loc 1 630 1 is_stmt 1 view -0
 3496              		.cfi_startproc
 3497              		@ args = 0, pretend = 0, frame = 8
 3498              		@ frame_needed = 0, uses_anonymous_args = 0
 3499              		.loc 1 630 1 is_stmt 0 view .LVU654
 3500 0000 00B5     		push	{lr}
 3501              	.LCFI231:
 3502              		.cfi_def_cfa_offset 4
 3503              		.cfi_offset 14, -4
 3504 0002 83B0     		sub	sp, sp, #12
 3505              	.LCFI232:
 3506              		.cfi_def_cfa_offset 16
 3507 0004 1346     		mov	r3, r2
 631:Lib/lvgl/src/core/lv_obj_style_gen.c ****     lv_style_value_t v = {
 3508              		.loc 1 631 5 is_stmt 1 view .LVU655
 3509              		.loc 1 631 22 is_stmt 0 view .LVU656
 3510 0006 0191     		str	r1, [sp, #4]
 632:Lib/lvgl/src/core/lv_obj_style_gen.c ****         .num = (int32_t)value
 633:Lib/lvgl/src/core/lv_obj_style_gen.c ****     };
 634:Lib/lvgl/src/core/lv_obj_style_gen.c ****     lv_obj_set_local_style_prop(obj, LV_STYLE_TEXT_LETTER_SPACE, v, selector);
 3511              		.loc 1 634 5 is_stmt 1 view .LVU657
ARM GAS  C:\Users\Alex\AppData\Local\Temp\cc6CnhIe.s 			page 71


 3512 0008 0A46     		mov	r2, r1
 3513              	.LVL299:
 3514              		.loc 1 634 5 is_stmt 0 view .LVU658
 3515 000a 5B21     		movs	r1, #91
 3516              	.LVL300:
 3517              		.loc 1 634 5 view .LVU659
 3518 000c FFF7FEFF 		bl	lv_obj_set_local_style_prop
 3519              	.LVL301:
 635:Lib/lvgl/src/core/lv_obj_style_gen.c **** }
 3520              		.loc 1 635 1 view .LVU660
 3521 0010 03B0     		add	sp, sp, #12
 3522              	.LCFI233:
 3523              		.cfi_def_cfa_offset 4
 3524              		@ sp needed
 3525 0012 5DF804FB 		ldr	pc, [sp], #4
 3526              		.loc 1 635 1 view .LVU661
 3527              		.cfi_endproc
 3528              	.LFE310:
 3530              		.section	.text.lv_obj_set_style_text_line_space,"ax",%progbits
 3531              		.align	1
 3532              		.global	lv_obj_set_style_text_line_space
 3533              		.syntax unified
 3534              		.thumb
 3535              		.thumb_func
 3537              	lv_obj_set_style_text_line_space:
 3538              	.LVL302:
 3539              	.LFB311:
 636:Lib/lvgl/src/core/lv_obj_style_gen.c **** 
 637:Lib/lvgl/src/core/lv_obj_style_gen.c **** void lv_obj_set_style_text_line_space(lv_obj_t * obj, int32_t value, lv_style_selector_t selector)
 638:Lib/lvgl/src/core/lv_obj_style_gen.c **** {
 3540              		.loc 1 638 1 is_stmt 1 view -0
 3541              		.cfi_startproc
 3542              		@ args = 0, pretend = 0, frame = 8
 3543              		@ frame_needed = 0, uses_anonymous_args = 0
 3544              		.loc 1 638 1 is_stmt 0 view .LVU663
 3545 0000 00B5     		push	{lr}
 3546              	.LCFI234:
 3547              		.cfi_def_cfa_offset 4
 3548              		.cfi_offset 14, -4
 3549 0002 83B0     		sub	sp, sp, #12
 3550              	.LCFI235:
 3551              		.cfi_def_cfa_offset 16
 3552 0004 1346     		mov	r3, r2
 639:Lib/lvgl/src/core/lv_obj_style_gen.c ****     lv_style_value_t v = {
 3553              		.loc 1 639 5 is_stmt 1 view .LVU664
 3554              		.loc 1 639 22 is_stmt 0 view .LVU665
 3555 0006 0191     		str	r1, [sp, #4]
 640:Lib/lvgl/src/core/lv_obj_style_gen.c ****         .num = (int32_t)value
 641:Lib/lvgl/src/core/lv_obj_style_gen.c ****     };
 642:Lib/lvgl/src/core/lv_obj_style_gen.c ****     lv_obj_set_local_style_prop(obj, LV_STYLE_TEXT_LINE_SPACE, v, selector);
 3556              		.loc 1 642 5 is_stmt 1 view .LVU666
 3557 0008 0A46     		mov	r2, r1
 3558              	.LVL303:
 3559              		.loc 1 642 5 is_stmt 0 view .LVU667
 3560 000a 5C21     		movs	r1, #92
 3561              	.LVL304:
 3562              		.loc 1 642 5 view .LVU668
ARM GAS  C:\Users\Alex\AppData\Local\Temp\cc6CnhIe.s 			page 72


 3563 000c FFF7FEFF 		bl	lv_obj_set_local_style_prop
 3564              	.LVL305:
 643:Lib/lvgl/src/core/lv_obj_style_gen.c **** }
 3565              		.loc 1 643 1 view .LVU669
 3566 0010 03B0     		add	sp, sp, #12
 3567              	.LCFI236:
 3568              		.cfi_def_cfa_offset 4
 3569              		@ sp needed
 3570 0012 5DF804FB 		ldr	pc, [sp], #4
 3571              		.loc 1 643 1 view .LVU670
 3572              		.cfi_endproc
 3573              	.LFE311:
 3575              		.section	.text.lv_obj_set_style_text_decor,"ax",%progbits
 3576              		.align	1
 3577              		.global	lv_obj_set_style_text_decor
 3578              		.syntax unified
 3579              		.thumb
 3580              		.thumb_func
 3582              	lv_obj_set_style_text_decor:
 3583              	.LVL306:
 3584              	.LFB312:
 644:Lib/lvgl/src/core/lv_obj_style_gen.c **** 
 645:Lib/lvgl/src/core/lv_obj_style_gen.c **** void lv_obj_set_style_text_decor(lv_obj_t * obj, lv_text_decor_t value, lv_style_selector_t selecto
 646:Lib/lvgl/src/core/lv_obj_style_gen.c **** {
 3585              		.loc 1 646 1 is_stmt 1 view -0
 3586              		.cfi_startproc
 3587              		@ args = 0, pretend = 0, frame = 8
 3588              		@ frame_needed = 0, uses_anonymous_args = 0
 3589              		.loc 1 646 1 is_stmt 0 view .LVU672
 3590 0000 00B5     		push	{lr}
 3591              	.LCFI237:
 3592              		.cfi_def_cfa_offset 4
 3593              		.cfi_offset 14, -4
 3594 0002 83B0     		sub	sp, sp, #12
 3595              	.LCFI238:
 3596              		.cfi_def_cfa_offset 16
 3597 0004 1346     		mov	r3, r2
 647:Lib/lvgl/src/core/lv_obj_style_gen.c ****     lv_style_value_t v = {
 3598              		.loc 1 647 5 is_stmt 1 view .LVU673
 3599              		.loc 1 647 22 is_stmt 0 view .LVU674
 3600 0006 0191     		str	r1, [sp, #4]
 648:Lib/lvgl/src/core/lv_obj_style_gen.c ****         .num = (int32_t)value
 649:Lib/lvgl/src/core/lv_obj_style_gen.c ****     };
 650:Lib/lvgl/src/core/lv_obj_style_gen.c ****     lv_obj_set_local_style_prop(obj, LV_STYLE_TEXT_DECOR, v, selector);
 3601              		.loc 1 650 5 is_stmt 1 view .LVU675
 3602 0008 0A46     		mov	r2, r1
 3603              	.LVL307:
 3604              		.loc 1 650 5 is_stmt 0 view .LVU676
 3605 000a 5D21     		movs	r1, #93
 3606              	.LVL308:
 3607              		.loc 1 650 5 view .LVU677
 3608 000c FFF7FEFF 		bl	lv_obj_set_local_style_prop
 3609              	.LVL309:
 651:Lib/lvgl/src/core/lv_obj_style_gen.c **** }
 3610              		.loc 1 651 1 view .LVU678
 3611 0010 03B0     		add	sp, sp, #12
 3612              	.LCFI239:
ARM GAS  C:\Users\Alex\AppData\Local\Temp\cc6CnhIe.s 			page 73


 3613              		.cfi_def_cfa_offset 4
 3614              		@ sp needed
 3615 0012 5DF804FB 		ldr	pc, [sp], #4
 3616              		.cfi_endproc
 3617              	.LFE312:
 3619              		.section	.text.lv_obj_set_style_text_align,"ax",%progbits
 3620              		.align	1
 3621              		.global	lv_obj_set_style_text_align
 3622              		.syntax unified
 3623              		.thumb
 3624              		.thumb_func
 3626              	lv_obj_set_style_text_align:
 3627              	.LVL310:
 3628              	.LFB313:
 652:Lib/lvgl/src/core/lv_obj_style_gen.c **** 
 653:Lib/lvgl/src/core/lv_obj_style_gen.c **** void lv_obj_set_style_text_align(lv_obj_t * obj, lv_text_align_t value, lv_style_selector_t selecto
 654:Lib/lvgl/src/core/lv_obj_style_gen.c **** {
 3629              		.loc 1 654 1 is_stmt 1 view -0
 3630              		.cfi_startproc
 3631              		@ args = 0, pretend = 0, frame = 8
 3632              		@ frame_needed = 0, uses_anonymous_args = 0
 3633              		.loc 1 654 1 is_stmt 0 view .LVU680
 3634 0000 00B5     		push	{lr}
 3635              	.LCFI240:
 3636              		.cfi_def_cfa_offset 4
 3637              		.cfi_offset 14, -4
 3638 0002 83B0     		sub	sp, sp, #12
 3639              	.LCFI241:
 3640              		.cfi_def_cfa_offset 16
 3641 0004 1346     		mov	r3, r2
 655:Lib/lvgl/src/core/lv_obj_style_gen.c ****     lv_style_value_t v = {
 3642              		.loc 1 655 5 is_stmt 1 view .LVU681
 3643              		.loc 1 655 22 is_stmt 0 view .LVU682
 3644 0006 0191     		str	r1, [sp, #4]
 656:Lib/lvgl/src/core/lv_obj_style_gen.c ****         .num = (int32_t)value
 657:Lib/lvgl/src/core/lv_obj_style_gen.c ****     };
 658:Lib/lvgl/src/core/lv_obj_style_gen.c ****     lv_obj_set_local_style_prop(obj, LV_STYLE_TEXT_ALIGN, v, selector);
 3645              		.loc 1 658 5 is_stmt 1 view .LVU683
 3646 0008 0A46     		mov	r2, r1
 3647              	.LVL311:
 3648              		.loc 1 658 5 is_stmt 0 view .LVU684
 3649 000a 5E21     		movs	r1, #94
 3650              	.LVL312:
 3651              		.loc 1 658 5 view .LVU685
 3652 000c FFF7FEFF 		bl	lv_obj_set_local_style_prop
 3653              	.LVL313:
 659:Lib/lvgl/src/core/lv_obj_style_gen.c **** }
 3654              		.loc 1 659 1 view .LVU686
 3655 0010 03B0     		add	sp, sp, #12
 3656              	.LCFI242:
 3657              		.cfi_def_cfa_offset 4
 3658              		@ sp needed
 3659 0012 5DF804FB 		ldr	pc, [sp], #4
 3660              		.cfi_endproc
 3661              	.LFE313:
 3663              		.section	.text.lv_obj_set_style_radius,"ax",%progbits
 3664              		.align	1
ARM GAS  C:\Users\Alex\AppData\Local\Temp\cc6CnhIe.s 			page 74


 3665              		.global	lv_obj_set_style_radius
 3666              		.syntax unified
 3667              		.thumb
 3668              		.thumb_func
 3670              	lv_obj_set_style_radius:
 3671              	.LVL314:
 3672              	.LFB314:
 660:Lib/lvgl/src/core/lv_obj_style_gen.c **** 
 661:Lib/lvgl/src/core/lv_obj_style_gen.c **** void lv_obj_set_style_radius(lv_obj_t * obj, int32_t value, lv_style_selector_t selector)
 662:Lib/lvgl/src/core/lv_obj_style_gen.c **** {
 3673              		.loc 1 662 1 is_stmt 1 view -0
 3674              		.cfi_startproc
 3675              		@ args = 0, pretend = 0, frame = 8
 3676              		@ frame_needed = 0, uses_anonymous_args = 0
 3677              		.loc 1 662 1 is_stmt 0 view .LVU688
 3678 0000 00B5     		push	{lr}
 3679              	.LCFI243:
 3680              		.cfi_def_cfa_offset 4
 3681              		.cfi_offset 14, -4
 3682 0002 83B0     		sub	sp, sp, #12
 3683              	.LCFI244:
 3684              		.cfi_def_cfa_offset 16
 3685 0004 1346     		mov	r3, r2
 663:Lib/lvgl/src/core/lv_obj_style_gen.c ****     lv_style_value_t v = {
 3686              		.loc 1 663 5 is_stmt 1 view .LVU689
 3687              		.loc 1 663 22 is_stmt 0 view .LVU690
 3688 0006 0191     		str	r1, [sp, #4]
 664:Lib/lvgl/src/core/lv_obj_style_gen.c ****         .num = (int32_t)value
 665:Lib/lvgl/src/core/lv_obj_style_gen.c ****     };
 666:Lib/lvgl/src/core/lv_obj_style_gen.c ****     lv_obj_set_local_style_prop(obj, LV_STYLE_RADIUS, v, selector);
 3689              		.loc 1 666 5 is_stmt 1 view .LVU691
 3690 0008 0A46     		mov	r2, r1
 3691              	.LVL315:
 3692              		.loc 1 666 5 is_stmt 0 view .LVU692
 3693 000a 0C21     		movs	r1, #12
 3694              	.LVL316:
 3695              		.loc 1 666 5 view .LVU693
 3696 000c FFF7FEFF 		bl	lv_obj_set_local_style_prop
 3697              	.LVL317:
 667:Lib/lvgl/src/core/lv_obj_style_gen.c **** }
 3698              		.loc 1 667 1 view .LVU694
 3699 0010 03B0     		add	sp, sp, #12
 3700              	.LCFI245:
 3701              		.cfi_def_cfa_offset 4
 3702              		@ sp needed
 3703 0012 5DF804FB 		ldr	pc, [sp], #4
 3704              		.loc 1 667 1 view .LVU695
 3705              		.cfi_endproc
 3706              	.LFE314:
 3708              		.section	.text.lv_obj_set_style_clip_corner,"ax",%progbits
 3709              		.align	1
 3710              		.global	lv_obj_set_style_clip_corner
 3711              		.syntax unified
 3712              		.thumb
 3713              		.thumb_func
 3715              	lv_obj_set_style_clip_corner:
 3716              	.LVL318:
ARM GAS  C:\Users\Alex\AppData\Local\Temp\cc6CnhIe.s 			page 75


 3717              	.LFB315:
 668:Lib/lvgl/src/core/lv_obj_style_gen.c **** 
 669:Lib/lvgl/src/core/lv_obj_style_gen.c **** void lv_obj_set_style_clip_corner(lv_obj_t * obj, bool value, lv_style_selector_t selector)
 670:Lib/lvgl/src/core/lv_obj_style_gen.c **** {
 3718              		.loc 1 670 1 is_stmt 1 view -0
 3719              		.cfi_startproc
 3720              		@ args = 0, pretend = 0, frame = 8
 3721              		@ frame_needed = 0, uses_anonymous_args = 0
 3722              		.loc 1 670 1 is_stmt 0 view .LVU697
 3723 0000 00B5     		push	{lr}
 3724              	.LCFI246:
 3725              		.cfi_def_cfa_offset 4
 3726              		.cfi_offset 14, -4
 3727 0002 83B0     		sub	sp, sp, #12
 3728              	.LCFI247:
 3729              		.cfi_def_cfa_offset 16
 3730 0004 1346     		mov	r3, r2
 671:Lib/lvgl/src/core/lv_obj_style_gen.c ****     lv_style_value_t v = {
 3731              		.loc 1 671 5 is_stmt 1 view .LVU698
 3732              		.loc 1 671 22 is_stmt 0 view .LVU699
 3733 0006 0191     		str	r1, [sp, #4]
 672:Lib/lvgl/src/core/lv_obj_style_gen.c ****         .num = (int32_t)value
 673:Lib/lvgl/src/core/lv_obj_style_gen.c ****     };
 674:Lib/lvgl/src/core/lv_obj_style_gen.c ****     lv_obj_set_local_style_prop(obj, LV_STYLE_CLIP_CORNER, v, selector);
 3734              		.loc 1 674 5 is_stmt 1 view .LVU700
 3735 0008 0A46     		mov	r2, r1
 3736              	.LVL319:
 3737              		.loc 1 674 5 is_stmt 0 view .LVU701
 3738 000a 2D21     		movs	r1, #45
 3739              	.LVL320:
 3740              		.loc 1 674 5 view .LVU702
 3741 000c FFF7FEFF 		bl	lv_obj_set_local_style_prop
 3742              	.LVL321:
 675:Lib/lvgl/src/core/lv_obj_style_gen.c **** }
 3743              		.loc 1 675 1 view .LVU703
 3744 0010 03B0     		add	sp, sp, #12
 3745              	.LCFI248:
 3746              		.cfi_def_cfa_offset 4
 3747              		@ sp needed
 3748 0012 5DF804FB 		ldr	pc, [sp], #4
 3749              		.cfi_endproc
 3750              	.LFE315:
 3752              		.section	.text.lv_obj_set_style_opa,"ax",%progbits
 3753              		.align	1
 3754              		.global	lv_obj_set_style_opa
 3755              		.syntax unified
 3756              		.thumb
 3757              		.thumb_func
 3759              	lv_obj_set_style_opa:
 3760              	.LVL322:
 3761              	.LFB316:
 676:Lib/lvgl/src/core/lv_obj_style_gen.c **** 
 677:Lib/lvgl/src/core/lv_obj_style_gen.c **** void lv_obj_set_style_opa(lv_obj_t * obj, lv_opa_t value, lv_style_selector_t selector)
 678:Lib/lvgl/src/core/lv_obj_style_gen.c **** {
 3762              		.loc 1 678 1 is_stmt 1 view -0
 3763              		.cfi_startproc
 3764              		@ args = 0, pretend = 0, frame = 8
ARM GAS  C:\Users\Alex\AppData\Local\Temp\cc6CnhIe.s 			page 76


 3765              		@ frame_needed = 0, uses_anonymous_args = 0
 3766              		.loc 1 678 1 is_stmt 0 view .LVU705
 3767 0000 00B5     		push	{lr}
 3768              	.LCFI249:
 3769              		.cfi_def_cfa_offset 4
 3770              		.cfi_offset 14, -4
 3771 0002 83B0     		sub	sp, sp, #12
 3772              	.LCFI250:
 3773              		.cfi_def_cfa_offset 16
 3774 0004 1346     		mov	r3, r2
 679:Lib/lvgl/src/core/lv_obj_style_gen.c ****     lv_style_value_t v = {
 3775              		.loc 1 679 5 is_stmt 1 view .LVU706
 3776              		.loc 1 679 22 is_stmt 0 view .LVU707
 3777 0006 0191     		str	r1, [sp, #4]
 680:Lib/lvgl/src/core/lv_obj_style_gen.c ****         .num = (int32_t)value
 681:Lib/lvgl/src/core/lv_obj_style_gen.c ****     };
 682:Lib/lvgl/src/core/lv_obj_style_gen.c ****     lv_obj_set_local_style_prop(obj, LV_STYLE_OPA, v, selector);
 3778              		.loc 1 682 5 is_stmt 1 view .LVU708
 3779 0008 0A46     		mov	r2, r1
 3780              	.LVL323:
 3781              		.loc 1 682 5 is_stmt 0 view .LVU709
 3782 000a 5F21     		movs	r1, #95
 3783              	.LVL324:
 3784              		.loc 1 682 5 view .LVU710
 3785 000c FFF7FEFF 		bl	lv_obj_set_local_style_prop
 3786              	.LVL325:
 683:Lib/lvgl/src/core/lv_obj_style_gen.c **** }
 3787              		.loc 1 683 1 view .LVU711
 3788 0010 03B0     		add	sp, sp, #12
 3789              	.LCFI251:
 3790              		.cfi_def_cfa_offset 4
 3791              		@ sp needed
 3792 0012 5DF804FB 		ldr	pc, [sp], #4
 3793              		.cfi_endproc
 3794              	.LFE316:
 3796              		.section	.text.lv_obj_set_style_opa_layered,"ax",%progbits
 3797              		.align	1
 3798              		.global	lv_obj_set_style_opa_layered
 3799              		.syntax unified
 3800              		.thumb
 3801              		.thumb_func
 3803              	lv_obj_set_style_opa_layered:
 3804              	.LVL326:
 3805              	.LFB317:
 684:Lib/lvgl/src/core/lv_obj_style_gen.c **** 
 685:Lib/lvgl/src/core/lv_obj_style_gen.c **** void lv_obj_set_style_opa_layered(lv_obj_t * obj, lv_opa_t value, lv_style_selector_t selector)
 686:Lib/lvgl/src/core/lv_obj_style_gen.c **** {
 3806              		.loc 1 686 1 is_stmt 1 view -0
 3807              		.cfi_startproc
 3808              		@ args = 0, pretend = 0, frame = 8
 3809              		@ frame_needed = 0, uses_anonymous_args = 0
 3810              		.loc 1 686 1 is_stmt 0 view .LVU713
 3811 0000 00B5     		push	{lr}
 3812              	.LCFI252:
 3813              		.cfi_def_cfa_offset 4
 3814              		.cfi_offset 14, -4
 3815 0002 83B0     		sub	sp, sp, #12
ARM GAS  C:\Users\Alex\AppData\Local\Temp\cc6CnhIe.s 			page 77


 3816              	.LCFI253:
 3817              		.cfi_def_cfa_offset 16
 3818 0004 1346     		mov	r3, r2
 687:Lib/lvgl/src/core/lv_obj_style_gen.c ****     lv_style_value_t v = {
 3819              		.loc 1 687 5 is_stmt 1 view .LVU714
 3820              		.loc 1 687 22 is_stmt 0 view .LVU715
 3821 0006 0191     		str	r1, [sp, #4]
 688:Lib/lvgl/src/core/lv_obj_style_gen.c ****         .num = (int32_t)value
 689:Lib/lvgl/src/core/lv_obj_style_gen.c ****     };
 690:Lib/lvgl/src/core/lv_obj_style_gen.c ****     lv_obj_set_local_style_prop(obj, LV_STYLE_OPA_LAYERED, v, selector);
 3822              		.loc 1 690 5 is_stmt 1 view .LVU716
 3823 0008 0A46     		mov	r2, r1
 3824              	.LVL327:
 3825              		.loc 1 690 5 is_stmt 0 view .LVU717
 3826 000a 6021     		movs	r1, #96
 3827              	.LVL328:
 3828              		.loc 1 690 5 view .LVU718
 3829 000c FFF7FEFF 		bl	lv_obj_set_local_style_prop
 3830              	.LVL329:
 691:Lib/lvgl/src/core/lv_obj_style_gen.c **** }
 3831              		.loc 1 691 1 view .LVU719
 3832 0010 03B0     		add	sp, sp, #12
 3833              	.LCFI254:
 3834              		.cfi_def_cfa_offset 4
 3835              		@ sp needed
 3836 0012 5DF804FB 		ldr	pc, [sp], #4
 3837              		.cfi_endproc
 3838              	.LFE317:
 3840              		.section	.text.lv_obj_set_style_color_filter_dsc,"ax",%progbits
 3841              		.align	1
 3842              		.global	lv_obj_set_style_color_filter_dsc
 3843              		.syntax unified
 3844              		.thumb
 3845              		.thumb_func
 3847              	lv_obj_set_style_color_filter_dsc:
 3848              	.LVL330:
 3849              	.LFB318:
 692:Lib/lvgl/src/core/lv_obj_style_gen.c **** 
 693:Lib/lvgl/src/core/lv_obj_style_gen.c **** void lv_obj_set_style_color_filter_dsc(lv_obj_t * obj, const lv_color_filter_dsc_t * value,
 694:Lib/lvgl/src/core/lv_obj_style_gen.c ****                                        lv_style_selector_t selector)
 695:Lib/lvgl/src/core/lv_obj_style_gen.c **** {
 3850              		.loc 1 695 1 is_stmt 1 view -0
 3851              		.cfi_startproc
 3852              		@ args = 0, pretend = 0, frame = 8
 3853              		@ frame_needed = 0, uses_anonymous_args = 0
 3854              		.loc 1 695 1 is_stmt 0 view .LVU721
 3855 0000 00B5     		push	{lr}
 3856              	.LCFI255:
 3857              		.cfi_def_cfa_offset 4
 3858              		.cfi_offset 14, -4
 3859 0002 83B0     		sub	sp, sp, #12
 3860              	.LCFI256:
 3861              		.cfi_def_cfa_offset 16
 3862 0004 1346     		mov	r3, r2
 696:Lib/lvgl/src/core/lv_obj_style_gen.c ****     lv_style_value_t v = {
 3863              		.loc 1 696 5 is_stmt 1 view .LVU722
 3864              		.loc 1 696 22 is_stmt 0 view .LVU723
ARM GAS  C:\Users\Alex\AppData\Local\Temp\cc6CnhIe.s 			page 78


 3865 0006 0191     		str	r1, [sp, #4]
 697:Lib/lvgl/src/core/lv_obj_style_gen.c ****         .ptr = value
 698:Lib/lvgl/src/core/lv_obj_style_gen.c ****     };
 699:Lib/lvgl/src/core/lv_obj_style_gen.c ****     lv_obj_set_local_style_prop(obj, LV_STYLE_COLOR_FILTER_DSC, v, selector);
 3866              		.loc 1 699 5 is_stmt 1 view .LVU724
 3867 0008 0A46     		mov	r2, r1
 3868              	.LVL331:
 3869              		.loc 1 699 5 is_stmt 0 view .LVU725
 3870 000a 6121     		movs	r1, #97
 3871              	.LVL332:
 3872              		.loc 1 699 5 view .LVU726
 3873 000c FFF7FEFF 		bl	lv_obj_set_local_style_prop
 3874              	.LVL333:
 700:Lib/lvgl/src/core/lv_obj_style_gen.c **** }
 3875              		.loc 1 700 1 view .LVU727
 3876 0010 03B0     		add	sp, sp, #12
 3877              	.LCFI257:
 3878              		.cfi_def_cfa_offset 4
 3879              		@ sp needed
 3880 0012 5DF804FB 		ldr	pc, [sp], #4
 3881              		.loc 1 700 1 view .LVU728
 3882              		.cfi_endproc
 3883              	.LFE318:
 3885              		.section	.text.lv_obj_set_style_color_filter_opa,"ax",%progbits
 3886              		.align	1
 3887              		.global	lv_obj_set_style_color_filter_opa
 3888              		.syntax unified
 3889              		.thumb
 3890              		.thumb_func
 3892              	lv_obj_set_style_color_filter_opa:
 3893              	.LVL334:
 3894              	.LFB319:
 701:Lib/lvgl/src/core/lv_obj_style_gen.c **** 
 702:Lib/lvgl/src/core/lv_obj_style_gen.c **** void lv_obj_set_style_color_filter_opa(lv_obj_t * obj, lv_opa_t value, lv_style_selector_t selector
 703:Lib/lvgl/src/core/lv_obj_style_gen.c **** {
 3895              		.loc 1 703 1 is_stmt 1 view -0
 3896              		.cfi_startproc
 3897              		@ args = 0, pretend = 0, frame = 8
 3898              		@ frame_needed = 0, uses_anonymous_args = 0
 3899              		.loc 1 703 1 is_stmt 0 view .LVU730
 3900 0000 00B5     		push	{lr}
 3901              	.LCFI258:
 3902              		.cfi_def_cfa_offset 4
 3903              		.cfi_offset 14, -4
 3904 0002 83B0     		sub	sp, sp, #12
 3905              	.LCFI259:
 3906              		.cfi_def_cfa_offset 16
 3907 0004 1346     		mov	r3, r2
 704:Lib/lvgl/src/core/lv_obj_style_gen.c ****     lv_style_value_t v = {
 3908              		.loc 1 704 5 is_stmt 1 view .LVU731
 3909              		.loc 1 704 22 is_stmt 0 view .LVU732
 3910 0006 0191     		str	r1, [sp, #4]
 705:Lib/lvgl/src/core/lv_obj_style_gen.c ****         .num = (int32_t)value
 706:Lib/lvgl/src/core/lv_obj_style_gen.c ****     };
 707:Lib/lvgl/src/core/lv_obj_style_gen.c ****     lv_obj_set_local_style_prop(obj, LV_STYLE_COLOR_FILTER_OPA, v, selector);
 3911              		.loc 1 707 5 is_stmt 1 view .LVU733
 3912 0008 0A46     		mov	r2, r1
ARM GAS  C:\Users\Alex\AppData\Local\Temp\cc6CnhIe.s 			page 79


 3913              	.LVL335:
 3914              		.loc 1 707 5 is_stmt 0 view .LVU734
 3915 000a 6221     		movs	r1, #98
 3916              	.LVL336:
 3917              		.loc 1 707 5 view .LVU735
 3918 000c FFF7FEFF 		bl	lv_obj_set_local_style_prop
 3919              	.LVL337:
 708:Lib/lvgl/src/core/lv_obj_style_gen.c **** }
 3920              		.loc 1 708 1 view .LVU736
 3921 0010 03B0     		add	sp, sp, #12
 3922              	.LCFI260:
 3923              		.cfi_def_cfa_offset 4
 3924              		@ sp needed
 3925 0012 5DF804FB 		ldr	pc, [sp], #4
 3926              		.cfi_endproc
 3927              	.LFE319:
 3929              		.section	.text.lv_obj_set_style_anim,"ax",%progbits
 3930              		.align	1
 3931              		.global	lv_obj_set_style_anim
 3932              		.syntax unified
 3933              		.thumb
 3934              		.thumb_func
 3936              	lv_obj_set_style_anim:
 3937              	.LVL338:
 3938              	.LFB320:
 709:Lib/lvgl/src/core/lv_obj_style_gen.c **** 
 710:Lib/lvgl/src/core/lv_obj_style_gen.c **** void lv_obj_set_style_anim(lv_obj_t * obj, const lv_anim_t * value, lv_style_selector_t selector)
 711:Lib/lvgl/src/core/lv_obj_style_gen.c **** {
 3939              		.loc 1 711 1 is_stmt 1 view -0
 3940              		.cfi_startproc
 3941              		@ args = 0, pretend = 0, frame = 8
 3942              		@ frame_needed = 0, uses_anonymous_args = 0
 3943              		.loc 1 711 1 is_stmt 0 view .LVU738
 3944 0000 00B5     		push	{lr}
 3945              	.LCFI261:
 3946              		.cfi_def_cfa_offset 4
 3947              		.cfi_offset 14, -4
 3948 0002 83B0     		sub	sp, sp, #12
 3949              	.LCFI262:
 3950              		.cfi_def_cfa_offset 16
 3951 0004 1346     		mov	r3, r2
 712:Lib/lvgl/src/core/lv_obj_style_gen.c ****     lv_style_value_t v = {
 3952              		.loc 1 712 5 is_stmt 1 view .LVU739
 3953              		.loc 1 712 22 is_stmt 0 view .LVU740
 3954 0006 0191     		str	r1, [sp, #4]
 713:Lib/lvgl/src/core/lv_obj_style_gen.c ****         .ptr = value
 714:Lib/lvgl/src/core/lv_obj_style_gen.c ****     };
 715:Lib/lvgl/src/core/lv_obj_style_gen.c ****     lv_obj_set_local_style_prop(obj, LV_STYLE_ANIM, v, selector);
 3955              		.loc 1 715 5 is_stmt 1 view .LVU741
 3956 0008 0A46     		mov	r2, r1
 3957              	.LVL339:
 3958              		.loc 1 715 5 is_stmt 0 view .LVU742
 3959 000a 6321     		movs	r1, #99
 3960              	.LVL340:
 3961              		.loc 1 715 5 view .LVU743
 3962 000c FFF7FEFF 		bl	lv_obj_set_local_style_prop
 3963              	.LVL341:
ARM GAS  C:\Users\Alex\AppData\Local\Temp\cc6CnhIe.s 			page 80


 716:Lib/lvgl/src/core/lv_obj_style_gen.c **** }
 3964              		.loc 1 716 1 view .LVU744
 3965 0010 03B0     		add	sp, sp, #12
 3966              	.LCFI263:
 3967              		.cfi_def_cfa_offset 4
 3968              		@ sp needed
 3969 0012 5DF804FB 		ldr	pc, [sp], #4
 3970              		.loc 1 716 1 view .LVU745
 3971              		.cfi_endproc
 3972              	.LFE320:
 3974              		.section	.text.lv_obj_set_style_anim_duration,"ax",%progbits
 3975              		.align	1
 3976              		.global	lv_obj_set_style_anim_duration
 3977              		.syntax unified
 3978              		.thumb
 3979              		.thumb_func
 3981              	lv_obj_set_style_anim_duration:
 3982              	.LVL342:
 3983              	.LFB321:
 717:Lib/lvgl/src/core/lv_obj_style_gen.c **** 
 718:Lib/lvgl/src/core/lv_obj_style_gen.c **** void lv_obj_set_style_anim_duration(lv_obj_t * obj, uint32_t value, lv_style_selector_t selector)
 719:Lib/lvgl/src/core/lv_obj_style_gen.c **** {
 3984              		.loc 1 719 1 is_stmt 1 view -0
 3985              		.cfi_startproc
 3986              		@ args = 0, pretend = 0, frame = 8
 3987              		@ frame_needed = 0, uses_anonymous_args = 0
 3988              		.loc 1 719 1 is_stmt 0 view .LVU747
 3989 0000 00B5     		push	{lr}
 3990              	.LCFI264:
 3991              		.cfi_def_cfa_offset 4
 3992              		.cfi_offset 14, -4
 3993 0002 83B0     		sub	sp, sp, #12
 3994              	.LCFI265:
 3995              		.cfi_def_cfa_offset 16
 3996 0004 1346     		mov	r3, r2
 720:Lib/lvgl/src/core/lv_obj_style_gen.c ****     lv_style_value_t v = {
 3997              		.loc 1 720 5 is_stmt 1 view .LVU748
 3998              		.loc 1 720 22 is_stmt 0 view .LVU749
 3999 0006 0191     		str	r1, [sp, #4]
 721:Lib/lvgl/src/core/lv_obj_style_gen.c ****         .num = (int32_t)value
 722:Lib/lvgl/src/core/lv_obj_style_gen.c ****     };
 723:Lib/lvgl/src/core/lv_obj_style_gen.c ****     lv_obj_set_local_style_prop(obj, LV_STYLE_ANIM_DURATION, v, selector);
 4000              		.loc 1 723 5 is_stmt 1 view .LVU750
 4001 0008 0A46     		mov	r2, r1
 4002              	.LVL343:
 4003              		.loc 1 723 5 is_stmt 0 view .LVU751
 4004 000a 6421     		movs	r1, #100
 4005              	.LVL344:
 4006              		.loc 1 723 5 view .LVU752
 4007 000c FFF7FEFF 		bl	lv_obj_set_local_style_prop
 4008              	.LVL345:
 724:Lib/lvgl/src/core/lv_obj_style_gen.c **** }
 4009              		.loc 1 724 1 view .LVU753
 4010 0010 03B0     		add	sp, sp, #12
 4011              	.LCFI266:
 4012              		.cfi_def_cfa_offset 4
 4013              		@ sp needed
ARM GAS  C:\Users\Alex\AppData\Local\Temp\cc6CnhIe.s 			page 81


 4014 0012 5DF804FB 		ldr	pc, [sp], #4
 4015              		.loc 1 724 1 view .LVU754
 4016              		.cfi_endproc
 4017              	.LFE321:
 4019              		.section	.text.lv_obj_set_style_transition,"ax",%progbits
 4020              		.align	1
 4021              		.global	lv_obj_set_style_transition
 4022              		.syntax unified
 4023              		.thumb
 4024              		.thumb_func
 4026              	lv_obj_set_style_transition:
 4027              	.LVL346:
 4028              	.LFB322:
 725:Lib/lvgl/src/core/lv_obj_style_gen.c **** 
 726:Lib/lvgl/src/core/lv_obj_style_gen.c **** void lv_obj_set_style_transition(lv_obj_t * obj, const lv_style_transition_dsc_t * value, lv_style_
 727:Lib/lvgl/src/core/lv_obj_style_gen.c **** {
 4029              		.loc 1 727 1 is_stmt 1 view -0
 4030              		.cfi_startproc
 4031              		@ args = 0, pretend = 0, frame = 8
 4032              		@ frame_needed = 0, uses_anonymous_args = 0
 4033              		.loc 1 727 1 is_stmt 0 view .LVU756
 4034 0000 00B5     		push	{lr}
 4035              	.LCFI267:
 4036              		.cfi_def_cfa_offset 4
 4037              		.cfi_offset 14, -4
 4038 0002 83B0     		sub	sp, sp, #12
 4039              	.LCFI268:
 4040              		.cfi_def_cfa_offset 16
 4041 0004 1346     		mov	r3, r2
 728:Lib/lvgl/src/core/lv_obj_style_gen.c ****     lv_style_value_t v = {
 4042              		.loc 1 728 5 is_stmt 1 view .LVU757
 4043              		.loc 1 728 22 is_stmt 0 view .LVU758
 4044 0006 0191     		str	r1, [sp, #4]
 729:Lib/lvgl/src/core/lv_obj_style_gen.c ****         .ptr = value
 730:Lib/lvgl/src/core/lv_obj_style_gen.c ****     };
 731:Lib/lvgl/src/core/lv_obj_style_gen.c ****     lv_obj_set_local_style_prop(obj, LV_STYLE_TRANSITION, v, selector);
 4045              		.loc 1 731 5 is_stmt 1 view .LVU759
 4046 0008 0A46     		mov	r2, r1
 4047              	.LVL347:
 4048              		.loc 1 731 5 is_stmt 0 view .LVU760
 4049 000a 6621     		movs	r1, #102
 4050              	.LVL348:
 4051              		.loc 1 731 5 view .LVU761
 4052 000c FFF7FEFF 		bl	lv_obj_set_local_style_prop
 4053              	.LVL349:
 732:Lib/lvgl/src/core/lv_obj_style_gen.c **** }
 4054              		.loc 1 732 1 view .LVU762
 4055 0010 03B0     		add	sp, sp, #12
 4056              	.LCFI269:
 4057              		.cfi_def_cfa_offset 4
 4058              		@ sp needed
 4059 0012 5DF804FB 		ldr	pc, [sp], #4
 4060              		.loc 1 732 1 view .LVU763
 4061              		.cfi_endproc
 4062              	.LFE322:
 4064              		.section	.text.lv_obj_set_style_blend_mode,"ax",%progbits
 4065              		.align	1
ARM GAS  C:\Users\Alex\AppData\Local\Temp\cc6CnhIe.s 			page 82


 4066              		.global	lv_obj_set_style_blend_mode
 4067              		.syntax unified
 4068              		.thumb
 4069              		.thumb_func
 4071              	lv_obj_set_style_blend_mode:
 4072              	.LVL350:
 4073              	.LFB323:
 733:Lib/lvgl/src/core/lv_obj_style_gen.c **** 
 734:Lib/lvgl/src/core/lv_obj_style_gen.c **** void lv_obj_set_style_blend_mode(lv_obj_t * obj, lv_blend_mode_t value, lv_style_selector_t selecto
 735:Lib/lvgl/src/core/lv_obj_style_gen.c **** {
 4074              		.loc 1 735 1 is_stmt 1 view -0
 4075              		.cfi_startproc
 4076              		@ args = 0, pretend = 0, frame = 8
 4077              		@ frame_needed = 0, uses_anonymous_args = 0
 4078              		.loc 1 735 1 is_stmt 0 view .LVU765
 4079 0000 00B5     		push	{lr}
 4080              	.LCFI270:
 4081              		.cfi_def_cfa_offset 4
 4082              		.cfi_offset 14, -4
 4083 0002 83B0     		sub	sp, sp, #12
 4084              	.LCFI271:
 4085              		.cfi_def_cfa_offset 16
 4086 0004 1346     		mov	r3, r2
 736:Lib/lvgl/src/core/lv_obj_style_gen.c ****     lv_style_value_t v = {
 4087              		.loc 1 736 5 is_stmt 1 view .LVU766
 4088              		.loc 1 736 22 is_stmt 0 view .LVU767
 4089 0006 0191     		str	r1, [sp, #4]
 737:Lib/lvgl/src/core/lv_obj_style_gen.c ****         .num = (int32_t)value
 738:Lib/lvgl/src/core/lv_obj_style_gen.c ****     };
 739:Lib/lvgl/src/core/lv_obj_style_gen.c ****     lv_obj_set_local_style_prop(obj, LV_STYLE_BLEND_MODE, v, selector);
 4090              		.loc 1 739 5 is_stmt 1 view .LVU768
 4091 0008 0A46     		mov	r2, r1
 4092              	.LVL351:
 4093              		.loc 1 739 5 is_stmt 0 view .LVU769
 4094 000a 6721     		movs	r1, #103
 4095              	.LVL352:
 4096              		.loc 1 739 5 view .LVU770
 4097 000c FFF7FEFF 		bl	lv_obj_set_local_style_prop
 4098              	.LVL353:
 740:Lib/lvgl/src/core/lv_obj_style_gen.c **** }
 4099              		.loc 1 740 1 view .LVU771
 4100 0010 03B0     		add	sp, sp, #12
 4101              	.LCFI272:
 4102              		.cfi_def_cfa_offset 4
 4103              		@ sp needed
 4104 0012 5DF804FB 		ldr	pc, [sp], #4
 4105              		.cfi_endproc
 4106              	.LFE323:
 4108              		.section	.text.lv_obj_set_style_layout,"ax",%progbits
 4109              		.align	1
 4110              		.global	lv_obj_set_style_layout
 4111              		.syntax unified
 4112              		.thumb
 4113              		.thumb_func
 4115              	lv_obj_set_style_layout:
 4116              	.LVL354:
 4117              	.LFB324:
ARM GAS  C:\Users\Alex\AppData\Local\Temp\cc6CnhIe.s 			page 83


 741:Lib/lvgl/src/core/lv_obj_style_gen.c **** 
 742:Lib/lvgl/src/core/lv_obj_style_gen.c **** void lv_obj_set_style_layout(lv_obj_t * obj, uint16_t value, lv_style_selector_t selector)
 743:Lib/lvgl/src/core/lv_obj_style_gen.c **** {
 4118              		.loc 1 743 1 is_stmt 1 view -0
 4119              		.cfi_startproc
 4120              		@ args = 0, pretend = 0, frame = 8
 4121              		@ frame_needed = 0, uses_anonymous_args = 0
 4122              		.loc 1 743 1 is_stmt 0 view .LVU773
 4123 0000 00B5     		push	{lr}
 4124              	.LCFI273:
 4125              		.cfi_def_cfa_offset 4
 4126              		.cfi_offset 14, -4
 4127 0002 83B0     		sub	sp, sp, #12
 4128              	.LCFI274:
 4129              		.cfi_def_cfa_offset 16
 4130 0004 1346     		mov	r3, r2
 744:Lib/lvgl/src/core/lv_obj_style_gen.c ****     lv_style_value_t v = {
 4131              		.loc 1 744 5 is_stmt 1 view .LVU774
 4132              		.loc 1 744 22 is_stmt 0 view .LVU775
 4133 0006 0191     		str	r1, [sp, #4]
 745:Lib/lvgl/src/core/lv_obj_style_gen.c ****         .num = (int32_t)value
 746:Lib/lvgl/src/core/lv_obj_style_gen.c ****     };
 747:Lib/lvgl/src/core/lv_obj_style_gen.c ****     lv_obj_set_local_style_prop(obj, LV_STYLE_LAYOUT, v, selector);
 4134              		.loc 1 747 5 is_stmt 1 view .LVU776
 4135 0008 0A46     		mov	r2, r1
 4136              	.LVL355:
 4137              		.loc 1 747 5 is_stmt 0 view .LVU777
 4138 000a 1621     		movs	r1, #22
 4139              	.LVL356:
 4140              		.loc 1 747 5 view .LVU778
 4141 000c FFF7FEFF 		bl	lv_obj_set_local_style_prop
 4142              	.LVL357:
 748:Lib/lvgl/src/core/lv_obj_style_gen.c **** }
 4143              		.loc 1 748 1 view .LVU779
 4144 0010 03B0     		add	sp, sp, #12
 4145              	.LCFI275:
 4146              		.cfi_def_cfa_offset 4
 4147              		@ sp needed
 4148 0012 5DF804FB 		ldr	pc, [sp], #4
 4149              		.cfi_endproc
 4150              	.LFE324:
 4152              		.section	.text.lv_obj_set_style_base_dir,"ax",%progbits
 4153              		.align	1
 4154              		.global	lv_obj_set_style_base_dir
 4155              		.syntax unified
 4156              		.thumb
 4157              		.thumb_func
 4159              	lv_obj_set_style_base_dir:
 4160              	.LVL358:
 4161              	.LFB325:
 749:Lib/lvgl/src/core/lv_obj_style_gen.c **** 
 750:Lib/lvgl/src/core/lv_obj_style_gen.c **** void lv_obj_set_style_base_dir(lv_obj_t * obj, lv_base_dir_t value, lv_style_selector_t selector)
 751:Lib/lvgl/src/core/lv_obj_style_gen.c **** {
 4162              		.loc 1 751 1 is_stmt 1 view -0
 4163              		.cfi_startproc
 4164              		@ args = 0, pretend = 0, frame = 8
 4165              		@ frame_needed = 0, uses_anonymous_args = 0
ARM GAS  C:\Users\Alex\AppData\Local\Temp\cc6CnhIe.s 			page 84


 4166              		.loc 1 751 1 is_stmt 0 view .LVU781
 4167 0000 00B5     		push	{lr}
 4168              	.LCFI276:
 4169              		.cfi_def_cfa_offset 4
 4170              		.cfi_offset 14, -4
 4171 0002 83B0     		sub	sp, sp, #12
 4172              	.LCFI277:
 4173              		.cfi_def_cfa_offset 16
 4174 0004 1346     		mov	r3, r2
 752:Lib/lvgl/src/core/lv_obj_style_gen.c ****     lv_style_value_t v = {
 4175              		.loc 1 752 5 is_stmt 1 view .LVU782
 4176              		.loc 1 752 22 is_stmt 0 view .LVU783
 4177 0006 0191     		str	r1, [sp, #4]
 753:Lib/lvgl/src/core/lv_obj_style_gen.c ****         .num = (int32_t)value
 754:Lib/lvgl/src/core/lv_obj_style_gen.c ****     };
 755:Lib/lvgl/src/core/lv_obj_style_gen.c ****     lv_obj_set_local_style_prop(obj, LV_STYLE_BASE_DIR, v, selector);
 4178              		.loc 1 755 5 is_stmt 1 view .LVU784
 4179 0008 0A46     		mov	r2, r1
 4180              	.LVL359:
 4181              		.loc 1 755 5 is_stmt 0 view .LVU785
 4182 000a 2721     		movs	r1, #39
 4183              	.LVL360:
 4184              		.loc 1 755 5 view .LVU786
 4185 000c FFF7FEFF 		bl	lv_obj_set_local_style_prop
 4186              	.LVL361:
 756:Lib/lvgl/src/core/lv_obj_style_gen.c **** }
 4187              		.loc 1 756 1 view .LVU787
 4188 0010 03B0     		add	sp, sp, #12
 4189              	.LCFI278:
 4190              		.cfi_def_cfa_offset 4
 4191              		@ sp needed
 4192 0012 5DF804FB 		ldr	pc, [sp], #4
 4193              		.cfi_endproc
 4194              	.LFE325:
 4196              		.section	.text.lv_obj_set_style_flex_flow,"ax",%progbits
 4197              		.align	1
 4198              		.global	lv_obj_set_style_flex_flow
 4199              		.syntax unified
 4200              		.thumb
 4201              		.thumb_func
 4203              	lv_obj_set_style_flex_flow:
 4204              	.LVL362:
 4205              	.LFB326:
 757:Lib/lvgl/src/core/lv_obj_style_gen.c **** #if LV_USE_FLEX
 758:Lib/lvgl/src/core/lv_obj_style_gen.c **** 
 759:Lib/lvgl/src/core/lv_obj_style_gen.c **** 
 760:Lib/lvgl/src/core/lv_obj_style_gen.c **** void lv_obj_set_style_flex_flow(lv_obj_t * obj, lv_flex_flow_t value, lv_style_selector_t selector)
 761:Lib/lvgl/src/core/lv_obj_style_gen.c **** {
 4206              		.loc 1 761 1 is_stmt 1 view -0
 4207              		.cfi_startproc
 4208              		@ args = 0, pretend = 0, frame = 8
 4209              		@ frame_needed = 0, uses_anonymous_args = 0
 4210              		.loc 1 761 1 is_stmt 0 view .LVU789
 4211 0000 00B5     		push	{lr}
 4212              	.LCFI279:
 4213              		.cfi_def_cfa_offset 4
 4214              		.cfi_offset 14, -4
ARM GAS  C:\Users\Alex\AppData\Local\Temp\cc6CnhIe.s 			page 85


 4215 0002 83B0     		sub	sp, sp, #12
 4216              	.LCFI280:
 4217              		.cfi_def_cfa_offset 16
 4218 0004 1346     		mov	r3, r2
 762:Lib/lvgl/src/core/lv_obj_style_gen.c ****     lv_style_value_t v = {
 4219              		.loc 1 762 5 is_stmt 1 view .LVU790
 4220              		.loc 1 762 22 is_stmt 0 view .LVU791
 4221 0006 0191     		str	r1, [sp, #4]
 763:Lib/lvgl/src/core/lv_obj_style_gen.c ****         .num = (int32_t)value
 764:Lib/lvgl/src/core/lv_obj_style_gen.c ****     };
 765:Lib/lvgl/src/core/lv_obj_style_gen.c ****     lv_obj_set_local_style_prop(obj, LV_STYLE_FLEX_FLOW, v, selector);
 4222              		.loc 1 765 5 is_stmt 1 view .LVU792
 4223 0008 0A46     		mov	r2, r1
 4224              	.LVL363:
 4225              		.loc 1 765 5 is_stmt 0 view .LVU793
 4226 000a 7321     		movs	r1, #115
 4227              	.LVL364:
 4228              		.loc 1 765 5 view .LVU794
 4229 000c FFF7FEFF 		bl	lv_obj_set_local_style_prop
 4230              	.LVL365:
 766:Lib/lvgl/src/core/lv_obj_style_gen.c **** }
 4231              		.loc 1 766 1 view .LVU795
 4232 0010 03B0     		add	sp, sp, #12
 4233              	.LCFI281:
 4234              		.cfi_def_cfa_offset 4
 4235              		@ sp needed
 4236 0012 5DF804FB 		ldr	pc, [sp], #4
 4237              		.cfi_endproc
 4238              	.LFE326:
 4240              		.section	.text.lv_obj_set_style_flex_main_place,"ax",%progbits
 4241              		.align	1
 4242              		.global	lv_obj_set_style_flex_main_place
 4243              		.syntax unified
 4244              		.thumb
 4245              		.thumb_func
 4247              	lv_obj_set_style_flex_main_place:
 4248              	.LVL366:
 4249              	.LFB327:
 767:Lib/lvgl/src/core/lv_obj_style_gen.c **** 
 768:Lib/lvgl/src/core/lv_obj_style_gen.c **** void lv_obj_set_style_flex_main_place(lv_obj_t * obj, lv_flex_align_t value, lv_style_selector_t se
 769:Lib/lvgl/src/core/lv_obj_style_gen.c **** {
 4250              		.loc 1 769 1 is_stmt 1 view -0
 4251              		.cfi_startproc
 4252              		@ args = 0, pretend = 0, frame = 8
 4253              		@ frame_needed = 0, uses_anonymous_args = 0
 4254              		.loc 1 769 1 is_stmt 0 view .LVU797
 4255 0000 00B5     		push	{lr}
 4256              	.LCFI282:
 4257              		.cfi_def_cfa_offset 4
 4258              		.cfi_offset 14, -4
 4259 0002 83B0     		sub	sp, sp, #12
 4260              	.LCFI283:
 4261              		.cfi_def_cfa_offset 16
 4262 0004 1346     		mov	r3, r2
 770:Lib/lvgl/src/core/lv_obj_style_gen.c ****     lv_style_value_t v = {
 4263              		.loc 1 770 5 is_stmt 1 view .LVU798
 4264              		.loc 1 770 22 is_stmt 0 view .LVU799
ARM GAS  C:\Users\Alex\AppData\Local\Temp\cc6CnhIe.s 			page 86


 4265 0006 0191     		str	r1, [sp, #4]
 771:Lib/lvgl/src/core/lv_obj_style_gen.c ****         .num = (int32_t)value
 772:Lib/lvgl/src/core/lv_obj_style_gen.c ****     };
 773:Lib/lvgl/src/core/lv_obj_style_gen.c ****     lv_obj_set_local_style_prop(obj, LV_STYLE_FLEX_MAIN_PLACE, v, selector);
 4266              		.loc 1 773 5 is_stmt 1 view .LVU800
 4267 0008 0A46     		mov	r2, r1
 4268              	.LVL367:
 4269              		.loc 1 773 5 is_stmt 0 view .LVU801
 4270 000a 7421     		movs	r1, #116
 4271              	.LVL368:
 4272              		.loc 1 773 5 view .LVU802
 4273 000c FFF7FEFF 		bl	lv_obj_set_local_style_prop
 4274              	.LVL369:
 774:Lib/lvgl/src/core/lv_obj_style_gen.c **** }
 4275              		.loc 1 774 1 view .LVU803
 4276 0010 03B0     		add	sp, sp, #12
 4277              	.LCFI284:
 4278              		.cfi_def_cfa_offset 4
 4279              		@ sp needed
 4280 0012 5DF804FB 		ldr	pc, [sp], #4
 4281              		.cfi_endproc
 4282              	.LFE327:
 4284              		.section	.text.lv_obj_set_style_flex_cross_place,"ax",%progbits
 4285              		.align	1
 4286              		.global	lv_obj_set_style_flex_cross_place
 4287              		.syntax unified
 4288              		.thumb
 4289              		.thumb_func
 4291              	lv_obj_set_style_flex_cross_place:
 4292              	.LVL370:
 4293              	.LFB328:
 775:Lib/lvgl/src/core/lv_obj_style_gen.c **** 
 776:Lib/lvgl/src/core/lv_obj_style_gen.c **** void lv_obj_set_style_flex_cross_place(lv_obj_t * obj, lv_flex_align_t value, lv_style_selector_t s
 777:Lib/lvgl/src/core/lv_obj_style_gen.c **** {
 4294              		.loc 1 777 1 is_stmt 1 view -0
 4295              		.cfi_startproc
 4296              		@ args = 0, pretend = 0, frame = 8
 4297              		@ frame_needed = 0, uses_anonymous_args = 0
 4298              		.loc 1 777 1 is_stmt 0 view .LVU805
 4299 0000 00B5     		push	{lr}
 4300              	.LCFI285:
 4301              		.cfi_def_cfa_offset 4
 4302              		.cfi_offset 14, -4
 4303 0002 83B0     		sub	sp, sp, #12
 4304              	.LCFI286:
 4305              		.cfi_def_cfa_offset 16
 4306 0004 1346     		mov	r3, r2
 778:Lib/lvgl/src/core/lv_obj_style_gen.c ****     lv_style_value_t v = {
 4307              		.loc 1 778 5 is_stmt 1 view .LVU806
 4308              		.loc 1 778 22 is_stmt 0 view .LVU807
 4309 0006 0191     		str	r1, [sp, #4]
 779:Lib/lvgl/src/core/lv_obj_style_gen.c ****         .num = (int32_t)value
 780:Lib/lvgl/src/core/lv_obj_style_gen.c ****     };
 781:Lib/lvgl/src/core/lv_obj_style_gen.c ****     lv_obj_set_local_style_prop(obj, LV_STYLE_FLEX_CROSS_PLACE, v, selector);
 4310              		.loc 1 781 5 is_stmt 1 view .LVU808
 4311 0008 0A46     		mov	r2, r1
 4312              	.LVL371:
ARM GAS  C:\Users\Alex\AppData\Local\Temp\cc6CnhIe.s 			page 87


 4313              		.loc 1 781 5 is_stmt 0 view .LVU809
 4314 000a 7521     		movs	r1, #117
 4315              	.LVL372:
 4316              		.loc 1 781 5 view .LVU810
 4317 000c FFF7FEFF 		bl	lv_obj_set_local_style_prop
 4318              	.LVL373:
 782:Lib/lvgl/src/core/lv_obj_style_gen.c **** }
 4319              		.loc 1 782 1 view .LVU811
 4320 0010 03B0     		add	sp, sp, #12
 4321              	.LCFI287:
 4322              		.cfi_def_cfa_offset 4
 4323              		@ sp needed
 4324 0012 5DF804FB 		ldr	pc, [sp], #4
 4325              		.cfi_endproc
 4326              	.LFE328:
 4328              		.section	.text.lv_obj_set_style_flex_track_place,"ax",%progbits
 4329              		.align	1
 4330              		.global	lv_obj_set_style_flex_track_place
 4331              		.syntax unified
 4332              		.thumb
 4333              		.thumb_func
 4335              	lv_obj_set_style_flex_track_place:
 4336              	.LVL374:
 4337              	.LFB329:
 783:Lib/lvgl/src/core/lv_obj_style_gen.c **** 
 784:Lib/lvgl/src/core/lv_obj_style_gen.c **** void lv_obj_set_style_flex_track_place(lv_obj_t * obj, lv_flex_align_t value, lv_style_selector_t s
 785:Lib/lvgl/src/core/lv_obj_style_gen.c **** {
 4338              		.loc 1 785 1 is_stmt 1 view -0
 4339              		.cfi_startproc
 4340              		@ args = 0, pretend = 0, frame = 8
 4341              		@ frame_needed = 0, uses_anonymous_args = 0
 4342              		.loc 1 785 1 is_stmt 0 view .LVU813
 4343 0000 00B5     		push	{lr}
 4344              	.LCFI288:
 4345              		.cfi_def_cfa_offset 4
 4346              		.cfi_offset 14, -4
 4347 0002 83B0     		sub	sp, sp, #12
 4348              	.LCFI289:
 4349              		.cfi_def_cfa_offset 16
 4350 0004 1346     		mov	r3, r2
 786:Lib/lvgl/src/core/lv_obj_style_gen.c ****     lv_style_value_t v = {
 4351              		.loc 1 786 5 is_stmt 1 view .LVU814
 4352              		.loc 1 786 22 is_stmt 0 view .LVU815
 4353 0006 0191     		str	r1, [sp, #4]
 787:Lib/lvgl/src/core/lv_obj_style_gen.c ****         .num = (int32_t)value
 788:Lib/lvgl/src/core/lv_obj_style_gen.c ****     };
 789:Lib/lvgl/src/core/lv_obj_style_gen.c ****     lv_obj_set_local_style_prop(obj, LV_STYLE_FLEX_TRACK_PLACE, v, selector);
 4354              		.loc 1 789 5 is_stmt 1 view .LVU816
 4355 0008 0A46     		mov	r2, r1
 4356              	.LVL375:
 4357              		.loc 1 789 5 is_stmt 0 view .LVU817
 4358 000a 7621     		movs	r1, #118
 4359              	.LVL376:
 4360              		.loc 1 789 5 view .LVU818
 4361 000c FFF7FEFF 		bl	lv_obj_set_local_style_prop
 4362              	.LVL377:
 790:Lib/lvgl/src/core/lv_obj_style_gen.c **** }
ARM GAS  C:\Users\Alex\AppData\Local\Temp\cc6CnhIe.s 			page 88


 4363              		.loc 1 790 1 view .LVU819
 4364 0010 03B0     		add	sp, sp, #12
 4365              	.LCFI290:
 4366              		.cfi_def_cfa_offset 4
 4367              		@ sp needed
 4368 0012 5DF804FB 		ldr	pc, [sp], #4
 4369              		.cfi_endproc
 4370              	.LFE329:
 4372              		.section	.text.lv_obj_set_style_flex_grow,"ax",%progbits
 4373              		.align	1
 4374              		.global	lv_obj_set_style_flex_grow
 4375              		.syntax unified
 4376              		.thumb
 4377              		.thumb_func
 4379              	lv_obj_set_style_flex_grow:
 4380              	.LVL378:
 4381              	.LFB330:
 791:Lib/lvgl/src/core/lv_obj_style_gen.c **** 
 792:Lib/lvgl/src/core/lv_obj_style_gen.c **** void lv_obj_set_style_flex_grow(lv_obj_t * obj, uint8_t value, lv_style_selector_t selector)
 793:Lib/lvgl/src/core/lv_obj_style_gen.c **** {
 4382              		.loc 1 793 1 is_stmt 1 view -0
 4383              		.cfi_startproc
 4384              		@ args = 0, pretend = 0, frame = 8
 4385              		@ frame_needed = 0, uses_anonymous_args = 0
 4386              		.loc 1 793 1 is_stmt 0 view .LVU821
 4387 0000 00B5     		push	{lr}
 4388              	.LCFI291:
 4389              		.cfi_def_cfa_offset 4
 4390              		.cfi_offset 14, -4
 4391 0002 83B0     		sub	sp, sp, #12
 4392              	.LCFI292:
 4393              		.cfi_def_cfa_offset 16
 4394 0004 1346     		mov	r3, r2
 794:Lib/lvgl/src/core/lv_obj_style_gen.c ****     lv_style_value_t v = {
 4395              		.loc 1 794 5 is_stmt 1 view .LVU822
 4396              		.loc 1 794 22 is_stmt 0 view .LVU823
 4397 0006 0191     		str	r1, [sp, #4]
 795:Lib/lvgl/src/core/lv_obj_style_gen.c ****         .num = (int32_t)value
 796:Lib/lvgl/src/core/lv_obj_style_gen.c ****     };
 797:Lib/lvgl/src/core/lv_obj_style_gen.c ****     lv_obj_set_local_style_prop(obj, LV_STYLE_FLEX_GROW, v, selector);
 4398              		.loc 1 797 5 is_stmt 1 view .LVU824
 4399 0008 0A46     		mov	r2, r1
 4400              	.LVL379:
 4401              		.loc 1 797 5 is_stmt 0 view .LVU825
 4402 000a 7721     		movs	r1, #119
 4403              	.LVL380:
 4404              		.loc 1 797 5 view .LVU826
 4405 000c FFF7FEFF 		bl	lv_obj_set_local_style_prop
 4406              	.LVL381:
 798:Lib/lvgl/src/core/lv_obj_style_gen.c **** }
 4407              		.loc 1 798 1 view .LVU827
 4408 0010 03B0     		add	sp, sp, #12
 4409              	.LCFI293:
 4410              		.cfi_def_cfa_offset 4
 4411              		@ sp needed
 4412 0012 5DF804FB 		ldr	pc, [sp], #4
 4413              		.cfi_endproc
ARM GAS  C:\Users\Alex\AppData\Local\Temp\cc6CnhIe.s 			page 89


 4414              	.LFE330:
 4416              		.section	.text.lv_obj_set_style_grid_column_dsc_array,"ax",%progbits
 4417              		.align	1
 4418              		.global	lv_obj_set_style_grid_column_dsc_array
 4419              		.syntax unified
 4420              		.thumb
 4421              		.thumb_func
 4423              	lv_obj_set_style_grid_column_dsc_array:
 4424              	.LVL382:
 4425              	.LFB331:
 799:Lib/lvgl/src/core/lv_obj_style_gen.c **** #endif /*LV_USE_FLEX*/
 800:Lib/lvgl/src/core/lv_obj_style_gen.c **** 
 801:Lib/lvgl/src/core/lv_obj_style_gen.c **** #if LV_USE_GRID
 802:Lib/lvgl/src/core/lv_obj_style_gen.c **** 
 803:Lib/lvgl/src/core/lv_obj_style_gen.c **** 
 804:Lib/lvgl/src/core/lv_obj_style_gen.c **** void lv_obj_set_style_grid_column_dsc_array(lv_obj_t * obj, const int32_t * value, lv_style_selecto
 805:Lib/lvgl/src/core/lv_obj_style_gen.c **** {
 4426              		.loc 1 805 1 is_stmt 1 view -0
 4427              		.cfi_startproc
 4428              		@ args = 0, pretend = 0, frame = 8
 4429              		@ frame_needed = 0, uses_anonymous_args = 0
 4430              		.loc 1 805 1 is_stmt 0 view .LVU829
 4431 0000 00B5     		push	{lr}
 4432              	.LCFI294:
 4433              		.cfi_def_cfa_offset 4
 4434              		.cfi_offset 14, -4
 4435 0002 83B0     		sub	sp, sp, #12
 4436              	.LCFI295:
 4437              		.cfi_def_cfa_offset 16
 4438 0004 1346     		mov	r3, r2
 806:Lib/lvgl/src/core/lv_obj_style_gen.c ****     lv_style_value_t v = {
 4439              		.loc 1 806 5 is_stmt 1 view .LVU830
 4440              		.loc 1 806 22 is_stmt 0 view .LVU831
 4441 0006 0191     		str	r1, [sp, #4]
 807:Lib/lvgl/src/core/lv_obj_style_gen.c ****         .ptr = value
 808:Lib/lvgl/src/core/lv_obj_style_gen.c ****     };
 809:Lib/lvgl/src/core/lv_obj_style_gen.c ****     lv_obj_set_local_style_prop(obj, LV_STYLE_GRID_COLUMN_DSC_ARRAY, v, selector);
 4442              		.loc 1 809 5 is_stmt 1 view .LVU832
 4443 0008 0A46     		mov	r2, r1
 4444              	.LVL383:
 4445              		.loc 1 809 5 is_stmt 0 view .LVU833
 4446 000a 7B21     		movs	r1, #123
 4447              	.LVL384:
 4448              		.loc 1 809 5 view .LVU834
 4449 000c FFF7FEFF 		bl	lv_obj_set_local_style_prop
 4450              	.LVL385:
 810:Lib/lvgl/src/core/lv_obj_style_gen.c **** }
 4451              		.loc 1 810 1 view .LVU835
 4452 0010 03B0     		add	sp, sp, #12
 4453              	.LCFI296:
 4454              		.cfi_def_cfa_offset 4
 4455              		@ sp needed
 4456 0012 5DF804FB 		ldr	pc, [sp], #4
 4457              		.loc 1 810 1 view .LVU836
 4458              		.cfi_endproc
 4459              	.LFE331:
 4461              		.section	.text.lv_obj_set_style_grid_column_align,"ax",%progbits
ARM GAS  C:\Users\Alex\AppData\Local\Temp\cc6CnhIe.s 			page 90


 4462              		.align	1
 4463              		.global	lv_obj_set_style_grid_column_align
 4464              		.syntax unified
 4465              		.thumb
 4466              		.thumb_func
 4468              	lv_obj_set_style_grid_column_align:
 4469              	.LVL386:
 4470              	.LFB332:
 811:Lib/lvgl/src/core/lv_obj_style_gen.c **** 
 812:Lib/lvgl/src/core/lv_obj_style_gen.c **** void lv_obj_set_style_grid_column_align(lv_obj_t * obj, lv_grid_align_t value, lv_style_selector_t 
 813:Lib/lvgl/src/core/lv_obj_style_gen.c **** {
 4471              		.loc 1 813 1 is_stmt 1 view -0
 4472              		.cfi_startproc
 4473              		@ args = 0, pretend = 0, frame = 8
 4474              		@ frame_needed = 0, uses_anonymous_args = 0
 4475              		.loc 1 813 1 is_stmt 0 view .LVU838
 4476 0000 00B5     		push	{lr}
 4477              	.LCFI297:
 4478              		.cfi_def_cfa_offset 4
 4479              		.cfi_offset 14, -4
 4480 0002 83B0     		sub	sp, sp, #12
 4481              	.LCFI298:
 4482              		.cfi_def_cfa_offset 16
 4483 0004 1346     		mov	r3, r2
 814:Lib/lvgl/src/core/lv_obj_style_gen.c ****     lv_style_value_t v = {
 4484              		.loc 1 814 5 is_stmt 1 view .LVU839
 4485              		.loc 1 814 22 is_stmt 0 view .LVU840
 4486 0006 0191     		str	r1, [sp, #4]
 815:Lib/lvgl/src/core/lv_obj_style_gen.c ****         .num = (int32_t)value
 816:Lib/lvgl/src/core/lv_obj_style_gen.c ****     };
 817:Lib/lvgl/src/core/lv_obj_style_gen.c ****     lv_obj_set_local_style_prop(obj, LV_STYLE_GRID_COLUMN_ALIGN, v, selector);
 4487              		.loc 1 817 5 is_stmt 1 view .LVU841
 4488 0008 0A46     		mov	r2, r1
 4489              	.LVL387:
 4490              		.loc 1 817 5 is_stmt 0 view .LVU842
 4491 000a 7821     		movs	r1, #120
 4492              	.LVL388:
 4493              		.loc 1 817 5 view .LVU843
 4494 000c FFF7FEFF 		bl	lv_obj_set_local_style_prop
 4495              	.LVL389:
 818:Lib/lvgl/src/core/lv_obj_style_gen.c **** }
 4496              		.loc 1 818 1 view .LVU844
 4497 0010 03B0     		add	sp, sp, #12
 4498              	.LCFI299:
 4499              		.cfi_def_cfa_offset 4
 4500              		@ sp needed
 4501 0012 5DF804FB 		ldr	pc, [sp], #4
 4502              		.cfi_endproc
 4503              	.LFE332:
 4505              		.section	.text.lv_obj_set_style_grid_row_dsc_array,"ax",%progbits
 4506              		.align	1
 4507              		.global	lv_obj_set_style_grid_row_dsc_array
 4508              		.syntax unified
 4509              		.thumb
 4510              		.thumb_func
 4512              	lv_obj_set_style_grid_row_dsc_array:
 4513              	.LVL390:
ARM GAS  C:\Users\Alex\AppData\Local\Temp\cc6CnhIe.s 			page 91


 4514              	.LFB333:
 819:Lib/lvgl/src/core/lv_obj_style_gen.c **** 
 820:Lib/lvgl/src/core/lv_obj_style_gen.c **** void lv_obj_set_style_grid_row_dsc_array(lv_obj_t * obj, const int32_t * value, lv_style_selector_t
 821:Lib/lvgl/src/core/lv_obj_style_gen.c **** {
 4515              		.loc 1 821 1 is_stmt 1 view -0
 4516              		.cfi_startproc
 4517              		@ args = 0, pretend = 0, frame = 8
 4518              		@ frame_needed = 0, uses_anonymous_args = 0
 4519              		.loc 1 821 1 is_stmt 0 view .LVU846
 4520 0000 00B5     		push	{lr}
 4521              	.LCFI300:
 4522              		.cfi_def_cfa_offset 4
 4523              		.cfi_offset 14, -4
 4524 0002 83B0     		sub	sp, sp, #12
 4525              	.LCFI301:
 4526              		.cfi_def_cfa_offset 16
 4527 0004 1346     		mov	r3, r2
 822:Lib/lvgl/src/core/lv_obj_style_gen.c ****     lv_style_value_t v = {
 4528              		.loc 1 822 5 is_stmt 1 view .LVU847
 4529              		.loc 1 822 22 is_stmt 0 view .LVU848
 4530 0006 0191     		str	r1, [sp, #4]
 823:Lib/lvgl/src/core/lv_obj_style_gen.c ****         .ptr = value
 824:Lib/lvgl/src/core/lv_obj_style_gen.c ****     };
 825:Lib/lvgl/src/core/lv_obj_style_gen.c ****     lv_obj_set_local_style_prop(obj, LV_STYLE_GRID_ROW_DSC_ARRAY, v, selector);
 4531              		.loc 1 825 5 is_stmt 1 view .LVU849
 4532 0008 0A46     		mov	r2, r1
 4533              	.LVL391:
 4534              		.loc 1 825 5 is_stmt 0 view .LVU850
 4535 000a 7A21     		movs	r1, #122
 4536              	.LVL392:
 4537              		.loc 1 825 5 view .LVU851
 4538 000c FFF7FEFF 		bl	lv_obj_set_local_style_prop
 4539              	.LVL393:
 826:Lib/lvgl/src/core/lv_obj_style_gen.c **** }
 4540              		.loc 1 826 1 view .LVU852
 4541 0010 03B0     		add	sp, sp, #12
 4542              	.LCFI302:
 4543              		.cfi_def_cfa_offset 4
 4544              		@ sp needed
 4545 0012 5DF804FB 		ldr	pc, [sp], #4
 4546              		.loc 1 826 1 view .LVU853
 4547              		.cfi_endproc
 4548              	.LFE333:
 4550              		.section	.text.lv_obj_set_style_grid_row_align,"ax",%progbits
 4551              		.align	1
 4552              		.global	lv_obj_set_style_grid_row_align
 4553              		.syntax unified
 4554              		.thumb
 4555              		.thumb_func
 4557              	lv_obj_set_style_grid_row_align:
 4558              	.LVL394:
 4559              	.LFB334:
 827:Lib/lvgl/src/core/lv_obj_style_gen.c **** 
 828:Lib/lvgl/src/core/lv_obj_style_gen.c **** void lv_obj_set_style_grid_row_align(lv_obj_t * obj, lv_grid_align_t value, lv_style_selector_t sel
 829:Lib/lvgl/src/core/lv_obj_style_gen.c **** {
 4560              		.loc 1 829 1 is_stmt 1 view -0
 4561              		.cfi_startproc
ARM GAS  C:\Users\Alex\AppData\Local\Temp\cc6CnhIe.s 			page 92


 4562              		@ args = 0, pretend = 0, frame = 8
