ARM GAS  C:\Users\Alex\AppData\Local\Temp\ccdKwz1H.s 			page 1


   1              		.cpu cortex-m4
   2              		.arch armv7e-m
   3              		.fpu fpv4-sp-d16
   4              		.eabi_attribute 27, 1
   5              		.eabi_attribute 28, 1
   6              		.eabi_attribute 20, 1
   7              		.eabi_attribute 21, 1
   8              		.eabi_attribute 23, 3
   9              		.eabi_attribute 24, 1
  10              		.eabi_attribute 25, 1
  11              		.eabi_attribute 26, 1
  12              		.eabi_attribute 30, 1
  13              		.eabi_attribute 34, 1
  14              		.eabi_attribute 18, 4
  15              		.file	"lv_obj_style.c"
  16              		.text
  17              	.Ltext0:
  18              		.cfi_sections	.debug_frame
  19              		.file 1 "Lib/lvgl/src/core/lv_obj_style.c"
  20              		.section	.text.lv_color_eq,"ax",%progbits
  21              		.align	1
  22              		.syntax unified
  23              		.thumb
  24              		.thumb_func
  26              	lv_color_eq:
  27              	.LFB15:
  28              		.file 2 "Lib/lvgl/src/core/../misc/../font/../draw/../misc/lv_color.h"
   1:Lib/lvgl/src/core/../misc/../font/../draw/../misc/lv_color.h **** /**
   2:Lib/lvgl/src/core/../misc/../font/../draw/../misc/lv_color.h ****  * @file lv_color.h
   3:Lib/lvgl/src/core/../misc/../font/../draw/../misc/lv_color.h ****  *
   4:Lib/lvgl/src/core/../misc/../font/../draw/../misc/lv_color.h ****  */
   5:Lib/lvgl/src/core/../misc/../font/../draw/../misc/lv_color.h **** 
   6:Lib/lvgl/src/core/../misc/../font/../draw/../misc/lv_color.h **** #ifndef LV_COLOR_H
   7:Lib/lvgl/src/core/../misc/../font/../draw/../misc/lv_color.h **** #define LV_COLOR_H
   8:Lib/lvgl/src/core/../misc/../font/../draw/../misc/lv_color.h **** 
   9:Lib/lvgl/src/core/../misc/../font/../draw/../misc/lv_color.h **** #ifdef __cplusplus
  10:Lib/lvgl/src/core/../misc/../font/../draw/../misc/lv_color.h **** extern "C" {
  11:Lib/lvgl/src/core/../misc/../font/../draw/../misc/lv_color.h **** #endif
  12:Lib/lvgl/src/core/../misc/../font/../draw/../misc/lv_color.h **** 
  13:Lib/lvgl/src/core/../misc/../font/../draw/../misc/lv_color.h **** /*********************
  14:Lib/lvgl/src/core/../misc/../font/../draw/../misc/lv_color.h ****  *      INCLUDES
  15:Lib/lvgl/src/core/../misc/../font/../draw/../misc/lv_color.h ****  *********************/
  16:Lib/lvgl/src/core/../misc/../font/../draw/../misc/lv_color.h **** #include "../lv_conf_internal.h"
  17:Lib/lvgl/src/core/../misc/../font/../draw/../misc/lv_color.h **** #include "lv_assert.h"
  18:Lib/lvgl/src/core/../misc/../font/../draw/../misc/lv_color.h **** #include "lv_math.h"
  19:Lib/lvgl/src/core/../misc/../font/../draw/../misc/lv_color.h **** #include "lv_types.h"
  20:Lib/lvgl/src/core/../misc/../font/../draw/../misc/lv_color.h **** #include <stdint.h>
  21:Lib/lvgl/src/core/../misc/../font/../draw/../misc/lv_color.h **** #include <stdbool.h>
  22:Lib/lvgl/src/core/../misc/../font/../draw/../misc/lv_color.h **** 
  23:Lib/lvgl/src/core/../misc/../font/../draw/../misc/lv_color.h **** /*********************
  24:Lib/lvgl/src/core/../misc/../font/../draw/../misc/lv_color.h ****  *      DEFINES
  25:Lib/lvgl/src/core/../misc/../font/../draw/../misc/lv_color.h ****  *********************/
  26:Lib/lvgl/src/core/../misc/../font/../draw/../misc/lv_color.h **** LV_EXPORT_CONST_INT(LV_COLOR_DEPTH);
  27:Lib/lvgl/src/core/../misc/../font/../draw/../misc/lv_color.h **** 
  28:Lib/lvgl/src/core/../misc/../font/../draw/../misc/lv_color.h **** #if LV_COLOR_DEPTH == 8
  29:Lib/lvgl/src/core/../misc/../font/../draw/../misc/lv_color.h **** #define _LV_COLOR_NATIVE_WITH_ALPHA_SIZE 2
  30:Lib/lvgl/src/core/../misc/../font/../draw/../misc/lv_color.h **** #elif LV_COLOR_DEPTH == 16
ARM GAS  C:\Users\Alex\AppData\Local\Temp\ccdKwz1H.s 			page 2


  31:Lib/lvgl/src/core/../misc/../font/../draw/../misc/lv_color.h **** #define _LV_COLOR_NATIVE_WITH_ALPHA_SIZE 3
  32:Lib/lvgl/src/core/../misc/../font/../draw/../misc/lv_color.h **** #elif LV_COLOR_DEPTH == 24
  33:Lib/lvgl/src/core/../misc/../font/../draw/../misc/lv_color.h **** #define _LV_COLOR_NATIVE_WITH_ALPHA_SIZE 4
  34:Lib/lvgl/src/core/../misc/../font/../draw/../misc/lv_color.h **** #elif LV_COLOR_DEPTH == 32
  35:Lib/lvgl/src/core/../misc/../font/../draw/../misc/lv_color.h **** #define _LV_COLOR_NATIVE_WITH_ALPHA_SIZE 4
  36:Lib/lvgl/src/core/../misc/../font/../draw/../misc/lv_color.h **** #endif
  37:Lib/lvgl/src/core/../misc/../font/../draw/../misc/lv_color.h **** 
  38:Lib/lvgl/src/core/../misc/../font/../draw/../misc/lv_color.h **** /**
  39:Lib/lvgl/src/core/../misc/../font/../draw/../misc/lv_color.h ****  * Opacity percentages.
  40:Lib/lvgl/src/core/../misc/../font/../draw/../misc/lv_color.h ****  */
  41:Lib/lvgl/src/core/../misc/../font/../draw/../misc/lv_color.h **** 
  42:Lib/lvgl/src/core/../misc/../font/../draw/../misc/lv_color.h **** enum _lv_opa_t {
  43:Lib/lvgl/src/core/../misc/../font/../draw/../misc/lv_color.h ****     LV_OPA_TRANSP = 0,
  44:Lib/lvgl/src/core/../misc/../font/../draw/../misc/lv_color.h ****     LV_OPA_0      = 0,
  45:Lib/lvgl/src/core/../misc/../font/../draw/../misc/lv_color.h ****     LV_OPA_10     = 25,
  46:Lib/lvgl/src/core/../misc/../font/../draw/../misc/lv_color.h ****     LV_OPA_20     = 51,
  47:Lib/lvgl/src/core/../misc/../font/../draw/../misc/lv_color.h ****     LV_OPA_30     = 76,
  48:Lib/lvgl/src/core/../misc/../font/../draw/../misc/lv_color.h ****     LV_OPA_40     = 102,
  49:Lib/lvgl/src/core/../misc/../font/../draw/../misc/lv_color.h ****     LV_OPA_50     = 127,
  50:Lib/lvgl/src/core/../misc/../font/../draw/../misc/lv_color.h ****     LV_OPA_60     = 153,
  51:Lib/lvgl/src/core/../misc/../font/../draw/../misc/lv_color.h ****     LV_OPA_70     = 178,
  52:Lib/lvgl/src/core/../misc/../font/../draw/../misc/lv_color.h ****     LV_OPA_80     = 204,
  53:Lib/lvgl/src/core/../misc/../font/../draw/../misc/lv_color.h ****     LV_OPA_90     = 229,
  54:Lib/lvgl/src/core/../misc/../font/../draw/../misc/lv_color.h ****     LV_OPA_100    = 255,
  55:Lib/lvgl/src/core/../misc/../font/../draw/../misc/lv_color.h ****     LV_OPA_COVER  = 255,
  56:Lib/lvgl/src/core/../misc/../font/../draw/../misc/lv_color.h **** };
  57:Lib/lvgl/src/core/../misc/../font/../draw/../misc/lv_color.h **** 
  58:Lib/lvgl/src/core/../misc/../font/../draw/../misc/lv_color.h **** #ifdef DOXYGEN
  59:Lib/lvgl/src/core/../misc/../font/../draw/../misc/lv_color.h **** typedef _lv_opa_t lv_opa_t;
  60:Lib/lvgl/src/core/../misc/../font/../draw/../misc/lv_color.h **** #else
  61:Lib/lvgl/src/core/../misc/../font/../draw/../misc/lv_color.h **** typedef uint8_t lv_opa_t;
  62:Lib/lvgl/src/core/../misc/../font/../draw/../misc/lv_color.h **** #endif /*DOXYGEN*/
  63:Lib/lvgl/src/core/../misc/../font/../draw/../misc/lv_color.h **** 
  64:Lib/lvgl/src/core/../misc/../font/../draw/../misc/lv_color.h **** #define LV_OPA_MIN 2    /*Opacities below this will be transparent*/
  65:Lib/lvgl/src/core/../misc/../font/../draw/../misc/lv_color.h **** #define LV_OPA_MAX 253  /*Opacities above this will fully cover*/
  66:Lib/lvgl/src/core/../misc/../font/../draw/../misc/lv_color.h **** 
  67:Lib/lvgl/src/core/../misc/../font/../draw/../misc/lv_color.h **** #define LV_COLOR_FORMAT_GET_BPP(cf) (       \
  68:Lib/lvgl/src/core/../misc/../font/../draw/../misc/lv_color.h ****                                             (cf) == LV_COLOR_FORMAT_I1 ? 1 :        \
  69:Lib/lvgl/src/core/../misc/../font/../draw/../misc/lv_color.h ****                                             (cf) == LV_COLOR_FORMAT_A1 ? 1 :        \
  70:Lib/lvgl/src/core/../misc/../font/../draw/../misc/lv_color.h ****                                             (cf) == LV_COLOR_FORMAT_I2 ? 2 :        \
  71:Lib/lvgl/src/core/../misc/../font/../draw/../misc/lv_color.h ****                                             (cf) == LV_COLOR_FORMAT_A2 ? 2 :        \
  72:Lib/lvgl/src/core/../misc/../font/../draw/../misc/lv_color.h ****                                             (cf) == LV_COLOR_FORMAT_I4 ? 4 :        \
  73:Lib/lvgl/src/core/../misc/../font/../draw/../misc/lv_color.h ****                                             (cf) == LV_COLOR_FORMAT_A4 ? 4 :        \
  74:Lib/lvgl/src/core/../misc/../font/../draw/../misc/lv_color.h ****                                             (cf) == LV_COLOR_FORMAT_L8 ? 8 :        \
  75:Lib/lvgl/src/core/../misc/../font/../draw/../misc/lv_color.h ****                                             (cf) == LV_COLOR_FORMAT_A8 ? 8 :        \
  76:Lib/lvgl/src/core/../misc/../font/../draw/../misc/lv_color.h ****                                             (cf) == LV_COLOR_FORMAT_I8 ? 8 :        \
  77:Lib/lvgl/src/core/../misc/../font/../draw/../misc/lv_color.h ****                                             (cf) == LV_COLOR_FORMAT_RGB565 ? 16 :   \
  78:Lib/lvgl/src/core/../misc/../font/../draw/../misc/lv_color.h ****                                             (cf) == LV_COLOR_FORMAT_RGB565A8 ? 24 : \
  79:Lib/lvgl/src/core/../misc/../font/../draw/../misc/lv_color.h ****                                             (cf) == LV_COLOR_FORMAT_RGB888 ? 24 :   \
  80:Lib/lvgl/src/core/../misc/../font/../draw/../misc/lv_color.h ****                                             (cf) == LV_COLOR_FORMAT_ARGB8888 ? 32 : \
  81:Lib/lvgl/src/core/../misc/../font/../draw/../misc/lv_color.h ****                                             (cf) == LV_COLOR_FORMAT_XRGB8888 ? 32 : \
  82:Lib/lvgl/src/core/../misc/../font/../draw/../misc/lv_color.h ****                                             0                                       \
  83:Lib/lvgl/src/core/../misc/../font/../draw/../misc/lv_color.h ****                                     )
  84:Lib/lvgl/src/core/../misc/../font/../draw/../misc/lv_color.h **** 
  85:Lib/lvgl/src/core/../misc/../font/../draw/../misc/lv_color.h **** /**********************
  86:Lib/lvgl/src/core/../misc/../font/../draw/../misc/lv_color.h ****  *      TYPEDEFS
  87:Lib/lvgl/src/core/../misc/../font/../draw/../misc/lv_color.h ****  **********************/
ARM GAS  C:\Users\Alex\AppData\Local\Temp\ccdKwz1H.s 			page 3


  88:Lib/lvgl/src/core/../misc/../font/../draw/../misc/lv_color.h **** 
  89:Lib/lvgl/src/core/../misc/../font/../draw/../misc/lv_color.h **** typedef struct {
  90:Lib/lvgl/src/core/../misc/../font/../draw/../misc/lv_color.h ****     uint8_t red;
  91:Lib/lvgl/src/core/../misc/../font/../draw/../misc/lv_color.h ****     uint8_t green;
  92:Lib/lvgl/src/core/../misc/../font/../draw/../misc/lv_color.h ****     uint8_t blue;
  93:Lib/lvgl/src/core/../misc/../font/../draw/../misc/lv_color.h **** } lv_color_t;
  94:Lib/lvgl/src/core/../misc/../font/../draw/../misc/lv_color.h **** 
  95:Lib/lvgl/src/core/../misc/../font/../draw/../misc/lv_color.h **** typedef struct {
  96:Lib/lvgl/src/core/../misc/../font/../draw/../misc/lv_color.h ****     uint16_t red : 5;
  97:Lib/lvgl/src/core/../misc/../font/../draw/../misc/lv_color.h ****     uint16_t green : 6;
  98:Lib/lvgl/src/core/../misc/../font/../draw/../misc/lv_color.h ****     uint16_t blue : 5;
  99:Lib/lvgl/src/core/../misc/../font/../draw/../misc/lv_color.h **** } lv_color16_t;
 100:Lib/lvgl/src/core/../misc/../font/../draw/../misc/lv_color.h **** 
 101:Lib/lvgl/src/core/../misc/../font/../draw/../misc/lv_color.h **** typedef struct {
 102:Lib/lvgl/src/core/../misc/../font/../draw/../misc/lv_color.h ****     uint8_t red;
 103:Lib/lvgl/src/core/../misc/../font/../draw/../misc/lv_color.h ****     uint8_t green;
 104:Lib/lvgl/src/core/../misc/../font/../draw/../misc/lv_color.h ****     uint8_t blue;
 105:Lib/lvgl/src/core/../misc/../font/../draw/../misc/lv_color.h ****     uint8_t alpha;
 106:Lib/lvgl/src/core/../misc/../font/../draw/../misc/lv_color.h **** } lv_color32_t;
 107:Lib/lvgl/src/core/../misc/../font/../draw/../misc/lv_color.h **** 
 108:Lib/lvgl/src/core/../misc/../font/../draw/../misc/lv_color.h **** typedef struct {
 109:Lib/lvgl/src/core/../misc/../font/../draw/../misc/lv_color.h ****     uint16_t h;
 110:Lib/lvgl/src/core/../misc/../font/../draw/../misc/lv_color.h ****     uint8_t s;
 111:Lib/lvgl/src/core/../misc/../font/../draw/../misc/lv_color.h ****     uint8_t v;
 112:Lib/lvgl/src/core/../misc/../font/../draw/../misc/lv_color.h **** } lv_color_hsv_t;
 113:Lib/lvgl/src/core/../misc/../font/../draw/../misc/lv_color.h **** 
 114:Lib/lvgl/src/core/../misc/../font/../draw/../misc/lv_color.h **** enum _lv_color_format_t {
 115:Lib/lvgl/src/core/../misc/../font/../draw/../misc/lv_color.h ****     LV_COLOR_FORMAT_UNKNOWN           = 0,
 116:Lib/lvgl/src/core/../misc/../font/../draw/../misc/lv_color.h **** 
 117:Lib/lvgl/src/core/../misc/../font/../draw/../misc/lv_color.h ****     LV_COLOR_FORMAT_RAW               = 0x01,
 118:Lib/lvgl/src/core/../misc/../font/../draw/../misc/lv_color.h ****     LV_COLOR_FORMAT_RAW_ALPHA         = 0x02,
 119:Lib/lvgl/src/core/../misc/../font/../draw/../misc/lv_color.h **** 
 120:Lib/lvgl/src/core/../misc/../font/../draw/../misc/lv_color.h ****     /*<=1 byte (+alpha) formats*/
 121:Lib/lvgl/src/core/../misc/../font/../draw/../misc/lv_color.h ****     LV_COLOR_FORMAT_L8                = 0x06,
 122:Lib/lvgl/src/core/../misc/../font/../draw/../misc/lv_color.h ****     LV_COLOR_FORMAT_I1                = 0x07,
 123:Lib/lvgl/src/core/../misc/../font/../draw/../misc/lv_color.h ****     LV_COLOR_FORMAT_I2                = 0x08,
 124:Lib/lvgl/src/core/../misc/../font/../draw/../misc/lv_color.h ****     LV_COLOR_FORMAT_I4                = 0x09,
 125:Lib/lvgl/src/core/../misc/../font/../draw/../misc/lv_color.h ****     LV_COLOR_FORMAT_I8                = 0x0A,
 126:Lib/lvgl/src/core/../misc/../font/../draw/../misc/lv_color.h ****     LV_COLOR_FORMAT_A8                = 0x0E,
 127:Lib/lvgl/src/core/../misc/../font/../draw/../misc/lv_color.h **** 
 128:Lib/lvgl/src/core/../misc/../font/../draw/../misc/lv_color.h ****     /*2 byte (+alpha) formats*/
 129:Lib/lvgl/src/core/../misc/../font/../draw/../misc/lv_color.h ****     LV_COLOR_FORMAT_RGB565            = 0x12,
 130:Lib/lvgl/src/core/../misc/../font/../draw/../misc/lv_color.h ****     LV_COLOR_FORMAT_RGB565A8          = 0x14    /**< Color array followed by Alpha array*/,
 131:Lib/lvgl/src/core/../misc/../font/../draw/../misc/lv_color.h **** 
 132:Lib/lvgl/src/core/../misc/../font/../draw/../misc/lv_color.h ****     /*3 byte (+alpha) formats*/
 133:Lib/lvgl/src/core/../misc/../font/../draw/../misc/lv_color.h ****     LV_COLOR_FORMAT_RGB888            = 0x0F,
 134:Lib/lvgl/src/core/../misc/../font/../draw/../misc/lv_color.h ****     LV_COLOR_FORMAT_ARGB8888          = 0x10,
 135:Lib/lvgl/src/core/../misc/../font/../draw/../misc/lv_color.h ****     LV_COLOR_FORMAT_XRGB8888          = 0x11,
 136:Lib/lvgl/src/core/../misc/../font/../draw/../misc/lv_color.h **** 
 137:Lib/lvgl/src/core/../misc/../font/../draw/../misc/lv_color.h ****     /*Formats not supported by software renderer but kept here so GPU can use it*/
 138:Lib/lvgl/src/core/../misc/../font/../draw/../misc/lv_color.h ****     LV_COLOR_FORMAT_A1                = 0x0B,
 139:Lib/lvgl/src/core/../misc/../font/../draw/../misc/lv_color.h ****     LV_COLOR_FORMAT_A2                = 0x0C,
 140:Lib/lvgl/src/core/../misc/../font/../draw/../misc/lv_color.h ****     LV_COLOR_FORMAT_A4                = 0x0D,
 141:Lib/lvgl/src/core/../misc/../font/../draw/../misc/lv_color.h **** 
 142:Lib/lvgl/src/core/../misc/../font/../draw/../misc/lv_color.h ****     /* reference to https://wiki.videolan.org/YUV/ */
 143:Lib/lvgl/src/core/../misc/../font/../draw/../misc/lv_color.h ****     /*YUV planar formats*/
 144:Lib/lvgl/src/core/../misc/../font/../draw/../misc/lv_color.h ****     LV_COLOR_FORMAT_YUV_START         = 0x20,
ARM GAS  C:\Users\Alex\AppData\Local\Temp\ccdKwz1H.s 			page 4


 145:Lib/lvgl/src/core/../misc/../font/../draw/../misc/lv_color.h ****     LV_COLOR_FORMAT_I420              = LV_COLOR_FORMAT_YUV_START,  /*YUV420 planar(3 plane)*/
 146:Lib/lvgl/src/core/../misc/../font/../draw/../misc/lv_color.h ****     LV_COLOR_FORMAT_I422              = 0x21,  /*YUV422 planar(3 plane)*/
 147:Lib/lvgl/src/core/../misc/../font/../draw/../misc/lv_color.h ****     LV_COLOR_FORMAT_I444              = 0x22,  /*YUV444 planar(3 plane)*/
 148:Lib/lvgl/src/core/../misc/../font/../draw/../misc/lv_color.h ****     LV_COLOR_FORMAT_I400              = 0x23,  /*YUV400 no chroma channel*/
 149:Lib/lvgl/src/core/../misc/../font/../draw/../misc/lv_color.h ****     LV_COLOR_FORMAT_NV21              = 0x24,  /*YUV420 planar(2 plane), UV plane in 'V, U, V, U'*/
 150:Lib/lvgl/src/core/../misc/../font/../draw/../misc/lv_color.h ****     LV_COLOR_FORMAT_NV12              = 0x25,  /*YUV420 planar(2 plane), UV plane in 'U, V, U, V'*/
 151:Lib/lvgl/src/core/../misc/../font/../draw/../misc/lv_color.h **** 
 152:Lib/lvgl/src/core/../misc/../font/../draw/../misc/lv_color.h ****     /*YUV packed formats*/
 153:Lib/lvgl/src/core/../misc/../font/../draw/../misc/lv_color.h ****     LV_COLOR_FORMAT_YUY2              = 0x26,  /*YUV422 packed like 'Y U Y V'*/
 154:Lib/lvgl/src/core/../misc/../font/../draw/../misc/lv_color.h ****     LV_COLOR_FORMAT_UYVY              = 0x27,  /*YUV422 packed like 'U Y V Y'*/
 155:Lib/lvgl/src/core/../misc/../font/../draw/../misc/lv_color.h **** 
 156:Lib/lvgl/src/core/../misc/../font/../draw/../misc/lv_color.h ****     LV_COLOR_FORMAT_YUV_END           = LV_COLOR_FORMAT_UYVY,
 157:Lib/lvgl/src/core/../misc/../font/../draw/../misc/lv_color.h **** 
 158:Lib/lvgl/src/core/../misc/../font/../draw/../misc/lv_color.h ****     /*Color formats in which LVGL can render*/
 159:Lib/lvgl/src/core/../misc/../font/../draw/../misc/lv_color.h **** #if LV_COLOR_DEPTH == 8
 160:Lib/lvgl/src/core/../misc/../font/../draw/../misc/lv_color.h ****     LV_COLOR_FORMAT_NATIVE            = LV_COLOR_FORMAT_L8,
 161:Lib/lvgl/src/core/../misc/../font/../draw/../misc/lv_color.h **** #elif LV_COLOR_DEPTH == 16
 162:Lib/lvgl/src/core/../misc/../font/../draw/../misc/lv_color.h ****     LV_COLOR_FORMAT_NATIVE            = LV_COLOR_FORMAT_RGB565,
 163:Lib/lvgl/src/core/../misc/../font/../draw/../misc/lv_color.h ****     LV_COLOR_FORMAT_NATIVE_WITH_ALPHA = LV_COLOR_FORMAT_RGB565A8,
 164:Lib/lvgl/src/core/../misc/../font/../draw/../misc/lv_color.h **** #elif LV_COLOR_DEPTH == 24
 165:Lib/lvgl/src/core/../misc/../font/../draw/../misc/lv_color.h ****     LV_COLOR_FORMAT_NATIVE            = LV_COLOR_FORMAT_RGB888,
 166:Lib/lvgl/src/core/../misc/../font/../draw/../misc/lv_color.h ****     LV_COLOR_FORMAT_NATIVE_WITH_ALPHA = LV_COLOR_FORMAT_ARGB8888,
 167:Lib/lvgl/src/core/../misc/../font/../draw/../misc/lv_color.h **** #elif LV_COLOR_DEPTH == 32
 168:Lib/lvgl/src/core/../misc/../font/../draw/../misc/lv_color.h ****     LV_COLOR_FORMAT_NATIVE            = LV_COLOR_FORMAT_XRGB8888,
 169:Lib/lvgl/src/core/../misc/../font/../draw/../misc/lv_color.h ****     LV_COLOR_FORMAT_NATIVE_WITH_ALPHA = LV_COLOR_FORMAT_ARGB8888,
 170:Lib/lvgl/src/core/../misc/../font/../draw/../misc/lv_color.h **** #endif
 171:Lib/lvgl/src/core/../misc/../font/../draw/../misc/lv_color.h **** };
 172:Lib/lvgl/src/core/../misc/../font/../draw/../misc/lv_color.h **** 
 173:Lib/lvgl/src/core/../misc/../font/../draw/../misc/lv_color.h **** #ifdef DOXYGEN
 174:Lib/lvgl/src/core/../misc/../font/../draw/../misc/lv_color.h **** typedef _lv_color_format_t lv_color_format_t;
 175:Lib/lvgl/src/core/../misc/../font/../draw/../misc/lv_color.h **** #else
 176:Lib/lvgl/src/core/../misc/../font/../draw/../misc/lv_color.h **** typedef uint8_t lv_color_format_t;
 177:Lib/lvgl/src/core/../misc/../font/../draw/../misc/lv_color.h **** #endif /*DOXYGEN*/
 178:Lib/lvgl/src/core/../misc/../font/../draw/../misc/lv_color.h **** 
 179:Lib/lvgl/src/core/../misc/../font/../draw/../misc/lv_color.h **** #define LV_COLOR_FORMAT_IS_ALPHA_ONLY(cf) ((cf) >= LV_COLOR_FORMAT_A1 && (cf) <= LV_COLOR_FORMAT_A8
 180:Lib/lvgl/src/core/../misc/../font/../draw/../misc/lv_color.h **** #define LV_COLOR_FORMAT_IS_INDEXED(cf) ((cf) >= LV_COLOR_FORMAT_I1 && (cf) <= LV_COLOR_FORMAT_I8)
 181:Lib/lvgl/src/core/../misc/../font/../draw/../misc/lv_color.h **** #define LV_COLOR_FORMAT_IS_YUV(cf)  ((cf) >= LV_COLOR_FORMAT_YUV_START && (cf) <= LV_COLOR_FORMAT_Y
 182:Lib/lvgl/src/core/../misc/../font/../draw/../misc/lv_color.h **** #define LV_COLOR_INDEXED_PALETTE_SIZE(cf) ((cf) == LV_COLOR_FORMAT_I1 ? 2 :\
 183:Lib/lvgl/src/core/../misc/../font/../draw/../misc/lv_color.h ****                                            (cf) == LV_COLOR_FORMAT_I2 ? 4 :\
 184:Lib/lvgl/src/core/../misc/../font/../draw/../misc/lv_color.h ****                                            (cf) == LV_COLOR_FORMAT_I4 ? 16 :\
 185:Lib/lvgl/src/core/../misc/../font/../draw/../misc/lv_color.h ****                                            (cf) == LV_COLOR_FORMAT_I8 ? 256 : 0)
 186:Lib/lvgl/src/core/../misc/../font/../draw/../misc/lv_color.h **** 
 187:Lib/lvgl/src/core/../misc/../font/../draw/../misc/lv_color.h **** /**********************
 188:Lib/lvgl/src/core/../misc/../font/../draw/../misc/lv_color.h ****  * MACROS
 189:Lib/lvgl/src/core/../misc/../font/../draw/../misc/lv_color.h ****  **********************/
 190:Lib/lvgl/src/core/../misc/../font/../draw/../misc/lv_color.h **** 
 191:Lib/lvgl/src/core/../misc/../font/../draw/../misc/lv_color.h **** #define LV_COLOR_MAKE(r8, g8, b8) {b8, g8, r8}
 192:Lib/lvgl/src/core/../misc/../font/../draw/../misc/lv_color.h **** 
 193:Lib/lvgl/src/core/../misc/../font/../draw/../misc/lv_color.h **** #define LV_OPA_MIX2(a1, a2) (((int32_t)(a1) * (a2)) >> 8)
 194:Lib/lvgl/src/core/../misc/../font/../draw/../misc/lv_color.h **** #define LV_OPA_MIX3(a1, a2, a3) (((int32_t)(a1) * (a2) * (a3)) >> 16)
 195:Lib/lvgl/src/core/../misc/../font/../draw/../misc/lv_color.h **** 
 196:Lib/lvgl/src/core/../misc/../font/../draw/../misc/lv_color.h **** /**********************
 197:Lib/lvgl/src/core/../misc/../font/../draw/../misc/lv_color.h ****  * GLOBAL PROTOTYPES
 198:Lib/lvgl/src/core/../misc/../font/../draw/../misc/lv_color.h ****  **********************/
 199:Lib/lvgl/src/core/../misc/../font/../draw/../misc/lv_color.h **** 
 200:Lib/lvgl/src/core/../misc/../font/../draw/../misc/lv_color.h **** /**
 201:Lib/lvgl/src/core/../misc/../font/../draw/../misc/lv_color.h ****  * Get the pixel size of a color format in bits, bpp
ARM GAS  C:\Users\Alex\AppData\Local\Temp\ccdKwz1H.s 			page 5


 202:Lib/lvgl/src/core/../misc/../font/../draw/../misc/lv_color.h ****  * @param src_cf    a color format (`LV_COLOR_FORMAT_...`)
 203:Lib/lvgl/src/core/../misc/../font/../draw/../misc/lv_color.h ****  * @return          the pixel size in bits
 204:Lib/lvgl/src/core/../misc/../font/../draw/../misc/lv_color.h ****  */
 205:Lib/lvgl/src/core/../misc/../font/../draw/../misc/lv_color.h **** uint8_t lv_color_format_get_bpp(lv_color_format_t cf);
 206:Lib/lvgl/src/core/../misc/../font/../draw/../misc/lv_color.h **** 
 207:Lib/lvgl/src/core/../misc/../font/../draw/../misc/lv_color.h **** /**
 208:Lib/lvgl/src/core/../misc/../font/../draw/../misc/lv_color.h ****  * Get the pixel size of a color format in bytes
 209:Lib/lvgl/src/core/../misc/../font/../draw/../misc/lv_color.h ****  * @param src_cf    a color format (`LV_COLOR_FORMAT_...`)
 210:Lib/lvgl/src/core/../misc/../font/../draw/../misc/lv_color.h ****  * @return          the pixel size in bytes
 211:Lib/lvgl/src/core/../misc/../font/../draw/../misc/lv_color.h ****  */
 212:Lib/lvgl/src/core/../misc/../font/../draw/../misc/lv_color.h **** static inline uint8_t lv_color_format_get_size(lv_color_format_t cf)
 213:Lib/lvgl/src/core/../misc/../font/../draw/../misc/lv_color.h **** {
 214:Lib/lvgl/src/core/../misc/../font/../draw/../misc/lv_color.h ****     return (lv_color_format_get_bpp(cf) + 7) >> 3;
 215:Lib/lvgl/src/core/../misc/../font/../draw/../misc/lv_color.h **** }
 216:Lib/lvgl/src/core/../misc/../font/../draw/../misc/lv_color.h **** 
 217:Lib/lvgl/src/core/../misc/../font/../draw/../misc/lv_color.h **** /**
 218:Lib/lvgl/src/core/../misc/../font/../draw/../misc/lv_color.h ****  * Check if a color format has alpha channel or not
 219:Lib/lvgl/src/core/../misc/../font/../draw/../misc/lv_color.h ****  * @param src_cf    a color format (`LV_COLOR_FORMAT_...`)
 220:Lib/lvgl/src/core/../misc/../font/../draw/../misc/lv_color.h ****  * @return          true: has alpha channel; false: doesn't have alpha channel
 221:Lib/lvgl/src/core/../misc/../font/../draw/../misc/lv_color.h ****  */
 222:Lib/lvgl/src/core/../misc/../font/../draw/../misc/lv_color.h **** bool lv_color_format_has_alpha(lv_color_format_t src_cf);
 223:Lib/lvgl/src/core/../misc/../font/../draw/../misc/lv_color.h **** 
 224:Lib/lvgl/src/core/../misc/../font/../draw/../misc/lv_color.h **** /**
 225:Lib/lvgl/src/core/../misc/../font/../draw/../misc/lv_color.h ****  * Create an ARGB8888 color from RGB888 + alpha
 226:Lib/lvgl/src/core/../misc/../font/../draw/../misc/lv_color.h ****  * @param color     an RGB888 color
 227:Lib/lvgl/src/core/../misc/../font/../draw/../misc/lv_color.h ****  * @param opa       the alpha value
 228:Lib/lvgl/src/core/../misc/../font/../draw/../misc/lv_color.h ****  * @return          the ARGB8888 color
 229:Lib/lvgl/src/core/../misc/../font/../draw/../misc/lv_color.h ****  */
 230:Lib/lvgl/src/core/../misc/../font/../draw/../misc/lv_color.h **** lv_color32_t lv_color_to_32(lv_color_t color, lv_opa_t opa);
 231:Lib/lvgl/src/core/../misc/../font/../draw/../misc/lv_color.h **** 
 232:Lib/lvgl/src/core/../misc/../font/../draw/../misc/lv_color.h **** /**
 233:Lib/lvgl/src/core/../misc/../font/../draw/../misc/lv_color.h ****  * Convert an RGB888 color to an integer
 234:Lib/lvgl/src/core/../misc/../font/../draw/../misc/lv_color.h ****  * @param c     an RGB888 color
 235:Lib/lvgl/src/core/../misc/../font/../draw/../misc/lv_color.h ****  * @return      `c` as an integer
 236:Lib/lvgl/src/core/../misc/../font/../draw/../misc/lv_color.h ****  */
 237:Lib/lvgl/src/core/../misc/../font/../draw/../misc/lv_color.h **** static inline uint32_t lv_color_to_int(lv_color_t c)
 238:Lib/lvgl/src/core/../misc/../font/../draw/../misc/lv_color.h **** {
 239:Lib/lvgl/src/core/../misc/../font/../draw/../misc/lv_color.h ****     uint8_t * tmp = (uint8_t *) &c;
 240:Lib/lvgl/src/core/../misc/../font/../draw/../misc/lv_color.h ****     return tmp[0] + (tmp[1] << 8) + (tmp[2] << 16);
 241:Lib/lvgl/src/core/../misc/../font/../draw/../misc/lv_color.h **** }
 242:Lib/lvgl/src/core/../misc/../font/../draw/../misc/lv_color.h **** 
 243:Lib/lvgl/src/core/../misc/../font/../draw/../misc/lv_color.h **** /**
 244:Lib/lvgl/src/core/../misc/../font/../draw/../misc/lv_color.h ****  * Check if two RGB888 color are equal
 245:Lib/lvgl/src/core/../misc/../font/../draw/../misc/lv_color.h ****  * @param c1    the first color
 246:Lib/lvgl/src/core/../misc/../font/../draw/../misc/lv_color.h ****  * @param c2    the second color
 247:Lib/lvgl/src/core/../misc/../font/../draw/../misc/lv_color.h ****  * @return      true: equal
 248:Lib/lvgl/src/core/../misc/../font/../draw/../misc/lv_color.h ****  */
 249:Lib/lvgl/src/core/../misc/../font/../draw/../misc/lv_color.h **** static inline bool lv_color_eq(lv_color_t c1, lv_color_t c2)
 250:Lib/lvgl/src/core/../misc/../font/../draw/../misc/lv_color.h **** {
  29              		.loc 2 250 1 view -0
  30              		.cfi_startproc
  31              		@ args = 0, pretend = 0, frame = 16
  32              		@ frame_needed = 0, uses_anonymous_args = 0
  33              		@ link register save eliminated.
  34 0000 84B0     		sub	sp, sp, #16
  35              	.LCFI0:
  36              		.cfi_def_cfa_offset 16
ARM GAS  C:\Users\Alex\AppData\Local\Temp\ccdKwz1H.s 			page 6


  37 0002 0190     		str	r0, [sp, #4]
  38 0004 0091     		str	r1, [sp]
 251:Lib/lvgl/src/core/../misc/../font/../draw/../misc/lv_color.h ****     return lv_color_to_int(c1) == lv_color_to_int(c2);
  39              		.loc 2 251 5 view .LVU1
  40 0006 ADF80C00 		strh	r0, [sp, #12]	@ movhi
  41 000a 030C     		lsrs	r3, r0, #16
  42 000c 8DF80E30 		strb	r3, [sp, #14]
  43              	.LBB168:
  44              	.LBI168:
 237:Lib/lvgl/src/core/../misc/../font/../draw/../misc/lv_color.h **** {
  45              		.loc 2 237 24 view .LVU2
  46              	.LBB169:
 239:Lib/lvgl/src/core/../misc/../font/../draw/../misc/lv_color.h ****     return tmp[0] + (tmp[1] << 8) + (tmp[2] << 16);
  47              		.loc 2 239 5 view .LVU3
  48              	.LVL0:
 240:Lib/lvgl/src/core/../misc/../font/../draw/../misc/lv_color.h **** }
  49              		.loc 2 240 5 view .LVU4
 240:Lib/lvgl/src/core/../misc/../font/../draw/../misc/lv_color.h **** }
  50              		.loc 2 240 15 is_stmt 0 view .LVU5
  51 0010 9DF80C30 		ldrb	r3, [sp, #12]	@ zero_extendqisi2
 240:Lib/lvgl/src/core/../misc/../font/../draw/../misc/lv_color.h **** }
  52              		.loc 2 240 25 view .LVU6
  53 0014 9DF80D20 		ldrb	r2, [sp, #13]	@ zero_extendqisi2
 240:Lib/lvgl/src/core/../misc/../font/../draw/../misc/lv_color.h **** }
  54              		.loc 2 240 19 view .LVU7
  55 0018 03EB0223 		add	r3, r3, r2, lsl #8
 240:Lib/lvgl/src/core/../misc/../font/../draw/../misc/lv_color.h **** }
  56              		.loc 2 240 41 view .LVU8
  57 001c 9DF80E20 		ldrb	r2, [sp, #14]	@ zero_extendqisi2
 240:Lib/lvgl/src/core/../misc/../font/../draw/../misc/lv_color.h **** }
  58              		.loc 2 240 35 view .LVU9
  59 0020 03EB0243 		add	r3, r3, r2, lsl #16
  60 0024 ADF80C10 		strh	r1, [sp, #12]	@ movhi
  61 0028 0A0C     		lsrs	r2, r1, #16
  62 002a 8DF80E20 		strb	r2, [sp, #14]
  63              	.LBE169:
  64              	.LBE168:
  65              	.LBB170:
  66              	.LBI170:
 237:Lib/lvgl/src/core/../misc/../font/../draw/../misc/lv_color.h **** {
  67              		.loc 2 237 24 is_stmt 1 view .LVU10
  68              	.LBB171:
 239:Lib/lvgl/src/core/../misc/../font/../draw/../misc/lv_color.h ****     return tmp[0] + (tmp[1] << 8) + (tmp[2] << 16);
  69              		.loc 2 239 5 view .LVU11
  70              	.LVL1:
 240:Lib/lvgl/src/core/../misc/../font/../draw/../misc/lv_color.h **** }
  71              		.loc 2 240 5 view .LVU12
 240:Lib/lvgl/src/core/../misc/../font/../draw/../misc/lv_color.h **** }
  72              		.loc 2 240 15 is_stmt 0 view .LVU13
  73 002e 9DF80C00 		ldrb	r0, [sp, #12]	@ zero_extendqisi2
 240:Lib/lvgl/src/core/../misc/../font/../draw/../misc/lv_color.h **** }
  74              		.loc 2 240 25 view .LVU14
  75 0032 9DF80D20 		ldrb	r2, [sp, #13]	@ zero_extendqisi2
 240:Lib/lvgl/src/core/../misc/../font/../draw/../misc/lv_color.h **** }
  76              		.loc 2 240 19 view .LVU15
  77 0036 00EB0220 		add	r0, r0, r2, lsl #8
 240:Lib/lvgl/src/core/../misc/../font/../draw/../misc/lv_color.h **** }
ARM GAS  C:\Users\Alex\AppData\Local\Temp\ccdKwz1H.s 			page 7


  78              		.loc 2 240 41 view .LVU16
  79 003a 9DF80E20 		ldrb	r2, [sp, #14]	@ zero_extendqisi2
 240:Lib/lvgl/src/core/../misc/../font/../draw/../misc/lv_color.h **** }
  80              		.loc 2 240 35 view .LVU17
  81 003e 00EB0240 		add	r0, r0, r2, lsl #16
  82              	.LBE171:
  83              	.LBE170:
 252:Lib/lvgl/src/core/../misc/../font/../draw/../misc/lv_color.h **** }
  84              		.loc 2 252 1 view .LVU18
  85 0042 9842     		cmp	r0, r3
  86 0044 14BF     		ite	ne
  87 0046 0020     		movne	r0, #0
  88 0048 0120     		moveq	r0, #1
  89 004a 04B0     		add	sp, sp, #16
  90              	.LCFI1:
  91              		.cfi_def_cfa_offset 0
  92              	.LVL2:
  93              		.loc 2 252 1 view .LVU19
  94              		@ sp needed
  95 004c 7047     		bx	lr
  96              		.cfi_endproc
  97              	.LFE15:
  99              		.section	.text.lv_color_mix,"ax",%progbits
 100              		.align	1
 101              		.syntax unified
 102              		.thumb
 103              		.thumb_func
 105              	lv_color_mix:
 106              	.LVL3:
 107              	.LFB26:
 108              		.file 3 "Lib/lvgl/src/core/../misc/../font/../draw/../misc/lv_color_op.h"
   1:Lib/lvgl/src/core/../misc/../font/../draw/../misc/lv_color_op.h **** /**
   2:Lib/lvgl/src/core/../misc/../font/../draw/../misc/lv_color_op.h ****  * @file lv_color_op.h
   3:Lib/lvgl/src/core/../misc/../font/../draw/../misc/lv_color_op.h ****  *
   4:Lib/lvgl/src/core/../misc/../font/../draw/../misc/lv_color_op.h ****  */
   5:Lib/lvgl/src/core/../misc/../font/../draw/../misc/lv_color_op.h **** 
   6:Lib/lvgl/src/core/../misc/../font/../draw/../misc/lv_color_op.h **** #ifndef LV_COLOR_OP_H
   7:Lib/lvgl/src/core/../misc/../font/../draw/../misc/lv_color_op.h **** #define LV_COLOR_OP_H
   8:Lib/lvgl/src/core/../misc/../font/../draw/../misc/lv_color_op.h **** 
   9:Lib/lvgl/src/core/../misc/../font/../draw/../misc/lv_color_op.h **** #ifdef __cplusplus
  10:Lib/lvgl/src/core/../misc/../font/../draw/../misc/lv_color_op.h **** extern "C" {
  11:Lib/lvgl/src/core/../misc/../font/../draw/../misc/lv_color_op.h **** #endif
  12:Lib/lvgl/src/core/../misc/../font/../draw/../misc/lv_color_op.h **** 
  13:Lib/lvgl/src/core/../misc/../font/../draw/../misc/lv_color_op.h **** /*********************
  14:Lib/lvgl/src/core/../misc/../font/../draw/../misc/lv_color_op.h ****  *      INCLUDES
  15:Lib/lvgl/src/core/../misc/../font/../draw/../misc/lv_color_op.h ****  *********************/
  16:Lib/lvgl/src/core/../misc/../font/../draw/../misc/lv_color_op.h **** #include "lv_assert.h"
  17:Lib/lvgl/src/core/../misc/../font/../draw/../misc/lv_color_op.h **** #include "lv_math.h"
  18:Lib/lvgl/src/core/../misc/../font/../draw/../misc/lv_color_op.h **** #include "lv_color.h"
  19:Lib/lvgl/src/core/../misc/../font/../draw/../misc/lv_color_op.h **** #include <stdint.h>
  20:Lib/lvgl/src/core/../misc/../font/../draw/../misc/lv_color_op.h **** 
  21:Lib/lvgl/src/core/../misc/../font/../draw/../misc/lv_color_op.h **** /*********************
  22:Lib/lvgl/src/core/../misc/../font/../draw/../misc/lv_color_op.h ****  *      DEFINES
  23:Lib/lvgl/src/core/../misc/../font/../draw/../misc/lv_color_op.h ****  *********************/
  24:Lib/lvgl/src/core/../misc/../font/../draw/../misc/lv_color_op.h **** 
  25:Lib/lvgl/src/core/../misc/../font/../draw/../misc/lv_color_op.h **** /**********************
  26:Lib/lvgl/src/core/../misc/../font/../draw/../misc/lv_color_op.h ****  *      TYPEDEFS
ARM GAS  C:\Users\Alex\AppData\Local\Temp\ccdKwz1H.s 			page 8


  27:Lib/lvgl/src/core/../misc/../font/../draw/../misc/lv_color_op.h ****  **********************/
  28:Lib/lvgl/src/core/../misc/../font/../draw/../misc/lv_color_op.h **** 
  29:Lib/lvgl/src/core/../misc/../font/../draw/../misc/lv_color_op.h **** struct _lv_color_filter_dsc_t;
  30:Lib/lvgl/src/core/../misc/../font/../draw/../misc/lv_color_op.h **** 
  31:Lib/lvgl/src/core/../misc/../font/../draw/../misc/lv_color_op.h **** typedef lv_color_t (*lv_color_filter_cb_t)(const struct _lv_color_filter_dsc_t *, lv_color_t, lv_op
  32:Lib/lvgl/src/core/../misc/../font/../draw/../misc/lv_color_op.h **** 
  33:Lib/lvgl/src/core/../misc/../font/../draw/../misc/lv_color_op.h **** typedef struct _lv_color_filter_dsc_t {
  34:Lib/lvgl/src/core/../misc/../font/../draw/../misc/lv_color_op.h ****     lv_color_filter_cb_t filter_cb;
  35:Lib/lvgl/src/core/../misc/../font/../draw/../misc/lv_color_op.h ****     void * user_data;
  36:Lib/lvgl/src/core/../misc/../font/../draw/../misc/lv_color_op.h **** } lv_color_filter_dsc_t;
  37:Lib/lvgl/src/core/../misc/../font/../draw/../misc/lv_color_op.h **** 
  38:Lib/lvgl/src/core/../misc/../font/../draw/../misc/lv_color_op.h **** /**********************
  39:Lib/lvgl/src/core/../misc/../font/../draw/../misc/lv_color_op.h ****  * GLOBAL PROTOTYPES
  40:Lib/lvgl/src/core/../misc/../font/../draw/../misc/lv_color_op.h ****  **********************/
  41:Lib/lvgl/src/core/../misc/../font/../draw/../misc/lv_color_op.h **** 
  42:Lib/lvgl/src/core/../misc/../font/../draw/../misc/lv_color_op.h **** /**
  43:Lib/lvgl/src/core/../misc/../font/../draw/../misc/lv_color_op.h ****  * Mix two colors with a given ratio.
  44:Lib/lvgl/src/core/../misc/../font/../draw/../misc/lv_color_op.h ****  * @param c1 the first color to mix (usually the foreground)
  45:Lib/lvgl/src/core/../misc/../font/../draw/../misc/lv_color_op.h ****  * @param c2 the second color to mix (usually the background)
  46:Lib/lvgl/src/core/../misc/../font/../draw/../misc/lv_color_op.h ****  * @param mix The ratio of the colors. 0: full `c2`, 255: full `c1`, 127: half `c1` and half`c2`
  47:Lib/lvgl/src/core/../misc/../font/../draw/../misc/lv_color_op.h ****  * @return the mixed color
  48:Lib/lvgl/src/core/../misc/../font/../draw/../misc/lv_color_op.h ****  */
  49:Lib/lvgl/src/core/../misc/../font/../draw/../misc/lv_color_op.h **** LV_ATTRIBUTE_FAST_MEM static inline lv_color_t lv_color_mix(lv_color_t c1, lv_color_t c2, uint8_t m
  50:Lib/lvgl/src/core/../misc/../font/../draw/../misc/lv_color_op.h **** {
 109              		.loc 3 50 1 is_stmt 1 view -0
 110              		.cfi_startproc
 111              		@ args = 0, pretend = 0, frame = 16
 112              		@ frame_needed = 0, uses_anonymous_args = 0
 113              		@ link register save eliminated.
 114              		.loc 3 50 1 is_stmt 0 view .LVU21
 115 0000 84B0     		sub	sp, sp, #16
 116              	.LCFI2:
 117              		.cfi_def_cfa_offset 16
 118 0002 0190     		str	r0, [sp, #4]
 119 0004 0091     		str	r1, [sp]
  51:Lib/lvgl/src/core/../misc/../font/../draw/../misc/lv_color_op.h ****     lv_color_t ret;
 120              		.loc 3 51 5 is_stmt 1 view .LVU22
  52:Lib/lvgl/src/core/../misc/../font/../draw/../misc/lv_color_op.h **** 
  53:Lib/lvgl/src/core/../misc/../font/../draw/../misc/lv_color_op.h ****     ret.red = LV_UDIV255((uint16_t)c1.red * mix + c2.red * (255 - mix) + LV_COLOR_MIX_ROUND_OFS);
 121              		.loc 3 53 5 view .LVU23
 122              		.loc 3 53 15 is_stmt 0 view .LVU24
 123 0006 9DF80400 		ldrb	r0, [sp, #4]	@ zero_extendqisi2
 124 000a 9DF80010 		ldrb	r1, [sp]	@ zero_extendqisi2
 125 000e C2F1FF03 		rsb	r3, r2, #255
 126 0012 03FB01F1 		mul	r1, r3, r1
 127 0016 02FB0011 		mla	r1, r2, r0, r1
 128 001a 01EB0120 		add	r0, r1, r1, lsl #8
 129 001e 01EBC011 		add	r1, r1, r0, lsl #7
 130 0022 C90D     		lsrs	r1, r1, #23
 131              		.loc 3 53 13 view .LVU25
 132 0024 8DF80810 		strb	r1, [sp, #8]
  54:Lib/lvgl/src/core/../misc/../font/../draw/../misc/lv_color_op.h ****     ret.green = LV_UDIV255((uint16_t)c1.green * mix + c2.green * (255 - mix) + LV_COLOR_MIX_ROUND_O
 133              		.loc 3 54 5 is_stmt 1 view .LVU26
 134              		.loc 3 54 17 is_stmt 0 view .LVU27
 135 0028 9DF80500 		ldrb	r0, [sp, #5]	@ zero_extendqisi2
 136 002c 9DF80110 		ldrb	r1, [sp, #1]	@ zero_extendqisi2
 137 0030 03FB01F1 		mul	r1, r3, r1
ARM GAS  C:\Users\Alex\AppData\Local\Temp\ccdKwz1H.s 			page 9


 138 0034 00FB0211 		mla	r1, r0, r2, r1
 139 0038 01EB0120 		add	r0, r1, r1, lsl #8
 140 003c 01EBC011 		add	r1, r1, r0, lsl #7
 141 0040 C90D     		lsrs	r1, r1, #23
 142              		.loc 3 54 15 view .LVU28
 143 0042 8DF80910 		strb	r1, [sp, #9]
  55:Lib/lvgl/src/core/../misc/../font/../draw/../misc/lv_color_op.h ****     ret.blue = LV_UDIV255((uint16_t)c1.blue * mix + c2.blue * (255 - mix) + LV_COLOR_MIX_ROUND_OFS)
 144              		.loc 3 55 5 is_stmt 1 view .LVU29
 145              		.loc 3 55 16 is_stmt 0 view .LVU30
 146 0046 9DF80610 		ldrb	r1, [sp, #6]	@ zero_extendqisi2
 147 004a 9DF80200 		ldrb	r0, [sp, #2]	@ zero_extendqisi2
 148 004e 00FB03F3 		mul	r3, r0, r3
 149 0052 01FB0232 		mla	r2, r1, r2, r3
 150              	.LVL4:
 151              		.loc 3 55 16 view .LVU31
 152 0056 02EB0223 		add	r3, r2, r2, lsl #8
 153 005a 02EBC312 		add	r2, r2, r3, lsl #7
 154 005e D20D     		lsrs	r2, r2, #23
 155              		.loc 3 55 14 view .LVU32
 156 0060 8DF80A20 		strb	r2, [sp, #10]
  56:Lib/lvgl/src/core/../misc/../font/../draw/../misc/lv_color_op.h ****     return ret;
 157              		.loc 3 56 5 is_stmt 1 view .LVU33
 158              		.loc 3 56 12 is_stmt 0 view .LVU34
 159 0064 029B     		ldr	r3, [sp, #8]
 160 0066 ADF80C30 		strh	r3, [sp, #12]	@ movhi
 161 006a 1B0C     		lsrs	r3, r3, #16
 162 006c 8DF80E30 		strb	r3, [sp, #14]
 163 0070 0020     		movs	r0, #0
 164 0072 9DF80C30 		ldrb	r3, [sp, #12]	@ zero_extendqisi2
 165 0076 63F30700 		bfi	r0, r3, #0, #8
 166 007a 9DF80D30 		ldrb	r3, [sp, #13]	@ zero_extendqisi2
 167 007e 63F30F20 		bfi	r0, r3, #8, #8
 168 0082 9DF80E30 		ldrb	r3, [sp, #14]	@ zero_extendqisi2
 169 0086 63F31740 		bfi	r0, r3, #16, #8
  57:Lib/lvgl/src/core/../misc/../font/../draw/../misc/lv_color_op.h **** }
 170              		.loc 3 57 1 view .LVU35
 171 008a 04B0     		add	sp, sp, #16
 172              	.LCFI3:
 173              		.cfi_def_cfa_offset 0
 174              		@ sp needed
 175 008c 7047     		bx	lr
 176              		.cfi_endproc
 177              	.LFE26:
 179              		.section	.text.lv_style_get_prop_inlined,"ax",%progbits
 180              		.align	1
 181              		.syntax unified
 182              		.thumb
 183              		.thumb_func
 185              	lv_style_get_prop_inlined:
 186              	.LVL5:
 187              	.LFB73:
 188              		.file 4 "Lib/lvgl/src/core/../misc/lv_style.h"
   1:Lib/lvgl/src/core/../misc/lv_style.h **** /**
   2:Lib/lvgl/src/core/../misc/lv_style.h ****  * @file lv_style.h
   3:Lib/lvgl/src/core/../misc/lv_style.h ****  *
   4:Lib/lvgl/src/core/../misc/lv_style.h ****  */
   5:Lib/lvgl/src/core/../misc/lv_style.h **** 
ARM GAS  C:\Users\Alex\AppData\Local\Temp\ccdKwz1H.s 			page 10


   6:Lib/lvgl/src/core/../misc/lv_style.h **** #ifndef LV_STYLE_H
   7:Lib/lvgl/src/core/../misc/lv_style.h **** #define LV_STYLE_H
   8:Lib/lvgl/src/core/../misc/lv_style.h **** 
   9:Lib/lvgl/src/core/../misc/lv_style.h **** #ifdef __cplusplus
  10:Lib/lvgl/src/core/../misc/lv_style.h **** extern "C" {
  11:Lib/lvgl/src/core/../misc/lv_style.h **** #endif
  12:Lib/lvgl/src/core/../misc/lv_style.h **** 
  13:Lib/lvgl/src/core/../misc/lv_style.h **** /*********************
  14:Lib/lvgl/src/core/../misc/lv_style.h ****  *      INCLUDES
  15:Lib/lvgl/src/core/../misc/lv_style.h ****  *********************/
  16:Lib/lvgl/src/core/../misc/lv_style.h **** #include <stdbool.h>
  17:Lib/lvgl/src/core/../misc/lv_style.h **** #include <stdint.h>
  18:Lib/lvgl/src/core/../misc/lv_style.h **** #include "../font/lv_font.h"
  19:Lib/lvgl/src/core/../misc/lv_style.h **** #include "lv_color.h"
  20:Lib/lvgl/src/core/../misc/lv_style.h **** #include "lv_area.h"
  21:Lib/lvgl/src/core/../misc/lv_style.h **** #include "lv_anim.h"
  22:Lib/lvgl/src/core/../misc/lv_style.h **** #include "lv_text.h"
  23:Lib/lvgl/src/core/../misc/lv_style.h **** #include "lv_types.h"
  24:Lib/lvgl/src/core/../misc/lv_style.h **** #include "lv_assert.h"
  25:Lib/lvgl/src/core/../misc/lv_style.h **** #include "lv_bidi.h"
  26:Lib/lvgl/src/core/../misc/lv_style.h **** #include "../layouts/lv_layout.h"
  27:Lib/lvgl/src/core/../misc/lv_style.h **** 
  28:Lib/lvgl/src/core/../misc/lv_style.h **** /*********************
  29:Lib/lvgl/src/core/../misc/lv_style.h ****  *      DEFINES
  30:Lib/lvgl/src/core/../misc/lv_style.h ****  *********************/
  31:Lib/lvgl/src/core/../misc/lv_style.h **** 
  32:Lib/lvgl/src/core/../misc/lv_style.h **** #define LV_STYLE_SENTINEL_VALUE     0xAABBCCDD
  33:Lib/lvgl/src/core/../misc/lv_style.h **** 
  34:Lib/lvgl/src/core/../misc/lv_style.h **** /**
  35:Lib/lvgl/src/core/../misc/lv_style.h ****  * Flags for style behavior
  36:Lib/lvgl/src/core/../misc/lv_style.h ****  *
  37:Lib/lvgl/src/core/../misc/lv_style.h ****  * The rest of the flags will have _FLAG added to their name in v9.
  38:Lib/lvgl/src/core/../misc/lv_style.h ****  */
  39:Lib/lvgl/src/core/../misc/lv_style.h **** #define LV_STYLE_PROP_FLAG_NONE                     (0)
  40:Lib/lvgl/src/core/../misc/lv_style.h **** #define LV_STYLE_PROP_FLAG_INHERITABLE              (1 << 0)  /*Inherited*/
  41:Lib/lvgl/src/core/../misc/lv_style.h **** #define LV_STYLE_PROP_FLAG_EXT_DRAW_UPDATE          (1 << 1)  /*Requires ext. draw size update when
  42:Lib/lvgl/src/core/../misc/lv_style.h **** #define LV_STYLE_PROP_FLAG_LAYOUT_UPDATE            (1 << 2)  /*Requires layout update when changed
  43:Lib/lvgl/src/core/../misc/lv_style.h **** #define LV_STYLE_PROP_FLAG_PARENT_LAYOUT_UPDATE     (1 << 3)  /*Requires layout update on parent wh
  44:Lib/lvgl/src/core/../misc/lv_style.h **** #define LV_STYLE_PROP_FLAG_LAYER_UPDATE             (1 << 4)  /*Affects layer handling*/
  45:Lib/lvgl/src/core/../misc/lv_style.h **** #define LV_STYLE_PROP_FLAG_TRANSFORM                (1 << 5)  /*Affects the object's transformation
  46:Lib/lvgl/src/core/../misc/lv_style.h **** #define LV_STYLE_PROP_FLAG_ALL                      (0x3F)    /*Indicating all flags*/
  47:Lib/lvgl/src/core/../misc/lv_style.h **** 
  48:Lib/lvgl/src/core/../misc/lv_style.h **** /**
  49:Lib/lvgl/src/core/../misc/lv_style.h ****  * Other constants
  50:Lib/lvgl/src/core/../misc/lv_style.h ****  */
  51:Lib/lvgl/src/core/../misc/lv_style.h **** #define LV_SCALE_NONE            256        /*Value for not zooming the image*/
  52:Lib/lvgl/src/core/../misc/lv_style.h **** LV_EXPORT_CONST_INT(LV_SCALE_NONE);
  53:Lib/lvgl/src/core/../misc/lv_style.h **** 
  54:Lib/lvgl/src/core/../misc/lv_style.h **** // *INDENT-OFF*
  55:Lib/lvgl/src/core/../misc/lv_style.h **** #if LV_USE_ASSERT_STYLE
  56:Lib/lvgl/src/core/../misc/lv_style.h **** #define LV_STYLE_CONST_INIT(var_name, prop_array)                       \
  57:Lib/lvgl/src/core/../misc/lv_style.h ****     const lv_style_t var_name = {                                       \
  58:Lib/lvgl/src/core/../misc/lv_style.h ****         .sentinel = LV_STYLE_SENTINEL_VALUE,                            \
  59:Lib/lvgl/src/core/../misc/lv_style.h ****         .values_and_props = (void*)prop_array,                                      \
  60:Lib/lvgl/src/core/../misc/lv_style.h ****         .has_group = 0xFFFFFFFF,                                        \
  61:Lib/lvgl/src/core/../misc/lv_style.h ****         .prop_cnt = 255                                               \
  62:Lib/lvgl/src/core/../misc/lv_style.h ****     }
ARM GAS  C:\Users\Alex\AppData\Local\Temp\ccdKwz1H.s 			page 11


  63:Lib/lvgl/src/core/../misc/lv_style.h **** #else
  64:Lib/lvgl/src/core/../misc/lv_style.h **** #define LV_STYLE_CONST_INIT(var_name, prop_array)                       \
  65:Lib/lvgl/src/core/../misc/lv_style.h ****     const lv_style_t var_name = {                                       \
  66:Lib/lvgl/src/core/../misc/lv_style.h ****         .values_and_props = prop_array,                                      \
  67:Lib/lvgl/src/core/../misc/lv_style.h ****         .has_group = 0xFFFFFFFF,                                        \
  68:Lib/lvgl/src/core/../misc/lv_style.h ****         .prop_cnt = 255,                                               \
  69:Lib/lvgl/src/core/../misc/lv_style.h ****     }
  70:Lib/lvgl/src/core/../misc/lv_style.h **** #endif
  71:Lib/lvgl/src/core/../misc/lv_style.h **** // *INDENT-ON*
  72:Lib/lvgl/src/core/../misc/lv_style.h **** 
  73:Lib/lvgl/src/core/../misc/lv_style.h **** #define LV_STYLE_CONST_PROPS_END { .prop_ptr = NULL, .value = { .num = 0 } }
  74:Lib/lvgl/src/core/../misc/lv_style.h **** 
  75:Lib/lvgl/src/core/../misc/lv_style.h **** /**********************
  76:Lib/lvgl/src/core/../misc/lv_style.h ****  *      TYPEDEFS
  77:Lib/lvgl/src/core/../misc/lv_style.h ****  **********************/
  78:Lib/lvgl/src/core/../misc/lv_style.h **** 
  79:Lib/lvgl/src/core/../misc/lv_style.h **** /**
  80:Lib/lvgl/src/core/../misc/lv_style.h ****  * Possible options how to blend opaque drawings
  81:Lib/lvgl/src/core/../misc/lv_style.h ****  */
  82:Lib/lvgl/src/core/../misc/lv_style.h **** enum _lv_blend_mode_t {
  83:Lib/lvgl/src/core/../misc/lv_style.h ****     LV_BLEND_MODE_NORMAL,     /**< Simply mix according to the opacity value*/
  84:Lib/lvgl/src/core/../misc/lv_style.h ****     LV_BLEND_MODE_ADDITIVE,   /**< Add the respective color channels*/
  85:Lib/lvgl/src/core/../misc/lv_style.h ****     LV_BLEND_MODE_SUBTRACTIVE,/**< Subtract the foreground from the background*/
  86:Lib/lvgl/src/core/../misc/lv_style.h ****     LV_BLEND_MODE_MULTIPLY,   /**< Multiply the foreground and background*/
  87:Lib/lvgl/src/core/../misc/lv_style.h **** };
  88:Lib/lvgl/src/core/../misc/lv_style.h **** 
  89:Lib/lvgl/src/core/../misc/lv_style.h **** #ifdef DOXYGEN
  90:Lib/lvgl/src/core/../misc/lv_style.h **** typedef _lv_blend_mode_t lv_blend_mode_t;
  91:Lib/lvgl/src/core/../misc/lv_style.h **** #else
  92:Lib/lvgl/src/core/../misc/lv_style.h **** typedef uint8_t lv_blend_mode_t;
  93:Lib/lvgl/src/core/../misc/lv_style.h **** #endif /*DOXYGEN*/
  94:Lib/lvgl/src/core/../misc/lv_style.h **** 
  95:Lib/lvgl/src/core/../misc/lv_style.h **** /**
  96:Lib/lvgl/src/core/../misc/lv_style.h ****  * Some options to apply decorations on texts.
  97:Lib/lvgl/src/core/../misc/lv_style.h ****  * 'OR'ed values can be used.
  98:Lib/lvgl/src/core/../misc/lv_style.h ****  */
  99:Lib/lvgl/src/core/../misc/lv_style.h **** enum _lv_text_decor_t {
 100:Lib/lvgl/src/core/../misc/lv_style.h ****     LV_TEXT_DECOR_NONE          = 0x00,
 101:Lib/lvgl/src/core/../misc/lv_style.h ****     LV_TEXT_DECOR_UNDERLINE     = 0x01,
 102:Lib/lvgl/src/core/../misc/lv_style.h ****     LV_TEXT_DECOR_STRIKETHROUGH = 0x02,
 103:Lib/lvgl/src/core/../misc/lv_style.h **** };
 104:Lib/lvgl/src/core/../misc/lv_style.h **** 
 105:Lib/lvgl/src/core/../misc/lv_style.h **** #ifdef DOXYGEN
 106:Lib/lvgl/src/core/../misc/lv_style.h **** typedef _lv_text_decor_t lv_text_decor_t;
 107:Lib/lvgl/src/core/../misc/lv_style.h **** #else
 108:Lib/lvgl/src/core/../misc/lv_style.h **** typedef uint8_t lv_text_decor_t;
 109:Lib/lvgl/src/core/../misc/lv_style.h **** #endif /*DOXYGEN*/
 110:Lib/lvgl/src/core/../misc/lv_style.h **** 
 111:Lib/lvgl/src/core/../misc/lv_style.h **** /**
 112:Lib/lvgl/src/core/../misc/lv_style.h ****  * Selects on which sides border should be drawn
 113:Lib/lvgl/src/core/../misc/lv_style.h ****  * 'OR'ed values can be used.
 114:Lib/lvgl/src/core/../misc/lv_style.h ****  */
 115:Lib/lvgl/src/core/../misc/lv_style.h **** enum _lv_border_side_t {
 116:Lib/lvgl/src/core/../misc/lv_style.h ****     LV_BORDER_SIDE_NONE     = 0x00,
 117:Lib/lvgl/src/core/../misc/lv_style.h ****     LV_BORDER_SIDE_BOTTOM   = 0x01,
 118:Lib/lvgl/src/core/../misc/lv_style.h ****     LV_BORDER_SIDE_TOP      = 0x02,
 119:Lib/lvgl/src/core/../misc/lv_style.h ****     LV_BORDER_SIDE_LEFT     = 0x04,
ARM GAS  C:\Users\Alex\AppData\Local\Temp\ccdKwz1H.s 			page 12


 120:Lib/lvgl/src/core/../misc/lv_style.h ****     LV_BORDER_SIDE_RIGHT    = 0x08,
 121:Lib/lvgl/src/core/../misc/lv_style.h ****     LV_BORDER_SIDE_FULL     = 0x0F,
 122:Lib/lvgl/src/core/../misc/lv_style.h ****     LV_BORDER_SIDE_INTERNAL = 0x10, /**< FOR matrix-like objects (e.g. Button matrix)*/
 123:Lib/lvgl/src/core/../misc/lv_style.h **** };
 124:Lib/lvgl/src/core/../misc/lv_style.h **** 
 125:Lib/lvgl/src/core/../misc/lv_style.h **** #ifdef DOXYGEN
 126:Lib/lvgl/src/core/../misc/lv_style.h **** typedef _lv_border_side_t lv_border_side_t;
 127:Lib/lvgl/src/core/../misc/lv_style.h **** #else
 128:Lib/lvgl/src/core/../misc/lv_style.h **** typedef uint8_t lv_border_side_t;
 129:Lib/lvgl/src/core/../misc/lv_style.h **** #endif /*DOXYGEN*/
 130:Lib/lvgl/src/core/../misc/lv_style.h **** 
 131:Lib/lvgl/src/core/../misc/lv_style.h **** /**
 132:Lib/lvgl/src/core/../misc/lv_style.h ****  * The direction of the gradient.
 133:Lib/lvgl/src/core/../misc/lv_style.h ****  */
 134:Lib/lvgl/src/core/../misc/lv_style.h **** enum _lv_grad_dir_t {
 135:Lib/lvgl/src/core/../misc/lv_style.h ****     LV_GRAD_DIR_NONE, /**< No gradient (the `grad_color` property is ignored)*/
 136:Lib/lvgl/src/core/../misc/lv_style.h ****     LV_GRAD_DIR_VER,  /**< Vertical (top to bottom) gradient*/
 137:Lib/lvgl/src/core/../misc/lv_style.h ****     LV_GRAD_DIR_HOR,  /**< Horizontal (left to right) gradient*/
 138:Lib/lvgl/src/core/../misc/lv_style.h **** };
 139:Lib/lvgl/src/core/../misc/lv_style.h **** 
 140:Lib/lvgl/src/core/../misc/lv_style.h **** #ifdef DOXYGEN
 141:Lib/lvgl/src/core/../misc/lv_style.h **** typedef _lv_grad_dir_t lv_grad_dir_t;
 142:Lib/lvgl/src/core/../misc/lv_style.h **** #else
 143:Lib/lvgl/src/core/../misc/lv_style.h **** typedef uint8_t lv_grad_dir_t;
 144:Lib/lvgl/src/core/../misc/lv_style.h **** #endif /*DOXYGEN*/
 145:Lib/lvgl/src/core/../misc/lv_style.h **** 
 146:Lib/lvgl/src/core/../misc/lv_style.h **** /** A gradient stop definition.
 147:Lib/lvgl/src/core/../misc/lv_style.h ****  *  This matches a color and a position in a virtual 0-255 scale.
 148:Lib/lvgl/src/core/../misc/lv_style.h ****  */
 149:Lib/lvgl/src/core/../misc/lv_style.h **** typedef struct {
 150:Lib/lvgl/src/core/../misc/lv_style.h ****     lv_color_t color;   /**< The stop color */
 151:Lib/lvgl/src/core/../misc/lv_style.h ****     lv_opa_t   opa;     /**< The opacity of the color*/
 152:Lib/lvgl/src/core/../misc/lv_style.h ****     uint8_t    frac;    /**< The stop position in 1/255 unit */
 153:Lib/lvgl/src/core/../misc/lv_style.h **** } lv_gradient_stop_t;
 154:Lib/lvgl/src/core/../misc/lv_style.h **** 
 155:Lib/lvgl/src/core/../misc/lv_style.h **** /** A descriptor of a gradient. */
 156:Lib/lvgl/src/core/../misc/lv_style.h **** typedef struct {
 157:Lib/lvgl/src/core/../misc/lv_style.h ****     lv_gradient_stop_t   stops[LV_GRADIENT_MAX_STOPS]; /**< A gradient stop array */
 158:Lib/lvgl/src/core/../misc/lv_style.h ****     uint8_t              stops_count;                  /**< The number of used stops in the array *
 159:Lib/lvgl/src/core/../misc/lv_style.h ****     lv_grad_dir_t        dir : 3;                      /**< The gradient direction.
 160:Lib/lvgl/src/core/../misc/lv_style.h ****                                                         * Any of LV_GRAD_DIR_HOR, LV_GRAD_DIR_VER, 
 161:Lib/lvgl/src/core/../misc/lv_style.h **** } lv_grad_dsc_t;
 162:Lib/lvgl/src/core/../misc/lv_style.h **** 
 163:Lib/lvgl/src/core/../misc/lv_style.h **** /**
 164:Lib/lvgl/src/core/../misc/lv_style.h ****  * A common type to handle all the property types in the same way.
 165:Lib/lvgl/src/core/../misc/lv_style.h ****  */
 166:Lib/lvgl/src/core/../misc/lv_style.h **** typedef union {
 167:Lib/lvgl/src/core/../misc/lv_style.h ****     int32_t num;         /**< Number integer number (opacity, enums, booleans or "normal" numbers)*
 168:Lib/lvgl/src/core/../misc/lv_style.h ****     const void * ptr;    /**< Constant pointers  (font, cone text, etc)*/
 169:Lib/lvgl/src/core/../misc/lv_style.h ****     lv_color_t color;    /**< Colors*/
 170:Lib/lvgl/src/core/../misc/lv_style.h **** } lv_style_value_t;
 171:Lib/lvgl/src/core/../misc/lv_style.h **** 
 172:Lib/lvgl/src/core/../misc/lv_style.h **** /**
 173:Lib/lvgl/src/core/../misc/lv_style.h ****  * Enumeration of all built in style properties
 174:Lib/lvgl/src/core/../misc/lv_style.h ****  *
 175:Lib/lvgl/src/core/../misc/lv_style.h ****  * Props are split into groups of 16. When adding a new prop to a group, ensure it does not overflo
 176:Lib/lvgl/src/core/../misc/lv_style.h ****  */
ARM GAS  C:\Users\Alex\AppData\Local\Temp\ccdKwz1H.s 			page 13


 177:Lib/lvgl/src/core/../misc/lv_style.h **** enum _lv_style_prop_t {
 178:Lib/lvgl/src/core/../misc/lv_style.h ****     LV_STYLE_PROP_INV               = 0,
 179:Lib/lvgl/src/core/../misc/lv_style.h **** 
 180:Lib/lvgl/src/core/../misc/lv_style.h ****     /*Group 0*/
 181:Lib/lvgl/src/core/../misc/lv_style.h ****     LV_STYLE_WIDTH                  = 1,
 182:Lib/lvgl/src/core/../misc/lv_style.h ****     LV_STYLE_HEIGHT                 = 2,
 183:Lib/lvgl/src/core/../misc/lv_style.h ****     LV_STYLE_LENGTH                 = 3,
 184:Lib/lvgl/src/core/../misc/lv_style.h **** 
 185:Lib/lvgl/src/core/../misc/lv_style.h ****     LV_STYLE_MIN_WIDTH              = 4,
 186:Lib/lvgl/src/core/../misc/lv_style.h ****     LV_STYLE_MAX_WIDTH              = 5,
 187:Lib/lvgl/src/core/../misc/lv_style.h ****     LV_STYLE_MIN_HEIGHT             = 6,
 188:Lib/lvgl/src/core/../misc/lv_style.h ****     LV_STYLE_MAX_HEIGHT             = 7,
 189:Lib/lvgl/src/core/../misc/lv_style.h **** 
 190:Lib/lvgl/src/core/../misc/lv_style.h ****     LV_STYLE_X                      = 8,
 191:Lib/lvgl/src/core/../misc/lv_style.h ****     LV_STYLE_Y                      = 9,
 192:Lib/lvgl/src/core/../misc/lv_style.h ****     LV_STYLE_ALIGN                  = 10,
 193:Lib/lvgl/src/core/../misc/lv_style.h **** 
 194:Lib/lvgl/src/core/../misc/lv_style.h ****     LV_STYLE_RADIUS                 = 12,
 195:Lib/lvgl/src/core/../misc/lv_style.h **** 
 196:Lib/lvgl/src/core/../misc/lv_style.h ****     /*Group 1*/
 197:Lib/lvgl/src/core/../misc/lv_style.h ****     LV_STYLE_PAD_TOP                = 16,
 198:Lib/lvgl/src/core/../misc/lv_style.h ****     LV_STYLE_PAD_BOTTOM             = 17,
 199:Lib/lvgl/src/core/../misc/lv_style.h ****     LV_STYLE_PAD_LEFT               = 18,
 200:Lib/lvgl/src/core/../misc/lv_style.h ****     LV_STYLE_PAD_RIGHT              = 19,
 201:Lib/lvgl/src/core/../misc/lv_style.h **** 
 202:Lib/lvgl/src/core/../misc/lv_style.h ****     LV_STYLE_PAD_ROW                = 20,
 203:Lib/lvgl/src/core/../misc/lv_style.h ****     LV_STYLE_PAD_COLUMN             = 21,
 204:Lib/lvgl/src/core/../misc/lv_style.h ****     LV_STYLE_LAYOUT                 = 22,
 205:Lib/lvgl/src/core/../misc/lv_style.h **** 
 206:Lib/lvgl/src/core/../misc/lv_style.h ****     LV_STYLE_MARGIN_TOP             = 24,
 207:Lib/lvgl/src/core/../misc/lv_style.h ****     LV_STYLE_MARGIN_BOTTOM          = 25,
 208:Lib/lvgl/src/core/../misc/lv_style.h ****     LV_STYLE_MARGIN_LEFT            = 26,
 209:Lib/lvgl/src/core/../misc/lv_style.h ****     LV_STYLE_MARGIN_RIGHT           = 27,
 210:Lib/lvgl/src/core/../misc/lv_style.h **** 
 211:Lib/lvgl/src/core/../misc/lv_style.h ****     /*Group 2*/
 212:Lib/lvgl/src/core/../misc/lv_style.h ****     LV_STYLE_BG_COLOR               = 28,
 213:Lib/lvgl/src/core/../misc/lv_style.h ****     LV_STYLE_BG_OPA                 = 29,
 214:Lib/lvgl/src/core/../misc/lv_style.h **** 
 215:Lib/lvgl/src/core/../misc/lv_style.h ****     LV_STYLE_BG_GRAD_DIR            = 32,
 216:Lib/lvgl/src/core/../misc/lv_style.h ****     LV_STYLE_BG_MAIN_STOP           = 33,
 217:Lib/lvgl/src/core/../misc/lv_style.h ****     LV_STYLE_BG_GRAD_STOP           = 34,
 218:Lib/lvgl/src/core/../misc/lv_style.h ****     LV_STYLE_BG_GRAD_COLOR          = 35,
 219:Lib/lvgl/src/core/../misc/lv_style.h **** 
 220:Lib/lvgl/src/core/../misc/lv_style.h ****     LV_STYLE_BG_MAIN_OPA            = 36,
 221:Lib/lvgl/src/core/../misc/lv_style.h ****     LV_STYLE_BG_GRAD_OPA            = 37,
 222:Lib/lvgl/src/core/../misc/lv_style.h ****     LV_STYLE_BG_GRAD                = 38,
 223:Lib/lvgl/src/core/../misc/lv_style.h ****     LV_STYLE_BASE_DIR               = 39,
 224:Lib/lvgl/src/core/../misc/lv_style.h **** 
 225:Lib/lvgl/src/core/../misc/lv_style.h ****     LV_STYLE_BG_IMAGE_SRC             = 40,
 226:Lib/lvgl/src/core/../misc/lv_style.h ****     LV_STYLE_BG_IMAGE_OPA             = 41,
 227:Lib/lvgl/src/core/../misc/lv_style.h ****     LV_STYLE_BG_IMAGE_RECOLOR         = 42,
 228:Lib/lvgl/src/core/../misc/lv_style.h ****     LV_STYLE_BG_IMAGE_RECOLOR_OPA     = 43,
 229:Lib/lvgl/src/core/../misc/lv_style.h **** 
 230:Lib/lvgl/src/core/../misc/lv_style.h ****     LV_STYLE_BG_IMAGE_TILED           = 44,
 231:Lib/lvgl/src/core/../misc/lv_style.h ****     LV_STYLE_CLIP_CORNER            = 45,
 232:Lib/lvgl/src/core/../misc/lv_style.h **** 
 233:Lib/lvgl/src/core/../misc/lv_style.h ****     /*Group 3*/
ARM GAS  C:\Users\Alex\AppData\Local\Temp\ccdKwz1H.s 			page 14


 234:Lib/lvgl/src/core/../misc/lv_style.h ****     LV_STYLE_BORDER_WIDTH           = 48,
 235:Lib/lvgl/src/core/../misc/lv_style.h ****     LV_STYLE_BORDER_COLOR           = 49,
 236:Lib/lvgl/src/core/../misc/lv_style.h ****     LV_STYLE_BORDER_OPA             = 50,
 237:Lib/lvgl/src/core/../misc/lv_style.h **** 
 238:Lib/lvgl/src/core/../misc/lv_style.h ****     LV_STYLE_BORDER_SIDE            = 52,
 239:Lib/lvgl/src/core/../misc/lv_style.h ****     LV_STYLE_BORDER_POST            = 53,
 240:Lib/lvgl/src/core/../misc/lv_style.h **** 
 241:Lib/lvgl/src/core/../misc/lv_style.h ****     LV_STYLE_OUTLINE_WIDTH          = 56,
 242:Lib/lvgl/src/core/../misc/lv_style.h ****     LV_STYLE_OUTLINE_COLOR          = 57,
 243:Lib/lvgl/src/core/../misc/lv_style.h ****     LV_STYLE_OUTLINE_OPA            = 58,
 244:Lib/lvgl/src/core/../misc/lv_style.h ****     LV_STYLE_OUTLINE_PAD            = 59,
 245:Lib/lvgl/src/core/../misc/lv_style.h **** 
 246:Lib/lvgl/src/core/../misc/lv_style.h ****     /*Group 4*/
 247:Lib/lvgl/src/core/../misc/lv_style.h ****     LV_STYLE_SHADOW_WIDTH           = 60,
 248:Lib/lvgl/src/core/../misc/lv_style.h ****     LV_STYLE_SHADOW_COLOR           = 61,
 249:Lib/lvgl/src/core/../misc/lv_style.h ****     LV_STYLE_SHADOW_OPA             = 62,
 250:Lib/lvgl/src/core/../misc/lv_style.h **** 
 251:Lib/lvgl/src/core/../misc/lv_style.h ****     LV_STYLE_SHADOW_OFFSET_X        = 64,
 252:Lib/lvgl/src/core/../misc/lv_style.h ****     LV_STYLE_SHADOW_OFFSET_Y        = 65,
 253:Lib/lvgl/src/core/../misc/lv_style.h ****     LV_STYLE_SHADOW_SPREAD          = 66,
 254:Lib/lvgl/src/core/../misc/lv_style.h **** 
 255:Lib/lvgl/src/core/../misc/lv_style.h ****     LV_STYLE_IMAGE_OPA                = 68,
 256:Lib/lvgl/src/core/../misc/lv_style.h ****     LV_STYLE_IMAGE_RECOLOR            = 69,
 257:Lib/lvgl/src/core/../misc/lv_style.h ****     LV_STYLE_IMAGE_RECOLOR_OPA        = 70,
 258:Lib/lvgl/src/core/../misc/lv_style.h **** 
 259:Lib/lvgl/src/core/../misc/lv_style.h ****     LV_STYLE_LINE_WIDTH             = 72,
 260:Lib/lvgl/src/core/../misc/lv_style.h ****     LV_STYLE_LINE_DASH_WIDTH        = 73,
 261:Lib/lvgl/src/core/../misc/lv_style.h ****     LV_STYLE_LINE_DASH_GAP          = 74,
 262:Lib/lvgl/src/core/../misc/lv_style.h ****     LV_STYLE_LINE_ROUNDED           = 75,
 263:Lib/lvgl/src/core/../misc/lv_style.h ****     LV_STYLE_LINE_COLOR             = 76,
 264:Lib/lvgl/src/core/../misc/lv_style.h ****     LV_STYLE_LINE_OPA               = 77,
 265:Lib/lvgl/src/core/../misc/lv_style.h **** 
 266:Lib/lvgl/src/core/../misc/lv_style.h ****     /*Group 5*/
 267:Lib/lvgl/src/core/../misc/lv_style.h ****     LV_STYLE_ARC_WIDTH              = 80,
 268:Lib/lvgl/src/core/../misc/lv_style.h ****     LV_STYLE_ARC_ROUNDED            = 81,
 269:Lib/lvgl/src/core/../misc/lv_style.h ****     LV_STYLE_ARC_COLOR              = 82,
 270:Lib/lvgl/src/core/../misc/lv_style.h ****     LV_STYLE_ARC_OPA                = 83,
 271:Lib/lvgl/src/core/../misc/lv_style.h ****     LV_STYLE_ARC_IMAGE_SRC            = 84,
 272:Lib/lvgl/src/core/../misc/lv_style.h **** 
 273:Lib/lvgl/src/core/../misc/lv_style.h ****     LV_STYLE_TEXT_COLOR             = 88,
 274:Lib/lvgl/src/core/../misc/lv_style.h ****     LV_STYLE_TEXT_OPA               = 89,
 275:Lib/lvgl/src/core/../misc/lv_style.h ****     LV_STYLE_TEXT_FONT              = 90,
 276:Lib/lvgl/src/core/../misc/lv_style.h **** 
 277:Lib/lvgl/src/core/../misc/lv_style.h ****     LV_STYLE_TEXT_LETTER_SPACE      = 91,
 278:Lib/lvgl/src/core/../misc/lv_style.h ****     LV_STYLE_TEXT_LINE_SPACE        = 92,
 279:Lib/lvgl/src/core/../misc/lv_style.h ****     LV_STYLE_TEXT_DECOR             = 93,
 280:Lib/lvgl/src/core/../misc/lv_style.h ****     LV_STYLE_TEXT_ALIGN             = 94,
 281:Lib/lvgl/src/core/../misc/lv_style.h **** 
 282:Lib/lvgl/src/core/../misc/lv_style.h ****     LV_STYLE_OPA                    = 95,
 283:Lib/lvgl/src/core/../misc/lv_style.h ****     LV_STYLE_OPA_LAYERED            = 96,
 284:Lib/lvgl/src/core/../misc/lv_style.h ****     LV_STYLE_COLOR_FILTER_DSC       = 97,
 285:Lib/lvgl/src/core/../misc/lv_style.h ****     LV_STYLE_COLOR_FILTER_OPA       = 98,
 286:Lib/lvgl/src/core/../misc/lv_style.h ****     LV_STYLE_ANIM                   = 99,
 287:Lib/lvgl/src/core/../misc/lv_style.h ****     LV_STYLE_ANIM_DURATION          = 100,
 288:Lib/lvgl/src/core/../misc/lv_style.h ****     LV_STYLE_TRANSITION             = 102,
 289:Lib/lvgl/src/core/../misc/lv_style.h ****     LV_STYLE_BLEND_MODE             = 103,
 290:Lib/lvgl/src/core/../misc/lv_style.h ****     LV_STYLE_TRANSFORM_WIDTH        = 104,
ARM GAS  C:\Users\Alex\AppData\Local\Temp\ccdKwz1H.s 			page 15


 291:Lib/lvgl/src/core/../misc/lv_style.h ****     LV_STYLE_TRANSFORM_HEIGHT       = 105,
 292:Lib/lvgl/src/core/../misc/lv_style.h ****     LV_STYLE_TRANSLATE_X            = 106,
 293:Lib/lvgl/src/core/../misc/lv_style.h ****     LV_STYLE_TRANSLATE_Y            = 107,
 294:Lib/lvgl/src/core/../misc/lv_style.h ****     LV_STYLE_TRANSFORM_SCALE_X      = 108,
 295:Lib/lvgl/src/core/../misc/lv_style.h ****     LV_STYLE_TRANSFORM_SCALE_Y      = 109,
 296:Lib/lvgl/src/core/../misc/lv_style.h ****     LV_STYLE_TRANSFORM_ROTATION     = 110,
 297:Lib/lvgl/src/core/../misc/lv_style.h ****     LV_STYLE_TRANSFORM_PIVOT_X      = 111,
 298:Lib/lvgl/src/core/../misc/lv_style.h ****     LV_STYLE_TRANSFORM_PIVOT_Y      = 112,
 299:Lib/lvgl/src/core/../misc/lv_style.h ****     LV_STYLE_TRANSFORM_SKEW_X       = 113,
 300:Lib/lvgl/src/core/../misc/lv_style.h ****     LV_STYLE_TRANSFORM_SKEW_Y       = 114,
 301:Lib/lvgl/src/core/../misc/lv_style.h **** 
 302:Lib/lvgl/src/core/../misc/lv_style.h **** #if LV_USE_FLEX
 303:Lib/lvgl/src/core/../misc/lv_style.h ****     LV_STYLE_FLEX_FLOW              = 115,
 304:Lib/lvgl/src/core/../misc/lv_style.h ****     LV_STYLE_FLEX_MAIN_PLACE        = 116,
 305:Lib/lvgl/src/core/../misc/lv_style.h ****     LV_STYLE_FLEX_CROSS_PLACE       = 117,
 306:Lib/lvgl/src/core/../misc/lv_style.h ****     LV_STYLE_FLEX_TRACK_PLACE       = 118,
 307:Lib/lvgl/src/core/../misc/lv_style.h ****     LV_STYLE_FLEX_GROW              = 119,
 308:Lib/lvgl/src/core/../misc/lv_style.h **** #endif
 309:Lib/lvgl/src/core/../misc/lv_style.h **** 
 310:Lib/lvgl/src/core/../misc/lv_style.h **** #if LV_USE_GRID
 311:Lib/lvgl/src/core/../misc/lv_style.h ****     LV_STYLE_GRID_COLUMN_ALIGN      = 120,
 312:Lib/lvgl/src/core/../misc/lv_style.h ****     LV_STYLE_GRID_ROW_ALIGN         = 121,
 313:Lib/lvgl/src/core/../misc/lv_style.h ****     LV_STYLE_GRID_ROW_DSC_ARRAY     = 122,
 314:Lib/lvgl/src/core/../misc/lv_style.h ****     LV_STYLE_GRID_COLUMN_DSC_ARRAY  = 123,
 315:Lib/lvgl/src/core/../misc/lv_style.h ****     LV_STYLE_GRID_CELL_COLUMN_POS   = 124,
 316:Lib/lvgl/src/core/../misc/lv_style.h ****     LV_STYLE_GRID_CELL_COLUMN_SPAN  = 125,
 317:Lib/lvgl/src/core/../misc/lv_style.h ****     LV_STYLE_GRID_CELL_X_ALIGN      = 126,
 318:Lib/lvgl/src/core/../misc/lv_style.h ****     LV_STYLE_GRID_CELL_ROW_POS      = 127,
 319:Lib/lvgl/src/core/../misc/lv_style.h ****     LV_STYLE_GRID_CELL_ROW_SPAN     = 128,
 320:Lib/lvgl/src/core/../misc/lv_style.h ****     LV_STYLE_GRID_CELL_Y_ALIGN      = 129,
 321:Lib/lvgl/src/core/../misc/lv_style.h **** #endif
 322:Lib/lvgl/src/core/../misc/lv_style.h **** 
 323:Lib/lvgl/src/core/../misc/lv_style.h ****     _LV_STYLE_LAST_BUILT_IN_PROP     = 130,
 324:Lib/lvgl/src/core/../misc/lv_style.h **** 
 325:Lib/lvgl/src/core/../misc/lv_style.h ****     _LV_STYLE_NUM_BUILT_IN_PROPS     = _LV_STYLE_LAST_BUILT_IN_PROP + 1,
 326:Lib/lvgl/src/core/../misc/lv_style.h **** 
 327:Lib/lvgl/src/core/../misc/lv_style.h ****     LV_STYLE_PROP_ANY                = 0xFF,
 328:Lib/lvgl/src/core/../misc/lv_style.h ****     _LV_STYLE_PROP_CONST             = 0xFF /* magic value for const styles */
 329:Lib/lvgl/src/core/../misc/lv_style.h **** };
 330:Lib/lvgl/src/core/../misc/lv_style.h **** 
 331:Lib/lvgl/src/core/../misc/lv_style.h **** #ifdef DOXYGEN
 332:Lib/lvgl/src/core/../misc/lv_style.h **** typedef _lv_style_prop_t lv_style_prop_t;
 333:Lib/lvgl/src/core/../misc/lv_style.h **** #else
 334:Lib/lvgl/src/core/../misc/lv_style.h **** typedef uint8_t lv_style_prop_t;
 335:Lib/lvgl/src/core/../misc/lv_style.h **** #endif /*DOXYGEN*/
 336:Lib/lvgl/src/core/../misc/lv_style.h **** 
 337:Lib/lvgl/src/core/../misc/lv_style.h **** enum _lv_style_res_t {
 338:Lib/lvgl/src/core/../misc/lv_style.h ****     LV_STYLE_RES_NOT_FOUND,
 339:Lib/lvgl/src/core/../misc/lv_style.h ****     LV_STYLE_RES_FOUND,
 340:Lib/lvgl/src/core/../misc/lv_style.h **** };
 341:Lib/lvgl/src/core/../misc/lv_style.h **** 
 342:Lib/lvgl/src/core/../misc/lv_style.h **** #ifdef DOXYGEN
 343:Lib/lvgl/src/core/../misc/lv_style.h **** typedef _lv_style_res_t lv_style_res_t;
 344:Lib/lvgl/src/core/../misc/lv_style.h **** #else
 345:Lib/lvgl/src/core/../misc/lv_style.h **** typedef uint8_t lv_style_res_t;
 346:Lib/lvgl/src/core/../misc/lv_style.h **** #endif /*DOXYGEN*/
 347:Lib/lvgl/src/core/../misc/lv_style.h **** 
ARM GAS  C:\Users\Alex\AppData\Local\Temp\ccdKwz1H.s 			page 16


 348:Lib/lvgl/src/core/../misc/lv_style.h **** /**
 349:Lib/lvgl/src/core/../misc/lv_style.h ****  * Descriptor for style transitions
 350:Lib/lvgl/src/core/../misc/lv_style.h ****  */
 351:Lib/lvgl/src/core/../misc/lv_style.h **** typedef struct {
 352:Lib/lvgl/src/core/../misc/lv_style.h ****     const lv_style_prop_t * props; /**< An array with the properties to animate.*/
 353:Lib/lvgl/src/core/../misc/lv_style.h ****     void * user_data;              /**< A custom user data that will be passed to the animation's u
 354:Lib/lvgl/src/core/../misc/lv_style.h ****     lv_anim_path_cb_t path_xcb;     /**< A path for the animation.*/
 355:Lib/lvgl/src/core/../misc/lv_style.h ****     uint32_t time;                 /**< Duration of the transition in [ms]*/
 356:Lib/lvgl/src/core/../misc/lv_style.h ****     uint32_t delay;                /**< Delay before the transition in [ms]*/
 357:Lib/lvgl/src/core/../misc/lv_style.h **** } lv_style_transition_dsc_t;
 358:Lib/lvgl/src/core/../misc/lv_style.h **** 
 359:Lib/lvgl/src/core/../misc/lv_style.h **** /**
 360:Lib/lvgl/src/core/../misc/lv_style.h ****  * Descriptor of a constant style property.
 361:Lib/lvgl/src/core/../misc/lv_style.h ****  */
 362:Lib/lvgl/src/core/../misc/lv_style.h **** typedef struct {
 363:Lib/lvgl/src/core/../misc/lv_style.h ****     const lv_style_prop_t * prop_ptr;
 364:Lib/lvgl/src/core/../misc/lv_style.h ****     lv_style_value_t value;
 365:Lib/lvgl/src/core/../misc/lv_style.h **** } lv_style_const_prop_t;
 366:Lib/lvgl/src/core/../misc/lv_style.h **** 
 367:Lib/lvgl/src/core/../misc/lv_style.h **** /**
 368:Lib/lvgl/src/core/../misc/lv_style.h ****  * Descriptor of a style (a collection of properties and values).
 369:Lib/lvgl/src/core/../misc/lv_style.h ****  */
 370:Lib/lvgl/src/core/../misc/lv_style.h **** typedef struct {
 371:Lib/lvgl/src/core/../misc/lv_style.h **** 
 372:Lib/lvgl/src/core/../misc/lv_style.h **** #if LV_USE_ASSERT_STYLE
 373:Lib/lvgl/src/core/../misc/lv_style.h ****     uint32_t sentinel;
 374:Lib/lvgl/src/core/../misc/lv_style.h **** #endif
 375:Lib/lvgl/src/core/../misc/lv_style.h **** 
 376:Lib/lvgl/src/core/../misc/lv_style.h ****     void * values_and_props;
 377:Lib/lvgl/src/core/../misc/lv_style.h **** 
 378:Lib/lvgl/src/core/../misc/lv_style.h ****     uint32_t has_group;
 379:Lib/lvgl/src/core/../misc/lv_style.h ****     uint8_t prop_cnt;   /**< 255 means it's a constant style*/
 380:Lib/lvgl/src/core/../misc/lv_style.h **** } lv_style_t;
 381:Lib/lvgl/src/core/../misc/lv_style.h **** 
 382:Lib/lvgl/src/core/../misc/lv_style.h **** /**********************
 383:Lib/lvgl/src/core/../misc/lv_style.h ****  * GLOBAL PROTOTYPES
 384:Lib/lvgl/src/core/../misc/lv_style.h ****  **********************/
 385:Lib/lvgl/src/core/../misc/lv_style.h **** 
 386:Lib/lvgl/src/core/../misc/lv_style.h **** /**
 387:Lib/lvgl/src/core/../misc/lv_style.h ****  * Initialize a style
 388:Lib/lvgl/src/core/../misc/lv_style.h ****  * @param style pointer to a style to initialize
 389:Lib/lvgl/src/core/../misc/lv_style.h ****  * @note Do not call `lv_style_init` on styles that already have some properties
 390:Lib/lvgl/src/core/../misc/lv_style.h ****  *       because this function won't free the used memory, just sets a default state for the style.
 391:Lib/lvgl/src/core/../misc/lv_style.h ****  *       In other words be sure to initialize styles only once!
 392:Lib/lvgl/src/core/../misc/lv_style.h ****  */
 393:Lib/lvgl/src/core/../misc/lv_style.h **** void lv_style_init(lv_style_t * style);
 394:Lib/lvgl/src/core/../misc/lv_style.h **** 
 395:Lib/lvgl/src/core/../misc/lv_style.h **** /**
 396:Lib/lvgl/src/core/../misc/lv_style.h ****  * Clear all properties from a style and free all allocated memories.
 397:Lib/lvgl/src/core/../misc/lv_style.h ****  * @param style pointer to a style
 398:Lib/lvgl/src/core/../misc/lv_style.h ****  */
 399:Lib/lvgl/src/core/../misc/lv_style.h **** void lv_style_reset(lv_style_t * style);
 400:Lib/lvgl/src/core/../misc/lv_style.h **** 
 401:Lib/lvgl/src/core/../misc/lv_style.h **** /**
 402:Lib/lvgl/src/core/../misc/lv_style.h ****  * Check if a style is constant
 403:Lib/lvgl/src/core/../misc/lv_style.h ****  * @param style     pointer to a style
 404:Lib/lvgl/src/core/../misc/lv_style.h ****  * @return          true: the style is constant
ARM GAS  C:\Users\Alex\AppData\Local\Temp\ccdKwz1H.s 			page 17


 405:Lib/lvgl/src/core/../misc/lv_style.h ****  */
 406:Lib/lvgl/src/core/../misc/lv_style.h **** static inline bool lv_style_is_const(const lv_style_t * style)
 407:Lib/lvgl/src/core/../misc/lv_style.h **** {
 408:Lib/lvgl/src/core/../misc/lv_style.h ****     if(style->prop_cnt == 255) return true;
 409:Lib/lvgl/src/core/../misc/lv_style.h ****     return false;
 410:Lib/lvgl/src/core/../misc/lv_style.h **** }
 411:Lib/lvgl/src/core/../misc/lv_style.h **** 
 412:Lib/lvgl/src/core/../misc/lv_style.h **** /**
 413:Lib/lvgl/src/core/../misc/lv_style.h ****  * Register a new style property for custom usage
 414:Lib/lvgl/src/core/../misc/lv_style.h ****  * @return a new property ID, or LV_STYLE_PROP_INV if there are no more available.
 415:Lib/lvgl/src/core/../misc/lv_style.h ****  * @example
 416:Lib/lvgl/src/core/../misc/lv_style.h ****  * lv_style_prop_t MY_PROP;
 417:Lib/lvgl/src/core/../misc/lv_style.h ****  * static inline void lv_style_set_my_prop(lv_style_t * style, lv_color_t value) {
 418:Lib/lvgl/src/core/../misc/lv_style.h ****  * lv_style_value_t v = {.color = value}; lv_style_set_prop(style, MY_PROP, v); }
 419:Lib/lvgl/src/core/../misc/lv_style.h ****  *
 420:Lib/lvgl/src/core/../misc/lv_style.h ****  * ...
 421:Lib/lvgl/src/core/../misc/lv_style.h ****  * MY_PROP = lv_style_register_prop();
 422:Lib/lvgl/src/core/../misc/lv_style.h ****  * ...
 423:Lib/lvgl/src/core/../misc/lv_style.h ****  * lv_style_set_my_prop(&style1, lv_palette_main(LV_PALETTE_RED));
 424:Lib/lvgl/src/core/../misc/lv_style.h ****  */
 425:Lib/lvgl/src/core/../misc/lv_style.h **** lv_style_prop_t lv_style_register_prop(uint8_t flag);
 426:Lib/lvgl/src/core/../misc/lv_style.h **** 
 427:Lib/lvgl/src/core/../misc/lv_style.h **** /**
 428:Lib/lvgl/src/core/../misc/lv_style.h ****  * Get the number of custom properties that have been registered thus far.
 429:Lib/lvgl/src/core/../misc/lv_style.h ****  */
 430:Lib/lvgl/src/core/../misc/lv_style.h **** lv_style_prop_t lv_style_get_num_custom_props(void);
 431:Lib/lvgl/src/core/../misc/lv_style.h **** 
 432:Lib/lvgl/src/core/../misc/lv_style.h **** /**
 433:Lib/lvgl/src/core/../misc/lv_style.h ****  * Remove a property from a style
 434:Lib/lvgl/src/core/../misc/lv_style.h ****  * @param style pointer to a style
 435:Lib/lvgl/src/core/../misc/lv_style.h ****  * @param prop  a style property ORed with a state.
 436:Lib/lvgl/src/core/../misc/lv_style.h ****  * @return true: the property was found and removed; false: the property wasn't found
 437:Lib/lvgl/src/core/../misc/lv_style.h ****  */
 438:Lib/lvgl/src/core/../misc/lv_style.h **** bool lv_style_remove_prop(lv_style_t * style, lv_style_prop_t prop);
 439:Lib/lvgl/src/core/../misc/lv_style.h **** 
 440:Lib/lvgl/src/core/../misc/lv_style.h **** /**
 441:Lib/lvgl/src/core/../misc/lv_style.h ****  * Set the value of property in a style.
 442:Lib/lvgl/src/core/../misc/lv_style.h ****  * This function shouldn't be used directly by the user.
 443:Lib/lvgl/src/core/../misc/lv_style.h ****  * Instead use `lv_style_set_<prop_name>()`. E.g. `lv_style_set_bg_color()`
 444:Lib/lvgl/src/core/../misc/lv_style.h ****  * @param style pointer to style
 445:Lib/lvgl/src/core/../misc/lv_style.h ****  * @param prop the ID of a property (e.g. `LV_STYLE_BG_COLOR`)
 446:Lib/lvgl/src/core/../misc/lv_style.h ****  * @param value `lv_style_value_t` variable in which a field is set according to the type of `prop`
 447:Lib/lvgl/src/core/../misc/lv_style.h ****  */
 448:Lib/lvgl/src/core/../misc/lv_style.h **** void lv_style_set_prop(lv_style_t * style, lv_style_prop_t prop, lv_style_value_t value);
 449:Lib/lvgl/src/core/../misc/lv_style.h **** 
 450:Lib/lvgl/src/core/../misc/lv_style.h **** /**
 451:Lib/lvgl/src/core/../misc/lv_style.h ****  * Get the value of a property
 452:Lib/lvgl/src/core/../misc/lv_style.h ****  * @param style pointer to a style
 453:Lib/lvgl/src/core/../misc/lv_style.h ****  * @param prop  the ID of a property
 454:Lib/lvgl/src/core/../misc/lv_style.h ****  * @param value pointer to a `lv_style_value_t` variable to store the value
 455:Lib/lvgl/src/core/../misc/lv_style.h ****  * @return LV_RESULT_INVALID: the property wasn't found in the style (`value` is unchanged)
 456:Lib/lvgl/src/core/../misc/lv_style.h ****  *         LV_RESULT_OK: the property was fond, and `value` is set accordingly
 457:Lib/lvgl/src/core/../misc/lv_style.h ****  * @note For performance reasons there are no sanity check on `style`
 458:Lib/lvgl/src/core/../misc/lv_style.h ****  */
 459:Lib/lvgl/src/core/../misc/lv_style.h **** lv_style_res_t lv_style_get_prop(const lv_style_t * style, lv_style_prop_t prop, lv_style_value_t *
 460:Lib/lvgl/src/core/../misc/lv_style.h **** 
 461:Lib/lvgl/src/core/../misc/lv_style.h **** /**
ARM GAS  C:\Users\Alex\AppData\Local\Temp\ccdKwz1H.s 			page 18


 462:Lib/lvgl/src/core/../misc/lv_style.h ****  * Initialize a transition descriptor.
 463:Lib/lvgl/src/core/../misc/lv_style.h ****  * @param tr        pointer to a transition descriptor to initialize
 464:Lib/lvgl/src/core/../misc/lv_style.h ****  * @param props     an array with the properties to transition. The last element must be zero.
 465:Lib/lvgl/src/core/../misc/lv_style.h ****  * @param path_cb   an animation path (ease) callback. If `NULL` liner path will be used.
 466:Lib/lvgl/src/core/../misc/lv_style.h ****  * @param time      duration of the transition in [ms]
 467:Lib/lvgl/src/core/../misc/lv_style.h ****  * @param delay     delay before the transition in [ms]
 468:Lib/lvgl/src/core/../misc/lv_style.h ****  * @param user_data any custom data that will be saved in the transition animation and will be avai
 469:Lib/lvgl/src/core/../misc/lv_style.h ****  * @example
 470:Lib/lvgl/src/core/../misc/lv_style.h ****  * const static lv_style_prop_t trans_props[] = { LV_STYLE_BG_OPA, LV_STYLE_BG_COLOR, 0 };
 471:Lib/lvgl/src/core/../misc/lv_style.h ****  *  static lv_style_transition_dsc_t trans1;
 472:Lib/lvgl/src/core/../misc/lv_style.h ****  *  lv_style_transition_dsc_init(&trans1, trans_props, NULL, 300, 0, NULL);
 473:Lib/lvgl/src/core/../misc/lv_style.h ****  */
 474:Lib/lvgl/src/core/../misc/lv_style.h **** void lv_style_transition_dsc_init(lv_style_transition_dsc_t * tr, const lv_style_prop_t props[],
 475:Lib/lvgl/src/core/../misc/lv_style.h ****                                   lv_anim_path_cb_t path_cb, uint32_t time, uint32_t delay, void * 
 476:Lib/lvgl/src/core/../misc/lv_style.h **** 
 477:Lib/lvgl/src/core/../misc/lv_style.h **** /**
 478:Lib/lvgl/src/core/../misc/lv_style.h ****  * Get the default value of a property
 479:Lib/lvgl/src/core/../misc/lv_style.h ****  * @param prop the ID of a property
 480:Lib/lvgl/src/core/../misc/lv_style.h ****  * @return the default value
 481:Lib/lvgl/src/core/../misc/lv_style.h ****  */
 482:Lib/lvgl/src/core/../misc/lv_style.h **** lv_style_value_t lv_style_prop_get_default(lv_style_prop_t prop);
 483:Lib/lvgl/src/core/../misc/lv_style.h **** 
 484:Lib/lvgl/src/core/../misc/lv_style.h **** /**
 485:Lib/lvgl/src/core/../misc/lv_style.h ****  * Get the value of a property
 486:Lib/lvgl/src/core/../misc/lv_style.h ****  * @param style pointer to a style
 487:Lib/lvgl/src/core/../misc/lv_style.h ****  * @param prop  the ID of a property
 488:Lib/lvgl/src/core/../misc/lv_style.h ****  * @param value pointer to a `lv_style_value_t` variable to store the value
 489:Lib/lvgl/src/core/../misc/lv_style.h ****  * @return LV_RESULT_INVALID: the property wasn't found in the style (`value` is unchanged)
 490:Lib/lvgl/src/core/../misc/lv_style.h ****  *         LV_RESULT_OK: the property was fond, and `value` is set accordingly
 491:Lib/lvgl/src/core/../misc/lv_style.h ****  * @note For performance reasons there are no sanity check on `style`
 492:Lib/lvgl/src/core/../misc/lv_style.h ****  * @note This function is the same as ::lv_style_get_prop but inlined. Use it only on performance c
 493:Lib/lvgl/src/core/../misc/lv_style.h ****  */
 494:Lib/lvgl/src/core/../misc/lv_style.h **** static inline lv_style_res_t lv_style_get_prop_inlined(const lv_style_t * style, lv_style_prop_t pr
 495:Lib/lvgl/src/core/../misc/lv_style.h ****                                                        lv_style_value_t * value)
 496:Lib/lvgl/src/core/../misc/lv_style.h **** {
 189              		.loc 4 496 1 is_stmt 1 view -0
 190              		.cfi_startproc
 191              		@ args = 0, pretend = 0, frame = 0
 192              		@ frame_needed = 0, uses_anonymous_args = 0
 193              		.loc 4 496 1 is_stmt 0 view .LVU37
 194 0000 10B5     		push	{r4, lr}
 195              	.LCFI4:
 196              		.cfi_def_cfa_offset 8
 197              		.cfi_offset 4, -8
 198              		.cfi_offset 14, -4
 497:Lib/lvgl/src/core/../misc/lv_style.h ****     if(lv_style_is_const(style)) {
 199              		.loc 4 497 5 is_stmt 1 view .LVU38
 200              	.LVL6:
 201              	.LBB172:
 202              	.LBI172:
 406:Lib/lvgl/src/core/../misc/lv_style.h **** {
 203              		.loc 4 406 20 view .LVU39
 204              	.LBB173:
 408:Lib/lvgl/src/core/../misc/lv_style.h ****     return false;
 205              		.loc 4 408 5 view .LVU40
 408:Lib/lvgl/src/core/../misc/lv_style.h ****     return false;
 206              		.loc 4 408 13 is_stmt 0 view .LVU41
ARM GAS  C:\Users\Alex\AppData\Local\Temp\ccdKwz1H.s 			page 19


 207 0002 90F808C0 		ldrb	ip, [r0, #8]	@ zero_extendqisi2
 408:Lib/lvgl/src/core/../misc/lv_style.h ****     return false;
 208              		.loc 4 408 7 view .LVU42
 209 0006 BCF1FF0F 		cmp	ip, #255
 210 000a 0CD0     		beq	.L6
 211              	.LVL7:
 408:Lib/lvgl/src/core/../misc/lv_style.h ****     return false;
 212              		.loc 4 408 7 view .LVU43
 213              	.LBE173:
 214              	.LBE172:
 215              	.LBB175:
 498:Lib/lvgl/src/core/../misc/lv_style.h ****         lv_style_const_prop_t * props = (lv_style_const_prop_t *)style->values_and_props;
 499:Lib/lvgl/src/core/../misc/lv_style.h ****         uint32_t i;
 500:Lib/lvgl/src/core/../misc/lv_style.h ****         for(i = 0; props[i].prop_ptr; i++) {
 501:Lib/lvgl/src/core/../misc/lv_style.h ****             if(*props[i].prop_ptr == prop) {
 502:Lib/lvgl/src/core/../misc/lv_style.h ****                 *value = props[i].value;
 503:Lib/lvgl/src/core/../misc/lv_style.h ****                 return LV_STYLE_RES_FOUND;
 504:Lib/lvgl/src/core/../misc/lv_style.h ****             }
 505:Lib/lvgl/src/core/../misc/lv_style.h ****         }
 506:Lib/lvgl/src/core/../misc/lv_style.h ****     }
 507:Lib/lvgl/src/core/../misc/lv_style.h ****     else {
 508:Lib/lvgl/src/core/../misc/lv_style.h ****         lv_style_prop_t * props = (lv_style_prop_t *)style->values_and_props + style->prop_cnt * si
 216              		.loc 4 508 9 is_stmt 1 view .LVU44
 217              		.loc 4 508 59 is_stmt 0 view .LVU45
 218 000c 0468     		ldr	r4, [r0]
 219              		.loc 4 508 96 view .LVU46
 220 000e 4FEA8C0E 		lsl	lr, ip, #2
 221              	.LVL8:
 509:Lib/lvgl/src/core/../misc/lv_style.h ****         uint32_t i;
 222              		.loc 4 509 9 is_stmt 1 view .LVU47
 510:Lib/lvgl/src/core/../misc/lv_style.h ****         for(i = 0; i < style->prop_cnt; i++) {
 223              		.loc 4 510 9 view .LVU48
 224              		.loc 4 510 15 is_stmt 0 view .LVU49
 225 0012 0023     		movs	r3, #0
 226              	.LVL9:
 227              	.L7:
 228              		.loc 4 510 22 is_stmt 1 discriminator 1 view .LVU50
 229 0014 9C45     		cmp	ip, r3
 230 0016 1CD9     		bls	.L15
 511:Lib/lvgl/src/core/../misc/lv_style.h ****             if(props[i] == prop) {
 231              		.loc 4 511 13 view .LVU51
 232              		.loc 4 511 21 is_stmt 0 view .LVU52
 233 0018 04EB0E00 		add	r0, r4, lr
 234 001c C05C     		ldrb	r0, [r0, r3]	@ zero_extendqisi2
 235              		.loc 4 511 15 view .LVU53
 236 001e 8842     		cmp	r0, r1
 237 0020 12D0     		beq	.L16
 510:Lib/lvgl/src/core/../misc/lv_style.h ****         for(i = 0; i < style->prop_cnt; i++) {
 238              		.loc 4 510 42 is_stmt 1 discriminator 2 view .LVU54
 239 0022 0133     		adds	r3, r3, #1
 240              	.LVL10:
 510:Lib/lvgl/src/core/../misc/lv_style.h ****         for(i = 0; i < style->prop_cnt; i++) {
 241              		.loc 4 510 42 is_stmt 0 discriminator 2 view .LVU55
 242 0024 F6E7     		b	.L7
 243              	.LVL11:
 244              	.L6:
 510:Lib/lvgl/src/core/../misc/lv_style.h ****         for(i = 0; i < style->prop_cnt; i++) {
ARM GAS  C:\Users\Alex\AppData\Local\Temp\ccdKwz1H.s 			page 20


 245              		.loc 4 510 42 discriminator 2 view .LVU56
 246              	.LBE175:
 247              	.LBB177:
 248              	.LBB174:
 408:Lib/lvgl/src/core/../misc/lv_style.h ****     return false;
 249              		.loc 4 408 32 is_stmt 1 view .LVU57
 408:Lib/lvgl/src/core/../misc/lv_style.h ****     return false;
 250              		.loc 4 408 32 is_stmt 0 view .LVU58
 251              	.LBE174:
 252              	.LBE177:
 253              	.LBB178:
 498:Lib/lvgl/src/core/../misc/lv_style.h ****         uint32_t i;
 254              		.loc 4 498 9 is_stmt 1 view .LVU59
 498:Lib/lvgl/src/core/../misc/lv_style.h ****         uint32_t i;
 255              		.loc 4 498 33 is_stmt 0 view .LVU60
 256 0026 0468     		ldr	r4, [r0]
 257              	.LVL12:
 499:Lib/lvgl/src/core/../misc/lv_style.h ****         for(i = 0; props[i].prop_ptr; i++) {
 258              		.loc 4 499 9 is_stmt 1 view .LVU61
 500:Lib/lvgl/src/core/../misc/lv_style.h ****             if(*props[i].prop_ptr == prop) {
 259              		.loc 4 500 9 view .LVU62
 500:Lib/lvgl/src/core/../misc/lv_style.h ****             if(*props[i].prop_ptr == prop) {
 260              		.loc 4 500 15 is_stmt 0 view .LVU63
 261 0028 0023     		movs	r3, #0
 262              	.LVL13:
 263              	.L8:
 500:Lib/lvgl/src/core/../misc/lv_style.h ****             if(*props[i].prop_ptr == prop) {
 264              		.loc 4 500 20 is_stmt 1 discriminator 1 view .LVU64
 500:Lib/lvgl/src/core/../misc/lv_style.h ****             if(*props[i].prop_ptr == prop) {
 265              		.loc 4 500 25 is_stmt 0 discriminator 1 view .LVU65
 266 002a 04EBC30C 		add	ip, r4, r3, lsl #3
 500:Lib/lvgl/src/core/../misc/lv_style.h ****             if(*props[i].prop_ptr == prop) {
 267              		.loc 4 500 28 discriminator 1 view .LVU66
 268 002e 54F83300 		ldr	r0, [r4, r3, lsl #3]
 500:Lib/lvgl/src/core/../misc/lv_style.h ****             if(*props[i].prop_ptr == prop) {
 269              		.loc 4 500 20 discriminator 1 view .LVU67
 270 0032 78B1     		cbz	r0, .L10
 501:Lib/lvgl/src/core/../misc/lv_style.h ****                 *value = props[i].value;
 271              		.loc 4 501 13 is_stmt 1 view .LVU68
 501:Lib/lvgl/src/core/../misc/lv_style.h ****                 *value = props[i].value;
 272              		.loc 4 501 16 is_stmt 0 view .LVU69
 273 0034 0078     		ldrb	r0, [r0]	@ zero_extendqisi2
 501:Lib/lvgl/src/core/../misc/lv_style.h ****                 *value = props[i].value;
 274              		.loc 4 501 15 view .LVU70
 275 0036 8842     		cmp	r0, r1
 276 0038 01D0     		beq	.L17
 500:Lib/lvgl/src/core/../misc/lv_style.h ****             if(*props[i].prop_ptr == prop) {
 277              		.loc 4 500 40 is_stmt 1 discriminator 2 view .LVU71
 278 003a 0133     		adds	r3, r3, #1
 279              	.LVL14:
 500:Lib/lvgl/src/core/../misc/lv_style.h ****             if(*props[i].prop_ptr == prop) {
 280              		.loc 4 500 40 is_stmt 0 discriminator 2 view .LVU72
 281 003c F5E7     		b	.L8
 282              	.L17:
 502:Lib/lvgl/src/core/../misc/lv_style.h ****                 return LV_STYLE_RES_FOUND;
 283              		.loc 4 502 17 is_stmt 1 view .LVU73
 502:Lib/lvgl/src/core/../misc/lv_style.h ****                 return LV_STYLE_RES_FOUND;
ARM GAS  C:\Users\Alex\AppData\Local\Temp\ccdKwz1H.s 			page 21


 284              		.loc 4 502 24 is_stmt 0 view .LVU74
 285 003e DCF80430 		ldr	r3, [ip, #4]
 286              	.LVL15:
 502:Lib/lvgl/src/core/../misc/lv_style.h ****                 return LV_STYLE_RES_FOUND;
 287              		.loc 4 502 24 view .LVU75
 288 0042 1360     		str	r3, [r2]
 503:Lib/lvgl/src/core/../misc/lv_style.h ****             }
 289              		.loc 4 503 17 is_stmt 1 view .LVU76
 503:Lib/lvgl/src/core/../misc/lv_style.h ****             }
 290              		.loc 4 503 24 is_stmt 0 view .LVU77
 291 0044 0120     		movs	r0, #1
 292 0046 05E0     		b	.L10
 293              	.LVL16:
 294              	.L16:
 503:Lib/lvgl/src/core/../misc/lv_style.h ****             }
 295              		.loc 4 503 24 view .LVU78
 296              	.LBE178:
 297              	.LBB179:
 298              	.LBB176:
 512:Lib/lvgl/src/core/../misc/lv_style.h ****                 lv_style_value_t * values = (lv_style_value_t *)style->values_and_props;
 299              		.loc 4 512 17 is_stmt 1 view .LVU79
 513:Lib/lvgl/src/core/../misc/lv_style.h ****                 *value = values[i];
 300              		.loc 4 513 17 view .LVU80
 301              		.loc 4 513 24 is_stmt 0 view .LVU81
 302 0048 54F82330 		ldr	r3, [r4, r3, lsl #2]
 303              	.LVL17:
 304              		.loc 4 513 24 view .LVU82
 305 004c 1360     		str	r3, [r2]
 514:Lib/lvgl/src/core/../misc/lv_style.h ****                 return LV_STYLE_RES_FOUND;
 306              		.loc 4 514 17 is_stmt 1 view .LVU83
 307              		.loc 4 514 24 is_stmt 0 view .LVU84
 308 004e 0120     		movs	r0, #1
 309 0050 00E0     		b	.L10
 310              	.LVL18:
 311              	.L15:
 312              		.loc 4 514 24 view .LVU85
 313              	.LBE176:
 314              	.LBE179:
 515:Lib/lvgl/src/core/../misc/lv_style.h ****             }
 516:Lib/lvgl/src/core/../misc/lv_style.h ****         }
 517:Lib/lvgl/src/core/../misc/lv_style.h ****     }
 518:Lib/lvgl/src/core/../misc/lv_style.h ****     return LV_STYLE_RES_NOT_FOUND;
 315              		.loc 4 518 12 view .LVU86
 316 0052 0020     		movs	r0, #0
 317              	.LVL19:
 318              	.L10:
 519:Lib/lvgl/src/core/../misc/lv_style.h **** }
 319              		.loc 4 519 1 view .LVU87
 320 0054 10BD     		pop	{r4, pc}
 321              		.cfi_endproc
 322              	.LFE73:
 324              		.section	.text.lv_style_prop_get_default_inlined,"ax",%progbits
 325              		.align	1
 326              		.syntax unified
 327              		.thumb
 328              		.thumb_func
 330              	lv_style_prop_get_default_inlined:
ARM GAS  C:\Users\Alex\AppData\Local\Temp\ccdKwz1H.s 			page 22


 331              	.LVL20:
 332              	.LFB243:
   1:Lib/lvgl/src/core/lv_obj_style.c **** /**
   2:Lib/lvgl/src/core/lv_obj_style.c ****  * @file lv_obj_style.c
   3:Lib/lvgl/src/core/lv_obj_style.c ****  *
   4:Lib/lvgl/src/core/lv_obj_style.c ****  */
   5:Lib/lvgl/src/core/lv_obj_style.c **** 
   6:Lib/lvgl/src/core/lv_obj_style.c **** /*********************
   7:Lib/lvgl/src/core/lv_obj_style.c ****  *      INCLUDES
   8:Lib/lvgl/src/core/lv_obj_style.c ****  *********************/
   9:Lib/lvgl/src/core/lv_obj_style.c **** #include "lv_obj.h"
  10:Lib/lvgl/src/core/lv_obj_style.c **** #include "../display/lv_display.h"
  11:Lib/lvgl/src/core/lv_obj_style.c **** #include "../display/lv_display_private.h"
  12:Lib/lvgl/src/core/lv_obj_style.c **** #include "../misc/lv_color.h"
  13:Lib/lvgl/src/core/lv_obj_style.c **** #include "../stdlib/lv_string.h"
  14:Lib/lvgl/src/core/lv_obj_style.c **** #include "../core/lv_global.h"
  15:Lib/lvgl/src/core/lv_obj_style.c **** /*********************
  16:Lib/lvgl/src/core/lv_obj_style.c ****  *      DEFINES
  17:Lib/lvgl/src/core/lv_obj_style.c ****  *********************/
  18:Lib/lvgl/src/core/lv_obj_style.c **** #define MY_CLASS &lv_obj_class
  19:Lib/lvgl/src/core/lv_obj_style.c **** #define style_refr LV_GLOBAL_DEFAULT()->style_refresh
  20:Lib/lvgl/src/core/lv_obj_style.c **** #define style_trans_ll_p &(LV_GLOBAL_DEFAULT()->style_trans_ll)
  21:Lib/lvgl/src/core/lv_obj_style.c **** #define _style_custom_prop_flag_lookup_table LV_GLOBAL_DEFAULT()->style_custom_prop_flag_lookup_tab
  22:Lib/lvgl/src/core/lv_obj_style.c **** #define STYLE_PROP_SHIFTED(prop) ((uint32_t)1 << ((prop) >> 3))
  23:Lib/lvgl/src/core/lv_obj_style.c **** 
  24:Lib/lvgl/src/core/lv_obj_style.c **** /**********************
  25:Lib/lvgl/src/core/lv_obj_style.c ****  *      TYPEDEFS
  26:Lib/lvgl/src/core/lv_obj_style.c ****  **********************/
  27:Lib/lvgl/src/core/lv_obj_style.c **** 
  28:Lib/lvgl/src/core/lv_obj_style.c **** typedef struct {
  29:Lib/lvgl/src/core/lv_obj_style.c ****     lv_obj_t * obj;
  30:Lib/lvgl/src/core/lv_obj_style.c ****     lv_style_prop_t prop;
  31:Lib/lvgl/src/core/lv_obj_style.c ****     lv_style_selector_t selector;
  32:Lib/lvgl/src/core/lv_obj_style.c ****     lv_style_value_t start_value;
  33:Lib/lvgl/src/core/lv_obj_style.c ****     lv_style_value_t end_value;
  34:Lib/lvgl/src/core/lv_obj_style.c **** } trans_t;
  35:Lib/lvgl/src/core/lv_obj_style.c **** 
  36:Lib/lvgl/src/core/lv_obj_style.c **** typedef enum {
  37:Lib/lvgl/src/core/lv_obj_style.c ****     CACHE_ZERO = 0,
  38:Lib/lvgl/src/core/lv_obj_style.c ****     CACHE_TRUE = 1,
  39:Lib/lvgl/src/core/lv_obj_style.c ****     CACHE_UNSET = 2,
  40:Lib/lvgl/src/core/lv_obj_style.c ****     CACHE_255 = 3,
  41:Lib/lvgl/src/core/lv_obj_style.c ****     CACHE_NEED_CHECK = 4,
  42:Lib/lvgl/src/core/lv_obj_style.c **** } cache_t;
  43:Lib/lvgl/src/core/lv_obj_style.c **** 
  44:Lib/lvgl/src/core/lv_obj_style.c **** /**********************
  45:Lib/lvgl/src/core/lv_obj_style.c ****  *  GLOBAL PROTOTYPES
  46:Lib/lvgl/src/core/lv_obj_style.c ****  **********************/
  47:Lib/lvgl/src/core/lv_obj_style.c **** 
  48:Lib/lvgl/src/core/lv_obj_style.c **** /**********************
  49:Lib/lvgl/src/core/lv_obj_style.c ****  *  STATIC PROTOTYPES
  50:Lib/lvgl/src/core/lv_obj_style.c ****  **********************/
  51:Lib/lvgl/src/core/lv_obj_style.c **** static lv_style_t * get_local_style(lv_obj_t * obj, lv_style_selector_t selector);
  52:Lib/lvgl/src/core/lv_obj_style.c **** static _lv_obj_style_t * get_trans_style(lv_obj_t * obj, uint32_t part);
  53:Lib/lvgl/src/core/lv_obj_style.c **** static lv_style_res_t get_prop_core(const lv_obj_t * obj, lv_style_selector_t selector, lv_style_pr
  54:Lib/lvgl/src/core/lv_obj_style.c ****                                     lv_style_value_t * v);
  55:Lib/lvgl/src/core/lv_obj_style.c **** static void report_style_change_core(void * style, lv_obj_t * obj);
ARM GAS  C:\Users\Alex\AppData\Local\Temp\ccdKwz1H.s 			page 23


  56:Lib/lvgl/src/core/lv_obj_style.c **** static void refresh_children_style(lv_obj_t * obj);
  57:Lib/lvgl/src/core/lv_obj_style.c **** static bool trans_delete(lv_obj_t * obj, lv_part_t part, lv_style_prop_t prop, trans_t * tr_limit);
  58:Lib/lvgl/src/core/lv_obj_style.c **** static void trans_anim_cb(void * _tr, int32_t v);
  59:Lib/lvgl/src/core/lv_obj_style.c **** static void trans_anim_start_cb(lv_anim_t * a);
  60:Lib/lvgl/src/core/lv_obj_style.c **** static void trans_anim_completed_cb(lv_anim_t * a);
  61:Lib/lvgl/src/core/lv_obj_style.c **** static lv_layer_type_t calculate_layer_type(lv_obj_t * obj);
  62:Lib/lvgl/src/core/lv_obj_style.c **** static void full_cache_refresh(lv_obj_t * obj, lv_part_t part);
  63:Lib/lvgl/src/core/lv_obj_style.c **** static void fade_anim_cb(void * obj, int32_t v);
  64:Lib/lvgl/src/core/lv_obj_style.c **** static void fade_in_anim_completed(lv_anim_t * a);
  65:Lib/lvgl/src/core/lv_obj_style.c **** static bool style_has_flag(const lv_style_t * style, uint32_t flag);
  66:Lib/lvgl/src/core/lv_obj_style.c **** static lv_style_res_t get_selector_style_prop(const lv_obj_t * obj, lv_style_selector_t selector, l
  67:Lib/lvgl/src/core/lv_obj_style.c ****                                               lv_style_value_t * value_act);
  68:Lib/lvgl/src/core/lv_obj_style.c **** 
  69:Lib/lvgl/src/core/lv_obj_style.c **** /**********************
  70:Lib/lvgl/src/core/lv_obj_style.c ****  *  STATIC VARIABLES
  71:Lib/lvgl/src/core/lv_obj_style.c ****  **********************/
  72:Lib/lvgl/src/core/lv_obj_style.c **** 
  73:Lib/lvgl/src/core/lv_obj_style.c **** /**********************
  74:Lib/lvgl/src/core/lv_obj_style.c ****  *      MACROS
  75:Lib/lvgl/src/core/lv_obj_style.c ****  **********************/
  76:Lib/lvgl/src/core/lv_obj_style.c **** 
  77:Lib/lvgl/src/core/lv_obj_style.c **** /**********************
  78:Lib/lvgl/src/core/lv_obj_style.c ****  *   GLOBAL FUNCTIONS
  79:Lib/lvgl/src/core/lv_obj_style.c ****  **********************/
  80:Lib/lvgl/src/core/lv_obj_style.c **** 
  81:Lib/lvgl/src/core/lv_obj_style.c **** void _lv_obj_style_init(void)
  82:Lib/lvgl/src/core/lv_obj_style.c **** {
  83:Lib/lvgl/src/core/lv_obj_style.c ****     _lv_ll_init(style_trans_ll_p, sizeof(trans_t));
  84:Lib/lvgl/src/core/lv_obj_style.c **** }
  85:Lib/lvgl/src/core/lv_obj_style.c **** 
  86:Lib/lvgl/src/core/lv_obj_style.c **** void _lv_obj_style_deinit(void)
  87:Lib/lvgl/src/core/lv_obj_style.c **** {
  88:Lib/lvgl/src/core/lv_obj_style.c ****     _lv_ll_clear(style_trans_ll_p);
  89:Lib/lvgl/src/core/lv_obj_style.c ****     if(_style_custom_prop_flag_lookup_table != NULL) {
  90:Lib/lvgl/src/core/lv_obj_style.c ****         lv_free(_style_custom_prop_flag_lookup_table);
  91:Lib/lvgl/src/core/lv_obj_style.c ****         _style_custom_prop_flag_lookup_table = NULL;
  92:Lib/lvgl/src/core/lv_obj_style.c ****     }
  93:Lib/lvgl/src/core/lv_obj_style.c **** }
  94:Lib/lvgl/src/core/lv_obj_style.c **** 
  95:Lib/lvgl/src/core/lv_obj_style.c **** void lv_obj_add_style(lv_obj_t * obj, const lv_style_t * style, lv_style_selector_t selector)
  96:Lib/lvgl/src/core/lv_obj_style.c **** {
  97:Lib/lvgl/src/core/lv_obj_style.c ****     LV_ASSERT(obj->style_cnt < 63);
  98:Lib/lvgl/src/core/lv_obj_style.c **** 
  99:Lib/lvgl/src/core/lv_obj_style.c ****     trans_delete(obj, selector, LV_STYLE_PROP_ANY, NULL);
 100:Lib/lvgl/src/core/lv_obj_style.c **** 
 101:Lib/lvgl/src/core/lv_obj_style.c ****     lv_part_t part = lv_obj_style_get_selector_part(selector);
 102:Lib/lvgl/src/core/lv_obj_style.c **** 
 103:Lib/lvgl/src/core/lv_obj_style.c ****     if(style && part == LV_PART_MAIN && style_has_flag(style, LV_STYLE_PROP_FLAG_TRANSFORM)) {
 104:Lib/lvgl/src/core/lv_obj_style.c ****         lv_obj_invalidate(obj);
 105:Lib/lvgl/src/core/lv_obj_style.c ****     }
 106:Lib/lvgl/src/core/lv_obj_style.c **** 
 107:Lib/lvgl/src/core/lv_obj_style.c ****     /*Try removing the style first to be sure it won't be added twice*/
 108:Lib/lvgl/src/core/lv_obj_style.c ****     lv_obj_remove_style(obj, style, selector);
 109:Lib/lvgl/src/core/lv_obj_style.c **** 
 110:Lib/lvgl/src/core/lv_obj_style.c ****     uint32_t i;
 111:Lib/lvgl/src/core/lv_obj_style.c ****     /*Go after the transition and local styles*/
 112:Lib/lvgl/src/core/lv_obj_style.c ****     for(i = 0; i < obj->style_cnt; i++) {
ARM GAS  C:\Users\Alex\AppData\Local\Temp\ccdKwz1H.s 			page 24


 113:Lib/lvgl/src/core/lv_obj_style.c ****         if(obj->styles[i].is_trans) continue;
 114:Lib/lvgl/src/core/lv_obj_style.c ****         if(obj->styles[i].is_local) continue;
 115:Lib/lvgl/src/core/lv_obj_style.c ****         break;
 116:Lib/lvgl/src/core/lv_obj_style.c ****     }
 117:Lib/lvgl/src/core/lv_obj_style.c **** 
 118:Lib/lvgl/src/core/lv_obj_style.c ****     /*Now `i` is at the first normal style. Insert the new style before this*/
 119:Lib/lvgl/src/core/lv_obj_style.c **** 
 120:Lib/lvgl/src/core/lv_obj_style.c ****     /*Allocate space for the new style and shift the rest of the style to the end*/
 121:Lib/lvgl/src/core/lv_obj_style.c ****     obj->style_cnt++;
 122:Lib/lvgl/src/core/lv_obj_style.c ****     LV_ASSERT(obj->style_cnt != 0);
 123:Lib/lvgl/src/core/lv_obj_style.c ****     obj->styles = lv_realloc(obj->styles, obj->style_cnt * sizeof(_lv_obj_style_t));
 124:Lib/lvgl/src/core/lv_obj_style.c ****     LV_ASSERT_MALLOC(obj->styles);
 125:Lib/lvgl/src/core/lv_obj_style.c **** 
 126:Lib/lvgl/src/core/lv_obj_style.c ****     uint32_t j;
 127:Lib/lvgl/src/core/lv_obj_style.c ****     for(j = obj->style_cnt - 1; j > i ; j--) {
 128:Lib/lvgl/src/core/lv_obj_style.c ****         obj->styles[j] = obj->styles[j - 1];
 129:Lib/lvgl/src/core/lv_obj_style.c ****     }
 130:Lib/lvgl/src/core/lv_obj_style.c **** 
 131:Lib/lvgl/src/core/lv_obj_style.c ****     lv_memzero(&obj->styles[i], sizeof(_lv_obj_style_t));
 132:Lib/lvgl/src/core/lv_obj_style.c ****     obj->styles[i].style = style;
 133:Lib/lvgl/src/core/lv_obj_style.c ****     obj->styles[i].selector = selector;
 134:Lib/lvgl/src/core/lv_obj_style.c **** 
 135:Lib/lvgl/src/core/lv_obj_style.c **** #if LV_OBJ_STYLE_CACHE
 136:Lib/lvgl/src/core/lv_obj_style.c ****     uint32_t * prop_is_set = part == LV_PART_MAIN ? &obj->style_main_prop_is_set : &obj->style_othe
 137:Lib/lvgl/src/core/lv_obj_style.c ****     if(lv_style_is_const(style)) {
 138:Lib/lvgl/src/core/lv_obj_style.c ****         lv_style_const_prop_t * props = style->values_and_props;
 139:Lib/lvgl/src/core/lv_obj_style.c ****         for(i = 0; props[i].prop_ptr; i++) {
 140:Lib/lvgl/src/core/lv_obj_style.c ****             (*prop_is_set) |= STYLE_PROP_SHIFTED(*props[i].prop_ptr);
 141:Lib/lvgl/src/core/lv_obj_style.c ****         }
 142:Lib/lvgl/src/core/lv_obj_style.c ****     }
 143:Lib/lvgl/src/core/lv_obj_style.c ****     else {
 144:Lib/lvgl/src/core/lv_obj_style.c ****         lv_style_prop_t * props = (lv_style_prop_t *)style->values_and_props + style->prop_cnt * si
 145:Lib/lvgl/src/core/lv_obj_style.c ****         for(i = 0; i < style->prop_cnt; i++) {
 146:Lib/lvgl/src/core/lv_obj_style.c ****             (*prop_is_set) |= STYLE_PROP_SHIFTED(props[i]);
 147:Lib/lvgl/src/core/lv_obj_style.c ****         }
 148:Lib/lvgl/src/core/lv_obj_style.c ****     }
 149:Lib/lvgl/src/core/lv_obj_style.c **** #endif
 150:Lib/lvgl/src/core/lv_obj_style.c **** 
 151:Lib/lvgl/src/core/lv_obj_style.c ****     lv_obj_refresh_style(obj, selector, LV_STYLE_PROP_ANY);
 152:Lib/lvgl/src/core/lv_obj_style.c **** }
 153:Lib/lvgl/src/core/lv_obj_style.c **** 
 154:Lib/lvgl/src/core/lv_obj_style.c **** bool lv_obj_replace_style(lv_obj_t * obj, const lv_style_t * old_style, const lv_style_t * new_styl
 155:Lib/lvgl/src/core/lv_obj_style.c ****                           lv_style_selector_t selector)
 156:Lib/lvgl/src/core/lv_obj_style.c **** {
 157:Lib/lvgl/src/core/lv_obj_style.c ****     lv_state_t state = lv_obj_style_get_selector_state(selector);
 158:Lib/lvgl/src/core/lv_obj_style.c ****     lv_part_t part = lv_obj_style_get_selector_part(selector);
 159:Lib/lvgl/src/core/lv_obj_style.c **** 
 160:Lib/lvgl/src/core/lv_obj_style.c ****     /*All objects must exist*/
 161:Lib/lvgl/src/core/lv_obj_style.c ****     if(!obj || !old_style || !new_style || (old_style == new_style)) {
 162:Lib/lvgl/src/core/lv_obj_style.c ****         return false;
 163:Lib/lvgl/src/core/lv_obj_style.c ****     }
 164:Lib/lvgl/src/core/lv_obj_style.c **** 
 165:Lib/lvgl/src/core/lv_obj_style.c ****     /*Similar to lv_obj_add_style, delete transition*/
 166:Lib/lvgl/src/core/lv_obj_style.c ****     trans_delete(obj, selector, LV_STYLE_PROP_ANY, NULL);
 167:Lib/lvgl/src/core/lv_obj_style.c **** 
 168:Lib/lvgl/src/core/lv_obj_style.c ****     bool replaced = false;
 169:Lib/lvgl/src/core/lv_obj_style.c ****     uint32_t i;
ARM GAS  C:\Users\Alex\AppData\Local\Temp\ccdKwz1H.s 			page 25


 170:Lib/lvgl/src/core/lv_obj_style.c ****     for(i = 0; i < obj->style_cnt; i++) {
 171:Lib/lvgl/src/core/lv_obj_style.c ****         lv_state_t state_act = lv_obj_style_get_selector_state(obj->styles[i].selector);
 172:Lib/lvgl/src/core/lv_obj_style.c ****         lv_part_t part_act = lv_obj_style_get_selector_part(obj->styles[i].selector);
 173:Lib/lvgl/src/core/lv_obj_style.c **** 
 174:Lib/lvgl/src/core/lv_obj_style.c ****         /*Skip local styles and transitions*/
 175:Lib/lvgl/src/core/lv_obj_style.c ****         if(obj->styles[i].is_local || obj->styles[i].is_trans) {
 176:Lib/lvgl/src/core/lv_obj_style.c ****             continue;
 177:Lib/lvgl/src/core/lv_obj_style.c ****         }
 178:Lib/lvgl/src/core/lv_obj_style.c **** 
 179:Lib/lvgl/src/core/lv_obj_style.c ****         /*Skip non-matching styles*/
 180:Lib/lvgl/src/core/lv_obj_style.c ****         if((state != LV_STATE_ANY && state_act != state) ||
 181:Lib/lvgl/src/core/lv_obj_style.c ****            (part != LV_PART_ANY && part_act != part) ||
 182:Lib/lvgl/src/core/lv_obj_style.c ****            (old_style != obj->styles[i].style)) {
 183:Lib/lvgl/src/core/lv_obj_style.c ****             continue;
 184:Lib/lvgl/src/core/lv_obj_style.c ****         }
 185:Lib/lvgl/src/core/lv_obj_style.c **** 
 186:Lib/lvgl/src/core/lv_obj_style.c ****         lv_memzero(&obj->styles[i], sizeof(_lv_obj_style_t));
 187:Lib/lvgl/src/core/lv_obj_style.c ****         obj->styles[i].style = new_style;
 188:Lib/lvgl/src/core/lv_obj_style.c ****         obj->styles[i].selector = selector;
 189:Lib/lvgl/src/core/lv_obj_style.c **** 
 190:Lib/lvgl/src/core/lv_obj_style.c ****         replaced = true;
 191:Lib/lvgl/src/core/lv_obj_style.c ****         /*Don't break and continue replacing other occurrences*/
 192:Lib/lvgl/src/core/lv_obj_style.c ****     }
 193:Lib/lvgl/src/core/lv_obj_style.c ****     if(replaced) {
 194:Lib/lvgl/src/core/lv_obj_style.c ****         full_cache_refresh(obj, part);
 195:Lib/lvgl/src/core/lv_obj_style.c ****         lv_obj_refresh_style(obj, part, LV_STYLE_PROP_ANY);
 196:Lib/lvgl/src/core/lv_obj_style.c ****     }
 197:Lib/lvgl/src/core/lv_obj_style.c ****     return replaced;
 198:Lib/lvgl/src/core/lv_obj_style.c **** }
 199:Lib/lvgl/src/core/lv_obj_style.c **** 
 200:Lib/lvgl/src/core/lv_obj_style.c **** void lv_obj_remove_style(lv_obj_t * obj, const lv_style_t * style, lv_style_selector_t selector)
 201:Lib/lvgl/src/core/lv_obj_style.c **** {
 202:Lib/lvgl/src/core/lv_obj_style.c ****     lv_state_t state = lv_obj_style_get_selector_state(selector);
 203:Lib/lvgl/src/core/lv_obj_style.c ****     lv_part_t part = lv_obj_style_get_selector_part(selector);
 204:Lib/lvgl/src/core/lv_obj_style.c ****     lv_style_prop_t prop = LV_STYLE_PROP_ANY;
 205:Lib/lvgl/src/core/lv_obj_style.c ****     if(style && style->prop_cnt == 0) prop = LV_STYLE_PROP_INV;
 206:Lib/lvgl/src/core/lv_obj_style.c **** 
 207:Lib/lvgl/src/core/lv_obj_style.c ****     if(style && part == LV_PART_MAIN && style_has_flag(style, LV_STYLE_PROP_FLAG_TRANSFORM)) {
 208:Lib/lvgl/src/core/lv_obj_style.c ****         lv_obj_invalidate(obj);
 209:Lib/lvgl/src/core/lv_obj_style.c ****     }
 210:Lib/lvgl/src/core/lv_obj_style.c **** 
 211:Lib/lvgl/src/core/lv_obj_style.c ****     uint32_t i = 0;
 212:Lib/lvgl/src/core/lv_obj_style.c ****     bool deleted = false;
 213:Lib/lvgl/src/core/lv_obj_style.c ****     while(i <  obj->style_cnt) {
 214:Lib/lvgl/src/core/lv_obj_style.c ****         lv_state_t state_act = lv_obj_style_get_selector_state(obj->styles[i].selector);
 215:Lib/lvgl/src/core/lv_obj_style.c ****         lv_part_t part_act = lv_obj_style_get_selector_part(obj->styles[i].selector);
 216:Lib/lvgl/src/core/lv_obj_style.c ****         if((state != LV_STATE_ANY && state_act != state) ||
 217:Lib/lvgl/src/core/lv_obj_style.c ****            (part != LV_PART_ANY && part_act != part) ||
 218:Lib/lvgl/src/core/lv_obj_style.c ****            (style != NULL && style != obj->styles[i].style)) {
 219:Lib/lvgl/src/core/lv_obj_style.c ****             i++;
 220:Lib/lvgl/src/core/lv_obj_style.c ****             continue;
 221:Lib/lvgl/src/core/lv_obj_style.c ****         }
 222:Lib/lvgl/src/core/lv_obj_style.c **** 
 223:Lib/lvgl/src/core/lv_obj_style.c ****         if(obj->styles[i].is_trans) {
 224:Lib/lvgl/src/core/lv_obj_style.c ****             trans_delete(obj, part, LV_STYLE_PROP_ANY, NULL);
 225:Lib/lvgl/src/core/lv_obj_style.c ****         }
 226:Lib/lvgl/src/core/lv_obj_style.c **** 
ARM GAS  C:\Users\Alex\AppData\Local\Temp\ccdKwz1H.s 			page 26


 227:Lib/lvgl/src/core/lv_obj_style.c ****         if(obj->styles[i].is_local || obj->styles[i].is_trans) {
 228:Lib/lvgl/src/core/lv_obj_style.c ****             if(obj->styles[i].style) lv_style_reset((lv_style_t *)obj->styles[i].style);
 229:Lib/lvgl/src/core/lv_obj_style.c ****             lv_free((lv_style_t *)obj->styles[i].style);
 230:Lib/lvgl/src/core/lv_obj_style.c ****             obj->styles[i].style = NULL;
 231:Lib/lvgl/src/core/lv_obj_style.c ****         }
 232:Lib/lvgl/src/core/lv_obj_style.c **** 
 233:Lib/lvgl/src/core/lv_obj_style.c ****         /*Shift the styles after `i` by one*/
 234:Lib/lvgl/src/core/lv_obj_style.c ****         uint32_t j;
 235:Lib/lvgl/src/core/lv_obj_style.c ****         for(j = i; j < (uint32_t)obj->style_cnt - 1 ; j++) {
 236:Lib/lvgl/src/core/lv_obj_style.c ****             obj->styles[j] = obj->styles[j + 1];
 237:Lib/lvgl/src/core/lv_obj_style.c ****         }
 238:Lib/lvgl/src/core/lv_obj_style.c **** 
 239:Lib/lvgl/src/core/lv_obj_style.c ****         obj->style_cnt--;
 240:Lib/lvgl/src/core/lv_obj_style.c ****         obj->styles = lv_realloc(obj->styles, obj->style_cnt * sizeof(_lv_obj_style_t));
 241:Lib/lvgl/src/core/lv_obj_style.c **** 
 242:Lib/lvgl/src/core/lv_obj_style.c ****         deleted = true;
 243:Lib/lvgl/src/core/lv_obj_style.c ****         /*The style from the current `i` index is removed, so `i` points to the next style.
 244:Lib/lvgl/src/core/lv_obj_style.c ****          *Therefore it doesn't needs to be incremented*/
 245:Lib/lvgl/src/core/lv_obj_style.c ****     }
 246:Lib/lvgl/src/core/lv_obj_style.c **** 
 247:Lib/lvgl/src/core/lv_obj_style.c ****     if(deleted && prop != LV_STYLE_PROP_INV) {
 248:Lib/lvgl/src/core/lv_obj_style.c ****         full_cache_refresh(obj, part);
 249:Lib/lvgl/src/core/lv_obj_style.c ****         lv_obj_refresh_style(obj, part, prop);
 250:Lib/lvgl/src/core/lv_obj_style.c ****     }
 251:Lib/lvgl/src/core/lv_obj_style.c **** }
 252:Lib/lvgl/src/core/lv_obj_style.c **** 
 253:Lib/lvgl/src/core/lv_obj_style.c **** void lv_obj_remove_style_all(lv_obj_t * obj)
 254:Lib/lvgl/src/core/lv_obj_style.c **** {
 255:Lib/lvgl/src/core/lv_obj_style.c ****     lv_obj_remove_style(obj, NULL, LV_PART_ANY | LV_STATE_ANY);
 256:Lib/lvgl/src/core/lv_obj_style.c **** }
 257:Lib/lvgl/src/core/lv_obj_style.c **** 
 258:Lib/lvgl/src/core/lv_obj_style.c **** void lv_obj_report_style_change(lv_style_t * style)
 259:Lib/lvgl/src/core/lv_obj_style.c **** {
 260:Lib/lvgl/src/core/lv_obj_style.c ****     if(!style_refr) return;
 261:Lib/lvgl/src/core/lv_obj_style.c ****     lv_display_t * d = lv_display_get_next(NULL);
 262:Lib/lvgl/src/core/lv_obj_style.c **** 
 263:Lib/lvgl/src/core/lv_obj_style.c ****     while(d) {
 264:Lib/lvgl/src/core/lv_obj_style.c ****         uint32_t i;
 265:Lib/lvgl/src/core/lv_obj_style.c ****         for(i = 0; i < d->screen_cnt; i++) {
 266:Lib/lvgl/src/core/lv_obj_style.c ****             report_style_change_core(style, d->screens[i]);
 267:Lib/lvgl/src/core/lv_obj_style.c ****         }
 268:Lib/lvgl/src/core/lv_obj_style.c ****         d = lv_display_get_next(d);
 269:Lib/lvgl/src/core/lv_obj_style.c ****     }
 270:Lib/lvgl/src/core/lv_obj_style.c **** }
 271:Lib/lvgl/src/core/lv_obj_style.c **** 
 272:Lib/lvgl/src/core/lv_obj_style.c **** void lv_obj_refresh_style(lv_obj_t * obj, lv_style_selector_t selector, lv_style_prop_t prop)
 273:Lib/lvgl/src/core/lv_obj_style.c **** {
 274:Lib/lvgl/src/core/lv_obj_style.c ****     LV_ASSERT_OBJ(obj, MY_CLASS);
 275:Lib/lvgl/src/core/lv_obj_style.c **** 
 276:Lib/lvgl/src/core/lv_obj_style.c ****     if(!style_refr) return;
 277:Lib/lvgl/src/core/lv_obj_style.c **** 
 278:Lib/lvgl/src/core/lv_obj_style.c ****     lv_obj_invalidate(obj);
 279:Lib/lvgl/src/core/lv_obj_style.c **** 
 280:Lib/lvgl/src/core/lv_obj_style.c ****     lv_part_t part = lv_obj_style_get_selector_part(selector);
 281:Lib/lvgl/src/core/lv_obj_style.c **** 
 282:Lib/lvgl/src/core/lv_obj_style.c ****     bool is_layout_refr = lv_style_prop_has_flag(prop, LV_STYLE_PROP_FLAG_LAYOUT_UPDATE);
 283:Lib/lvgl/src/core/lv_obj_style.c ****     bool is_ext_draw = lv_style_prop_has_flag(prop, LV_STYLE_PROP_FLAG_EXT_DRAW_UPDATE);
ARM GAS  C:\Users\Alex\AppData\Local\Temp\ccdKwz1H.s 			page 27


 284:Lib/lvgl/src/core/lv_obj_style.c ****     bool is_inheritable = lv_style_prop_has_flag(prop, LV_STYLE_PROP_FLAG_INHERITABLE);
 285:Lib/lvgl/src/core/lv_obj_style.c ****     bool is_layer_refr = lv_style_prop_has_flag(prop, LV_STYLE_PROP_FLAG_LAYER_UPDATE);
 286:Lib/lvgl/src/core/lv_obj_style.c **** 
 287:Lib/lvgl/src/core/lv_obj_style.c ****     if(is_layout_refr) {
 288:Lib/lvgl/src/core/lv_obj_style.c ****         if(part == LV_PART_ANY ||
 289:Lib/lvgl/src/core/lv_obj_style.c ****            part == LV_PART_MAIN ||
 290:Lib/lvgl/src/core/lv_obj_style.c ****            lv_obj_get_style_height(obj, 0) == LV_SIZE_CONTENT ||
 291:Lib/lvgl/src/core/lv_obj_style.c ****            lv_obj_get_style_width(obj, 0) == LV_SIZE_CONTENT) {
 292:Lib/lvgl/src/core/lv_obj_style.c ****             lv_obj_send_event(obj, LV_EVENT_STYLE_CHANGED, NULL);
 293:Lib/lvgl/src/core/lv_obj_style.c ****             lv_obj_mark_layout_as_dirty(obj);
 294:Lib/lvgl/src/core/lv_obj_style.c ****         }
 295:Lib/lvgl/src/core/lv_obj_style.c ****     }
 296:Lib/lvgl/src/core/lv_obj_style.c ****     if((part == LV_PART_ANY || part == LV_PART_MAIN) && (prop == LV_STYLE_PROP_ANY || is_layout_ref
 297:Lib/lvgl/src/core/lv_obj_style.c ****         lv_obj_t * parent = lv_obj_get_parent(obj);
 298:Lib/lvgl/src/core/lv_obj_style.c ****         if(parent) lv_obj_mark_layout_as_dirty(parent);
 299:Lib/lvgl/src/core/lv_obj_style.c ****     }
 300:Lib/lvgl/src/core/lv_obj_style.c **** 
 301:Lib/lvgl/src/core/lv_obj_style.c ****     /*Cache the layer type*/
 302:Lib/lvgl/src/core/lv_obj_style.c ****     if((part == LV_PART_ANY || part == LV_PART_MAIN) && is_layer_refr) {
 303:Lib/lvgl/src/core/lv_obj_style.c ****         lv_layer_type_t layer_type = calculate_layer_type(obj);
 304:Lib/lvgl/src/core/lv_obj_style.c ****         if(obj->spec_attr) obj->spec_attr->layer_type = layer_type;
 305:Lib/lvgl/src/core/lv_obj_style.c ****         else if(layer_type != LV_LAYER_TYPE_NONE) {
 306:Lib/lvgl/src/core/lv_obj_style.c ****             lv_obj_allocate_spec_attr(obj);
 307:Lib/lvgl/src/core/lv_obj_style.c ****             obj->spec_attr->layer_type = layer_type;
 308:Lib/lvgl/src/core/lv_obj_style.c ****         }
 309:Lib/lvgl/src/core/lv_obj_style.c ****     }
 310:Lib/lvgl/src/core/lv_obj_style.c **** 
 311:Lib/lvgl/src/core/lv_obj_style.c ****     if(prop == LV_STYLE_PROP_ANY || is_ext_draw) {
 312:Lib/lvgl/src/core/lv_obj_style.c ****         lv_obj_refresh_ext_draw_size(obj);
 313:Lib/lvgl/src/core/lv_obj_style.c ****     }
 314:Lib/lvgl/src/core/lv_obj_style.c ****     lv_obj_invalidate(obj);
 315:Lib/lvgl/src/core/lv_obj_style.c **** 
 316:Lib/lvgl/src/core/lv_obj_style.c ****     if(prop == LV_STYLE_PROP_ANY || (is_inheritable && (is_ext_draw || is_layout_refr))) {
 317:Lib/lvgl/src/core/lv_obj_style.c ****         if(part != LV_PART_SCROLLBAR) {
 318:Lib/lvgl/src/core/lv_obj_style.c ****             refresh_children_style(obj);
 319:Lib/lvgl/src/core/lv_obj_style.c ****         }
 320:Lib/lvgl/src/core/lv_obj_style.c ****     }
 321:Lib/lvgl/src/core/lv_obj_style.c **** }
 322:Lib/lvgl/src/core/lv_obj_style.c **** 
 323:Lib/lvgl/src/core/lv_obj_style.c **** void lv_obj_enable_style_refresh(bool en)
 324:Lib/lvgl/src/core/lv_obj_style.c **** {
 325:Lib/lvgl/src/core/lv_obj_style.c ****     style_refr = en;
 326:Lib/lvgl/src/core/lv_obj_style.c **** }
 327:Lib/lvgl/src/core/lv_obj_style.c **** 
 328:Lib/lvgl/src/core/lv_obj_style.c **** static inline lv_style_value_t lv_style_prop_get_default_inlined(lv_style_prop_t prop)
 329:Lib/lvgl/src/core/lv_obj_style.c **** {
 333              		.loc 1 329 1 is_stmt 1 view -0
 334              		.cfi_startproc
 335              		@ args = 0, pretend = 0, frame = 8
 336              		@ frame_needed = 0, uses_anonymous_args = 0
 337              		@ link register save eliminated.
 338              		.loc 1 329 1 is_stmt 0 view .LVU89
 339 0000 82B0     		sub	sp, sp, #8
 340              	.LCFI5:
 341              		.cfi_def_cfa_offset 8
 330:Lib/lvgl/src/core/lv_obj_style.c ****     const lv_color_t black = LV_COLOR_MAKE(0x00, 0x00, 0x00);
 342              		.loc 1 330 5 is_stmt 1 view .LVU90
ARM GAS  C:\Users\Alex\AppData\Local\Temp\ccdKwz1H.s 			page 28


 343              		.loc 1 330 22 is_stmt 0 view .LVU91
 344 0002 0023     		movs	r3, #0
 345 0004 8DF80030 		strb	r3, [sp]
 346 0008 8DF80130 		strb	r3, [sp, #1]
 347 000c 8DF80230 		strb	r3, [sp, #2]
 331:Lib/lvgl/src/core/lv_obj_style.c ****     const lv_color_t white = LV_COLOR_MAKE(0xff, 0xff, 0xff);
 348              		.loc 1 331 5 is_stmt 1 view .LVU92
 332:Lib/lvgl/src/core/lv_obj_style.c ****     switch(prop) {
 349              		.loc 1 332 5 view .LVU93
 350 0010 3928     		cmp	r0, #57
 351 0012 3FD8     		bhi	.L19
 352 0014 2328     		cmp	r0, #35
 353 0016 2CD2     		bcs	.L20
 354 0018 2228     		cmp	r0, #34
 355 001a 53D8     		bhi	.L21
 356 001c 0528     		cmp	r0, #5
 357 001e 51D3     		bcc	.L21
 358 0020 0538     		subs	r0, r0, #5
 359              	.LVL21:
 360              		.loc 1 332 5 is_stmt 0 view .LVU94
 361 0022 1D28     		cmp	r0, #29
 362 0024 4ED8     		bhi	.L21
 363 0026 DFE800F0 		tbb	[pc, r0]
 364              	.L30:
 365 002a 68       		.byte	(.L32-.L30)/2
 366 002b 4D       		.byte	(.L21-.L30)/2
 367 002c 68       		.byte	(.L32-.L30)/2
 368 002d 4D       		.byte	(.L21-.L30)/2
 369 002e 4D       		.byte	(.L21-.L30)/2
 370 002f 4D       		.byte	(.L21-.L30)/2
 371 0030 4D       		.byte	(.L21-.L30)/2
 372 0031 4D       		.byte	(.L21-.L30)/2
 373 0032 4D       		.byte	(.L21-.L30)/2
 374 0033 4D       		.byte	(.L21-.L30)/2
 375 0034 4D       		.byte	(.L21-.L30)/2
 376 0035 4D       		.byte	(.L21-.L30)/2
 377 0036 4D       		.byte	(.L21-.L30)/2
 378 0037 4D       		.byte	(.L21-.L30)/2
 379 0038 4D       		.byte	(.L21-.L30)/2
 380 0039 4D       		.byte	(.L21-.L30)/2
 381 003a 4D       		.byte	(.L21-.L30)/2
 382 003b 4D       		.byte	(.L21-.L30)/2
 383 003c 4D       		.byte	(.L21-.L30)/2
 384 003d 4D       		.byte	(.L21-.L30)/2
 385 003e 4D       		.byte	(.L21-.L30)/2
 386 003f 4D       		.byte	(.L21-.L30)/2
 387 0040 4D       		.byte	(.L21-.L30)/2
 388 0041 56       		.byte	(.L31-.L30)/2
 389 0042 4D       		.byte	(.L21-.L30)/2
 390 0043 4D       		.byte	(.L21-.L30)/2
 391 0044 4D       		.byte	(.L21-.L30)/2
 392 0045 4D       		.byte	(.L21-.L30)/2
 393 0046 4D       		.byte	(.L21-.L30)/2
 394 0047 62       		.byte	(.L29-.L30)/2
 395              	.LVL22:
 396              		.p2align 1
 397              	.L42:
ARM GAS  C:\Users\Alex\AppData\Local\Temp\ccdKwz1H.s 			page 29


 398              		.loc 1 332 5 view .LVU95
 399 0048 3A38     		subs	r0, r0, #58
 400              	.LVL23:
 401              		.loc 1 332 5 view .LVU96
 402 004a C0B2     		uxtb	r0, r0
 403 004c 0123     		movs	r3, #1
 404 004e 8340     		lsls	r3, r3, r0
 405 0050 2C4A     		ldr	r2, .L43
 406 0052 1342     		tst	r3, r2
 407 0054 48D1     		bne	.L25
 408 0056 2C4A     		ldr	r2, .L43+4
 409 0058 1A40     		ands	r2, r2, r3
 410 005a 002A     		cmp	r2, #0
 411 005c 32D0     		beq	.L21
 412              	.L27:
 413              	.LBB180:
 333:Lib/lvgl/src/core/lv_obj_style.c ****         case LV_STYLE_TRANSFORM_SCALE_X:
 334:Lib/lvgl/src/core/lv_obj_style.c ****         case LV_STYLE_TRANSFORM_SCALE_Y:
 335:Lib/lvgl/src/core/lv_obj_style.c ****             return (lv_style_value_t) {
 336:Lib/lvgl/src/core/lv_obj_style.c ****                 .num = LV_SCALE_NONE
 337:Lib/lvgl/src/core/lv_obj_style.c ****             };
 338:Lib/lvgl/src/core/lv_obj_style.c ****         case LV_STYLE_BG_COLOR:
 339:Lib/lvgl/src/core/lv_obj_style.c ****             return (lv_style_value_t) {
 340:Lib/lvgl/src/core/lv_obj_style.c ****                 .color = black
 341:Lib/lvgl/src/core/lv_obj_style.c ****             };
 342:Lib/lvgl/src/core/lv_obj_style.c ****         case LV_STYLE_BG_GRAD_COLOR:
 343:Lib/lvgl/src/core/lv_obj_style.c ****         case LV_STYLE_BORDER_COLOR:
 344:Lib/lvgl/src/core/lv_obj_style.c ****         case LV_STYLE_SHADOW_COLOR:
 345:Lib/lvgl/src/core/lv_obj_style.c ****         case LV_STYLE_OUTLINE_COLOR:
 346:Lib/lvgl/src/core/lv_obj_style.c ****         case LV_STYLE_ARC_COLOR:
 347:Lib/lvgl/src/core/lv_obj_style.c ****         case LV_STYLE_LINE_COLOR:
 348:Lib/lvgl/src/core/lv_obj_style.c ****         case LV_STYLE_TEXT_COLOR:
 349:Lib/lvgl/src/core/lv_obj_style.c ****         case LV_STYLE_IMAGE_RECOLOR:
 350:Lib/lvgl/src/core/lv_obj_style.c ****             return (lv_style_value_t) {
 414              		.loc 1 350 13 is_stmt 1 view .LVU97
 415              		.loc 1 350 20 is_stmt 0 view .LVU98
 416 005e 0023     		movs	r3, #0
 417 0060 0193     		str	r3, [sp, #4]
 418 0062 2A4B     		ldr	r3, .L43+8
 419 0064 1B68     		ldr	r3, [r3]
 420 0066 ADF80430 		strh	r3, [sp, #4]	@ movhi
 421 006a 1B0C     		lsrs	r3, r3, #16
 422 006c 8DF80630 		strb	r3, [sp, #6]
 423 0070 2EE0     		b	.L36
 424              	.LVL24:
 425              	.L20:
 426              		.loc 1 350 20 view .LVU99
 427              	.LBE180:
 332:Lib/lvgl/src/core/lv_obj_style.c ****     switch(prop) {
 428              		.loc 1 332 5 view .LVU100
 429 0072 2338     		subs	r0, r0, #35
 430              	.LVL25:
 332:Lib/lvgl/src/core/lv_obj_style.c ****     switch(prop) {
 431              		.loc 1 332 5 view .LVU101
 432 0074 C0B2     		uxtb	r0, r0
 433 0076 0123     		movs	r3, #1
 434 0078 8340     		lsls	r3, r3, r0
ARM GAS  C:\Users\Alex\AppData\Local\Temp\ccdKwz1H.s 			page 30


 435 007a 48F24602 		movw	r2, #32838
 436 007e 1342     		tst	r3, r2
 437 0080 32D1     		bne	.L25
 438 0082 234A     		ldr	r2, .L43+12
 439 0084 1342     		tst	r3, r2
 440 0086 EAD1     		bne	.L27
 441 0088 13F4003F 		tst	r3, #131072
 442 008c 1AD0     		beq	.L21
 443              	.LBB181:
 351:Lib/lvgl/src/core/lv_obj_style.c ****                 .color = white
 352:Lib/lvgl/src/core/lv_obj_style.c ****             };
 353:Lib/lvgl/src/core/lv_obj_style.c ****         case LV_STYLE_OPA:
 354:Lib/lvgl/src/core/lv_obj_style.c ****         case LV_STYLE_OPA_LAYERED:
 355:Lib/lvgl/src/core/lv_obj_style.c ****         case LV_STYLE_BORDER_OPA:
 356:Lib/lvgl/src/core/lv_obj_style.c ****         case LV_STYLE_TEXT_OPA:
 357:Lib/lvgl/src/core/lv_obj_style.c ****         case LV_STYLE_IMAGE_OPA:
 358:Lib/lvgl/src/core/lv_obj_style.c ****         case LV_STYLE_BG_GRAD_OPA:
 359:Lib/lvgl/src/core/lv_obj_style.c ****         case LV_STYLE_BG_MAIN_OPA:
 360:Lib/lvgl/src/core/lv_obj_style.c ****         case LV_STYLE_BG_IMAGE_OPA:
 361:Lib/lvgl/src/core/lv_obj_style.c ****         case LV_STYLE_OUTLINE_OPA:
 362:Lib/lvgl/src/core/lv_obj_style.c ****         case LV_STYLE_SHADOW_OPA:
 363:Lib/lvgl/src/core/lv_obj_style.c ****         case LV_STYLE_LINE_OPA:
 364:Lib/lvgl/src/core/lv_obj_style.c ****         case LV_STYLE_ARC_OPA:
 365:Lib/lvgl/src/core/lv_obj_style.c ****             return (lv_style_value_t) {
 366:Lib/lvgl/src/core/lv_obj_style.c ****                 .num = LV_OPA_COVER
 367:Lib/lvgl/src/core/lv_obj_style.c ****             };
 368:Lib/lvgl/src/core/lv_obj_style.c ****         case LV_STYLE_BG_GRAD_STOP:
 369:Lib/lvgl/src/core/lv_obj_style.c ****             return (lv_style_value_t) {
 370:Lib/lvgl/src/core/lv_obj_style.c ****                 .num = 255
 371:Lib/lvgl/src/core/lv_obj_style.c ****             };
 372:Lib/lvgl/src/core/lv_obj_style.c ****         case LV_STYLE_BORDER_SIDE:
 373:Lib/lvgl/src/core/lv_obj_style.c ****             return (lv_style_value_t) {
 444              		.loc 1 373 13 is_stmt 1 view .LVU102
 445              		.loc 1 373 20 is_stmt 0 view .LVU103
 446 008e 0F23     		movs	r3, #15
 447 0090 0193     		str	r3, [sp, #4]
 448 0092 1DE0     		b	.L36
 449              	.LVL26:
 450              	.L19:
 451              		.loc 1 373 20 view .LVU104
 452              	.LBE181:
 332:Lib/lvgl/src/core/lv_obj_style.c ****         case LV_STYLE_TRANSFORM_SCALE_X:
 453              		.loc 1 332 5 view .LVU105
 454 0094 5828     		cmp	r0, #88
 455 0096 13D9     		bls	.L41
 456 0098 6D28     		cmp	r0, #109
 457 009a 13D8     		bhi	.L21
 458 009c 5928     		cmp	r0, #89
 459 009e 11D3     		bcc	.L21
 460 00a0 5938     		subs	r0, r0, #89
 461              	.LVL27:
 332:Lib/lvgl/src/core/lv_obj_style.c ****         case LV_STYLE_TRANSFORM_SCALE_X:
 462              		.loc 1 332 5 view .LVU106
 463 00a2 1428     		cmp	r0, #20
 464 00a4 0ED8     		bhi	.L21
 465 00a6 DFE800F0 		tbb	[pc, r0]
 466              	.L24:
ARM GAS  C:\Users\Alex\AppData\Local\Temp\ccdKwz1H.s 			page 31


 467 00aa 1F       		.byte	(.L25-.L24)/2
 468 00ab 25       		.byte	(.L26-.L24)/2
 469 00ac 0D       		.byte	(.L21-.L24)/2
 470 00ad 0D       		.byte	(.L21-.L24)/2
 471 00ae 0D       		.byte	(.L21-.L24)/2
 472 00af 0D       		.byte	(.L21-.L24)/2
 473 00b0 1F       		.byte	(.L25-.L24)/2
 474 00b1 1F       		.byte	(.L25-.L24)/2
 475 00b2 0D       		.byte	(.L21-.L24)/2
 476 00b3 0D       		.byte	(.L21-.L24)/2
 477 00b4 0D       		.byte	(.L21-.L24)/2
 478 00b5 0D       		.byte	(.L21-.L24)/2
 479 00b6 0D       		.byte	(.L21-.L24)/2
 480 00b7 0D       		.byte	(.L21-.L24)/2
 481 00b8 0D       		.byte	(.L21-.L24)/2
 482 00b9 0D       		.byte	(.L21-.L24)/2
 483 00ba 0D       		.byte	(.L21-.L24)/2
 484 00bb 0D       		.byte	(.L21-.L24)/2
 485 00bc 0D       		.byte	(.L21-.L24)/2
 486 00bd 10       		.byte	(.L23-.L24)/2
 487 00be 10       		.byte	(.L23-.L24)/2
 488              	.LVL28:
 489 00bf 00       		.p2align 1
 490              	.L41:
 332:Lib/lvgl/src/core/lv_obj_style.c ****         case LV_STYLE_TRANSFORM_SCALE_X:
 491              		.loc 1 332 5 view .LVU107
 492 00c0 3A28     		cmp	r0, #58
 493 00c2 C1D2     		bcs	.L42
 494              	.LVL29:
 495              	.L21:
 496              	.LBB182:
 374:Lib/lvgl/src/core/lv_obj_style.c ****                 .num = LV_BORDER_SIDE_FULL
 375:Lib/lvgl/src/core/lv_obj_style.c ****             };
 376:Lib/lvgl/src/core/lv_obj_style.c ****         case LV_STYLE_TEXT_FONT:
 377:Lib/lvgl/src/core/lv_obj_style.c ****             return (lv_style_value_t) {
 378:Lib/lvgl/src/core/lv_obj_style.c ****                 .ptr = LV_FONT_DEFAULT
 379:Lib/lvgl/src/core/lv_obj_style.c ****             };
 380:Lib/lvgl/src/core/lv_obj_style.c ****         case LV_STYLE_MAX_WIDTH:
 381:Lib/lvgl/src/core/lv_obj_style.c ****         case LV_STYLE_MAX_HEIGHT:
 382:Lib/lvgl/src/core/lv_obj_style.c ****             return (lv_style_value_t) {
 383:Lib/lvgl/src/core/lv_obj_style.c ****                 .num = LV_COORD_MAX
 384:Lib/lvgl/src/core/lv_obj_style.c ****             };
 385:Lib/lvgl/src/core/lv_obj_style.c ****         default:
 386:Lib/lvgl/src/core/lv_obj_style.c ****             return (lv_style_value_t) {
 497              		.loc 1 386 13 is_stmt 1 view .LVU108
 498              		.loc 1 386 20 is_stmt 0 view .LVU109
 499 00c4 0023     		movs	r3, #0
 500 00c6 0193     		str	r3, [sp, #4]
 501 00c8 02E0     		b	.L36
 502              	.L23:
 335:Lib/lvgl/src/core/lv_obj_style.c ****                 .num = LV_SCALE_NONE
 503              		.loc 1 335 13 is_stmt 1 view .LVU110
 335:Lib/lvgl/src/core/lv_obj_style.c ****                 .num = LV_SCALE_NONE
 504              		.loc 1 335 20 is_stmt 0 view .LVU111
 505 00ca 4FF48073 		mov	r3, #256
 506 00ce 0193     		str	r3, [sp, #4]
 507              	.L36:
ARM GAS  C:\Users\Alex\AppData\Local\Temp\ccdKwz1H.s 			page 32


 508              	.LBE182:
 387:Lib/lvgl/src/core/lv_obj_style.c ****                 .ptr = 0
 388:Lib/lvgl/src/core/lv_obj_style.c ****             };
 389:Lib/lvgl/src/core/lv_obj_style.c ****     }
 390:Lib/lvgl/src/core/lv_obj_style.c **** }
 509              		.loc 1 390 1 view .LVU112
 510 00d0 0198     		ldr	r0, [sp, #4]
 511 00d2 02B0     		add	sp, sp, #8
 512              	.LCFI6:
 513              		.cfi_remember_state
 514              		.cfi_def_cfa_offset 0
 515              		@ sp needed
 516 00d4 7047     		bx	lr
 517              	.L31:
 518              	.LCFI7:
 519              		.cfi_restore_state
 520              	.LBB183:
 339:Lib/lvgl/src/core/lv_obj_style.c ****                 .color = black
 521              		.loc 1 339 13 is_stmt 1 view .LVU113
 339:Lib/lvgl/src/core/lv_obj_style.c ****                 .color = black
 522              		.loc 1 339 20 is_stmt 0 view .LVU114
 523 00d6 0023     		movs	r3, #0
 524 00d8 0193     		str	r3, [sp, #4]
 525 00da 009B     		ldr	r3, [sp]
 526 00dc ADF80430 		strh	r3, [sp, #4]	@ movhi
 527 00e0 1B0C     		lsrs	r3, r3, #16
 528 00e2 8DF80630 		strb	r3, [sp, #6]
 529 00e6 F3E7     		b	.L36
 530              	.L25:
 365:Lib/lvgl/src/core/lv_obj_style.c ****                 .num = LV_OPA_COVER
 531              		.loc 1 365 13 is_stmt 1 view .LVU115
 365:Lib/lvgl/src/core/lv_obj_style.c ****                 .num = LV_OPA_COVER
 532              		.loc 1 365 20 is_stmt 0 view .LVU116
 533 00e8 FF23     		movs	r3, #255
 534 00ea 0193     		str	r3, [sp, #4]
 535 00ec F0E7     		b	.L36
 536              	.L29:
 369:Lib/lvgl/src/core/lv_obj_style.c ****                 .num = 255
 537              		.loc 1 369 13 is_stmt 1 view .LVU117
 369:Lib/lvgl/src/core/lv_obj_style.c ****                 .num = 255
 538              		.loc 1 369 20 is_stmt 0 view .LVU118
 539 00ee FF23     		movs	r3, #255
 540 00f0 0193     		str	r3, [sp, #4]
 541 00f2 EDE7     		b	.L36
 542              	.L26:
 377:Lib/lvgl/src/core/lv_obj_style.c ****                 .ptr = LV_FONT_DEFAULT
 543              		.loc 1 377 13 is_stmt 1 view .LVU119
 377:Lib/lvgl/src/core/lv_obj_style.c ****                 .ptr = LV_FONT_DEFAULT
 544              		.loc 1 377 20 is_stmt 0 view .LVU120
 545 00f4 074B     		ldr	r3, .L43+16
 546 00f6 0193     		str	r3, [sp, #4]
 547 00f8 EAE7     		b	.L36
 548              	.L32:
 382:Lib/lvgl/src/core/lv_obj_style.c ****                 .num = LV_COORD_MAX
 549              		.loc 1 382 13 is_stmt 1 view .LVU121
 382:Lib/lvgl/src/core/lv_obj_style.c ****                 .num = LV_COORD_MAX
 550              		.loc 1 382 20 is_stmt 0 view .LVU122
ARM GAS  C:\Users\Alex\AppData\Local\Temp\ccdKwz1H.s 			page 33


 551 00fa 6FF06043 		mvn	r3, #-536870912
 552 00fe 0193     		str	r3, [sp, #4]
 553 0100 E6E7     		b	.L36
 554              	.L44:
 555 0102 00BF     		.align	2
 556              	.L43:
 557 0104 11040802 		.word	34079761
 558 0108 08080441 		.word	1090783240
 559 010c 00000000 		.word	white.0
 560 0110 01404000 		.word	4210689
 561 0114 00000000 		.word	lv_font_montserrat_14
 562              	.LBE183:
 563              		.cfi_endproc
 564              	.LFE243:
 566              		.section	.text.get_prop_core,"ax",%progbits
 567              		.align	1
 568              		.syntax unified
 569              		.thumb
 570              		.thumb_func
 572              	get_prop_core:
 573              	.LVL30:
 574              	.LFB258:
 391:Lib/lvgl/src/core/lv_obj_style.c **** 
 392:Lib/lvgl/src/core/lv_obj_style.c **** lv_style_value_t lv_obj_get_style_prop(const lv_obj_t * obj, lv_part_t part, lv_style_prop_t prop)
 393:Lib/lvgl/src/core/lv_obj_style.c **** {
 394:Lib/lvgl/src/core/lv_obj_style.c ****     LV_ASSERT_NULL(obj)
 395:Lib/lvgl/src/core/lv_obj_style.c **** 
 396:Lib/lvgl/src/core/lv_obj_style.c ****     lv_style_selector_t selector = part | obj->state;
 397:Lib/lvgl/src/core/lv_obj_style.c ****     lv_style_value_t value_act = { .ptr = NULL };
 398:Lib/lvgl/src/core/lv_obj_style.c ****     lv_style_res_t found;
 399:Lib/lvgl/src/core/lv_obj_style.c **** 
 400:Lib/lvgl/src/core/lv_obj_style.c ****     found = get_selector_style_prop(obj, selector, prop, &value_act);
 401:Lib/lvgl/src/core/lv_obj_style.c ****     if(found == LV_STYLE_RES_FOUND) return value_act;
 402:Lib/lvgl/src/core/lv_obj_style.c **** 
 403:Lib/lvgl/src/core/lv_obj_style.c ****     return lv_style_prop_get_default_inlined(prop);
 404:Lib/lvgl/src/core/lv_obj_style.c **** }
 405:Lib/lvgl/src/core/lv_obj_style.c **** 
 406:Lib/lvgl/src/core/lv_obj_style.c **** bool lv_obj_has_style_prop(const lv_obj_t * obj, lv_style_selector_t selector, lv_style_prop_t prop
 407:Lib/lvgl/src/core/lv_obj_style.c **** {
 408:Lib/lvgl/src/core/lv_obj_style.c ****     LV_ASSERT_NULL(obj)
 409:Lib/lvgl/src/core/lv_obj_style.c **** 
 410:Lib/lvgl/src/core/lv_obj_style.c ****     lv_style_value_t value_act = { .ptr = NULL };
 411:Lib/lvgl/src/core/lv_obj_style.c ****     lv_style_res_t found;
 412:Lib/lvgl/src/core/lv_obj_style.c **** 
 413:Lib/lvgl/src/core/lv_obj_style.c ****     found = get_selector_style_prop(obj, selector, prop, &value_act);
 414:Lib/lvgl/src/core/lv_obj_style.c ****     if(found == LV_STYLE_RES_FOUND) return true;
 415:Lib/lvgl/src/core/lv_obj_style.c **** 
 416:Lib/lvgl/src/core/lv_obj_style.c ****     return false;
 417:Lib/lvgl/src/core/lv_obj_style.c **** }
 418:Lib/lvgl/src/core/lv_obj_style.c **** 
 419:Lib/lvgl/src/core/lv_obj_style.c **** void lv_obj_set_local_style_prop(lv_obj_t * obj, lv_style_prop_t prop, lv_style_value_t value,
 420:Lib/lvgl/src/core/lv_obj_style.c ****                                  lv_style_selector_t selector)
 421:Lib/lvgl/src/core/lv_obj_style.c **** {
 422:Lib/lvgl/src/core/lv_obj_style.c ****     lv_style_t * style = get_local_style(obj, selector);
 423:Lib/lvgl/src/core/lv_obj_style.c ****     if(selector == LV_PART_MAIN && lv_style_prop_has_flag(prop, LV_STYLE_PROP_FLAG_TRANSFORM)) {
 424:Lib/lvgl/src/core/lv_obj_style.c ****         lv_obj_invalidate(obj);
 425:Lib/lvgl/src/core/lv_obj_style.c ****     }
ARM GAS  C:\Users\Alex\AppData\Local\Temp\ccdKwz1H.s 			page 34


 426:Lib/lvgl/src/core/lv_obj_style.c **** 
 427:Lib/lvgl/src/core/lv_obj_style.c ****     lv_style_set_prop(style, prop, value);
 428:Lib/lvgl/src/core/lv_obj_style.c **** 
 429:Lib/lvgl/src/core/lv_obj_style.c **** #if LV_OBJ_STYLE_CACHE
 430:Lib/lvgl/src/core/lv_obj_style.c ****     uint32_t prop_shifted = STYLE_PROP_SHIFTED(prop);
 431:Lib/lvgl/src/core/lv_obj_style.c ****     if(lv_obj_style_get_selector_part(selector) == LV_PART_MAIN) {
 432:Lib/lvgl/src/core/lv_obj_style.c ****         obj->style_main_prop_is_set |= prop_shifted;
 433:Lib/lvgl/src/core/lv_obj_style.c ****     }
 434:Lib/lvgl/src/core/lv_obj_style.c ****     else {
 435:Lib/lvgl/src/core/lv_obj_style.c ****         obj->style_other_prop_is_set |= prop_shifted;
 436:Lib/lvgl/src/core/lv_obj_style.c ****     }
 437:Lib/lvgl/src/core/lv_obj_style.c **** #endif
 438:Lib/lvgl/src/core/lv_obj_style.c **** 
 439:Lib/lvgl/src/core/lv_obj_style.c ****     lv_obj_refresh_style(obj, selector, prop);
 440:Lib/lvgl/src/core/lv_obj_style.c **** }
 441:Lib/lvgl/src/core/lv_obj_style.c **** 
 442:Lib/lvgl/src/core/lv_obj_style.c **** lv_style_res_t lv_obj_get_local_style_prop(lv_obj_t * obj, lv_style_prop_t prop, lv_style_value_t *
 443:Lib/lvgl/src/core/lv_obj_style.c ****                                            lv_style_selector_t selector)
 444:Lib/lvgl/src/core/lv_obj_style.c **** {
 445:Lib/lvgl/src/core/lv_obj_style.c ****     uint32_t i;
 446:Lib/lvgl/src/core/lv_obj_style.c ****     for(i = 0; i < obj->style_cnt; i++) {
 447:Lib/lvgl/src/core/lv_obj_style.c ****         if(obj->styles[i].is_local &&
 448:Lib/lvgl/src/core/lv_obj_style.c ****            obj->styles[i].selector == selector) {
 449:Lib/lvgl/src/core/lv_obj_style.c ****             return lv_style_get_prop(obj->styles[i].style, prop, value);
 450:Lib/lvgl/src/core/lv_obj_style.c ****         }
 451:Lib/lvgl/src/core/lv_obj_style.c ****     }
 452:Lib/lvgl/src/core/lv_obj_style.c **** 
 453:Lib/lvgl/src/core/lv_obj_style.c ****     return LV_STYLE_RES_NOT_FOUND;
 454:Lib/lvgl/src/core/lv_obj_style.c **** }
 455:Lib/lvgl/src/core/lv_obj_style.c **** 
 456:Lib/lvgl/src/core/lv_obj_style.c **** bool lv_obj_remove_local_style_prop(lv_obj_t * obj, lv_style_prop_t prop, lv_style_selector_t selec
 457:Lib/lvgl/src/core/lv_obj_style.c **** {
 458:Lib/lvgl/src/core/lv_obj_style.c ****     LV_ASSERT_OBJ(obj, MY_CLASS);
 459:Lib/lvgl/src/core/lv_obj_style.c **** 
 460:Lib/lvgl/src/core/lv_obj_style.c ****     uint32_t i;
 461:Lib/lvgl/src/core/lv_obj_style.c ****     /*Find the style*/
 462:Lib/lvgl/src/core/lv_obj_style.c ****     for(i = 0; i < obj->style_cnt; i++) {
 463:Lib/lvgl/src/core/lv_obj_style.c ****         if(obj->styles[i].is_local &&
 464:Lib/lvgl/src/core/lv_obj_style.c ****            obj->styles[i].selector == selector) {
 465:Lib/lvgl/src/core/lv_obj_style.c ****             break;
 466:Lib/lvgl/src/core/lv_obj_style.c ****         }
 467:Lib/lvgl/src/core/lv_obj_style.c ****     }
 468:Lib/lvgl/src/core/lv_obj_style.c **** 
 469:Lib/lvgl/src/core/lv_obj_style.c ****     /*The style is not found*/
 470:Lib/lvgl/src/core/lv_obj_style.c ****     if(i == obj->style_cnt) return false;
 471:Lib/lvgl/src/core/lv_obj_style.c **** 
 472:Lib/lvgl/src/core/lv_obj_style.c ****     lv_result_t res = lv_style_remove_prop((lv_style_t *)obj->styles[i].style, prop);
 473:Lib/lvgl/src/core/lv_obj_style.c ****     if(res == LV_RESULT_OK) {
 474:Lib/lvgl/src/core/lv_obj_style.c ****         full_cache_refresh(obj, lv_obj_style_get_selector_part(selector));
 475:Lib/lvgl/src/core/lv_obj_style.c ****         lv_obj_refresh_style(obj, selector, prop);
 476:Lib/lvgl/src/core/lv_obj_style.c ****     }
 477:Lib/lvgl/src/core/lv_obj_style.c **** 
 478:Lib/lvgl/src/core/lv_obj_style.c ****     return res;
 479:Lib/lvgl/src/core/lv_obj_style.c **** }
 480:Lib/lvgl/src/core/lv_obj_style.c **** 
 481:Lib/lvgl/src/core/lv_obj_style.c **** void _lv_obj_style_create_transition(lv_obj_t * obj, lv_part_t part, lv_state_t prev_state, lv_stat
 482:Lib/lvgl/src/core/lv_obj_style.c ****                                      const _lv_obj_style_transition_dsc_t * tr_dsc)
ARM GAS  C:\Users\Alex\AppData\Local\Temp\ccdKwz1H.s 			page 35


 483:Lib/lvgl/src/core/lv_obj_style.c **** {
 484:Lib/lvgl/src/core/lv_obj_style.c ****     trans_t * tr;
 485:Lib/lvgl/src/core/lv_obj_style.c **** 
 486:Lib/lvgl/src/core/lv_obj_style.c ****     /*Get the previous and current values*/
 487:Lib/lvgl/src/core/lv_obj_style.c ****     obj->skip_trans = 1;
 488:Lib/lvgl/src/core/lv_obj_style.c ****     obj->state = prev_state;
 489:Lib/lvgl/src/core/lv_obj_style.c ****     lv_style_value_t v1 = lv_obj_get_style_prop(obj, part, tr_dsc->prop);
 490:Lib/lvgl/src/core/lv_obj_style.c ****     obj->state = new_state;
 491:Lib/lvgl/src/core/lv_obj_style.c ****     lv_style_value_t v2 = lv_obj_get_style_prop(obj, part, tr_dsc->prop);
 492:Lib/lvgl/src/core/lv_obj_style.c ****     obj->skip_trans = 0;
 493:Lib/lvgl/src/core/lv_obj_style.c **** 
 494:Lib/lvgl/src/core/lv_obj_style.c ****     if(v1.ptr == v2.ptr && v1.num == v2.num && lv_color_eq(v1.color, v2.color))  return;
 495:Lib/lvgl/src/core/lv_obj_style.c ****     obj->state = prev_state;
 496:Lib/lvgl/src/core/lv_obj_style.c ****     v1 = lv_obj_get_style_prop(obj, part, tr_dsc->prop);
 497:Lib/lvgl/src/core/lv_obj_style.c ****     obj->state = new_state;
 498:Lib/lvgl/src/core/lv_obj_style.c **** 
 499:Lib/lvgl/src/core/lv_obj_style.c ****     _lv_obj_style_t * style_trans = get_trans_style(obj, part);
 500:Lib/lvgl/src/core/lv_obj_style.c ****     lv_style_set_prop((lv_style_t *)style_trans->style, tr_dsc->prop, v1);  /*Be sure `trans_style`
 501:Lib/lvgl/src/core/lv_obj_style.c **** 
 502:Lib/lvgl/src/core/lv_obj_style.c ****     if(tr_dsc->prop == LV_STYLE_RADIUS) {
 503:Lib/lvgl/src/core/lv_obj_style.c ****         if(v1.num == LV_RADIUS_CIRCLE || v2.num == LV_RADIUS_CIRCLE) {
 504:Lib/lvgl/src/core/lv_obj_style.c ****             int32_t whalf = lv_obj_get_width(obj) / 2;
 505:Lib/lvgl/src/core/lv_obj_style.c ****             int32_t hhalf = lv_obj_get_height(obj) / 2;
 506:Lib/lvgl/src/core/lv_obj_style.c ****             if(v1.num == LV_RADIUS_CIRCLE) v1.num = LV_MIN(whalf + 1, hhalf + 1);
 507:Lib/lvgl/src/core/lv_obj_style.c ****             if(v2.num == LV_RADIUS_CIRCLE) v2.num = LV_MIN(whalf + 1, hhalf + 1);
 508:Lib/lvgl/src/core/lv_obj_style.c ****         }
 509:Lib/lvgl/src/core/lv_obj_style.c ****     }
 510:Lib/lvgl/src/core/lv_obj_style.c **** 
 511:Lib/lvgl/src/core/lv_obj_style.c ****     tr = _lv_ll_ins_head(style_trans_ll_p);
 512:Lib/lvgl/src/core/lv_obj_style.c ****     LV_ASSERT_MALLOC(tr);
 513:Lib/lvgl/src/core/lv_obj_style.c ****     if(tr == NULL) return;
 514:Lib/lvgl/src/core/lv_obj_style.c ****     tr->start_value = v1;
 515:Lib/lvgl/src/core/lv_obj_style.c ****     tr->end_value = v2;
 516:Lib/lvgl/src/core/lv_obj_style.c ****     tr->obj = obj;
 517:Lib/lvgl/src/core/lv_obj_style.c ****     tr->prop = tr_dsc->prop;
 518:Lib/lvgl/src/core/lv_obj_style.c ****     tr->selector = part;
 519:Lib/lvgl/src/core/lv_obj_style.c **** 
 520:Lib/lvgl/src/core/lv_obj_style.c ****     lv_anim_t a;
 521:Lib/lvgl/src/core/lv_obj_style.c ****     lv_anim_init(&a);
 522:Lib/lvgl/src/core/lv_obj_style.c ****     lv_anim_set_var(&a, tr);
 523:Lib/lvgl/src/core/lv_obj_style.c ****     lv_anim_set_exec_cb(&a, trans_anim_cb);
 524:Lib/lvgl/src/core/lv_obj_style.c ****     lv_anim_set_start_cb(&a, trans_anim_start_cb);
 525:Lib/lvgl/src/core/lv_obj_style.c ****     lv_anim_set_completed_cb(&a, trans_anim_completed_cb);
 526:Lib/lvgl/src/core/lv_obj_style.c ****     lv_anim_set_values(&a, 0x00, 0xFF);
 527:Lib/lvgl/src/core/lv_obj_style.c ****     lv_anim_set_duration(&a, tr_dsc->time);
 528:Lib/lvgl/src/core/lv_obj_style.c ****     lv_anim_set_delay(&a, tr_dsc->delay);
 529:Lib/lvgl/src/core/lv_obj_style.c ****     lv_anim_set_path_cb(&a, tr_dsc->path_cb);
 530:Lib/lvgl/src/core/lv_obj_style.c ****     lv_anim_set_early_apply(&a, false);
 531:Lib/lvgl/src/core/lv_obj_style.c ****     lv_anim_set_user_data(&a, tr_dsc->user_data);
 532:Lib/lvgl/src/core/lv_obj_style.c ****     lv_anim_start(&a);
 533:Lib/lvgl/src/core/lv_obj_style.c **** }
 534:Lib/lvgl/src/core/lv_obj_style.c **** 
 535:Lib/lvgl/src/core/lv_obj_style.c **** lv_style_value_t _lv_obj_style_apply_color_filter(const lv_obj_t * obj, uint32_t part, lv_style_val
 536:Lib/lvgl/src/core/lv_obj_style.c **** {
 537:Lib/lvgl/src/core/lv_obj_style.c ****     if(obj == NULL) return v;
 538:Lib/lvgl/src/core/lv_obj_style.c ****     const lv_color_filter_dsc_t * f = lv_obj_get_style_color_filter_dsc(obj, part);
 539:Lib/lvgl/src/core/lv_obj_style.c ****     if(f && f->filter_cb) {
ARM GAS  C:\Users\Alex\AppData\Local\Temp\ccdKwz1H.s 			page 36


 540:Lib/lvgl/src/core/lv_obj_style.c ****         lv_opa_t f_opa = lv_obj_get_style_color_filter_opa(obj, part);
 541:Lib/lvgl/src/core/lv_obj_style.c ****         if(f_opa != 0) v.color = f->filter_cb(f, v.color, f_opa);
 542:Lib/lvgl/src/core/lv_obj_style.c ****     }
 543:Lib/lvgl/src/core/lv_obj_style.c ****     return v;
 544:Lib/lvgl/src/core/lv_obj_style.c **** }
 545:Lib/lvgl/src/core/lv_obj_style.c **** 
 546:Lib/lvgl/src/core/lv_obj_style.c **** _lv_style_state_cmp_t _lv_obj_style_state_compare(lv_obj_t * obj, lv_state_t state1, lv_state_t sta
 547:Lib/lvgl/src/core/lv_obj_style.c **** {
 548:Lib/lvgl/src/core/lv_obj_style.c ****     _lv_style_state_cmp_t res = _LV_STYLE_STATE_CMP_SAME;
 549:Lib/lvgl/src/core/lv_obj_style.c **** 
 550:Lib/lvgl/src/core/lv_obj_style.c ****     /*Are there any new styles for the new state?*/
 551:Lib/lvgl/src/core/lv_obj_style.c ****     uint32_t i;
 552:Lib/lvgl/src/core/lv_obj_style.c ****     for(i = 0; i < obj->style_cnt; i++) {
 553:Lib/lvgl/src/core/lv_obj_style.c ****         if(obj->styles[i].is_trans) continue;
 554:Lib/lvgl/src/core/lv_obj_style.c **** 
 555:Lib/lvgl/src/core/lv_obj_style.c ****         lv_state_t state_act = lv_obj_style_get_selector_state(obj->styles[i].selector);
 556:Lib/lvgl/src/core/lv_obj_style.c ****         /*The style is valid for a state but not the other*/
 557:Lib/lvgl/src/core/lv_obj_style.c ****         bool valid1 = state_act & (~state1) ? false : true;
 558:Lib/lvgl/src/core/lv_obj_style.c ****         bool valid2 = state_act & (~state2) ? false : true;
 559:Lib/lvgl/src/core/lv_obj_style.c ****         if(valid1 != valid2) {
 560:Lib/lvgl/src/core/lv_obj_style.c ****             const lv_style_t * style = obj->styles[i].style;
 561:Lib/lvgl/src/core/lv_obj_style.c ****             lv_style_value_t v;
 562:Lib/lvgl/src/core/lv_obj_style.c ****             /*If there is layout difference on the main part, return immediately. There is no more 
 563:Lib/lvgl/src/core/lv_obj_style.c ****             bool layout_diff = false;
 564:Lib/lvgl/src/core/lv_obj_style.c ****             if(lv_style_get_prop(style, LV_STYLE_PAD_TOP, &v))layout_diff = true;
 565:Lib/lvgl/src/core/lv_obj_style.c ****             else if(lv_style_get_prop(style, LV_STYLE_PAD_BOTTOM, &v)) layout_diff = true;
 566:Lib/lvgl/src/core/lv_obj_style.c ****             else if(lv_style_get_prop(style, LV_STYLE_PAD_LEFT, &v)) layout_diff = true;
 567:Lib/lvgl/src/core/lv_obj_style.c ****             else if(lv_style_get_prop(style, LV_STYLE_PAD_RIGHT, &v)) layout_diff = true;
 568:Lib/lvgl/src/core/lv_obj_style.c ****             else if(lv_style_get_prop(style, LV_STYLE_PAD_COLUMN, &v)) layout_diff = true;
 569:Lib/lvgl/src/core/lv_obj_style.c ****             else if(lv_style_get_prop(style, LV_STYLE_PAD_ROW, &v)) layout_diff = true;
 570:Lib/lvgl/src/core/lv_obj_style.c ****             else if(lv_style_get_prop(style, LV_STYLE_LAYOUT, &v)) layout_diff = true;
 571:Lib/lvgl/src/core/lv_obj_style.c ****             else if(lv_style_get_prop(style, LV_STYLE_TRANSLATE_X, &v)) layout_diff = true;
 572:Lib/lvgl/src/core/lv_obj_style.c ****             else if(lv_style_get_prop(style, LV_STYLE_TRANSLATE_Y, &v)) layout_diff = true;
 573:Lib/lvgl/src/core/lv_obj_style.c ****             else if(lv_style_get_prop(style, LV_STYLE_WIDTH, &v)) layout_diff = true;
 574:Lib/lvgl/src/core/lv_obj_style.c ****             else if(lv_style_get_prop(style, LV_STYLE_HEIGHT, &v)) layout_diff = true;
 575:Lib/lvgl/src/core/lv_obj_style.c ****             else if(lv_style_get_prop(style, LV_STYLE_MIN_WIDTH, &v)) layout_diff = true;
 576:Lib/lvgl/src/core/lv_obj_style.c ****             else if(lv_style_get_prop(style, LV_STYLE_MAX_WIDTH, &v)) layout_diff = true;
 577:Lib/lvgl/src/core/lv_obj_style.c ****             else if(lv_style_get_prop(style, LV_STYLE_MIN_HEIGHT, &v)) layout_diff = true;
 578:Lib/lvgl/src/core/lv_obj_style.c ****             else if(lv_style_get_prop(style, LV_STYLE_MAX_HEIGHT, &v)) layout_diff = true;
 579:Lib/lvgl/src/core/lv_obj_style.c ****             else if(lv_style_get_prop(style, LV_STYLE_BORDER_WIDTH, &v)) layout_diff = true;
 580:Lib/lvgl/src/core/lv_obj_style.c **** 
 581:Lib/lvgl/src/core/lv_obj_style.c ****             if(layout_diff) {
 582:Lib/lvgl/src/core/lv_obj_style.c ****                 return _LV_STYLE_STATE_CMP_DIFF_LAYOUT;
 583:Lib/lvgl/src/core/lv_obj_style.c ****             }
 584:Lib/lvgl/src/core/lv_obj_style.c **** 
 585:Lib/lvgl/src/core/lv_obj_style.c ****             /*Check for draw pad changes*/
 586:Lib/lvgl/src/core/lv_obj_style.c ****             if(lv_style_get_prop(style, LV_STYLE_TRANSFORM_WIDTH, &v)) res = _LV_STYLE_STATE_CMP_DI
 587:Lib/lvgl/src/core/lv_obj_style.c ****             else if(lv_style_get_prop(style, LV_STYLE_TRANSFORM_HEIGHT, &v)) res = _LV_STYLE_STATE_
 588:Lib/lvgl/src/core/lv_obj_style.c ****             else if(lv_style_get_prop(style, LV_STYLE_TRANSFORM_ROTATION, &v)) res = _LV_STYLE_STAT
 589:Lib/lvgl/src/core/lv_obj_style.c ****             else if(lv_style_get_prop(style, LV_STYLE_TRANSFORM_SCALE_X, &v)) res = _LV_STYLE_STATE
 590:Lib/lvgl/src/core/lv_obj_style.c ****             else if(lv_style_get_prop(style, LV_STYLE_TRANSFORM_SCALE_Y, &v)) res = _LV_STYLE_STATE
 591:Lib/lvgl/src/core/lv_obj_style.c ****             else if(lv_style_get_prop(style, LV_STYLE_OUTLINE_OPA, &v)) res = _LV_STYLE_STATE_CMP_D
 592:Lib/lvgl/src/core/lv_obj_style.c ****             else if(lv_style_get_prop(style, LV_STYLE_OUTLINE_PAD, &v)) res = _LV_STYLE_STATE_CMP_D
 593:Lib/lvgl/src/core/lv_obj_style.c ****             else if(lv_style_get_prop(style, LV_STYLE_OUTLINE_WIDTH, &v)) res = _LV_STYLE_STATE_CMP
 594:Lib/lvgl/src/core/lv_obj_style.c ****             else if(lv_style_get_prop(style, LV_STYLE_SHADOW_WIDTH, &v)) res = _LV_STYLE_STATE_CMP_
 595:Lib/lvgl/src/core/lv_obj_style.c ****             else if(lv_style_get_prop(style, LV_STYLE_SHADOW_OPA, &v)) res = _LV_STYLE_STATE_CMP_DI
 596:Lib/lvgl/src/core/lv_obj_style.c ****             else if(lv_style_get_prop(style, LV_STYLE_SHADOW_OFFSET_X, &v)) res = _LV_STYLE_STATE_C
ARM GAS  C:\Users\Alex\AppData\Local\Temp\ccdKwz1H.s 			page 37


 597:Lib/lvgl/src/core/lv_obj_style.c ****             else if(lv_style_get_prop(style, LV_STYLE_SHADOW_OFFSET_Y, &v)) res = _LV_STYLE_STATE_C
 598:Lib/lvgl/src/core/lv_obj_style.c ****             else if(lv_style_get_prop(style, LV_STYLE_SHADOW_SPREAD, &v)) res = _LV_STYLE_STATE_CMP
 599:Lib/lvgl/src/core/lv_obj_style.c ****             else if(lv_style_get_prop(style, LV_STYLE_LINE_WIDTH, &v)) res = _LV_STYLE_STATE_CMP_DI
 600:Lib/lvgl/src/core/lv_obj_style.c ****             else if(res == _LV_STYLE_STATE_CMP_SAME) res = _LV_STYLE_STATE_CMP_DIFF_REDRAW;
 601:Lib/lvgl/src/core/lv_obj_style.c ****         }
 602:Lib/lvgl/src/core/lv_obj_style.c ****     }
 603:Lib/lvgl/src/core/lv_obj_style.c **** 
 604:Lib/lvgl/src/core/lv_obj_style.c ****     return res;
 605:Lib/lvgl/src/core/lv_obj_style.c **** }
 606:Lib/lvgl/src/core/lv_obj_style.c **** 
 607:Lib/lvgl/src/core/lv_obj_style.c **** void lv_obj_fade_in(lv_obj_t * obj, uint32_t time, uint32_t delay)
 608:Lib/lvgl/src/core/lv_obj_style.c **** {
 609:Lib/lvgl/src/core/lv_obj_style.c ****     lv_anim_t a;
 610:Lib/lvgl/src/core/lv_obj_style.c ****     lv_anim_init(&a);
 611:Lib/lvgl/src/core/lv_obj_style.c ****     lv_anim_set_var(&a, obj);
 612:Lib/lvgl/src/core/lv_obj_style.c ****     lv_anim_set_values(&a, 0, LV_OPA_COVER);
 613:Lib/lvgl/src/core/lv_obj_style.c ****     lv_anim_set_exec_cb(&a, fade_anim_cb);
 614:Lib/lvgl/src/core/lv_obj_style.c ****     lv_anim_set_completed_cb(&a, fade_in_anim_completed);
 615:Lib/lvgl/src/core/lv_obj_style.c ****     lv_anim_set_duration(&a, time);
 616:Lib/lvgl/src/core/lv_obj_style.c ****     lv_anim_set_delay(&a, delay);
 617:Lib/lvgl/src/core/lv_obj_style.c ****     lv_anim_start(&a);
 618:Lib/lvgl/src/core/lv_obj_style.c **** }
 619:Lib/lvgl/src/core/lv_obj_style.c **** 
 620:Lib/lvgl/src/core/lv_obj_style.c **** void lv_obj_fade_out(lv_obj_t * obj, uint32_t time, uint32_t delay)
 621:Lib/lvgl/src/core/lv_obj_style.c **** {
 622:Lib/lvgl/src/core/lv_obj_style.c ****     lv_anim_t a;
 623:Lib/lvgl/src/core/lv_obj_style.c ****     lv_anim_init(&a);
 624:Lib/lvgl/src/core/lv_obj_style.c ****     lv_anim_set_var(&a, obj);
 625:Lib/lvgl/src/core/lv_obj_style.c ****     lv_anim_set_values(&a, lv_obj_get_style_opa(obj, 0), LV_OPA_TRANSP);
 626:Lib/lvgl/src/core/lv_obj_style.c ****     lv_anim_set_exec_cb(&a, fade_anim_cb);
 627:Lib/lvgl/src/core/lv_obj_style.c ****     lv_anim_set_duration(&a, time);
 628:Lib/lvgl/src/core/lv_obj_style.c ****     lv_anim_set_delay(&a, delay);
 629:Lib/lvgl/src/core/lv_obj_style.c ****     lv_anim_start(&a);
 630:Lib/lvgl/src/core/lv_obj_style.c **** }
 631:Lib/lvgl/src/core/lv_obj_style.c **** 
 632:Lib/lvgl/src/core/lv_obj_style.c **** lv_text_align_t lv_obj_calculate_style_text_align(const lv_obj_t * obj, lv_part_t part, const char 
 633:Lib/lvgl/src/core/lv_obj_style.c **** {
 634:Lib/lvgl/src/core/lv_obj_style.c ****     lv_text_align_t align = lv_obj_get_style_text_align(obj, part);
 635:Lib/lvgl/src/core/lv_obj_style.c ****     lv_base_dir_t base_dir = lv_obj_get_style_base_dir(obj, part);
 636:Lib/lvgl/src/core/lv_obj_style.c ****     lv_bidi_calculate_align(&align, &base_dir, txt);
 637:Lib/lvgl/src/core/lv_obj_style.c ****     return align;
 638:Lib/lvgl/src/core/lv_obj_style.c **** }
 639:Lib/lvgl/src/core/lv_obj_style.c **** 
 640:Lib/lvgl/src/core/lv_obj_style.c **** lv_opa_t lv_obj_get_style_opa_recursive(const lv_obj_t * obj, lv_part_t part)
 641:Lib/lvgl/src/core/lv_obj_style.c **** {
 642:Lib/lvgl/src/core/lv_obj_style.c **** 
 643:Lib/lvgl/src/core/lv_obj_style.c ****     lv_opa_t opa_obj = lv_obj_get_style_opa(obj, part);
 644:Lib/lvgl/src/core/lv_obj_style.c ****     if(opa_obj <= LV_OPA_MIN) return LV_OPA_TRANSP;
 645:Lib/lvgl/src/core/lv_obj_style.c **** 
 646:Lib/lvgl/src/core/lv_obj_style.c ****     lv_opa_t opa_final = LV_OPA_COVER;
 647:Lib/lvgl/src/core/lv_obj_style.c ****     if(opa_obj < LV_OPA_MAX) {
 648:Lib/lvgl/src/core/lv_obj_style.c ****         opa_final = LV_OPA_MIX2(opa_final, opa_obj);
 649:Lib/lvgl/src/core/lv_obj_style.c ****     }
 650:Lib/lvgl/src/core/lv_obj_style.c **** 
 651:Lib/lvgl/src/core/lv_obj_style.c ****     if(part != LV_PART_MAIN) {
 652:Lib/lvgl/src/core/lv_obj_style.c ****         part = LV_PART_MAIN;
 653:Lib/lvgl/src/core/lv_obj_style.c ****     }
ARM GAS  C:\Users\Alex\AppData\Local\Temp\ccdKwz1H.s 			page 38


 654:Lib/lvgl/src/core/lv_obj_style.c ****     else {
 655:Lib/lvgl/src/core/lv_obj_style.c ****         obj = lv_obj_get_parent(obj);
 656:Lib/lvgl/src/core/lv_obj_style.c ****     }
 657:Lib/lvgl/src/core/lv_obj_style.c **** 
 658:Lib/lvgl/src/core/lv_obj_style.c ****     while(obj) {
 659:Lib/lvgl/src/core/lv_obj_style.c ****         opa_obj = lv_obj_get_style_opa(obj, part);
 660:Lib/lvgl/src/core/lv_obj_style.c ****         if(opa_obj <= LV_OPA_MIN) return LV_OPA_TRANSP;
 661:Lib/lvgl/src/core/lv_obj_style.c ****         if(opa_obj < LV_OPA_MAX) {
 662:Lib/lvgl/src/core/lv_obj_style.c ****             opa_final = LV_OPA_MIX2(opa_final, opa_obj);
 663:Lib/lvgl/src/core/lv_obj_style.c ****         }
 664:Lib/lvgl/src/core/lv_obj_style.c **** 
 665:Lib/lvgl/src/core/lv_obj_style.c ****         obj = lv_obj_get_parent(obj);
 666:Lib/lvgl/src/core/lv_obj_style.c ****     }
 667:Lib/lvgl/src/core/lv_obj_style.c **** 
 668:Lib/lvgl/src/core/lv_obj_style.c ****     if(opa_final <= LV_OPA_MIN) return LV_OPA_TRANSP;
 669:Lib/lvgl/src/core/lv_obj_style.c ****     if(opa_final >= LV_OPA_MAX) return LV_OPA_COVER;
 670:Lib/lvgl/src/core/lv_obj_style.c ****     return opa_final;
 671:Lib/lvgl/src/core/lv_obj_style.c **** }
 672:Lib/lvgl/src/core/lv_obj_style.c **** 
 673:Lib/lvgl/src/core/lv_obj_style.c **** /**********************
 674:Lib/lvgl/src/core/lv_obj_style.c ****  *   STATIC FUNCTIONS
 675:Lib/lvgl/src/core/lv_obj_style.c ****  **********************/
 676:Lib/lvgl/src/core/lv_obj_style.c **** 
 677:Lib/lvgl/src/core/lv_obj_style.c **** /**
 678:Lib/lvgl/src/core/lv_obj_style.c ****  * Get the local style of an object for a given part and for a given state.
 679:Lib/lvgl/src/core/lv_obj_style.c ****  * If the local style for the part-state pair doesn't exist allocate and return it.
 680:Lib/lvgl/src/core/lv_obj_style.c ****  * @param obj pointer to an object
 681:Lib/lvgl/src/core/lv_obj_style.c ****  * @param selector OR-ed value of parts and state for which the style should be get
 682:Lib/lvgl/src/core/lv_obj_style.c ****  * @return pointer to the local style
 683:Lib/lvgl/src/core/lv_obj_style.c ****  */
 684:Lib/lvgl/src/core/lv_obj_style.c **** static lv_style_t * get_local_style(lv_obj_t * obj, lv_style_selector_t selector)
 685:Lib/lvgl/src/core/lv_obj_style.c **** {
 686:Lib/lvgl/src/core/lv_obj_style.c ****     uint32_t i;
 687:Lib/lvgl/src/core/lv_obj_style.c ****     for(i = 0; i < obj->style_cnt; i++) {
 688:Lib/lvgl/src/core/lv_obj_style.c ****         if(obj->styles[i].is_local &&
 689:Lib/lvgl/src/core/lv_obj_style.c ****            obj->styles[i].selector == selector) {
 690:Lib/lvgl/src/core/lv_obj_style.c ****             return (lv_style_t *)obj->styles[i].style;
 691:Lib/lvgl/src/core/lv_obj_style.c ****         }
 692:Lib/lvgl/src/core/lv_obj_style.c ****     }
 693:Lib/lvgl/src/core/lv_obj_style.c **** 
 694:Lib/lvgl/src/core/lv_obj_style.c ****     obj->style_cnt++;
 695:Lib/lvgl/src/core/lv_obj_style.c ****     LV_ASSERT(obj->style_cnt != 0);
 696:Lib/lvgl/src/core/lv_obj_style.c ****     obj->styles = lv_realloc(obj->styles, obj->style_cnt * sizeof(_lv_obj_style_t));
 697:Lib/lvgl/src/core/lv_obj_style.c ****     LV_ASSERT_MALLOC(obj->styles);
 698:Lib/lvgl/src/core/lv_obj_style.c **** 
 699:Lib/lvgl/src/core/lv_obj_style.c ****     for(i = obj->style_cnt - 1; i > 0 ; i--) {
 700:Lib/lvgl/src/core/lv_obj_style.c ****         /*Copy only normal styles (not local and transition).
 701:Lib/lvgl/src/core/lv_obj_style.c ****          *The new local style will be added as the last local style*/
 702:Lib/lvgl/src/core/lv_obj_style.c ****         if(obj->styles[i - 1].is_local || obj->styles[i - 1].is_trans) break;
 703:Lib/lvgl/src/core/lv_obj_style.c ****         obj->styles[i] = obj->styles[i - 1];
 704:Lib/lvgl/src/core/lv_obj_style.c ****     }
 705:Lib/lvgl/src/core/lv_obj_style.c **** 
 706:Lib/lvgl/src/core/lv_obj_style.c ****     lv_memzero(&obj->styles[i], sizeof(_lv_obj_style_t));
 707:Lib/lvgl/src/core/lv_obj_style.c ****     obj->styles[i].style = lv_malloc(sizeof(lv_style_t));
 708:Lib/lvgl/src/core/lv_obj_style.c ****     lv_style_init((lv_style_t *)obj->styles[i].style);
 709:Lib/lvgl/src/core/lv_obj_style.c **** 
 710:Lib/lvgl/src/core/lv_obj_style.c ****     obj->styles[i].is_local = 1;
ARM GAS  C:\Users\Alex\AppData\Local\Temp\ccdKwz1H.s 			page 39


 711:Lib/lvgl/src/core/lv_obj_style.c ****     obj->styles[i].selector = selector;
 712:Lib/lvgl/src/core/lv_obj_style.c ****     return (lv_style_t *)obj->styles[i].style;
 713:Lib/lvgl/src/core/lv_obj_style.c **** }
 714:Lib/lvgl/src/core/lv_obj_style.c **** 
 715:Lib/lvgl/src/core/lv_obj_style.c **** /**
 716:Lib/lvgl/src/core/lv_obj_style.c ****  * Get the transition style of an object for a given part and for a given state.
 717:Lib/lvgl/src/core/lv_obj_style.c ****  * If the transition style for the part-state pair doesn't exist allocate and return it.
 718:Lib/lvgl/src/core/lv_obj_style.c ****  * @param obj   pointer to an object
 719:Lib/lvgl/src/core/lv_obj_style.c ****  * @param selector OR-ed value of parts and state for which the style should be get
 720:Lib/lvgl/src/core/lv_obj_style.c ****  * @return pointer to the transition style
 721:Lib/lvgl/src/core/lv_obj_style.c ****  */
 722:Lib/lvgl/src/core/lv_obj_style.c **** static _lv_obj_style_t * get_trans_style(lv_obj_t * obj,  lv_style_selector_t selector)
 723:Lib/lvgl/src/core/lv_obj_style.c **** {
 724:Lib/lvgl/src/core/lv_obj_style.c ****     uint32_t i;
 725:Lib/lvgl/src/core/lv_obj_style.c ****     for(i = 0; i < obj->style_cnt; i++) {
 726:Lib/lvgl/src/core/lv_obj_style.c ****         if(obj->styles[i].is_trans && obj->styles[i].selector == selector) break;
 727:Lib/lvgl/src/core/lv_obj_style.c ****     }
 728:Lib/lvgl/src/core/lv_obj_style.c **** 
 729:Lib/lvgl/src/core/lv_obj_style.c ****     /*Already have a transition style for it*/
 730:Lib/lvgl/src/core/lv_obj_style.c ****     if(i != obj->style_cnt) return &obj->styles[i];
 731:Lib/lvgl/src/core/lv_obj_style.c **** 
 732:Lib/lvgl/src/core/lv_obj_style.c ****     obj->style_cnt++;
 733:Lib/lvgl/src/core/lv_obj_style.c ****     LV_ASSERT(obj->style_cnt != 0);
 734:Lib/lvgl/src/core/lv_obj_style.c ****     obj->styles = lv_realloc(obj->styles, obj->style_cnt * sizeof(_lv_obj_style_t));
 735:Lib/lvgl/src/core/lv_obj_style.c **** 
 736:Lib/lvgl/src/core/lv_obj_style.c ****     for(i = obj->style_cnt - 1; i > 0 ; i--) {
 737:Lib/lvgl/src/core/lv_obj_style.c ****         obj->styles[i] = obj->styles[i - 1];
 738:Lib/lvgl/src/core/lv_obj_style.c ****     }
 739:Lib/lvgl/src/core/lv_obj_style.c **** 
 740:Lib/lvgl/src/core/lv_obj_style.c ****     lv_memzero(&obj->styles[0], sizeof(_lv_obj_style_t));
 741:Lib/lvgl/src/core/lv_obj_style.c ****     obj->styles[0].style = lv_malloc(sizeof(lv_style_t));
 742:Lib/lvgl/src/core/lv_obj_style.c ****     lv_style_init((lv_style_t *)obj->styles[0].style);
 743:Lib/lvgl/src/core/lv_obj_style.c **** 
 744:Lib/lvgl/src/core/lv_obj_style.c ****     obj->styles[0].is_trans = 1;
 745:Lib/lvgl/src/core/lv_obj_style.c ****     obj->styles[0].selector = selector;
 746:Lib/lvgl/src/core/lv_obj_style.c ****     return &obj->styles[0];
 747:Lib/lvgl/src/core/lv_obj_style.c **** }
 748:Lib/lvgl/src/core/lv_obj_style.c **** 
 749:Lib/lvgl/src/core/lv_obj_style.c **** static lv_style_res_t get_prop_core(const lv_obj_t * obj, lv_style_selector_t selector, lv_style_pr
 750:Lib/lvgl/src/core/lv_obj_style.c ****                                     lv_style_value_t * v)
 751:Lib/lvgl/src/core/lv_obj_style.c **** {
 575              		.loc 1 751 1 is_stmt 1 view -0
 576              		.cfi_startproc
 577              		@ args = 0, pretend = 0, frame = 8
 578              		@ frame_needed = 0, uses_anonymous_args = 0
 579              		.loc 1 751 1 is_stmt 0 view .LVU124
 580 0000 2DE9F04F 		push	{r4, r5, r6, r7, r8, r9, r10, fp, lr}
 581              	.LCFI8:
 582              		.cfi_def_cfa_offset 36
 583              		.cfi_offset 4, -36
 584              		.cfi_offset 5, -32
 585              		.cfi_offset 6, -28
 586              		.cfi_offset 7, -24
 587              		.cfi_offset 8, -20
 588              		.cfi_offset 9, -16
 589              		.cfi_offset 10, -12
 590              		.cfi_offset 11, -8
ARM GAS  C:\Users\Alex\AppData\Local\Temp\ccdKwz1H.s 			page 40


 591              		.cfi_offset 14, -4
 592 0004 83B0     		sub	sp, sp, #12
 593              	.LCFI9:
 594              		.cfi_def_cfa_offset 48
 595 0006 0546     		mov	r5, r0
 596 0008 9146     		mov	r9, r2
 597 000a 0093     		str	r3, [sp]
 752:Lib/lvgl/src/core/lv_obj_style.c **** 
 753:Lib/lvgl/src/core/lv_obj_style.c ****     const uint32_t group = (uint32_t)1 << _lv_style_get_prop_group(prop);
 598              		.loc 1 753 5 is_stmt 1 view .LVU125
 599              	.LVL31:
 600              	.LBB184:
 601              	.LBI184:
 520:Lib/lvgl/src/core/../misc/lv_style.h **** 
 521:Lib/lvgl/src/core/../misc/lv_style.h **** /**
 522:Lib/lvgl/src/core/../misc/lv_style.h ****  * Checks if a style is empty (has no properties)
 523:Lib/lvgl/src/core/../misc/lv_style.h ****  * @param style pointer to a style
 524:Lib/lvgl/src/core/../misc/lv_style.h ****  * @return true if the style is empty
 525:Lib/lvgl/src/core/../misc/lv_style.h ****  */
 526:Lib/lvgl/src/core/../misc/lv_style.h **** bool lv_style_is_empty(const lv_style_t * style);
 527:Lib/lvgl/src/core/../misc/lv_style.h **** 
 528:Lib/lvgl/src/core/../misc/lv_style.h **** /**
 529:Lib/lvgl/src/core/../misc/lv_style.h ****  * Tell the group of a property. If the a property from a group is set in a style the (1 << group) 
 530:Lib/lvgl/src/core/../misc/lv_style.h ****  * It allows early skipping the style if the property is not exists in the style at all.
 531:Lib/lvgl/src/core/../misc/lv_style.h ****  * @param prop a style property
 532:Lib/lvgl/src/core/../misc/lv_style.h ****  * @return the group [0..30] 30 means all the custom properties with index > 120
 533:Lib/lvgl/src/core/../misc/lv_style.h ****  */
 534:Lib/lvgl/src/core/../misc/lv_style.h **** static inline uint32_t _lv_style_get_prop_group(lv_style_prop_t prop)
 602              		.loc 4 534 24 view .LVU126
 603              	.LBB185:
 535:Lib/lvgl/src/core/../misc/lv_style.h **** {
 536:Lib/lvgl/src/core/../misc/lv_style.h ****     uint32_t group = prop >> 2;
 604              		.loc 4 536 5 view .LVU127
 605              		.loc 4 536 27 is_stmt 0 view .LVU128
 606 000c 9308     		lsrs	r3, r2, #2
 607              	.LVL32:
 537:Lib/lvgl/src/core/../misc/lv_style.h ****     if(group > 30) group = 31;    /*The MSB marks all the custom properties*/
 608              		.loc 4 537 5 is_stmt 1 view .LVU129
 609              		.loc 4 537 7 is_stmt 0 view .LVU130
 610 000e 7B2A     		cmp	r2, #123
 611 0010 12D8     		bhi	.L61
 612              	.LVL33:
 613              	.L46:
 538:Lib/lvgl/src/core/../misc/lv_style.h ****     return group;
 614              		.loc 4 538 5 is_stmt 1 view .LVU131
 615              		.loc 4 538 5 is_stmt 0 view .LVU132
 616              	.LBE185:
 617              	.LBE184:
 618              		.loc 1 753 20 view .LVU133
 619 0012 0126     		movs	r6, #1
 620 0014 9E40     		lsls	r6, r6, r3
 621              	.LVL34:
 754:Lib/lvgl/src/core/lv_obj_style.c ****     const lv_part_t part = lv_obj_style_get_selector_part(selector);
 622              		.loc 1 754 5 is_stmt 1 view .LVU134
 623              	.LBB187:
 624              	.LBI187:
 625              		.file 5 "Lib/lvgl/src/core/lv_obj_style.h"
ARM GAS  C:\Users\Alex\AppData\Local\Temp\ccdKwz1H.s 			page 41


   1:Lib/lvgl/src/core/lv_obj_style.h **** /**
   2:Lib/lvgl/src/core/lv_obj_style.h ****  * @file lv_obj_style.h
   3:Lib/lvgl/src/core/lv_obj_style.h ****  *
   4:Lib/lvgl/src/core/lv_obj_style.h ****  */
   5:Lib/lvgl/src/core/lv_obj_style.h **** 
   6:Lib/lvgl/src/core/lv_obj_style.h **** #ifndef LV_OBJ_STYLE_H
   7:Lib/lvgl/src/core/lv_obj_style.h **** #define LV_OBJ_STYLE_H
   8:Lib/lvgl/src/core/lv_obj_style.h **** 
   9:Lib/lvgl/src/core/lv_obj_style.h **** #ifdef __cplusplus
  10:Lib/lvgl/src/core/lv_obj_style.h **** extern "C" {
  11:Lib/lvgl/src/core/lv_obj_style.h **** #endif
  12:Lib/lvgl/src/core/lv_obj_style.h **** 
  13:Lib/lvgl/src/core/lv_obj_style.h **** /*********************
  14:Lib/lvgl/src/core/lv_obj_style.h ****  *      INCLUDES
  15:Lib/lvgl/src/core/lv_obj_style.h ****  *********************/
  16:Lib/lvgl/src/core/lv_obj_style.h **** #include <stdint.h>
  17:Lib/lvgl/src/core/lv_obj_style.h **** #include <stdbool.h>
  18:Lib/lvgl/src/core/lv_obj_style.h **** #include "../misc/lv_bidi.h"
  19:Lib/lvgl/src/core/lv_obj_style.h **** #include "../misc/lv_style.h"
  20:Lib/lvgl/src/core/lv_obj_style.h **** 
  21:Lib/lvgl/src/core/lv_obj_style.h **** /*********************
  22:Lib/lvgl/src/core/lv_obj_style.h ****  *      DEFINES
  23:Lib/lvgl/src/core/lv_obj_style.h ****  *********************/
  24:Lib/lvgl/src/core/lv_obj_style.h **** 
  25:Lib/lvgl/src/core/lv_obj_style.h **** /**********************
  26:Lib/lvgl/src/core/lv_obj_style.h ****  *      TYPEDEFS
  27:Lib/lvgl/src/core/lv_obj_style.h ****  **********************/
  28:Lib/lvgl/src/core/lv_obj_style.h **** /*Can't include lv_obj.h because it includes this header file*/
  29:Lib/lvgl/src/core/lv_obj_style.h **** 
  30:Lib/lvgl/src/core/lv_obj_style.h **** #ifndef LV_OBJ_H
  31:Lib/lvgl/src/core/lv_obj_style.h **** /// @cond
  32:Lib/lvgl/src/core/lv_obj_style.h **** /**
  33:Lib/lvgl/src/core/lv_obj_style.h ****  *  Tells Doxygen to ignore a duplicate declaration
  34:Lib/lvgl/src/core/lv_obj_style.h ****  */
  35:Lib/lvgl/src/core/lv_obj_style.h **** typedef uint32_t lv_part_t;
  36:Lib/lvgl/src/core/lv_obj_style.h **** typedef uint16_t lv_state_t;
  37:Lib/lvgl/src/core/lv_obj_style.h **** /// @endcond
  38:Lib/lvgl/src/core/lv_obj_style.h **** 
  39:Lib/lvgl/src/core/lv_obj_style.h **** #endif
  40:Lib/lvgl/src/core/lv_obj_style.h **** 
  41:Lib/lvgl/src/core/lv_obj_style.h **** typedef enum {
  42:Lib/lvgl/src/core/lv_obj_style.h ****     _LV_STYLE_STATE_CMP_SAME,           /*The style properties in the 2 states are identical*/
  43:Lib/lvgl/src/core/lv_obj_style.h ****     _LV_STYLE_STATE_CMP_DIFF_REDRAW,    /*The differences can be shown with a simple redraw*/
  44:Lib/lvgl/src/core/lv_obj_style.h ****     _LV_STYLE_STATE_CMP_DIFF_DRAW_PAD,  /*The differences can be shown with a simple redraw*/
  45:Lib/lvgl/src/core/lv_obj_style.h ****     _LV_STYLE_STATE_CMP_DIFF_LAYOUT,    /*The differences can be shown with a simple redraw*/
  46:Lib/lvgl/src/core/lv_obj_style.h **** } _lv_style_state_cmp_t;
  47:Lib/lvgl/src/core/lv_obj_style.h **** 
  48:Lib/lvgl/src/core/lv_obj_style.h **** typedef uint32_t lv_style_selector_t;
  49:Lib/lvgl/src/core/lv_obj_style.h **** 
  50:Lib/lvgl/src/core/lv_obj_style.h **** typedef struct {
  51:Lib/lvgl/src/core/lv_obj_style.h ****     const lv_style_t * style;
  52:Lib/lvgl/src/core/lv_obj_style.h ****     uint32_t selector : 24;
  53:Lib/lvgl/src/core/lv_obj_style.h ****     uint32_t is_local : 1;
  54:Lib/lvgl/src/core/lv_obj_style.h ****     uint32_t is_trans : 1;
  55:Lib/lvgl/src/core/lv_obj_style.h **** } _lv_obj_style_t;
  56:Lib/lvgl/src/core/lv_obj_style.h **** 
  57:Lib/lvgl/src/core/lv_obj_style.h **** typedef struct {
ARM GAS  C:\Users\Alex\AppData\Local\Temp\ccdKwz1H.s 			page 42


  58:Lib/lvgl/src/core/lv_obj_style.h ****     uint16_t time;
  59:Lib/lvgl/src/core/lv_obj_style.h ****     uint16_t delay;
  60:Lib/lvgl/src/core/lv_obj_style.h ****     lv_style_selector_t selector;
  61:Lib/lvgl/src/core/lv_obj_style.h ****     lv_style_prop_t prop;
  62:Lib/lvgl/src/core/lv_obj_style.h ****     lv_anim_path_cb_t path_cb;
  63:Lib/lvgl/src/core/lv_obj_style.h ****     void * user_data;
  64:Lib/lvgl/src/core/lv_obj_style.h **** } _lv_obj_style_transition_dsc_t;
  65:Lib/lvgl/src/core/lv_obj_style.h **** 
  66:Lib/lvgl/src/core/lv_obj_style.h **** /**********************
  67:Lib/lvgl/src/core/lv_obj_style.h ****  * GLOBAL PROTOTYPES
  68:Lib/lvgl/src/core/lv_obj_style.h ****  **********************/
  69:Lib/lvgl/src/core/lv_obj_style.h **** 
  70:Lib/lvgl/src/core/lv_obj_style.h **** /**
  71:Lib/lvgl/src/core/lv_obj_style.h ****  * Initialize the object related style manager module.
  72:Lib/lvgl/src/core/lv_obj_style.h ****  * Called by LVGL in `lv_init()`
  73:Lib/lvgl/src/core/lv_obj_style.h ****  */
  74:Lib/lvgl/src/core/lv_obj_style.h **** void _lv_obj_style_init(void);
  75:Lib/lvgl/src/core/lv_obj_style.h **** 
  76:Lib/lvgl/src/core/lv_obj_style.h **** /**
  77:Lib/lvgl/src/core/lv_obj_style.h ****  * Deinitialize the object related style manager module.
  78:Lib/lvgl/src/core/lv_obj_style.h ****  * Called by LVGL in `lv_deinit()`
  79:Lib/lvgl/src/core/lv_obj_style.h ****  */
  80:Lib/lvgl/src/core/lv_obj_style.h **** void _lv_obj_style_deinit(void);
  81:Lib/lvgl/src/core/lv_obj_style.h **** 
  82:Lib/lvgl/src/core/lv_obj_style.h **** /**
  83:Lib/lvgl/src/core/lv_obj_style.h ****  * Add a style to an object.
  84:Lib/lvgl/src/core/lv_obj_style.h ****  * @param obj       pointer to an object
  85:Lib/lvgl/src/core/lv_obj_style.h ****  * @param style     pointer to a style to add
  86:Lib/lvgl/src/core/lv_obj_style.h ****  * @param selector  OR-ed value of parts and state to which the style should be added
  87:Lib/lvgl/src/core/lv_obj_style.h ****  * @example         lv_obj_add_style(btn, &style_btn, 0); //Default button style
  88:Lib/lvgl/src/core/lv_obj_style.h ****  * @example         lv_obj_add_style(btn, &btn_red, LV_STATE_PRESSED); //Overwrite only some colors
  89:Lib/lvgl/src/core/lv_obj_style.h ****  */
  90:Lib/lvgl/src/core/lv_obj_style.h **** void lv_obj_add_style(lv_obj_t * obj, const lv_style_t * style, lv_style_selector_t selector);
  91:Lib/lvgl/src/core/lv_obj_style.h **** 
  92:Lib/lvgl/src/core/lv_obj_style.h **** /**
  93:Lib/lvgl/src/core/lv_obj_style.h ****  * Replaces a style of an object, preserving the order of the style stack (local styles and transit
  94:Lib/lvgl/src/core/lv_obj_style.h ****  * @param obj           pointer to an object
  95:Lib/lvgl/src/core/lv_obj_style.h ****  * @param old_style     pointer to a style to replace.
  96:Lib/lvgl/src/core/lv_obj_style.h ****  * @param new_style     pointer to a style to replace the old style with.
  97:Lib/lvgl/src/core/lv_obj_style.h ****  * @param selector      OR-ed values of states and a part to replace only styles with matching sele
  98:Lib/lvgl/src/core/lv_obj_style.h ****  * @example lv_obj_replace_style(obj, &yellow_style, &blue_style, LV_PART_ANY | LV_STATE_ANY); //Re
  99:Lib/lvgl/src/core/lv_obj_style.h ****  * @example lv_obj_replace_style(obj, &yellow_style, &blue_style, LV_PART_MAIN | LV_STATE_PRESSED);
 100:Lib/lvgl/src/core/lv_obj_style.h ****  */
 101:Lib/lvgl/src/core/lv_obj_style.h **** bool lv_obj_replace_style(lv_obj_t * obj, const lv_style_t * old_style, const lv_style_t * new_styl
 102:Lib/lvgl/src/core/lv_obj_style.h ****                           lv_style_selector_t selector);
 103:Lib/lvgl/src/core/lv_obj_style.h **** 
 104:Lib/lvgl/src/core/lv_obj_style.h **** /**
 105:Lib/lvgl/src/core/lv_obj_style.h ****  * Remove a style from an object.
 106:Lib/lvgl/src/core/lv_obj_style.h ****  * @param obj       pointer to an object
 107:Lib/lvgl/src/core/lv_obj_style.h ****  * @param style     pointer to a style to remove. Can be NULL to check only the selector
 108:Lib/lvgl/src/core/lv_obj_style.h ****  * @param selector  OR-ed values of states and a part to remove only styles with matching selectors
 109:Lib/lvgl/src/core/lv_obj_style.h ****  * @example lv_obj_remove_style(obj, &style, LV_PART_ANY | LV_STATE_ANY); //Remove a specific style
 110:Lib/lvgl/src/core/lv_obj_style.h ****  * @example lv_obj_remove_style(obj, NULL, LV_PART_MAIN | LV_STATE_ANY); //Remove all styles from t
 111:Lib/lvgl/src/core/lv_obj_style.h ****  * @example lv_obj_remove_style(obj, NULL, LV_PART_ANY | LV_STATE_ANY); //Remove all styles
 112:Lib/lvgl/src/core/lv_obj_style.h ****  */
 113:Lib/lvgl/src/core/lv_obj_style.h **** void lv_obj_remove_style(lv_obj_t * obj, const lv_style_t * style, lv_style_selector_t selector);
 114:Lib/lvgl/src/core/lv_obj_style.h **** 
ARM GAS  C:\Users\Alex\AppData\Local\Temp\ccdKwz1H.s 			page 43


 115:Lib/lvgl/src/core/lv_obj_style.h **** /**
 116:Lib/lvgl/src/core/lv_obj_style.h ****  * Remove all styles from an object
 117:Lib/lvgl/src/core/lv_obj_style.h ****  * @param obj       pointer to an object
 118:Lib/lvgl/src/core/lv_obj_style.h ****  */
 119:Lib/lvgl/src/core/lv_obj_style.h **** void lv_obj_remove_style_all(lv_obj_t * obj);
 120:Lib/lvgl/src/core/lv_obj_style.h **** 
 121:Lib/lvgl/src/core/lv_obj_style.h **** /**
 122:Lib/lvgl/src/core/lv_obj_style.h ****  * Notify all object if a style is modified
 123:Lib/lvgl/src/core/lv_obj_style.h ****  * @param style     pointer to a style. Only the objects with this style will be notified
 124:Lib/lvgl/src/core/lv_obj_style.h ****  *                  (NULL to notify all objects)
 125:Lib/lvgl/src/core/lv_obj_style.h ****  */
 126:Lib/lvgl/src/core/lv_obj_style.h **** void lv_obj_report_style_change(lv_style_t * style);
 127:Lib/lvgl/src/core/lv_obj_style.h **** 
 128:Lib/lvgl/src/core/lv_obj_style.h **** /**
 129:Lib/lvgl/src/core/lv_obj_style.h ****  * Notify an object and its children about its style is modified.
 130:Lib/lvgl/src/core/lv_obj_style.h ****  * @param obj       pointer to an object
 131:Lib/lvgl/src/core/lv_obj_style.h ****  * @param part      the part whose style was changed. E.g. `LV_PART_ANY`, `LV_PART_MAIN`
 132:Lib/lvgl/src/core/lv_obj_style.h ****  * @param prop      `LV_STYLE_PROP_ANY` or an `LV_STYLE_...` property.
 133:Lib/lvgl/src/core/lv_obj_style.h ****  *                  It is used to optimize what needs to be refreshed.
 134:Lib/lvgl/src/core/lv_obj_style.h ****  *                  `LV_STYLE_PROP_INV` to perform only a style cache update
 135:Lib/lvgl/src/core/lv_obj_style.h ****  */
 136:Lib/lvgl/src/core/lv_obj_style.h **** void lv_obj_refresh_style(lv_obj_t * obj, lv_part_t part, lv_style_prop_t prop);
 137:Lib/lvgl/src/core/lv_obj_style.h **** 
 138:Lib/lvgl/src/core/lv_obj_style.h **** /**
 139:Lib/lvgl/src/core/lv_obj_style.h ****  * Enable or disable automatic style refreshing when a new style is added/removed to/from an object
 140:Lib/lvgl/src/core/lv_obj_style.h ****  * or any other style change happens.
 141:Lib/lvgl/src/core/lv_obj_style.h ****  * @param en        true: enable refreshing; false: disable refreshing
 142:Lib/lvgl/src/core/lv_obj_style.h ****  */
 143:Lib/lvgl/src/core/lv_obj_style.h **** void lv_obj_enable_style_refresh(bool en);
 144:Lib/lvgl/src/core/lv_obj_style.h **** 
 145:Lib/lvgl/src/core/lv_obj_style.h **** /**
 146:Lib/lvgl/src/core/lv_obj_style.h ****  * Get the value of a style property. The current state of the object will be considered.
 147:Lib/lvgl/src/core/lv_obj_style.h ****  * Inherited properties will be inherited.
 148:Lib/lvgl/src/core/lv_obj_style.h ****  * If a property is not set a default value will be returned.
 149:Lib/lvgl/src/core/lv_obj_style.h ****  * @param obj       pointer to an object
 150:Lib/lvgl/src/core/lv_obj_style.h ****  * @param part      a part from which the property should be get
 151:Lib/lvgl/src/core/lv_obj_style.h ****  * @param prop      the property to get
 152:Lib/lvgl/src/core/lv_obj_style.h ****  * @return          the value of the property.
 153:Lib/lvgl/src/core/lv_obj_style.h ****  *                  Should be read from the correct field of the `lv_style_value_t` according to th
 154:Lib/lvgl/src/core/lv_obj_style.h ****  */
 155:Lib/lvgl/src/core/lv_obj_style.h **** lv_style_value_t lv_obj_get_style_prop(const lv_obj_t * obj, lv_part_t part, lv_style_prop_t prop);
 156:Lib/lvgl/src/core/lv_obj_style.h **** 
 157:Lib/lvgl/src/core/lv_obj_style.h **** /**
 158:Lib/lvgl/src/core/lv_obj_style.h ****  * Check if an object has a specified style property for a given style selector.
 159:Lib/lvgl/src/core/lv_obj_style.h ****  * @param obj       pointer to an object
 160:Lib/lvgl/src/core/lv_obj_style.h ****  * @param selector  the style selector to be checked, defining the scope of the style to be examine
 161:Lib/lvgl/src/core/lv_obj_style.h ****  * @param prop      the property to be checked.
 162:Lib/lvgl/src/core/lv_obj_style.h ****  * @return          true if the object has the specified selector and property, false otherwise.
 163:Lib/lvgl/src/core/lv_obj_style.h ****  */
 164:Lib/lvgl/src/core/lv_obj_style.h **** bool lv_obj_has_style_prop(const lv_obj_t * obj, lv_style_selector_t selector, lv_style_prop_t prop
 165:Lib/lvgl/src/core/lv_obj_style.h **** 
 166:Lib/lvgl/src/core/lv_obj_style.h **** /**
 167:Lib/lvgl/src/core/lv_obj_style.h ****  * Set local style property on an object's part and state.
 168:Lib/lvgl/src/core/lv_obj_style.h ****  * @param obj       pointer to an object
 169:Lib/lvgl/src/core/lv_obj_style.h ****  * @param prop      the property
 170:Lib/lvgl/src/core/lv_obj_style.h ****  * @param value     value of the property. The correct element should be set according to the type 
 171:Lib/lvgl/src/core/lv_obj_style.h ****  * @param selector  OR-ed value of parts and state for which the style should be set
ARM GAS  C:\Users\Alex\AppData\Local\Temp\ccdKwz1H.s 			page 44


 172:Lib/lvgl/src/core/lv_obj_style.h ****  */
 173:Lib/lvgl/src/core/lv_obj_style.h **** void lv_obj_set_local_style_prop(lv_obj_t * obj, lv_style_prop_t prop, lv_style_value_t value,
 174:Lib/lvgl/src/core/lv_obj_style.h ****                                  lv_style_selector_t selector);
 175:Lib/lvgl/src/core/lv_obj_style.h **** 
 176:Lib/lvgl/src/core/lv_obj_style.h **** lv_style_res_t lv_obj_get_local_style_prop(lv_obj_t * obj, lv_style_prop_t prop, lv_style_value_t *
 177:Lib/lvgl/src/core/lv_obj_style.h ****                                            lv_style_selector_t selector);
 178:Lib/lvgl/src/core/lv_obj_style.h **** 
 179:Lib/lvgl/src/core/lv_obj_style.h **** /**
 180:Lib/lvgl/src/core/lv_obj_style.h ****  * Remove a local style property from a part of an object with a given state.
 181:Lib/lvgl/src/core/lv_obj_style.h ****  * @param obj       pointer to an object
 182:Lib/lvgl/src/core/lv_obj_style.h ****  * @param prop      a style property to remove.
 183:Lib/lvgl/src/core/lv_obj_style.h ****  * @param selector  OR-ed value of parts and state for which the style should be removed
 184:Lib/lvgl/src/core/lv_obj_style.h ****  * @return true     the property was found and removed; false: the property was not found
 185:Lib/lvgl/src/core/lv_obj_style.h ****  */
 186:Lib/lvgl/src/core/lv_obj_style.h **** bool lv_obj_remove_local_style_prop(lv_obj_t * obj, lv_style_prop_t prop, lv_style_selector_t selec
 187:Lib/lvgl/src/core/lv_obj_style.h **** 
 188:Lib/lvgl/src/core/lv_obj_style.h **** /**
 189:Lib/lvgl/src/core/lv_obj_style.h ****  * Used internally for color filtering
 190:Lib/lvgl/src/core/lv_obj_style.h ****  */
 191:Lib/lvgl/src/core/lv_obj_style.h **** lv_style_value_t _lv_obj_style_apply_color_filter(const lv_obj_t * obj, uint32_t part, lv_style_val
 192:Lib/lvgl/src/core/lv_obj_style.h **** 
 193:Lib/lvgl/src/core/lv_obj_style.h **** /**
 194:Lib/lvgl/src/core/lv_obj_style.h ****  * Used internally to create a style transition
 195:Lib/lvgl/src/core/lv_obj_style.h ****  * @param obj
 196:Lib/lvgl/src/core/lv_obj_style.h ****  * @param part
 197:Lib/lvgl/src/core/lv_obj_style.h ****  * @param prev_state
 198:Lib/lvgl/src/core/lv_obj_style.h ****  * @param new_state
 199:Lib/lvgl/src/core/lv_obj_style.h ****  * @param tr
 200:Lib/lvgl/src/core/lv_obj_style.h ****  */
 201:Lib/lvgl/src/core/lv_obj_style.h **** void _lv_obj_style_create_transition(lv_obj_t * obj, lv_part_t part, lv_state_t prev_state,
 202:Lib/lvgl/src/core/lv_obj_style.h ****                                      lv_state_t new_state, const _lv_obj_style_transition_dsc_t * t
 203:Lib/lvgl/src/core/lv_obj_style.h **** 
 204:Lib/lvgl/src/core/lv_obj_style.h **** /**
 205:Lib/lvgl/src/core/lv_obj_style.h ****  * Used internally to compare the appearance of an object in 2 states
 206:Lib/lvgl/src/core/lv_obj_style.h ****  * @param obj
 207:Lib/lvgl/src/core/lv_obj_style.h ****  * @param state1
 208:Lib/lvgl/src/core/lv_obj_style.h ****  * @param state2
 209:Lib/lvgl/src/core/lv_obj_style.h ****  * @return
 210:Lib/lvgl/src/core/lv_obj_style.h ****  */
 211:Lib/lvgl/src/core/lv_obj_style.h **** _lv_style_state_cmp_t _lv_obj_style_state_compare(lv_obj_t * obj, lv_state_t state1, lv_state_t sta
 212:Lib/lvgl/src/core/lv_obj_style.h **** 
 213:Lib/lvgl/src/core/lv_obj_style.h **** /**
 214:Lib/lvgl/src/core/lv_obj_style.h ****  * Fade in an an object and all its children.
 215:Lib/lvgl/src/core/lv_obj_style.h ****  * @param obj       the object to fade in
 216:Lib/lvgl/src/core/lv_obj_style.h ****  * @param time      time of fade
 217:Lib/lvgl/src/core/lv_obj_style.h ****  * @param delay     delay to start the animation
 218:Lib/lvgl/src/core/lv_obj_style.h ****  */
 219:Lib/lvgl/src/core/lv_obj_style.h **** void lv_obj_fade_in(lv_obj_t * obj, uint32_t time, uint32_t delay);
 220:Lib/lvgl/src/core/lv_obj_style.h **** 
 221:Lib/lvgl/src/core/lv_obj_style.h **** /**
 222:Lib/lvgl/src/core/lv_obj_style.h ****  * Fade out an an object and all its children.
 223:Lib/lvgl/src/core/lv_obj_style.h ****  * @param obj       the object to fade out
 224:Lib/lvgl/src/core/lv_obj_style.h ****  * @param time      time of fade
 225:Lib/lvgl/src/core/lv_obj_style.h ****  * @param delay     delay to start the animation
 226:Lib/lvgl/src/core/lv_obj_style.h ****  */
 227:Lib/lvgl/src/core/lv_obj_style.h **** void lv_obj_fade_out(lv_obj_t * obj, uint32_t time, uint32_t delay);
 228:Lib/lvgl/src/core/lv_obj_style.h **** 
ARM GAS  C:\Users\Alex\AppData\Local\Temp\ccdKwz1H.s 			page 45


 229:Lib/lvgl/src/core/lv_obj_style.h **** static inline lv_state_t lv_obj_style_get_selector_state(lv_style_selector_t selector)
 230:Lib/lvgl/src/core/lv_obj_style.h **** {
 231:Lib/lvgl/src/core/lv_obj_style.h ****     return selector & 0xFFFF;
 232:Lib/lvgl/src/core/lv_obj_style.h **** }
 233:Lib/lvgl/src/core/lv_obj_style.h **** 
 234:Lib/lvgl/src/core/lv_obj_style.h **** static inline lv_part_t lv_obj_style_get_selector_part(lv_style_selector_t selector)
 626              		.loc 5 234 25 view .LVU135
 627              	.LBB188:
 235:Lib/lvgl/src/core/lv_obj_style.h **** {
 236:Lib/lvgl/src/core/lv_obj_style.h ****     return selector & 0xFF0000;
 628              		.loc 5 236 5 view .LVU136
 629              		.loc 5 236 21 is_stmt 0 view .LVU137
 630 0016 01F47F07 		and	r7, r1, #16711680
 631              	.LVL35:
 632              		.loc 5 236 21 view .LVU138
 633              	.LBE188:
 634              	.LBE187:
 755:Lib/lvgl/src/core/lv_obj_style.c ****     const lv_state_t state = lv_obj_style_get_selector_state(selector);
 635              		.loc 1 755 5 is_stmt 1 view .LVU139
 636              	.LBB189:
 637              	.LBI189:
 229:Lib/lvgl/src/core/lv_obj_style.h **** {
 638              		.loc 5 229 26 view .LVU140
 639              	.LBB190:
 231:Lib/lvgl/src/core/lv_obj_style.h **** }
 640              		.loc 5 231 5 view .LVU141
 231:Lib/lvgl/src/core/lv_obj_style.h **** }
 641              		.loc 5 231 21 is_stmt 0 view .LVU142
 642 001a 8BB2     		uxth	r3, r1
 643 001c 0193     		str	r3, [sp, #4]
 644              	.LVL36:
 231:Lib/lvgl/src/core/lv_obj_style.h **** }
 645              		.loc 5 231 21 view .LVU143
 646              	.LBE190:
 647              	.LBE189:
 756:Lib/lvgl/src/core/lv_obj_style.c ****     const lv_state_t state_inv = ~state;
 648              		.loc 1 756 5 is_stmt 1 view .LVU144
 649              		.loc 1 756 22 is_stmt 0 view .LVU145
 650 001e 6FEA030A 		mvn	r10, r3
 651 0022 1FFA8AFA 		uxth	r10, r10
 652              	.LVL37:
 757:Lib/lvgl/src/core/lv_obj_style.c ****     const bool skip_trans = obj->skip_trans;
 653              		.loc 1 757 5 is_stmt 1 view .LVU146
 654              		.loc 1 757 32 is_stmt 0 view .LVU147
 655 0026 95F82A80 		ldrb	r8, [r5, #42]	@ zero_extendqisi2
 656 002a C8F3C008 		ubfx	r8, r8, #3, #1
 657              	.LVL38:
 758:Lib/lvgl/src/core/lv_obj_style.c ****     int32_t weight = -1;
 658              		.loc 1 758 5 is_stmt 1 view .LVU148
 759:Lib/lvgl/src/core/lv_obj_style.c ****     lv_style_res_t found;
 659              		.loc 1 759 5 view .LVU149
 760:Lib/lvgl/src/core/lv_obj_style.c ****     uint32_t i;
 660              		.loc 1 760 5 view .LVU150
 761:Lib/lvgl/src/core/lv_obj_style.c ****     for(i = 0; i < obj->style_cnt; i++) {
 661              		.loc 1 761 5 view .LVU151
 662              		.loc 1 761 11 is_stmt 0 view .LVU152
 663 002e 0024     		movs	r4, #0
ARM GAS  C:\Users\Alex\AppData\Local\Temp\ccdKwz1H.s 			page 46


 664 0030 3346     		mov	r3, r6
 665              	.LVL39:
 666              		.loc 1 761 11 view .LVU153
 667 0032 4646     		mov	r6, r8
 668              	.LVL40:
 669              		.loc 1 761 11 view .LVU154
 670 0034 9846     		mov	r8, r3
 671              		.loc 1 761 5 view .LVU155
 672 0036 02E0     		b	.L47
 673              	.LVL41:
 674              	.L61:
 675              	.LBB191:
 676              	.LBB186:
 537:Lib/lvgl/src/core/../misc/lv_style.h ****     return group;
 677              		.loc 4 537 26 view .LVU156
 678 0038 1F23     		movs	r3, #31
 679              	.LVL42:
 537:Lib/lvgl/src/core/../misc/lv_style.h ****     return group;
 680              		.loc 4 537 26 view .LVU157
 681 003a EAE7     		b	.L46
 682              	.LVL43:
 683              	.L49:
 537:Lib/lvgl/src/core/../misc/lv_style.h ****     return group;
 684              		.loc 4 537 26 view .LVU158
 685              	.LBE186:
 686              	.LBE191:
 687              		.loc 1 761 37 is_stmt 1 discriminator 2 view .LVU159
 688 003c 0134     		adds	r4, r4, #1
 689              	.LVL44:
 690              	.L47:
 691              		.loc 1 761 18 discriminator 1 view .LVU160
 692              		.loc 1 761 23 is_stmt 0 discriminator 1 view .LVU161
 693 003e 6B8D     		ldrh	r3, [r5, #42]
 694 0040 C3F30513 		ubfx	r3, r3, #4, #6
 695              		.loc 1 761 18 discriminator 1 view .LVU162
 696 0044 A342     		cmp	r3, r4
 697 0046 1AD9     		bls	.L62
 698              	.LBB192:
 762:Lib/lvgl/src/core/lv_obj_style.c ****         _lv_obj_style_t * obj_style = &obj->styles[i];
 699              		.loc 1 762 9 is_stmt 1 view .LVU163
 700              		.loc 1 762 43 is_stmt 0 view .LVU164
 701 0048 EA68     		ldr	r2, [r5, #12]
 702              		.loc 1 762 51 view .LVU165
 703 004a E000     		lsls	r0, r4, #3
 704              		.loc 1 762 27 view .LVU166
 705 004c 02EBC403 		add	r3, r2, r4, lsl #3
 706              	.LVL45:
 763:Lib/lvgl/src/core/lv_obj_style.c ****         if(obj_style->is_trans == false) break;
 707              		.loc 1 763 9 is_stmt 1 view .LVU167
 708              		.loc 1 763 32 is_stmt 0 view .LVU168
 709 0050 D979     		ldrb	r1, [r3, #7]	@ zero_extendqisi2
 710              		.loc 1 763 11 view .LVU169
 711 0052 11F0020F 		tst	r1, #2
 712 0056 3DD0     		beq	.L56
 764:Lib/lvgl/src/core/lv_obj_style.c ****         if(skip_trans) continue;
 713              		.loc 1 764 9 is_stmt 1 view .LVU170
 714              		.loc 1 764 11 is_stmt 0 view .LVU171
ARM GAS  C:\Users\Alex\AppData\Local\Temp\ccdKwz1H.s 			page 47


 715 0058 002E     		cmp	r6, #0
 716 005a EFD1     		bne	.L49
 765:Lib/lvgl/src/core/lv_obj_style.c **** 
 766:Lib/lvgl/src/core/lv_obj_style.c ****         lv_part_t part_act = lv_obj_style_get_selector_part(obj->styles[i].selector);
 717              		.loc 1 766 9 is_stmt 1 view .LVU172
 718              		.loc 1 766 75 is_stmt 0 view .LVU173
 719 005c 5B68     		ldr	r3, [r3, #4]
 720              	.LVL46:
 721              	.LBB193:
 722              	.LBI193:
 234:Lib/lvgl/src/core/lv_obj_style.h **** {
 723              		.loc 5 234 25 is_stmt 1 view .LVU174
 724              	.LBB194:
 725              		.loc 5 236 5 view .LVU175
 726              		.loc 5 236 21 is_stmt 0 view .LVU176
 727 005e 03F47F03 		and	r3, r3, #16711680
 728              	.LVL47:
 729              		.loc 5 236 21 view .LVU177
 730              	.LBE194:
 731              	.LBE193:
 767:Lib/lvgl/src/core/lv_obj_style.c **** 
 768:Lib/lvgl/src/core/lv_obj_style.c ****         if(part_act != part) continue;
 732              		.loc 1 768 9 is_stmt 1 view .LVU178
 733              		.loc 1 768 11 is_stmt 0 view .LVU179
 734 0062 BB42     		cmp	r3, r7
 735 0064 EAD1     		bne	.L49
 769:Lib/lvgl/src/core/lv_obj_style.c ****         if((obj_style->style->has_group & group) == 0) continue;
 736              		.loc 1 769 9 is_stmt 1 view .LVU180
 737              		.loc 1 769 22 is_stmt 0 view .LVU181
 738 0066 1058     		ldr	r0, [r2, r0]
 739              		.loc 1 769 29 view .LVU182
 740 0068 4368     		ldr	r3, [r0, #4]
 741              	.LVL48:
 742              		.loc 1 769 11 view .LVU183
 743 006a 13EA080F 		tst	r3, r8
 744 006e E5D0     		beq	.L49
 770:Lib/lvgl/src/core/lv_obj_style.c ****         found = lv_style_get_prop_inlined(obj_style->style, prop, v);
 745              		.loc 1 770 9 is_stmt 1 view .LVU184
 746              		.loc 1 770 17 is_stmt 0 view .LVU185
 747 0070 009A     		ldr	r2, [sp]
 748              	.LVL49:
 749              		.loc 1 770 17 view .LVU186
 750 0072 4946     		mov	r1, r9
 751 0074 FFF7FEFF 		bl	lv_style_get_prop_inlined
 752              	.LVL50:
 771:Lib/lvgl/src/core/lv_obj_style.c ****         if(found == LV_STYLE_RES_FOUND) {
 753              		.loc 1 771 9 is_stmt 1 view .LVU187
 754              		.loc 1 771 11 is_stmt 0 view .LVU188
 755 0078 0128     		cmp	r0, #1
 756 007a DFD1     		bne	.L49
 757 007c 32E0     		b	.L50
 758              	.LVL51:
 759              	.L62:
 760              		.loc 1 771 11 view .LVU189
 761              	.LBE192:
 762 007e 4646     		mov	r6, r8
 763 0080 4FF0FF3B 		mov	fp, #-1
ARM GAS  C:\Users\Alex\AppData\Local\Temp\ccdKwz1H.s 			page 48


 764 0084 00E0     		b	.L53
 765              	.LVL52:
 766              	.L52:
 772:Lib/lvgl/src/core/lv_obj_style.c ****             return LV_STYLE_RES_FOUND;
 773:Lib/lvgl/src/core/lv_obj_style.c ****         }
 774:Lib/lvgl/src/core/lv_obj_style.c ****     }
 775:Lib/lvgl/src/core/lv_obj_style.c **** 
 776:Lib/lvgl/src/core/lv_obj_style.c ****     for(; i < obj->style_cnt; i++) {
 767              		.loc 1 776 32 is_stmt 1 view .LVU190
 768 0086 0134     		adds	r4, r4, #1
 769              	.LVL53:
 770              	.L53:
 771              		.loc 1 776 13 discriminator 1 view .LVU191
 772              		.loc 1 776 18 is_stmt 0 discriminator 1 view .LVU192
 773 0088 6B8D     		ldrh	r3, [r5, #42]
 774 008a C3F30513 		ubfx	r3, r3, #4, #6
 775              		.loc 1 776 13 discriminator 1 view .LVU193
 776 008e A342     		cmp	r3, r4
 777 0090 24D9     		bls	.L63
 778              	.LBB195:
 777:Lib/lvgl/src/core/lv_obj_style.c ****         if((obj->styles[i].style->has_group & group) == 0) continue;
 779              		.loc 1 777 9 is_stmt 1 view .LVU194
 780              		.loc 1 777 16 is_stmt 0 view .LVU195
 781 0092 EB68     		ldr	r3, [r5, #12]
 782              		.loc 1 777 24 view .LVU196
 783 0094 03EBC402 		add	r2, r3, r4, lsl #3
 784              		.loc 1 777 27 view .LVU197
 785 0098 53F83400 		ldr	r0, [r3, r4, lsl #3]
 786              		.loc 1 777 33 view .LVU198
 787 009c 4368     		ldr	r3, [r0, #4]
 788              		.loc 1 777 11 view .LVU199
 789 009e 3342     		tst	r3, r6
 790 00a0 F1D0     		beq	.L52
 778:Lib/lvgl/src/core/lv_obj_style.c ****         _lv_obj_style_t * obj_style = &obj->styles[i];
 791              		.loc 1 778 9 is_stmt 1 view .LVU200
 792              	.LVL54:
 779:Lib/lvgl/src/core/lv_obj_style.c ****         lv_part_t part_act = lv_obj_style_get_selector_part(obj->styles[i].selector);
 793              		.loc 1 779 9 view .LVU201
 794              		.loc 1 779 75 is_stmt 0 view .LVU202
 795 00a2 5368     		ldr	r3, [r2, #4]
 796 00a4 C3F31702 		ubfx	r2, r3, #0, #24
 797              	.LVL55:
 798              	.LBB196:
 799              	.LBI196:
 234:Lib/lvgl/src/core/lv_obj_style.h **** {
 800              		.loc 5 234 25 is_stmt 1 view .LVU203
 801              	.LBB197:
 802              		.loc 5 236 5 view .LVU204
 803              		.loc 5 236 21 is_stmt 0 view .LVU205
 804 00a8 03F47F03 		and	r3, r3, #16711680
 805              	.LVL56:
 806              		.loc 5 236 21 view .LVU206
 807              	.LBE197:
 808              	.LBE196:
 780:Lib/lvgl/src/core/lv_obj_style.c ****         if(part_act != part) continue;
 809              		.loc 1 780 9 is_stmt 1 view .LVU207
 810              		.loc 1 780 11 is_stmt 0 view .LVU208
ARM GAS  C:\Users\Alex\AppData\Local\Temp\ccdKwz1H.s 			page 49


 811 00ac 9F42     		cmp	r7, r3
 812 00ae EAD1     		bne	.L52
 781:Lib/lvgl/src/core/lv_obj_style.c **** 
 782:Lib/lvgl/src/core/lv_obj_style.c ****         /*Be sure the style not specifies other state than the requested.
 783:Lib/lvgl/src/core/lv_obj_style.c ****          *E.g. For HOVER+PRESS object state, HOVER style only is OK, but HOVER+FOCUS style is not*/
 784:Lib/lvgl/src/core/lv_obj_style.c ****         lv_state_t state_act = lv_obj_style_get_selector_state(obj->styles[i].selector);
 813              		.loc 1 784 9 is_stmt 1 view .LVU209
 814              	.LVL57:
 815              	.LBB198:
 816              	.LBI198:
 229:Lib/lvgl/src/core/lv_obj_style.h **** {
 817              		.loc 5 229 26 view .LVU210
 818              	.LBB199:
 231:Lib/lvgl/src/core/lv_obj_style.h **** }
 819              		.loc 5 231 5 view .LVU211
 231:Lib/lvgl/src/core/lv_obj_style.h **** }
 820              		.loc 5 231 21 is_stmt 0 view .LVU212
 821 00b0 1FFA82F8 		uxth	r8, r2
 822              	.LVL58:
 231:Lib/lvgl/src/core/lv_obj_style.h **** }
 823              		.loc 5 231 21 view .LVU213
 824              	.LBE199:
 825              	.LBE198:
 785:Lib/lvgl/src/core/lv_obj_style.c ****         if((state_act & state_inv)) continue;
 826              		.loc 1 785 9 is_stmt 1 view .LVU214
 827              		.loc 1 785 11 is_stmt 0 view .LVU215
 828 00b4 12EA0A0F 		tst	r2, r10
 829 00b8 E5D1     		bne	.L52
 786:Lib/lvgl/src/core/lv_obj_style.c **** 
 787:Lib/lvgl/src/core/lv_obj_style.c ****         /*Check only better candidates*/
 788:Lib/lvgl/src/core/lv_obj_style.c ****         if(state_act <= weight) continue;
 830              		.loc 1 788 9 is_stmt 1 view .LVU216
 831              		.loc 1 788 11 is_stmt 0 view .LVU217
 832 00ba D845     		cmp	r8, fp
 833 00bc E3DD     		ble	.L52
 789:Lib/lvgl/src/core/lv_obj_style.c **** 
 790:Lib/lvgl/src/core/lv_obj_style.c ****         found = lv_style_get_prop_inlined(obj_style->style, prop, v);
 834              		.loc 1 790 9 is_stmt 1 view .LVU218
 835              		.loc 1 790 17 is_stmt 0 view .LVU219
 836 00be 009A     		ldr	r2, [sp]
 837 00c0 4946     		mov	r1, r9
 838 00c2 FFF7FEFF 		bl	lv_style_get_prop_inlined
 839              	.LVL59:
 791:Lib/lvgl/src/core/lv_obj_style.c ****         if(found == LV_STYLE_RES_FOUND) {
 840              		.loc 1 791 9 is_stmt 1 view .LVU220
 841              		.loc 1 791 11 is_stmt 0 view .LVU221
 842 00c6 0128     		cmp	r0, #1
 843 00c8 DDD1     		bne	.L52
 792:Lib/lvgl/src/core/lv_obj_style.c ****             if(state_act == state) {
 844              		.loc 1 792 13 is_stmt 1 view .LVU222
 845              		.loc 1 792 15 is_stmt 0 view .LVU223
 846 00ca 019B     		ldr	r3, [sp, #4]
 847 00cc 4345     		cmp	r3, r8
 848 00ce 09D0     		beq	.L50
 793:Lib/lvgl/src/core/lv_obj_style.c ****                 return LV_STYLE_RES_FOUND;
 794:Lib/lvgl/src/core/lv_obj_style.c ****             }
 795:Lib/lvgl/src/core/lv_obj_style.c ****             weight = state_act;
ARM GAS  C:\Users\Alex\AppData\Local\Temp\ccdKwz1H.s 			page 50


 849              		.loc 1 795 20 view .LVU224
 850 00d0 C346     		mov	fp, r8
 851              	.LVL60:
 852              		.loc 1 795 20 view .LVU225
 853 00d2 D8E7     		b	.L52
 854              	.LVL61:
 855              	.L56:
 856              		.loc 1 795 20 view .LVU226
 857              	.LBE195:
 858 00d4 4646     		mov	r6, r8
 859 00d6 4FF0FF3B 		mov	fp, #-1
 860 00da D5E7     		b	.L53
 861              	.LVL62:
 862              	.L63:
 796:Lib/lvgl/src/core/lv_obj_style.c ****         }
 797:Lib/lvgl/src/core/lv_obj_style.c ****     }
 798:Lib/lvgl/src/core/lv_obj_style.c **** 
 799:Lib/lvgl/src/core/lv_obj_style.c ****     if(weight >= 0) return LV_STYLE_RES_FOUND;
 863              		.loc 1 799 5 is_stmt 1 view .LVU227
 864              		.loc 1 799 7 is_stmt 0 view .LVU228
 865 00dc BBF1000F 		cmp	fp, #0
 866 00e0 03DB     		blt	.L57
 867              		.loc 1 799 28 view .LVU229
 868 00e2 0120     		movs	r0, #1
 869              	.LVL63:
 870              	.L50:
 800:Lib/lvgl/src/core/lv_obj_style.c ****     else return LV_STYLE_RES_NOT_FOUND;
 801:Lib/lvgl/src/core/lv_obj_style.c **** }
 871              		.loc 1 801 1 view .LVU230
 872 00e4 03B0     		add	sp, sp, #12
 873              	.LCFI10:
 874              		.cfi_remember_state
 875              		.cfi_def_cfa_offset 36
 876              	.LVL64:
 877              		.loc 1 801 1 view .LVU231
 878              		@ sp needed
 879 00e6 BDE8F08F 		pop	{r4, r5, r6, r7, r8, r9, r10, fp, pc}
 880              	.LVL65:
 881              	.L57:
 882              	.LCFI11:
 883              		.cfi_restore_state
 800:Lib/lvgl/src/core/lv_obj_style.c ****     else return LV_STYLE_RES_NOT_FOUND;
 884              		.loc 1 800 17 view .LVU232
 885 00ea 0020     		movs	r0, #0
 886 00ec FAE7     		b	.L50
 887              		.cfi_endproc
 888              	.LFE258:
 890              		.section	.text.get_selector_style_prop,"ax",%progbits
 891              		.align	1
 892              		.syntax unified
 893              		.thumb
 894              		.thumb_func
 896              	get_selector_style_prop:
 897              	.LVL66:
 898              	.LFB270:
 802:Lib/lvgl/src/core/lv_obj_style.c **** 
 803:Lib/lvgl/src/core/lv_obj_style.c **** /**
ARM GAS  C:\Users\Alex\AppData\Local\Temp\ccdKwz1H.s 			page 51


 804:Lib/lvgl/src/core/lv_obj_style.c ****  * Refresh the style of all children of an object. (Called recursively)
 805:Lib/lvgl/src/core/lv_obj_style.c ****  * @param style refresh objects only with this
 806:Lib/lvgl/src/core/lv_obj_style.c ****  * @param obj pointer to an object
 807:Lib/lvgl/src/core/lv_obj_style.c ****  */
 808:Lib/lvgl/src/core/lv_obj_style.c **** static void report_style_change_core(void * style, lv_obj_t * obj)
 809:Lib/lvgl/src/core/lv_obj_style.c **** {
 810:Lib/lvgl/src/core/lv_obj_style.c ****     uint32_t i;
 811:Lib/lvgl/src/core/lv_obj_style.c ****     for(i = 0; i < obj->style_cnt; i++) {
 812:Lib/lvgl/src/core/lv_obj_style.c ****         if(style == NULL || obj->styles[i].style == style) {
 813:Lib/lvgl/src/core/lv_obj_style.c ****             full_cache_refresh(obj, lv_obj_style_get_selector_part(obj->styles[i].selector));
 814:Lib/lvgl/src/core/lv_obj_style.c ****             lv_obj_refresh_style(obj, LV_PART_ANY, LV_STYLE_PROP_ANY);
 815:Lib/lvgl/src/core/lv_obj_style.c ****             break;
 816:Lib/lvgl/src/core/lv_obj_style.c ****         }
 817:Lib/lvgl/src/core/lv_obj_style.c ****     }
 818:Lib/lvgl/src/core/lv_obj_style.c **** 
 819:Lib/lvgl/src/core/lv_obj_style.c ****     uint32_t child_cnt = lv_obj_get_child_count(obj);
 820:Lib/lvgl/src/core/lv_obj_style.c ****     for(i = 0; i < child_cnt; i++) {
 821:Lib/lvgl/src/core/lv_obj_style.c ****         report_style_change_core(style, obj->spec_attr->children[i]);
 822:Lib/lvgl/src/core/lv_obj_style.c ****     }
 823:Lib/lvgl/src/core/lv_obj_style.c **** }
 824:Lib/lvgl/src/core/lv_obj_style.c **** 
 825:Lib/lvgl/src/core/lv_obj_style.c **** /**
 826:Lib/lvgl/src/core/lv_obj_style.c ****  * Recursively refresh the style of the children. Go deeper until a not NULL style is found
 827:Lib/lvgl/src/core/lv_obj_style.c ****  * because the NULL styles are inherited from the parent
 828:Lib/lvgl/src/core/lv_obj_style.c ****  * @param obj pointer to an object
 829:Lib/lvgl/src/core/lv_obj_style.c ****  */
 830:Lib/lvgl/src/core/lv_obj_style.c **** static void refresh_children_style(lv_obj_t * obj)
 831:Lib/lvgl/src/core/lv_obj_style.c **** {
 832:Lib/lvgl/src/core/lv_obj_style.c ****     uint32_t i;
 833:Lib/lvgl/src/core/lv_obj_style.c ****     uint32_t child_cnt = lv_obj_get_child_count(obj);
 834:Lib/lvgl/src/core/lv_obj_style.c ****     for(i = 0; i < child_cnt; i++) {
 835:Lib/lvgl/src/core/lv_obj_style.c ****         lv_obj_t * child = obj->spec_attr->children[i];
 836:Lib/lvgl/src/core/lv_obj_style.c ****         lv_obj_invalidate(child);
 837:Lib/lvgl/src/core/lv_obj_style.c ****         lv_obj_send_event(child, LV_EVENT_STYLE_CHANGED, NULL);
 838:Lib/lvgl/src/core/lv_obj_style.c ****         lv_obj_invalidate(child);
 839:Lib/lvgl/src/core/lv_obj_style.c **** 
 840:Lib/lvgl/src/core/lv_obj_style.c ****         refresh_children_style(child); /*Check children too*/
 841:Lib/lvgl/src/core/lv_obj_style.c ****     }
 842:Lib/lvgl/src/core/lv_obj_style.c **** }
 843:Lib/lvgl/src/core/lv_obj_style.c **** 
 844:Lib/lvgl/src/core/lv_obj_style.c **** /**
 845:Lib/lvgl/src/core/lv_obj_style.c ****  * Remove the transition from object's part's property.
 846:Lib/lvgl/src/core/lv_obj_style.c ****  * - Remove the transition from `_lv_obj_style_trans_ll` and free it
 847:Lib/lvgl/src/core/lv_obj_style.c ****  * - Delete pending transitions
 848:Lib/lvgl/src/core/lv_obj_style.c ****  * @param obj pointer to an object which transition(s) should be removed
 849:Lib/lvgl/src/core/lv_obj_style.c ****  * @param part a part of object or 0xFF to remove from all parts
 850:Lib/lvgl/src/core/lv_obj_style.c ****  * @param prop a property or 0xFF to remove all properties
 851:Lib/lvgl/src/core/lv_obj_style.c ****  * @param tr_limit delete transitions only "older" than this. `NULL` if not used
 852:Lib/lvgl/src/core/lv_obj_style.c ****  */
 853:Lib/lvgl/src/core/lv_obj_style.c **** static bool trans_delete(lv_obj_t * obj, lv_part_t part, lv_style_prop_t prop, trans_t * tr_limit)
 854:Lib/lvgl/src/core/lv_obj_style.c **** {
 855:Lib/lvgl/src/core/lv_obj_style.c ****     trans_t * tr;
 856:Lib/lvgl/src/core/lv_obj_style.c ****     trans_t * tr_prev;
 857:Lib/lvgl/src/core/lv_obj_style.c ****     bool removed = false;
 858:Lib/lvgl/src/core/lv_obj_style.c ****     tr = _lv_ll_get_tail(style_trans_ll_p);
 859:Lib/lvgl/src/core/lv_obj_style.c ****     while(tr != NULL) {
 860:Lib/lvgl/src/core/lv_obj_style.c ****         if(tr == tr_limit) break;
ARM GAS  C:\Users\Alex\AppData\Local\Temp\ccdKwz1H.s 			page 52


 861:Lib/lvgl/src/core/lv_obj_style.c **** 
 862:Lib/lvgl/src/core/lv_obj_style.c ****         /*'tr' might be deleted, so get the next object while 'tr' is valid*/
 863:Lib/lvgl/src/core/lv_obj_style.c ****         tr_prev = _lv_ll_get_prev(style_trans_ll_p, tr);
 864:Lib/lvgl/src/core/lv_obj_style.c **** 
 865:Lib/lvgl/src/core/lv_obj_style.c ****         if(tr->obj == obj && (part == tr->selector || part == LV_PART_ANY) && (prop == tr->prop || 
 866:Lib/lvgl/src/core/lv_obj_style.c ****             /*Remove any transitioned properties from the trans. style
 867:Lib/lvgl/src/core/lv_obj_style.c ****              *to allow changing it by normal styles*/
 868:Lib/lvgl/src/core/lv_obj_style.c ****             uint32_t i;
 869:Lib/lvgl/src/core/lv_obj_style.c ****             for(i = 0; i < obj->style_cnt; i++) {
 870:Lib/lvgl/src/core/lv_obj_style.c ****                 if(obj->styles[i].is_trans && (part == LV_PART_ANY || obj->styles[i].selector == pa
 871:Lib/lvgl/src/core/lv_obj_style.c ****                     lv_style_remove_prop((lv_style_t *)obj->styles[i].style, tr->prop);
 872:Lib/lvgl/src/core/lv_obj_style.c ****                 }
 873:Lib/lvgl/src/core/lv_obj_style.c ****             }
 874:Lib/lvgl/src/core/lv_obj_style.c **** 
 875:Lib/lvgl/src/core/lv_obj_style.c ****             /*Free the transition descriptor too*/
 876:Lib/lvgl/src/core/lv_obj_style.c ****             lv_anim_delete(tr, NULL);
 877:Lib/lvgl/src/core/lv_obj_style.c ****             _lv_ll_remove(style_trans_ll_p, tr);
 878:Lib/lvgl/src/core/lv_obj_style.c ****             lv_free(tr);
 879:Lib/lvgl/src/core/lv_obj_style.c ****             removed = true;
 880:Lib/lvgl/src/core/lv_obj_style.c **** 
 881:Lib/lvgl/src/core/lv_obj_style.c ****         }
 882:Lib/lvgl/src/core/lv_obj_style.c ****         tr = tr_prev;
 883:Lib/lvgl/src/core/lv_obj_style.c ****     }
 884:Lib/lvgl/src/core/lv_obj_style.c ****     return removed;
 885:Lib/lvgl/src/core/lv_obj_style.c **** }
 886:Lib/lvgl/src/core/lv_obj_style.c **** 
 887:Lib/lvgl/src/core/lv_obj_style.c **** static void trans_anim_cb(void * _tr, int32_t v)
 888:Lib/lvgl/src/core/lv_obj_style.c **** {
 889:Lib/lvgl/src/core/lv_obj_style.c ****     trans_t * tr = _tr;
 890:Lib/lvgl/src/core/lv_obj_style.c ****     lv_obj_t * obj = tr->obj;
 891:Lib/lvgl/src/core/lv_obj_style.c **** 
 892:Lib/lvgl/src/core/lv_obj_style.c ****     uint32_t i;
 893:Lib/lvgl/src/core/lv_obj_style.c ****     for(i = 0; i < obj->style_cnt; i++) {
 894:Lib/lvgl/src/core/lv_obj_style.c ****         if(obj->styles[i].is_trans == 0 || obj->styles[i].selector != tr->selector) continue;
 895:Lib/lvgl/src/core/lv_obj_style.c **** 
 896:Lib/lvgl/src/core/lv_obj_style.c ****         lv_style_value_t value_final = {0};
 897:Lib/lvgl/src/core/lv_obj_style.c ****         switch(tr->prop) {
 898:Lib/lvgl/src/core/lv_obj_style.c **** 
 899:Lib/lvgl/src/core/lv_obj_style.c ****             case LV_STYLE_BORDER_SIDE:
 900:Lib/lvgl/src/core/lv_obj_style.c ****             case LV_STYLE_BORDER_POST:
 901:Lib/lvgl/src/core/lv_obj_style.c ****             case LV_STYLE_BLEND_MODE:
 902:Lib/lvgl/src/core/lv_obj_style.c ****                 if(v < 255) value_final.num = tr->start_value.num;
 903:Lib/lvgl/src/core/lv_obj_style.c ****                 else value_final.num = tr->end_value.num;
 904:Lib/lvgl/src/core/lv_obj_style.c ****                 break;
 905:Lib/lvgl/src/core/lv_obj_style.c ****             case LV_STYLE_TRANSITION:
 906:Lib/lvgl/src/core/lv_obj_style.c ****             case LV_STYLE_TEXT_FONT:
 907:Lib/lvgl/src/core/lv_obj_style.c ****                 if(v < 255) value_final.ptr = tr->start_value.ptr;
 908:Lib/lvgl/src/core/lv_obj_style.c ****                 else value_final.ptr = tr->end_value.ptr;
 909:Lib/lvgl/src/core/lv_obj_style.c ****                 break;
 910:Lib/lvgl/src/core/lv_obj_style.c ****             case LV_STYLE_COLOR_FILTER_DSC:
 911:Lib/lvgl/src/core/lv_obj_style.c ****                 if(tr->start_value.ptr == NULL) value_final.ptr = tr->end_value.ptr;
 912:Lib/lvgl/src/core/lv_obj_style.c ****                 else if(tr->end_value.ptr == NULL) value_final.ptr = tr->start_value.ptr;
 913:Lib/lvgl/src/core/lv_obj_style.c ****                 else if(v < 128) value_final.ptr = tr->start_value.ptr;
 914:Lib/lvgl/src/core/lv_obj_style.c ****                 else value_final.ptr = tr->end_value.ptr;
 915:Lib/lvgl/src/core/lv_obj_style.c ****                 break;
 916:Lib/lvgl/src/core/lv_obj_style.c ****             case LV_STYLE_BG_COLOR:
 917:Lib/lvgl/src/core/lv_obj_style.c ****             case LV_STYLE_BG_GRAD_COLOR:
ARM GAS  C:\Users\Alex\AppData\Local\Temp\ccdKwz1H.s 			page 53


 918:Lib/lvgl/src/core/lv_obj_style.c ****             case LV_STYLE_BORDER_COLOR:
 919:Lib/lvgl/src/core/lv_obj_style.c ****             case LV_STYLE_TEXT_COLOR:
 920:Lib/lvgl/src/core/lv_obj_style.c ****             case LV_STYLE_SHADOW_COLOR:
 921:Lib/lvgl/src/core/lv_obj_style.c ****             case LV_STYLE_OUTLINE_COLOR:
 922:Lib/lvgl/src/core/lv_obj_style.c ****             case LV_STYLE_IMAGE_RECOLOR:
 923:Lib/lvgl/src/core/lv_obj_style.c ****                 if(v <= 0) value_final.color = tr->start_value.color;
 924:Lib/lvgl/src/core/lv_obj_style.c ****                 else if(v >= 255) value_final.color = tr->end_value.color;
 925:Lib/lvgl/src/core/lv_obj_style.c ****                 else value_final.color = lv_color_mix(tr->end_value.color, tr->start_value.color, v
 926:Lib/lvgl/src/core/lv_obj_style.c ****                 break;
 927:Lib/lvgl/src/core/lv_obj_style.c **** 
 928:Lib/lvgl/src/core/lv_obj_style.c ****             default:
 929:Lib/lvgl/src/core/lv_obj_style.c ****                 if(v == 0) value_final.num = tr->start_value.num;
 930:Lib/lvgl/src/core/lv_obj_style.c ****                 else if(v == 255) value_final.num = tr->end_value.num;
 931:Lib/lvgl/src/core/lv_obj_style.c ****                 else value_final.num = tr->start_value.num + ((int32_t)((int32_t)(tr->end_value.num
 932:Lib/lvgl/src/core/lv_obj_style.c ****                 break;
 933:Lib/lvgl/src/core/lv_obj_style.c ****         }
 934:Lib/lvgl/src/core/lv_obj_style.c **** 
 935:Lib/lvgl/src/core/lv_obj_style.c ****         lv_style_value_t old_value;
 936:Lib/lvgl/src/core/lv_obj_style.c ****         bool refr = true;
 937:Lib/lvgl/src/core/lv_obj_style.c ****         if(lv_style_get_prop(obj->styles[i].style, tr->prop, &old_value)) {
 938:Lib/lvgl/src/core/lv_obj_style.c ****             if(value_final.ptr == old_value.ptr && lv_color_eq(value_final.color, old_value.color) 
 939:Lib/lvgl/src/core/lv_obj_style.c ****                value_final.num == old_value.num) {
 940:Lib/lvgl/src/core/lv_obj_style.c ****                 refr = false;
 941:Lib/lvgl/src/core/lv_obj_style.c ****             }
 942:Lib/lvgl/src/core/lv_obj_style.c ****         }
 943:Lib/lvgl/src/core/lv_obj_style.c ****         lv_style_set_prop((lv_style_t *)obj->styles[i].style, tr->prop, value_final);
 944:Lib/lvgl/src/core/lv_obj_style.c ****         if(refr) lv_obj_refresh_style(tr->obj, tr->selector, tr->prop);
 945:Lib/lvgl/src/core/lv_obj_style.c ****         break;
 946:Lib/lvgl/src/core/lv_obj_style.c **** 
 947:Lib/lvgl/src/core/lv_obj_style.c ****     }
 948:Lib/lvgl/src/core/lv_obj_style.c **** 
 949:Lib/lvgl/src/core/lv_obj_style.c **** }
 950:Lib/lvgl/src/core/lv_obj_style.c **** 
 951:Lib/lvgl/src/core/lv_obj_style.c **** static void trans_anim_start_cb(lv_anim_t * a)
 952:Lib/lvgl/src/core/lv_obj_style.c **** {
 953:Lib/lvgl/src/core/lv_obj_style.c ****     trans_t * tr = a->var;
 954:Lib/lvgl/src/core/lv_obj_style.c **** 
 955:Lib/lvgl/src/core/lv_obj_style.c ****     lv_part_t part = lv_obj_style_get_selector_part(tr->selector);
 956:Lib/lvgl/src/core/lv_obj_style.c ****     tr->start_value = lv_obj_get_style_prop(tr->obj, part, tr->prop);
 957:Lib/lvgl/src/core/lv_obj_style.c **** 
 958:Lib/lvgl/src/core/lv_obj_style.c ****     /*Init prop to an invalid values to be sure `trans_del` won't delete this added `tr`*/
 959:Lib/lvgl/src/core/lv_obj_style.c ****     lv_style_prop_t prop_tmp = tr->prop;
 960:Lib/lvgl/src/core/lv_obj_style.c ****     tr->prop = LV_STYLE_PROP_INV;
 961:Lib/lvgl/src/core/lv_obj_style.c **** 
 962:Lib/lvgl/src/core/lv_obj_style.c ****     /*Delete the related transitions if any*/
 963:Lib/lvgl/src/core/lv_obj_style.c ****     trans_delete(tr->obj, part, prop_tmp, tr);
 964:Lib/lvgl/src/core/lv_obj_style.c **** 
 965:Lib/lvgl/src/core/lv_obj_style.c ****     tr->prop = prop_tmp;
 966:Lib/lvgl/src/core/lv_obj_style.c **** 
 967:Lib/lvgl/src/core/lv_obj_style.c ****     _lv_obj_style_t * style_trans = get_trans_style(tr->obj, tr->selector);
 968:Lib/lvgl/src/core/lv_obj_style.c ****     lv_style_set_prop((lv_style_t *)style_trans->style, tr->prop,
 969:Lib/lvgl/src/core/lv_obj_style.c ****                       tr->start_value);  /*Be sure `trans_style` has a valid value*/
 970:Lib/lvgl/src/core/lv_obj_style.c **** 
 971:Lib/lvgl/src/core/lv_obj_style.c **** }
 972:Lib/lvgl/src/core/lv_obj_style.c **** 
 973:Lib/lvgl/src/core/lv_obj_style.c **** static void trans_anim_completed_cb(lv_anim_t * a)
 974:Lib/lvgl/src/core/lv_obj_style.c **** {
ARM GAS  C:\Users\Alex\AppData\Local\Temp\ccdKwz1H.s 			page 54


 975:Lib/lvgl/src/core/lv_obj_style.c ****     trans_t * tr = a->var;
 976:Lib/lvgl/src/core/lv_obj_style.c ****     lv_obj_t * obj = tr->obj;
 977:Lib/lvgl/src/core/lv_obj_style.c ****     lv_style_prop_t prop = tr->prop;
 978:Lib/lvgl/src/core/lv_obj_style.c **** 
 979:Lib/lvgl/src/core/lv_obj_style.c ****     /*Remove the transitioned property from trans. style
 980:Lib/lvgl/src/core/lv_obj_style.c ****      *if there no more transitions for this property
 981:Lib/lvgl/src/core/lv_obj_style.c ****      *It allows changing it by normal styles*/
 982:Lib/lvgl/src/core/lv_obj_style.c ****     bool running = false;
 983:Lib/lvgl/src/core/lv_obj_style.c ****     trans_t * tr_i;
 984:Lib/lvgl/src/core/lv_obj_style.c ****     _LV_LL_READ(style_trans_ll_p, tr_i) {
 985:Lib/lvgl/src/core/lv_obj_style.c ****         if(tr_i != tr && tr_i->obj == tr->obj && tr_i->selector == tr->selector && tr_i->prop == tr
 986:Lib/lvgl/src/core/lv_obj_style.c ****             running = true;
 987:Lib/lvgl/src/core/lv_obj_style.c ****             break;
 988:Lib/lvgl/src/core/lv_obj_style.c ****         }
 989:Lib/lvgl/src/core/lv_obj_style.c ****     }
 990:Lib/lvgl/src/core/lv_obj_style.c **** 
 991:Lib/lvgl/src/core/lv_obj_style.c ****     if(!running) {
 992:Lib/lvgl/src/core/lv_obj_style.c ****         uint32_t i;
 993:Lib/lvgl/src/core/lv_obj_style.c ****         for(i = 0; i < obj->style_cnt; i++) {
 994:Lib/lvgl/src/core/lv_obj_style.c ****             if(obj->styles[i].is_trans && obj->styles[i].selector == tr->selector) {
 995:Lib/lvgl/src/core/lv_obj_style.c ****                 _lv_ll_remove(style_trans_ll_p, tr);
 996:Lib/lvgl/src/core/lv_obj_style.c ****                 lv_free(tr);
 997:Lib/lvgl/src/core/lv_obj_style.c **** 
 998:Lib/lvgl/src/core/lv_obj_style.c ****                 _lv_obj_style_t * obj_style = &obj->styles[i];
 999:Lib/lvgl/src/core/lv_obj_style.c ****                 lv_style_remove_prop((lv_style_t *)obj_style->style, prop);
1000:Lib/lvgl/src/core/lv_obj_style.c **** 
1001:Lib/lvgl/src/core/lv_obj_style.c ****                 if(lv_style_is_empty(obj->styles[i].style)) {
1002:Lib/lvgl/src/core/lv_obj_style.c ****                     lv_obj_remove_style(obj, (lv_style_t *)obj_style->style, obj_style->selector);
1003:Lib/lvgl/src/core/lv_obj_style.c **** 
1004:Lib/lvgl/src/core/lv_obj_style.c ****                 }
1005:Lib/lvgl/src/core/lv_obj_style.c ****                 break;
1006:Lib/lvgl/src/core/lv_obj_style.c ****             }
1007:Lib/lvgl/src/core/lv_obj_style.c ****         }
1008:Lib/lvgl/src/core/lv_obj_style.c ****     }
1009:Lib/lvgl/src/core/lv_obj_style.c **** }
1010:Lib/lvgl/src/core/lv_obj_style.c **** 
1011:Lib/lvgl/src/core/lv_obj_style.c **** static lv_layer_type_t calculate_layer_type(lv_obj_t * obj)
1012:Lib/lvgl/src/core/lv_obj_style.c **** {
1013:Lib/lvgl/src/core/lv_obj_style.c ****     if(lv_obj_get_style_transform_rotation(obj, 0) != 0) return LV_LAYER_TYPE_TRANSFORM;
1014:Lib/lvgl/src/core/lv_obj_style.c ****     if(lv_obj_get_style_transform_scale_x(obj, 0) != 256) return LV_LAYER_TYPE_TRANSFORM;
1015:Lib/lvgl/src/core/lv_obj_style.c ****     if(lv_obj_get_style_transform_scale_y(obj, 0) != 256) return LV_LAYER_TYPE_TRANSFORM;
1016:Lib/lvgl/src/core/lv_obj_style.c ****     if(lv_obj_get_style_transform_skew_x(obj, 0) != 0) return LV_LAYER_TYPE_TRANSFORM;
1017:Lib/lvgl/src/core/lv_obj_style.c ****     if(lv_obj_get_style_transform_skew_y(obj, 0) != 0) return LV_LAYER_TYPE_TRANSFORM;
1018:Lib/lvgl/src/core/lv_obj_style.c ****     if(lv_obj_get_style_opa_layered(obj, 0) != LV_OPA_COVER) return LV_LAYER_TYPE_SIMPLE;
1019:Lib/lvgl/src/core/lv_obj_style.c ****     if(lv_obj_get_style_blend_mode(obj, 0) != LV_BLEND_MODE_NORMAL) return LV_LAYER_TYPE_SIMPLE;
1020:Lib/lvgl/src/core/lv_obj_style.c ****     return LV_LAYER_TYPE_NONE;
1021:Lib/lvgl/src/core/lv_obj_style.c **** }
1022:Lib/lvgl/src/core/lv_obj_style.c **** 
1023:Lib/lvgl/src/core/lv_obj_style.c **** static void full_cache_refresh(lv_obj_t * obj, lv_part_t part)
1024:Lib/lvgl/src/core/lv_obj_style.c **** {
1025:Lib/lvgl/src/core/lv_obj_style.c **** #if LV_OBJ_STYLE_CACHE
1026:Lib/lvgl/src/core/lv_obj_style.c ****     uint32_t i;
1027:Lib/lvgl/src/core/lv_obj_style.c ****     if(part == LV_PART_MAIN || part == LV_PART_ANY) {
1028:Lib/lvgl/src/core/lv_obj_style.c ****         obj->style_main_prop_is_set = 0;
1029:Lib/lvgl/src/core/lv_obj_style.c ****         for(i = 0; i < obj->style_cnt; i++) {
1030:Lib/lvgl/src/core/lv_obj_style.c ****             if(lv_obj_style_get_selector_part(obj->styles[i].selector) != LV_PART_MAIN) continue;
1031:Lib/lvgl/src/core/lv_obj_style.c ****             lv_style_t * style = (lv_style_t *)obj->styles[i].style;
ARM GAS  C:\Users\Alex\AppData\Local\Temp\ccdKwz1H.s 			page 55


1032:Lib/lvgl/src/core/lv_obj_style.c ****             uint32_t j;
1033:Lib/lvgl/src/core/lv_obj_style.c ****             if(lv_style_is_const(style)) {
1034:Lib/lvgl/src/core/lv_obj_style.c ****                 lv_style_const_prop_t * props = style->values_and_props;
1035:Lib/lvgl/src/core/lv_obj_style.c ****                 for(j = 0; props[j].prop_ptr; j++) {
1036:Lib/lvgl/src/core/lv_obj_style.c ****                     obj->style_main_prop_is_set |= STYLE_PROP_SHIFTED(*props[j].prop_ptr);
1037:Lib/lvgl/src/core/lv_obj_style.c ****                 }
1038:Lib/lvgl/src/core/lv_obj_style.c ****             }
1039:Lib/lvgl/src/core/lv_obj_style.c ****             else {
1040:Lib/lvgl/src/core/lv_obj_style.c ****                 lv_style_prop_t * props = (lv_style_prop_t *)style->values_and_props + style->prop_
1041:Lib/lvgl/src/core/lv_obj_style.c ****                 for(j = 0; j < style->prop_cnt; j++) {
1042:Lib/lvgl/src/core/lv_obj_style.c ****                     obj->style_main_prop_is_set |= STYLE_PROP_SHIFTED(props[j]);
1043:Lib/lvgl/src/core/lv_obj_style.c ****                 }
1044:Lib/lvgl/src/core/lv_obj_style.c ****             }
1045:Lib/lvgl/src/core/lv_obj_style.c ****         }
1046:Lib/lvgl/src/core/lv_obj_style.c ****     }
1047:Lib/lvgl/src/core/lv_obj_style.c ****     if(part != LV_PART_MAIN || part == LV_PART_ANY) {
1048:Lib/lvgl/src/core/lv_obj_style.c ****         obj->style_other_prop_is_set = 0;
1049:Lib/lvgl/src/core/lv_obj_style.c ****         for(i = 0; i < obj->style_cnt; i++) {
1050:Lib/lvgl/src/core/lv_obj_style.c ****             if(lv_obj_style_get_selector_part(obj->styles[i].selector) == LV_PART_MAIN) continue;
1051:Lib/lvgl/src/core/lv_obj_style.c ****             lv_style_t * style = (lv_style_t *)obj->styles[i].style;
1052:Lib/lvgl/src/core/lv_obj_style.c ****             uint32_t j;
1053:Lib/lvgl/src/core/lv_obj_style.c ****             if(lv_style_is_const(style)) {
1054:Lib/lvgl/src/core/lv_obj_style.c ****                 lv_style_const_prop_t * props = style->values_and_props;
1055:Lib/lvgl/src/core/lv_obj_style.c ****                 for(j = 0; props[j].prop_ptr; j++) {
1056:Lib/lvgl/src/core/lv_obj_style.c ****                     obj->style_other_prop_is_set |= STYLE_PROP_SHIFTED(*props[j].prop_ptr);
1057:Lib/lvgl/src/core/lv_obj_style.c ****                 }
1058:Lib/lvgl/src/core/lv_obj_style.c ****             }
1059:Lib/lvgl/src/core/lv_obj_style.c ****             else {
1060:Lib/lvgl/src/core/lv_obj_style.c ****                 lv_style_prop_t * props = (lv_style_prop_t *)style->values_and_props + style->prop_
1061:Lib/lvgl/src/core/lv_obj_style.c ****                 for(j = 0; j < style->prop_cnt; j++) {
1062:Lib/lvgl/src/core/lv_obj_style.c ****                     obj->style_other_prop_is_set |= STYLE_PROP_SHIFTED(props[j]);
1063:Lib/lvgl/src/core/lv_obj_style.c ****                 }
1064:Lib/lvgl/src/core/lv_obj_style.c ****             }
1065:Lib/lvgl/src/core/lv_obj_style.c ****         }
1066:Lib/lvgl/src/core/lv_obj_style.c ****     }
1067:Lib/lvgl/src/core/lv_obj_style.c **** #else
1068:Lib/lvgl/src/core/lv_obj_style.c ****     LV_UNUSED(obj);
1069:Lib/lvgl/src/core/lv_obj_style.c ****     LV_UNUSED(part);
1070:Lib/lvgl/src/core/lv_obj_style.c **** #endif
1071:Lib/lvgl/src/core/lv_obj_style.c **** }
1072:Lib/lvgl/src/core/lv_obj_style.c **** 
1073:Lib/lvgl/src/core/lv_obj_style.c **** static void fade_anim_cb(void * obj, int32_t v)
1074:Lib/lvgl/src/core/lv_obj_style.c **** {
1075:Lib/lvgl/src/core/lv_obj_style.c ****     lv_obj_set_style_opa(obj, v, 0);
1076:Lib/lvgl/src/core/lv_obj_style.c **** }
1077:Lib/lvgl/src/core/lv_obj_style.c **** 
1078:Lib/lvgl/src/core/lv_obj_style.c **** static void fade_in_anim_completed(lv_anim_t * a)
1079:Lib/lvgl/src/core/lv_obj_style.c **** {
1080:Lib/lvgl/src/core/lv_obj_style.c ****     lv_obj_remove_local_style_prop(a->var, LV_STYLE_OPA, 0);
1081:Lib/lvgl/src/core/lv_obj_style.c **** }
1082:Lib/lvgl/src/core/lv_obj_style.c **** 
1083:Lib/lvgl/src/core/lv_obj_style.c **** static bool style_has_flag(const lv_style_t * style, uint32_t flag)
1084:Lib/lvgl/src/core/lv_obj_style.c **** {
1085:Lib/lvgl/src/core/lv_obj_style.c ****     if(lv_style_is_const(style)) {
1086:Lib/lvgl/src/core/lv_obj_style.c ****         lv_style_const_prop_t * props = style->values_and_props;
1087:Lib/lvgl/src/core/lv_obj_style.c ****         uint32_t i;
1088:Lib/lvgl/src/core/lv_obj_style.c ****         for(i = 0; props[i].prop_ptr; i++) {
ARM GAS  C:\Users\Alex\AppData\Local\Temp\ccdKwz1H.s 			page 56


1089:Lib/lvgl/src/core/lv_obj_style.c ****             if(lv_style_prop_has_flag(*props[i].prop_ptr, flag)) {
1090:Lib/lvgl/src/core/lv_obj_style.c ****                 return true;
1091:Lib/lvgl/src/core/lv_obj_style.c ****             }
1092:Lib/lvgl/src/core/lv_obj_style.c ****         }
1093:Lib/lvgl/src/core/lv_obj_style.c ****     }
1094:Lib/lvgl/src/core/lv_obj_style.c ****     else {
1095:Lib/lvgl/src/core/lv_obj_style.c ****         lv_style_prop_t * props = (lv_style_prop_t *)style->values_and_props + style->prop_cnt * si
1096:Lib/lvgl/src/core/lv_obj_style.c ****         uint32_t i;
1097:Lib/lvgl/src/core/lv_obj_style.c ****         for(i = 0; i < style->prop_cnt; i++) {
1098:Lib/lvgl/src/core/lv_obj_style.c ****             if(lv_style_prop_has_flag(props[i], flag)) {
1099:Lib/lvgl/src/core/lv_obj_style.c ****                 return true;
1100:Lib/lvgl/src/core/lv_obj_style.c ****             }
1101:Lib/lvgl/src/core/lv_obj_style.c ****         }
1102:Lib/lvgl/src/core/lv_obj_style.c ****     }
1103:Lib/lvgl/src/core/lv_obj_style.c ****     return false;
1104:Lib/lvgl/src/core/lv_obj_style.c **** }
1105:Lib/lvgl/src/core/lv_obj_style.c **** 
1106:Lib/lvgl/src/core/lv_obj_style.c **** static lv_style_res_t get_selector_style_prop(const lv_obj_t * obj, lv_style_selector_t selector, l
1107:Lib/lvgl/src/core/lv_obj_style.c ****                                               lv_style_value_t * value_act)
1108:Lib/lvgl/src/core/lv_obj_style.c **** {
 899              		.loc 1 1108 1 is_stmt 1 view -0
 900              		.cfi_startproc
 901              		@ args = 0, pretend = 0, frame = 0
 902              		@ frame_needed = 0, uses_anonymous_args = 0
 903              		.loc 1 1108 1 is_stmt 0 view .LVU234
 904 0000 F8B5     		push	{r3, r4, r5, r6, r7, lr}
 905              	.LCFI12:
 906              		.cfi_def_cfa_offset 24
 907              		.cfi_offset 3, -24
 908              		.cfi_offset 4, -20
 909              		.cfi_offset 5, -16
 910              		.cfi_offset 6, -12
 911              		.cfi_offset 7, -8
 912              		.cfi_offset 14, -4
 913 0002 0446     		mov	r4, r0
 914 0004 1546     		mov	r5, r2
 915 0006 1F46     		mov	r7, r3
1109:Lib/lvgl/src/core/lv_obj_style.c ****     lv_style_res_t found;
 916              		.loc 1 1109 5 is_stmt 1 view .LVU235
1110:Lib/lvgl/src/core/lv_obj_style.c ****     lv_part_t part = lv_obj_style_get_selector_part(selector);
 917              		.loc 1 1110 5 view .LVU236
 918              	.LVL67:
 919              	.LBB200:
 920              	.LBI200:
 234:Lib/lvgl/src/core/lv_obj_style.h **** {
 921              		.loc 5 234 25 view .LVU237
 922              	.LBB201:
 923              		.loc 5 236 5 view .LVU238
 924              		.loc 5 236 21 is_stmt 0 view .LVU239
 925 0008 01F47F06 		and	r6, r1, #16711680
 926              	.LVL68:
 927              		.loc 5 236 21 view .LVU240
 928              	.LBE201:
 929              	.LBE200:
1111:Lib/lvgl/src/core/lv_obj_style.c **** 
1112:Lib/lvgl/src/core/lv_obj_style.c ****     /*The happy path*/
1113:Lib/lvgl/src/core/lv_obj_style.c **** #if LV_OBJ_STYLE_CACHE
ARM GAS  C:\Users\Alex\AppData\Local\Temp\ccdKwz1H.s 			page 57


1114:Lib/lvgl/src/core/lv_obj_style.c ****     const uint32_t prop_shifted = STYLE_PROP_SHIFTED(prop);
1115:Lib/lvgl/src/core/lv_obj_style.c ****     if((part == LV_PART_MAIN ? obj->style_main_prop_is_set : obj->style_other_prop_is_set) & prop_s
1116:Lib/lvgl/src/core/lv_obj_style.c **** #endif
1117:Lib/lvgl/src/core/lv_obj_style.c ****     {
1118:Lib/lvgl/src/core/lv_obj_style.c ****         found = get_prop_core(obj, selector, prop, value_act);
 930              		.loc 1 1118 9 is_stmt 1 view .LVU241
 931              		.loc 1 1118 17 is_stmt 0 view .LVU242
 932 000c FFF7FEFF 		bl	get_prop_core
 933              	.LVL69:
1119:Lib/lvgl/src/core/lv_obj_style.c ****         if(found == LV_STYLE_RES_FOUND) return LV_STYLE_RES_FOUND;
 934              		.loc 1 1119 9 is_stmt 1 view .LVU243
 935              		.loc 1 1119 11 is_stmt 0 view .LVU244
 936 0010 0128     		cmp	r0, #1
 937 0012 3CD0     		beq	.L65
1120:Lib/lvgl/src/core/lv_obj_style.c ****     }
1121:Lib/lvgl/src/core/lv_obj_style.c **** 
1122:Lib/lvgl/src/core/lv_obj_style.c ****     extern const uint8_t _lv_style_builtin_prop_flag_lookup_table[];
 938              		.loc 1 1122 5 is_stmt 1 view .LVU245
1123:Lib/lvgl/src/core/lv_obj_style.c ****     bool inheritable = false;
 939              		.loc 1 1123 5 view .LVU246
 940              	.LVL70:
1124:Lib/lvgl/src/core/lv_obj_style.c ****     if(prop < _LV_STYLE_NUM_BUILT_IN_PROPS) {
 941              		.loc 1 1124 5 view .LVU247
 942              		.loc 1 1124 7 is_stmt 0 view .LVU248
 943 0014 822D     		cmp	r5, #130
 944 0016 12D8     		bhi	.L66
1125:Lib/lvgl/src/core/lv_obj_style.c ****         inheritable = _lv_style_builtin_prop_flag_lookup_table[prop] & LV_STYLE_PROP_FLAG_INHERITAB
 945              		.loc 1 1125 9 is_stmt 1 view .LVU249
 946              		.loc 1 1125 63 is_stmt 0 view .LVU250
 947 0018 1D4B     		ldr	r3, .L85
 948 001a 5B5D     		ldrb	r3, [r3, r5]	@ zero_extendqisi2
 949              		.loc 1 1125 21 view .LVU251
 950 001c 03F00103 		and	r3, r3, #1
 951              	.LVL71:
 952              	.L67:
1126:Lib/lvgl/src/core/lv_obj_style.c ****     }
1127:Lib/lvgl/src/core/lv_obj_style.c ****     else {
1128:Lib/lvgl/src/core/lv_obj_style.c ****         if(_style_custom_prop_flag_lookup_table != NULL) {
1129:Lib/lvgl/src/core/lv_obj_style.c ****             inheritable = _style_custom_prop_flag_lookup_table[prop - _LV_STYLE_NUM_BUILT_IN_PROPS]
1130:Lib/lvgl/src/core/lv_obj_style.c ****                           LV_STYLE_PROP_FLAG_INHERITABLE;
1131:Lib/lvgl/src/core/lv_obj_style.c ****         }
1132:Lib/lvgl/src/core/lv_obj_style.c ****     }
1133:Lib/lvgl/src/core/lv_obj_style.c **** 
1134:Lib/lvgl/src/core/lv_obj_style.c ****     if(inheritable) {
 953              		.loc 1 1134 5 is_stmt 1 view .LVU252
 954              		.loc 1 1134 7 is_stmt 0 view .LVU253
 955 0020 D3B1     		cbz	r3, .L68
1135:Lib/lvgl/src/core/lv_obj_style.c ****         /*If not found, check the `MAIN` style first, if already on the MAIN part go to the parent*
1136:Lib/lvgl/src/core/lv_obj_style.c ****         if(part != LV_PART_MAIN) part = LV_PART_MAIN;
 956              		.loc 1 1136 9 is_stmt 1 view .LVU254
 957              		.loc 1 1136 11 is_stmt 0 view .LVU255
 958 0022 AEB9     		cbnz	r6, .L76
1137:Lib/lvgl/src/core/lv_obj_style.c ****         else obj = obj->parent;
 959              		.loc 1 1137 14 is_stmt 1 view .LVU256
 960              		.loc 1 1137 18 is_stmt 0 view .LVU257
 961 0024 6468     		ldr	r4, [r4, #4]
 962              	.LVL72:
ARM GAS  C:\Users\Alex\AppData\Local\Temp\ccdKwz1H.s 			page 58


 963              	.L70:
1138:Lib/lvgl/src/core/lv_obj_style.c **** 
1139:Lib/lvgl/src/core/lv_obj_style.c ****         while(obj) {
 964              		.loc 1 1139 15 is_stmt 1 view .LVU258
 965 0026 ACB1     		cbz	r4, .L80
1140:Lib/lvgl/src/core/lv_obj_style.c **** #if LV_OBJ_STYLE_CACHE
1141:Lib/lvgl/src/core/lv_obj_style.c ****             if(obj->style_main_prop_is_set & prop_shifted)
1142:Lib/lvgl/src/core/lv_obj_style.c **** #endif
1143:Lib/lvgl/src/core/lv_obj_style.c ****             {
1144:Lib/lvgl/src/core/lv_obj_style.c ****                 selector = part | obj->state;
 966              		.loc 1 1144 17 view .LVU259
 967              		.loc 1 1144 38 is_stmt 0 view .LVU260
 968 0028 218D     		ldrh	r1, [r4, #40]
 969              	.LVL73:
1145:Lib/lvgl/src/core/lv_obj_style.c ****                 found = get_prop_core(obj, selector, prop, value_act);
 970              		.loc 1 1145 17 is_stmt 1 view .LVU261
 971              		.loc 1 1145 25 is_stmt 0 view .LVU262
 972 002a 3B46     		mov	r3, r7
 973 002c 2A46     		mov	r2, r5
 974 002e 3143     		orrs	r1, r1, r6
 975              	.LVL74:
 976              		.loc 1 1145 25 view .LVU263
 977 0030 2046     		mov	r0, r4
 978              	.LVL75:
 979              		.loc 1 1145 25 view .LVU264
 980 0032 FFF7FEFF 		bl	get_prop_core
 981              	.LVL76:
1146:Lib/lvgl/src/core/lv_obj_style.c ****                 if(found == LV_STYLE_RES_FOUND) return LV_STYLE_RES_FOUND;
 982              		.loc 1 1146 17 is_stmt 1 view .LVU265
 983              		.loc 1 1146 19 is_stmt 0 view .LVU266
 984 0036 0128     		cmp	r0, #1
 985 0038 29D0     		beq	.L65
1147:Lib/lvgl/src/core/lv_obj_style.c ****             }
1148:Lib/lvgl/src/core/lv_obj_style.c ****             /*Check the parent too.*/
1149:Lib/lvgl/src/core/lv_obj_style.c ****             obj = obj->parent;
 986              		.loc 1 1149 13 is_stmt 1 view .LVU267
 987              		.loc 1 1149 17 is_stmt 0 view .LVU268
 988 003a 6468     		ldr	r4, [r4, #4]
 989              	.LVL77:
 990              		.loc 1 1149 17 view .LVU269
 991 003c F3E7     		b	.L70
 992              	.LVL78:
 993              	.L66:
1128:Lib/lvgl/src/core/lv_obj_style.c ****             inheritable = _style_custom_prop_flag_lookup_table[prop - _LV_STYLE_NUM_BUILT_IN_PROPS]
 994              		.loc 1 1128 9 is_stmt 1 view .LVU270
1128:Lib/lvgl/src/core/lv_obj_style.c ****             inheritable = _style_custom_prop_flag_lookup_table[prop - _LV_STYLE_NUM_BUILT_IN_PROPS]
 995              		.loc 1 1128 12 is_stmt 0 view .LVU271
 996 003e 154B     		ldr	r3, .L85+4
 997 0040 1B6B     		ldr	r3, [r3, #48]
1128:Lib/lvgl/src/core/lv_obj_style.c ****             inheritable = _style_custom_prop_flag_lookup_table[prop - _LV_STYLE_NUM_BUILT_IN_PROPS]
 998              		.loc 1 1128 11 view .LVU272
 999 0042 4BB1     		cbz	r3, .L68
1129:Lib/lvgl/src/core/lv_obj_style.c ****                           LV_STYLE_PROP_FLAG_INHERITABLE;
 1000              		.loc 1 1129 13 is_stmt 1 view .LVU273
1129:Lib/lvgl/src/core/lv_obj_style.c ****                           LV_STYLE_PROP_FLAG_INHERITABLE;
 1001              		.loc 1 1129 63 is_stmt 0 view .LVU274
 1002 0044 2B44     		add	r3, r3, r5
ARM GAS  C:\Users\Alex\AppData\Local\Temp\ccdKwz1H.s 			page 59


 1003 0046 13F8833C 		ldrb	r3, [r3, #-131]	@ zero_extendqisi2
1129:Lib/lvgl/src/core/lv_obj_style.c ****                           LV_STYLE_PROP_FLAG_INHERITABLE;
 1004              		.loc 1 1129 25 view .LVU275
 1005 004a 03F00103 		and	r3, r3, #1
 1006              	.LVL79:
1129:Lib/lvgl/src/core/lv_obj_style.c ****                           LV_STYLE_PROP_FLAG_INHERITABLE;
 1007              		.loc 1 1129 25 view .LVU276
 1008 004e E7E7     		b	.L67
 1009              	.L76:
1136:Lib/lvgl/src/core/lv_obj_style.c ****         else obj = obj->parent;
 1010              		.loc 1 1136 39 view .LVU277
 1011 0050 0026     		movs	r6, #0
 1012              	.LVL80:
1136:Lib/lvgl/src/core/lv_obj_style.c ****         else obj = obj->parent;
 1013              		.loc 1 1136 39 view .LVU278
 1014 0052 E8E7     		b	.L70
 1015              	.LVL81:
 1016              	.L80:
1150:Lib/lvgl/src/core/lv_obj_style.c ****         }
1151:Lib/lvgl/src/core/lv_obj_style.c ****     }
1152:Lib/lvgl/src/core/lv_obj_style.c ****     else {
1153:Lib/lvgl/src/core/lv_obj_style.c ****         /*Get the width and height from the class.
1154:Lib/lvgl/src/core/lv_obj_style.c ****                 * WIDTH and HEIGHT are not inherited so add them in the `else` to skip checking the
1155:Lib/lvgl/src/core/lv_obj_style.c ****         if(part == LV_PART_MAIN && (prop == LV_STYLE_WIDTH || prop == LV_STYLE_HEIGHT)) {
1156:Lib/lvgl/src/core/lv_obj_style.c ****             const lv_obj_class_t * cls = obj->class_p;
1157:Lib/lvgl/src/core/lv_obj_style.c ****             while(cls) {
1158:Lib/lvgl/src/core/lv_obj_style.c ****                 if(prop == LV_STYLE_WIDTH) {
1159:Lib/lvgl/src/core/lv_obj_style.c ****                     if(cls->width_def != 0)  {
1160:Lib/lvgl/src/core/lv_obj_style.c ****                         value_act->num = cls->width_def;
1161:Lib/lvgl/src/core/lv_obj_style.c ****                         return LV_STYLE_RES_FOUND;
1162:Lib/lvgl/src/core/lv_obj_style.c ****                     }
1163:Lib/lvgl/src/core/lv_obj_style.c ****                 }
1164:Lib/lvgl/src/core/lv_obj_style.c ****                 else {
1165:Lib/lvgl/src/core/lv_obj_style.c ****                     if(cls->height_def != 0) {
1166:Lib/lvgl/src/core/lv_obj_style.c ****                         value_act->num = cls->height_def;
1167:Lib/lvgl/src/core/lv_obj_style.c ****                         return LV_STYLE_RES_FOUND;
1168:Lib/lvgl/src/core/lv_obj_style.c ****                     }
1169:Lib/lvgl/src/core/lv_obj_style.c ****                 }
1170:Lib/lvgl/src/core/lv_obj_style.c ****                 cls = cls->base_class;
1171:Lib/lvgl/src/core/lv_obj_style.c ****             }
1172:Lib/lvgl/src/core/lv_obj_style.c ****         }
1173:Lib/lvgl/src/core/lv_obj_style.c ****     }
1174:Lib/lvgl/src/core/lv_obj_style.c **** 
1175:Lib/lvgl/src/core/lv_obj_style.c ****     return LV_STYLE_RES_NOT_FOUND;
 1017              		.loc 1 1175 12 view .LVU279
 1018 0054 0020     		movs	r0, #0
 1019              	.LVL82:
 1020              		.loc 1 1175 12 view .LVU280
 1021 0056 1AE0     		b	.L65
 1022              	.LVL83:
 1023              	.L68:
1155:Lib/lvgl/src/core/lv_obj_style.c ****             const lv_obj_class_t * cls = obj->class_p;
 1024              		.loc 1 1155 9 is_stmt 1 view .LVU281
1155:Lib/lvgl/src/core/lv_obj_style.c ****             const lv_obj_class_t * cls = obj->class_p;
 1025              		.loc 1 1155 11 is_stmt 0 view .LVU282
 1026 0058 C6B9     		cbnz	r6, .L77
1155:Lib/lvgl/src/core/lv_obj_style.c ****             const lv_obj_class_t * cls = obj->class_p;
ARM GAS  C:\Users\Alex\AppData\Local\Temp\ccdKwz1H.s 			page 60


 1027              		.loc 1 1155 60 discriminator 1 view .LVU283
 1028 005a 6B1E     		subs	r3, r5, #1
 1029 005c DBB2     		uxtb	r3, r3
1155:Lib/lvgl/src/core/lv_obj_style.c ****             const lv_obj_class_t * cls = obj->class_p;
 1030              		.loc 1 1155 33 discriminator 1 view .LVU284
 1031 005e 012B     		cmp	r3, #1
 1032 0060 01D9     		bls	.L81
 1033              		.loc 1 1175 12 view .LVU285
 1034 0062 0020     		movs	r0, #0
 1035              	.LVL84:
 1036              		.loc 1 1175 12 view .LVU286
 1037 0064 13E0     		b	.L65
 1038              	.LVL85:
 1039              	.L81:
 1040              	.LBB202:
1156:Lib/lvgl/src/core/lv_obj_style.c ****             while(cls) {
 1041              		.loc 1 1156 13 is_stmt 1 view .LVU287
1156:Lib/lvgl/src/core/lv_obj_style.c ****             while(cls) {
 1042              		.loc 1 1156 36 is_stmt 0 view .LVU288
 1043 0066 2368     		ldr	r3, [r4]
 1044              	.LVL86:
1157:Lib/lvgl/src/core/lv_obj_style.c ****                 if(prop == LV_STYLE_WIDTH) {
 1045              		.loc 1 1157 13 is_stmt 1 view .LVU289
1157:Lib/lvgl/src/core/lv_obj_style.c ****                 if(prop == LV_STYLE_WIDTH) {
 1046              		.loc 1 1157 18 is_stmt 0 view .LVU290
 1047 0068 02E0     		b	.L72
 1048              	.L84:
1159:Lib/lvgl/src/core/lv_obj_style.c ****                         value_act->num = cls->width_def;
 1049              		.loc 1 1159 21 is_stmt 1 view .LVU291
1159:Lib/lvgl/src/core/lv_obj_style.c ****                         value_act->num = cls->width_def;
 1050              		.loc 1 1159 27 is_stmt 0 view .LVU292
 1051 006a 9A69     		ldr	r2, [r3, #24]
1159:Lib/lvgl/src/core/lv_obj_style.c ****                         value_act->num = cls->width_def;
 1052              		.loc 1 1159 23 view .LVU293
 1053 006c 4AB9     		cbnz	r2, .L82
 1054              	.L74:
1170:Lib/lvgl/src/core/lv_obj_style.c ****             }
 1055              		.loc 1 1170 17 is_stmt 1 view .LVU294
1170:Lib/lvgl/src/core/lv_obj_style.c ****             }
 1056              		.loc 1 1170 21 is_stmt 0 view .LVU295
 1057 006e 1B68     		ldr	r3, [r3]
 1058              	.LVL87:
 1059              	.L72:
1157:Lib/lvgl/src/core/lv_obj_style.c ****                 if(prop == LV_STYLE_WIDTH) {
 1060              		.loc 1 1157 19 is_stmt 1 view .LVU296
 1061 0070 53B1     		cbz	r3, .L83
1158:Lib/lvgl/src/core/lv_obj_style.c ****                     if(cls->width_def != 0)  {
 1062              		.loc 1 1158 17 view .LVU297
1158:Lib/lvgl/src/core/lv_obj_style.c ****                     if(cls->width_def != 0)  {
 1063              		.loc 1 1158 19 is_stmt 0 view .LVU298
 1064 0072 012D     		cmp	r5, #1
 1065 0074 F9D0     		beq	.L84
1165:Lib/lvgl/src/core/lv_obj_style.c ****                         value_act->num = cls->height_def;
 1066              		.loc 1 1165 21 is_stmt 1 view .LVU299
1165:Lib/lvgl/src/core/lv_obj_style.c ****                         value_act->num = cls->height_def;
 1067              		.loc 1 1165 27 is_stmt 0 view .LVU300
 1068 0076 DA69     		ldr	r2, [r3, #28]
ARM GAS  C:\Users\Alex\AppData\Local\Temp\ccdKwz1H.s 			page 61


1165:Lib/lvgl/src/core/lv_obj_style.c ****                         value_act->num = cls->height_def;
 1069              		.loc 1 1165 23 view .LVU301
 1070 0078 002A     		cmp	r2, #0
 1071 007a F8D0     		beq	.L74
1166:Lib/lvgl/src/core/lv_obj_style.c ****                         return LV_STYLE_RES_FOUND;
 1072              		.loc 1 1166 25 is_stmt 1 view .LVU302
1166:Lib/lvgl/src/core/lv_obj_style.c ****                         return LV_STYLE_RES_FOUND;
 1073              		.loc 1 1166 40 is_stmt 0 view .LVU303
 1074 007c 3A60     		str	r2, [r7]
1167:Lib/lvgl/src/core/lv_obj_style.c ****                     }
 1075              		.loc 1 1167 25 is_stmt 1 view .LVU304
1167:Lib/lvgl/src/core/lv_obj_style.c ****                     }
 1076              		.loc 1 1167 32 is_stmt 0 view .LVU305
 1077 007e 0120     		movs	r0, #1
 1078              	.LVL88:
1167:Lib/lvgl/src/core/lv_obj_style.c ****                     }
 1079              		.loc 1 1167 32 view .LVU306
 1080 0080 05E0     		b	.L65
 1081              	.LVL89:
 1082              	.L82:
1160:Lib/lvgl/src/core/lv_obj_style.c ****                         return LV_STYLE_RES_FOUND;
 1083              		.loc 1 1160 25 is_stmt 1 view .LVU307
1160:Lib/lvgl/src/core/lv_obj_style.c ****                         return LV_STYLE_RES_FOUND;
 1084              		.loc 1 1160 40 is_stmt 0 view .LVU308
 1085 0082 3A60     		str	r2, [r7]
1161:Lib/lvgl/src/core/lv_obj_style.c ****                     }
 1086              		.loc 1 1161 25 is_stmt 1 view .LVU309
1161:Lib/lvgl/src/core/lv_obj_style.c ****                     }
 1087              		.loc 1 1161 32 is_stmt 0 view .LVU310
 1088 0084 2846     		mov	r0, r5
 1089              	.LVL90:
1161:Lib/lvgl/src/core/lv_obj_style.c ****                     }
 1090              		.loc 1 1161 32 view .LVU311
 1091 0086 02E0     		b	.L65
 1092              	.LVL91:
 1093              	.L83:
1161:Lib/lvgl/src/core/lv_obj_style.c ****                     }
 1094              		.loc 1 1161 32 view .LVU312
 1095              	.LBE202:
 1096              		.loc 1 1175 12 view .LVU313
 1097 0088 0020     		movs	r0, #0
 1098              	.LVL92:
 1099              	.LBB203:
 1100              		.loc 1 1175 12 view .LVU314
 1101 008a 00E0     		b	.L65
 1102              	.LVL93:
 1103              	.L77:
 1104              		.loc 1 1175 12 view .LVU315
 1105              	.LBE203:
 1106 008c 0020     		movs	r0, #0
 1107              	.LVL94:
 1108              	.L65:
1176:Lib/lvgl/src/core/lv_obj_style.c **** }
 1109              		.loc 1 1176 1 view .LVU316
 1110 008e F8BD     		pop	{r3, r4, r5, r6, r7, pc}
 1111              	.LVL95:
 1112              	.L86:
ARM GAS  C:\Users\Alex\AppData\Local\Temp\ccdKwz1H.s 			page 62


 1113              		.loc 1 1176 1 view .LVU317
 1114              		.align	2
 1115              	.L85:
 1116 0090 00000000 		.word	_lv_style_builtin_prop_flag_lookup_table
 1117 0094 00000000 		.word	lv_global
 1118              		.cfi_endproc
 1119              	.LFE270:
 1121              		.section	.text.trans_delete,"ax",%progbits
 1122              		.align	1
 1123              		.syntax unified
 1124              		.thumb
 1125              		.thumb_func
 1127              	trans_delete:
 1128              	.LVL96:
 1129              	.LFB261:
 854:Lib/lvgl/src/core/lv_obj_style.c ****     trans_t * tr;
 1130              		.loc 1 854 1 is_stmt 1 view -0
 1131              		.cfi_startproc
 1132              		@ args = 0, pretend = 0, frame = 0
 1133              		@ frame_needed = 0, uses_anonymous_args = 0
 854:Lib/lvgl/src/core/lv_obj_style.c ****     trans_t * tr;
 1134              		.loc 1 854 1 is_stmt 0 view .LVU319
 1135 0000 2DE9F047 		push	{r4, r5, r6, r7, r8, r9, r10, lr}
 1136              	.LCFI13:
 1137              		.cfi_def_cfa_offset 32
 1138              		.cfi_offset 4, -32
 1139              		.cfi_offset 5, -28
 1140              		.cfi_offset 6, -24
 1141              		.cfi_offset 7, -20
 1142              		.cfi_offset 8, -16
 1143              		.cfi_offset 9, -12
 1144              		.cfi_offset 10, -8
 1145              		.cfi_offset 14, -4
 1146 0004 0646     		mov	r6, r0
 1147 0006 8946     		mov	r9, r1
 1148 0008 9246     		mov	r10, r2
 1149 000a 9846     		mov	r8, r3
 855:Lib/lvgl/src/core/lv_obj_style.c ****     trans_t * tr_prev;
 1150              		.loc 1 855 5 is_stmt 1 view .LVU320
 856:Lib/lvgl/src/core/lv_obj_style.c ****     bool removed = false;
 1151              		.loc 1 856 5 view .LVU321
 857:Lib/lvgl/src/core/lv_obj_style.c ****     tr = _lv_ll_get_tail(style_trans_ll_p);
 1152              		.loc 1 857 5 view .LVU322
 1153              	.LVL97:
 858:Lib/lvgl/src/core/lv_obj_style.c ****     while(tr != NULL) {
 1154              		.loc 1 858 5 view .LVU323
 858:Lib/lvgl/src/core/lv_obj_style.c ****     while(tr != NULL) {
 1155              		.loc 1 858 10 is_stmt 0 view .LVU324
 1156 000c 2748     		ldr	r0, .L103
 1157              	.LVL98:
 858:Lib/lvgl/src/core/lv_obj_style.c ****     while(tr != NULL) {
 1158              		.loc 1 858 10 view .LVU325
 1159 000e FFF7FEFF 		bl	_lv_ll_get_tail
 1160              	.LVL99:
 858:Lib/lvgl/src/core/lv_obj_style.c ****     while(tr != NULL) {
 1161              		.loc 1 858 10 view .LVU326
 1162 0012 0446     		mov	r4, r0
ARM GAS  C:\Users\Alex\AppData\Local\Temp\ccdKwz1H.s 			page 63


 1163              	.LVL100:
 859:Lib/lvgl/src/core/lv_obj_style.c ****         if(tr == tr_limit) break;
 1164              		.loc 1 859 5 is_stmt 1 view .LVU327
 857:Lib/lvgl/src/core/lv_obj_style.c ****     tr = _lv_ll_get_tail(style_trans_ll_p);
 1165              		.loc 1 857 10 is_stmt 0 view .LVU328
 1166 0014 0027     		movs	r7, #0
 859:Lib/lvgl/src/core/lv_obj_style.c ****         if(tr == tr_limit) break;
 1167              		.loc 1 859 10 view .LVU329
 1168 0016 06E0     		b	.L88
 1169              	.LVL101:
 1170              	.L91:
 865:Lib/lvgl/src/core/lv_obj_style.c ****             /*Remove any transitioned properties from the trans. style
 1171              		.loc 1 865 90 discriminator 4 view .LVU330
 1172 0018 2379     		ldrb	r3, [r4, #4]	@ zero_extendqisi2
 865:Lib/lvgl/src/core/lv_obj_style.c ****             /*Remove any transitioned properties from the trans. style
 1173              		.loc 1 865 76 discriminator 4 view .LVU331
 1174 001a 5345     		cmp	r3, r10
 1175 001c 31D0     		beq	.L98
 865:Lib/lvgl/src/core/lv_obj_style.c ****             /*Remove any transitioned properties from the trans. style
 1176              		.loc 1 865 97 discriminator 5 view .LVU332
 1177 001e BAF1FF0F 		cmp	r10, #255
 1178 0022 30D0     		beq	.L101
 1179              	.LVL102:
 1180              	.L90:
 1181              	.LBB204:
 879:Lib/lvgl/src/core/lv_obj_style.c **** 
 1182              		.loc 1 879 21 view .LVU333
 1183 0024 2C46     		mov	r4, r5
 1184              	.LVL103:
 1185              	.L88:
 879:Lib/lvgl/src/core/lv_obj_style.c **** 
 1186              		.loc 1 879 21 view .LVU334
 1187              	.LBE204:
 859:Lib/lvgl/src/core/lv_obj_style.c ****         if(tr == tr_limit) break;
 1188              		.loc 1 859 14 is_stmt 1 view .LVU335
 1189 0026 002C     		cmp	r4, #0
 1190 0028 3CD0     		beq	.L89
 860:Lib/lvgl/src/core/lv_obj_style.c **** 
 1191              		.loc 1 860 9 view .LVU336
 860:Lib/lvgl/src/core/lv_obj_style.c **** 
 1192              		.loc 1 860 11 is_stmt 0 view .LVU337
 1193 002a 4445     		cmp	r4, r8
 1194 002c 3AD0     		beq	.L89
 863:Lib/lvgl/src/core/lv_obj_style.c **** 
 1195              		.loc 1 863 9 is_stmt 1 view .LVU338
 863:Lib/lvgl/src/core/lv_obj_style.c **** 
 1196              		.loc 1 863 19 is_stmt 0 view .LVU339
 1197 002e 2146     		mov	r1, r4
 1198 0030 1E48     		ldr	r0, .L103
 1199 0032 FFF7FEFF 		bl	_lv_ll_get_prev
 1200              	.LVL104:
 1201 0036 0546     		mov	r5, r0
 1202              	.LVL105:
 865:Lib/lvgl/src/core/lv_obj_style.c ****             /*Remove any transitioned properties from the trans. style
 1203              		.loc 1 865 9 is_stmt 1 view .LVU340
 865:Lib/lvgl/src/core/lv_obj_style.c ****             /*Remove any transitioned properties from the trans. style
 1204              		.loc 1 865 14 is_stmt 0 view .LVU341
ARM GAS  C:\Users\Alex\AppData\Local\Temp\ccdKwz1H.s 			page 64


 1205 0038 2068     		ldr	r0, [r4]
 1206              	.LVL106:
 865:Lib/lvgl/src/core/lv_obj_style.c ****             /*Remove any transitioned properties from the trans. style
 1207              		.loc 1 865 11 view .LVU342
 1208 003a B042     		cmp	r0, r6
 1209 003c F2D1     		bne	.L90
 865:Lib/lvgl/src/core/lv_obj_style.c ****             /*Remove any transitioned properties from the trans. style
 1210              		.loc 1 865 41 discriminator 1 view .LVU343
 1211 003e A368     		ldr	r3, [r4, #8]
 865:Lib/lvgl/src/core/lv_obj_style.c ****             /*Remove any transitioned properties from the trans. style
 1212              		.loc 1 865 27 discriminator 1 view .LVU344
 1213 0040 4B45     		cmp	r3, r9
 1214 0042 E9D0     		beq	.L91
 865:Lib/lvgl/src/core/lv_obj_style.c ****             /*Remove any transitioned properties from the trans. style
 1215              		.loc 1 865 52 discriminator 3 view .LVU345
 1216 0044 B9F5702F 		cmp	r9, #983040
 1217 0048 ECD1     		bne	.L90
 1218 004a E5E7     		b	.L91
 1219              	.LVL107:
 1220              	.L94:
 1221              	.LBB205:
 871:Lib/lvgl/src/core/lv_obj_style.c ****                 }
 1222              		.loc 1 871 21 is_stmt 1 view .LVU346
 1223 004c 2179     		ldrb	r1, [r4, #4]	@ zero_extendqisi2
 1224 004e 1058     		ldr	r0, [r2, r0]
 1225 0050 FFF7FEFF 		bl	lv_style_remove_prop
 1226              	.LVL108:
 1227              	.L93:
 869:Lib/lvgl/src/core/lv_obj_style.c ****                 if(obj->styles[i].is_trans && (part == LV_PART_ANY || obj->styles[i].selector == pa
 1228              		.loc 1 869 45 discriminator 2 view .LVU347
 1229 0054 0137     		adds	r7, r7, #1
 1230              	.LVL109:
 1231              	.L95:
 869:Lib/lvgl/src/core/lv_obj_style.c ****                 if(obj->styles[i].is_trans && (part == LV_PART_ANY || obj->styles[i].selector == pa
 1232              		.loc 1 869 26 discriminator 1 view .LVU348
 869:Lib/lvgl/src/core/lv_obj_style.c ****                 if(obj->styles[i].is_trans && (part == LV_PART_ANY || obj->styles[i].selector == pa
 1233              		.loc 1 869 31 is_stmt 0 discriminator 1 view .LVU349
 1234 0056 738D     		ldrh	r3, [r6, #42]
 1235 0058 C3F30513 		ubfx	r3, r3, #4, #6
 869:Lib/lvgl/src/core/lv_obj_style.c ****                 if(obj->styles[i].is_trans && (part == LV_PART_ANY || obj->styles[i].selector == pa
 1236              		.loc 1 869 26 discriminator 1 view .LVU350
 1237 005c BB42     		cmp	r3, r7
 1238 005e 14D9     		bls	.L102
 870:Lib/lvgl/src/core/lv_obj_style.c ****                     lv_style_remove_prop((lv_style_t *)obj->styles[i].style, tr->prop);
 1239              		.loc 1 870 17 is_stmt 1 view .LVU351
 870:Lib/lvgl/src/core/lv_obj_style.c ****                     lv_style_remove_prop((lv_style_t *)obj->styles[i].style, tr->prop);
 1240              		.loc 1 870 23 is_stmt 0 view .LVU352
 1241 0060 F268     		ldr	r2, [r6, #12]
 870:Lib/lvgl/src/core/lv_obj_style.c ****                     lv_style_remove_prop((lv_style_t *)obj->styles[i].style, tr->prop);
 1242              		.loc 1 870 31 view .LVU353
 1243 0062 F800     		lsls	r0, r7, #3
 1244 0064 02EBC703 		add	r3, r2, r7, lsl #3
 870:Lib/lvgl/src/core/lv_obj_style.c ****                     lv_style_remove_prop((lv_style_t *)obj->styles[i].style, tr->prop);
 1245              		.loc 1 870 20 view .LVU354
 1246 0068 D979     		ldrb	r1, [r3, #7]	@ zero_extendqisi2
 870:Lib/lvgl/src/core/lv_obj_style.c ****                     lv_style_remove_prop((lv_style_t *)obj->styles[i].style, tr->prop);
 1247              		.loc 1 870 19 view .LVU355
ARM GAS  C:\Users\Alex\AppData\Local\Temp\ccdKwz1H.s 			page 65


 1248 006a 11F0020F 		tst	r1, #2
 1249 006e F1D0     		beq	.L93
 870:Lib/lvgl/src/core/lv_obj_style.c ****                     lv_style_remove_prop((lv_style_t *)obj->styles[i].style, tr->prop);
 1250              		.loc 1 870 44 discriminator 1 view .LVU356
 1251 0070 B9F5702F 		cmp	r9, #983040
 1252 0074 EAD0     		beq	.L94
 870:Lib/lvgl/src/core/lv_obj_style.c ****                     lv_style_remove_prop((lv_style_t *)obj->styles[i].style, tr->prop);
 1253              		.loc 1 870 85 discriminator 2 view .LVU357
 1254 0076 5B68     		ldr	r3, [r3, #4]
 1255 0078 C3F31703 		ubfx	r3, r3, #0, #24
 870:Lib/lvgl/src/core/lv_obj_style.c ****                     lv_style_remove_prop((lv_style_t *)obj->styles[i].style, tr->prop);
 1256              		.loc 1 870 68 discriminator 2 view .LVU358
 1257 007c 4B45     		cmp	r3, r9
 1258 007e E9D1     		bne	.L93
 1259 0080 E4E7     		b	.L94
 1260              	.LVL110:
 1261              	.L98:
 870:Lib/lvgl/src/core/lv_obj_style.c ****                     lv_style_remove_prop((lv_style_t *)obj->styles[i].style, tr->prop);
 1262              		.loc 1 870 68 discriminator 2 view .LVU359
 1263              	.LBE205:
 1264 0082 0027     		movs	r7, #0
 1265              	.LVL111:
 870:Lib/lvgl/src/core/lv_obj_style.c ****                     lv_style_remove_prop((lv_style_t *)obj->styles[i].style, tr->prop);
 1266              		.loc 1 870 68 discriminator 2 view .LVU360
 1267 0084 E7E7     		b	.L95
 1268              	.LVL112:
 1269              	.L101:
 870:Lib/lvgl/src/core/lv_obj_style.c ****                     lv_style_remove_prop((lv_style_t *)obj->styles[i].style, tr->prop);
 1270              		.loc 1 870 68 discriminator 2 view .LVU361
 1271 0086 0027     		movs	r7, #0
 1272              	.LVL113:
 870:Lib/lvgl/src/core/lv_obj_style.c ****                     lv_style_remove_prop((lv_style_t *)obj->styles[i].style, tr->prop);
 1273              		.loc 1 870 68 discriminator 2 view .LVU362
 1274 0088 E5E7     		b	.L95
 1275              	.LVL114:
 1276              	.L102:
 1277              	.LBB206:
 876:Lib/lvgl/src/core/lv_obj_style.c ****             _lv_ll_remove(style_trans_ll_p, tr);
 1278              		.loc 1 876 13 is_stmt 1 view .LVU363
 1279 008a 0021     		movs	r1, #0
 1280 008c 2046     		mov	r0, r4
 1281 008e FFF7FEFF 		bl	lv_anim_delete
 1282              	.LVL115:
 877:Lib/lvgl/src/core/lv_obj_style.c ****             lv_free(tr);
 1283              		.loc 1 877 13 view .LVU364
 1284 0092 2146     		mov	r1, r4
 1285 0094 0548     		ldr	r0, .L103
 1286 0096 FFF7FEFF 		bl	_lv_ll_remove
 1287              	.LVL116:
 878:Lib/lvgl/src/core/lv_obj_style.c ****             removed = true;
 1288              		.loc 1 878 13 view .LVU365
 1289 009a 2046     		mov	r0, r4
 1290 009c FFF7FEFF 		bl	lv_free
 1291              	.LVL117:
 879:Lib/lvgl/src/core/lv_obj_style.c **** 
 1292              		.loc 1 879 13 view .LVU366
 879:Lib/lvgl/src/core/lv_obj_style.c **** 
ARM GAS  C:\Users\Alex\AppData\Local\Temp\ccdKwz1H.s 			page 66


 1293              		.loc 1 879 21 is_stmt 0 view .LVU367
 1294 00a0 0127     		movs	r7, #1
 1295              	.LVL118:
 879:Lib/lvgl/src/core/lv_obj_style.c **** 
 1296              		.loc 1 879 21 view .LVU368
 1297 00a2 BFE7     		b	.L90
 1298              	.LVL119:
 1299              	.L89:
 879:Lib/lvgl/src/core/lv_obj_style.c **** 
 1300              		.loc 1 879 21 view .LVU369
 1301              	.LBE206:
 884:Lib/lvgl/src/core/lv_obj_style.c **** }
 1302              		.loc 1 884 5 is_stmt 1 view .LVU370
 885:Lib/lvgl/src/core/lv_obj_style.c **** 
 1303              		.loc 1 885 1 is_stmt 0 view .LVU371
 1304 00a4 3846     		mov	r0, r7
 1305 00a6 BDE8F087 		pop	{r4, r5, r6, r7, r8, r9, r10, pc}
 1306              	.LVL120:
 1307              	.L104:
 885:Lib/lvgl/src/core/lv_obj_style.c **** 
 1308              		.loc 1 885 1 view .LVU372
 1309 00aa 00BF     		.align	2
 1310              	.L103:
 1311 00ac 18000000 		.word	lv_global+24
 1312              		.cfi_endproc
 1313              	.LFE261:
 1315              		.section	.text.style_has_flag,"ax",%progbits
 1316              		.align	1
 1317              		.syntax unified
 1318              		.thumb
 1319              		.thumb_func
 1321              	style_has_flag:
 1322              	.LVL121:
 1323              	.LFB269:
1084:Lib/lvgl/src/core/lv_obj_style.c ****     if(lv_style_is_const(style)) {
 1324              		.loc 1 1084 1 is_stmt 1 view -0
 1325              		.cfi_startproc
 1326              		@ args = 0, pretend = 0, frame = 0
 1327              		@ frame_needed = 0, uses_anonymous_args = 0
1084:Lib/lvgl/src/core/lv_obj_style.c ****     if(lv_style_is_const(style)) {
 1328              		.loc 1 1084 1 is_stmt 0 view .LVU374
 1329 0000 2DE9F843 		push	{r3, r4, r5, r6, r7, r8, r9, lr}
 1330              	.LCFI14:
 1331              		.cfi_def_cfa_offset 32
 1332              		.cfi_offset 3, -32
 1333              		.cfi_offset 4, -28
 1334              		.cfi_offset 5, -24
 1335              		.cfi_offset 6, -20
 1336              		.cfi_offset 7, -16
 1337              		.cfi_offset 8, -12
 1338              		.cfi_offset 9, -8
 1339              		.cfi_offset 14, -4
 1340 0004 0646     		mov	r6, r0
 1341 0006 0F46     		mov	r7, r1
1085:Lib/lvgl/src/core/lv_obj_style.c ****         lv_style_const_prop_t * props = style->values_and_props;
 1342              		.loc 1 1085 5 is_stmt 1 view .LVU375
 1343              	.LVL122:
ARM GAS  C:\Users\Alex\AppData\Local\Temp\ccdKwz1H.s 			page 67


 1344              	.LBB207:
 1345              	.LBI207:
 406:Lib/lvgl/src/core/../misc/lv_style.h **** {
 1346              		.loc 4 406 20 view .LVU376
 1347              	.LBB208:
 408:Lib/lvgl/src/core/../misc/lv_style.h ****     return false;
 1348              		.loc 4 408 5 view .LVU377
 408:Lib/lvgl/src/core/../misc/lv_style.h ****     return false;
 1349              		.loc 4 408 13 is_stmt 0 view .LVU378
 1350 0008 90F80880 		ldrb	r8, [r0, #8]	@ zero_extendqisi2
 408:Lib/lvgl/src/core/../misc/lv_style.h ****     return false;
 1351              		.loc 4 408 7 view .LVU379
 1352 000c B8F1FF0F 		cmp	r8, #255
 1353 0010 12D0     		beq	.L106
 1354              	.LVL123:
 408:Lib/lvgl/src/core/../misc/lv_style.h ****     return false;
 1355              		.loc 4 408 7 view .LVU380
 1356              	.LBE208:
 1357              	.LBE207:
 1358              	.LBB210:
1095:Lib/lvgl/src/core/lv_obj_style.c ****         uint32_t i;
 1359              		.loc 1 1095 9 is_stmt 1 view .LVU381
1095:Lib/lvgl/src/core/lv_obj_style.c ****         uint32_t i;
 1360              		.loc 1 1095 59 is_stmt 0 view .LVU382
 1361 0012 D0F80090 		ldr	r9, [r0]
1095:Lib/lvgl/src/core/lv_obj_style.c ****         uint32_t i;
 1362              		.loc 1 1095 96 view .LVU383
 1363 0016 4FEA8808 		lsl	r8, r8, #2
 1364              	.LVL124:
1096:Lib/lvgl/src/core/lv_obj_style.c ****         for(i = 0; i < style->prop_cnt; i++) {
 1365              		.loc 1 1096 9 is_stmt 1 view .LVU384
1097:Lib/lvgl/src/core/lv_obj_style.c ****             if(lv_style_prop_has_flag(props[i], flag)) {
 1366              		.loc 1 1097 9 view .LVU385
1097:Lib/lvgl/src/core/lv_obj_style.c ****             if(lv_style_prop_has_flag(props[i], flag)) {
 1367              		.loc 1 1097 15 is_stmt 0 view .LVU386
 1368 001a 0024     		movs	r4, #0
 1369              	.LVL125:
 1370              	.L107:
1097:Lib/lvgl/src/core/lv_obj_style.c ****             if(lv_style_prop_has_flag(props[i], flag)) {
 1371              		.loc 1 1097 22 is_stmt 1 discriminator 1 view .LVU387
1097:Lib/lvgl/src/core/lv_obj_style.c ****             if(lv_style_prop_has_flag(props[i], flag)) {
 1372              		.loc 1 1097 29 is_stmt 0 discriminator 1 view .LVU388
 1373 001c 337A     		ldrb	r3, [r6, #8]	@ zero_extendqisi2
1097:Lib/lvgl/src/core/lv_obj_style.c ****             if(lv_style_prop_has_flag(props[i], flag)) {
 1374              		.loc 1 1097 22 discriminator 1 view .LVU389
 1375 001e A342     		cmp	r3, r4
 1376 0020 19D9     		bls	.L115
1098:Lib/lvgl/src/core/lv_obj_style.c ****                 return true;
 1377              		.loc 1 1098 13 is_stmt 1 view .LVU390
1098:Lib/lvgl/src/core/lv_obj_style.c ****                 return true;
 1378              		.loc 1 1098 44 is_stmt 0 view .LVU391
 1379 0022 08EB0403 		add	r3, r8, r4
1098:Lib/lvgl/src/core/lv_obj_style.c ****                 return true;
 1380              		.loc 1 1098 16 view .LVU392
 1381 0026 FDB2     		uxtb	r5, r7
 1382              	.LVL126:
 1383              	.LBB211:
ARM GAS  C:\Users\Alex\AppData\Local\Temp\ccdKwz1H.s 			page 68


 1384              	.LBI211:
 539:Lib/lvgl/src/core/../misc/lv_style.h **** 
 540:Lib/lvgl/src/core/../misc/lv_style.h **** }
 541:Lib/lvgl/src/core/../misc/lv_style.h **** 
 542:Lib/lvgl/src/core/../misc/lv_style.h **** /**
 543:Lib/lvgl/src/core/../misc/lv_style.h ****  * Get the flags of a built-in or custom property.
 544:Lib/lvgl/src/core/../misc/lv_style.h ****  *
 545:Lib/lvgl/src/core/../misc/lv_style.h ****  * @param prop a style property
 546:Lib/lvgl/src/core/../misc/lv_style.h ****  * @return the flags of the property
 547:Lib/lvgl/src/core/../misc/lv_style.h ****  */
 548:Lib/lvgl/src/core/../misc/lv_style.h **** uint8_t _lv_style_prop_lookup_flags(lv_style_prop_t prop);
 549:Lib/lvgl/src/core/../misc/lv_style.h **** 
 550:Lib/lvgl/src/core/../misc/lv_style.h **** #include "lv_style_gen.h"
 551:Lib/lvgl/src/core/../misc/lv_style.h **** 
 552:Lib/lvgl/src/core/../misc/lv_style.h **** static inline void lv_style_set_size(lv_style_t * style, int32_t width, int32_t height)
 553:Lib/lvgl/src/core/../misc/lv_style.h **** {
 554:Lib/lvgl/src/core/../misc/lv_style.h ****     lv_style_set_width(style, width);
 555:Lib/lvgl/src/core/../misc/lv_style.h ****     lv_style_set_height(style, height);
 556:Lib/lvgl/src/core/../misc/lv_style.h **** }
 557:Lib/lvgl/src/core/../misc/lv_style.h **** 
 558:Lib/lvgl/src/core/../misc/lv_style.h **** static inline void lv_style_set_pad_all(lv_style_t * style, int32_t value)
 559:Lib/lvgl/src/core/../misc/lv_style.h **** {
 560:Lib/lvgl/src/core/../misc/lv_style.h ****     lv_style_set_pad_left(style, value);
 561:Lib/lvgl/src/core/../misc/lv_style.h ****     lv_style_set_pad_right(style, value);
 562:Lib/lvgl/src/core/../misc/lv_style.h ****     lv_style_set_pad_top(style, value);
 563:Lib/lvgl/src/core/../misc/lv_style.h ****     lv_style_set_pad_bottom(style, value);
 564:Lib/lvgl/src/core/../misc/lv_style.h **** }
 565:Lib/lvgl/src/core/../misc/lv_style.h **** 
 566:Lib/lvgl/src/core/../misc/lv_style.h **** static inline void lv_style_set_pad_hor(lv_style_t * style, int32_t value)
 567:Lib/lvgl/src/core/../misc/lv_style.h **** {
 568:Lib/lvgl/src/core/../misc/lv_style.h ****     lv_style_set_pad_left(style, value);
 569:Lib/lvgl/src/core/../misc/lv_style.h ****     lv_style_set_pad_right(style, value);
 570:Lib/lvgl/src/core/../misc/lv_style.h **** }
 571:Lib/lvgl/src/core/../misc/lv_style.h **** 
 572:Lib/lvgl/src/core/../misc/lv_style.h **** static inline void lv_style_set_pad_ver(lv_style_t * style, int32_t value)
 573:Lib/lvgl/src/core/../misc/lv_style.h **** {
 574:Lib/lvgl/src/core/../misc/lv_style.h ****     lv_style_set_pad_top(style, value);
 575:Lib/lvgl/src/core/../misc/lv_style.h ****     lv_style_set_pad_bottom(style, value);
 576:Lib/lvgl/src/core/../misc/lv_style.h **** }
 577:Lib/lvgl/src/core/../misc/lv_style.h **** 
 578:Lib/lvgl/src/core/../misc/lv_style.h **** static inline void lv_style_set_pad_gap(lv_style_t * style, int32_t value)
 579:Lib/lvgl/src/core/../misc/lv_style.h **** {
 580:Lib/lvgl/src/core/../misc/lv_style.h ****     lv_style_set_pad_row(style, value);
 581:Lib/lvgl/src/core/../misc/lv_style.h ****     lv_style_set_pad_column(style, value);
 582:Lib/lvgl/src/core/../misc/lv_style.h **** }
 583:Lib/lvgl/src/core/../misc/lv_style.h **** 
 584:Lib/lvgl/src/core/../misc/lv_style.h **** static inline void lv_style_set_transform_scale(lv_style_t * style, int32_t value)
 585:Lib/lvgl/src/core/../misc/lv_style.h **** {
 586:Lib/lvgl/src/core/../misc/lv_style.h ****     lv_style_set_transform_scale_x(style, value);
 587:Lib/lvgl/src/core/../misc/lv_style.h ****     lv_style_set_transform_scale_y(style, value);
 588:Lib/lvgl/src/core/../misc/lv_style.h **** }
 589:Lib/lvgl/src/core/../misc/lv_style.h **** 
 590:Lib/lvgl/src/core/../misc/lv_style.h **** /**
 591:Lib/lvgl/src/core/../misc/lv_style.h ****  * @brief Check if the style property has a specified behavioral flag.
 592:Lib/lvgl/src/core/../misc/lv_style.h ****  *
 593:Lib/lvgl/src/core/../misc/lv_style.h ****  * Do not pass multiple flags to this function as backwards-compatibility is not guaranteed
 594:Lib/lvgl/src/core/../misc/lv_style.h ****  * for that.
ARM GAS  C:\Users\Alex\AppData\Local\Temp\ccdKwz1H.s 			page 69


 595:Lib/lvgl/src/core/../misc/lv_style.h ****  *
 596:Lib/lvgl/src/core/../misc/lv_style.h ****  * @param prop Property ID
 597:Lib/lvgl/src/core/../misc/lv_style.h ****  * @param flag Flag
 598:Lib/lvgl/src/core/../misc/lv_style.h ****  * @return true if the flag is set for this property
 599:Lib/lvgl/src/core/../misc/lv_style.h ****  */
 600:Lib/lvgl/src/core/../misc/lv_style.h **** static inline bool lv_style_prop_has_flag(lv_style_prop_t prop, uint8_t flag)
 1385              		.loc 4 600 20 is_stmt 1 view .LVU393
 1386              	.LBB212:
 601:Lib/lvgl/src/core/../misc/lv_style.h **** {
 602:Lib/lvgl/src/core/../misc/lv_style.h ****     return _lv_style_prop_lookup_flags(prop) & flag;
 1387              		.loc 4 602 5 view .LVU394
 1388              		.loc 4 602 12 is_stmt 0 view .LVU395
 1389 0028 19F80300 		ldrb	r0, [r9, r3]	@ zero_extendqisi2
 1390 002c FFF7FEFF 		bl	_lv_style_prop_lookup_flags
 1391              	.LVL127:
 1392              		.loc 4 602 12 view .LVU396
 1393              	.LBE212:
 1394              	.LBE211:
1098:Lib/lvgl/src/core/lv_obj_style.c ****                 return true;
 1395              		.loc 1 1098 15 view .LVU397
 1396 0030 0542     		tst	r5, r0
 1397 0032 15D1     		bne	.L113
1097:Lib/lvgl/src/core/lv_obj_style.c ****             if(lv_style_prop_has_flag(props[i], flag)) {
 1398              		.loc 1 1097 42 is_stmt 1 discriminator 2 view .LVU398
 1399 0034 0134     		adds	r4, r4, #1
 1400              	.LVL128:
1097:Lib/lvgl/src/core/lv_obj_style.c ****             if(lv_style_prop_has_flag(props[i], flag)) {
 1401              		.loc 1 1097 42 is_stmt 0 discriminator 2 view .LVU399
 1402 0036 F1E7     		b	.L107
 1403              	.LVL129:
 1404              	.L106:
1097:Lib/lvgl/src/core/lv_obj_style.c ****             if(lv_style_prop_has_flag(props[i], flag)) {
 1405              		.loc 1 1097 42 discriminator 2 view .LVU400
 1406              	.LBE210:
 1407              	.LBB213:
 1408              	.LBB209:
 408:Lib/lvgl/src/core/../misc/lv_style.h ****     return false;
 1409              		.loc 4 408 32 is_stmt 1 view .LVU401
 408:Lib/lvgl/src/core/../misc/lv_style.h ****     return false;
 1410              		.loc 4 408 32 is_stmt 0 view .LVU402
 1411              	.LBE209:
 1412              	.LBE213:
 1413              	.LBB214:
1086:Lib/lvgl/src/core/lv_obj_style.c ****         uint32_t i;
 1414              		.loc 1 1086 9 is_stmt 1 view .LVU403
1086:Lib/lvgl/src/core/lv_obj_style.c ****         uint32_t i;
 1415              		.loc 1 1086 33 is_stmt 0 view .LVU404
 1416 0038 0668     		ldr	r6, [r0]
 1417              	.LVL130:
1087:Lib/lvgl/src/core/lv_obj_style.c ****         for(i = 0; props[i].prop_ptr; i++) {
 1418              		.loc 1 1087 9 is_stmt 1 view .LVU405
1088:Lib/lvgl/src/core/lv_obj_style.c ****             if(lv_style_prop_has_flag(*props[i].prop_ptr, flag)) {
 1419              		.loc 1 1088 9 view .LVU406
1088:Lib/lvgl/src/core/lv_obj_style.c ****             if(lv_style_prop_has_flag(*props[i].prop_ptr, flag)) {
 1420              		.loc 1 1088 15 is_stmt 0 view .LVU407
 1421 003a 0025     		movs	r5, #0
 1422              	.LVL131:
ARM GAS  C:\Users\Alex\AppData\Local\Temp\ccdKwz1H.s 			page 70


 1423              	.L108:
1088:Lib/lvgl/src/core/lv_obj_style.c ****             if(lv_style_prop_has_flag(*props[i].prop_ptr, flag)) {
 1424              		.loc 1 1088 20 is_stmt 1 discriminator 1 view .LVU408
1088:Lib/lvgl/src/core/lv_obj_style.c ****             if(lv_style_prop_has_flag(*props[i].prop_ptr, flag)) {
 1425              		.loc 1 1088 28 is_stmt 0 discriminator 1 view .LVU409
 1426 003c 56F83530 		ldr	r3, [r6, r5, lsl #3]
1088:Lib/lvgl/src/core/lv_obj_style.c ****             if(lv_style_prop_has_flag(*props[i].prop_ptr, flag)) {
 1427              		.loc 1 1088 20 discriminator 1 view .LVU410
 1428 0040 3BB1     		cbz	r3, .L116
1089:Lib/lvgl/src/core/lv_obj_style.c ****                 return true;
 1429              		.loc 1 1089 13 is_stmt 1 view .LVU411
1089:Lib/lvgl/src/core/lv_obj_style.c ****                 return true;
 1430              		.loc 1 1089 16 is_stmt 0 view .LVU412
 1431 0042 FCB2     		uxtb	r4, r7
 1432              	.LVL132:
 1433              	.LBB215:
 1434              	.LBI215:
 600:Lib/lvgl/src/core/../misc/lv_style.h **** {
 1435              		.loc 4 600 20 is_stmt 1 view .LVU413
 1436              	.LBB216:
 1437              		.loc 4 602 5 view .LVU414
 1438              		.loc 4 602 12 is_stmt 0 view .LVU415
 1439 0044 1878     		ldrb	r0, [r3]	@ zero_extendqisi2
 1440 0046 FFF7FEFF 		bl	_lv_style_prop_lookup_flags
 1441              	.LVL133:
 1442              		.loc 4 602 12 view .LVU416
 1443              	.LBE216:
 1444              	.LBE215:
1089:Lib/lvgl/src/core/lv_obj_style.c ****                 return true;
 1445              		.loc 1 1089 15 view .LVU417
 1446 004a 0442     		tst	r4, r0
 1447 004c 06D1     		bne	.L112
1088:Lib/lvgl/src/core/lv_obj_style.c ****             if(lv_style_prop_has_flag(*props[i].prop_ptr, flag)) {
 1448              		.loc 1 1088 40 is_stmt 1 discriminator 2 view .LVU418
 1449 004e 0135     		adds	r5, r5, #1
 1450              	.LVL134:
1088:Lib/lvgl/src/core/lv_obj_style.c ****             if(lv_style_prop_has_flag(*props[i].prop_ptr, flag)) {
 1451              		.loc 1 1088 40 is_stmt 0 discriminator 2 view .LVU419
 1452 0050 F4E7     		b	.L108
 1453              	.L116:
1088:Lib/lvgl/src/core/lv_obj_style.c ****             if(lv_style_prop_has_flag(*props[i].prop_ptr, flag)) {
 1454              		.loc 1 1088 40 discriminator 2 view .LVU420
 1455              	.LBE214:
1103:Lib/lvgl/src/core/lv_obj_style.c **** }
 1456              		.loc 1 1103 12 view .LVU421
 1457 0052 0020     		movs	r0, #0
 1458 0054 00E0     		b	.L109
 1459              	.LVL135:
 1460              	.L115:
1103:Lib/lvgl/src/core/lv_obj_style.c **** }
 1461              		.loc 1 1103 12 view .LVU422
 1462 0056 0020     		movs	r0, #0
 1463              	.LVL136:
 1464              	.L109:
1104:Lib/lvgl/src/core/lv_obj_style.c **** 
 1465              		.loc 1 1104 1 view .LVU423
 1466 0058 BDE8F883 		pop	{r3, r4, r5, r6, r7, r8, r9, pc}
ARM GAS  C:\Users\Alex\AppData\Local\Temp\ccdKwz1H.s 			page 71


 1467              	.LVL137:
 1468              	.L112:
 1469              	.LBB217:
1090:Lib/lvgl/src/core/lv_obj_style.c ****             }
 1470              		.loc 1 1090 24 view .LVU424
 1471 005c 0120     		movs	r0, #1
 1472 005e FBE7     		b	.L109
 1473              	.LVL138:
 1474              	.L113:
1090:Lib/lvgl/src/core/lv_obj_style.c ****             }
 1475              		.loc 1 1090 24 view .LVU425
 1476              	.LBE217:
 1477              	.LBB218:
1099:Lib/lvgl/src/core/lv_obj_style.c ****             }
 1478              		.loc 1 1099 24 view .LVU426
 1479 0060 0120     		movs	r0, #1
 1480 0062 F9E7     		b	.L109
 1481              	.LBE218:
 1482              		.cfi_endproc
 1483              	.LFE269:
 1485              		.section	.text.refresh_children_style,"ax",%progbits
 1486              		.align	1
 1487              		.syntax unified
 1488              		.thumb
 1489              		.thumb_func
 1491              	refresh_children_style:
 1492              	.LVL139:
 1493              	.LFB260:
 831:Lib/lvgl/src/core/lv_obj_style.c ****     uint32_t i;
 1494              		.loc 1 831 1 is_stmt 1 view -0
 1495              		.cfi_startproc
 1496              		@ args = 0, pretend = 0, frame = 0
 1497              		@ frame_needed = 0, uses_anonymous_args = 0
 831:Lib/lvgl/src/core/lv_obj_style.c ****     uint32_t i;
 1498              		.loc 1 831 1 is_stmt 0 view .LVU428
 1499 0000 F8B5     		push	{r3, r4, r5, r6, r7, lr}
 1500              	.LCFI15:
 1501              		.cfi_def_cfa_offset 24
 1502              		.cfi_offset 3, -24
 1503              		.cfi_offset 4, -20
 1504              		.cfi_offset 5, -16
 1505              		.cfi_offset 6, -12
 1506              		.cfi_offset 7, -8
 1507              		.cfi_offset 14, -4
 1508 0002 0746     		mov	r7, r0
 832:Lib/lvgl/src/core/lv_obj_style.c ****     uint32_t child_cnt = lv_obj_get_child_count(obj);
 1509              		.loc 1 832 5 is_stmt 1 view .LVU429
 833:Lib/lvgl/src/core/lv_obj_style.c ****     for(i = 0; i < child_cnt; i++) {
 1510              		.loc 1 833 5 view .LVU430
 833:Lib/lvgl/src/core/lv_obj_style.c ****     for(i = 0; i < child_cnt; i++) {
 1511              		.loc 1 833 26 is_stmt 0 view .LVU431
 1512 0004 FFF7FEFF 		bl	lv_obj_get_child_count
 1513              	.LVL140:
 833:Lib/lvgl/src/core/lv_obj_style.c ****     for(i = 0; i < child_cnt; i++) {
 1514              		.loc 1 833 26 view .LVU432
 1515 0008 0546     		mov	r5, r0
 1516              	.LVL141:
ARM GAS  C:\Users\Alex\AppData\Local\Temp\ccdKwz1H.s 			page 72


 834:Lib/lvgl/src/core/lv_obj_style.c ****         lv_obj_t * child = obj->spec_attr->children[i];
 1517              		.loc 1 834 5 is_stmt 1 view .LVU433
 834:Lib/lvgl/src/core/lv_obj_style.c ****         lv_obj_t * child = obj->spec_attr->children[i];
 1518              		.loc 1 834 11 is_stmt 0 view .LVU434
 1519 000a 0024     		movs	r4, #0
 1520              	.LVL142:
 1521              	.L118:
 834:Lib/lvgl/src/core/lv_obj_style.c ****         lv_obj_t * child = obj->spec_attr->children[i];
 1522              		.loc 1 834 18 is_stmt 1 discriminator 1 view .LVU435
 1523 000c AC42     		cmp	r4, r5
 1524 000e 13D2     		bcs	.L121
 1525              	.LBB219:
 835:Lib/lvgl/src/core/lv_obj_style.c ****         lv_obj_invalidate(child);
 1526              		.loc 1 835 9 discriminator 3 view .LVU436
 835:Lib/lvgl/src/core/lv_obj_style.c ****         lv_obj_invalidate(child);
 1527              		.loc 1 835 31 is_stmt 0 discriminator 3 view .LVU437
 1528 0010 BB68     		ldr	r3, [r7, #8]
 835:Lib/lvgl/src/core/lv_obj_style.c ****         lv_obj_invalidate(child);
 1529              		.loc 1 835 42 discriminator 3 view .LVU438
 1530 0012 1B68     		ldr	r3, [r3]
 835:Lib/lvgl/src/core/lv_obj_style.c ****         lv_obj_invalidate(child);
 1531              		.loc 1 835 20 discriminator 3 view .LVU439
 1532 0014 53F82460 		ldr	r6, [r3, r4, lsl #2]
 1533              	.LVL143:
 836:Lib/lvgl/src/core/lv_obj_style.c ****         lv_obj_send_event(child, LV_EVENT_STYLE_CHANGED, NULL);
 1534              		.loc 1 836 9 is_stmt 1 discriminator 3 view .LVU440
 1535 0018 3046     		mov	r0, r6
 1536 001a FFF7FEFF 		bl	lv_obj_invalidate
 1537              	.LVL144:
 837:Lib/lvgl/src/core/lv_obj_style.c ****         lv_obj_invalidate(child);
 1538              		.loc 1 837 9 discriminator 3 view .LVU441
 1539 001e 0022     		movs	r2, #0
 1540 0020 2C21     		movs	r1, #44
 1541 0022 3046     		mov	r0, r6
 1542 0024 FFF7FEFF 		bl	lv_obj_send_event
 1543              	.LVL145:
 838:Lib/lvgl/src/core/lv_obj_style.c **** 
 1544              		.loc 1 838 9 discriminator 3 view .LVU442
 1545 0028 3046     		mov	r0, r6
 1546 002a FFF7FEFF 		bl	lv_obj_invalidate
 1547              	.LVL146:
 840:Lib/lvgl/src/core/lv_obj_style.c ****     }
 1548              		.loc 1 840 9 discriminator 3 view .LVU443
 1549 002e 3046     		mov	r0, r6
 1550 0030 FFF7E6FF 		bl	refresh_children_style
 1551              	.LVL147:
 1552              	.LBE219:
 834:Lib/lvgl/src/core/lv_obj_style.c ****         lv_obj_t * child = obj->spec_attr->children[i];
 1553              		.loc 1 834 32 discriminator 3 view .LVU444
 1554 0034 0134     		adds	r4, r4, #1
 1555              	.LVL148:
 834:Lib/lvgl/src/core/lv_obj_style.c ****         lv_obj_t * child = obj->spec_attr->children[i];
 1556              		.loc 1 834 32 is_stmt 0 discriminator 3 view .LVU445
 1557 0036 E9E7     		b	.L118
 1558              	.LVL149:
 1559              	.L121:
 842:Lib/lvgl/src/core/lv_obj_style.c **** 
ARM GAS  C:\Users\Alex\AppData\Local\Temp\ccdKwz1H.s 			page 73


 1560              		.loc 1 842 1 view .LVU446
 1561 0038 F8BD     		pop	{r3, r4, r5, r6, r7, pc}
 842:Lib/lvgl/src/core/lv_obj_style.c **** 
 1562              		.loc 1 842 1 view .LVU447
 1563              		.cfi_endproc
 1564              	.LFE260:
 1566              		.section	.text.get_local_style,"ax",%progbits
 1567              		.align	1
 1568              		.syntax unified
 1569              		.thumb
 1570              		.thumb_func
 1572              	get_local_style:
 1573              	.LVL150:
 1574              	.LFB256:
 685:Lib/lvgl/src/core/lv_obj_style.c ****     uint32_t i;
 1575              		.loc 1 685 1 is_stmt 1 view -0
 1576              		.cfi_startproc
 1577              		@ args = 0, pretend = 0, frame = 0
 1578              		@ frame_needed = 0, uses_anonymous_args = 0
 685:Lib/lvgl/src/core/lv_obj_style.c ****     uint32_t i;
 1579              		.loc 1 685 1 is_stmt 0 view .LVU449
 1580 0000 2DE9F041 		push	{r4, r5, r6, r7, r8, lr}
 1581              	.LCFI16:
 1582              		.cfi_def_cfa_offset 24
 1583              		.cfi_offset 4, -24
 1584              		.cfi_offset 5, -20
 1585              		.cfi_offset 6, -16
 1586              		.cfi_offset 7, -12
 1587              		.cfi_offset 8, -8
 1588              		.cfi_offset 14, -4
 1589 0004 0446     		mov	r4, r0
 1590 0006 0D46     		mov	r5, r1
 686:Lib/lvgl/src/core/lv_obj_style.c ****     for(i = 0; i < obj->style_cnt; i++) {
 1591              		.loc 1 686 5 is_stmt 1 view .LVU450
 687:Lib/lvgl/src/core/lv_obj_style.c ****         if(obj->styles[i].is_local &&
 1592              		.loc 1 687 5 view .LVU451
 1593              	.LVL151:
 687:Lib/lvgl/src/core/lv_obj_style.c ****         if(obj->styles[i].is_local &&
 1594              		.loc 1 687 11 is_stmt 0 view .LVU452
 1595 0008 0023     		movs	r3, #0
 687:Lib/lvgl/src/core/lv_obj_style.c ****         if(obj->styles[i].is_local &&
 1596              		.loc 1 687 5 view .LVU453
 1597 000a 00E0     		b	.L123
 1598              	.LVL152:
 1599              	.L124:
 687:Lib/lvgl/src/core/lv_obj_style.c ****         if(obj->styles[i].is_local &&
 1600              		.loc 1 687 37 is_stmt 1 discriminator 2 view .LVU454
 1601 000c 0133     		adds	r3, r3, #1
 1602              	.LVL153:
 1603              	.L123:
 687:Lib/lvgl/src/core/lv_obj_style.c ****         if(obj->styles[i].is_local &&
 1604              		.loc 1 687 18 discriminator 1 view .LVU455
 687:Lib/lvgl/src/core/lv_obj_style.c ****         if(obj->styles[i].is_local &&
 1605              		.loc 1 687 23 is_stmt 0 discriminator 1 view .LVU456
 1606 000e 628D     		ldrh	r2, [r4, #42]
 1607 0010 C2F30512 		ubfx	r2, r2, #4, #6
 687:Lib/lvgl/src/core/lv_obj_style.c ****         if(obj->styles[i].is_local &&
ARM GAS  C:\Users\Alex\AppData\Local\Temp\ccdKwz1H.s 			page 74


 1608              		.loc 1 687 18 discriminator 1 view .LVU457
 1609 0014 9A42     		cmp	r2, r3
 1610 0016 11D9     		bls	.L135
 688:Lib/lvgl/src/core/lv_obj_style.c ****            obj->styles[i].selector == selector) {
 1611              		.loc 1 688 9 is_stmt 1 view .LVU458
 688:Lib/lvgl/src/core/lv_obj_style.c ****            obj->styles[i].selector == selector) {
 1612              		.loc 1 688 15 is_stmt 0 view .LVU459
 1613 0018 E168     		ldr	r1, [r4, #12]
 688:Lib/lvgl/src/core/lv_obj_style.c ****            obj->styles[i].selector == selector) {
 1614              		.loc 1 688 23 view .LVU460
 1615 001a 4FEAC30C 		lsl	ip, r3, #3
 1616 001e 01EBC302 		add	r2, r1, r3, lsl #3
 688:Lib/lvgl/src/core/lv_obj_style.c ****            obj->styles[i].selector == selector) {
 1617              		.loc 1 688 12 view .LVU461
 1618 0022 D079     		ldrb	r0, [r2, #7]	@ zero_extendqisi2
 688:Lib/lvgl/src/core/lv_obj_style.c ****            obj->styles[i].selector == selector) {
 1619              		.loc 1 688 11 view .LVU462
 1620 0024 10F0010F 		tst	r0, #1
 1621 0028 F0D0     		beq	.L124
 689:Lib/lvgl/src/core/lv_obj_style.c ****             return (lv_style_t *)obj->styles[i].style;
 1622              		.loc 1 689 26 discriminator 1 view .LVU463
 1623 002a 5268     		ldr	r2, [r2, #4]
 1624 002c C2F31702 		ubfx	r2, r2, #0, #24
 688:Lib/lvgl/src/core/lv_obj_style.c ****            obj->styles[i].selector == selector) {
 1625              		.loc 1 688 36 discriminator 1 view .LVU464
 1626 0030 AA42     		cmp	r2, r5
 1627 0032 EBD1     		bne	.L124
 690:Lib/lvgl/src/core/lv_obj_style.c ****         }
 1628              		.loc 1 690 13 is_stmt 1 view .LVU465
 690:Lib/lvgl/src/core/lv_obj_style.c ****         }
 1629              		.loc 1 690 20 is_stmt 0 view .LVU466
 1630 0034 51F80C00 		ldr	r0, [r1, ip]
 1631              	.LVL154:
 1632              	.L122:
 713:Lib/lvgl/src/core/lv_obj_style.c **** 
 1633              		.loc 1 713 1 view .LVU467
 1634 0038 BDE8F081 		pop	{r4, r5, r6, r7, r8, pc}
 1635              	.LVL155:
 1636              	.L135:
 694:Lib/lvgl/src/core/lv_obj_style.c ****     LV_ASSERT(obj->style_cnt != 0);
 1637              		.loc 1 694 5 is_stmt 1 view .LVU468
 694:Lib/lvgl/src/core/lv_obj_style.c ****     LV_ASSERT(obj->style_cnt != 0);
 1638              		.loc 1 694 19 is_stmt 0 view .LVU469
 1639 003c 531C     		adds	r3, r2, #1
 1640              	.LVL156:
 694:Lib/lvgl/src/core/lv_obj_style.c ****     LV_ASSERT(obj->style_cnt != 0);
 1641              		.loc 1 694 19 view .LVU470
 1642 003e 03F03F03 		and	r3, r3, #63
 1643 0042 628D     		ldrh	r2, [r4, #42]
 1644 0044 63F30912 		bfi	r2, r3, #4, #6
 1645 0048 6285     		strh	r2, [r4, #42]	@ movhi
 695:Lib/lvgl/src/core/lv_obj_style.c ****     obj->styles = lv_realloc(obj->styles, obj->style_cnt * sizeof(_lv_obj_style_t));
 1646              		.loc 1 695 5 is_stmt 1 view .LVU471
 695:Lib/lvgl/src/core/lv_obj_style.c ****     obj->styles = lv_realloc(obj->styles, obj->style_cnt * sizeof(_lv_obj_style_t));
 1647              		.loc 1 695 5 view .LVU472
 1648 004a 02F47C72 		and	r2, r2, #1008
 1649 004e 02B9     		cbnz	r2, .L127
ARM GAS  C:\Users\Alex\AppData\Local\Temp\ccdKwz1H.s 			page 75


 1650              	.L128:
 695:Lib/lvgl/src/core/lv_obj_style.c ****     obj->styles = lv_realloc(obj->styles, obj->style_cnt * sizeof(_lv_obj_style_t));
 1651              		.loc 1 695 5 discriminator 1 view .LVU473
 695:Lib/lvgl/src/core/lv_obj_style.c ****     obj->styles = lv_realloc(obj->styles, obj->style_cnt * sizeof(_lv_obj_style_t));
 1652              		.loc 1 695 5 discriminator 1 view .LVU474
 695:Lib/lvgl/src/core/lv_obj_style.c ****     obj->styles = lv_realloc(obj->styles, obj->style_cnt * sizeof(_lv_obj_style_t));
 1653              		.loc 1 695 5 discriminator 1 view .LVU475
 695:Lib/lvgl/src/core/lv_obj_style.c ****     obj->styles = lv_realloc(obj->styles, obj->style_cnt * sizeof(_lv_obj_style_t));
 1654              		.loc 1 695 5 discriminator 1 view .LVU476
 695:Lib/lvgl/src/core/lv_obj_style.c ****     obj->styles = lv_realloc(obj->styles, obj->style_cnt * sizeof(_lv_obj_style_t));
 1655              		.loc 1 695 5 discriminator 1 view .LVU477
 1656 0050 FEE7     		b	.L128
 1657              	.L127:
 695:Lib/lvgl/src/core/lv_obj_style.c ****     obj->styles = lv_realloc(obj->styles, obj->style_cnt * sizeof(_lv_obj_style_t));
 1658              		.loc 1 695 5 discriminator 2 view .LVU478
 696:Lib/lvgl/src/core/lv_obj_style.c ****     LV_ASSERT_MALLOC(obj->styles);
 1659              		.loc 1 696 5 discriminator 2 view .LVU479
 696:Lib/lvgl/src/core/lv_obj_style.c ****     LV_ASSERT_MALLOC(obj->styles);
 1660              		.loc 1 696 19 is_stmt 0 discriminator 2 view .LVU480
 1661 0052 D900     		lsls	r1, r3, #3
 1662 0054 E068     		ldr	r0, [r4, #12]
 1663 0056 FFF7FEFF 		bl	lv_realloc
 1664              	.LVL157:
 696:Lib/lvgl/src/core/lv_obj_style.c ****     LV_ASSERT_MALLOC(obj->styles);
 1665              		.loc 1 696 17 discriminator 2 view .LVU481
 1666 005a E060     		str	r0, [r4, #12]
 697:Lib/lvgl/src/core/lv_obj_style.c **** 
 1667              		.loc 1 697 5 is_stmt 1 discriminator 2 view .LVU482
 697:Lib/lvgl/src/core/lv_obj_style.c **** 
 1668              		.loc 1 697 5 discriminator 2 view .LVU483
 1669 005c B0B1     		cbz	r0, .L130
 697:Lib/lvgl/src/core/lv_obj_style.c **** 
 1670              		.loc 1 697 5 discriminator 2 view .LVU484
 697:Lib/lvgl/src/core/lv_obj_style.c **** 
 1671              		.loc 1 697 34 discriminator 2 view .LVU485
 699:Lib/lvgl/src/core/lv_obj_style.c ****         /*Copy only normal styles (not local and transition).
 1672              		.loc 1 699 5 discriminator 2 view .LVU486
 699:Lib/lvgl/src/core/lv_obj_style.c ****         /*Copy only normal styles (not local and transition).
 1673              		.loc 1 699 16 is_stmt 0 discriminator 2 view .LVU487
 1674 005e 668D     		ldrh	r6, [r4, #42]
 1675 0060 C6F30516 		ubfx	r6, r6, #4, #6
 699:Lib/lvgl/src/core/lv_obj_style.c ****         /*Copy only normal styles (not local and transition).
 1676              		.loc 1 699 28 discriminator 2 view .LVU488
 1677 0064 013E     		subs	r6, r6, #1
 1678              	.LVL158:
 1679              	.L131:
 699:Lib/lvgl/src/core/lv_obj_style.c ****         /*Copy only normal styles (not local and transition).
 1680              		.loc 1 699 35 is_stmt 1 discriminator 1 view .LVU489
 1681 0066 96B1     		cbz	r6, .L132
 702:Lib/lvgl/src/core/lv_obj_style.c ****         obj->styles[i] = obj->styles[i - 1];
 1682              		.loc 1 702 9 view .LVU490
 702:Lib/lvgl/src/core/lv_obj_style.c ****         obj->styles[i] = obj->styles[i - 1];
 1683              		.loc 1 702 15 is_stmt 0 view .LVU491
 1684 0068 E268     		ldr	r2, [r4, #12]
 702:Lib/lvgl/src/core/lv_obj_style.c ****         obj->styles[i] = obj->styles[i - 1];
 1685              		.loc 1 702 23 view .LVU492
 1686 006a 06F10053 		add	r3, r6, #536870912
ARM GAS  C:\Users\Alex\AppData\Local\Temp\ccdKwz1H.s 			page 76


 1687 006e 013B     		subs	r3, r3, #1
 1688 0070 02EBC303 		add	r3, r2, r3, lsl #3
 702:Lib/lvgl/src/core/lv_obj_style.c ****         obj->styles[i] = obj->styles[i - 1];
 1689              		.loc 1 702 40 view .LVU493
 1690 0074 D979     		ldrb	r1, [r3, #7]	@ zero_extendqisi2
 702:Lib/lvgl/src/core/lv_obj_style.c ****         obj->styles[i] = obj->styles[i - 1];
 1691              		.loc 1 702 11 view .LVU494
 1692 0076 11F0030F 		tst	r1, #3
 1693 007a 08D1     		bne	.L132
 703:Lib/lvgl/src/core/lv_obj_style.c ****     }
 1694              		.loc 1 703 9 is_stmt 1 discriminator 2 view .LVU495
 703:Lib/lvgl/src/core/lv_obj_style.c ****     }
 1695              		.loc 1 703 20 is_stmt 0 discriminator 2 view .LVU496
 1696 007c 02EBC602 		add	r2, r2, r6, lsl #3
 703:Lib/lvgl/src/core/lv_obj_style.c ****     }
 1697              		.loc 1 703 24 discriminator 2 view .LVU497
 1698 0080 93E80300 		ldm	r3, {r0, r1}
 1699 0084 82E80300 		stm	r2, {r0, r1}
 699:Lib/lvgl/src/core/lv_obj_style.c ****         /*Copy only normal styles (not local and transition).
 1700              		.loc 1 699 42 is_stmt 1 discriminator 2 view .LVU498
 1701 0088 013E     		subs	r6, r6, #1
 1702              	.LVL159:
 699:Lib/lvgl/src/core/lv_obj_style.c ****         /*Copy only normal styles (not local and transition).
 1703              		.loc 1 699 42 is_stmt 0 discriminator 2 view .LVU499
 1704 008a ECE7     		b	.L131
 1705              	.LVL160:
 1706              	.L130:
 697:Lib/lvgl/src/core/lv_obj_style.c **** 
 1707              		.loc 1 697 5 is_stmt 1 discriminator 2 view .LVU500
 697:Lib/lvgl/src/core/lv_obj_style.c **** 
 1708              		.loc 1 697 5 discriminator 2 view .LVU501
 697:Lib/lvgl/src/core/lv_obj_style.c **** 
 1709              		.loc 1 697 5 discriminator 2 view .LVU502
 697:Lib/lvgl/src/core/lv_obj_style.c **** 
 1710              		.loc 1 697 5 discriminator 2 view .LVU503
 697:Lib/lvgl/src/core/lv_obj_style.c **** 
 1711              		.loc 1 697 5 discriminator 2 view .LVU504
 1712 008c FEE7     		b	.L130
 1713              	.LVL161:
 1714              	.L132:
 706:Lib/lvgl/src/core/lv_obj_style.c ****     obj->styles[i].style = lv_malloc(sizeof(lv_style_t));
 1715              		.loc 1 706 5 view .LVU505
 706:Lib/lvgl/src/core/lv_obj_style.c ****     obj->styles[i].style = lv_malloc(sizeof(lv_style_t));
 1716              		.loc 1 706 20 is_stmt 0 view .LVU506
 1717 008e E068     		ldr	r0, [r4, #12]
 706:Lib/lvgl/src/core/lv_obj_style.c ****     obj->styles[i].style = lv_malloc(sizeof(lv_style_t));
 1718              		.loc 1 706 28 view .LVU507
 1719 0090 F700     		lsls	r7, r6, #3
 1720              	.LVL162:
 1721              	.LBB220:
 1722              	.LBI220:
 1723              		.file 6 "Lib/lvgl/src/core/../misc/../font/../draw/../stdlib/lv_string.h"
   1:Lib/lvgl/src/core/../misc/../font/../draw/../stdlib/lv_string.h **** /**
   2:Lib/lvgl/src/core/../misc/../font/../draw/../stdlib/lv_string.h ****  * @file lv_stringn.h
   3:Lib/lvgl/src/core/../misc/../font/../draw/../stdlib/lv_string.h ****  *
   4:Lib/lvgl/src/core/../misc/../font/../draw/../stdlib/lv_string.h ****  */
   5:Lib/lvgl/src/core/../misc/../font/../draw/../stdlib/lv_string.h **** 
ARM GAS  C:\Users\Alex\AppData\Local\Temp\ccdKwz1H.s 			page 77


   6:Lib/lvgl/src/core/../misc/../font/../draw/../stdlib/lv_string.h **** #ifndef LV_STRING_H
   7:Lib/lvgl/src/core/../misc/../font/../draw/../stdlib/lv_string.h **** #define LV_STRING_H
   8:Lib/lvgl/src/core/../misc/../font/../draw/../stdlib/lv_string.h **** 
   9:Lib/lvgl/src/core/../misc/../font/../draw/../stdlib/lv_string.h **** #ifdef __cplusplus
  10:Lib/lvgl/src/core/../misc/../font/../draw/../stdlib/lv_string.h **** extern "C" {
  11:Lib/lvgl/src/core/../misc/../font/../draw/../stdlib/lv_string.h **** #endif
  12:Lib/lvgl/src/core/../misc/../font/../draw/../stdlib/lv_string.h **** 
  13:Lib/lvgl/src/core/../misc/../font/../draw/../stdlib/lv_string.h **** /*********************
  14:Lib/lvgl/src/core/../misc/../font/../draw/../stdlib/lv_string.h ****  *      INCLUDES
  15:Lib/lvgl/src/core/../misc/../font/../draw/../stdlib/lv_string.h ****  *********************/
  16:Lib/lvgl/src/core/../misc/../font/../draw/../stdlib/lv_string.h **** #include "../lv_conf_internal.h"
  17:Lib/lvgl/src/core/../misc/../font/../draw/../stdlib/lv_string.h **** #include <stdint.h>
  18:Lib/lvgl/src/core/../misc/../font/../draw/../stdlib/lv_string.h **** #include <stddef.h>
  19:Lib/lvgl/src/core/../misc/../font/../draw/../stdlib/lv_string.h **** 
  20:Lib/lvgl/src/core/../misc/../font/../draw/../stdlib/lv_string.h **** /*********************
  21:Lib/lvgl/src/core/../misc/../font/../draw/../stdlib/lv_string.h ****  *      DEFINES
  22:Lib/lvgl/src/core/../misc/../font/../draw/../stdlib/lv_string.h ****  *********************/
  23:Lib/lvgl/src/core/../misc/../font/../draw/../stdlib/lv_string.h **** 
  24:Lib/lvgl/src/core/../misc/../font/../draw/../stdlib/lv_string.h **** /**********************
  25:Lib/lvgl/src/core/../misc/../font/../draw/../stdlib/lv_string.h ****  *      TYPEDEFS
  26:Lib/lvgl/src/core/../misc/../font/../draw/../stdlib/lv_string.h ****  **********************/
  27:Lib/lvgl/src/core/../misc/../font/../draw/../stdlib/lv_string.h **** 
  28:Lib/lvgl/src/core/../misc/../font/../draw/../stdlib/lv_string.h **** /**********************
  29:Lib/lvgl/src/core/../misc/../font/../draw/../stdlib/lv_string.h ****  * GLOBAL PROTOTYPES
  30:Lib/lvgl/src/core/../misc/../font/../draw/../stdlib/lv_string.h ****  **********************/
  31:Lib/lvgl/src/core/../misc/../font/../draw/../stdlib/lv_string.h **** 
  32:Lib/lvgl/src/core/../misc/../font/../draw/../stdlib/lv_string.h **** /**
  33:Lib/lvgl/src/core/../misc/../font/../draw/../stdlib/lv_string.h ****  * @brief Copies a block of memory from a source address to a destination address.
  34:Lib/lvgl/src/core/../misc/../font/../draw/../stdlib/lv_string.h ****  * @param dst Pointer to the destination array where the content is to be copied.
  35:Lib/lvgl/src/core/../misc/../font/../draw/../stdlib/lv_string.h ****  * @param src Pointer to the source of data to be copied.
  36:Lib/lvgl/src/core/../misc/../font/../draw/../stdlib/lv_string.h ****  * @param len Number of bytes to copy.
  37:Lib/lvgl/src/core/../misc/../font/../draw/../stdlib/lv_string.h ****  * @return Pointer to the destination array.
  38:Lib/lvgl/src/core/../misc/../font/../draw/../stdlib/lv_string.h ****  * @note The function does not check for any overlapping of the source and destination memory block
  39:Lib/lvgl/src/core/../misc/../font/../draw/../stdlib/lv_string.h ****  */
  40:Lib/lvgl/src/core/../misc/../font/../draw/../stdlib/lv_string.h **** void * lv_memcpy(void * dst, const void * src, size_t len);
  41:Lib/lvgl/src/core/../misc/../font/../draw/../stdlib/lv_string.h **** 
  42:Lib/lvgl/src/core/../misc/../font/../draw/../stdlib/lv_string.h **** /**
  43:Lib/lvgl/src/core/../misc/../font/../draw/../stdlib/lv_string.h ****  * @brief Fills a block of memory with a specified value.
  44:Lib/lvgl/src/core/../misc/../font/../draw/../stdlib/lv_string.h ****  * @param dst Pointer to the destination array to fill with the specified value.
  45:Lib/lvgl/src/core/../misc/../font/../draw/../stdlib/lv_string.h ****  * @param v Value to be set. The value is passed as an int, but the function fills
  46:Lib/lvgl/src/core/../misc/../font/../draw/../stdlib/lv_string.h ****  *          the block of memory using the unsigned char conversion of this value.
  47:Lib/lvgl/src/core/../misc/../font/../draw/../stdlib/lv_string.h ****  * @param len Number of bytes to be set to the value.
  48:Lib/lvgl/src/core/../misc/../font/../draw/../stdlib/lv_string.h ****  */
  49:Lib/lvgl/src/core/../misc/../font/../draw/../stdlib/lv_string.h **** void lv_memset(void * dst, uint8_t v, size_t len);
  50:Lib/lvgl/src/core/../misc/../font/../draw/../stdlib/lv_string.h **** 
  51:Lib/lvgl/src/core/../misc/../font/../draw/../stdlib/lv_string.h **** /**
  52:Lib/lvgl/src/core/../misc/../font/../draw/../stdlib/lv_string.h ****  * @brief Move a block of memory from source to destination
  53:Lib/lvgl/src/core/../misc/../font/../draw/../stdlib/lv_string.h ****  * @param dst Pointer to the destination array where the content is to be copied.
  54:Lib/lvgl/src/core/../misc/../font/../draw/../stdlib/lv_string.h ****  * @param src Pointer to the source of data to be copied.
  55:Lib/lvgl/src/core/../misc/../font/../draw/../stdlib/lv_string.h ****  * @param len Number of bytes to copy
  56:Lib/lvgl/src/core/../misc/../font/../draw/../stdlib/lv_string.h ****  * @return Pointer to the destination array.
  57:Lib/lvgl/src/core/../misc/../font/../draw/../stdlib/lv_string.h ****  */
  58:Lib/lvgl/src/core/../misc/../font/../draw/../stdlib/lv_string.h **** void * lv_memmove(void * dst, const void * src, size_t len);
  59:Lib/lvgl/src/core/../misc/../font/../draw/../stdlib/lv_string.h **** 
  60:Lib/lvgl/src/core/../misc/../font/../draw/../stdlib/lv_string.h **** /**
  61:Lib/lvgl/src/core/../misc/../font/../draw/../stdlib/lv_string.h ****  * Same as `memset(dst, 0x00, len)`.
  62:Lib/lvgl/src/core/../misc/../font/../draw/../stdlib/lv_string.h ****  * @param dst pointer to the destination buffer
ARM GAS  C:\Users\Alex\AppData\Local\Temp\ccdKwz1H.s 			page 78


  63:Lib/lvgl/src/core/../misc/../font/../draw/../stdlib/lv_string.h ****  * @param len number of byte to set
  64:Lib/lvgl/src/core/../misc/../font/../draw/../stdlib/lv_string.h ****  */
  65:Lib/lvgl/src/core/../misc/../font/../draw/../stdlib/lv_string.h **** static inline void lv_memzero(void * dst, size_t len)
 1724              		.loc 6 65 20 is_stmt 1 view .LVU508
 1725              	.LBB221:
  66:Lib/lvgl/src/core/../misc/../font/../draw/../stdlib/lv_string.h **** {
  67:Lib/lvgl/src/core/../misc/../font/../draw/../stdlib/lv_string.h ****     lv_memset(dst, 0x00, len);
 1726              		.loc 6 67 5 view .LVU509
 1727 0092 0822     		movs	r2, #8
 1728 0094 0021     		movs	r1, #0
 1729 0096 00EBC600 		add	r0, r0, r6, lsl #3
 1730              	.LVL163:
 1731              		.loc 6 67 5 is_stmt 0 view .LVU510
 1732 009a FFF7FEFF 		bl	lv_memset
 1733              	.LVL164:
 1734              		.loc 6 67 5 view .LVU511
 1735              	.LBE221:
 1736              	.LBE220:
 707:Lib/lvgl/src/core/lv_obj_style.c ****     lv_style_init((lv_style_t *)obj->styles[i].style);
 1737              		.loc 1 707 5 is_stmt 1 view .LVU512
 707:Lib/lvgl/src/core/lv_obj_style.c ****     lv_style_init((lv_style_t *)obj->styles[i].style);
 1738              		.loc 1 707 8 is_stmt 0 view .LVU513
 1739 009e D4F80C80 		ldr	r8, [r4, #12]
 707:Lib/lvgl/src/core/lv_obj_style.c ****     lv_style_init((lv_style_t *)obj->styles[i].style);
 1740              		.loc 1 707 28 view .LVU514
 1741 00a2 0C20     		movs	r0, #12
 1742 00a4 FFF7FEFF 		bl	lv_malloc
 1743              	.LVL165:
 707:Lib/lvgl/src/core/lv_obj_style.c ****     lv_style_init((lv_style_t *)obj->styles[i].style);
 1744              		.loc 1 707 26 view .LVU515
 1745 00a8 48F83600 		str	r0, [r8, r6, lsl #3]
 708:Lib/lvgl/src/core/lv_obj_style.c **** 
 1746              		.loc 1 708 5 is_stmt 1 view .LVU516
 708:Lib/lvgl/src/core/lv_obj_style.c **** 
 1747              		.loc 1 708 36 is_stmt 0 view .LVU517
 1748 00ac E368     		ldr	r3, [r4, #12]
 708:Lib/lvgl/src/core/lv_obj_style.c **** 
 1749              		.loc 1 708 5 view .LVU518
 1750 00ae 53F83600 		ldr	r0, [r3, r6, lsl #3]
 1751 00b2 FFF7FEFF 		bl	lv_style_init
 1752              	.LVL166:
 710:Lib/lvgl/src/core/lv_obj_style.c ****     obj->styles[i].selector = selector;
 1753              		.loc 1 710 5 is_stmt 1 view .LVU519
 710:Lib/lvgl/src/core/lv_obj_style.c ****     obj->styles[i].selector = selector;
 1754              		.loc 1 710 8 is_stmt 0 view .LVU520
 1755 00b6 E368     		ldr	r3, [r4, #12]
 710:Lib/lvgl/src/core/lv_obj_style.c ****     obj->styles[i].selector = selector;
 1756              		.loc 1 710 16 view .LVU521
 1757 00b8 3B44     		add	r3, r3, r7
 710:Lib/lvgl/src/core/lv_obj_style.c ****     obj->styles[i].selector = selector;
 1758              		.loc 1 710 29 view .LVU522
 1759 00ba DA79     		ldrb	r2, [r3, #7]	@ zero_extendqisi2
 1760 00bc 42F00102 		orr	r2, r2, #1
 1761 00c0 DA71     		strb	r2, [r3, #7]
 711:Lib/lvgl/src/core/lv_obj_style.c ****     return (lv_style_t *)obj->styles[i].style;
 1762              		.loc 1 711 5 is_stmt 1 view .LVU523
 711:Lib/lvgl/src/core/lv_obj_style.c ****     return (lv_style_t *)obj->styles[i].style;
ARM GAS  C:\Users\Alex\AppData\Local\Temp\ccdKwz1H.s 			page 79


 1763              		.loc 1 711 8 is_stmt 0 view .LVU524
 1764 00c2 E368     		ldr	r3, [r4, #12]
 711:Lib/lvgl/src/core/lv_obj_style.c ****     return (lv_style_t *)obj->styles[i].style;
 1765              		.loc 1 711 16 view .LVU525
 1766 00c4 3B44     		add	r3, r3, r7
 711:Lib/lvgl/src/core/lv_obj_style.c ****     return (lv_style_t *)obj->styles[i].style;
 1767              		.loc 1 711 29 view .LVU526
 1768 00c6 5A68     		ldr	r2, [r3, #4]
 1769 00c8 65F31702 		bfi	r2, r5, #0, #24
 1770              	.LVL167:
 711:Lib/lvgl/src/core/lv_obj_style.c ****     return (lv_style_t *)obj->styles[i].style;
 1771              		.loc 1 711 29 view .LVU527
 1772 00cc 5A60     		str	r2, [r3, #4]
 712:Lib/lvgl/src/core/lv_obj_style.c **** }
 1773              		.loc 1 712 5 is_stmt 1 view .LVU528
 712:Lib/lvgl/src/core/lv_obj_style.c **** }
 1774              		.loc 1 712 29 is_stmt 0 view .LVU529
 1775 00ce E368     		ldr	r3, [r4, #12]
 712:Lib/lvgl/src/core/lv_obj_style.c **** }
 1776              		.loc 1 712 12 view .LVU530
 1777 00d0 53F83600 		ldr	r0, [r3, r6, lsl #3]
 1778 00d4 B0E7     		b	.L122
 1779              		.cfi_endproc
 1780              	.LFE256:
 1782              		.section	.text.get_trans_style,"ax",%progbits
 1783              		.align	1
 1784              		.syntax unified
 1785              		.thumb
 1786              		.thumb_func
 1788              	get_trans_style:
 1789              	.LVL168:
 1790              	.LFB257:
 723:Lib/lvgl/src/core/lv_obj_style.c ****     uint32_t i;
 1791              		.loc 1 723 1 is_stmt 1 view -0
 1792              		.cfi_startproc
 1793              		@ args = 0, pretend = 0, frame = 0
 1794              		@ frame_needed = 0, uses_anonymous_args = 0
 723:Lib/lvgl/src/core/lv_obj_style.c ****     uint32_t i;
 1795              		.loc 1 723 1 is_stmt 0 view .LVU532
 1796 0000 70B5     		push	{r4, r5, r6, lr}
 1797              	.LCFI17:
 1798              		.cfi_def_cfa_offset 16
 1799              		.cfi_offset 4, -16
 1800              		.cfi_offset 5, -12
 1801              		.cfi_offset 6, -8
 1802              		.cfi_offset 14, -4
 1803 0002 0446     		mov	r4, r0
 1804 0004 0D46     		mov	r5, r1
 724:Lib/lvgl/src/core/lv_obj_style.c ****     for(i = 0; i < obj->style_cnt; i++) {
 1805              		.loc 1 724 5 is_stmt 1 view .LVU533
 725:Lib/lvgl/src/core/lv_obj_style.c ****         if(obj->styles[i].is_trans && obj->styles[i].selector == selector) break;
 1806              		.loc 1 725 5 view .LVU534
 1807              	.LVL169:
 725:Lib/lvgl/src/core/lv_obj_style.c ****         if(obj->styles[i].is_trans && obj->styles[i].selector == selector) break;
 1808              		.loc 1 725 11 is_stmt 0 view .LVU535
 1809 0006 0021     		movs	r1, #0
 1810              	.LVL170:
ARM GAS  C:\Users\Alex\AppData\Local\Temp\ccdKwz1H.s 			page 80


 725:Lib/lvgl/src/core/lv_obj_style.c ****         if(obj->styles[i].is_trans && obj->styles[i].selector == selector) break;
 1811              		.loc 1 725 5 view .LVU536
 1812 0008 00E0     		b	.L137
 1813              	.LVL171:
 1814              	.L138:
 725:Lib/lvgl/src/core/lv_obj_style.c ****         if(obj->styles[i].is_trans && obj->styles[i].selector == selector) break;
 1815              		.loc 1 725 37 is_stmt 1 discriminator 2 view .LVU537
 1816 000a 0131     		adds	r1, r1, #1
 1817              	.LVL172:
 1818              	.L137:
 725:Lib/lvgl/src/core/lv_obj_style.c ****         if(obj->styles[i].is_trans && obj->styles[i].selector == selector) break;
 1819              		.loc 1 725 18 discriminator 1 view .LVU538
 725:Lib/lvgl/src/core/lv_obj_style.c ****         if(obj->styles[i].is_trans && obj->styles[i].selector == selector) break;
 1820              		.loc 1 725 23 is_stmt 0 discriminator 1 view .LVU539
 1821 000c 638D     		ldrh	r3, [r4, #42]
 1822 000e C3F30513 		ubfx	r3, r3, #4, #6
 725:Lib/lvgl/src/core/lv_obj_style.c ****         if(obj->styles[i].is_trans && obj->styles[i].selector == selector) break;
 1823              		.loc 1 725 18 discriminator 1 view .LVU540
 1824 0012 8B42     		cmp	r3, r1
 1825 0014 0BD9     		bls	.L139
 726:Lib/lvgl/src/core/lv_obj_style.c ****     }
 1826              		.loc 1 726 9 is_stmt 1 view .LVU541
 726:Lib/lvgl/src/core/lv_obj_style.c ****     }
 1827              		.loc 1 726 15 is_stmt 0 view .LVU542
 1828 0016 E268     		ldr	r2, [r4, #12]
 726:Lib/lvgl/src/core/lv_obj_style.c ****     }
 1829              		.loc 1 726 23 view .LVU543
 1830 0018 02EBC102 		add	r2, r2, r1, lsl #3
 726:Lib/lvgl/src/core/lv_obj_style.c ****     }
 1831              		.loc 1 726 12 view .LVU544
 1832 001c D079     		ldrb	r0, [r2, #7]	@ zero_extendqisi2
 726:Lib/lvgl/src/core/lv_obj_style.c ****     }
 1833              		.loc 1 726 11 view .LVU545
 1834 001e 10F0020F 		tst	r0, #2
 1835 0022 F2D0     		beq	.L138
 726:Lib/lvgl/src/core/lv_obj_style.c ****     }
 1836              		.loc 1 726 53 discriminator 1 view .LVU546
 1837 0024 5268     		ldr	r2, [r2, #4]
 1838 0026 C2F31702 		ubfx	r2, r2, #0, #24
 726:Lib/lvgl/src/core/lv_obj_style.c ****     }
 1839              		.loc 1 726 36 discriminator 1 view .LVU547
 1840 002a AA42     		cmp	r2, r5
 1841 002c EDD1     		bne	.L138
 1842              	.L139:
 730:Lib/lvgl/src/core/lv_obj_style.c **** 
 1843              		.loc 1 730 5 is_stmt 1 view .LVU548
 730:Lib/lvgl/src/core/lv_obj_style.c **** 
 1844              		.loc 1 730 7 is_stmt 0 view .LVU549
 1845 002e 8B42     		cmp	r3, r1
 1846 0030 03D0     		beq	.L141
 730:Lib/lvgl/src/core/lv_obj_style.c **** 
 1847              		.loc 1 730 29 is_stmt 1 discriminator 1 view .LVU550
 730:Lib/lvgl/src/core/lv_obj_style.c **** 
 1848              		.loc 1 730 40 is_stmt 0 discriminator 1 view .LVU551
 1849 0032 E068     		ldr	r0, [r4, #12]
 730:Lib/lvgl/src/core/lv_obj_style.c **** 
 1850              		.loc 1 730 36 discriminator 1 view .LVU552
ARM GAS  C:\Users\Alex\AppData\Local\Temp\ccdKwz1H.s 			page 81


 1851 0034 00EBC100 		add	r0, r0, r1, lsl #3
 1852              	.LVL173:
 1853              	.L136:
 747:Lib/lvgl/src/core/lv_obj_style.c **** 
 1854              		.loc 1 747 1 view .LVU553
 1855 0038 70BD     		pop	{r4, r5, r6, pc}
 1856              	.LVL174:
 1857              	.L141:
 732:Lib/lvgl/src/core/lv_obj_style.c ****     LV_ASSERT(obj->style_cnt != 0);
 1858              		.loc 1 732 5 is_stmt 1 view .LVU554
 732:Lib/lvgl/src/core/lv_obj_style.c ****     LV_ASSERT(obj->style_cnt != 0);
 1859              		.loc 1 732 19 is_stmt 0 view .LVU555
 1860 003a 0133     		adds	r3, r3, #1
 1861 003c 03F03F03 		and	r3, r3, #63
 1862 0040 628D     		ldrh	r2, [r4, #42]
 1863 0042 63F30912 		bfi	r2, r3, #4, #6
 1864 0046 6285     		strh	r2, [r4, #42]	@ movhi
 733:Lib/lvgl/src/core/lv_obj_style.c ****     obj->styles = lv_realloc(obj->styles, obj->style_cnt * sizeof(_lv_obj_style_t));
 1865              		.loc 1 733 5 is_stmt 1 view .LVU556
 733:Lib/lvgl/src/core/lv_obj_style.c ****     obj->styles = lv_realloc(obj->styles, obj->style_cnt * sizeof(_lv_obj_style_t));
 1866              		.loc 1 733 5 view .LVU557
 1867 0048 02F47C72 		and	r2, r2, #1008
 1868 004c 02B9     		cbnz	r2, .L143
 1869              	.L144:
 733:Lib/lvgl/src/core/lv_obj_style.c ****     obj->styles = lv_realloc(obj->styles, obj->style_cnt * sizeof(_lv_obj_style_t));
 1870              		.loc 1 733 5 discriminator 1 view .LVU558
 733:Lib/lvgl/src/core/lv_obj_style.c ****     obj->styles = lv_realloc(obj->styles, obj->style_cnt * sizeof(_lv_obj_style_t));
 1871              		.loc 1 733 5 discriminator 1 view .LVU559
 733:Lib/lvgl/src/core/lv_obj_style.c ****     obj->styles = lv_realloc(obj->styles, obj->style_cnt * sizeof(_lv_obj_style_t));
 1872              		.loc 1 733 5 discriminator 1 view .LVU560
 733:Lib/lvgl/src/core/lv_obj_style.c ****     obj->styles = lv_realloc(obj->styles, obj->style_cnt * sizeof(_lv_obj_style_t));
 1873              		.loc 1 733 5 discriminator 1 view .LVU561
 733:Lib/lvgl/src/core/lv_obj_style.c ****     obj->styles = lv_realloc(obj->styles, obj->style_cnt * sizeof(_lv_obj_style_t));
 1874              		.loc 1 733 5 discriminator 1 view .LVU562
 1875 004e FEE7     		b	.L144
 1876              	.L143:
 733:Lib/lvgl/src/core/lv_obj_style.c ****     obj->styles = lv_realloc(obj->styles, obj->style_cnt * sizeof(_lv_obj_style_t));
 1877              		.loc 1 733 5 discriminator 2 view .LVU563
 734:Lib/lvgl/src/core/lv_obj_style.c **** 
 1878              		.loc 1 734 5 discriminator 2 view .LVU564
 734:Lib/lvgl/src/core/lv_obj_style.c **** 
 1879              		.loc 1 734 19 is_stmt 0 discriminator 2 view .LVU565
 1880 0050 D900     		lsls	r1, r3, #3
 1881              	.LVL175:
 734:Lib/lvgl/src/core/lv_obj_style.c **** 
 1882              		.loc 1 734 19 discriminator 2 view .LVU566
 1883 0052 E068     		ldr	r0, [r4, #12]
 1884 0054 FFF7FEFF 		bl	lv_realloc
 1885              	.LVL176:
 734:Lib/lvgl/src/core/lv_obj_style.c **** 
 1886              		.loc 1 734 17 discriminator 2 view .LVU567
 1887 0058 E060     		str	r0, [r4, #12]
 736:Lib/lvgl/src/core/lv_obj_style.c ****         obj->styles[i] = obj->styles[i - 1];
 1888              		.loc 1 736 5 is_stmt 1 discriminator 2 view .LVU568
 736:Lib/lvgl/src/core/lv_obj_style.c ****         obj->styles[i] = obj->styles[i - 1];
 1889              		.loc 1 736 16 is_stmt 0 discriminator 2 view .LVU569
 1890 005a 668D     		ldrh	r6, [r4, #42]
ARM GAS  C:\Users\Alex\AppData\Local\Temp\ccdKwz1H.s 			page 82


 1891 005c C6F30516 		ubfx	r6, r6, #4, #6
 736:Lib/lvgl/src/core/lv_obj_style.c ****         obj->styles[i] = obj->styles[i - 1];
 1892              		.loc 1 736 28 discriminator 2 view .LVU570
 1893 0060 013E     		subs	r6, r6, #1
 1894              	.LVL177:
 736:Lib/lvgl/src/core/lv_obj_style.c ****         obj->styles[i] = obj->styles[i - 1];
 1895              		.loc 1 736 5 discriminator 2 view .LVU571
 1896 0062 0CE0     		b	.L145
 1897              	.L146:
 737:Lib/lvgl/src/core/lv_obj_style.c ****     }
 1898              		.loc 1 737 9 is_stmt 1 discriminator 3 view .LVU572
 737:Lib/lvgl/src/core/lv_obj_style.c ****     }
 1899              		.loc 1 737 29 is_stmt 0 discriminator 3 view .LVU573
 1900 0064 E268     		ldr	r2, [r4, #12]
 737:Lib/lvgl/src/core/lv_obj_style.c ****     }
 1901              		.loc 1 737 37 discriminator 3 view .LVU574
 1902 0066 06F10053 		add	r3, r6, #536870912
 1903 006a 013B     		subs	r3, r3, #1
 1904 006c 02EBC303 		add	r3, r2, r3, lsl #3
 737:Lib/lvgl/src/core/lv_obj_style.c ****     }
 1905              		.loc 1 737 20 discriminator 3 view .LVU575
 1906 0070 02EBC602 		add	r2, r2, r6, lsl #3
 737:Lib/lvgl/src/core/lv_obj_style.c ****     }
 1907              		.loc 1 737 24 discriminator 3 view .LVU576
 1908 0074 93E80300 		ldm	r3, {r0, r1}
 1909 0078 82E80300 		stm	r2, {r0, r1}
 736:Lib/lvgl/src/core/lv_obj_style.c ****         obj->styles[i] = obj->styles[i - 1];
 1910              		.loc 1 736 42 is_stmt 1 discriminator 3 view .LVU577
 1911 007c 013E     		subs	r6, r6, #1
 1912              	.LVL178:
 1913              	.L145:
 736:Lib/lvgl/src/core/lv_obj_style.c ****         obj->styles[i] = obj->styles[i - 1];
 1914              		.loc 1 736 35 discriminator 1 view .LVU578
 1915 007e 002E     		cmp	r6, #0
 1916 0080 F0D1     		bne	.L146
 740:Lib/lvgl/src/core/lv_obj_style.c ****     obj->styles[0].style = lv_malloc(sizeof(lv_style_t));
 1917              		.loc 1 740 5 view .LVU579
 1918              	.LVL179:
 1919              	.LBB222:
 1920              	.LBI222:
  65:Lib/lvgl/src/core/../misc/../font/../draw/../stdlib/lv_string.h **** {
 1921              		.loc 6 65 20 view .LVU580
 1922              	.LBB223:
 1923              		.loc 6 67 5 view .LVU581
 1924 0082 0822     		movs	r2, #8
 1925 0084 0021     		movs	r1, #0
 1926 0086 E068     		ldr	r0, [r4, #12]
 1927 0088 FFF7FEFF 		bl	lv_memset
 1928              	.LVL180:
 1929              		.loc 6 67 5 is_stmt 0 view .LVU582
 1930              	.LBE223:
 1931              	.LBE222:
 741:Lib/lvgl/src/core/lv_obj_style.c ****     lv_style_init((lv_style_t *)obj->styles[0].style);
 1932              		.loc 1 741 5 is_stmt 1 view .LVU583
 741:Lib/lvgl/src/core/lv_obj_style.c ****     lv_style_init((lv_style_t *)obj->styles[0].style);
 1933              		.loc 1 741 8 is_stmt 0 view .LVU584
 1934 008c E668     		ldr	r6, [r4, #12]
ARM GAS  C:\Users\Alex\AppData\Local\Temp\ccdKwz1H.s 			page 83


 1935              	.LVL181:
 741:Lib/lvgl/src/core/lv_obj_style.c ****     lv_style_init((lv_style_t *)obj->styles[0].style);
 1936              		.loc 1 741 28 view .LVU585
 1937 008e 0C20     		movs	r0, #12
 1938 0090 FFF7FEFF 		bl	lv_malloc
 1939              	.LVL182:
 741:Lib/lvgl/src/core/lv_obj_style.c ****     lv_style_init((lv_style_t *)obj->styles[0].style);
 1940              		.loc 1 741 26 view .LVU586
 1941 0094 3060     		str	r0, [r6]
 742:Lib/lvgl/src/core/lv_obj_style.c **** 
 1942              		.loc 1 742 5 is_stmt 1 view .LVU587
 742:Lib/lvgl/src/core/lv_obj_style.c **** 
 1943              		.loc 1 742 36 is_stmt 0 view .LVU588
 1944 0096 E368     		ldr	r3, [r4, #12]
 742:Lib/lvgl/src/core/lv_obj_style.c **** 
 1945              		.loc 1 742 5 view .LVU589
 1946 0098 1868     		ldr	r0, [r3]
 1947 009a FFF7FEFF 		bl	lv_style_init
 1948              	.LVL183:
 744:Lib/lvgl/src/core/lv_obj_style.c ****     obj->styles[0].selector = selector;
 1949              		.loc 1 744 5 is_stmt 1 view .LVU590
 744:Lib/lvgl/src/core/lv_obj_style.c ****     obj->styles[0].selector = selector;
 1950              		.loc 1 744 8 is_stmt 0 view .LVU591
 1951 009e E268     		ldr	r2, [r4, #12]
 744:Lib/lvgl/src/core/lv_obj_style.c ****     obj->styles[0].selector = selector;
 1952              		.loc 1 744 29 view .LVU592
 1953 00a0 D379     		ldrb	r3, [r2, #7]	@ zero_extendqisi2
 1954 00a2 43F00203 		orr	r3, r3, #2
 1955 00a6 D371     		strb	r3, [r2, #7]
 745:Lib/lvgl/src/core/lv_obj_style.c ****     return &obj->styles[0];
 1956              		.loc 1 745 5 is_stmt 1 view .LVU593
 745:Lib/lvgl/src/core/lv_obj_style.c ****     return &obj->styles[0];
 1957              		.loc 1 745 8 is_stmt 0 view .LVU594
 1958 00a8 E368     		ldr	r3, [r4, #12]
 745:Lib/lvgl/src/core/lv_obj_style.c ****     return &obj->styles[0];
 1959              		.loc 1 745 29 view .LVU595
 1960 00aa 5A68     		ldr	r2, [r3, #4]
 1961 00ac 65F31702 		bfi	r2, r5, #0, #24
 1962              	.LVL184:
 745:Lib/lvgl/src/core/lv_obj_style.c ****     return &obj->styles[0];
 1963              		.loc 1 745 29 view .LVU596
 1964 00b0 5A60     		str	r2, [r3, #4]
 746:Lib/lvgl/src/core/lv_obj_style.c **** }
 1965              		.loc 1 746 5 is_stmt 1 view .LVU597
 746:Lib/lvgl/src/core/lv_obj_style.c **** }
 1966              		.loc 1 746 12 is_stmt 0 view .LVU598
 1967 00b2 E068     		ldr	r0, [r4, #12]
 1968 00b4 C0E7     		b	.L136
 1969              		.cfi_endproc
 1970              	.LFE257:
 1972              		.section	.text.fade_anim_cb,"ax",%progbits
 1973              		.align	1
 1974              		.syntax unified
 1975              		.thumb
 1976              		.thumb_func
 1978              	fade_anim_cb:
 1979              	.LVL185:
ARM GAS  C:\Users\Alex\AppData\Local\Temp\ccdKwz1H.s 			page 84


 1980              	.LFB267:
1074:Lib/lvgl/src/core/lv_obj_style.c ****     lv_obj_set_style_opa(obj, v, 0);
 1981              		.loc 1 1074 1 is_stmt 1 view -0
 1982              		.cfi_startproc
 1983              		@ args = 0, pretend = 0, frame = 0
 1984              		@ frame_needed = 0, uses_anonymous_args = 0
1074:Lib/lvgl/src/core/lv_obj_style.c ****     lv_obj_set_style_opa(obj, v, 0);
 1985              		.loc 1 1074 1 is_stmt 0 view .LVU600
 1986 0000 08B5     		push	{r3, lr}
 1987              	.LCFI18:
 1988              		.cfi_def_cfa_offset 8
 1989              		.cfi_offset 3, -8
 1990              		.cfi_offset 14, -4
1075:Lib/lvgl/src/core/lv_obj_style.c **** }
 1991              		.loc 1 1075 5 is_stmt 1 view .LVU601
 1992 0002 0022     		movs	r2, #0
 1993 0004 C9B2     		uxtb	r1, r1
 1994              	.LVL186:
1075:Lib/lvgl/src/core/lv_obj_style.c **** }
 1995              		.loc 1 1075 5 is_stmt 0 view .LVU602
 1996 0006 FFF7FEFF 		bl	lv_obj_set_style_opa
 1997              	.LVL187:
1076:Lib/lvgl/src/core/lv_obj_style.c **** 
 1998              		.loc 1 1076 1 view .LVU603
 1999 000a 08BD     		pop	{r3, pc}
 2000              		.cfi_endproc
 2001              	.LFE267:
 2003              		.section	.text._lv_obj_style_init,"ax",%progbits
 2004              		.align	1
 2005              		.global	_lv_obj_style_init
 2006              		.syntax unified
 2007              		.thumb
 2008              		.thumb_func
 2010              	_lv_obj_style_init:
 2011              	.LFB234:
  82:Lib/lvgl/src/core/lv_obj_style.c ****     _lv_ll_init(style_trans_ll_p, sizeof(trans_t));
 2012              		.loc 1 82 1 is_stmt 1 view -0
 2013              		.cfi_startproc
 2014              		@ args = 0, pretend = 0, frame = 0
 2015              		@ frame_needed = 0, uses_anonymous_args = 0
 2016 0000 08B5     		push	{r3, lr}
 2017              	.LCFI19:
 2018              		.cfi_def_cfa_offset 8
 2019              		.cfi_offset 3, -8
 2020              		.cfi_offset 14, -4
  83:Lib/lvgl/src/core/lv_obj_style.c **** }
 2021              		.loc 1 83 5 view .LVU605
 2022 0002 1421     		movs	r1, #20
 2023 0004 0148     		ldr	r0, .L152
 2024 0006 FFF7FEFF 		bl	_lv_ll_init
 2025              	.LVL188:
  84:Lib/lvgl/src/core/lv_obj_style.c **** 
 2026              		.loc 1 84 1 is_stmt 0 view .LVU606
 2027 000a 08BD     		pop	{r3, pc}
 2028              	.L153:
 2029              		.align	2
 2030              	.L152:
ARM GAS  C:\Users\Alex\AppData\Local\Temp\ccdKwz1H.s 			page 85


 2031 000c 18000000 		.word	lv_global+24
 2032              		.cfi_endproc
 2033              	.LFE234:
 2035              		.section	.text._lv_obj_style_deinit,"ax",%progbits
 2036              		.align	1
 2037              		.global	_lv_obj_style_deinit
 2038              		.syntax unified
 2039              		.thumb
 2040              		.thumb_func
 2042              	_lv_obj_style_deinit:
 2043              	.LFB235:
  87:Lib/lvgl/src/core/lv_obj_style.c ****     _lv_ll_clear(style_trans_ll_p);
 2044              		.loc 1 87 1 is_stmt 1 view -0
 2045              		.cfi_startproc
 2046              		@ args = 0, pretend = 0, frame = 0
 2047              		@ frame_needed = 0, uses_anonymous_args = 0
 2048 0000 10B5     		push	{r4, lr}
 2049              	.LCFI20:
 2050              		.cfi_def_cfa_offset 8
 2051              		.cfi_offset 4, -8
 2052              		.cfi_offset 14, -4
  88:Lib/lvgl/src/core/lv_obj_style.c ****     if(_style_custom_prop_flag_lookup_table != NULL) {
 2053              		.loc 1 88 5 view .LVU608
 2054              	.LVL189:
 2055              	.LBB224:
 2056              	.LBI224:
 2057              		.file 7 "Lib/lvgl/src/core/../misc/lv_ll.h"
   1:Lib/lvgl/src/core/../misc/lv_ll.h **** /**
   2:Lib/lvgl/src/core/../misc/lv_ll.h ****  * @file lv_ll.h
   3:Lib/lvgl/src/core/../misc/lv_ll.h ****  * Handle linked lists. The nodes are dynamically allocated by the 'lv_mem' module.
   4:Lib/lvgl/src/core/../misc/lv_ll.h ****  */
   5:Lib/lvgl/src/core/../misc/lv_ll.h **** 
   6:Lib/lvgl/src/core/../misc/lv_ll.h **** #ifndef LV_LL_H
   7:Lib/lvgl/src/core/../misc/lv_ll.h **** #define LV_LL_H
   8:Lib/lvgl/src/core/../misc/lv_ll.h **** 
   9:Lib/lvgl/src/core/../misc/lv_ll.h **** #ifdef __cplusplus
  10:Lib/lvgl/src/core/../misc/lv_ll.h **** extern "C" {
  11:Lib/lvgl/src/core/../misc/lv_ll.h **** #endif
  12:Lib/lvgl/src/core/../misc/lv_ll.h **** 
  13:Lib/lvgl/src/core/../misc/lv_ll.h **** /*********************
  14:Lib/lvgl/src/core/../misc/lv_ll.h ****  *      INCLUDES
  15:Lib/lvgl/src/core/../misc/lv_ll.h ****  *********************/
  16:Lib/lvgl/src/core/../misc/lv_ll.h **** #include <stdint.h>
  17:Lib/lvgl/src/core/../misc/lv_ll.h **** #include <stddef.h>
  18:Lib/lvgl/src/core/../misc/lv_ll.h **** #include <stdbool.h>
  19:Lib/lvgl/src/core/../misc/lv_ll.h **** 
  20:Lib/lvgl/src/core/../misc/lv_ll.h **** /*********************
  21:Lib/lvgl/src/core/../misc/lv_ll.h ****  *      DEFINES
  22:Lib/lvgl/src/core/../misc/lv_ll.h ****  *********************/
  23:Lib/lvgl/src/core/../misc/lv_ll.h **** 
  24:Lib/lvgl/src/core/../misc/lv_ll.h **** /**********************
  25:Lib/lvgl/src/core/../misc/lv_ll.h ****  *      TYPEDEFS
  26:Lib/lvgl/src/core/../misc/lv_ll.h ****  **********************/
  27:Lib/lvgl/src/core/../misc/lv_ll.h **** 
  28:Lib/lvgl/src/core/../misc/lv_ll.h **** /** Dummy type to make handling easier*/
  29:Lib/lvgl/src/core/../misc/lv_ll.h **** typedef uint8_t lv_ll_node_t;
  30:Lib/lvgl/src/core/../misc/lv_ll.h **** 
ARM GAS  C:\Users\Alex\AppData\Local\Temp\ccdKwz1H.s 			page 86


  31:Lib/lvgl/src/core/../misc/lv_ll.h **** /** Description of a linked list*/
  32:Lib/lvgl/src/core/../misc/lv_ll.h **** typedef struct {
  33:Lib/lvgl/src/core/../misc/lv_ll.h ****     uint32_t n_size;
  34:Lib/lvgl/src/core/../misc/lv_ll.h ****     lv_ll_node_t * head;
  35:Lib/lvgl/src/core/../misc/lv_ll.h ****     lv_ll_node_t * tail;
  36:Lib/lvgl/src/core/../misc/lv_ll.h **** } lv_ll_t;
  37:Lib/lvgl/src/core/../misc/lv_ll.h **** 
  38:Lib/lvgl/src/core/../misc/lv_ll.h **** /**********************
  39:Lib/lvgl/src/core/../misc/lv_ll.h ****  * GLOBAL PROTOTYPES
  40:Lib/lvgl/src/core/../misc/lv_ll.h ****  **********************/
  41:Lib/lvgl/src/core/../misc/lv_ll.h **** 
  42:Lib/lvgl/src/core/../misc/lv_ll.h **** /**
  43:Lib/lvgl/src/core/../misc/lv_ll.h ****  * Initialize linked list
  44:Lib/lvgl/src/core/../misc/lv_ll.h ****  * @param ll_p pointer to lv_ll_t variable
  45:Lib/lvgl/src/core/../misc/lv_ll.h ****  * @param node_size the size of 1 node in bytes
  46:Lib/lvgl/src/core/../misc/lv_ll.h ****  */
  47:Lib/lvgl/src/core/../misc/lv_ll.h **** void _lv_ll_init(lv_ll_t * ll_p, uint32_t node_size);
  48:Lib/lvgl/src/core/../misc/lv_ll.h **** 
  49:Lib/lvgl/src/core/../misc/lv_ll.h **** /**
  50:Lib/lvgl/src/core/../misc/lv_ll.h ****  * Add a new head to a linked list
  51:Lib/lvgl/src/core/../misc/lv_ll.h ****  * @param ll_p pointer to linked list
  52:Lib/lvgl/src/core/../misc/lv_ll.h ****  * @return pointer to the new head
  53:Lib/lvgl/src/core/../misc/lv_ll.h ****  */
  54:Lib/lvgl/src/core/../misc/lv_ll.h **** void * _lv_ll_ins_head(lv_ll_t * ll_p);
  55:Lib/lvgl/src/core/../misc/lv_ll.h **** 
  56:Lib/lvgl/src/core/../misc/lv_ll.h **** /**
  57:Lib/lvgl/src/core/../misc/lv_ll.h ****  * Insert a new node in front of the n_act node
  58:Lib/lvgl/src/core/../misc/lv_ll.h ****  * @param ll_p pointer to linked list
  59:Lib/lvgl/src/core/../misc/lv_ll.h ****  * @param n_act pointer a node
  60:Lib/lvgl/src/core/../misc/lv_ll.h ****  * @return pointer to the new node
  61:Lib/lvgl/src/core/../misc/lv_ll.h ****  */
  62:Lib/lvgl/src/core/../misc/lv_ll.h **** void * _lv_ll_ins_prev(lv_ll_t * ll_p, void * n_act);
  63:Lib/lvgl/src/core/../misc/lv_ll.h **** 
  64:Lib/lvgl/src/core/../misc/lv_ll.h **** /**
  65:Lib/lvgl/src/core/../misc/lv_ll.h ****  * Add a new tail to a linked list
  66:Lib/lvgl/src/core/../misc/lv_ll.h ****  * @param ll_p pointer to linked list
  67:Lib/lvgl/src/core/../misc/lv_ll.h ****  * @return pointer to the new tail
  68:Lib/lvgl/src/core/../misc/lv_ll.h ****  */
  69:Lib/lvgl/src/core/../misc/lv_ll.h **** void * _lv_ll_ins_tail(lv_ll_t * ll_p);
  70:Lib/lvgl/src/core/../misc/lv_ll.h **** 
  71:Lib/lvgl/src/core/../misc/lv_ll.h **** /**
  72:Lib/lvgl/src/core/../misc/lv_ll.h ****  * Remove the node 'node_p' from 'll_p' linked list.
  73:Lib/lvgl/src/core/../misc/lv_ll.h ****  * It does not free the memory of node.
  74:Lib/lvgl/src/core/../misc/lv_ll.h ****  * @param ll_p pointer to the linked list of 'node_p'
  75:Lib/lvgl/src/core/../misc/lv_ll.h ****  * @param node_p pointer to node in 'll_p' linked list
  76:Lib/lvgl/src/core/../misc/lv_ll.h ****  */
  77:Lib/lvgl/src/core/../misc/lv_ll.h **** void _lv_ll_remove(lv_ll_t * ll_p, void * node_p);
  78:Lib/lvgl/src/core/../misc/lv_ll.h **** 
  79:Lib/lvgl/src/core/../misc/lv_ll.h **** void _lv_ll_clear_custom(lv_ll_t * ll_p, void(*cleanup)(void *));
  80:Lib/lvgl/src/core/../misc/lv_ll.h **** 
  81:Lib/lvgl/src/core/../misc/lv_ll.h **** /**
  82:Lib/lvgl/src/core/../misc/lv_ll.h ****  * Remove and free all elements from a linked list. The list remain valid but become empty.
  83:Lib/lvgl/src/core/../misc/lv_ll.h ****  * @param ll_p pointer to linked list
  84:Lib/lvgl/src/core/../misc/lv_ll.h ****  */
  85:Lib/lvgl/src/core/../misc/lv_ll.h **** static inline void _lv_ll_clear(lv_ll_t * ll_p)
 2058              		.loc 7 85 20 view .LVU609
 2059              	.LBB225:
ARM GAS  C:\Users\Alex\AppData\Local\Temp\ccdKwz1H.s 			page 87


  86:Lib/lvgl/src/core/../misc/lv_ll.h **** {
  87:Lib/lvgl/src/core/../misc/lv_ll.h ****     _lv_ll_clear_custom(ll_p, NULL);
 2060              		.loc 7 87 5 view .LVU610
 2061 0002 074C     		ldr	r4, .L157
 2062              	.LVL190:
 2063              		.loc 7 87 5 is_stmt 0 view .LVU611
 2064 0004 0021     		movs	r1, #0
 2065 0006 2046     		mov	r0, r4
 2066 0008 FFF7FEFF 		bl	_lv_ll_clear_custom
 2067              	.LVL191:
 2068              		.loc 7 87 5 view .LVU612
 2069              	.LBE225:
 2070              	.LBE224:
  89:Lib/lvgl/src/core/lv_obj_style.c ****         lv_free(_style_custom_prop_flag_lookup_table);
 2071              		.loc 1 89 5 is_stmt 1 view .LVU613
  89:Lib/lvgl/src/core/lv_obj_style.c ****         lv_free(_style_custom_prop_flag_lookup_table);
 2072              		.loc 1 89 8 is_stmt 0 view .LVU614
 2073 000c A069     		ldr	r0, [r4, #24]
  89:Lib/lvgl/src/core/lv_obj_style.c ****         lv_free(_style_custom_prop_flag_lookup_table);
 2074              		.loc 1 89 7 view .LVU615
 2075 000e 28B1     		cbz	r0, .L154
  90:Lib/lvgl/src/core/lv_obj_style.c ****         _style_custom_prop_flag_lookup_table = NULL;
 2076              		.loc 1 90 9 is_stmt 1 view .LVU616
 2077 0010 FFF7FEFF 		bl	lv_free
 2078              	.LVL192:
  91:Lib/lvgl/src/core/lv_obj_style.c ****     }
 2079              		.loc 1 91 9 view .LVU617
  91:Lib/lvgl/src/core/lv_obj_style.c ****     }
 2080              		.loc 1 91 46 is_stmt 0 view .LVU618
 2081 0014 A4F11803 		sub	r3, r4, #24
 2082 0018 0022     		movs	r2, #0
 2083 001a 1A63     		str	r2, [r3, #48]
 2084              	.L154:
  93:Lib/lvgl/src/core/lv_obj_style.c **** 
 2085              		.loc 1 93 1 view .LVU619
 2086 001c 10BD     		pop	{r4, pc}
 2087              	.L158:
 2088 001e 00BF     		.align	2
 2089              	.L157:
 2090 0020 18000000 		.word	lv_global+24
 2091              		.cfi_endproc
 2092              	.LFE235:
 2094              		.section	.text.lv_obj_enable_style_refresh,"ax",%progbits
 2095              		.align	1
 2096              		.global	lv_obj_enable_style_refresh
 2097              		.syntax unified
 2098              		.thumb
 2099              		.thumb_func
 2101              	lv_obj_enable_style_refresh:
 2102              	.LVL193:
 2103              	.LFB242:
 324:Lib/lvgl/src/core/lv_obj_style.c ****     style_refr = en;
 2104              		.loc 1 324 1 is_stmt 1 view -0
 2105              		.cfi_startproc
 2106              		@ args = 0, pretend = 0, frame = 0
 2107              		@ frame_needed = 0, uses_anonymous_args = 0
 2108              		@ link register save eliminated.
ARM GAS  C:\Users\Alex\AppData\Local\Temp\ccdKwz1H.s 			page 88


 325:Lib/lvgl/src/core/lv_obj_style.c **** }
 2109              		.loc 1 325 5 view .LVU621
 325:Lib/lvgl/src/core/lv_obj_style.c **** }
 2110              		.loc 1 325 16 is_stmt 0 view .LVU622
 2111 0000 014B     		ldr	r3, .L160
 2112 0002 83F82400 		strb	r0, [r3, #36]
 326:Lib/lvgl/src/core/lv_obj_style.c **** 
 2113              		.loc 1 326 1 view .LVU623
 2114 0006 7047     		bx	lr
 2115              	.L161:
 2116              		.align	2
 2117              	.L160:
 2118 0008 00000000 		.word	lv_global
 2119              		.cfi_endproc
 2120              	.LFE242:
 2122              		.section	.text.lv_obj_get_style_prop,"ax",%progbits
 2123              		.align	1
 2124              		.global	lv_obj_get_style_prop
 2125              		.syntax unified
 2126              		.thumb
 2127              		.thumb_func
 2129              	lv_obj_get_style_prop:
 2130              	.LVL194:
 2131              	.LFB244:
 393:Lib/lvgl/src/core/lv_obj_style.c ****     LV_ASSERT_NULL(obj)
 2132              		.loc 1 393 1 is_stmt 1 view -0
 2133              		.cfi_startproc
 2134              		@ args = 0, pretend = 0, frame = 8
 2135              		@ frame_needed = 0, uses_anonymous_args = 0
 394:Lib/lvgl/src/core/lv_obj_style.c **** 
 2136              		.loc 1 394 5 view .LVU625
 394:Lib/lvgl/src/core/lv_obj_style.c **** 
 2137              		.loc 1 394 5 view .LVU626
 2138 0000 A0B1     		cbz	r0, .L164
 393:Lib/lvgl/src/core/lv_obj_style.c ****     LV_ASSERT_NULL(obj)
 2139              		.loc 1 393 1 is_stmt 0 discriminator 2 view .LVU627
 2140 0002 10B5     		push	{r4, lr}
 2141              	.LCFI21:
 2142              		.cfi_def_cfa_offset 8
 2143              		.cfi_offset 4, -8
 2144              		.cfi_offset 14, -4
 2145 0004 82B0     		sub	sp, sp, #8
 2146              	.LCFI22:
 2147              		.cfi_def_cfa_offset 16
 2148 0006 1446     		mov	r4, r2
 2149 0008 8446     		mov	ip, r0
 394:Lib/lvgl/src/core/lv_obj_style.c **** 
 2150              		.loc 1 394 5 is_stmt 1 discriminator 2 view .LVU628
 396:Lib/lvgl/src/core/lv_obj_style.c ****     lv_style_value_t value_act = { .ptr = NULL };
 2151              		.loc 1 396 5 discriminator 2 view .LVU629
 396:Lib/lvgl/src/core/lv_obj_style.c ****     lv_style_value_t value_act = { .ptr = NULL };
 2152              		.loc 1 396 46 is_stmt 0 discriminator 2 view .LVU630
 2153 000a 008D     		ldrh	r0, [r0, #40]
 2154              	.LVL195:
 397:Lib/lvgl/src/core/lv_obj_style.c ****     lv_style_res_t found;
 2155              		.loc 1 397 5 is_stmt 1 discriminator 2 view .LVU631
 397:Lib/lvgl/src/core/lv_obj_style.c ****     lv_style_res_t found;
ARM GAS  C:\Users\Alex\AppData\Local\Temp\ccdKwz1H.s 			page 89


 2156              		.loc 1 397 22 is_stmt 0 discriminator 2 view .LVU632
 2157 000c 0023     		movs	r3, #0
 2158 000e 0093     		str	r3, [sp]
 398:Lib/lvgl/src/core/lv_obj_style.c **** 
 2159              		.loc 1 398 5 is_stmt 1 discriminator 2 view .LVU633
 400:Lib/lvgl/src/core/lv_obj_style.c ****     if(found == LV_STYLE_RES_FOUND) return value_act;
 2160              		.loc 1 400 5 discriminator 2 view .LVU634
 400:Lib/lvgl/src/core/lv_obj_style.c ****     if(found == LV_STYLE_RES_FOUND) return value_act;
 2161              		.loc 1 400 13 is_stmt 0 discriminator 2 view .LVU635
 2162 0010 6B46     		mov	r3, sp
 2163 0012 0143     		orrs	r1, r1, r0
 2164              	.LVL196:
 400:Lib/lvgl/src/core/lv_obj_style.c ****     if(found == LV_STYLE_RES_FOUND) return value_act;
 2165              		.loc 1 400 13 discriminator 2 view .LVU636
 2166 0014 6046     		mov	r0, ip
 2167 0016 FFF7FEFF 		bl	get_selector_style_prop
 2168              	.LVL197:
 401:Lib/lvgl/src/core/lv_obj_style.c **** 
 2169              		.loc 1 401 5 is_stmt 1 discriminator 2 view .LVU637
 401:Lib/lvgl/src/core/lv_obj_style.c **** 
 2170              		.loc 1 401 7 is_stmt 0 discriminator 2 view .LVU638
 2171 001a 0128     		cmp	r0, #1
 2172 001c 07D0     		beq	.L169
 403:Lib/lvgl/src/core/lv_obj_style.c **** }
 2173              		.loc 1 403 5 is_stmt 1 view .LVU639
 403:Lib/lvgl/src/core/lv_obj_style.c **** }
 2174              		.loc 1 403 12 is_stmt 0 view .LVU640
 2175 001e 2046     		mov	r0, r4
 2176              	.LVL198:
 403:Lib/lvgl/src/core/lv_obj_style.c **** }
 2177              		.loc 1 403 12 view .LVU641
 2178 0020 FFF7FEFF 		bl	lv_style_prop_get_default_inlined
 2179              	.LVL199:
 2180 0024 0190     		str	r0, [sp, #4]
 2181              	.L166:
 404:Lib/lvgl/src/core/lv_obj_style.c **** 
 2182              		.loc 1 404 1 view .LVU642
 2183 0026 0198     		ldr	r0, [sp, #4]
 2184 0028 02B0     		add	sp, sp, #8
 2185              	.LCFI23:
 2186              		.cfi_def_cfa_offset 8
 2187              		@ sp needed
 2188 002a 10BD     		pop	{r4, pc}
 2189              	.LVL200:
 2190              	.L164:
 2191              	.LCFI24:
 2192              		.cfi_def_cfa_offset 0
 2193              		.cfi_restore 4
 2194              		.cfi_restore 14
 394:Lib/lvgl/src/core/lv_obj_style.c **** 
 2195              		.loc 1 394 5 is_stmt 1 discriminator 1 view .LVU643
 394:Lib/lvgl/src/core/lv_obj_style.c **** 
 2196              		.loc 1 394 5 discriminator 1 view .LVU644
 394:Lib/lvgl/src/core/lv_obj_style.c **** 
 2197              		.loc 1 394 5 discriminator 1 view .LVU645
 394:Lib/lvgl/src/core/lv_obj_style.c **** 
 2198              		.loc 1 394 5 discriminator 1 view .LVU646
ARM GAS  C:\Users\Alex\AppData\Local\Temp\ccdKwz1H.s 			page 90


 394:Lib/lvgl/src/core/lv_obj_style.c **** 
 2199              		.loc 1 394 5 discriminator 1 view .LVU647
 2200 002c FEE7     		b	.L164
 2201              	.LVL201:
 2202              	.L169:
 2203              	.LCFI25:
 2204              		.cfi_def_cfa_offset 16
 2205              		.cfi_offset 4, -8
 2206              		.cfi_offset 14, -4
 401:Lib/lvgl/src/core/lv_obj_style.c **** 
 2207              		.loc 1 401 37 discriminator 1 view .LVU648
 401:Lib/lvgl/src/core/lv_obj_style.c **** 
 2208              		.loc 1 401 44 is_stmt 0 discriminator 1 view .LVU649
 2209 002e 009B     		ldr	r3, [sp]
 2210 0030 0193     		str	r3, [sp, #4]
 2211 0032 F8E7     		b	.L166
 2212              		.cfi_endproc
 2213              	.LFE244:
 2215              		.section	.text.calculate_layer_type,"ax",%progbits
 2216              		.align	1
 2217              		.syntax unified
 2218              		.thumb
 2219              		.thumb_func
 2221              	calculate_layer_type:
 2222              	.LVL202:
 2223              	.LFB265:
1012:Lib/lvgl/src/core/lv_obj_style.c ****     if(lv_obj_get_style_transform_rotation(obj, 0) != 0) return LV_LAYER_TYPE_TRANSFORM;
 2224              		.loc 1 1012 1 is_stmt 1 view -0
 2225              		.cfi_startproc
 2226              		@ args = 0, pretend = 0, frame = 8
 2227              		@ frame_needed = 0, uses_anonymous_args = 0
1012:Lib/lvgl/src/core/lv_obj_style.c ****     if(lv_obj_get_style_transform_rotation(obj, 0) != 0) return LV_LAYER_TYPE_TRANSFORM;
 2228              		.loc 1 1012 1 is_stmt 0 view .LVU651
 2229 0000 10B5     		push	{r4, lr}
 2230              	.LCFI26:
 2231              		.cfi_def_cfa_offset 8
 2232              		.cfi_offset 4, -8
 2233              		.cfi_offset 14, -4
 2234 0002 82B0     		sub	sp, sp, #8
 2235              	.LCFI27:
 2236              		.cfi_def_cfa_offset 16
 2237 0004 0446     		mov	r4, r0
1013:Lib/lvgl/src/core/lv_obj_style.c ****     if(lv_obj_get_style_transform_scale_x(obj, 0) != 256) return LV_LAYER_TYPE_TRANSFORM;
 2238              		.loc 1 1013 5 is_stmt 1 view .LVU652
 2239              	.LVL203:
 2240              	.LBB226:
 2241              	.LBI226:
 2242              		.file 8 "Lib/lvgl/src/core/lv_obj_style_gen.h"
   1:Lib/lvgl/src/core/lv_obj_style_gen.h **** 
   2:Lib/lvgl/src/core/lv_obj_style_gen.h **** /*
   3:Lib/lvgl/src/core/lv_obj_style_gen.h ****  **********************************************************************
   4:Lib/lvgl/src/core/lv_obj_style_gen.h ****  *                            DO NOT EDIT
   5:Lib/lvgl/src/core/lv_obj_style_gen.h ****  * This file is automatically generated by "style_api_gen.py"
   6:Lib/lvgl/src/core/lv_obj_style_gen.h ****  **********************************************************************
   7:Lib/lvgl/src/core/lv_obj_style_gen.h ****  */
   8:Lib/lvgl/src/core/lv_obj_style_gen.h **** 
   9:Lib/lvgl/src/core/lv_obj_style_gen.h **** #ifndef LV_OBJ_STYLE_GEN_H
ARM GAS  C:\Users\Alex\AppData\Local\Temp\ccdKwz1H.s 			page 91


  10:Lib/lvgl/src/core/lv_obj_style_gen.h **** #define LV_OBJ_STYLE_GEN_H
  11:Lib/lvgl/src/core/lv_obj_style_gen.h **** 
  12:Lib/lvgl/src/core/lv_obj_style_gen.h **** #include "../misc/lv_area.h"
  13:Lib/lvgl/src/core/lv_obj_style_gen.h **** #include "../misc/lv_style.h"
  14:Lib/lvgl/src/core/lv_obj_style_gen.h **** #include "../core/lv_obj_style.h"
  15:Lib/lvgl/src/core/lv_obj_style_gen.h **** 
  16:Lib/lvgl/src/core/lv_obj_style_gen.h **** static inline int32_t lv_obj_get_style_width(const lv_obj_t * obj, uint32_t part)
  17:Lib/lvgl/src/core/lv_obj_style_gen.h **** {
  18:Lib/lvgl/src/core/lv_obj_style_gen.h ****     lv_style_value_t v = lv_obj_get_style_prop(obj, part, LV_STYLE_WIDTH);
  19:Lib/lvgl/src/core/lv_obj_style_gen.h ****     return (int32_t)v.num;
  20:Lib/lvgl/src/core/lv_obj_style_gen.h **** }
  21:Lib/lvgl/src/core/lv_obj_style_gen.h **** 
  22:Lib/lvgl/src/core/lv_obj_style_gen.h **** static inline int32_t lv_obj_get_style_min_width(const lv_obj_t * obj, uint32_t part)
  23:Lib/lvgl/src/core/lv_obj_style_gen.h **** {
  24:Lib/lvgl/src/core/lv_obj_style_gen.h ****     lv_style_value_t v = lv_obj_get_style_prop(obj, part, LV_STYLE_MIN_WIDTH);
  25:Lib/lvgl/src/core/lv_obj_style_gen.h ****     return (int32_t)v.num;
  26:Lib/lvgl/src/core/lv_obj_style_gen.h **** }
  27:Lib/lvgl/src/core/lv_obj_style_gen.h **** 
  28:Lib/lvgl/src/core/lv_obj_style_gen.h **** static inline int32_t lv_obj_get_style_max_width(const lv_obj_t * obj, uint32_t part)
  29:Lib/lvgl/src/core/lv_obj_style_gen.h **** {
  30:Lib/lvgl/src/core/lv_obj_style_gen.h ****     lv_style_value_t v = lv_obj_get_style_prop(obj, part, LV_STYLE_MAX_WIDTH);
  31:Lib/lvgl/src/core/lv_obj_style_gen.h ****     return (int32_t)v.num;
  32:Lib/lvgl/src/core/lv_obj_style_gen.h **** }
  33:Lib/lvgl/src/core/lv_obj_style_gen.h **** 
  34:Lib/lvgl/src/core/lv_obj_style_gen.h **** static inline int32_t lv_obj_get_style_height(const lv_obj_t * obj, uint32_t part)
  35:Lib/lvgl/src/core/lv_obj_style_gen.h **** {
  36:Lib/lvgl/src/core/lv_obj_style_gen.h ****     lv_style_value_t v = lv_obj_get_style_prop(obj, part, LV_STYLE_HEIGHT);
  37:Lib/lvgl/src/core/lv_obj_style_gen.h ****     return (int32_t)v.num;
  38:Lib/lvgl/src/core/lv_obj_style_gen.h **** }
  39:Lib/lvgl/src/core/lv_obj_style_gen.h **** 
  40:Lib/lvgl/src/core/lv_obj_style_gen.h **** static inline int32_t lv_obj_get_style_min_height(const lv_obj_t * obj, uint32_t part)
  41:Lib/lvgl/src/core/lv_obj_style_gen.h **** {
  42:Lib/lvgl/src/core/lv_obj_style_gen.h ****     lv_style_value_t v = lv_obj_get_style_prop(obj, part, LV_STYLE_MIN_HEIGHT);
  43:Lib/lvgl/src/core/lv_obj_style_gen.h ****     return (int32_t)v.num;
  44:Lib/lvgl/src/core/lv_obj_style_gen.h **** }
  45:Lib/lvgl/src/core/lv_obj_style_gen.h **** 
  46:Lib/lvgl/src/core/lv_obj_style_gen.h **** static inline int32_t lv_obj_get_style_max_height(const lv_obj_t * obj, uint32_t part)
  47:Lib/lvgl/src/core/lv_obj_style_gen.h **** {
  48:Lib/lvgl/src/core/lv_obj_style_gen.h ****     lv_style_value_t v = lv_obj_get_style_prop(obj, part, LV_STYLE_MAX_HEIGHT);
  49:Lib/lvgl/src/core/lv_obj_style_gen.h ****     return (int32_t)v.num;
  50:Lib/lvgl/src/core/lv_obj_style_gen.h **** }
  51:Lib/lvgl/src/core/lv_obj_style_gen.h **** 
  52:Lib/lvgl/src/core/lv_obj_style_gen.h **** static inline int32_t lv_obj_get_style_length(const lv_obj_t * obj, uint32_t part)
  53:Lib/lvgl/src/core/lv_obj_style_gen.h **** {
  54:Lib/lvgl/src/core/lv_obj_style_gen.h ****     lv_style_value_t v = lv_obj_get_style_prop(obj, part, LV_STYLE_LENGTH);
  55:Lib/lvgl/src/core/lv_obj_style_gen.h ****     return (int32_t)v.num;
  56:Lib/lvgl/src/core/lv_obj_style_gen.h **** }
  57:Lib/lvgl/src/core/lv_obj_style_gen.h **** 
  58:Lib/lvgl/src/core/lv_obj_style_gen.h **** static inline int32_t lv_obj_get_style_x(const lv_obj_t * obj, uint32_t part)
  59:Lib/lvgl/src/core/lv_obj_style_gen.h **** {
  60:Lib/lvgl/src/core/lv_obj_style_gen.h ****     lv_style_value_t v = lv_obj_get_style_prop(obj, part, LV_STYLE_X);
  61:Lib/lvgl/src/core/lv_obj_style_gen.h ****     return (int32_t)v.num;
  62:Lib/lvgl/src/core/lv_obj_style_gen.h **** }
  63:Lib/lvgl/src/core/lv_obj_style_gen.h **** 
  64:Lib/lvgl/src/core/lv_obj_style_gen.h **** static inline int32_t lv_obj_get_style_y(const lv_obj_t * obj, uint32_t part)
  65:Lib/lvgl/src/core/lv_obj_style_gen.h **** {
  66:Lib/lvgl/src/core/lv_obj_style_gen.h ****     lv_style_value_t v = lv_obj_get_style_prop(obj, part, LV_STYLE_Y);
ARM GAS  C:\Users\Alex\AppData\Local\Temp\ccdKwz1H.s 			page 92


  67:Lib/lvgl/src/core/lv_obj_style_gen.h ****     return (int32_t)v.num;
  68:Lib/lvgl/src/core/lv_obj_style_gen.h **** }
  69:Lib/lvgl/src/core/lv_obj_style_gen.h **** 
  70:Lib/lvgl/src/core/lv_obj_style_gen.h **** static inline lv_align_t lv_obj_get_style_align(const lv_obj_t * obj, uint32_t part)
  71:Lib/lvgl/src/core/lv_obj_style_gen.h **** {
  72:Lib/lvgl/src/core/lv_obj_style_gen.h ****     lv_style_value_t v = lv_obj_get_style_prop(obj, part, LV_STYLE_ALIGN);
  73:Lib/lvgl/src/core/lv_obj_style_gen.h ****     return (lv_align_t)v.num;
  74:Lib/lvgl/src/core/lv_obj_style_gen.h **** }
  75:Lib/lvgl/src/core/lv_obj_style_gen.h **** 
  76:Lib/lvgl/src/core/lv_obj_style_gen.h **** static inline int32_t lv_obj_get_style_transform_width(const lv_obj_t * obj, uint32_t part)
  77:Lib/lvgl/src/core/lv_obj_style_gen.h **** {
  78:Lib/lvgl/src/core/lv_obj_style_gen.h ****     lv_style_value_t v = lv_obj_get_style_prop(obj, part, LV_STYLE_TRANSFORM_WIDTH);
  79:Lib/lvgl/src/core/lv_obj_style_gen.h ****     return (int32_t)v.num;
  80:Lib/lvgl/src/core/lv_obj_style_gen.h **** }
  81:Lib/lvgl/src/core/lv_obj_style_gen.h **** 
  82:Lib/lvgl/src/core/lv_obj_style_gen.h **** static inline int32_t lv_obj_get_style_transform_height(const lv_obj_t * obj, uint32_t part)
  83:Lib/lvgl/src/core/lv_obj_style_gen.h **** {
  84:Lib/lvgl/src/core/lv_obj_style_gen.h ****     lv_style_value_t v = lv_obj_get_style_prop(obj, part, LV_STYLE_TRANSFORM_HEIGHT);
  85:Lib/lvgl/src/core/lv_obj_style_gen.h ****     return (int32_t)v.num;
  86:Lib/lvgl/src/core/lv_obj_style_gen.h **** }
  87:Lib/lvgl/src/core/lv_obj_style_gen.h **** 
  88:Lib/lvgl/src/core/lv_obj_style_gen.h **** static inline int32_t lv_obj_get_style_translate_x(const lv_obj_t * obj, uint32_t part)
  89:Lib/lvgl/src/core/lv_obj_style_gen.h **** {
  90:Lib/lvgl/src/core/lv_obj_style_gen.h ****     lv_style_value_t v = lv_obj_get_style_prop(obj, part, LV_STYLE_TRANSLATE_X);
  91:Lib/lvgl/src/core/lv_obj_style_gen.h ****     return (int32_t)v.num;
  92:Lib/lvgl/src/core/lv_obj_style_gen.h **** }
  93:Lib/lvgl/src/core/lv_obj_style_gen.h **** 
  94:Lib/lvgl/src/core/lv_obj_style_gen.h **** static inline int32_t lv_obj_get_style_translate_y(const lv_obj_t * obj, uint32_t part)
  95:Lib/lvgl/src/core/lv_obj_style_gen.h **** {
  96:Lib/lvgl/src/core/lv_obj_style_gen.h ****     lv_style_value_t v = lv_obj_get_style_prop(obj, part, LV_STYLE_TRANSLATE_Y);
  97:Lib/lvgl/src/core/lv_obj_style_gen.h ****     return (int32_t)v.num;
  98:Lib/lvgl/src/core/lv_obj_style_gen.h **** }
  99:Lib/lvgl/src/core/lv_obj_style_gen.h **** 
 100:Lib/lvgl/src/core/lv_obj_style_gen.h **** static inline int32_t lv_obj_get_style_transform_scale_x(const lv_obj_t * obj, uint32_t part)
 101:Lib/lvgl/src/core/lv_obj_style_gen.h **** {
 102:Lib/lvgl/src/core/lv_obj_style_gen.h ****     lv_style_value_t v = lv_obj_get_style_prop(obj, part, LV_STYLE_TRANSFORM_SCALE_X);
 103:Lib/lvgl/src/core/lv_obj_style_gen.h ****     return (int32_t)v.num;
 104:Lib/lvgl/src/core/lv_obj_style_gen.h **** }
 105:Lib/lvgl/src/core/lv_obj_style_gen.h **** 
 106:Lib/lvgl/src/core/lv_obj_style_gen.h **** static inline int32_t lv_obj_get_style_transform_scale_y(const lv_obj_t * obj, uint32_t part)
 107:Lib/lvgl/src/core/lv_obj_style_gen.h **** {
 108:Lib/lvgl/src/core/lv_obj_style_gen.h ****     lv_style_value_t v = lv_obj_get_style_prop(obj, part, LV_STYLE_TRANSFORM_SCALE_Y);
 109:Lib/lvgl/src/core/lv_obj_style_gen.h ****     return (int32_t)v.num;
 110:Lib/lvgl/src/core/lv_obj_style_gen.h **** }
 111:Lib/lvgl/src/core/lv_obj_style_gen.h **** 
 112:Lib/lvgl/src/core/lv_obj_style_gen.h **** static inline int32_t lv_obj_get_style_transform_rotation(const lv_obj_t * obj, uint32_t part)
 2243              		.loc 8 112 23 view .LVU653
 2244              	.LBB227:
 113:Lib/lvgl/src/core/lv_obj_style_gen.h **** {
 114:Lib/lvgl/src/core/lv_obj_style_gen.h ****     lv_style_value_t v = lv_obj_get_style_prop(obj, part, LV_STYLE_TRANSFORM_ROTATION);
 2245              		.loc 8 114 5 view .LVU654
 2246              		.loc 8 114 26 is_stmt 0 view .LVU655
 2247 0006 6E22     		movs	r2, #110
 2248 0008 0021     		movs	r1, #0
 2249 000a FFF7FEFF 		bl	lv_obj_get_style_prop
 2250              	.LVL204:
 2251              		.loc 8 114 26 view .LVU656
ARM GAS  C:\Users\Alex\AppData\Local\Temp\ccdKwz1H.s 			page 93


 2252 000e 0190     		str	r0, [sp, #4]
 115:Lib/lvgl/src/core/lv_obj_style_gen.h ****     return (int32_t)v.num;
 2253              		.loc 8 115 5 is_stmt 1 view .LVU657
 2254              	.LVL205:
 2255              		.loc 8 115 5 is_stmt 0 view .LVU658
 2256              	.LBE227:
 2257              	.LBE226:
1013:Lib/lvgl/src/core/lv_obj_style.c ****     if(lv_obj_get_style_transform_scale_x(obj, 0) != 256) return LV_LAYER_TYPE_TRANSFORM;
 2258              		.loc 1 1013 7 view .LVU659
 2259 0010 0028     		cmp	r0, #0
 2260 0012 39D1     		bne	.L172
1014:Lib/lvgl/src/core/lv_obj_style.c ****     if(lv_obj_get_style_transform_scale_y(obj, 0) != 256) return LV_LAYER_TYPE_TRANSFORM;
 2261              		.loc 1 1014 5 is_stmt 1 view .LVU660
 2262              	.LVL206:
 2263              	.LBB228:
 2264              	.LBI228:
 100:Lib/lvgl/src/core/lv_obj_style_gen.h **** {
 2265              		.loc 8 100 23 view .LVU661
 2266              	.LBB229:
 102:Lib/lvgl/src/core/lv_obj_style_gen.h ****     return (int32_t)v.num;
 2267              		.loc 8 102 5 view .LVU662
 102:Lib/lvgl/src/core/lv_obj_style_gen.h ****     return (int32_t)v.num;
 2268              		.loc 8 102 26 is_stmt 0 view .LVU663
 2269 0014 6C22     		movs	r2, #108
 2270 0016 0021     		movs	r1, #0
 2271 0018 2046     		mov	r0, r4
 2272 001a FFF7FEFF 		bl	lv_obj_get_style_prop
 2273              	.LVL207:
 2274 001e 0190     		str	r0, [sp, #4]
 103:Lib/lvgl/src/core/lv_obj_style_gen.h **** }
 2275              		.loc 8 103 5 is_stmt 1 view .LVU664
 2276              	.LVL208:
 103:Lib/lvgl/src/core/lv_obj_style_gen.h **** }
 2277              		.loc 8 103 5 is_stmt 0 view .LVU665
 2278              	.LBE229:
 2279              	.LBE228:
1014:Lib/lvgl/src/core/lv_obj_style.c ****     if(lv_obj_get_style_transform_scale_y(obj, 0) != 256) return LV_LAYER_TYPE_TRANSFORM;
 2280              		.loc 1 1014 7 view .LVU666
 2281 0020 B0F5807F 		cmp	r0, #256
 2282 0024 01D0     		beq	.L180
1014:Lib/lvgl/src/core/lv_obj_style.c ****     if(lv_obj_get_style_transform_scale_y(obj, 0) != 256) return LV_LAYER_TYPE_TRANSFORM;
 2283              		.loc 1 1014 66 view .LVU667
 2284 0026 0220     		movs	r0, #2
 2285 0028 2FE0     		b	.L171
 2286              	.L180:
1015:Lib/lvgl/src/core/lv_obj_style.c ****     if(lv_obj_get_style_transform_skew_x(obj, 0) != 0) return LV_LAYER_TYPE_TRANSFORM;
 2287              		.loc 1 1015 5 is_stmt 1 view .LVU668
 2288              	.LVL209:
 2289              	.LBB230:
 2290              	.LBI230:
 106:Lib/lvgl/src/core/lv_obj_style_gen.h **** {
 2291              		.loc 8 106 23 view .LVU669
 2292              	.LBB231:
 108:Lib/lvgl/src/core/lv_obj_style_gen.h ****     return (int32_t)v.num;
 2293              		.loc 8 108 5 view .LVU670
 108:Lib/lvgl/src/core/lv_obj_style_gen.h ****     return (int32_t)v.num;
 2294              		.loc 8 108 26 is_stmt 0 view .LVU671
ARM GAS  C:\Users\Alex\AppData\Local\Temp\ccdKwz1H.s 			page 94


 2295 002a 6D22     		movs	r2, #109
 2296 002c 0021     		movs	r1, #0
 2297 002e 2046     		mov	r0, r4
 2298 0030 FFF7FEFF 		bl	lv_obj_get_style_prop
 2299              	.LVL210:
 2300 0034 0190     		str	r0, [sp, #4]
 109:Lib/lvgl/src/core/lv_obj_style_gen.h **** }
 2301              		.loc 8 109 5 is_stmt 1 view .LVU672
 2302              	.LVL211:
 109:Lib/lvgl/src/core/lv_obj_style_gen.h **** }
 2303              		.loc 8 109 5 is_stmt 0 view .LVU673
 2304              	.LBE231:
 2305              	.LBE230:
1015:Lib/lvgl/src/core/lv_obj_style.c ****     if(lv_obj_get_style_transform_skew_x(obj, 0) != 0) return LV_LAYER_TYPE_TRANSFORM;
 2306              		.loc 1 1015 7 view .LVU674
 2307 0036 B0F5807F 		cmp	r0, #256
 2308 003a 01D0     		beq	.L181
1015:Lib/lvgl/src/core/lv_obj_style.c ****     if(lv_obj_get_style_transform_skew_x(obj, 0) != 0) return LV_LAYER_TYPE_TRANSFORM;
 2309              		.loc 1 1015 66 view .LVU675
 2310 003c 0220     		movs	r0, #2
 2311 003e 24E0     		b	.L171
 2312              	.L181:
1016:Lib/lvgl/src/core/lv_obj_style.c ****     if(lv_obj_get_style_transform_skew_y(obj, 0) != 0) return LV_LAYER_TYPE_TRANSFORM;
 2313              		.loc 1 1016 5 is_stmt 1 view .LVU676
 2314              	.LVL212:
 2315              	.LBB232:
 2316              	.LBI232:
 116:Lib/lvgl/src/core/lv_obj_style_gen.h **** }
 117:Lib/lvgl/src/core/lv_obj_style_gen.h **** 
 118:Lib/lvgl/src/core/lv_obj_style_gen.h **** static inline int32_t lv_obj_get_style_transform_pivot_x(const lv_obj_t * obj, uint32_t part)
 119:Lib/lvgl/src/core/lv_obj_style_gen.h **** {
 120:Lib/lvgl/src/core/lv_obj_style_gen.h ****     lv_style_value_t v = lv_obj_get_style_prop(obj, part, LV_STYLE_TRANSFORM_PIVOT_X);
 121:Lib/lvgl/src/core/lv_obj_style_gen.h ****     return (int32_t)v.num;
 122:Lib/lvgl/src/core/lv_obj_style_gen.h **** }
 123:Lib/lvgl/src/core/lv_obj_style_gen.h **** 
 124:Lib/lvgl/src/core/lv_obj_style_gen.h **** static inline int32_t lv_obj_get_style_transform_pivot_y(const lv_obj_t * obj, uint32_t part)
 125:Lib/lvgl/src/core/lv_obj_style_gen.h **** {
 126:Lib/lvgl/src/core/lv_obj_style_gen.h ****     lv_style_value_t v = lv_obj_get_style_prop(obj, part, LV_STYLE_TRANSFORM_PIVOT_Y);
 127:Lib/lvgl/src/core/lv_obj_style_gen.h ****     return (int32_t)v.num;
 128:Lib/lvgl/src/core/lv_obj_style_gen.h **** }
 129:Lib/lvgl/src/core/lv_obj_style_gen.h **** 
 130:Lib/lvgl/src/core/lv_obj_style_gen.h **** static inline int32_t lv_obj_get_style_transform_skew_x(const lv_obj_t * obj, uint32_t part)
 2317              		.loc 8 130 23 view .LVU677
 2318              	.LBB233:
 131:Lib/lvgl/src/core/lv_obj_style_gen.h **** {
 132:Lib/lvgl/src/core/lv_obj_style_gen.h ****     lv_style_value_t v = lv_obj_get_style_prop(obj, part, LV_STYLE_TRANSFORM_SKEW_X);
 2319              		.loc 8 132 5 view .LVU678
 2320              		.loc 8 132 26 is_stmt 0 view .LVU679
 2321 0040 7122     		movs	r2, #113
 2322 0042 0021     		movs	r1, #0
 2323 0044 2046     		mov	r0, r4
 2324 0046 FFF7FEFF 		bl	lv_obj_get_style_prop
 2325              	.LVL213:
 2326 004a 0190     		str	r0, [sp, #4]
 133:Lib/lvgl/src/core/lv_obj_style_gen.h ****     return (int32_t)v.num;
 2327              		.loc 8 133 5 is_stmt 1 view .LVU680
 2328              	.LVL214:
ARM GAS  C:\Users\Alex\AppData\Local\Temp\ccdKwz1H.s 			page 95


 2329              		.loc 8 133 5 is_stmt 0 view .LVU681
 2330              	.LBE233:
 2331              	.LBE232:
1016:Lib/lvgl/src/core/lv_obj_style.c ****     if(lv_obj_get_style_transform_skew_y(obj, 0) != 0) return LV_LAYER_TYPE_TRANSFORM;
 2332              		.loc 1 1016 7 view .LVU682
 2333 004c F8B9     		cbnz	r0, .L175
1017:Lib/lvgl/src/core/lv_obj_style.c ****     if(lv_obj_get_style_opa_layered(obj, 0) != LV_OPA_COVER) return LV_LAYER_TYPE_SIMPLE;
 2334              		.loc 1 1017 5 is_stmt 1 view .LVU683
 2335              	.LVL215:
 2336              	.LBB234:
 2337              	.LBI234:
 134:Lib/lvgl/src/core/lv_obj_style_gen.h **** }
 135:Lib/lvgl/src/core/lv_obj_style_gen.h **** 
 136:Lib/lvgl/src/core/lv_obj_style_gen.h **** static inline int32_t lv_obj_get_style_transform_skew_y(const lv_obj_t * obj, uint32_t part)
 2338              		.loc 8 136 23 view .LVU684
 2339              	.LBB235:
 137:Lib/lvgl/src/core/lv_obj_style_gen.h **** {
 138:Lib/lvgl/src/core/lv_obj_style_gen.h ****     lv_style_value_t v = lv_obj_get_style_prop(obj, part, LV_STYLE_TRANSFORM_SKEW_Y);
 2340              		.loc 8 138 5 view .LVU685
 2341              		.loc 8 138 26 is_stmt 0 view .LVU686
 2342 004e 7222     		movs	r2, #114
 2343 0050 0021     		movs	r1, #0
 2344 0052 2046     		mov	r0, r4
 2345 0054 FFF7FEFF 		bl	lv_obj_get_style_prop
 2346              	.LVL216:
 2347 0058 0190     		str	r0, [sp, #4]
 139:Lib/lvgl/src/core/lv_obj_style_gen.h ****     return (int32_t)v.num;
 2348              		.loc 8 139 5 is_stmt 1 view .LVU687
 2349              	.LVL217:
 2350              		.loc 8 139 5 is_stmt 0 view .LVU688
 2351              	.LBE235:
 2352              	.LBE234:
1017:Lib/lvgl/src/core/lv_obj_style.c ****     if(lv_obj_get_style_opa_layered(obj, 0) != LV_OPA_COVER) return LV_LAYER_TYPE_SIMPLE;
 2353              		.loc 1 1017 7 view .LVU689
 2354 005a D0B9     		cbnz	r0, .L176
1018:Lib/lvgl/src/core/lv_obj_style.c ****     if(lv_obj_get_style_blend_mode(obj, 0) != LV_BLEND_MODE_NORMAL) return LV_LAYER_TYPE_SIMPLE;
 2355              		.loc 1 1018 5 is_stmt 1 view .LVU690
 2356              	.LVL218:
 2357              	.LBB236:
 2358              	.LBI236:
 140:Lib/lvgl/src/core/lv_obj_style_gen.h **** }
 141:Lib/lvgl/src/core/lv_obj_style_gen.h **** 
 142:Lib/lvgl/src/core/lv_obj_style_gen.h **** static inline int32_t lv_obj_get_style_pad_top(const lv_obj_t * obj, uint32_t part)
 143:Lib/lvgl/src/core/lv_obj_style_gen.h **** {
 144:Lib/lvgl/src/core/lv_obj_style_gen.h ****     lv_style_value_t v = lv_obj_get_style_prop(obj, part, LV_STYLE_PAD_TOP);
 145:Lib/lvgl/src/core/lv_obj_style_gen.h ****     return (int32_t)v.num;
 146:Lib/lvgl/src/core/lv_obj_style_gen.h **** }
 147:Lib/lvgl/src/core/lv_obj_style_gen.h **** 
 148:Lib/lvgl/src/core/lv_obj_style_gen.h **** static inline int32_t lv_obj_get_style_pad_bottom(const lv_obj_t * obj, uint32_t part)
 149:Lib/lvgl/src/core/lv_obj_style_gen.h **** {
 150:Lib/lvgl/src/core/lv_obj_style_gen.h ****     lv_style_value_t v = lv_obj_get_style_prop(obj, part, LV_STYLE_PAD_BOTTOM);
 151:Lib/lvgl/src/core/lv_obj_style_gen.h ****     return (int32_t)v.num;
 152:Lib/lvgl/src/core/lv_obj_style_gen.h **** }
 153:Lib/lvgl/src/core/lv_obj_style_gen.h **** 
 154:Lib/lvgl/src/core/lv_obj_style_gen.h **** static inline int32_t lv_obj_get_style_pad_left(const lv_obj_t * obj, uint32_t part)
 155:Lib/lvgl/src/core/lv_obj_style_gen.h **** {
 156:Lib/lvgl/src/core/lv_obj_style_gen.h ****     lv_style_value_t v = lv_obj_get_style_prop(obj, part, LV_STYLE_PAD_LEFT);
ARM GAS  C:\Users\Alex\AppData\Local\Temp\ccdKwz1H.s 			page 96


 157:Lib/lvgl/src/core/lv_obj_style_gen.h ****     return (int32_t)v.num;
 158:Lib/lvgl/src/core/lv_obj_style_gen.h **** }
 159:Lib/lvgl/src/core/lv_obj_style_gen.h **** 
 160:Lib/lvgl/src/core/lv_obj_style_gen.h **** static inline int32_t lv_obj_get_style_pad_right(const lv_obj_t * obj, uint32_t part)
 161:Lib/lvgl/src/core/lv_obj_style_gen.h **** {
 162:Lib/lvgl/src/core/lv_obj_style_gen.h ****     lv_style_value_t v = lv_obj_get_style_prop(obj, part, LV_STYLE_PAD_RIGHT);
 163:Lib/lvgl/src/core/lv_obj_style_gen.h ****     return (int32_t)v.num;
 164:Lib/lvgl/src/core/lv_obj_style_gen.h **** }
 165:Lib/lvgl/src/core/lv_obj_style_gen.h **** 
 166:Lib/lvgl/src/core/lv_obj_style_gen.h **** static inline int32_t lv_obj_get_style_pad_row(const lv_obj_t * obj, uint32_t part)
 167:Lib/lvgl/src/core/lv_obj_style_gen.h **** {
 168:Lib/lvgl/src/core/lv_obj_style_gen.h ****     lv_style_value_t v = lv_obj_get_style_prop(obj, part, LV_STYLE_PAD_ROW);
 169:Lib/lvgl/src/core/lv_obj_style_gen.h ****     return (int32_t)v.num;
 170:Lib/lvgl/src/core/lv_obj_style_gen.h **** }
 171:Lib/lvgl/src/core/lv_obj_style_gen.h **** 
 172:Lib/lvgl/src/core/lv_obj_style_gen.h **** static inline int32_t lv_obj_get_style_pad_column(const lv_obj_t * obj, uint32_t part)
 173:Lib/lvgl/src/core/lv_obj_style_gen.h **** {
 174:Lib/lvgl/src/core/lv_obj_style_gen.h ****     lv_style_value_t v = lv_obj_get_style_prop(obj, part, LV_STYLE_PAD_COLUMN);
 175:Lib/lvgl/src/core/lv_obj_style_gen.h ****     return (int32_t)v.num;
 176:Lib/lvgl/src/core/lv_obj_style_gen.h **** }
 177:Lib/lvgl/src/core/lv_obj_style_gen.h **** 
 178:Lib/lvgl/src/core/lv_obj_style_gen.h **** static inline int32_t lv_obj_get_style_margin_top(const lv_obj_t * obj, uint32_t part)
 179:Lib/lvgl/src/core/lv_obj_style_gen.h **** {
 180:Lib/lvgl/src/core/lv_obj_style_gen.h ****     lv_style_value_t v = lv_obj_get_style_prop(obj, part, LV_STYLE_MARGIN_TOP);
 181:Lib/lvgl/src/core/lv_obj_style_gen.h ****     return (int32_t)v.num;
 182:Lib/lvgl/src/core/lv_obj_style_gen.h **** }
 183:Lib/lvgl/src/core/lv_obj_style_gen.h **** 
 184:Lib/lvgl/src/core/lv_obj_style_gen.h **** static inline int32_t lv_obj_get_style_margin_bottom(const lv_obj_t * obj, uint32_t part)
 185:Lib/lvgl/src/core/lv_obj_style_gen.h **** {
 186:Lib/lvgl/src/core/lv_obj_style_gen.h ****     lv_style_value_t v = lv_obj_get_style_prop(obj, part, LV_STYLE_MARGIN_BOTTOM);
 187:Lib/lvgl/src/core/lv_obj_style_gen.h ****     return (int32_t)v.num;
 188:Lib/lvgl/src/core/lv_obj_style_gen.h **** }
 189:Lib/lvgl/src/core/lv_obj_style_gen.h **** 
 190:Lib/lvgl/src/core/lv_obj_style_gen.h **** static inline int32_t lv_obj_get_style_margin_left(const lv_obj_t * obj, uint32_t part)
 191:Lib/lvgl/src/core/lv_obj_style_gen.h **** {
 192:Lib/lvgl/src/core/lv_obj_style_gen.h ****     lv_style_value_t v = lv_obj_get_style_prop(obj, part, LV_STYLE_MARGIN_LEFT);
 193:Lib/lvgl/src/core/lv_obj_style_gen.h ****     return (int32_t)v.num;
 194:Lib/lvgl/src/core/lv_obj_style_gen.h **** }
 195:Lib/lvgl/src/core/lv_obj_style_gen.h **** 
 196:Lib/lvgl/src/core/lv_obj_style_gen.h **** static inline int32_t lv_obj_get_style_margin_right(const lv_obj_t * obj, uint32_t part)
 197:Lib/lvgl/src/core/lv_obj_style_gen.h **** {
 198:Lib/lvgl/src/core/lv_obj_style_gen.h ****     lv_style_value_t v = lv_obj_get_style_prop(obj, part, LV_STYLE_MARGIN_RIGHT);
 199:Lib/lvgl/src/core/lv_obj_style_gen.h ****     return (int32_t)v.num;
 200:Lib/lvgl/src/core/lv_obj_style_gen.h **** }
 201:Lib/lvgl/src/core/lv_obj_style_gen.h **** 
 202:Lib/lvgl/src/core/lv_obj_style_gen.h **** static inline lv_color_t lv_obj_get_style_bg_color(const lv_obj_t * obj, uint32_t part)
 203:Lib/lvgl/src/core/lv_obj_style_gen.h **** {
 204:Lib/lvgl/src/core/lv_obj_style_gen.h ****     lv_style_value_t v = lv_obj_get_style_prop(obj, part, LV_STYLE_BG_COLOR);
 205:Lib/lvgl/src/core/lv_obj_style_gen.h ****     return v.color;
 206:Lib/lvgl/src/core/lv_obj_style_gen.h **** }
 207:Lib/lvgl/src/core/lv_obj_style_gen.h **** 
 208:Lib/lvgl/src/core/lv_obj_style_gen.h **** static inline lv_color_t lv_obj_get_style_bg_color_filtered(const lv_obj_t * obj, uint32_t part)
 209:Lib/lvgl/src/core/lv_obj_style_gen.h **** {
 210:Lib/lvgl/src/core/lv_obj_style_gen.h ****     lv_style_value_t v = _lv_obj_style_apply_color_filter(obj, part, lv_obj_get_style_prop(obj, par
 211:Lib/lvgl/src/core/lv_obj_style_gen.h ****     return v.color;
 212:Lib/lvgl/src/core/lv_obj_style_gen.h **** }
 213:Lib/lvgl/src/core/lv_obj_style_gen.h **** 
ARM GAS  C:\Users\Alex\AppData\Local\Temp\ccdKwz1H.s 			page 97


 214:Lib/lvgl/src/core/lv_obj_style_gen.h **** static inline lv_opa_t lv_obj_get_style_bg_opa(const lv_obj_t * obj, uint32_t part)
 215:Lib/lvgl/src/core/lv_obj_style_gen.h **** {
 216:Lib/lvgl/src/core/lv_obj_style_gen.h ****     lv_style_value_t v = lv_obj_get_style_prop(obj, part, LV_STYLE_BG_OPA);
 217:Lib/lvgl/src/core/lv_obj_style_gen.h ****     return (lv_opa_t)v.num;
 218:Lib/lvgl/src/core/lv_obj_style_gen.h **** }
 219:Lib/lvgl/src/core/lv_obj_style_gen.h **** 
 220:Lib/lvgl/src/core/lv_obj_style_gen.h **** static inline lv_color_t lv_obj_get_style_bg_grad_color(const lv_obj_t * obj, uint32_t part)
 221:Lib/lvgl/src/core/lv_obj_style_gen.h **** {
 222:Lib/lvgl/src/core/lv_obj_style_gen.h ****     lv_style_value_t v = lv_obj_get_style_prop(obj, part, LV_STYLE_BG_GRAD_COLOR);
 223:Lib/lvgl/src/core/lv_obj_style_gen.h ****     return v.color;
 224:Lib/lvgl/src/core/lv_obj_style_gen.h **** }
 225:Lib/lvgl/src/core/lv_obj_style_gen.h **** 
 226:Lib/lvgl/src/core/lv_obj_style_gen.h **** static inline lv_color_t lv_obj_get_style_bg_grad_color_filtered(const lv_obj_t * obj, uint32_t par
 227:Lib/lvgl/src/core/lv_obj_style_gen.h **** {
 228:Lib/lvgl/src/core/lv_obj_style_gen.h ****     lv_style_value_t v = _lv_obj_style_apply_color_filter(obj, part, lv_obj_get_style_prop(obj, par
 229:Lib/lvgl/src/core/lv_obj_style_gen.h ****                                                                                            LV_STYLE
 230:Lib/lvgl/src/core/lv_obj_style_gen.h ****     return v.color;
 231:Lib/lvgl/src/core/lv_obj_style_gen.h **** }
 232:Lib/lvgl/src/core/lv_obj_style_gen.h **** 
 233:Lib/lvgl/src/core/lv_obj_style_gen.h **** static inline lv_grad_dir_t lv_obj_get_style_bg_grad_dir(const lv_obj_t * obj, uint32_t part)
 234:Lib/lvgl/src/core/lv_obj_style_gen.h **** {
 235:Lib/lvgl/src/core/lv_obj_style_gen.h ****     lv_style_value_t v = lv_obj_get_style_prop(obj, part, LV_STYLE_BG_GRAD_DIR);
 236:Lib/lvgl/src/core/lv_obj_style_gen.h ****     return (lv_grad_dir_t)v.num;
 237:Lib/lvgl/src/core/lv_obj_style_gen.h **** }
 238:Lib/lvgl/src/core/lv_obj_style_gen.h **** 
 239:Lib/lvgl/src/core/lv_obj_style_gen.h **** static inline int32_t lv_obj_get_style_bg_main_stop(const lv_obj_t * obj, uint32_t part)
 240:Lib/lvgl/src/core/lv_obj_style_gen.h **** {
 241:Lib/lvgl/src/core/lv_obj_style_gen.h ****     lv_style_value_t v = lv_obj_get_style_prop(obj, part, LV_STYLE_BG_MAIN_STOP);
 242:Lib/lvgl/src/core/lv_obj_style_gen.h ****     return (int32_t)v.num;
 243:Lib/lvgl/src/core/lv_obj_style_gen.h **** }
 244:Lib/lvgl/src/core/lv_obj_style_gen.h **** 
 245:Lib/lvgl/src/core/lv_obj_style_gen.h **** static inline int32_t lv_obj_get_style_bg_grad_stop(const lv_obj_t * obj, uint32_t part)
 246:Lib/lvgl/src/core/lv_obj_style_gen.h **** {
 247:Lib/lvgl/src/core/lv_obj_style_gen.h ****     lv_style_value_t v = lv_obj_get_style_prop(obj, part, LV_STYLE_BG_GRAD_STOP);
 248:Lib/lvgl/src/core/lv_obj_style_gen.h ****     return (int32_t)v.num;
 249:Lib/lvgl/src/core/lv_obj_style_gen.h **** }
 250:Lib/lvgl/src/core/lv_obj_style_gen.h **** 
 251:Lib/lvgl/src/core/lv_obj_style_gen.h **** static inline lv_opa_t lv_obj_get_style_bg_main_opa(const lv_obj_t * obj, uint32_t part)
 252:Lib/lvgl/src/core/lv_obj_style_gen.h **** {
 253:Lib/lvgl/src/core/lv_obj_style_gen.h ****     lv_style_value_t v = lv_obj_get_style_prop(obj, part, LV_STYLE_BG_MAIN_OPA);
 254:Lib/lvgl/src/core/lv_obj_style_gen.h ****     return (lv_opa_t)v.num;
 255:Lib/lvgl/src/core/lv_obj_style_gen.h **** }
 256:Lib/lvgl/src/core/lv_obj_style_gen.h **** 
 257:Lib/lvgl/src/core/lv_obj_style_gen.h **** static inline lv_opa_t lv_obj_get_style_bg_grad_opa(const lv_obj_t * obj, uint32_t part)
 258:Lib/lvgl/src/core/lv_obj_style_gen.h **** {
 259:Lib/lvgl/src/core/lv_obj_style_gen.h ****     lv_style_value_t v = lv_obj_get_style_prop(obj, part, LV_STYLE_BG_GRAD_OPA);
 260:Lib/lvgl/src/core/lv_obj_style_gen.h ****     return (lv_opa_t)v.num;
 261:Lib/lvgl/src/core/lv_obj_style_gen.h **** }
 262:Lib/lvgl/src/core/lv_obj_style_gen.h **** 
 263:Lib/lvgl/src/core/lv_obj_style_gen.h **** static inline const lv_grad_dsc_t * lv_obj_get_style_bg_grad(const lv_obj_t * obj, uint32_t part)
 264:Lib/lvgl/src/core/lv_obj_style_gen.h **** {
 265:Lib/lvgl/src/core/lv_obj_style_gen.h ****     lv_style_value_t v = lv_obj_get_style_prop(obj, part, LV_STYLE_BG_GRAD);
 266:Lib/lvgl/src/core/lv_obj_style_gen.h ****     return (const lv_grad_dsc_t *)v.ptr;
 267:Lib/lvgl/src/core/lv_obj_style_gen.h **** }
 268:Lib/lvgl/src/core/lv_obj_style_gen.h **** 
 269:Lib/lvgl/src/core/lv_obj_style_gen.h **** static inline const void * lv_obj_get_style_bg_image_src(const lv_obj_t * obj, uint32_t part)
 270:Lib/lvgl/src/core/lv_obj_style_gen.h **** {
ARM GAS  C:\Users\Alex\AppData\Local\Temp\ccdKwz1H.s 			page 98


 271:Lib/lvgl/src/core/lv_obj_style_gen.h ****     lv_style_value_t v = lv_obj_get_style_prop(obj, part, LV_STYLE_BG_IMAGE_SRC);
 272:Lib/lvgl/src/core/lv_obj_style_gen.h ****     return (const void *)v.ptr;
 273:Lib/lvgl/src/core/lv_obj_style_gen.h **** }
 274:Lib/lvgl/src/core/lv_obj_style_gen.h **** 
 275:Lib/lvgl/src/core/lv_obj_style_gen.h **** static inline lv_opa_t lv_obj_get_style_bg_image_opa(const lv_obj_t * obj, uint32_t part)
 276:Lib/lvgl/src/core/lv_obj_style_gen.h **** {
 277:Lib/lvgl/src/core/lv_obj_style_gen.h ****     lv_style_value_t v = lv_obj_get_style_prop(obj, part, LV_STYLE_BG_IMAGE_OPA);
 278:Lib/lvgl/src/core/lv_obj_style_gen.h ****     return (lv_opa_t)v.num;
 279:Lib/lvgl/src/core/lv_obj_style_gen.h **** }
 280:Lib/lvgl/src/core/lv_obj_style_gen.h **** 
 281:Lib/lvgl/src/core/lv_obj_style_gen.h **** static inline lv_color_t lv_obj_get_style_bg_image_recolor(const lv_obj_t * obj, uint32_t part)
 282:Lib/lvgl/src/core/lv_obj_style_gen.h **** {
 283:Lib/lvgl/src/core/lv_obj_style_gen.h ****     lv_style_value_t v = lv_obj_get_style_prop(obj, part, LV_STYLE_BG_IMAGE_RECOLOR);
 284:Lib/lvgl/src/core/lv_obj_style_gen.h ****     return v.color;
 285:Lib/lvgl/src/core/lv_obj_style_gen.h **** }
 286:Lib/lvgl/src/core/lv_obj_style_gen.h **** 
 287:Lib/lvgl/src/core/lv_obj_style_gen.h **** static inline lv_color_t lv_obj_get_style_bg_image_recolor_filtered(const lv_obj_t * obj, uint32_t 
 288:Lib/lvgl/src/core/lv_obj_style_gen.h **** {
 289:Lib/lvgl/src/core/lv_obj_style_gen.h ****     lv_style_value_t v = _lv_obj_style_apply_color_filter(obj, part, lv_obj_get_style_prop(obj, par
 290:Lib/lvgl/src/core/lv_obj_style_gen.h ****                                                                                            LV_STYLE
 291:Lib/lvgl/src/core/lv_obj_style_gen.h ****     return v.color;
 292:Lib/lvgl/src/core/lv_obj_style_gen.h **** }
 293:Lib/lvgl/src/core/lv_obj_style_gen.h **** 
 294:Lib/lvgl/src/core/lv_obj_style_gen.h **** static inline lv_opa_t lv_obj_get_style_bg_image_recolor_opa(const lv_obj_t * obj, uint32_t part)
 295:Lib/lvgl/src/core/lv_obj_style_gen.h **** {
 296:Lib/lvgl/src/core/lv_obj_style_gen.h ****     lv_style_value_t v = lv_obj_get_style_prop(obj, part, LV_STYLE_BG_IMAGE_RECOLOR_OPA);
 297:Lib/lvgl/src/core/lv_obj_style_gen.h ****     return (lv_opa_t)v.num;
 298:Lib/lvgl/src/core/lv_obj_style_gen.h **** }
 299:Lib/lvgl/src/core/lv_obj_style_gen.h **** 
 300:Lib/lvgl/src/core/lv_obj_style_gen.h **** static inline bool lv_obj_get_style_bg_image_tiled(const lv_obj_t * obj, uint32_t part)
 301:Lib/lvgl/src/core/lv_obj_style_gen.h **** {
 302:Lib/lvgl/src/core/lv_obj_style_gen.h ****     lv_style_value_t v = lv_obj_get_style_prop(obj, part, LV_STYLE_BG_IMAGE_TILED);
 303:Lib/lvgl/src/core/lv_obj_style_gen.h ****     return (bool)v.num;
 304:Lib/lvgl/src/core/lv_obj_style_gen.h **** }
 305:Lib/lvgl/src/core/lv_obj_style_gen.h **** 
 306:Lib/lvgl/src/core/lv_obj_style_gen.h **** static inline lv_color_t lv_obj_get_style_border_color(const lv_obj_t * obj, uint32_t part)
 307:Lib/lvgl/src/core/lv_obj_style_gen.h **** {
 308:Lib/lvgl/src/core/lv_obj_style_gen.h ****     lv_style_value_t v = lv_obj_get_style_prop(obj, part, LV_STYLE_BORDER_COLOR);
 309:Lib/lvgl/src/core/lv_obj_style_gen.h ****     return v.color;
 310:Lib/lvgl/src/core/lv_obj_style_gen.h **** }
 311:Lib/lvgl/src/core/lv_obj_style_gen.h **** 
 312:Lib/lvgl/src/core/lv_obj_style_gen.h **** static inline lv_color_t lv_obj_get_style_border_color_filtered(const lv_obj_t * obj, uint32_t part
 313:Lib/lvgl/src/core/lv_obj_style_gen.h **** {
 314:Lib/lvgl/src/core/lv_obj_style_gen.h ****     lv_style_value_t v = _lv_obj_style_apply_color_filter(obj, part, lv_obj_get_style_prop(obj, par
 315:Lib/lvgl/src/core/lv_obj_style_gen.h ****                                                                                            LV_STYLE
 316:Lib/lvgl/src/core/lv_obj_style_gen.h ****     return v.color;
 317:Lib/lvgl/src/core/lv_obj_style_gen.h **** }
 318:Lib/lvgl/src/core/lv_obj_style_gen.h **** 
 319:Lib/lvgl/src/core/lv_obj_style_gen.h **** static inline lv_opa_t lv_obj_get_style_border_opa(const lv_obj_t * obj, uint32_t part)
 320:Lib/lvgl/src/core/lv_obj_style_gen.h **** {
 321:Lib/lvgl/src/core/lv_obj_style_gen.h ****     lv_style_value_t v = lv_obj_get_style_prop(obj, part, LV_STYLE_BORDER_OPA);
 322:Lib/lvgl/src/core/lv_obj_style_gen.h ****     return (lv_opa_t)v.num;
 323:Lib/lvgl/src/core/lv_obj_style_gen.h **** }
 324:Lib/lvgl/src/core/lv_obj_style_gen.h **** 
 325:Lib/lvgl/src/core/lv_obj_style_gen.h **** static inline int32_t lv_obj_get_style_border_width(const lv_obj_t * obj, uint32_t part)
 326:Lib/lvgl/src/core/lv_obj_style_gen.h **** {
 327:Lib/lvgl/src/core/lv_obj_style_gen.h ****     lv_style_value_t v = lv_obj_get_style_prop(obj, part, LV_STYLE_BORDER_WIDTH);
ARM GAS  C:\Users\Alex\AppData\Local\Temp\ccdKwz1H.s 			page 99


 328:Lib/lvgl/src/core/lv_obj_style_gen.h ****     return (int32_t)v.num;
 329:Lib/lvgl/src/core/lv_obj_style_gen.h **** }
 330:Lib/lvgl/src/core/lv_obj_style_gen.h **** 
 331:Lib/lvgl/src/core/lv_obj_style_gen.h **** static inline lv_border_side_t lv_obj_get_style_border_side(const lv_obj_t * obj, uint32_t part)
 332:Lib/lvgl/src/core/lv_obj_style_gen.h **** {
 333:Lib/lvgl/src/core/lv_obj_style_gen.h ****     lv_style_value_t v = lv_obj_get_style_prop(obj, part, LV_STYLE_BORDER_SIDE);
 334:Lib/lvgl/src/core/lv_obj_style_gen.h ****     return (lv_border_side_t)v.num;
 335:Lib/lvgl/src/core/lv_obj_style_gen.h **** }
 336:Lib/lvgl/src/core/lv_obj_style_gen.h **** 
 337:Lib/lvgl/src/core/lv_obj_style_gen.h **** static inline bool lv_obj_get_style_border_post(const lv_obj_t * obj, uint32_t part)
 338:Lib/lvgl/src/core/lv_obj_style_gen.h **** {
 339:Lib/lvgl/src/core/lv_obj_style_gen.h ****     lv_style_value_t v = lv_obj_get_style_prop(obj, part, LV_STYLE_BORDER_POST);
 340:Lib/lvgl/src/core/lv_obj_style_gen.h ****     return (bool)v.num;
 341:Lib/lvgl/src/core/lv_obj_style_gen.h **** }
 342:Lib/lvgl/src/core/lv_obj_style_gen.h **** 
 343:Lib/lvgl/src/core/lv_obj_style_gen.h **** static inline int32_t lv_obj_get_style_outline_width(const lv_obj_t * obj, uint32_t part)
 344:Lib/lvgl/src/core/lv_obj_style_gen.h **** {
 345:Lib/lvgl/src/core/lv_obj_style_gen.h ****     lv_style_value_t v = lv_obj_get_style_prop(obj, part, LV_STYLE_OUTLINE_WIDTH);
 346:Lib/lvgl/src/core/lv_obj_style_gen.h ****     return (int32_t)v.num;
 347:Lib/lvgl/src/core/lv_obj_style_gen.h **** }
 348:Lib/lvgl/src/core/lv_obj_style_gen.h **** 
 349:Lib/lvgl/src/core/lv_obj_style_gen.h **** static inline lv_color_t lv_obj_get_style_outline_color(const lv_obj_t * obj, uint32_t part)
 350:Lib/lvgl/src/core/lv_obj_style_gen.h **** {
 351:Lib/lvgl/src/core/lv_obj_style_gen.h ****     lv_style_value_t v = lv_obj_get_style_prop(obj, part, LV_STYLE_OUTLINE_COLOR);
 352:Lib/lvgl/src/core/lv_obj_style_gen.h ****     return v.color;
 353:Lib/lvgl/src/core/lv_obj_style_gen.h **** }
 354:Lib/lvgl/src/core/lv_obj_style_gen.h **** 
 355:Lib/lvgl/src/core/lv_obj_style_gen.h **** static inline lv_color_t lv_obj_get_style_outline_color_filtered(const lv_obj_t * obj, uint32_t par
 356:Lib/lvgl/src/core/lv_obj_style_gen.h **** {
 357:Lib/lvgl/src/core/lv_obj_style_gen.h ****     lv_style_value_t v = _lv_obj_style_apply_color_filter(obj, part, lv_obj_get_style_prop(obj, par
 358:Lib/lvgl/src/core/lv_obj_style_gen.h ****                                                                                            LV_STYLE
 359:Lib/lvgl/src/core/lv_obj_style_gen.h ****     return v.color;
 360:Lib/lvgl/src/core/lv_obj_style_gen.h **** }
 361:Lib/lvgl/src/core/lv_obj_style_gen.h **** 
 362:Lib/lvgl/src/core/lv_obj_style_gen.h **** static inline lv_opa_t lv_obj_get_style_outline_opa(const lv_obj_t * obj, uint32_t part)
 363:Lib/lvgl/src/core/lv_obj_style_gen.h **** {
 364:Lib/lvgl/src/core/lv_obj_style_gen.h ****     lv_style_value_t v = lv_obj_get_style_prop(obj, part, LV_STYLE_OUTLINE_OPA);
 365:Lib/lvgl/src/core/lv_obj_style_gen.h ****     return (lv_opa_t)v.num;
 366:Lib/lvgl/src/core/lv_obj_style_gen.h **** }
 367:Lib/lvgl/src/core/lv_obj_style_gen.h **** 
 368:Lib/lvgl/src/core/lv_obj_style_gen.h **** static inline int32_t lv_obj_get_style_outline_pad(const lv_obj_t * obj, uint32_t part)
 369:Lib/lvgl/src/core/lv_obj_style_gen.h **** {
 370:Lib/lvgl/src/core/lv_obj_style_gen.h ****     lv_style_value_t v = lv_obj_get_style_prop(obj, part, LV_STYLE_OUTLINE_PAD);
 371:Lib/lvgl/src/core/lv_obj_style_gen.h ****     return (int32_t)v.num;
 372:Lib/lvgl/src/core/lv_obj_style_gen.h **** }
 373:Lib/lvgl/src/core/lv_obj_style_gen.h **** 
 374:Lib/lvgl/src/core/lv_obj_style_gen.h **** static inline int32_t lv_obj_get_style_shadow_width(const lv_obj_t * obj, uint32_t part)
 375:Lib/lvgl/src/core/lv_obj_style_gen.h **** {
 376:Lib/lvgl/src/core/lv_obj_style_gen.h ****     lv_style_value_t v = lv_obj_get_style_prop(obj, part, LV_STYLE_SHADOW_WIDTH);
 377:Lib/lvgl/src/core/lv_obj_style_gen.h ****     return (int32_t)v.num;
 378:Lib/lvgl/src/core/lv_obj_style_gen.h **** }
 379:Lib/lvgl/src/core/lv_obj_style_gen.h **** 
 380:Lib/lvgl/src/core/lv_obj_style_gen.h **** static inline int32_t lv_obj_get_style_shadow_offset_x(const lv_obj_t * obj, uint32_t part)
 381:Lib/lvgl/src/core/lv_obj_style_gen.h **** {
 382:Lib/lvgl/src/core/lv_obj_style_gen.h ****     lv_style_value_t v = lv_obj_get_style_prop(obj, part, LV_STYLE_SHADOW_OFFSET_X);
 383:Lib/lvgl/src/core/lv_obj_style_gen.h ****     return (int32_t)v.num;
 384:Lib/lvgl/src/core/lv_obj_style_gen.h **** }
ARM GAS  C:\Users\Alex\AppData\Local\Temp\ccdKwz1H.s 			page 100


 385:Lib/lvgl/src/core/lv_obj_style_gen.h **** 
 386:Lib/lvgl/src/core/lv_obj_style_gen.h **** static inline int32_t lv_obj_get_style_shadow_offset_y(const lv_obj_t * obj, uint32_t part)
 387:Lib/lvgl/src/core/lv_obj_style_gen.h **** {
 388:Lib/lvgl/src/core/lv_obj_style_gen.h ****     lv_style_value_t v = lv_obj_get_style_prop(obj, part, LV_STYLE_SHADOW_OFFSET_Y);
 389:Lib/lvgl/src/core/lv_obj_style_gen.h ****     return (int32_t)v.num;
 390:Lib/lvgl/src/core/lv_obj_style_gen.h **** }
 391:Lib/lvgl/src/core/lv_obj_style_gen.h **** 
 392:Lib/lvgl/src/core/lv_obj_style_gen.h **** static inline int32_t lv_obj_get_style_shadow_spread(const lv_obj_t * obj, uint32_t part)
 393:Lib/lvgl/src/core/lv_obj_style_gen.h **** {
 394:Lib/lvgl/src/core/lv_obj_style_gen.h ****     lv_style_value_t v = lv_obj_get_style_prop(obj, part, LV_STYLE_SHADOW_SPREAD);
 395:Lib/lvgl/src/core/lv_obj_style_gen.h ****     return (int32_t)v.num;
 396:Lib/lvgl/src/core/lv_obj_style_gen.h **** }
 397:Lib/lvgl/src/core/lv_obj_style_gen.h **** 
 398:Lib/lvgl/src/core/lv_obj_style_gen.h **** static inline lv_color_t lv_obj_get_style_shadow_color(const lv_obj_t * obj, uint32_t part)
 399:Lib/lvgl/src/core/lv_obj_style_gen.h **** {
 400:Lib/lvgl/src/core/lv_obj_style_gen.h ****     lv_style_value_t v = lv_obj_get_style_prop(obj, part, LV_STYLE_SHADOW_COLOR);
 401:Lib/lvgl/src/core/lv_obj_style_gen.h ****     return v.color;
 402:Lib/lvgl/src/core/lv_obj_style_gen.h **** }
 403:Lib/lvgl/src/core/lv_obj_style_gen.h **** 
 404:Lib/lvgl/src/core/lv_obj_style_gen.h **** static inline lv_color_t lv_obj_get_style_shadow_color_filtered(const lv_obj_t * obj, uint32_t part
 405:Lib/lvgl/src/core/lv_obj_style_gen.h **** {
 406:Lib/lvgl/src/core/lv_obj_style_gen.h ****     lv_style_value_t v = _lv_obj_style_apply_color_filter(obj, part, lv_obj_get_style_prop(obj, par
 407:Lib/lvgl/src/core/lv_obj_style_gen.h ****                                                                                            LV_STYLE
 408:Lib/lvgl/src/core/lv_obj_style_gen.h ****     return v.color;
 409:Lib/lvgl/src/core/lv_obj_style_gen.h **** }
 410:Lib/lvgl/src/core/lv_obj_style_gen.h **** 
 411:Lib/lvgl/src/core/lv_obj_style_gen.h **** static inline lv_opa_t lv_obj_get_style_shadow_opa(const lv_obj_t * obj, uint32_t part)
 412:Lib/lvgl/src/core/lv_obj_style_gen.h **** {
 413:Lib/lvgl/src/core/lv_obj_style_gen.h ****     lv_style_value_t v = lv_obj_get_style_prop(obj, part, LV_STYLE_SHADOW_OPA);
 414:Lib/lvgl/src/core/lv_obj_style_gen.h ****     return (lv_opa_t)v.num;
 415:Lib/lvgl/src/core/lv_obj_style_gen.h **** }
 416:Lib/lvgl/src/core/lv_obj_style_gen.h **** 
 417:Lib/lvgl/src/core/lv_obj_style_gen.h **** static inline lv_opa_t lv_obj_get_style_image_opa(const lv_obj_t * obj, uint32_t part)
 418:Lib/lvgl/src/core/lv_obj_style_gen.h **** {
 419:Lib/lvgl/src/core/lv_obj_style_gen.h ****     lv_style_value_t v = lv_obj_get_style_prop(obj, part, LV_STYLE_IMAGE_OPA);
 420:Lib/lvgl/src/core/lv_obj_style_gen.h ****     return (lv_opa_t)v.num;
 421:Lib/lvgl/src/core/lv_obj_style_gen.h **** }
 422:Lib/lvgl/src/core/lv_obj_style_gen.h **** 
 423:Lib/lvgl/src/core/lv_obj_style_gen.h **** static inline lv_color_t lv_obj_get_style_image_recolor(const lv_obj_t * obj, uint32_t part)
 424:Lib/lvgl/src/core/lv_obj_style_gen.h **** {
 425:Lib/lvgl/src/core/lv_obj_style_gen.h ****     lv_style_value_t v = lv_obj_get_style_prop(obj, part, LV_STYLE_IMAGE_RECOLOR);
 426:Lib/lvgl/src/core/lv_obj_style_gen.h ****     return v.color;
 427:Lib/lvgl/src/core/lv_obj_style_gen.h **** }
 428:Lib/lvgl/src/core/lv_obj_style_gen.h **** 
 429:Lib/lvgl/src/core/lv_obj_style_gen.h **** static inline lv_color_t lv_obj_get_style_image_recolor_filtered(const lv_obj_t * obj, uint32_t par
 430:Lib/lvgl/src/core/lv_obj_style_gen.h **** {
 431:Lib/lvgl/src/core/lv_obj_style_gen.h ****     lv_style_value_t v = _lv_obj_style_apply_color_filter(obj, part, lv_obj_get_style_prop(obj, par
 432:Lib/lvgl/src/core/lv_obj_style_gen.h ****                                                                                            LV_STYLE
 433:Lib/lvgl/src/core/lv_obj_style_gen.h ****     return v.color;
 434:Lib/lvgl/src/core/lv_obj_style_gen.h **** }
 435:Lib/lvgl/src/core/lv_obj_style_gen.h **** 
 436:Lib/lvgl/src/core/lv_obj_style_gen.h **** static inline lv_opa_t lv_obj_get_style_image_recolor_opa(const lv_obj_t * obj, uint32_t part)
 437:Lib/lvgl/src/core/lv_obj_style_gen.h **** {
 438:Lib/lvgl/src/core/lv_obj_style_gen.h ****     lv_style_value_t v = lv_obj_get_style_prop(obj, part, LV_STYLE_IMAGE_RECOLOR_OPA);
 439:Lib/lvgl/src/core/lv_obj_style_gen.h ****     return (lv_opa_t)v.num;
 440:Lib/lvgl/src/core/lv_obj_style_gen.h **** }
 441:Lib/lvgl/src/core/lv_obj_style_gen.h **** 
ARM GAS  C:\Users\Alex\AppData\Local\Temp\ccdKwz1H.s 			page 101


 442:Lib/lvgl/src/core/lv_obj_style_gen.h **** static inline int32_t lv_obj_get_style_line_width(const lv_obj_t * obj, uint32_t part)
 443:Lib/lvgl/src/core/lv_obj_style_gen.h **** {
 444:Lib/lvgl/src/core/lv_obj_style_gen.h ****     lv_style_value_t v = lv_obj_get_style_prop(obj, part, LV_STYLE_LINE_WIDTH);
 445:Lib/lvgl/src/core/lv_obj_style_gen.h ****     return (int32_t)v.num;
 446:Lib/lvgl/src/core/lv_obj_style_gen.h **** }
 447:Lib/lvgl/src/core/lv_obj_style_gen.h **** 
 448:Lib/lvgl/src/core/lv_obj_style_gen.h **** static inline int32_t lv_obj_get_style_line_dash_width(const lv_obj_t * obj, uint32_t part)
 449:Lib/lvgl/src/core/lv_obj_style_gen.h **** {
 450:Lib/lvgl/src/core/lv_obj_style_gen.h ****     lv_style_value_t v = lv_obj_get_style_prop(obj, part, LV_STYLE_LINE_DASH_WIDTH);
 451:Lib/lvgl/src/core/lv_obj_style_gen.h ****     return (int32_t)v.num;
 452:Lib/lvgl/src/core/lv_obj_style_gen.h **** }
 453:Lib/lvgl/src/core/lv_obj_style_gen.h **** 
 454:Lib/lvgl/src/core/lv_obj_style_gen.h **** static inline int32_t lv_obj_get_style_line_dash_gap(const lv_obj_t * obj, uint32_t part)
 455:Lib/lvgl/src/core/lv_obj_style_gen.h **** {
 456:Lib/lvgl/src/core/lv_obj_style_gen.h ****     lv_style_value_t v = lv_obj_get_style_prop(obj, part, LV_STYLE_LINE_DASH_GAP);
 457:Lib/lvgl/src/core/lv_obj_style_gen.h ****     return (int32_t)v.num;
 458:Lib/lvgl/src/core/lv_obj_style_gen.h **** }
 459:Lib/lvgl/src/core/lv_obj_style_gen.h **** 
 460:Lib/lvgl/src/core/lv_obj_style_gen.h **** static inline bool lv_obj_get_style_line_rounded(const lv_obj_t * obj, uint32_t part)
 461:Lib/lvgl/src/core/lv_obj_style_gen.h **** {
 462:Lib/lvgl/src/core/lv_obj_style_gen.h ****     lv_style_value_t v = lv_obj_get_style_prop(obj, part, LV_STYLE_LINE_ROUNDED);
 463:Lib/lvgl/src/core/lv_obj_style_gen.h ****     return (bool)v.num;
 464:Lib/lvgl/src/core/lv_obj_style_gen.h **** }
 465:Lib/lvgl/src/core/lv_obj_style_gen.h **** 
 466:Lib/lvgl/src/core/lv_obj_style_gen.h **** static inline lv_color_t lv_obj_get_style_line_color(const lv_obj_t * obj, uint32_t part)
 467:Lib/lvgl/src/core/lv_obj_style_gen.h **** {
 468:Lib/lvgl/src/core/lv_obj_style_gen.h ****     lv_style_value_t v = lv_obj_get_style_prop(obj, part, LV_STYLE_LINE_COLOR);
 469:Lib/lvgl/src/core/lv_obj_style_gen.h ****     return v.color;
 470:Lib/lvgl/src/core/lv_obj_style_gen.h **** }
 471:Lib/lvgl/src/core/lv_obj_style_gen.h **** 
 472:Lib/lvgl/src/core/lv_obj_style_gen.h **** static inline lv_color_t lv_obj_get_style_line_color_filtered(const lv_obj_t * obj, uint32_t part)
 473:Lib/lvgl/src/core/lv_obj_style_gen.h **** {
 474:Lib/lvgl/src/core/lv_obj_style_gen.h ****     lv_style_value_t v = _lv_obj_style_apply_color_filter(obj, part, lv_obj_get_style_prop(obj, par
 475:Lib/lvgl/src/core/lv_obj_style_gen.h ****     return v.color;
 476:Lib/lvgl/src/core/lv_obj_style_gen.h **** }
 477:Lib/lvgl/src/core/lv_obj_style_gen.h **** 
 478:Lib/lvgl/src/core/lv_obj_style_gen.h **** static inline lv_opa_t lv_obj_get_style_line_opa(const lv_obj_t * obj, uint32_t part)
 479:Lib/lvgl/src/core/lv_obj_style_gen.h **** {
 480:Lib/lvgl/src/core/lv_obj_style_gen.h ****     lv_style_value_t v = lv_obj_get_style_prop(obj, part, LV_STYLE_LINE_OPA);
 481:Lib/lvgl/src/core/lv_obj_style_gen.h ****     return (lv_opa_t)v.num;
 482:Lib/lvgl/src/core/lv_obj_style_gen.h **** }
 483:Lib/lvgl/src/core/lv_obj_style_gen.h **** 
 484:Lib/lvgl/src/core/lv_obj_style_gen.h **** static inline int32_t lv_obj_get_style_arc_width(const lv_obj_t * obj, uint32_t part)
 485:Lib/lvgl/src/core/lv_obj_style_gen.h **** {
 486:Lib/lvgl/src/core/lv_obj_style_gen.h ****     lv_style_value_t v = lv_obj_get_style_prop(obj, part, LV_STYLE_ARC_WIDTH);
 487:Lib/lvgl/src/core/lv_obj_style_gen.h ****     return (int32_t)v.num;
 488:Lib/lvgl/src/core/lv_obj_style_gen.h **** }
 489:Lib/lvgl/src/core/lv_obj_style_gen.h **** 
 490:Lib/lvgl/src/core/lv_obj_style_gen.h **** static inline bool lv_obj_get_style_arc_rounded(const lv_obj_t * obj, uint32_t part)
 491:Lib/lvgl/src/core/lv_obj_style_gen.h **** {
 492:Lib/lvgl/src/core/lv_obj_style_gen.h ****     lv_style_value_t v = lv_obj_get_style_prop(obj, part, LV_STYLE_ARC_ROUNDED);
 493:Lib/lvgl/src/core/lv_obj_style_gen.h ****     return (bool)v.num;
 494:Lib/lvgl/src/core/lv_obj_style_gen.h **** }
 495:Lib/lvgl/src/core/lv_obj_style_gen.h **** 
 496:Lib/lvgl/src/core/lv_obj_style_gen.h **** static inline lv_color_t lv_obj_get_style_arc_color(const lv_obj_t * obj, uint32_t part)
 497:Lib/lvgl/src/core/lv_obj_style_gen.h **** {
 498:Lib/lvgl/src/core/lv_obj_style_gen.h ****     lv_style_value_t v = lv_obj_get_style_prop(obj, part, LV_STYLE_ARC_COLOR);
ARM GAS  C:\Users\Alex\AppData\Local\Temp\ccdKwz1H.s 			page 102


 499:Lib/lvgl/src/core/lv_obj_style_gen.h ****     return v.color;
 500:Lib/lvgl/src/core/lv_obj_style_gen.h **** }
 501:Lib/lvgl/src/core/lv_obj_style_gen.h **** 
 502:Lib/lvgl/src/core/lv_obj_style_gen.h **** static inline lv_color_t lv_obj_get_style_arc_color_filtered(const lv_obj_t * obj, uint32_t part)
 503:Lib/lvgl/src/core/lv_obj_style_gen.h **** {
 504:Lib/lvgl/src/core/lv_obj_style_gen.h ****     lv_style_value_t v = _lv_obj_style_apply_color_filter(obj, part, lv_obj_get_style_prop(obj, par
 505:Lib/lvgl/src/core/lv_obj_style_gen.h ****     return v.color;
 506:Lib/lvgl/src/core/lv_obj_style_gen.h **** }
 507:Lib/lvgl/src/core/lv_obj_style_gen.h **** 
 508:Lib/lvgl/src/core/lv_obj_style_gen.h **** static inline lv_opa_t lv_obj_get_style_arc_opa(const lv_obj_t * obj, uint32_t part)
 509:Lib/lvgl/src/core/lv_obj_style_gen.h **** {
 510:Lib/lvgl/src/core/lv_obj_style_gen.h ****     lv_style_value_t v = lv_obj_get_style_prop(obj, part, LV_STYLE_ARC_OPA);
 511:Lib/lvgl/src/core/lv_obj_style_gen.h ****     return (lv_opa_t)v.num;
 512:Lib/lvgl/src/core/lv_obj_style_gen.h **** }
 513:Lib/lvgl/src/core/lv_obj_style_gen.h **** 
 514:Lib/lvgl/src/core/lv_obj_style_gen.h **** static inline const void * lv_obj_get_style_arc_image_src(const lv_obj_t * obj, uint32_t part)
 515:Lib/lvgl/src/core/lv_obj_style_gen.h **** {
 516:Lib/lvgl/src/core/lv_obj_style_gen.h ****     lv_style_value_t v = lv_obj_get_style_prop(obj, part, LV_STYLE_ARC_IMAGE_SRC);
 517:Lib/lvgl/src/core/lv_obj_style_gen.h ****     return (const void *)v.ptr;
 518:Lib/lvgl/src/core/lv_obj_style_gen.h **** }
 519:Lib/lvgl/src/core/lv_obj_style_gen.h **** 
 520:Lib/lvgl/src/core/lv_obj_style_gen.h **** static inline lv_color_t lv_obj_get_style_text_color(const lv_obj_t * obj, uint32_t part)
 521:Lib/lvgl/src/core/lv_obj_style_gen.h **** {
 522:Lib/lvgl/src/core/lv_obj_style_gen.h ****     lv_style_value_t v = lv_obj_get_style_prop(obj, part, LV_STYLE_TEXT_COLOR);
 523:Lib/lvgl/src/core/lv_obj_style_gen.h ****     return v.color;
 524:Lib/lvgl/src/core/lv_obj_style_gen.h **** }
 525:Lib/lvgl/src/core/lv_obj_style_gen.h **** 
 526:Lib/lvgl/src/core/lv_obj_style_gen.h **** static inline lv_color_t lv_obj_get_style_text_color_filtered(const lv_obj_t * obj, uint32_t part)
 527:Lib/lvgl/src/core/lv_obj_style_gen.h **** {
 528:Lib/lvgl/src/core/lv_obj_style_gen.h ****     lv_style_value_t v = _lv_obj_style_apply_color_filter(obj, part, lv_obj_get_style_prop(obj, par
 529:Lib/lvgl/src/core/lv_obj_style_gen.h ****     return v.color;
 530:Lib/lvgl/src/core/lv_obj_style_gen.h **** }
 531:Lib/lvgl/src/core/lv_obj_style_gen.h **** 
 532:Lib/lvgl/src/core/lv_obj_style_gen.h **** static inline lv_opa_t lv_obj_get_style_text_opa(const lv_obj_t * obj, uint32_t part)
 533:Lib/lvgl/src/core/lv_obj_style_gen.h **** {
 534:Lib/lvgl/src/core/lv_obj_style_gen.h ****     lv_style_value_t v = lv_obj_get_style_prop(obj, part, LV_STYLE_TEXT_OPA);
 535:Lib/lvgl/src/core/lv_obj_style_gen.h ****     return (lv_opa_t)v.num;
 536:Lib/lvgl/src/core/lv_obj_style_gen.h **** }
 537:Lib/lvgl/src/core/lv_obj_style_gen.h **** 
 538:Lib/lvgl/src/core/lv_obj_style_gen.h **** static inline const lv_font_t * lv_obj_get_style_text_font(const lv_obj_t * obj, uint32_t part)
 539:Lib/lvgl/src/core/lv_obj_style_gen.h **** {
 540:Lib/lvgl/src/core/lv_obj_style_gen.h ****     lv_style_value_t v = lv_obj_get_style_prop(obj, part, LV_STYLE_TEXT_FONT);
 541:Lib/lvgl/src/core/lv_obj_style_gen.h ****     return (const lv_font_t *)v.ptr;
 542:Lib/lvgl/src/core/lv_obj_style_gen.h **** }
 543:Lib/lvgl/src/core/lv_obj_style_gen.h **** 
 544:Lib/lvgl/src/core/lv_obj_style_gen.h **** static inline int32_t lv_obj_get_style_text_letter_space(const lv_obj_t * obj, uint32_t part)
 545:Lib/lvgl/src/core/lv_obj_style_gen.h **** {
 546:Lib/lvgl/src/core/lv_obj_style_gen.h ****     lv_style_value_t v = lv_obj_get_style_prop(obj, part, LV_STYLE_TEXT_LETTER_SPACE);
 547:Lib/lvgl/src/core/lv_obj_style_gen.h ****     return (int32_t)v.num;
 548:Lib/lvgl/src/core/lv_obj_style_gen.h **** }
 549:Lib/lvgl/src/core/lv_obj_style_gen.h **** 
 550:Lib/lvgl/src/core/lv_obj_style_gen.h **** static inline int32_t lv_obj_get_style_text_line_space(const lv_obj_t * obj, uint32_t part)
 551:Lib/lvgl/src/core/lv_obj_style_gen.h **** {
 552:Lib/lvgl/src/core/lv_obj_style_gen.h ****     lv_style_value_t v = lv_obj_get_style_prop(obj, part, LV_STYLE_TEXT_LINE_SPACE);
 553:Lib/lvgl/src/core/lv_obj_style_gen.h ****     return (int32_t)v.num;
 554:Lib/lvgl/src/core/lv_obj_style_gen.h **** }
 555:Lib/lvgl/src/core/lv_obj_style_gen.h **** 
ARM GAS  C:\Users\Alex\AppData\Local\Temp\ccdKwz1H.s 			page 103


 556:Lib/lvgl/src/core/lv_obj_style_gen.h **** static inline lv_text_decor_t lv_obj_get_style_text_decor(const lv_obj_t * obj, uint32_t part)
 557:Lib/lvgl/src/core/lv_obj_style_gen.h **** {
 558:Lib/lvgl/src/core/lv_obj_style_gen.h ****     lv_style_value_t v = lv_obj_get_style_prop(obj, part, LV_STYLE_TEXT_DECOR);
 559:Lib/lvgl/src/core/lv_obj_style_gen.h ****     return (lv_text_decor_t)v.num;
 560:Lib/lvgl/src/core/lv_obj_style_gen.h **** }
 561:Lib/lvgl/src/core/lv_obj_style_gen.h **** 
 562:Lib/lvgl/src/core/lv_obj_style_gen.h **** static inline lv_text_align_t lv_obj_get_style_text_align(const lv_obj_t * obj, uint32_t part)
 563:Lib/lvgl/src/core/lv_obj_style_gen.h **** {
 564:Lib/lvgl/src/core/lv_obj_style_gen.h ****     lv_style_value_t v = lv_obj_get_style_prop(obj, part, LV_STYLE_TEXT_ALIGN);
 565:Lib/lvgl/src/core/lv_obj_style_gen.h ****     return (lv_text_align_t)v.num;
 566:Lib/lvgl/src/core/lv_obj_style_gen.h **** }
 567:Lib/lvgl/src/core/lv_obj_style_gen.h **** 
 568:Lib/lvgl/src/core/lv_obj_style_gen.h **** static inline int32_t lv_obj_get_style_radius(const lv_obj_t * obj, uint32_t part)
 569:Lib/lvgl/src/core/lv_obj_style_gen.h **** {
 570:Lib/lvgl/src/core/lv_obj_style_gen.h ****     lv_style_value_t v = lv_obj_get_style_prop(obj, part, LV_STYLE_RADIUS);
 571:Lib/lvgl/src/core/lv_obj_style_gen.h ****     return (int32_t)v.num;
 572:Lib/lvgl/src/core/lv_obj_style_gen.h **** }
 573:Lib/lvgl/src/core/lv_obj_style_gen.h **** 
 574:Lib/lvgl/src/core/lv_obj_style_gen.h **** static inline bool lv_obj_get_style_clip_corner(const lv_obj_t * obj, uint32_t part)
 575:Lib/lvgl/src/core/lv_obj_style_gen.h **** {
 576:Lib/lvgl/src/core/lv_obj_style_gen.h ****     lv_style_value_t v = lv_obj_get_style_prop(obj, part, LV_STYLE_CLIP_CORNER);
 577:Lib/lvgl/src/core/lv_obj_style_gen.h ****     return (bool)v.num;
 578:Lib/lvgl/src/core/lv_obj_style_gen.h **** }
 579:Lib/lvgl/src/core/lv_obj_style_gen.h **** 
 580:Lib/lvgl/src/core/lv_obj_style_gen.h **** static inline lv_opa_t lv_obj_get_style_opa(const lv_obj_t * obj, uint32_t part)
 581:Lib/lvgl/src/core/lv_obj_style_gen.h **** {
 582:Lib/lvgl/src/core/lv_obj_style_gen.h ****     lv_style_value_t v = lv_obj_get_style_prop(obj, part, LV_STYLE_OPA);
 583:Lib/lvgl/src/core/lv_obj_style_gen.h ****     return (lv_opa_t)v.num;
 584:Lib/lvgl/src/core/lv_obj_style_gen.h **** }
 585:Lib/lvgl/src/core/lv_obj_style_gen.h **** 
 586:Lib/lvgl/src/core/lv_obj_style_gen.h **** static inline lv_opa_t lv_obj_get_style_opa_layered(const lv_obj_t * obj, uint32_t part)
 2359              		.loc 8 586 24 view .LVU691
 2360              	.LBB237:
 587:Lib/lvgl/src/core/lv_obj_style_gen.h **** {
 588:Lib/lvgl/src/core/lv_obj_style_gen.h ****     lv_style_value_t v = lv_obj_get_style_prop(obj, part, LV_STYLE_OPA_LAYERED);
 2361              		.loc 8 588 5 view .LVU692
 2362              		.loc 8 588 26 is_stmt 0 view .LVU693
 2363 005c 6022     		movs	r2, #96
 2364 005e 0021     		movs	r1, #0
 2365 0060 2046     		mov	r0, r4
 2366 0062 FFF7FEFF 		bl	lv_obj_get_style_prop
 2367              	.LVL219:
 2368 0066 0190     		str	r0, [sp, #4]
 589:Lib/lvgl/src/core/lv_obj_style_gen.h ****     return (lv_opa_t)v.num;
 2369              		.loc 8 589 5 is_stmt 1 view .LVU694
 2370              		.loc 8 589 12 is_stmt 0 view .LVU695
 2371 0068 C0B2     		uxtb	r0, r0
 2372              	.LVL220:
 2373              		.loc 8 589 12 view .LVU696
 2374              	.LBE237:
 2375              	.LBE236:
1018:Lib/lvgl/src/core/lv_obj_style.c ****     if(lv_obj_get_style_blend_mode(obj, 0) != LV_BLEND_MODE_NORMAL) return LV_LAYER_TYPE_SIMPLE;
 2376              		.loc 1 1018 7 view .LVU697
 2377 006a FF28     		cmp	r0, #255
 2378 006c 01D0     		beq	.L182
1018:Lib/lvgl/src/core/lv_obj_style.c ****     if(lv_obj_get_style_blend_mode(obj, 0) != LV_BLEND_MODE_NORMAL) return LV_LAYER_TYPE_SIMPLE;
 2379              		.loc 1 1018 69 view .LVU698
ARM GAS  C:\Users\Alex\AppData\Local\Temp\ccdKwz1H.s 			page 104


 2380 006e 0120     		movs	r0, #1
 2381 0070 0BE0     		b	.L171
 2382              	.L182:
1019:Lib/lvgl/src/core/lv_obj_style.c ****     return LV_LAYER_TYPE_NONE;
 2383              		.loc 1 1019 5 is_stmt 1 view .LVU699
 2384              	.LVL221:
 2385              	.LBB238:
 2386              	.LBI238:
 590:Lib/lvgl/src/core/lv_obj_style_gen.h **** }
 591:Lib/lvgl/src/core/lv_obj_style_gen.h **** 
 592:Lib/lvgl/src/core/lv_obj_style_gen.h **** static inline const lv_color_filter_dsc_t * lv_obj_get_style_color_filter_dsc(const lv_obj_t * obj,
 593:Lib/lvgl/src/core/lv_obj_style_gen.h **** {
 594:Lib/lvgl/src/core/lv_obj_style_gen.h ****     lv_style_value_t v = lv_obj_get_style_prop(obj, part, LV_STYLE_COLOR_FILTER_DSC);
 595:Lib/lvgl/src/core/lv_obj_style_gen.h ****     return (const lv_color_filter_dsc_t *)v.ptr;
 596:Lib/lvgl/src/core/lv_obj_style_gen.h **** }
 597:Lib/lvgl/src/core/lv_obj_style_gen.h **** 
 598:Lib/lvgl/src/core/lv_obj_style_gen.h **** static inline lv_opa_t lv_obj_get_style_color_filter_opa(const lv_obj_t * obj, uint32_t part)
 599:Lib/lvgl/src/core/lv_obj_style_gen.h **** {
 600:Lib/lvgl/src/core/lv_obj_style_gen.h ****     lv_style_value_t v = lv_obj_get_style_prop(obj, part, LV_STYLE_COLOR_FILTER_OPA);
 601:Lib/lvgl/src/core/lv_obj_style_gen.h ****     return (lv_opa_t)v.num;
 602:Lib/lvgl/src/core/lv_obj_style_gen.h **** }
 603:Lib/lvgl/src/core/lv_obj_style_gen.h **** 
 604:Lib/lvgl/src/core/lv_obj_style_gen.h **** static inline const lv_anim_t * lv_obj_get_style_anim(const lv_obj_t * obj, uint32_t part)
 605:Lib/lvgl/src/core/lv_obj_style_gen.h **** {
 606:Lib/lvgl/src/core/lv_obj_style_gen.h ****     lv_style_value_t v = lv_obj_get_style_prop(obj, part, LV_STYLE_ANIM);
 607:Lib/lvgl/src/core/lv_obj_style_gen.h ****     return (const lv_anim_t *)v.ptr;
 608:Lib/lvgl/src/core/lv_obj_style_gen.h **** }
 609:Lib/lvgl/src/core/lv_obj_style_gen.h **** 
 610:Lib/lvgl/src/core/lv_obj_style_gen.h **** static inline uint32_t lv_obj_get_style_anim_duration(const lv_obj_t * obj, uint32_t part)
 611:Lib/lvgl/src/core/lv_obj_style_gen.h **** {
 612:Lib/lvgl/src/core/lv_obj_style_gen.h ****     lv_style_value_t v = lv_obj_get_style_prop(obj, part, LV_STYLE_ANIM_DURATION);
 613:Lib/lvgl/src/core/lv_obj_style_gen.h ****     return (uint32_t)v.num;
 614:Lib/lvgl/src/core/lv_obj_style_gen.h **** }
 615:Lib/lvgl/src/core/lv_obj_style_gen.h **** 
 616:Lib/lvgl/src/core/lv_obj_style_gen.h **** static inline const lv_style_transition_dsc_t * lv_obj_get_style_transition(const lv_obj_t * obj, u
 617:Lib/lvgl/src/core/lv_obj_style_gen.h **** {
 618:Lib/lvgl/src/core/lv_obj_style_gen.h ****     lv_style_value_t v = lv_obj_get_style_prop(obj, part, LV_STYLE_TRANSITION);
 619:Lib/lvgl/src/core/lv_obj_style_gen.h ****     return (const lv_style_transition_dsc_t *)v.ptr;
 620:Lib/lvgl/src/core/lv_obj_style_gen.h **** }
 621:Lib/lvgl/src/core/lv_obj_style_gen.h **** 
 622:Lib/lvgl/src/core/lv_obj_style_gen.h **** static inline lv_blend_mode_t lv_obj_get_style_blend_mode(const lv_obj_t * obj, uint32_t part)
 2387              		.loc 8 622 31 view .LVU700
 2388              	.LBB239:
 623:Lib/lvgl/src/core/lv_obj_style_gen.h **** {
 624:Lib/lvgl/src/core/lv_obj_style_gen.h ****     lv_style_value_t v = lv_obj_get_style_prop(obj, part, LV_STYLE_BLEND_MODE);
 2389              		.loc 8 624 5 view .LVU701
 2390              		.loc 8 624 26 is_stmt 0 view .LVU702
 2391 0072 6722     		movs	r2, #103
 2392 0074 0021     		movs	r1, #0
 2393 0076 2046     		mov	r0, r4
 2394 0078 FFF7FEFF 		bl	lv_obj_get_style_prop
 2395              	.LVL222:
 2396 007c 0190     		str	r0, [sp, #4]
 625:Lib/lvgl/src/core/lv_obj_style_gen.h ****     return (lv_blend_mode_t)v.num;
 2397              		.loc 8 625 5 is_stmt 1 view .LVU703
 2398              	.LVL223:
 2399              		.loc 8 625 5 is_stmt 0 view .LVU704
ARM GAS  C:\Users\Alex\AppData\Local\Temp\ccdKwz1H.s 			page 105


 2400              	.LBE239:
 2401              	.LBE238:
1019:Lib/lvgl/src/core/lv_obj_style.c ****     return LV_LAYER_TYPE_NONE;
 2402              		.loc 1 1019 7 view .LVU705
 2403 007e 10F0FF00 		ands	r0, r0, #255
 2404 0082 02D0     		beq	.L171
1019:Lib/lvgl/src/core/lv_obj_style.c ****     return LV_LAYER_TYPE_NONE;
 2405              		.loc 1 1019 76 view .LVU706
 2406 0084 0120     		movs	r0, #1
 2407 0086 00E0     		b	.L171
 2408              	.L172:
1013:Lib/lvgl/src/core/lv_obj_style.c ****     if(lv_obj_get_style_transform_scale_x(obj, 0) != 256) return LV_LAYER_TYPE_TRANSFORM;
 2409              		.loc 1 1013 65 view .LVU707
 2410 0088 0220     		movs	r0, #2
 2411              	.L171:
1021:Lib/lvgl/src/core/lv_obj_style.c **** 
 2412              		.loc 1 1021 1 view .LVU708
 2413 008a 02B0     		add	sp, sp, #8
 2414              	.LCFI28:
 2415              		.cfi_remember_state
 2416              		.cfi_def_cfa_offset 8
 2417              		@ sp needed
 2418 008c 10BD     		pop	{r4, pc}
 2419              	.LVL224:
 2420              	.L175:
 2421              	.LCFI29:
 2422              		.cfi_restore_state
1016:Lib/lvgl/src/core/lv_obj_style.c ****     if(lv_obj_get_style_transform_skew_y(obj, 0) != 0) return LV_LAYER_TYPE_TRANSFORM;
 2423              		.loc 1 1016 63 view .LVU709
 2424 008e 0220     		movs	r0, #2
 2425 0090 FBE7     		b	.L171
 2426              	.L176:
1017:Lib/lvgl/src/core/lv_obj_style.c ****     if(lv_obj_get_style_opa_layered(obj, 0) != LV_OPA_COVER) return LV_LAYER_TYPE_SIMPLE;
 2427              		.loc 1 1017 63 view .LVU710
 2428 0092 0220     		movs	r0, #2
 2429 0094 F9E7     		b	.L171
 2430              		.cfi_endproc
 2431              	.LFE265:
 2433              		.section	.text.lv_obj_refresh_style,"ax",%progbits
 2434              		.align	1
 2435              		.global	lv_obj_refresh_style
 2436              		.syntax unified
 2437              		.thumb
 2438              		.thumb_func
 2440              	lv_obj_refresh_style:
 2441              	.LVL225:
 2442              	.LFB241:
 273:Lib/lvgl/src/core/lv_obj_style.c ****     LV_ASSERT_OBJ(obj, MY_CLASS);
 2443              		.loc 1 273 1 is_stmt 1 view -0
 2444              		.cfi_startproc
 2445              		@ args = 0, pretend = 0, frame = 8
 2446              		@ frame_needed = 0, uses_anonymous_args = 0
 274:Lib/lvgl/src/core/lv_obj_style.c **** 
 2447              		.loc 1 274 5 view .LVU712
 274:Lib/lvgl/src/core/lv_obj_style.c **** 
 2448              		.loc 1 274 5 view .LVU713
 274:Lib/lvgl/src/core/lv_obj_style.c **** 
ARM GAS  C:\Users\Alex\AppData\Local\Temp\ccdKwz1H.s 			page 106


 2449              		.loc 1 274 5 view .LVU714
 276:Lib/lvgl/src/core/lv_obj_style.c **** 
 2450              		.loc 1 276 5 view .LVU715
 276:Lib/lvgl/src/core/lv_obj_style.c **** 
 2451              		.loc 1 276 9 is_stmt 0 view .LVU716
 2452 0000 474B     		ldr	r3, .L204
 2453 0002 93F82430 		ldrb	r3, [r3, #36]	@ zero_extendqisi2
 276:Lib/lvgl/src/core/lv_obj_style.c **** 
 2454              		.loc 1 276 7 view .LVU717
 2455 0006 03B9     		cbnz	r3, .L200
 2456 0008 7047     		bx	lr
 2457              	.L200:
 273:Lib/lvgl/src/core/lv_obj_style.c ****     LV_ASSERT_OBJ(obj, MY_CLASS);
 2458              		.loc 1 273 1 view .LVU718
 2459 000a 2DE9F047 		push	{r4, r5, r6, r7, r8, r9, r10, lr}
 2460              	.LCFI30:
 2461              		.cfi_def_cfa_offset 32
 2462              		.cfi_offset 4, -32
 2463              		.cfi_offset 5, -28
 2464              		.cfi_offset 6, -24
 2465              		.cfi_offset 7, -20
 2466              		.cfi_offset 8, -16
 2467              		.cfi_offset 9, -12
 2468              		.cfi_offset 10, -8
 2469              		.cfi_offset 14, -4
 2470 000e 82B0     		sub	sp, sp, #8
 2471              	.LCFI31:
 2472              		.cfi_def_cfa_offset 40
 2473 0010 0646     		mov	r6, r0
 2474 0012 0C46     		mov	r4, r1
 2475 0014 1546     		mov	r5, r2
 278:Lib/lvgl/src/core/lv_obj_style.c **** 
 2476              		.loc 1 278 5 is_stmt 1 view .LVU719
 2477 0016 FFF7FEFF 		bl	lv_obj_invalidate
 2478              	.LVL226:
 280:Lib/lvgl/src/core/lv_obj_style.c **** 
 2479              		.loc 1 280 5 view .LVU720
 2480              	.LBB240:
 2481              	.LBI240:
 234:Lib/lvgl/src/core/lv_obj_style.h **** {
 2482              		.loc 5 234 25 view .LVU721
 2483              	.LBB241:
 2484              		.loc 5 236 5 view .LVU722
 2485              		.loc 5 236 21 is_stmt 0 view .LVU723
 2486 001a 04F47F04 		and	r4, r4, #16711680
 2487              	.LVL227:
 2488              		.loc 5 236 21 view .LVU724
 2489              	.LBE241:
 2490              	.LBE240:
 282:Lib/lvgl/src/core/lv_obj_style.c ****     bool is_ext_draw = lv_style_prop_has_flag(prop, LV_STYLE_PROP_FLAG_EXT_DRAW_UPDATE);
 2491              		.loc 1 282 5 is_stmt 1 view .LVU725
 2492              	.LBB242:
 2493              	.LBI242:
 600:Lib/lvgl/src/core/../misc/lv_style.h **** {
 2494              		.loc 4 600 20 view .LVU726
 2495              	.LBB243:
 2496              		.loc 4 602 5 view .LVU727
ARM GAS  C:\Users\Alex\AppData\Local\Temp\ccdKwz1H.s 			page 107


 2497              		.loc 4 602 12 is_stmt 0 view .LVU728
 2498 001e 2846     		mov	r0, r5
 2499 0020 FFF7FEFF 		bl	_lv_style_prop_lookup_flags
 2500              	.LVL228:
 2501              		.loc 4 602 46 view .LVU729
 2502 0024 00F00407 		and	r7, r0, #4
 2503              	.LVL229:
 2504              		.loc 4 602 46 view .LVU730
 2505              	.LBE243:
 2506              	.LBE242:
 283:Lib/lvgl/src/core/lv_obj_style.c ****     bool is_inheritable = lv_style_prop_has_flag(prop, LV_STYLE_PROP_FLAG_INHERITABLE);
 2507              		.loc 1 283 5 is_stmt 1 view .LVU731
 2508              	.LBB244:
 2509              	.LBI244:
 600:Lib/lvgl/src/core/../misc/lv_style.h **** {
 2510              		.loc 4 600 20 view .LVU732
 2511              	.LBB245:
 2512              		.loc 4 602 5 view .LVU733
 2513              		.loc 4 602 12 is_stmt 0 view .LVU734
 2514 0028 2846     		mov	r0, r5
 2515 002a FFF7FEFF 		bl	_lv_style_prop_lookup_flags
 2516              	.LVL230:
 2517              		.loc 4 602 46 view .LVU735
 2518 002e 00F00208 		and	r8, r0, #2
 2519              	.LVL231:
 2520              		.loc 4 602 46 view .LVU736
 2521              	.LBE245:
 2522              	.LBE244:
 284:Lib/lvgl/src/core/lv_obj_style.c ****     bool is_layer_refr = lv_style_prop_has_flag(prop, LV_STYLE_PROP_FLAG_LAYER_UPDATE);
 2523              		.loc 1 284 5 is_stmt 1 view .LVU737
 2524              	.LBB246:
 2525              	.LBI246:
 600:Lib/lvgl/src/core/../misc/lv_style.h **** {
 2526              		.loc 4 600 20 view .LVU738
 2527              	.LBB247:
 2528              		.loc 4 602 5 view .LVU739
 2529              		.loc 4 602 12 is_stmt 0 view .LVU740
 2530 0032 2846     		mov	r0, r5
 2531 0034 FFF7FEFF 		bl	_lv_style_prop_lookup_flags
 2532              	.LVL232:
 2533              		.loc 4 602 46 view .LVU741
 2534 0038 00F0010A 		and	r10, r0, #1
 2535              	.LVL233:
 2536              		.loc 4 602 46 view .LVU742
 2537              	.LBE247:
 2538              	.LBE246:
 285:Lib/lvgl/src/core/lv_obj_style.c **** 
 2539              		.loc 1 285 5 is_stmt 1 view .LVU743
 2540              	.LBB248:
 2541              	.LBI248:
 600:Lib/lvgl/src/core/../misc/lv_style.h **** {
 2542              		.loc 4 600 20 view .LVU744
 2543              	.LBB249:
 2544              		.loc 4 602 5 view .LVU745
 2545              		.loc 4 602 12 is_stmt 0 view .LVU746
 2546 003c 2846     		mov	r0, r5
 2547 003e FFF7FEFF 		bl	_lv_style_prop_lookup_flags
ARM GAS  C:\Users\Alex\AppData\Local\Temp\ccdKwz1H.s 			page 108


 2548              	.LVL234:
 2549              		.loc 4 602 46 view .LVU747
 2550 0042 00F01009 		and	r9, r0, #16
 2551              	.LVL235:
 2552              		.loc 4 602 46 view .LVU748
 2553              	.LBE249:
 2554              	.LBE248:
 287:Lib/lvgl/src/core/lv_obj_style.c ****         if(part == LV_PART_ANY ||
 2555              		.loc 1 287 5 is_stmt 1 view .LVU749
 287:Lib/lvgl/src/core/lv_obj_style.c ****         if(part == LV_PART_ANY ||
 2556              		.loc 1 287 7 is_stmt 0 view .LVU750
 2557 0046 5FB1     		cbz	r7, .L185
 288:Lib/lvgl/src/core/lv_obj_style.c ****            part == LV_PART_MAIN ||
 2558              		.loc 1 288 9 is_stmt 1 view .LVU751
 288:Lib/lvgl/src/core/lv_obj_style.c ****            part == LV_PART_MAIN ||
 2559              		.loc 1 288 11 is_stmt 0 view .LVU752
 2560 0048 B4F5702F 		cmp	r4, #983040
 2561 004c 00D0     		beq	.L186
 288:Lib/lvgl/src/core/lv_obj_style.c ****            part == LV_PART_MAIN ||
 2562              		.loc 1 288 32 discriminator 1 view .LVU753
 2563 004e ACBB     		cbnz	r4, .L201
 2564              	.L186:
 292:Lib/lvgl/src/core/lv_obj_style.c ****             lv_obj_mark_layout_as_dirty(obj);
 2565              		.loc 1 292 13 is_stmt 1 view .LVU754
 2566 0050 0022     		movs	r2, #0
 2567 0052 2C21     		movs	r1, #44
 2568 0054 3046     		mov	r0, r6
 2569 0056 FFF7FEFF 		bl	lv_obj_send_event
 2570              	.LVL236:
 293:Lib/lvgl/src/core/lv_obj_style.c ****         }
 2571              		.loc 1 293 13 view .LVU755
 2572 005a 3046     		mov	r0, r6
 2573 005c FFF7FEFF 		bl	lv_obj_mark_layout_as_dirty
 2574              	.LVL237:
 2575              	.L185:
 296:Lib/lvgl/src/core/lv_obj_style.c ****         lv_obj_t * parent = lv_obj_get_parent(obj);
 2576              		.loc 1 296 5 view .LVU756
 296:Lib/lvgl/src/core/lv_obj_style.c ****         lv_obj_t * parent = lv_obj_get_parent(obj);
 2577              		.loc 1 296 7 is_stmt 0 view .LVU757
 2578 0060 B4F5702F 		cmp	r4, #983040
 2579 0064 00D0     		beq	.L187
 296:Lib/lvgl/src/core/lv_obj_style.c ****         lv_obj_t * parent = lv_obj_get_parent(obj);
 2580              		.loc 1 296 29 discriminator 2 view .LVU758
 2581 0066 44B9     		cbnz	r4, .L188
 2582              	.L187:
 296:Lib/lvgl/src/core/lv_obj_style.c ****         lv_obj_t * parent = lv_obj_get_parent(obj);
 2583              		.loc 1 296 54 discriminator 3 view .LVU759
 2584 0068 FF2D     		cmp	r5, #255
 2585 006a 00D0     		beq	.L189
 296:Lib/lvgl/src/core/lv_obj_style.c ****         lv_obj_t * parent = lv_obj_get_parent(obj);
 2586              		.loc 1 296 84 discriminator 4 view .LVU760
 2587 006c 2FB1     		cbz	r7, .L188
 2588              	.L189:
 2589              	.LBB250:
 297:Lib/lvgl/src/core/lv_obj_style.c ****         if(parent) lv_obj_mark_layout_as_dirty(parent);
 2590              		.loc 1 297 9 is_stmt 1 view .LVU761
 297:Lib/lvgl/src/core/lv_obj_style.c ****         if(parent) lv_obj_mark_layout_as_dirty(parent);
ARM GAS  C:\Users\Alex\AppData\Local\Temp\ccdKwz1H.s 			page 109


 2591              		.loc 1 297 29 is_stmt 0 view .LVU762
 2592 006e 3046     		mov	r0, r6
 2593 0070 FFF7FEFF 		bl	lv_obj_get_parent
 2594              	.LVL238:
 298:Lib/lvgl/src/core/lv_obj_style.c ****     }
 2595              		.loc 1 298 9 is_stmt 1 view .LVU763
 298:Lib/lvgl/src/core/lv_obj_style.c ****     }
 2596              		.loc 1 298 11 is_stmt 0 view .LVU764
 2597 0074 08B1     		cbz	r0, .L188
 298:Lib/lvgl/src/core/lv_obj_style.c ****     }
 2598              		.loc 1 298 20 is_stmt 1 discriminator 1 view .LVU765
 2599 0076 FFF7FEFF 		bl	lv_obj_mark_layout_as_dirty
 2600              	.LVL239:
 2601              	.L188:
 298:Lib/lvgl/src/core/lv_obj_style.c ****     }
 2602              		.loc 1 298 20 is_stmt 0 discriminator 1 view .LVU766
 2603              	.LBE250:
 302:Lib/lvgl/src/core/lv_obj_style.c ****         lv_layer_type_t layer_type = calculate_layer_type(obj);
 2604              		.loc 1 302 5 is_stmt 1 view .LVU767
 302:Lib/lvgl/src/core/lv_obj_style.c ****         lv_layer_type_t layer_type = calculate_layer_type(obj);
 2605              		.loc 1 302 7 is_stmt 0 view .LVU768
 2606 007a B4F5702F 		cmp	r4, #983040
 2607 007e 00D0     		beq	.L190
 302:Lib/lvgl/src/core/lv_obj_style.c ****         lv_layer_type_t layer_type = calculate_layer_type(obj);
 2608              		.loc 1 302 29 discriminator 2 view .LVU769
 2609 0080 14B9     		cbnz	r4, .L191
 2610              	.L190:
 302:Lib/lvgl/src/core/lv_obj_style.c ****         lv_layer_type_t layer_type = calculate_layer_type(obj);
 2611              		.loc 1 302 54 discriminator 3 view .LVU770
 2612 0082 B9F1000F 		cmp	r9, #0
 2613 0086 2CD1     		bne	.L202
 2614              	.LVL240:
 2615              	.L191:
 311:Lib/lvgl/src/core/lv_obj_style.c ****         lv_obj_refresh_ext_draw_size(obj);
 2616              		.loc 1 311 5 is_stmt 1 view .LVU771
 311:Lib/lvgl/src/core/lv_obj_style.c ****         lv_obj_refresh_ext_draw_size(obj);
 2617              		.loc 1 311 7 is_stmt 0 view .LVU772
 2618 0088 FF2D     		cmp	r5, #255
 2619 008a 02D0     		beq	.L193
 311:Lib/lvgl/src/core/lv_obj_style.c ****         lv_obj_refresh_ext_draw_size(obj);
 2620              		.loc 1 311 34 discriminator 1 view .LVU773
 2621 008c B8F1000F 		cmp	r8, #0
 2622 0090 02D0     		beq	.L194
 2623              	.L193:
 312:Lib/lvgl/src/core/lv_obj_style.c ****     }
 2624              		.loc 1 312 9 is_stmt 1 view .LVU774
 2625 0092 3046     		mov	r0, r6
 2626 0094 FFF7FEFF 		bl	lv_obj_refresh_ext_draw_size
 2627              	.LVL241:
 2628              	.L194:
 314:Lib/lvgl/src/core/lv_obj_style.c **** 
 2629              		.loc 1 314 5 view .LVU775
 2630 0098 3046     		mov	r0, r6
 2631 009a FFF7FEFF 		bl	lv_obj_invalidate
 2632              	.LVL242:
 316:Lib/lvgl/src/core/lv_obj_style.c ****         if(part != LV_PART_SCROLLBAR) {
 2633              		.loc 1 316 5 view .LVU776
ARM GAS  C:\Users\Alex\AppData\Local\Temp\ccdKwz1H.s 			page 110


 316:Lib/lvgl/src/core/lv_obj_style.c ****         if(part != LV_PART_SCROLLBAR) {
 2634              		.loc 1 316 7 is_stmt 0 view .LVU777
 2635 009e FF2D     		cmp	r5, #255
 2636 00a0 06D0     		beq	.L195
 316:Lib/lvgl/src/core/lv_obj_style.c ****         if(part != LV_PART_SCROLLBAR) {
 2637              		.loc 1 316 34 discriminator 1 view .LVU778
 2638 00a2 BAF1000F 		cmp	r10, #0
 2639 00a6 06D0     		beq	.L183
 316:Lib/lvgl/src/core/lv_obj_style.c ****         if(part != LV_PART_SCROLLBAR) {
 2640              		.loc 1 316 53 discriminator 2 view .LVU779
 2641 00a8 B8F1000F 		cmp	r8, #0
 2642 00ac 00D1     		bne	.L195
 316:Lib/lvgl/src/core/lv_obj_style.c ****         if(part != LV_PART_SCROLLBAR) {
 2643              		.loc 1 316 69 discriminator 3 view .LVU780
 2644 00ae 17B1     		cbz	r7, .L183
 2645              	.L195:
 317:Lib/lvgl/src/core/lv_obj_style.c ****             refresh_children_style(obj);
 2646              		.loc 1 317 9 is_stmt 1 view .LVU781
 317:Lib/lvgl/src/core/lv_obj_style.c ****             refresh_children_style(obj);
 2647              		.loc 1 317 11 is_stmt 0 view .LVU782
 2648 00b0 B4F5803F 		cmp	r4, #65536
 2649 00b4 2FD1     		bne	.L203
 2650              	.L183:
 321:Lib/lvgl/src/core/lv_obj_style.c **** 
 2651              		.loc 1 321 1 view .LVU783
 2652 00b6 02B0     		add	sp, sp, #8
 2653              	.LCFI32:
 2654              		.cfi_remember_state
 2655              		.cfi_def_cfa_offset 32
 2656              		@ sp needed
 2657 00b8 BDE8F087 		pop	{r4, r5, r6, r7, r8, r9, r10, pc}
 2658              	.LVL243:
 2659              	.L201:
 2660              	.LCFI33:
 2661              		.cfi_restore_state
 2662              	.LBB251:
 2663              	.LBI251:
  34:Lib/lvgl/src/core/lv_obj_style_gen.h **** {
 2664              		.loc 8 34 23 is_stmt 1 view .LVU784
 2665              	.LBB252:
  36:Lib/lvgl/src/core/lv_obj_style_gen.h ****     return (int32_t)v.num;
 2666              		.loc 8 36 5 view .LVU785
  36:Lib/lvgl/src/core/lv_obj_style_gen.h ****     return (int32_t)v.num;
 2667              		.loc 8 36 26 is_stmt 0 view .LVU786
 2668 00bc 0222     		movs	r2, #2
 2669 00be 0021     		movs	r1, #0
 2670 00c0 3046     		mov	r0, r6
 2671 00c2 FFF7FEFF 		bl	lv_obj_get_style_prop
 2672              	.LVL244:
 2673 00c6 0190     		str	r0, [sp, #4]
  37:Lib/lvgl/src/core/lv_obj_style_gen.h **** }
 2674              		.loc 8 37 5 is_stmt 1 view .LVU787
 2675              	.LVL245:
  37:Lib/lvgl/src/core/lv_obj_style_gen.h **** }
 2676              		.loc 8 37 5 is_stmt 0 view .LVU788
 2677              	.LBE252:
 2678              	.LBE251:
ARM GAS  C:\Users\Alex\AppData\Local\Temp\ccdKwz1H.s 			page 111


 289:Lib/lvgl/src/core/lv_obj_style.c ****            lv_obj_get_style_height(obj, 0) == LV_SIZE_CONTENT ||
 2679              		.loc 1 289 33 view .LVU789
 2680 00c8 164B     		ldr	r3, .L204+4
 2681 00ca 9842     		cmp	r0, r3
 2682 00cc C0D0     		beq	.L186
 2683              	.LVL246:
 2684              	.LBB253:
 2685              	.LBI253:
  16:Lib/lvgl/src/core/lv_obj_style_gen.h **** {
 2686              		.loc 8 16 23 is_stmt 1 view .LVU790
 2687              	.LBB254:
  18:Lib/lvgl/src/core/lv_obj_style_gen.h ****     return (int32_t)v.num;
 2688              		.loc 8 18 5 view .LVU791
  18:Lib/lvgl/src/core/lv_obj_style_gen.h ****     return (int32_t)v.num;
 2689              		.loc 8 18 26 is_stmt 0 view .LVU792
 2690 00ce 0122     		movs	r2, #1
 2691 00d0 0021     		movs	r1, #0
 2692 00d2 3046     		mov	r0, r6
 2693 00d4 FFF7FEFF 		bl	lv_obj_get_style_prop
 2694              	.LVL247:
 2695 00d8 0190     		str	r0, [sp, #4]
  19:Lib/lvgl/src/core/lv_obj_style_gen.h **** }
 2696              		.loc 8 19 5 is_stmt 1 view .LVU793
 2697              	.LVL248:
  19:Lib/lvgl/src/core/lv_obj_style_gen.h **** }
 2698              		.loc 8 19 5 is_stmt 0 view .LVU794
 2699              	.LBE254:
 2700              	.LBE253:
 290:Lib/lvgl/src/core/lv_obj_style.c ****            lv_obj_get_style_width(obj, 0) == LV_SIZE_CONTENT) {
 2701              		.loc 1 290 63 view .LVU795
 2702 00da 124B     		ldr	r3, .L204+4
 2703 00dc 9842     		cmp	r0, r3
 2704 00de BFD1     		bne	.L185
 2705 00e0 B6E7     		b	.L186
 2706              	.L202:
 2707              	.LBB255:
 303:Lib/lvgl/src/core/lv_obj_style.c ****         if(obj->spec_attr) obj->spec_attr->layer_type = layer_type;
 2708              		.loc 1 303 9 is_stmt 1 view .LVU796
 303:Lib/lvgl/src/core/lv_obj_style.c ****         if(obj->spec_attr) obj->spec_attr->layer_type = layer_type;
 2709              		.loc 1 303 38 is_stmt 0 view .LVU797
 2710 00e2 3046     		mov	r0, r6
 2711 00e4 FFF7FEFF 		bl	calculate_layer_type
 2712              	.LVL249:
 2713 00e8 8146     		mov	r9, r0
 2714              	.LVL250:
 304:Lib/lvgl/src/core/lv_obj_style.c ****         else if(layer_type != LV_LAYER_TYPE_NONE) {
 2715              		.loc 1 304 9 is_stmt 1 view .LVU798
 304:Lib/lvgl/src/core/lv_obj_style.c ****         else if(layer_type != LV_LAYER_TYPE_NONE) {
 2716              		.loc 1 304 15 is_stmt 0 view .LVU799
 2717 00ea B368     		ldr	r3, [r6, #8]
 304:Lib/lvgl/src/core/lv_obj_style.c ****         else if(layer_type != LV_LAYER_TYPE_NONE) {
 2718              		.loc 1 304 11 view .LVU800
 2719 00ec 33B1     		cbz	r3, .L192
 304:Lib/lvgl/src/core/lv_obj_style.c ****         else if(layer_type != LV_LAYER_TYPE_NONE) {
 2720              		.loc 1 304 28 is_stmt 1 discriminator 1 view .LVU801
 304:Lib/lvgl/src/core/lv_obj_style.c ****         else if(layer_type != LV_LAYER_TYPE_NONE) {
 2721              		.loc 1 304 55 is_stmt 0 discriminator 1 view .LVU802
ARM GAS  C:\Users\Alex\AppData\Local\Temp\ccdKwz1H.s 			page 112


 2722 00ee 93F82B20 		ldrb	r2, [r3, #43]	@ zero_extendqisi2
 2723 00f2 60F38302 		bfi	r2, r0, #2, #2
 2724              	.LVL251:
 304:Lib/lvgl/src/core/lv_obj_style.c ****         else if(layer_type != LV_LAYER_TYPE_NONE) {
 2725              		.loc 1 304 55 discriminator 1 view .LVU803
 2726 00f6 83F82B20 		strb	r2, [r3, #43]
 2727 00fa C5E7     		b	.L191
 2728              	.LVL252:
 2729              	.L192:
 305:Lib/lvgl/src/core/lv_obj_style.c ****             lv_obj_allocate_spec_attr(obj);
 2730              		.loc 1 305 14 is_stmt 1 view .LVU804
 305:Lib/lvgl/src/core/lv_obj_style.c ****             lv_obj_allocate_spec_attr(obj);
 2731              		.loc 1 305 16 is_stmt 0 view .LVU805
 2732 00fc 0028     		cmp	r0, #0
 2733 00fe C3D0     		beq	.L191
 306:Lib/lvgl/src/core/lv_obj_style.c ****             obj->spec_attr->layer_type = layer_type;
 2734              		.loc 1 306 13 is_stmt 1 view .LVU806
 2735 0100 3046     		mov	r0, r6
 2736              	.LVL253:
 306:Lib/lvgl/src/core/lv_obj_style.c ****             obj->spec_attr->layer_type = layer_type;
 2737              		.loc 1 306 13 is_stmt 0 view .LVU807
 2738 0102 FFF7FEFF 		bl	lv_obj_allocate_spec_attr
 2739              	.LVL254:
 307:Lib/lvgl/src/core/lv_obj_style.c ****         }
 2740              		.loc 1 307 13 is_stmt 1 view .LVU808
 307:Lib/lvgl/src/core/lv_obj_style.c ****         }
 2741              		.loc 1 307 16 is_stmt 0 view .LVU809
 2742 0106 B368     		ldr	r3, [r6, #8]
 307:Lib/lvgl/src/core/lv_obj_style.c ****         }
 2743              		.loc 1 307 40 view .LVU810
 2744 0108 93F82B20 		ldrb	r2, [r3, #43]	@ zero_extendqisi2
 2745 010c 69F38302 		bfi	r2, r9, #2, #2
 2746              	.LVL255:
 307:Lib/lvgl/src/core/lv_obj_style.c ****         }
 2747              		.loc 1 307 40 view .LVU811
 2748 0110 83F82B20 		strb	r2, [r3, #43]
 2749 0114 B8E7     		b	.L191
 2750              	.L203:
 307:Lib/lvgl/src/core/lv_obj_style.c ****         }
 2751              		.loc 1 307 40 view .LVU812
 2752              	.LBE255:
 318:Lib/lvgl/src/core/lv_obj_style.c ****         }
 2753              		.loc 1 318 13 is_stmt 1 view .LVU813
 2754 0116 3046     		mov	r0, r6
 2755 0118 FFF7FEFF 		bl	refresh_children_style
 2756              	.LVL256:
 2757 011c CBE7     		b	.L183
 2758              	.L205:
 2759 011e 00BF     		.align	2
 2760              	.L204:
 2761 0120 00000000 		.word	lv_global
 2762 0124 D1070020 		.word	536872913
 2763              		.cfi_endproc
 2764              	.LFE241:
 2766              		.section	.text.lv_obj_replace_style,"ax",%progbits
 2767              		.align	1
 2768              		.global	lv_obj_replace_style
ARM GAS  C:\Users\Alex\AppData\Local\Temp\ccdKwz1H.s 			page 113


 2769              		.syntax unified
 2770              		.thumb
 2771              		.thumb_func
 2773              	lv_obj_replace_style:
 2774              	.LVL257:
 2775              	.LFB237:
 156:Lib/lvgl/src/core/lv_obj_style.c ****     lv_state_t state = lv_obj_style_get_selector_state(selector);
 2776              		.loc 1 156 1 view -0
 2777              		.cfi_startproc
 2778              		@ args = 0, pretend = 0, frame = 8
 2779              		@ frame_needed = 0, uses_anonymous_args = 0
 156:Lib/lvgl/src/core/lv_obj_style.c ****     lv_state_t state = lv_obj_style_get_selector_state(selector);
 2780              		.loc 1 156 1 is_stmt 0 view .LVU815
 2781 0000 2DE9F04F 		push	{r4, r5, r6, r7, r8, r9, r10, fp, lr}
 2782              	.LCFI34:
 2783              		.cfi_def_cfa_offset 36
 2784              		.cfi_offset 4, -36
 2785              		.cfi_offset 5, -32
 2786              		.cfi_offset 6, -28
 2787              		.cfi_offset 7, -24
 2788              		.cfi_offset 8, -20
 2789              		.cfi_offset 9, -16
 2790              		.cfi_offset 10, -12
 2791              		.cfi_offset 11, -8
 2792              		.cfi_offset 14, -4
 2793 0004 83B0     		sub	sp, sp, #12
 2794              	.LCFI35:
 2795              		.cfi_def_cfa_offset 48
 2796 0006 0192     		str	r2, [sp, #4]
 157:Lib/lvgl/src/core/lv_obj_style.c ****     lv_part_t part = lv_obj_style_get_selector_part(selector);
 2797              		.loc 1 157 5 is_stmt 1 view .LVU816
 2798              	.LVL258:
 2799              	.LBB256:
 2800              	.LBI256:
 229:Lib/lvgl/src/core/lv_obj_style.h **** {
 2801              		.loc 5 229 26 view .LVU817
 2802              	.LBB257:
 231:Lib/lvgl/src/core/lv_obj_style.h **** }
 2803              		.loc 5 231 5 view .LVU818
 231:Lib/lvgl/src/core/lv_obj_style.h **** }
 2804              		.loc 5 231 5 is_stmt 0 view .LVU819
 2805              	.LBE257:
 2806              	.LBE256:
 158:Lib/lvgl/src/core/lv_obj_style.c **** 
 2807              		.loc 1 158 5 is_stmt 1 view .LVU820
 2808              	.LBB258:
 2809              	.LBI258:
 234:Lib/lvgl/src/core/lv_obj_style.h **** {
 2810              		.loc 5 234 25 view .LVU821
 2811              	.LBB259:
 2812              		.loc 5 236 5 view .LVU822
 2813              		.loc 5 236 5 is_stmt 0 view .LVU823
 2814              	.LBE259:
 2815              	.LBE258:
 161:Lib/lvgl/src/core/lv_obj_style.c ****         return false;
 2816              		.loc 1 161 5 is_stmt 1 view .LVU824
 161:Lib/lvgl/src/core/lv_obj_style.c ****         return false;
ARM GAS  C:\Users\Alex\AppData\Local\Temp\ccdKwz1H.s 			page 114


 2817              		.loc 1 161 7 is_stmt 0 view .LVU825
 2818 0008 0028     		cmp	r0, #0
 2819 000a 56D0     		beq	.L213
 2820 000c 0F46     		mov	r7, r1
 2821 000e 1E46     		mov	r6, r3
 2822 0010 1FFA83F9 		uxth	r9, r3
 2823 0014 03F47F0A 		and	r10, r3, #16711680
 2824              	.LVL259:
 161:Lib/lvgl/src/core/lv_obj_style.c ****         return false;
 2825              		.loc 1 161 7 view .LVU826
 2826 0018 0546     		mov	r5, r0
 161:Lib/lvgl/src/core/lv_obj_style.c ****         return false;
 2827              		.loc 1 161 13 discriminator 1 view .LVU827
 2828 001a 0029     		cmp	r1, #0
 2829 001c 50D0     		beq	.L214
 161:Lib/lvgl/src/core/lv_obj_style.c ****         return false;
 2830              		.loc 1 161 27 discriminator 2 view .LVU828
 2831 001e 002A     		cmp	r2, #0
 2832 0020 51D0     		beq	.L215
 161:Lib/lvgl/src/core/lv_obj_style.c ****         return false;
 2833              		.loc 1 161 41 discriminator 3 view .LVU829
 2834 0022 9142     		cmp	r1, r2
 2835 0024 52D0     		beq	.L216
 166:Lib/lvgl/src/core/lv_obj_style.c **** 
 2836              		.loc 1 166 5 is_stmt 1 view .LVU830
 2837 0026 0023     		movs	r3, #0
 2838              	.LVL260:
 166:Lib/lvgl/src/core/lv_obj_style.c **** 
 2839              		.loc 1 166 5 is_stmt 0 view .LVU831
 2840 0028 FF22     		movs	r2, #255
 2841              	.LVL261:
 166:Lib/lvgl/src/core/lv_obj_style.c **** 
 2842              		.loc 1 166 5 view .LVU832
 2843 002a 3146     		mov	r1, r6
 2844              	.LVL262:
 166:Lib/lvgl/src/core/lv_obj_style.c **** 
 2845              		.loc 1 166 5 view .LVU833
 2846 002c FFF7FEFF 		bl	trans_delete
 2847              	.LVL263:
 168:Lib/lvgl/src/core/lv_obj_style.c ****     uint32_t i;
 2848              		.loc 1 168 5 is_stmt 1 view .LVU834
 169:Lib/lvgl/src/core/lv_obj_style.c ****     for(i = 0; i < obj->style_cnt; i++) {
 2849              		.loc 1 169 5 view .LVU835
 170:Lib/lvgl/src/core/lv_obj_style.c ****         lv_state_t state_act = lv_obj_style_get_selector_state(obj->styles[i].selector);
 2850              		.loc 1 170 5 view .LVU836
 170:Lib/lvgl/src/core/lv_obj_style.c ****         lv_state_t state_act = lv_obj_style_get_selector_state(obj->styles[i].selector);
 2851              		.loc 1 170 11 is_stmt 0 view .LVU837
 2852 0030 0024     		movs	r4, #0
 168:Lib/lvgl/src/core/lv_obj_style.c ****     uint32_t i;
 2853              		.loc 1 168 10 view .LVU838
 2854 0032 A346     		mov	fp, r4
 170:Lib/lvgl/src/core/lv_obj_style.c ****         lv_state_t state_act = lv_obj_style_get_selector_state(obj->styles[i].selector);
 2855              		.loc 1 170 5 view .LVU839
 2856 0034 04E0     		b	.L208
 2857              	.LVL264:
 2858              	.L211:
 2859              	.LBB260:
ARM GAS  C:\Users\Alex\AppData\Local\Temp\ccdKwz1H.s 			page 115


 182:Lib/lvgl/src/core/lv_obj_style.c ****             continue;
 2860              		.loc 1 182 40 discriminator 1 view .LVU840
 2861 0036 52F80830 		ldr	r3, [r2, r8]
 2862              	.LVL265:
 181:Lib/lvgl/src/core/lv_obj_style.c ****            (old_style != obj->styles[i].style)) {
 2863              		.loc 1 181 54 discriminator 1 view .LVU841
 2864 003a BB42     		cmp	r3, r7
 2865 003c 1FD0     		beq	.L218
 2866              	.LVL266:
 2867              	.L209:
 181:Lib/lvgl/src/core/lv_obj_style.c ****            (old_style != obj->styles[i].style)) {
 2868              		.loc 1 181 54 discriminator 1 view .LVU842
 2869              	.LBE260:
 170:Lib/lvgl/src/core/lv_obj_style.c ****         lv_state_t state_act = lv_obj_style_get_selector_state(obj->styles[i].selector);
 2870              		.loc 1 170 37 is_stmt 1 discriminator 2 view .LVU843
 2871 003e 0134     		adds	r4, r4, #1
 2872              	.LVL267:
 2873              	.L208:
 170:Lib/lvgl/src/core/lv_obj_style.c ****         lv_state_t state_act = lv_obj_style_get_selector_state(obj->styles[i].selector);
 2874              		.loc 1 170 18 discriminator 1 view .LVU844
 170:Lib/lvgl/src/core/lv_obj_style.c ****         lv_state_t state_act = lv_obj_style_get_selector_state(obj->styles[i].selector);
 2875              		.loc 1 170 23 is_stmt 0 discriminator 1 view .LVU845
 2876 0040 6B8D     		ldrh	r3, [r5, #42]
 2877 0042 C3F30513 		ubfx	r3, r3, #4, #6
 170:Lib/lvgl/src/core/lv_obj_style.c ****         lv_state_t state_act = lv_obj_style_get_selector_state(obj->styles[i].selector);
 2878              		.loc 1 170 18 discriminator 1 view .LVU846
 2879 0046 A342     		cmp	r3, r4
 2880 0048 2AD9     		bls	.L219
 2881              	.LBB267:
 171:Lib/lvgl/src/core/lv_obj_style.c ****         lv_part_t part_act = lv_obj_style_get_selector_part(obj->styles[i].selector);
 2882              		.loc 1 171 9 is_stmt 1 view .LVU847
 171:Lib/lvgl/src/core/lv_obj_style.c ****         lv_part_t part_act = lv_obj_style_get_selector_part(obj->styles[i].selector);
 2883              		.loc 1 171 67 is_stmt 0 view .LVU848
 2884 004a EA68     		ldr	r2, [r5, #12]
 171:Lib/lvgl/src/core/lv_obj_style.c ****         lv_part_t part_act = lv_obj_style_get_selector_part(obj->styles[i].selector);
 2885              		.loc 1 171 75 view .LVU849
 2886 004c 4FEAC408 		lsl	r8, r4, #3
 2887 0050 02EBC400 		add	r0, r2, r4, lsl #3
 171:Lib/lvgl/src/core/lv_obj_style.c ****         lv_part_t part_act = lv_obj_style_get_selector_part(obj->styles[i].selector);
 2888              		.loc 1 171 78 view .LVU850
 2889 0054 4368     		ldr	r3, [r0, #4]
 2890              	.LVL268:
 2891              	.LBB261:
 2892              	.LBI261:
 229:Lib/lvgl/src/core/lv_obj_style.h **** {
 2893              		.loc 5 229 26 is_stmt 1 view .LVU851
 2894              	.LBB262:
 231:Lib/lvgl/src/core/lv_obj_style.h **** }
 2895              		.loc 5 231 5 view .LVU852
 231:Lib/lvgl/src/core/lv_obj_style.h **** }
 2896              		.loc 5 231 21 is_stmt 0 view .LVU853
 2897 0056 1FFA83FC 		uxth	ip, r3
 2898              	.LVL269:
 231:Lib/lvgl/src/core/lv_obj_style.h **** }
 2899              		.loc 5 231 21 view .LVU854
 2900              	.LBE262:
 2901              	.LBE261:
ARM GAS  C:\Users\Alex\AppData\Local\Temp\ccdKwz1H.s 			page 116


 172:Lib/lvgl/src/core/lv_obj_style.c **** 
 2902              		.loc 1 172 9 is_stmt 1 view .LVU855
 2903              	.LBB263:
 2904              	.LBI263:
 234:Lib/lvgl/src/core/lv_obj_style.h **** {
 2905              		.loc 5 234 25 view .LVU856
 2906              	.LBB264:
 2907              		.loc 5 236 5 view .LVU857
 2908              		.loc 5 236 21 is_stmt 0 view .LVU858
 2909 005a 03F47F03 		and	r3, r3, #16711680
 2910              	.LVL270:
 2911              		.loc 5 236 21 view .LVU859
 2912              	.LBE264:
 2913              	.LBE263:
 175:Lib/lvgl/src/core/lv_obj_style.c ****             continue;
 2914              		.loc 1 175 9 is_stmt 1 view .LVU860
 175:Lib/lvgl/src/core/lv_obj_style.c ****             continue;
 2915              		.loc 1 175 36 is_stmt 0 view .LVU861
 2916 005e C179     		ldrb	r1, [r0, #7]	@ zero_extendqisi2
 175:Lib/lvgl/src/core/lv_obj_style.c ****             continue;
 2917              		.loc 1 175 11 view .LVU862
 2918 0060 11F0030F 		tst	r1, #3
 2919 0064 EBD1     		bne	.L209
 180:Lib/lvgl/src/core/lv_obj_style.c ****            (part != LV_PART_ANY && part_act != part) ||
 2920              		.loc 1 180 9 is_stmt 1 view .LVU863
 180:Lib/lvgl/src/core/lv_obj_style.c ****            (part != LV_PART_ANY && part_act != part) ||
 2921              		.loc 1 180 11 is_stmt 0 view .LVU864
 2922 0066 4FF6FF71 		movw	r1, #65535
 2923 006a 8945     		cmp	r9, r1
 2924 006c 01D0     		beq	.L210
 180:Lib/lvgl/src/core/lv_obj_style.c ****            (part != LV_PART_ANY && part_act != part) ||
 2925              		.loc 1 180 35 discriminator 1 view .LVU865
 2926 006e CC45     		cmp	ip, r9
 2927 0070 E5D1     		bne	.L209
 2928              	.L210:
 180:Lib/lvgl/src/core/lv_obj_style.c ****            (part != LV_PART_ANY && part_act != part) ||
 2929              		.loc 1 180 58 discriminator 4 view .LVU866
 2930 0072 BAF5702F 		cmp	r10, #983040
 2931 0076 DED0     		beq	.L211
 181:Lib/lvgl/src/core/lv_obj_style.c ****            (old_style != obj->styles[i].style)) {
 2932              		.loc 1 181 33 view .LVU867
 2933 0078 9A45     		cmp	r10, r3
 2934 007a DCD0     		beq	.L211
 2935 007c DFE7     		b	.L209
 2936              	.LVL271:
 2937              	.L218:
 186:Lib/lvgl/src/core/lv_obj_style.c ****         obj->styles[i].style = new_style;
 2938              		.loc 1 186 9 is_stmt 1 view .LVU868
 2939              	.LBB265:
 2940              	.LBI265:
  65:Lib/lvgl/src/core/../misc/../font/../draw/../stdlib/lv_string.h **** {
 2941              		.loc 6 65 20 view .LVU869
 2942              	.LBB266:
 2943              		.loc 6 67 5 view .LVU870
 2944 007e 0822     		movs	r2, #8
 2945 0080 0021     		movs	r1, #0
 2946 0082 FFF7FEFF 		bl	lv_memset
ARM GAS  C:\Users\Alex\AppData\Local\Temp\ccdKwz1H.s 			page 117


 2947              	.LVL272:
 2948              		.loc 6 67 5 is_stmt 0 view .LVU871
 2949              	.LBE266:
 2950              	.LBE265:
 187:Lib/lvgl/src/core/lv_obj_style.c ****         obj->styles[i].selector = selector;
 2951              		.loc 1 187 9 is_stmt 1 view .LVU872
 187:Lib/lvgl/src/core/lv_obj_style.c ****         obj->styles[i].selector = selector;
 2952              		.loc 1 187 12 is_stmt 0 view .LVU873
 2953 0086 EB68     		ldr	r3, [r5, #12]
 187:Lib/lvgl/src/core/lv_obj_style.c ****         obj->styles[i].selector = selector;
 2954              		.loc 1 187 30 view .LVU874
 2955 0088 019A     		ldr	r2, [sp, #4]
 2956 008a 43F80820 		str	r2, [r3, r8]
 188:Lib/lvgl/src/core/lv_obj_style.c **** 
 2957              		.loc 1 188 9 is_stmt 1 view .LVU875
 188:Lib/lvgl/src/core/lv_obj_style.c **** 
 2958              		.loc 1 188 12 is_stmt 0 view .LVU876
 2959 008e EB68     		ldr	r3, [r5, #12]
 188:Lib/lvgl/src/core/lv_obj_style.c **** 
 2960              		.loc 1 188 20 view .LVU877
 2961 0090 4344     		add	r3, r3, r8
 188:Lib/lvgl/src/core/lv_obj_style.c **** 
 2962              		.loc 1 188 33 view .LVU878
 2963 0092 5A68     		ldr	r2, [r3, #4]
 2964 0094 66F31702 		bfi	r2, r6, #0, #24
 2965 0098 5A60     		str	r2, [r3, #4]
 190:Lib/lvgl/src/core/lv_obj_style.c ****         /*Don't break and continue replacing other occurrences*/
 2966              		.loc 1 190 9 is_stmt 1 view .LVU879
 2967              	.LVL273:
 190:Lib/lvgl/src/core/lv_obj_style.c ****         /*Don't break and continue replacing other occurrences*/
 2968              		.loc 1 190 18 is_stmt 0 view .LVU880
 2969 009a 4FF0010B 		mov	fp, #1
 2970 009e CEE7     		b	.L209
 2971              	.LVL274:
 2972              	.L219:
 190:Lib/lvgl/src/core/lv_obj_style.c ****         /*Don't break and continue replacing other occurrences*/
 2973              		.loc 1 190 18 view .LVU881
 2974              	.LBE267:
 193:Lib/lvgl/src/core/lv_obj_style.c ****         full_cache_refresh(obj, part);
 2975              		.loc 1 193 5 is_stmt 1 view .LVU882
 193:Lib/lvgl/src/core/lv_obj_style.c ****         full_cache_refresh(obj, part);
 2976              		.loc 1 193 7 is_stmt 0 view .LVU883
 2977 00a0 BBF1000F 		cmp	fp, #0
 2978 00a4 03D1     		bne	.L220
 2979              	.LVL275:
 2980              	.L207:
 198:Lib/lvgl/src/core/lv_obj_style.c **** 
 2981              		.loc 1 198 1 view .LVU884
 2982 00a6 5846     		mov	r0, fp
 2983 00a8 03B0     		add	sp, sp, #12
 2984              	.LCFI36:
 2985              		.cfi_remember_state
 2986              		.cfi_def_cfa_offset 36
 2987              		@ sp needed
 2988 00aa BDE8F08F 		pop	{r4, r5, r6, r7, r8, r9, r10, fp, pc}
 2989              	.LVL276:
 2990              	.L220:
ARM GAS  C:\Users\Alex\AppData\Local\Temp\ccdKwz1H.s 			page 118


 2991              	.LCFI37:
 2992              		.cfi_restore_state
 194:Lib/lvgl/src/core/lv_obj_style.c ****         lv_obj_refresh_style(obj, part, LV_STYLE_PROP_ANY);
 2993              		.loc 1 194 9 is_stmt 1 view .LVU885
 195:Lib/lvgl/src/core/lv_obj_style.c ****     }
 2994              		.loc 1 195 9 view .LVU886
 2995 00ae FF22     		movs	r2, #255
 2996 00b0 5146     		mov	r1, r10
 2997 00b2 2846     		mov	r0, r5
 2998 00b4 FFF7FEFF 		bl	lv_obj_refresh_style
 2999              	.LVL277:
 3000 00b8 F5E7     		b	.L207
 3001              	.LVL278:
 3002              	.L213:
 162:Lib/lvgl/src/core/lv_obj_style.c ****     }
 3003              		.loc 1 162 16 is_stmt 0 view .LVU887
 3004 00ba 4FF0000B 		mov	fp, #0
 3005 00be F2E7     		b	.L207
 3006              	.LVL279:
 3007              	.L214:
 162:Lib/lvgl/src/core/lv_obj_style.c ****     }
 3008              		.loc 1 162 16 view .LVU888
 3009 00c0 4FF0000B 		mov	fp, #0
 3010 00c4 EFE7     		b	.L207
 3011              	.L215:
 3012 00c6 4FF0000B 		mov	fp, #0
 3013 00ca ECE7     		b	.L207
 3014              	.L216:
 3015 00cc 4FF0000B 		mov	fp, #0
 3016 00d0 E9E7     		b	.L207
 3017              		.cfi_endproc
 3018              	.LFE237:
 3020              		.section	.text.lv_obj_remove_style,"ax",%progbits
 3021              		.align	1
 3022              		.global	lv_obj_remove_style
 3023              		.syntax unified
 3024              		.thumb
 3025              		.thumb_func
 3027              	lv_obj_remove_style:
 3028              	.LVL280:
 3029              	.LFB238:
 201:Lib/lvgl/src/core/lv_obj_style.c ****     lv_state_t state = lv_obj_style_get_selector_state(selector);
 3030              		.loc 1 201 1 is_stmt 1 view -0
 3031              		.cfi_startproc
 3032              		@ args = 0, pretend = 0, frame = 0
 3033              		@ frame_needed = 0, uses_anonymous_args = 0
 201:Lib/lvgl/src/core/lv_obj_style.c ****     lv_state_t state = lv_obj_style_get_selector_state(selector);
 3034              		.loc 1 201 1 is_stmt 0 view .LVU890
 3035 0000 2DE9F047 		push	{r4, r5, r6, r7, r8, r9, r10, lr}
 3036              	.LCFI38:
 3037              		.cfi_def_cfa_offset 32
 3038              		.cfi_offset 4, -32
 3039              		.cfi_offset 5, -28
 3040              		.cfi_offset 6, -24
 3041              		.cfi_offset 7, -20
 3042              		.cfi_offset 8, -16
 3043              		.cfi_offset 9, -12
ARM GAS  C:\Users\Alex\AppData\Local\Temp\ccdKwz1H.s 			page 119


 3044              		.cfi_offset 10, -8
 3045              		.cfi_offset 14, -4
 3046 0004 0446     		mov	r4, r0
 202:Lib/lvgl/src/core/lv_obj_style.c ****     lv_part_t part = lv_obj_style_get_selector_part(selector);
 3047              		.loc 1 202 5 is_stmt 1 view .LVU891
 3048              	.LVL281:
 3049              	.LBB268:
 3050              	.LBI268:
 229:Lib/lvgl/src/core/lv_obj_style.h **** {
 3051              		.loc 5 229 26 view .LVU892
 3052              	.LBB269:
 231:Lib/lvgl/src/core/lv_obj_style.h **** }
 3053              		.loc 5 231 5 view .LVU893
 231:Lib/lvgl/src/core/lv_obj_style.h **** }
 3054              		.loc 5 231 21 is_stmt 0 view .LVU894
 3055 0006 97B2     		uxth	r7, r2
 3056              	.LVL282:
 231:Lib/lvgl/src/core/lv_obj_style.h **** }
 3057              		.loc 5 231 21 view .LVU895
 3058              	.LBE269:
 3059              	.LBE268:
 203:Lib/lvgl/src/core/lv_obj_style.c ****     lv_style_prop_t prop = LV_STYLE_PROP_ANY;
 3060              		.loc 1 203 5 is_stmt 1 view .LVU896
 3061              	.LBB270:
 3062              	.LBI270:
 234:Lib/lvgl/src/core/lv_obj_style.h **** {
 3063              		.loc 5 234 25 view .LVU897
 3064              	.LBB271:
 3065              		.loc 5 236 5 view .LVU898
 3066              		.loc 5 236 21 is_stmt 0 view .LVU899
 3067 0008 02F47F06 		and	r6, r2, #16711680
 3068              	.LVL283:
 3069              		.loc 5 236 21 view .LVU900
 3070              	.LBE271:
 3071              	.LBE270:
 204:Lib/lvgl/src/core/lv_obj_style.c ****     if(style && style->prop_cnt == 0) prop = LV_STYLE_PROP_INV;
 3072              		.loc 1 204 5 is_stmt 1 view .LVU901
 205:Lib/lvgl/src/core/lv_obj_style.c **** 
 3073              		.loc 1 205 5 view .LVU902
 205:Lib/lvgl/src/core/lv_obj_style.c **** 
 3074              		.loc 1 205 7 is_stmt 0 view .LVU903
 3075 000c 8846     		mov	r8, r1
 3076 000e A1B1     		cbz	r1, .L237
 205:Lib/lvgl/src/core/lv_obj_style.c **** 
 3077              		.loc 1 205 22 discriminator 1 view .LVU904
 3078 0010 91F80890 		ldrb	r9, [r1, #8]	@ zero_extendqisi2
 205:Lib/lvgl/src/core/lv_obj_style.c **** 
 3079              		.loc 1 205 14 discriminator 1 view .LVU905
 3080 0014 B9F1000F 		cmp	r9, #0
 3081 0018 01D0     		beq	.L223
 204:Lib/lvgl/src/core/lv_obj_style.c ****     if(style && style->prop_cnt == 0) prop = LV_STYLE_PROP_INV;
 3082              		.loc 1 204 21 view .LVU906
 3083 001a 4FF0FF09 		mov	r9, #255
 3084              	.L223:
 3085              	.LVL284:
 207:Lib/lvgl/src/core/lv_obj_style.c ****         lv_obj_invalidate(obj);
 3086              		.loc 1 207 14 discriminator 1 view .LVU907
ARM GAS  C:\Users\Alex\AppData\Local\Temp\ccdKwz1H.s 			page 120


 3087 001e 16B1     		cbz	r6, .L239
 3088              	.LVL285:
 3089              	.L222:
 211:Lib/lvgl/src/core/lv_obj_style.c ****     bool deleted = false;
 3090              		.loc 1 211 5 is_stmt 1 view .LVU908
 212:Lib/lvgl/src/core/lv_obj_style.c ****     while(i <  obj->style_cnt) {
 3091              		.loc 1 212 5 view .LVU909
 213:Lib/lvgl/src/core/lv_obj_style.c ****         lv_state_t state_act = lv_obj_style_get_selector_state(obj->styles[i].selector);
 3092              		.loc 1 213 5 view .LVU910
 212:Lib/lvgl/src/core/lv_obj_style.c ****     while(i <  obj->style_cnt) {
 3093              		.loc 1 212 10 is_stmt 0 view .LVU911
 3094 0020 0020     		movs	r0, #0
 211:Lib/lvgl/src/core/lv_obj_style.c ****     bool deleted = false;
 3095              		.loc 1 211 14 view .LVU912
 3096 0022 0546     		mov	r5, r0
 213:Lib/lvgl/src/core/lv_obj_style.c ****         lv_state_t state_act = lv_obj_style_get_selector_state(obj->styles[i].selector);
 3097              		.loc 1 213 10 view .LVU913
 3098 0024 14E0     		b	.L224
 3099              	.LVL286:
 3100              	.L239:
 207:Lib/lvgl/src/core/lv_obj_style.c ****         lv_obj_invalidate(obj);
 3101              		.loc 1 207 41 discriminator 2 view .LVU914
 3102 0026 2021     		movs	r1, #32
 3103              	.LVL287:
 207:Lib/lvgl/src/core/lv_obj_style.c ****         lv_obj_invalidate(obj);
 3104              		.loc 1 207 41 discriminator 2 view .LVU915
 3105 0028 4046     		mov	r0, r8
 3106              	.LVL288:
 207:Lib/lvgl/src/core/lv_obj_style.c ****         lv_obj_invalidate(obj);
 3107              		.loc 1 207 41 discriminator 2 view .LVU916
 3108 002a FFF7FEFF 		bl	style_has_flag
 3109              	.LVL289:
 207:Lib/lvgl/src/core/lv_obj_style.c ****         lv_obj_invalidate(obj);
 3110              		.loc 1 207 38 discriminator 2 view .LVU917
 3111 002e 0028     		cmp	r0, #0
 3112 0030 F6D0     		beq	.L222
 208:Lib/lvgl/src/core/lv_obj_style.c ****     }
 3113              		.loc 1 208 9 is_stmt 1 view .LVU918
 3114 0032 2046     		mov	r0, r4
 3115 0034 FFF7FEFF 		bl	lv_obj_invalidate
 3116              	.LVL290:
 3117 0038 F2E7     		b	.L222
 3118              	.LVL291:
 3119              	.L237:
 204:Lib/lvgl/src/core/lv_obj_style.c ****     if(style && style->prop_cnt == 0) prop = LV_STYLE_PROP_INV;
 3120              		.loc 1 204 21 is_stmt 0 view .LVU919
 3121 003a 4FF0FF09 		mov	r9, #255
 3122 003e EFE7     		b	.L222
 3123              	.LVL292:
 3124              	.L227:
 3125              	.LBB272:
 217:Lib/lvgl/src/core/lv_obj_style.c ****            (style != NULL && style != obj->styles[i].style)) {
 3126              		.loc 1 217 54 discriminator 1 view .LVU920
 3127 0040 B8F1000F 		cmp	r8, #0
 3128 0044 1FD0     		beq	.L228
 218:Lib/lvgl/src/core/lv_obj_style.c ****             i++;
 3129              		.loc 1 218 53 view .LVU921
ARM GAS  C:\Users\Alex\AppData\Local\Temp\ccdKwz1H.s 			page 121


 3130 0046 52F80A30 		ldr	r3, [r2, r10]
 3131              	.LVL293:
 218:Lib/lvgl/src/core/lv_obj_style.c ****             i++;
 3132              		.loc 1 218 27 view .LVU922
 3133 004a 4345     		cmp	r3, r8
 3134 004c 1BD0     		beq	.L228
 3135              	.L226:
 219:Lib/lvgl/src/core/lv_obj_style.c ****             continue;
 3136              		.loc 1 219 13 is_stmt 1 discriminator 3 view .LVU923
 219:Lib/lvgl/src/core/lv_obj_style.c ****             continue;
 3137              		.loc 1 219 14 is_stmt 0 discriminator 3 view .LVU924
 3138 004e 0135     		adds	r5, r5, #1
 3139              	.LVL294:
 220:Lib/lvgl/src/core/lv_obj_style.c ****         }
 3140              		.loc 1 220 13 is_stmt 1 discriminator 3 view .LVU925
 3141              	.L224:
 220:Lib/lvgl/src/core/lv_obj_style.c ****         }
 3142              		.loc 1 220 13 is_stmt 0 discriminator 3 view .LVU926
 3143              	.LBE272:
 213:Lib/lvgl/src/core/lv_obj_style.c ****         lv_state_t state_act = lv_obj_style_get_selector_state(obj->styles[i].selector);
 3144              		.loc 1 213 13 is_stmt 1 view .LVU927
 213:Lib/lvgl/src/core/lv_obj_style.c ****         lv_state_t state_act = lv_obj_style_get_selector_state(obj->styles[i].selector);
 3145              		.loc 1 213 19 is_stmt 0 view .LVU928
 3146 0050 638D     		ldrh	r3, [r4, #42]
 3147 0052 C3F30513 		ubfx	r3, r3, #4, #6
 213:Lib/lvgl/src/core/lv_obj_style.c ****         lv_state_t state_act = lv_obj_style_get_selector_state(obj->styles[i].selector);
 3148              		.loc 1 213 13 view .LVU929
 3149 0056 AB42     		cmp	r3, r5
 3150 0058 56D9     		bls	.L240
 3151              	.LBB277:
 214:Lib/lvgl/src/core/lv_obj_style.c ****         lv_part_t part_act = lv_obj_style_get_selector_part(obj->styles[i].selector);
 3152              		.loc 1 214 9 is_stmt 1 view .LVU930
 214:Lib/lvgl/src/core/lv_obj_style.c ****         lv_part_t part_act = lv_obj_style_get_selector_part(obj->styles[i].selector);
 3153              		.loc 1 214 67 is_stmt 0 view .LVU931
 3154 005a E268     		ldr	r2, [r4, #12]
 214:Lib/lvgl/src/core/lv_obj_style.c ****         lv_part_t part_act = lv_obj_style_get_selector_part(obj->styles[i].selector);
 3155              		.loc 1 214 75 view .LVU932
 3156 005c 4FEAC50A 		lsl	r10, r5, #3
 3157 0060 02EBC501 		add	r1, r2, r5, lsl #3
 214:Lib/lvgl/src/core/lv_obj_style.c ****         lv_part_t part_act = lv_obj_style_get_selector_part(obj->styles[i].selector);
 3158              		.loc 1 214 78 view .LVU933
 3159 0064 4B68     		ldr	r3, [r1, #4]
 3160              	.LVL295:
 3161              	.LBB273:
 3162              	.LBI273:
 229:Lib/lvgl/src/core/lv_obj_style.h **** {
 3163              		.loc 5 229 26 is_stmt 1 view .LVU934
 3164              	.LBB274:
 231:Lib/lvgl/src/core/lv_obj_style.h **** }
 3165              		.loc 5 231 5 view .LVU935
 231:Lib/lvgl/src/core/lv_obj_style.h **** }
 3166              		.loc 5 231 21 is_stmt 0 view .LVU936
 3167 0066 1FFA83FE 		uxth	lr, r3
 3168              	.LVL296:
 231:Lib/lvgl/src/core/lv_obj_style.h **** }
 3169              		.loc 5 231 21 view .LVU937
 3170              	.LBE274:
ARM GAS  C:\Users\Alex\AppData\Local\Temp\ccdKwz1H.s 			page 122


 3171              	.LBE273:
 215:Lib/lvgl/src/core/lv_obj_style.c ****         if((state != LV_STATE_ANY && state_act != state) ||
 3172              		.loc 1 215 9 is_stmt 1 view .LVU938
 3173              	.LBB275:
 3174              	.LBI275:
 234:Lib/lvgl/src/core/lv_obj_style.h **** {
 3175              		.loc 5 234 25 view .LVU939
 3176              	.LBB276:
 3177              		.loc 5 236 5 view .LVU940
 3178              		.loc 5 236 21 is_stmt 0 view .LVU941
 3179 006a 03F47F03 		and	r3, r3, #16711680
 3180              	.LVL297:
 3181              		.loc 5 236 21 view .LVU942
 3182              	.LBE276:
 3183              	.LBE275:
 216:Lib/lvgl/src/core/lv_obj_style.c ****            (part != LV_PART_ANY && part_act != part) ||
 3184              		.loc 1 216 9 is_stmt 1 view .LVU943
 216:Lib/lvgl/src/core/lv_obj_style.c ****            (part != LV_PART_ANY && part_act != part) ||
 3185              		.loc 1 216 11 is_stmt 0 view .LVU944
 3186 006e 4FF6FF7C 		movw	ip, #65535
 3187 0072 6745     		cmp	r7, ip
 3188 0074 01D0     		beq	.L225
 216:Lib/lvgl/src/core/lv_obj_style.c ****            (part != LV_PART_ANY && part_act != part) ||
 3189              		.loc 1 216 35 discriminator 1 view .LVU945
 3190 0076 BE45     		cmp	lr, r7
 3191 0078 E9D1     		bne	.L226
 3192              	.L225:
 216:Lib/lvgl/src/core/lv_obj_style.c ****            (part != LV_PART_ANY && part_act != part) ||
 3193              		.loc 1 216 58 discriminator 4 view .LVU946
 3194 007a B6F5702F 		cmp	r6, #983040
 3195 007e DFD0     		beq	.L227
 217:Lib/lvgl/src/core/lv_obj_style.c ****            (style != NULL && style != obj->styles[i].style)) {
 3196              		.loc 1 217 33 view .LVU947
 3197 0080 9E42     		cmp	r6, r3
 3198 0082 DDD0     		beq	.L227
 3199 0084 E3E7     		b	.L226
 3200              	.LVL298:
 3201              	.L228:
 223:Lib/lvgl/src/core/lv_obj_style.c ****             trans_delete(obj, part, LV_STYLE_PROP_ANY, NULL);
 3202              		.loc 1 223 9 is_stmt 1 view .LVU948
 223:Lib/lvgl/src/core/lv_obj_style.c ****             trans_delete(obj, part, LV_STYLE_PROP_ANY, NULL);
 3203              		.loc 1 223 12 is_stmt 0 view .LVU949
 3204 0086 CB79     		ldrb	r3, [r1, #7]	@ zero_extendqisi2
 223:Lib/lvgl/src/core/lv_obj_style.c ****             trans_delete(obj, part, LV_STYLE_PROP_ANY, NULL);
 3205              		.loc 1 223 11 view .LVU950
 3206 0088 13F0020F 		tst	r3, #2
 3207 008c 16D1     		bne	.L241
 3208              	.LVL299:
 3209              	.L230:
 227:Lib/lvgl/src/core/lv_obj_style.c ****             if(obj->styles[i].style) lv_style_reset((lv_style_t *)obj->styles[i].style);
 3210              		.loc 1 227 9 is_stmt 1 view .LVU951
 227:Lib/lvgl/src/core/lv_obj_style.c ****             if(obj->styles[i].style) lv_style_reset((lv_style_t *)obj->styles[i].style);
 3211              		.loc 1 227 15 is_stmt 0 view .LVU952
 3212 008e E368     		ldr	r3, [r4, #12]
 227:Lib/lvgl/src/core/lv_obj_style.c ****             if(obj->styles[i].style) lv_style_reset((lv_style_t *)obj->styles[i].style);
 3213              		.loc 1 227 23 view .LVU953
 3214 0090 03EB0A02 		add	r2, r3, r10
ARM GAS  C:\Users\Alex\AppData\Local\Temp\ccdKwz1H.s 			page 123


 227:Lib/lvgl/src/core/lv_obj_style.c ****             if(obj->styles[i].style) lv_style_reset((lv_style_t *)obj->styles[i].style);
 3215              		.loc 1 227 36 view .LVU954
 3216 0094 D279     		ldrb	r2, [r2, #7]	@ zero_extendqisi2
 227:Lib/lvgl/src/core/lv_obj_style.c ****             if(obj->styles[i].style) lv_style_reset((lv_style_t *)obj->styles[i].style);
 3217              		.loc 1 227 11 view .LVU955
 3218 0096 12F0030F 		tst	r2, #3
 3219 009a 0DD0     		beq	.L231
 228:Lib/lvgl/src/core/lv_obj_style.c ****             lv_free((lv_style_t *)obj->styles[i].style);
 3220              		.loc 1 228 13 is_stmt 1 view .LVU956
 228:Lib/lvgl/src/core/lv_obj_style.c ****             lv_free((lv_style_t *)obj->styles[i].style);
 3221              		.loc 1 228 30 is_stmt 0 view .LVU957
 3222 009c 53F80A00 		ldr	r0, [r3, r10]
 228:Lib/lvgl/src/core/lv_obj_style.c ****             lv_free((lv_style_t *)obj->styles[i].style);
 3223              		.loc 1 228 15 view .LVU958
 3224 00a0 08B1     		cbz	r0, .L232
 228:Lib/lvgl/src/core/lv_obj_style.c ****             lv_free((lv_style_t *)obj->styles[i].style);
 3225              		.loc 1 228 38 is_stmt 1 discriminator 1 view .LVU959
 3226 00a2 FFF7FEFF 		bl	lv_style_reset
 3227              	.LVL300:
 3228              	.L232:
 229:Lib/lvgl/src/core/lv_obj_style.c ****             obj->styles[i].style = NULL;
 3229              		.loc 1 229 13 view .LVU960
 229:Lib/lvgl/src/core/lv_obj_style.c ****             obj->styles[i].style = NULL;
 3230              		.loc 1 229 38 is_stmt 0 view .LVU961
 3231 00a6 E368     		ldr	r3, [r4, #12]
 229:Lib/lvgl/src/core/lv_obj_style.c ****             obj->styles[i].style = NULL;
 3232              		.loc 1 229 13 view .LVU962
 3233 00a8 53F80A00 		ldr	r0, [r3, r10]
 3234 00ac FFF7FEFF 		bl	lv_free
 3235              	.LVL301:
 230:Lib/lvgl/src/core/lv_obj_style.c ****         }
 3236              		.loc 1 230 13 is_stmt 1 view .LVU963
 230:Lib/lvgl/src/core/lv_obj_style.c ****         }
 3237              		.loc 1 230 16 is_stmt 0 view .LVU964
 3238 00b0 E368     		ldr	r3, [r4, #12]
 230:Lib/lvgl/src/core/lv_obj_style.c ****         }
 3239              		.loc 1 230 34 view .LVU965
 3240 00b2 0022     		movs	r2, #0
 3241 00b4 43F80A20 		str	r2, [r3, r10]
 3242              	.L231:
 230:Lib/lvgl/src/core/lv_obj_style.c ****         }
 3243              		.loc 1 230 34 view .LVU966
 3244              	.LBE277:
 204:Lib/lvgl/src/core/lv_obj_style.c ****     if(style && style->prop_cnt == 0) prop = LV_STYLE_PROP_INV;
 3245              		.loc 1 204 21 discriminator 1 view .LVU967
 3246 00b8 2A46     		mov	r2, r5
 3247 00ba 11E0     		b	.L233
 3248              	.LVL302:
 3249              	.L241:
 3250              	.LBB278:
 224:Lib/lvgl/src/core/lv_obj_style.c ****         }
 3251              		.loc 1 224 13 is_stmt 1 view .LVU968
 3252 00bc 0023     		movs	r3, #0
 3253 00be FF22     		movs	r2, #255
 3254 00c0 3146     		mov	r1, r6
 3255              	.LVL303:
 224:Lib/lvgl/src/core/lv_obj_style.c ****         }
ARM GAS  C:\Users\Alex\AppData\Local\Temp\ccdKwz1H.s 			page 124


 3256              		.loc 1 224 13 is_stmt 0 view .LVU969
 3257 00c2 2046     		mov	r0, r4
 3258              	.LVL304:
 224:Lib/lvgl/src/core/lv_obj_style.c ****         }
 3259              		.loc 1 224 13 view .LVU970
 3260 00c4 FFF7FEFF 		bl	trans_delete
 3261              	.LVL305:
 224:Lib/lvgl/src/core/lv_obj_style.c ****         }
 3262              		.loc 1 224 13 view .LVU971
 3263 00c8 E1E7     		b	.L230
 3264              	.LVL306:
 3265              	.L234:
 236:Lib/lvgl/src/core/lv_obj_style.c ****         }
 3266              		.loc 1 236 13 is_stmt 1 discriminator 3 view .LVU972
 236:Lib/lvgl/src/core/lv_obj_style.c ****         }
 3267              		.loc 1 236 33 is_stmt 0 discriminator 3 view .LVU973
 3268 00ca E368     		ldr	r3, [r4, #12]
 236:Lib/lvgl/src/core/lv_obj_style.c ****         }
 3269              		.loc 1 236 41 discriminator 3 view .LVU974
 3270 00cc 02F1010C 		add	ip, r2, #1
 3271 00d0 03EBCC01 		add	r1, r3, ip, lsl #3
 236:Lib/lvgl/src/core/lv_obj_style.c ****         }
 3272              		.loc 1 236 24 discriminator 3 view .LVU975
 3273 00d4 03EBC203 		add	r3, r3, r2, lsl #3
 236:Lib/lvgl/src/core/lv_obj_style.c ****         }
 3274              		.loc 1 236 28 discriminator 3 view .LVU976
 3275 00d8 03C9     		ldm	r1, {r0, r1}
 3276 00da 83E80300 		stm	r3, {r0, r1}
 235:Lib/lvgl/src/core/lv_obj_style.c ****             obj->styles[j] = obj->styles[j + 1];
 3277              		.loc 1 235 56 is_stmt 1 discriminator 3 view .LVU977
 3278              	.LVL307:
 235:Lib/lvgl/src/core/lv_obj_style.c ****             obj->styles[j] = obj->styles[j + 1];
 3279              		.loc 1 235 56 is_stmt 0 discriminator 3 view .LVU978
 3280 00de 6246     		mov	r2, ip
 3281              	.LVL308:
 3282              	.L233:
 235:Lib/lvgl/src/core/lv_obj_style.c ****             obj->styles[j] = obj->styles[j + 1];
 3283              		.loc 1 235 22 is_stmt 1 discriminator 1 view .LVU979
 235:Lib/lvgl/src/core/lv_obj_style.c ****             obj->styles[j] = obj->styles[j + 1];
 3284              		.loc 1 235 37 is_stmt 0 discriminator 1 view .LVU980
 3285 00e0 618D     		ldrh	r1, [r4, #42]
 3286 00e2 C1F30511 		ubfx	r1, r1, #4, #6
 235:Lib/lvgl/src/core/lv_obj_style.c ****             obj->styles[j] = obj->styles[j + 1];
 3287              		.loc 1 235 49 discriminator 1 view .LVU981
 3288 00e6 4B1E     		subs	r3, r1, #1
 235:Lib/lvgl/src/core/lv_obj_style.c ****             obj->styles[j] = obj->styles[j + 1];
 3289              		.loc 1 235 22 discriminator 1 view .LVU982
 3290 00e8 9342     		cmp	r3, r2
 3291 00ea EED8     		bhi	.L234
 239:Lib/lvgl/src/core/lv_obj_style.c ****         obj->styles = lv_realloc(obj->styles, obj->style_cnt * sizeof(_lv_obj_style_t));
 3292              		.loc 1 239 9 is_stmt 1 view .LVU983
 239:Lib/lvgl/src/core/lv_obj_style.c ****         obj->styles = lv_realloc(obj->styles, obj->style_cnt * sizeof(_lv_obj_style_t));
 3293              		.loc 1 239 23 is_stmt 0 view .LVU984
 3294 00ec 3F31     		adds	r1, r1, #63
 3295 00ee 01F03F01 		and	r1, r1, #63
 3296 00f2 638D     		ldrh	r3, [r4, #42]
 3297 00f4 61F30913 		bfi	r3, r1, #4, #6
ARM GAS  C:\Users\Alex\AppData\Local\Temp\ccdKwz1H.s 			page 125


 3298 00f8 6385     		strh	r3, [r4, #42]	@ movhi
 240:Lib/lvgl/src/core/lv_obj_style.c **** 
 3299              		.loc 1 240 9 is_stmt 1 view .LVU985
 240:Lib/lvgl/src/core/lv_obj_style.c **** 
 3300              		.loc 1 240 23 is_stmt 0 view .LVU986
 3301 00fa C900     		lsls	r1, r1, #3
 3302 00fc E068     		ldr	r0, [r4, #12]
 3303 00fe FFF7FEFF 		bl	lv_realloc
 3304              	.LVL309:
 240:Lib/lvgl/src/core/lv_obj_style.c **** 
 3305              		.loc 1 240 21 view .LVU987
 3306 0102 E060     		str	r0, [r4, #12]
 242:Lib/lvgl/src/core/lv_obj_style.c ****         /*The style from the current `i` index is removed, so `i` points to the next style.
 3307              		.loc 1 242 9 is_stmt 1 view .LVU988
 3308              	.LVL310:
 242:Lib/lvgl/src/core/lv_obj_style.c ****         /*The style from the current `i` index is removed, so `i` points to the next style.
 3309              		.loc 1 242 17 is_stmt 0 view .LVU989
 3310 0104 0120     		movs	r0, #1
 3311 0106 A3E7     		b	.L224
 3312              	.LVL311:
 3313              	.L240:
 242:Lib/lvgl/src/core/lv_obj_style.c ****         /*The style from the current `i` index is removed, so `i` points to the next style.
 3314              		.loc 1 242 17 view .LVU990
 3315              	.LBE278:
 247:Lib/lvgl/src/core/lv_obj_style.c ****         full_cache_refresh(obj, part);
 3316              		.loc 1 247 5 is_stmt 1 view .LVU991
 247:Lib/lvgl/src/core/lv_obj_style.c ****         full_cache_refresh(obj, part);
 3317              		.loc 1 247 7 is_stmt 0 view .LVU992
 3318 0108 10B1     		cbz	r0, .L221
 247:Lib/lvgl/src/core/lv_obj_style.c ****         full_cache_refresh(obj, part);
 3319              		.loc 1 247 16 discriminator 1 view .LVU993
 3320 010a B9F1000F 		cmp	r9, #0
 3321 010e 01D1     		bne	.L242
 3322              	.LVL312:
 3323              	.L221:
 251:Lib/lvgl/src/core/lv_obj_style.c **** 
 3324              		.loc 1 251 1 view .LVU994
 3325 0110 BDE8F087 		pop	{r4, r5, r6, r7, r8, r9, r10, pc}
 3326              	.LVL313:
 3327              	.L242:
 248:Lib/lvgl/src/core/lv_obj_style.c ****         lv_obj_refresh_style(obj, part, prop);
 3328              		.loc 1 248 9 is_stmt 1 view .LVU995
 249:Lib/lvgl/src/core/lv_obj_style.c ****     }
 3329              		.loc 1 249 9 view .LVU996
 3330 0114 4A46     		mov	r2, r9
 3331 0116 3146     		mov	r1, r6
 3332 0118 2046     		mov	r0, r4
 3333              	.LVL314:
 249:Lib/lvgl/src/core/lv_obj_style.c ****     }
 3334              		.loc 1 249 9 is_stmt 0 view .LVU997
 3335 011a FFF7FEFF 		bl	lv_obj_refresh_style
 3336              	.LVL315:
 251:Lib/lvgl/src/core/lv_obj_style.c **** 
 3337              		.loc 1 251 1 view .LVU998
 3338 011e F7E7     		b	.L221
 3339              		.cfi_endproc
 3340              	.LFE238:
ARM GAS  C:\Users\Alex\AppData\Local\Temp\ccdKwz1H.s 			page 126


 3342              		.section	.text.lv_obj_remove_style_all,"ax",%progbits
 3343              		.align	1
 3344              		.global	lv_obj_remove_style_all
 3345              		.syntax unified
 3346              		.thumb
 3347              		.thumb_func
 3349              	lv_obj_remove_style_all:
 3350              	.LVL316:
 3351              	.LFB239:
 254:Lib/lvgl/src/core/lv_obj_style.c ****     lv_obj_remove_style(obj, NULL, LV_PART_ANY | LV_STATE_ANY);
 3352              		.loc 1 254 1 is_stmt 1 view -0
 3353              		.cfi_startproc
 3354              		@ args = 0, pretend = 0, frame = 0
 3355              		@ frame_needed = 0, uses_anonymous_args = 0
 254:Lib/lvgl/src/core/lv_obj_style.c ****     lv_obj_remove_style(obj, NULL, LV_PART_ANY | LV_STATE_ANY);
 3356              		.loc 1 254 1 is_stmt 0 view .LVU1000
 3357 0000 08B5     		push	{r3, lr}
 3358              	.LCFI39:
 3359              		.cfi_def_cfa_offset 8
 3360              		.cfi_offset 3, -8
 3361              		.cfi_offset 14, -4
 255:Lib/lvgl/src/core/lv_obj_style.c **** }
 3362              		.loc 1 255 5 is_stmt 1 view .LVU1001
 3363 0002 024A     		ldr	r2, .L245
 3364 0004 0021     		movs	r1, #0
 3365 0006 FFF7FEFF 		bl	lv_obj_remove_style
 3366              	.LVL317:
 256:Lib/lvgl/src/core/lv_obj_style.c **** 
 3367              		.loc 1 256 1 is_stmt 0 view .LVU1002
 3368 000a 08BD     		pop	{r3, pc}
 3369              	.L246:
 3370              		.align	2
 3371              	.L245:
 3372 000c FFFF0F00 		.word	1048575
 3373              		.cfi_endproc
 3374              	.LFE239:
 3376              		.section	.text.trans_anim_completed_cb,"ax",%progbits
 3377              		.align	1
 3378              		.syntax unified
 3379              		.thumb
 3380              		.thumb_func
 3382              	trans_anim_completed_cb:
 3383              	.LVL318:
 3384              	.LFB264:
 974:Lib/lvgl/src/core/lv_obj_style.c ****     trans_t * tr = a->var;
 3385              		.loc 1 974 1 is_stmt 1 view -0
 3386              		.cfi_startproc
 3387              		@ args = 0, pretend = 0, frame = 0
 3388              		@ frame_needed = 0, uses_anonymous_args = 0
 974:Lib/lvgl/src/core/lv_obj_style.c ****     trans_t * tr = a->var;
 3389              		.loc 1 974 1 is_stmt 0 view .LVU1004
 3390 0000 2DE9F041 		push	{r4, r5, r6, r7, r8, lr}
 3391              	.LCFI40:
 3392              		.cfi_def_cfa_offset 24
 3393              		.cfi_offset 4, -24
 3394              		.cfi_offset 5, -20
 3395              		.cfi_offset 6, -16
ARM GAS  C:\Users\Alex\AppData\Local\Temp\ccdKwz1H.s 			page 127


 3396              		.cfi_offset 7, -12
 3397              		.cfi_offset 8, -8
 3398              		.cfi_offset 14, -4
 975:Lib/lvgl/src/core/lv_obj_style.c ****     lv_obj_t * obj = tr->obj;
 3399              		.loc 1 975 5 is_stmt 1 view .LVU1005
 975:Lib/lvgl/src/core/lv_obj_style.c ****     lv_obj_t * obj = tr->obj;
 3400              		.loc 1 975 15 is_stmt 0 view .LVU1006
 3401 0004 0468     		ldr	r4, [r0]
 3402              	.LVL319:
 976:Lib/lvgl/src/core/lv_obj_style.c ****     lv_style_prop_t prop = tr->prop;
 3403              		.loc 1 976 5 is_stmt 1 view .LVU1007
 976:Lib/lvgl/src/core/lv_obj_style.c ****     lv_style_prop_t prop = tr->prop;
 3404              		.loc 1 976 16 is_stmt 0 view .LVU1008
 3405 0006 2568     		ldr	r5, [r4]
 3406              	.LVL320:
 977:Lib/lvgl/src/core/lv_obj_style.c **** 
 3407              		.loc 1 977 5 is_stmt 1 view .LVU1009
 977:Lib/lvgl/src/core/lv_obj_style.c **** 
 3408              		.loc 1 977 21 is_stmt 0 view .LVU1010
 3409 0008 2679     		ldrb	r6, [r4, #4]	@ zero_extendqisi2
 3410              	.LVL321:
 982:Lib/lvgl/src/core/lv_obj_style.c ****     trans_t * tr_i;
 3411              		.loc 1 982 5 is_stmt 1 view .LVU1011
 983:Lib/lvgl/src/core/lv_obj_style.c ****     _LV_LL_READ(style_trans_ll_p, tr_i) {
 3412              		.loc 1 983 5 view .LVU1012
 984:Lib/lvgl/src/core/lv_obj_style.c ****         if(tr_i != tr && tr_i->obj == tr->obj && tr_i->selector == tr->selector && tr_i->prop == tr
 3413              		.loc 1 984 5 view .LVU1013
 3414 000a 2748     		ldr	r0, .L259
 3415              	.LVL322:
 984:Lib/lvgl/src/core/lv_obj_style.c ****         if(tr_i != tr && tr_i->obj == tr->obj && tr_i->selector == tr->selector && tr_i->prop == tr
 3416              		.loc 1 984 5 is_stmt 0 view .LVU1014
 3417 000c FFF7FEFF 		bl	_lv_ll_get_head
 3418              	.LVL323:
 3419 0010 0146     		mov	r1, r0
 3420              	.LVL324:
 984:Lib/lvgl/src/core/lv_obj_style.c ****         if(tr_i != tr && tr_i->obj == tr->obj && tr_i->selector == tr->selector && tr_i->prop == tr
 3421              		.loc 1 984 5 view .LVU1015
 3422 0012 03E0     		b	.L248
 3423              	.L249:
 984:Lib/lvgl/src/core/lv_obj_style.c ****         if(tr_i != tr && tr_i->obj == tr->obj && tr_i->selector == tr->selector && tr_i->prop == tr
 3424              		.loc 1 984 5 is_stmt 1 discriminator 2 view .LVU1016
 3425 0014 2448     		ldr	r0, .L259
 3426              	.LVL325:
 984:Lib/lvgl/src/core/lv_obj_style.c ****         if(tr_i != tr && tr_i->obj == tr->obj && tr_i->selector == tr->selector && tr_i->prop == tr
 3427              		.loc 1 984 5 is_stmt 0 discriminator 2 view .LVU1017
 3428 0016 FFF7FEFF 		bl	_lv_ll_get_next
 3429              	.LVL326:
 984:Lib/lvgl/src/core/lv_obj_style.c ****         if(tr_i != tr && tr_i->obj == tr->obj && tr_i->selector == tr->selector && tr_i->prop == tr
 3430              		.loc 1 984 5 discriminator 2 view .LVU1018
 3431 001a 0146     		mov	r1, r0
 3432              	.LVL327:
 3433              	.L248:
 984:Lib/lvgl/src/core/lv_obj_style.c ****         if(tr_i != tr && tr_i->obj == tr->obj && tr_i->selector == tr->selector && tr_i->prop == tr
 3434              		.loc 1 984 5 is_stmt 1 discriminator 1 view .LVU1019
 3435 001c 79B1     		cbz	r1, .L258
 985:Lib/lvgl/src/core/lv_obj_style.c ****             running = true;
 3436              		.loc 1 985 9 view .LVU1020
ARM GAS  C:\Users\Alex\AppData\Local\Temp\ccdKwz1H.s 			page 128


 985:Lib/lvgl/src/core/lv_obj_style.c ****             running = true;
 3437              		.loc 1 985 11 is_stmt 0 view .LVU1021
 3438 001e A142     		cmp	r1, r4
 3439 0020 F8D0     		beq	.L249
 985:Lib/lvgl/src/core/lv_obj_style.c ****             running = true;
 3440              		.loc 1 985 30 discriminator 1 view .LVU1022
 3441 0022 0A68     		ldr	r2, [r1]
 985:Lib/lvgl/src/core/lv_obj_style.c ****             running = true;
 3442              		.loc 1 985 41 discriminator 1 view .LVU1023
 3443 0024 2368     		ldr	r3, [r4]
 985:Lib/lvgl/src/core/lv_obj_style.c ****             running = true;
 3444              		.loc 1 985 23 discriminator 1 view .LVU1024
 3445 0026 9A42     		cmp	r2, r3
 3446 0028 F4D1     		bne	.L249
 985:Lib/lvgl/src/core/lv_obj_style.c ****             running = true;
 3447              		.loc 1 985 54 discriminator 2 view .LVU1025
 3448 002a 8A68     		ldr	r2, [r1, #8]
 985:Lib/lvgl/src/core/lv_obj_style.c ****             running = true;
 3449              		.loc 1 985 70 discriminator 2 view .LVU1026
 3450 002c A368     		ldr	r3, [r4, #8]
 985:Lib/lvgl/src/core/lv_obj_style.c ****             running = true;
 3451              		.loc 1 985 47 discriminator 2 view .LVU1027
 3452 002e 9A42     		cmp	r2, r3
 3453 0030 F0D1     		bne	.L249
 985:Lib/lvgl/src/core/lv_obj_style.c ****             running = true;
 3454              		.loc 1 985 88 discriminator 3 view .LVU1028
 3455 0032 0A79     		ldrb	r2, [r1, #4]	@ zero_extendqisi2
 985:Lib/lvgl/src/core/lv_obj_style.c ****             running = true;
 3456              		.loc 1 985 100 discriminator 3 view .LVU1029
 3457 0034 2379     		ldrb	r3, [r4, #4]	@ zero_extendqisi2
 985:Lib/lvgl/src/core/lv_obj_style.c ****             running = true;
 3458              		.loc 1 985 81 discriminator 3 view .LVU1030
 3459 0036 9A42     		cmp	r2, r3
 3460 0038 ECD1     		bne	.L249
 986:Lib/lvgl/src/core/lv_obj_style.c ****             break;
 3461              		.loc 1 986 21 view .LVU1031
 3462 003a 0123     		movs	r3, #1
 3463 003c 00E0     		b	.L250
 3464              	.L258:
 982:Lib/lvgl/src/core/lv_obj_style.c ****     trans_t * tr_i;
 3465              		.loc 1 982 10 view .LVU1032
 3466 003e 0023     		movs	r3, #0
 3467              	.L250:
 3468              	.LVL328:
 991:Lib/lvgl/src/core/lv_obj_style.c ****         uint32_t i;
 3469              		.loc 1 991 5 is_stmt 1 view .LVU1033
 991:Lib/lvgl/src/core/lv_obj_style.c ****         uint32_t i;
 3470              		.loc 1 991 7 is_stmt 0 view .LVU1034
 3471 0040 13B1     		cbz	r3, .L253
 3472              	.LVL329:
 3473              	.L247:
1009:Lib/lvgl/src/core/lv_obj_style.c **** 
 3474              		.loc 1 1009 1 view .LVU1035
 3475 0042 BDE8F081 		pop	{r4, r5, r6, r7, r8, pc}
 3476              	.LVL330:
 3477              	.L254:
 3478              	.LBB279:
ARM GAS  C:\Users\Alex\AppData\Local\Temp\ccdKwz1H.s 			page 129


 993:Lib/lvgl/src/core/lv_obj_style.c ****             if(obj->styles[i].is_trans && obj->styles[i].selector == tr->selector) {
 3479              		.loc 1 993 41 is_stmt 1 discriminator 2 view .LVU1036
 3480 0046 0133     		adds	r3, r3, #1
 3481              	.LVL331:
 3482              	.L253:
 993:Lib/lvgl/src/core/lv_obj_style.c ****             if(obj->styles[i].is_trans && obj->styles[i].selector == tr->selector) {
 3483              		.loc 1 993 22 discriminator 1 view .LVU1037
 993:Lib/lvgl/src/core/lv_obj_style.c ****             if(obj->styles[i].is_trans && obj->styles[i].selector == tr->selector) {
 3484              		.loc 1 993 27 is_stmt 0 discriminator 1 view .LVU1038
 3485 0048 6A8D     		ldrh	r2, [r5, #42]
 3486 004a C2F30512 		ubfx	r2, r2, #4, #6
 993:Lib/lvgl/src/core/lv_obj_style.c ****             if(obj->styles[i].is_trans && obj->styles[i].selector == tr->selector) {
 3487              		.loc 1 993 22 discriminator 1 view .LVU1039
 3488 004e 9A42     		cmp	r2, r3
 3489 0050 F7D9     		bls	.L247
 994:Lib/lvgl/src/core/lv_obj_style.c ****                 _lv_ll_remove(style_trans_ll_p, tr);
 3490              		.loc 1 994 13 is_stmt 1 view .LVU1040
 994:Lib/lvgl/src/core/lv_obj_style.c ****                 _lv_ll_remove(style_trans_ll_p, tr);
 3491              		.loc 1 994 19 is_stmt 0 view .LVU1041
 3492 0052 EA68     		ldr	r2, [r5, #12]
 994:Lib/lvgl/src/core/lv_obj_style.c ****                 _lv_ll_remove(style_trans_ll_p, tr);
 3493              		.loc 1 994 27 view .LVU1042
 3494 0054 DF00     		lsls	r7, r3, #3
 3495 0056 02EBC302 		add	r2, r2, r3, lsl #3
 994:Lib/lvgl/src/core/lv_obj_style.c ****                 _lv_ll_remove(style_trans_ll_p, tr);
 3496              		.loc 1 994 16 view .LVU1043
 3497 005a D179     		ldrb	r1, [r2, #7]	@ zero_extendqisi2
 994:Lib/lvgl/src/core/lv_obj_style.c ****                 _lv_ll_remove(style_trans_ll_p, tr);
 3498              		.loc 1 994 15 view .LVU1044
 3499 005c 11F0020F 		tst	r1, #2
 3500 0060 F1D0     		beq	.L254
 994:Lib/lvgl/src/core/lv_obj_style.c ****                 _lv_ll_remove(style_trans_ll_p, tr);
 3501              		.loc 1 994 57 discriminator 1 view .LVU1045
 3502 0062 5268     		ldr	r2, [r2, #4]
 3503 0064 C2F31702 		ubfx	r2, r2, #0, #24
 994:Lib/lvgl/src/core/lv_obj_style.c ****                 _lv_ll_remove(style_trans_ll_p, tr);
 3504              		.loc 1 994 72 discriminator 1 view .LVU1046
 3505 0068 A168     		ldr	r1, [r4, #8]
 994:Lib/lvgl/src/core/lv_obj_style.c ****                 _lv_ll_remove(style_trans_ll_p, tr);
 3506              		.loc 1 994 40 discriminator 1 view .LVU1047
 3507 006a 8A42     		cmp	r2, r1
 3508 006c EBD1     		bne	.L254
 3509              	.LBB280:
 995:Lib/lvgl/src/core/lv_obj_style.c ****                 lv_free(tr);
 3510              		.loc 1 995 17 is_stmt 1 view .LVU1048
 3511 006e 2146     		mov	r1, r4
 3512 0070 0D48     		ldr	r0, .L259
 3513              	.LVL332:
 995:Lib/lvgl/src/core/lv_obj_style.c ****                 lv_free(tr);
 3514              		.loc 1 995 17 is_stmt 0 view .LVU1049
 3515 0072 FFF7FEFF 		bl	_lv_ll_remove
 3516              	.LVL333:
 996:Lib/lvgl/src/core/lv_obj_style.c **** 
 3517              		.loc 1 996 17 is_stmt 1 view .LVU1050
 3518 0076 2046     		mov	r0, r4
 3519 0078 FFF7FEFF 		bl	lv_free
 3520              	.LVL334:
ARM GAS  C:\Users\Alex\AppData\Local\Temp\ccdKwz1H.s 			page 130


 998:Lib/lvgl/src/core/lv_obj_style.c ****                 lv_style_remove_prop((lv_style_t *)obj_style->style, prop);
 3521              		.loc 1 998 17 view .LVU1051
 998:Lib/lvgl/src/core/lv_obj_style.c ****                 lv_style_remove_prop((lv_style_t *)obj_style->style, prop);
 3522              		.loc 1 998 51 is_stmt 0 view .LVU1052
 3523 007c EC68     		ldr	r4, [r5, #12]
 3524              	.LVL335:
 998:Lib/lvgl/src/core/lv_obj_style.c ****                 lv_style_remove_prop((lv_style_t *)obj_style->style, prop);
 3525              		.loc 1 998 35 view .LVU1053
 3526 007e 04EB0708 		add	r8, r4, r7
 3527              	.LVL336:
 999:Lib/lvgl/src/core/lv_obj_style.c **** 
 3528              		.loc 1 999 17 is_stmt 1 view .LVU1054
 3529 0082 3146     		mov	r1, r6
 3530 0084 E059     		ldr	r0, [r4, r7]
 3531 0086 FFF7FEFF 		bl	lv_style_remove_prop
 3532              	.LVL337:
1001:Lib/lvgl/src/core/lv_obj_style.c ****                     lv_obj_remove_style(obj, (lv_style_t *)obj_style->style, obj_style->selector);
 3533              		.loc 1 1001 17 view .LVU1055
1001:Lib/lvgl/src/core/lv_obj_style.c ****                     lv_obj_remove_style(obj, (lv_style_t *)obj_style->style, obj_style->selector);
 3534              		.loc 1 1001 41 is_stmt 0 view .LVU1056
 3535 008a EB68     		ldr	r3, [r5, #12]
1001:Lib/lvgl/src/core/lv_obj_style.c ****                     lv_obj_remove_style(obj, (lv_style_t *)obj_style->style, obj_style->selector);
 3536              		.loc 1 1001 20 view .LVU1057
 3537 008c D859     		ldr	r0, [r3, r7]
 3538 008e FFF7FEFF 		bl	lv_style_is_empty
 3539              	.LVL338:
1001:Lib/lvgl/src/core/lv_obj_style.c ****                     lv_obj_remove_style(obj, (lv_style_t *)obj_style->style, obj_style->selector);
 3540              		.loc 1 1001 19 view .LVU1058
 3541 0092 0028     		cmp	r0, #0
 3542 0094 D5D0     		beq	.L247
1002:Lib/lvgl/src/core/lv_obj_style.c **** 
 3543              		.loc 1 1002 21 is_stmt 1 view .LVU1059
1002:Lib/lvgl/src/core/lv_obj_style.c **** 
 3544              		.loc 1 1002 87 is_stmt 0 view .LVU1060
 3545 0096 D8F80420 		ldr	r2, [r8, #4]
1002:Lib/lvgl/src/core/lv_obj_style.c **** 
 3546              		.loc 1 1002 21 view .LVU1061
 3547 009a 22F07F42 		bic	r2, r2, #-16777216
 3548 009e E159     		ldr	r1, [r4, r7]
 3549 00a0 2846     		mov	r0, r5
 3550 00a2 FFF7FEFF 		bl	lv_obj_remove_style
 3551              	.LVL339:
 3552 00a6 CCE7     		b	.L247
 3553              	.L260:
 3554              		.align	2
 3555              	.L259:
 3556 00a8 18000000 		.word	lv_global+24
 3557              	.LBE280:
 3558              	.LBE279:
 3559              		.cfi_endproc
 3560              	.LFE264:
 3562              		.section	.text.lv_obj_add_style,"ax",%progbits
 3563              		.align	1
 3564              		.global	lv_obj_add_style
 3565              		.syntax unified
 3566              		.thumb
 3567              		.thumb_func
ARM GAS  C:\Users\Alex\AppData\Local\Temp\ccdKwz1H.s 			page 131


 3569              	lv_obj_add_style:
 3570              	.LVL340:
 3571              	.LFB236:
  96:Lib/lvgl/src/core/lv_obj_style.c ****     LV_ASSERT(obj->style_cnt < 63);
 3572              		.loc 1 96 1 is_stmt 1 view -0
 3573              		.cfi_startproc
 3574              		@ args = 0, pretend = 0, frame = 0
 3575              		@ frame_needed = 0, uses_anonymous_args = 0
  97:Lib/lvgl/src/core/lv_obj_style.c **** 
 3576              		.loc 1 97 5 view .LVU1063
  97:Lib/lvgl/src/core/lv_obj_style.c **** 
 3577              		.loc 1 97 5 view .LVU1064
 3578 0000 438D     		ldrh	r3, [r0, #42]
 3579 0002 03F47C73 		and	r3, r3, #1008
 3580 0006 B3F57C7F 		cmp	r3, #1008
 3581 000a 00D1     		bne	.L262
 3582              	.L263:
  97:Lib/lvgl/src/core/lv_obj_style.c **** 
 3583              		.loc 1 97 5 discriminator 1 view .LVU1065
  97:Lib/lvgl/src/core/lv_obj_style.c **** 
 3584              		.loc 1 97 5 discriminator 1 view .LVU1066
  97:Lib/lvgl/src/core/lv_obj_style.c **** 
 3585              		.loc 1 97 5 discriminator 1 view .LVU1067
  97:Lib/lvgl/src/core/lv_obj_style.c **** 
 3586              		.loc 1 97 5 discriminator 1 view .LVU1068
  97:Lib/lvgl/src/core/lv_obj_style.c **** 
 3587              		.loc 1 97 5 discriminator 1 view .LVU1069
 3588 000c FEE7     		b	.L263
 3589              	.L262:
  96:Lib/lvgl/src/core/lv_obj_style.c ****     LV_ASSERT(obj->style_cnt < 63);
 3590              		.loc 1 96 1 is_stmt 0 discriminator 2 view .LVU1070
 3591 000e 2DE9F041 		push	{r4, r5, r6, r7, r8, lr}
 3592              	.LCFI41:
 3593              		.cfi_def_cfa_offset 24
 3594              		.cfi_offset 4, -24
 3595              		.cfi_offset 5, -20
 3596              		.cfi_offset 6, -16
 3597              		.cfi_offset 7, -12
 3598              		.cfi_offset 8, -8
 3599              		.cfi_offset 14, -4
 3600 0012 0446     		mov	r4, r0
 3601 0014 0F46     		mov	r7, r1
 3602 0016 1646     		mov	r6, r2
  97:Lib/lvgl/src/core/lv_obj_style.c **** 
 3603              		.loc 1 97 5 is_stmt 1 discriminator 2 view .LVU1071
  99:Lib/lvgl/src/core/lv_obj_style.c **** 
 3604              		.loc 1 99 5 discriminator 2 view .LVU1072
 3605 0018 0023     		movs	r3, #0
 3606 001a FF22     		movs	r2, #255
 3607              	.LVL341:
  99:Lib/lvgl/src/core/lv_obj_style.c **** 
 3608              		.loc 1 99 5 is_stmt 0 discriminator 2 view .LVU1073
 3609 001c 3146     		mov	r1, r6
 3610              	.LVL342:
  99:Lib/lvgl/src/core/lv_obj_style.c **** 
 3611              		.loc 1 99 5 discriminator 2 view .LVU1074
 3612 001e FFF7FEFF 		bl	trans_delete
ARM GAS  C:\Users\Alex\AppData\Local\Temp\ccdKwz1H.s 			page 132


 3613              	.LVL343:
 101:Lib/lvgl/src/core/lv_obj_style.c **** 
 3614              		.loc 1 101 5 is_stmt 1 discriminator 2 view .LVU1075
 3615              	.LBB281:
 3616              	.LBI281:
 234:Lib/lvgl/src/core/lv_obj_style.h **** {
 3617              		.loc 5 234 25 discriminator 2 view .LVU1076
 3618              	.LBB282:
 3619              		.loc 5 236 5 discriminator 2 view .LVU1077
 3620              		.loc 5 236 21 is_stmt 0 discriminator 2 view .LVU1078
 3621 0022 06F47F03 		and	r3, r6, #16711680
 3622              	.LVL344:
 3623              		.loc 5 236 21 discriminator 2 view .LVU1079
 3624              	.LBE282:
 3625              	.LBE281:
 103:Lib/lvgl/src/core/lv_obj_style.c ****         lv_obj_invalidate(obj);
 3626              		.loc 1 103 5 is_stmt 1 discriminator 2 view .LVU1080
 103:Lib/lvgl/src/core/lv_obj_style.c ****         lv_obj_invalidate(obj);
 3627              		.loc 1 103 7 is_stmt 0 discriminator 2 view .LVU1081
 3628 0026 07B1     		cbz	r7, .L264
 103:Lib/lvgl/src/core/lv_obj_style.c ****         lv_obj_invalidate(obj);
 3629              		.loc 1 103 14 discriminator 1 view .LVU1082
 3630 0028 33B1     		cbz	r3, .L277
 3631              	.LVL345:
 3632              	.L264:
 108:Lib/lvgl/src/core/lv_obj_style.c **** 
 3633              		.loc 1 108 5 is_stmt 1 view .LVU1083
 3634 002a 3246     		mov	r2, r6
 3635 002c 3946     		mov	r1, r7
 3636 002e 2046     		mov	r0, r4
 3637 0030 FFF7FEFF 		bl	lv_obj_remove_style
 3638              	.LVL346:
 110:Lib/lvgl/src/core/lv_obj_style.c ****     /*Go after the transition and local styles*/
 3639              		.loc 1 110 5 view .LVU1084
 112:Lib/lvgl/src/core/lv_obj_style.c ****         if(obj->styles[i].is_trans) continue;
 3640              		.loc 1 112 5 view .LVU1085
 112:Lib/lvgl/src/core/lv_obj_style.c ****         if(obj->styles[i].is_trans) continue;
 3641              		.loc 1 112 11 is_stmt 0 view .LVU1086
 3642 0034 0025     		movs	r5, #0
 112:Lib/lvgl/src/core/lv_obj_style.c ****         if(obj->styles[i].is_trans) continue;
 3643              		.loc 1 112 5 view .LVU1087
 3644 0036 0AE0     		b	.L265
 3645              	.LVL347:
 3646              	.L277:
 103:Lib/lvgl/src/core/lv_obj_style.c ****         lv_obj_invalidate(obj);
 3647              		.loc 1 103 41 discriminator 2 view .LVU1088
 3648 0038 2021     		movs	r1, #32
 3649 003a 3846     		mov	r0, r7
 3650 003c FFF7FEFF 		bl	style_has_flag
 3651              	.LVL348:
 103:Lib/lvgl/src/core/lv_obj_style.c ****         lv_obj_invalidate(obj);
 3652              		.loc 1 103 38 discriminator 2 view .LVU1089
 3653 0040 0028     		cmp	r0, #0
 3654 0042 F2D0     		beq	.L264
 104:Lib/lvgl/src/core/lv_obj_style.c ****     }
 3655              		.loc 1 104 9 is_stmt 1 view .LVU1090
 3656 0044 2046     		mov	r0, r4
ARM GAS  C:\Users\Alex\AppData\Local\Temp\ccdKwz1H.s 			page 133


 3657 0046 FFF7FEFF 		bl	lv_obj_invalidate
 3658              	.LVL349:
 3659 004a EEE7     		b	.L264
 3660              	.LVL350:
 3661              	.L266:
 112:Lib/lvgl/src/core/lv_obj_style.c ****         if(obj->styles[i].is_trans) continue;
 3662              		.loc 1 112 37 discriminator 2 view .LVU1091
 3663 004c 0135     		adds	r5, r5, #1
 3664              	.LVL351:
 3665              	.L265:
 112:Lib/lvgl/src/core/lv_obj_style.c ****         if(obj->styles[i].is_trans) continue;
 3666              		.loc 1 112 18 discriminator 1 view .LVU1092
 112:Lib/lvgl/src/core/lv_obj_style.c ****         if(obj->styles[i].is_trans) continue;
 3667              		.loc 1 112 23 is_stmt 0 discriminator 1 view .LVU1093
 3668 004e 638D     		ldrh	r3, [r4, #42]
 3669 0050 C3F30513 		ubfx	r3, r3, #4, #6
 112:Lib/lvgl/src/core/lv_obj_style.c ****         if(obj->styles[i].is_trans) continue;
 3670              		.loc 1 112 18 discriminator 1 view .LVU1094
 3671 0054 AB42     		cmp	r3, r5
 3672 0056 09D9     		bls	.L267
 113:Lib/lvgl/src/core/lv_obj_style.c ****         if(obj->styles[i].is_local) continue;
 3673              		.loc 1 113 9 is_stmt 1 view .LVU1095
 113:Lib/lvgl/src/core/lv_obj_style.c ****         if(obj->styles[i].is_local) continue;
 3674              		.loc 1 113 15 is_stmt 0 view .LVU1096
 3675 0058 E268     		ldr	r2, [r4, #12]
 113:Lib/lvgl/src/core/lv_obj_style.c ****         if(obj->styles[i].is_local) continue;
 3676              		.loc 1 113 23 view .LVU1097
 3677 005a 02EBC502 		add	r2, r2, r5, lsl #3
 113:Lib/lvgl/src/core/lv_obj_style.c ****         if(obj->styles[i].is_local) continue;
 3678              		.loc 1 113 12 view .LVU1098
 3679 005e D279     		ldrb	r2, [r2, #7]	@ zero_extendqisi2
 113:Lib/lvgl/src/core/lv_obj_style.c ****         if(obj->styles[i].is_local) continue;
 3680              		.loc 1 113 11 view .LVU1099
 3681 0060 12F0020F 		tst	r2, #2
 3682 0064 F2D1     		bne	.L266
 114:Lib/lvgl/src/core/lv_obj_style.c ****         break;
 3683              		.loc 1 114 9 is_stmt 1 view .LVU1100
 114:Lib/lvgl/src/core/lv_obj_style.c ****         break;
 3684              		.loc 1 114 11 is_stmt 0 view .LVU1101
 3685 0066 12F0010F 		tst	r2, #1
 3686 006a EFD1     		bne	.L266
 3687              	.L267:
 121:Lib/lvgl/src/core/lv_obj_style.c ****     LV_ASSERT(obj->style_cnt != 0);
 3688              		.loc 1 121 5 is_stmt 1 view .LVU1102
 121:Lib/lvgl/src/core/lv_obj_style.c ****     LV_ASSERT(obj->style_cnt != 0);
 3689              		.loc 1 121 19 is_stmt 0 view .LVU1103
 3690 006c 0133     		adds	r3, r3, #1
 3691 006e 03F03F03 		and	r3, r3, #63
 3692 0072 628D     		ldrh	r2, [r4, #42]
 3693 0074 63F30912 		bfi	r2, r3, #4, #6
 3694 0078 6285     		strh	r2, [r4, #42]	@ movhi
 122:Lib/lvgl/src/core/lv_obj_style.c ****     obj->styles = lv_realloc(obj->styles, obj->style_cnt * sizeof(_lv_obj_style_t));
 3695              		.loc 1 122 5 is_stmt 1 view .LVU1104
 122:Lib/lvgl/src/core/lv_obj_style.c ****     obj->styles = lv_realloc(obj->styles, obj->style_cnt * sizeof(_lv_obj_style_t));
 3696              		.loc 1 122 5 view .LVU1105
 3697 007a 02F47C72 		and	r2, r2, #1008
 3698 007e 02B9     		cbnz	r2, .L269
ARM GAS  C:\Users\Alex\AppData\Local\Temp\ccdKwz1H.s 			page 134


 3699              	.L270:
 122:Lib/lvgl/src/core/lv_obj_style.c ****     obj->styles = lv_realloc(obj->styles, obj->style_cnt * sizeof(_lv_obj_style_t));
 3700              		.loc 1 122 5 discriminator 2 view .LVU1106
 122:Lib/lvgl/src/core/lv_obj_style.c ****     obj->styles = lv_realloc(obj->styles, obj->style_cnt * sizeof(_lv_obj_style_t));
 3701              		.loc 1 122 5 discriminator 2 view .LVU1107
 122:Lib/lvgl/src/core/lv_obj_style.c ****     obj->styles = lv_realloc(obj->styles, obj->style_cnt * sizeof(_lv_obj_style_t));
 3702              		.loc 1 122 5 discriminator 2 view .LVU1108
 122:Lib/lvgl/src/core/lv_obj_style.c ****     obj->styles = lv_realloc(obj->styles, obj->style_cnt * sizeof(_lv_obj_style_t));
 3703              		.loc 1 122 5 discriminator 2 view .LVU1109
 122:Lib/lvgl/src/core/lv_obj_style.c ****     obj->styles = lv_realloc(obj->styles, obj->style_cnt * sizeof(_lv_obj_style_t));
 3704              		.loc 1 122 5 discriminator 2 view .LVU1110
 3705 0080 FEE7     		b	.L270
 3706              	.L269:
 122:Lib/lvgl/src/core/lv_obj_style.c ****     obj->styles = lv_realloc(obj->styles, obj->style_cnt * sizeof(_lv_obj_style_t));
 3707              		.loc 1 122 5 discriminator 2 view .LVU1111
 123:Lib/lvgl/src/core/lv_obj_style.c ****     LV_ASSERT_MALLOC(obj->styles);
 3708              		.loc 1 123 5 discriminator 2 view .LVU1112
 123:Lib/lvgl/src/core/lv_obj_style.c ****     LV_ASSERT_MALLOC(obj->styles);
 3709              		.loc 1 123 19 is_stmt 0 discriminator 2 view .LVU1113
 3710 0082 D900     		lsls	r1, r3, #3
 3711 0084 E068     		ldr	r0, [r4, #12]
 3712 0086 FFF7FEFF 		bl	lv_realloc
 3713              	.LVL352:
 123:Lib/lvgl/src/core/lv_obj_style.c ****     LV_ASSERT_MALLOC(obj->styles);
 3714              		.loc 1 123 17 discriminator 2 view .LVU1114
 3715 008a E060     		str	r0, [r4, #12]
 124:Lib/lvgl/src/core/lv_obj_style.c **** 
 3716              		.loc 1 124 5 is_stmt 1 discriminator 2 view .LVU1115
 124:Lib/lvgl/src/core/lv_obj_style.c **** 
 3717              		.loc 1 124 5 discriminator 2 view .LVU1116
 3718 008c 30B1     		cbz	r0, .L272
 124:Lib/lvgl/src/core/lv_obj_style.c **** 
 3719              		.loc 1 124 5 discriminator 2 view .LVU1117
 124:Lib/lvgl/src/core/lv_obj_style.c **** 
 3720              		.loc 1 124 34 discriminator 2 view .LVU1118
 126:Lib/lvgl/src/core/lv_obj_style.c ****     for(j = obj->style_cnt - 1; j > i ; j--) {
 3721              		.loc 1 126 5 discriminator 2 view .LVU1119
 127:Lib/lvgl/src/core/lv_obj_style.c ****         obj->styles[j] = obj->styles[j - 1];
 3722              		.loc 1 127 5 discriminator 2 view .LVU1120
 127:Lib/lvgl/src/core/lv_obj_style.c ****         obj->styles[j] = obj->styles[j - 1];
 3723              		.loc 1 127 16 is_stmt 0 discriminator 2 view .LVU1121
 3724 008e B4F82AC0 		ldrh	ip, [r4, #42]
 3725 0092 CCF3051C 		ubfx	ip, ip, #4, #6
 127:Lib/lvgl/src/core/lv_obj_style.c ****         obj->styles[j] = obj->styles[j - 1];
 3726              		.loc 1 127 28 discriminator 2 view .LVU1122
 3727 0096 0CF1FF3C 		add	ip, ip, #-1
 3728              	.LVL353:
 127:Lib/lvgl/src/core/lv_obj_style.c ****         obj->styles[j] = obj->styles[j - 1];
 3729              		.loc 1 127 5 discriminator 2 view .LVU1123
 3730 009a 0EE0     		b	.L273
 3731              	.LVL354:
 3732              	.L272:
 124:Lib/lvgl/src/core/lv_obj_style.c **** 
 3733              		.loc 1 124 5 is_stmt 1 discriminator 3 view .LVU1124
 124:Lib/lvgl/src/core/lv_obj_style.c **** 
 3734              		.loc 1 124 5 discriminator 3 view .LVU1125
 124:Lib/lvgl/src/core/lv_obj_style.c **** 
ARM GAS  C:\Users\Alex\AppData\Local\Temp\ccdKwz1H.s 			page 135


 3735              		.loc 1 124 5 discriminator 3 view .LVU1126
 124:Lib/lvgl/src/core/lv_obj_style.c **** 
 3736              		.loc 1 124 5 discriminator 3 view .LVU1127
 124:Lib/lvgl/src/core/lv_obj_style.c **** 
 3737              		.loc 1 124 5 discriminator 3 view .LVU1128
 3738 009c FEE7     		b	.L272
 3739              	.LVL355:
 3740              	.L274:
 128:Lib/lvgl/src/core/lv_obj_style.c ****     }
 3741              		.loc 1 128 9 discriminator 3 view .LVU1129
 128:Lib/lvgl/src/core/lv_obj_style.c ****     }
 3742              		.loc 1 128 29 is_stmt 0 discriminator 3 view .LVU1130
 3743 009e E268     		ldr	r2, [r4, #12]
 128:Lib/lvgl/src/core/lv_obj_style.c ****     }
 3744              		.loc 1 128 37 discriminator 3 view .LVU1131
 3745 00a0 0CF10053 		add	r3, ip, #536870912
 3746 00a4 013B     		subs	r3, r3, #1
 3747 00a6 02EBC303 		add	r3, r2, r3, lsl #3
 128:Lib/lvgl/src/core/lv_obj_style.c ****     }
 3748              		.loc 1 128 20 discriminator 3 view .LVU1132
 3749 00aa 02EBCC02 		add	r2, r2, ip, lsl #3
 128:Lib/lvgl/src/core/lv_obj_style.c ****     }
 3750              		.loc 1 128 24 discriminator 3 view .LVU1133
 3751 00ae 93E80300 		ldm	r3, {r0, r1}
 3752 00b2 82E80300 		stm	r2, {r0, r1}
 127:Lib/lvgl/src/core/lv_obj_style.c ****         obj->styles[j] = obj->styles[j - 1];
 3753              		.loc 1 127 42 is_stmt 1 discriminator 3 view .LVU1134
 3754 00b6 0CF1FF3C 		add	ip, ip, #-1
 3755              	.LVL356:
 3756              	.L273:
 127:Lib/lvgl/src/core/lv_obj_style.c ****         obj->styles[j] = obj->styles[j - 1];
 3757              		.loc 1 127 35 discriminator 1 view .LVU1135
 3758 00ba 6545     		cmp	r5, ip
 3759 00bc EFD3     		bcc	.L274
 131:Lib/lvgl/src/core/lv_obj_style.c ****     obj->styles[i].style = style;
 3760              		.loc 1 131 5 view .LVU1136
 131:Lib/lvgl/src/core/lv_obj_style.c ****     obj->styles[i].style = style;
 3761              		.loc 1 131 20 is_stmt 0 view .LVU1137
 3762 00be E068     		ldr	r0, [r4, #12]
 131:Lib/lvgl/src/core/lv_obj_style.c ****     obj->styles[i].style = style;
 3763              		.loc 1 131 28 view .LVU1138
 3764 00c0 4FEAC508 		lsl	r8, r5, #3
 3765              	.LVL357:
 3766              	.LBB283:
 3767              	.LBI283:
  65:Lib/lvgl/src/core/../misc/../font/../draw/../stdlib/lv_string.h **** {
 3768              		.loc 6 65 20 is_stmt 1 view .LVU1139
 3769              	.LBB284:
 3770              		.loc 6 67 5 view .LVU1140
 3771 00c4 0822     		movs	r2, #8
 3772 00c6 0021     		movs	r1, #0
 3773 00c8 00EBC500 		add	r0, r0, r5, lsl #3
 3774              	.LVL358:
 3775              		.loc 6 67 5 is_stmt 0 view .LVU1141
 3776 00cc FFF7FEFF 		bl	lv_memset
 3777              	.LVL359:
 3778              		.loc 6 67 5 view .LVU1142
ARM GAS  C:\Users\Alex\AppData\Local\Temp\ccdKwz1H.s 			page 136


 3779              	.LBE284:
 3780              	.LBE283:
 132:Lib/lvgl/src/core/lv_obj_style.c ****     obj->styles[i].selector = selector;
 3781              		.loc 1 132 5 is_stmt 1 view .LVU1143
 132:Lib/lvgl/src/core/lv_obj_style.c ****     obj->styles[i].selector = selector;
 3782              		.loc 1 132 8 is_stmt 0 view .LVU1144
 3783 00d0 E368     		ldr	r3, [r4, #12]
 132:Lib/lvgl/src/core/lv_obj_style.c ****     obj->styles[i].selector = selector;
 3784              		.loc 1 132 26 view .LVU1145
 3785 00d2 43F83570 		str	r7, [r3, r5, lsl #3]
 133:Lib/lvgl/src/core/lv_obj_style.c **** 
 3786              		.loc 1 133 5 is_stmt 1 view .LVU1146
 133:Lib/lvgl/src/core/lv_obj_style.c **** 
 3787              		.loc 1 133 8 is_stmt 0 view .LVU1147
 3788 00d6 E368     		ldr	r3, [r4, #12]
 133:Lib/lvgl/src/core/lv_obj_style.c **** 
 3789              		.loc 1 133 16 view .LVU1148
 3790 00d8 4344     		add	r3, r3, r8
 133:Lib/lvgl/src/core/lv_obj_style.c **** 
 3791              		.loc 1 133 29 view .LVU1149
 3792 00da 5A68     		ldr	r2, [r3, #4]
 3793 00dc 66F31702 		bfi	r2, r6, #0, #24
 3794              	.LVL360:
 133:Lib/lvgl/src/core/lv_obj_style.c **** 
 3795              		.loc 1 133 29 view .LVU1150
 3796 00e0 5A60     		str	r2, [r3, #4]
 151:Lib/lvgl/src/core/lv_obj_style.c **** }
 3797              		.loc 1 151 5 is_stmt 1 view .LVU1151
 3798 00e2 FF22     		movs	r2, #255
 3799 00e4 3146     		mov	r1, r6
 3800 00e6 2046     		mov	r0, r4
 3801 00e8 FFF7FEFF 		bl	lv_obj_refresh_style
 3802              	.LVL361:
 152:Lib/lvgl/src/core/lv_obj_style.c **** 
 3803              		.loc 1 152 1 is_stmt 0 view .LVU1152
 3804 00ec BDE8F081 		pop	{r4, r5, r6, r7, r8, pc}
 152:Lib/lvgl/src/core/lv_obj_style.c **** 
 3805              		.loc 1 152 1 view .LVU1153
 3806              		.cfi_endproc
 3807              	.LFE236:
 3809              		.section	.text.report_style_change_core,"ax",%progbits
 3810              		.align	1
 3811              		.syntax unified
 3812              		.thumb
 3813              		.thumb_func
 3815              	report_style_change_core:
 3816              	.LVL362:
 3817              	.LFB259:
 809:Lib/lvgl/src/core/lv_obj_style.c ****     uint32_t i;
 3818              		.loc 1 809 1 is_stmt 1 view -0
 3819              		.cfi_startproc
 3820              		@ args = 0, pretend = 0, frame = 0
 3821              		@ frame_needed = 0, uses_anonymous_args = 0
 809:Lib/lvgl/src/core/lv_obj_style.c ****     uint32_t i;
 3822              		.loc 1 809 1 is_stmt 0 view .LVU1155
 3823 0000 F8B5     		push	{r3, r4, r5, r6, r7, lr}
 3824              	.LCFI42:
ARM GAS  C:\Users\Alex\AppData\Local\Temp\ccdKwz1H.s 			page 137


 3825              		.cfi_def_cfa_offset 24
 3826              		.cfi_offset 3, -24
 3827              		.cfi_offset 4, -20
 3828              		.cfi_offset 5, -16
 3829              		.cfi_offset 6, -12
 3830              		.cfi_offset 7, -8
 3831              		.cfi_offset 14, -4
 3832 0002 0546     		mov	r5, r0
 3833 0004 0C46     		mov	r4, r1
 810:Lib/lvgl/src/core/lv_obj_style.c ****     for(i = 0; i < obj->style_cnt; i++) {
 3834              		.loc 1 810 5 is_stmt 1 view .LVU1156
 811:Lib/lvgl/src/core/lv_obj_style.c ****         if(style == NULL || obj->styles[i].style == style) {
 3835              		.loc 1 811 5 view .LVU1157
 3836              	.LVL363:
 811:Lib/lvgl/src/core/lv_obj_style.c ****         if(style == NULL || obj->styles[i].style == style) {
 3837              		.loc 1 811 11 is_stmt 0 view .LVU1158
 3838 0006 0022     		movs	r2, #0
 811:Lib/lvgl/src/core/lv_obj_style.c ****         if(style == NULL || obj->styles[i].style == style) {
 3839              		.loc 1 811 5 view .LVU1159
 3840 0008 00E0     		b	.L279
 3841              	.LVL364:
 3842              	.L281:
 811:Lib/lvgl/src/core/lv_obj_style.c ****         if(style == NULL || obj->styles[i].style == style) {
 3843              		.loc 1 811 37 is_stmt 1 discriminator 2 view .LVU1160
 811:Lib/lvgl/src/core/lv_obj_style.c ****         if(style == NULL || obj->styles[i].style == style) {
 3844              		.loc 1 811 37 is_stmt 0 discriminator 2 view .LVU1161
 3845 000a 0132     		adds	r2, r2, #1
 3846              	.LVL365:
 3847              	.L279:
 811:Lib/lvgl/src/core/lv_obj_style.c ****         if(style == NULL || obj->styles[i].style == style) {
 3848              		.loc 1 811 18 is_stmt 1 discriminator 1 view .LVU1162
 811:Lib/lvgl/src/core/lv_obj_style.c ****         if(style == NULL || obj->styles[i].style == style) {
 3849              		.loc 1 811 23 is_stmt 0 discriminator 1 view .LVU1163
 3850 000c 638D     		ldrh	r3, [r4, #42]
 3851 000e C3F30513 		ubfx	r3, r3, #4, #6
 811:Lib/lvgl/src/core/lv_obj_style.c ****         if(style == NULL || obj->styles[i].style == style) {
 3852              		.loc 1 811 18 discriminator 1 view .LVU1164
 3853 0012 9342     		cmp	r3, r2
 3854 0014 0BD9     		bls	.L282
 812:Lib/lvgl/src/core/lv_obj_style.c ****             full_cache_refresh(obj, lv_obj_style_get_selector_part(obj->styles[i].selector));
 3855              		.loc 1 812 9 is_stmt 1 view .LVU1165
 812:Lib/lvgl/src/core/lv_obj_style.c ****             full_cache_refresh(obj, lv_obj_style_get_selector_part(obj->styles[i].selector));
 3856              		.loc 1 812 11 is_stmt 0 view .LVU1166
 3857 0016 25B1     		cbz	r5, .L280
 812:Lib/lvgl/src/core/lv_obj_style.c ****             full_cache_refresh(obj, lv_obj_style_get_selector_part(obj->styles[i].selector));
 3858              		.loc 1 812 32 discriminator 1 view .LVU1167
 3859 0018 E368     		ldr	r3, [r4, #12]
 812:Lib/lvgl/src/core/lv_obj_style.c ****             full_cache_refresh(obj, lv_obj_style_get_selector_part(obj->styles[i].selector));
 3860              		.loc 1 812 43 discriminator 1 view .LVU1168
 3861 001a 53F83230 		ldr	r3, [r3, r2, lsl #3]
 812:Lib/lvgl/src/core/lv_obj_style.c ****             full_cache_refresh(obj, lv_obj_style_get_selector_part(obj->styles[i].selector));
 3862              		.loc 1 812 26 discriminator 1 view .LVU1169
 3863 001e AB42     		cmp	r3, r5
 3864 0020 F3D1     		bne	.L281
 3865              	.L280:
 813:Lib/lvgl/src/core/lv_obj_style.c ****             lv_obj_refresh_style(obj, LV_PART_ANY, LV_STYLE_PROP_ANY);
 3866              		.loc 1 813 13 is_stmt 1 view .LVU1170
ARM GAS  C:\Users\Alex\AppData\Local\Temp\ccdKwz1H.s 			page 138


 814:Lib/lvgl/src/core/lv_obj_style.c ****             break;
 3867              		.loc 1 814 13 view .LVU1171
 3868 0022 FF22     		movs	r2, #255
 3869 0024 4FF47021 		mov	r1, #983040
 3870              	.LVL366:
 814:Lib/lvgl/src/core/lv_obj_style.c ****             break;
 3871              		.loc 1 814 13 is_stmt 0 view .LVU1172
 3872 0028 2046     		mov	r0, r4
 3873              	.LVL367:
 814:Lib/lvgl/src/core/lv_obj_style.c ****             break;
 3874              		.loc 1 814 13 view .LVU1173
 3875 002a FFF7FEFF 		bl	lv_obj_refresh_style
 3876              	.LVL368:
 815:Lib/lvgl/src/core/lv_obj_style.c ****         }
 3877              		.loc 1 815 13 is_stmt 1 view .LVU1174
 3878              	.L282:
 819:Lib/lvgl/src/core/lv_obj_style.c ****     for(i = 0; i < child_cnt; i++) {
 3879              		.loc 1 819 5 view .LVU1175
 819:Lib/lvgl/src/core/lv_obj_style.c ****     for(i = 0; i < child_cnt; i++) {
 3880              		.loc 1 819 26 is_stmt 0 view .LVU1176
 3881 002e 2046     		mov	r0, r4
 3882 0030 FFF7FEFF 		bl	lv_obj_get_child_count
 3883              	.LVL369:
 3884 0034 0746     		mov	r7, r0
 3885              	.LVL370:
 820:Lib/lvgl/src/core/lv_obj_style.c ****         report_style_change_core(style, obj->spec_attr->children[i]);
 3886              		.loc 1 820 5 is_stmt 1 view .LVU1177
 820:Lib/lvgl/src/core/lv_obj_style.c ****         report_style_change_core(style, obj->spec_attr->children[i]);
 3887              		.loc 1 820 11 is_stmt 0 view .LVU1178
 3888 0036 0026     		movs	r6, #0
 3889              	.LVL371:
 3890              	.L284:
 820:Lib/lvgl/src/core/lv_obj_style.c ****         report_style_change_core(style, obj->spec_attr->children[i]);
 3891              		.loc 1 820 18 is_stmt 1 discriminator 1 view .LVU1179
 3892 0038 BE42     		cmp	r6, r7
 3893 003a 08D2     		bcs	.L287
 821:Lib/lvgl/src/core/lv_obj_style.c ****     }
 3894              		.loc 1 821 9 discriminator 3 view .LVU1180
 821:Lib/lvgl/src/core/lv_obj_style.c ****     }
 3895              		.loc 1 821 44 is_stmt 0 discriminator 3 view .LVU1181
 3896 003c A368     		ldr	r3, [r4, #8]
 821:Lib/lvgl/src/core/lv_obj_style.c ****     }
 3897              		.loc 1 821 55 discriminator 3 view .LVU1182
 3898 003e 1B68     		ldr	r3, [r3]
 821:Lib/lvgl/src/core/lv_obj_style.c ****     }
 3899              		.loc 1 821 9 discriminator 3 view .LVU1183
 3900 0040 53F82610 		ldr	r1, [r3, r6, lsl #2]
 3901 0044 2846     		mov	r0, r5
 3902 0046 FFF7DBFF 		bl	report_style_change_core
 3903              	.LVL372:
 820:Lib/lvgl/src/core/lv_obj_style.c ****         report_style_change_core(style, obj->spec_attr->children[i]);
 3904              		.loc 1 820 32 is_stmt 1 discriminator 3 view .LVU1184
 3905 004a 0136     		adds	r6, r6, #1
 3906              	.LVL373:
 820:Lib/lvgl/src/core/lv_obj_style.c ****         report_style_change_core(style, obj->spec_attr->children[i]);
 3907              		.loc 1 820 32 is_stmt 0 discriminator 3 view .LVU1185
 3908 004c F4E7     		b	.L284
ARM GAS  C:\Users\Alex\AppData\Local\Temp\ccdKwz1H.s 			page 139


 3909              	.L287:
 823:Lib/lvgl/src/core/lv_obj_style.c **** 
 3910              		.loc 1 823 1 view .LVU1186
 3911 004e F8BD     		pop	{r3, r4, r5, r6, r7, pc}
 823:Lib/lvgl/src/core/lv_obj_style.c **** 
 3912              		.loc 1 823 1 view .LVU1187
 3913              		.cfi_endproc
 3914              	.LFE259:
 3916              		.section	.text.lv_obj_report_style_change,"ax",%progbits
 3917              		.align	1
 3918              		.global	lv_obj_report_style_change
 3919              		.syntax unified
 3920              		.thumb
 3921              		.thumb_func
 3923              	lv_obj_report_style_change:
 3924              	.LVL374:
 3925              	.LFB240:
 259:Lib/lvgl/src/core/lv_obj_style.c ****     if(!style_refr) return;
 3926              		.loc 1 259 1 is_stmt 1 view -0
 3927              		.cfi_startproc
 3928              		@ args = 0, pretend = 0, frame = 0
 3929              		@ frame_needed = 0, uses_anonymous_args = 0
 260:Lib/lvgl/src/core/lv_obj_style.c ****     lv_display_t * d = lv_display_get_next(NULL);
 3930              		.loc 1 260 5 view .LVU1189
 260:Lib/lvgl/src/core/lv_obj_style.c ****     lv_display_t * d = lv_display_get_next(NULL);
 3931              		.loc 1 260 9 is_stmt 0 view .LVU1190
 3932 0000 0F4B     		ldr	r3, .L300
 3933 0002 93F82430 		ldrb	r3, [r3, #36]	@ zero_extendqisi2
 260:Lib/lvgl/src/core/lv_obj_style.c ****     lv_display_t * d = lv_display_get_next(NULL);
 3934              		.loc 1 260 7 view .LVU1191
 3935 0006 03B9     		cbnz	r3, .L298
 3936 0008 7047     		bx	lr
 3937              	.L298:
 259:Lib/lvgl/src/core/lv_obj_style.c ****     if(!style_refr) return;
 3938              		.loc 1 259 1 view .LVU1192
 3939 000a 70B5     		push	{r4, r5, r6, lr}
 3940              	.LCFI43:
 3941              		.cfi_def_cfa_offset 16
 3942              		.cfi_offset 4, -16
 3943              		.cfi_offset 5, -12
 3944              		.cfi_offset 6, -8
 3945              		.cfi_offset 14, -4
 3946 000c 0646     		mov	r6, r0
 261:Lib/lvgl/src/core/lv_obj_style.c **** 
 3947              		.loc 1 261 5 is_stmt 1 view .LVU1193
 261:Lib/lvgl/src/core/lv_obj_style.c **** 
 3948              		.loc 1 261 24 is_stmt 0 view .LVU1194
 3949 000e 0020     		movs	r0, #0
 3950              	.LVL375:
 261:Lib/lvgl/src/core/lv_obj_style.c **** 
 3951              		.loc 1 261 24 view .LVU1195
 3952 0010 FFF7FEFF 		bl	lv_display_get_next
 3953              	.LVL376:
 3954 0014 0546     		mov	r5, r0
 3955              	.LVL377:
 263:Lib/lvgl/src/core/lv_obj_style.c ****         uint32_t i;
 3956              		.loc 1 263 5 is_stmt 1 view .LVU1196
ARM GAS  C:\Users\Alex\AppData\Local\Temp\ccdKwz1H.s 			page 140


 263:Lib/lvgl/src/core/lv_obj_style.c ****         uint32_t i;
 3957              		.loc 1 263 10 is_stmt 0 view .LVU1197
 3958 0016 0FE0     		b	.L290
 3959              	.LVL378:
 3960              	.L291:
 3961              	.LBB285:
 266:Lib/lvgl/src/core/lv_obj_style.c ****         }
 3962              		.loc 1 266 13 is_stmt 1 discriminator 3 view .LVU1198
 266:Lib/lvgl/src/core/lv_obj_style.c ****         }
 3963              		.loc 1 266 46 is_stmt 0 discriminator 3 view .LVU1199
 3964 0018 D5F8AC32 		ldr	r3, [r5, #684]
 266:Lib/lvgl/src/core/lv_obj_style.c ****         }
 3965              		.loc 1 266 13 discriminator 3 view .LVU1200
 3966 001c 53F82410 		ldr	r1, [r3, r4, lsl #2]
 3967 0020 3046     		mov	r0, r6
 3968 0022 FFF7FEFF 		bl	report_style_change_core
 3969              	.LVL379:
 265:Lib/lvgl/src/core/lv_obj_style.c ****             report_style_change_core(style, d->screens[i]);
 3970              		.loc 1 265 40 is_stmt 1 discriminator 3 view .LVU1201
 3971 0026 0134     		adds	r4, r4, #1
 3972              	.LVL380:
 3973              	.L292:
 265:Lib/lvgl/src/core/lv_obj_style.c ****             report_style_change_core(style, d->screens[i]);
 3974              		.loc 1 265 22 discriminator 1 view .LVU1202
 265:Lib/lvgl/src/core/lv_obj_style.c ****             report_style_change_core(style, d->screens[i]);
 3975              		.loc 1 265 25 is_stmt 0 discriminator 1 view .LVU1203
 3976 0028 D5F8C832 		ldr	r3, [r5, #712]
 265:Lib/lvgl/src/core/lv_obj_style.c ****             report_style_change_core(style, d->screens[i]);
 3977              		.loc 1 265 22 discriminator 1 view .LVU1204
 3978 002c A342     		cmp	r3, r4
 3979 002e F3D8     		bhi	.L291
 268:Lib/lvgl/src/core/lv_obj_style.c ****     }
 3980              		.loc 1 268 9 is_stmt 1 view .LVU1205
 268:Lib/lvgl/src/core/lv_obj_style.c ****     }
 3981              		.loc 1 268 13 is_stmt 0 view .LVU1206
 3982 0030 2846     		mov	r0, r5
 3983 0032 FFF7FEFF 		bl	lv_display_get_next
 3984              	.LVL381:
 3985 0036 0546     		mov	r5, r0
 3986              	.LVL382:
 3987              	.L290:
 268:Lib/lvgl/src/core/lv_obj_style.c ****     }
 3988              		.loc 1 268 13 view .LVU1207
 3989              	.LBE285:
 263:Lib/lvgl/src/core/lv_obj_style.c ****         uint32_t i;
 3990              		.loc 1 263 11 is_stmt 1 view .LVU1208
 3991 0038 0DB1     		cbz	r5, .L299
 3992              	.LBB286:
 265:Lib/lvgl/src/core/lv_obj_style.c ****             report_style_change_core(style, d->screens[i]);
 3993              		.loc 1 265 15 is_stmt 0 view .LVU1209
 3994 003a 0024     		movs	r4, #0
 3995 003c F4E7     		b	.L292
 3996              	.L299:
 3997              	.LBE286:
 270:Lib/lvgl/src/core/lv_obj_style.c **** 
 3998              		.loc 1 270 1 view .LVU1210
 3999 003e 70BD     		pop	{r4, r5, r6, pc}
ARM GAS  C:\Users\Alex\AppData\Local\Temp\ccdKwz1H.s 			page 141


 4000              	.LVL383:
 4001              	.L301:
 270:Lib/lvgl/src/core/lv_obj_style.c **** 
 4002              		.loc 1 270 1 view .LVU1211
 4003              		.align	2
 4004              	.L300:
 4005 0040 00000000 		.word	lv_global
 4006              		.cfi_endproc
 4007              	.LFE240:
 4009              		.section	.text.trans_anim_cb,"ax",%progbits
 4010              		.align	1
 4011              		.syntax unified
 4012              		.thumb
 4013              		.thumb_func
 4015              	trans_anim_cb:
 4016              	.LVL384:
 4017              	.LFB262:
 888:Lib/lvgl/src/core/lv_obj_style.c ****     trans_t * tr = _tr;
 4018              		.loc 1 888 1 is_stmt 1 view -0
 4019              		.cfi_startproc
 4020              		@ args = 0, pretend = 0, frame = 8
 4021              		@ frame_needed = 0, uses_anonymous_args = 0
 888:Lib/lvgl/src/core/lv_obj_style.c ****     trans_t * tr = _tr;
 4022              		.loc 1 888 1 is_stmt 0 view .LVU1213
 4023 0000 2DE9F043 		push	{r4, r5, r6, r7, r8, r9, lr}
 4024              	.LCFI44:
 4025              		.cfi_def_cfa_offset 28
 4026              		.cfi_offset 4, -28
 4027              		.cfi_offset 5, -24
 4028              		.cfi_offset 6, -20
 4029              		.cfi_offset 7, -16
 4030              		.cfi_offset 8, -12
 4031              		.cfi_offset 9, -8
 4032              		.cfi_offset 14, -4
 4033 0004 83B0     		sub	sp, sp, #12
 4034              	.LCFI45:
 4035              		.cfi_def_cfa_offset 40
 4036 0006 0546     		mov	r5, r0
 889:Lib/lvgl/src/core/lv_obj_style.c ****     lv_obj_t * obj = tr->obj;
 4037              		.loc 1 889 5 is_stmt 1 view .LVU1214
 4038              	.LVL385:
 890:Lib/lvgl/src/core/lv_obj_style.c **** 
 4039              		.loc 1 890 5 view .LVU1215
 890:Lib/lvgl/src/core/lv_obj_style.c **** 
 4040              		.loc 1 890 16 is_stmt 0 view .LVU1216
 4041 0008 0668     		ldr	r6, [r0]
 4042              	.LVL386:
 892:Lib/lvgl/src/core/lv_obj_style.c ****     for(i = 0; i < obj->style_cnt; i++) {
 4043              		.loc 1 892 5 is_stmt 1 view .LVU1217
 893:Lib/lvgl/src/core/lv_obj_style.c ****         if(obj->styles[i].is_trans == 0 || obj->styles[i].selector != tr->selector) continue;
 4044              		.loc 1 893 5 view .LVU1218
 893:Lib/lvgl/src/core/lv_obj_style.c ****         if(obj->styles[i].is_trans == 0 || obj->styles[i].selector != tr->selector) continue;
 4045              		.loc 1 893 11 is_stmt 0 view .LVU1219
 4046 000a 0023     		movs	r3, #0
 893:Lib/lvgl/src/core/lv_obj_style.c ****         if(obj->styles[i].is_trans == 0 || obj->styles[i].selector != tr->selector) continue;
 4047              		.loc 1 893 5 view .LVU1220
 4048 000c 00E0     		b	.L303
ARM GAS  C:\Users\Alex\AppData\Local\Temp\ccdKwz1H.s 			page 142


 4049              	.LVL387:
 4050              	.L304:
 4051              	.LBB287:
 894:Lib/lvgl/src/core/lv_obj_style.c **** 
 4052              		.loc 1 894 85 is_stmt 1 discriminator 3 view .LVU1221
 4053              	.LBE287:
 893:Lib/lvgl/src/core/lv_obj_style.c ****         if(obj->styles[i].is_trans == 0 || obj->styles[i].selector != tr->selector) continue;
 4054              		.loc 1 893 37 discriminator 3 view .LVU1222
 4055 000e 0133     		adds	r3, r3, #1
 4056              	.LVL388:
 4057              	.L303:
 893:Lib/lvgl/src/core/lv_obj_style.c ****         if(obj->styles[i].is_trans == 0 || obj->styles[i].selector != tr->selector) continue;
 4058              		.loc 1 893 18 discriminator 1 view .LVU1223
 893:Lib/lvgl/src/core/lv_obj_style.c ****         if(obj->styles[i].is_trans == 0 || obj->styles[i].selector != tr->selector) continue;
 4059              		.loc 1 893 23 is_stmt 0 discriminator 1 view .LVU1224
 4060 0010 B6F82AC0 		ldrh	ip, [r6, #42]
 4061 0014 CCF3051C 		ubfx	ip, ip, #4, #6
 893:Lib/lvgl/src/core/lv_obj_style.c ****         if(obj->styles[i].is_trans == 0 || obj->styles[i].selector != tr->selector) continue;
 4062              		.loc 1 893 18 discriminator 1 view .LVU1225
 4063 0018 9C45     		cmp	ip, r3
 4064 001a 40F2B480 		bls	.L302
 4065              	.LBB288:
 894:Lib/lvgl/src/core/lv_obj_style.c **** 
 4066              		.loc 1 894 9 is_stmt 1 view .LVU1226
 894:Lib/lvgl/src/core/lv_obj_style.c **** 
 4067              		.loc 1 894 15 is_stmt 0 view .LVU1227
 4068 001e F768     		ldr	r7, [r6, #12]
 894:Lib/lvgl/src/core/lv_obj_style.c **** 
 4069              		.loc 1 894 23 view .LVU1228
 4070 0020 4FEAC308 		lsl	r8, r3, #3
 4071 0024 07EBC300 		add	r0, r7, r3, lsl #3
 894:Lib/lvgl/src/core/lv_obj_style.c **** 
 4072              		.loc 1 894 36 view .LVU1229
 4073 0028 C479     		ldrb	r4, [r0, #7]	@ zero_extendqisi2
 894:Lib/lvgl/src/core/lv_obj_style.c **** 
 4074              		.loc 1 894 11 view .LVU1230
 4075 002a 14F0020F 		tst	r4, #2
 4076 002e EED0     		beq	.L304
 894:Lib/lvgl/src/core/lv_obj_style.c **** 
 4077              		.loc 1 894 58 discriminator 2 view .LVU1231
 4078 0030 4068     		ldr	r0, [r0, #4]
 4079 0032 C0F31700 		ubfx	r0, r0, #0, #24
 894:Lib/lvgl/src/core/lv_obj_style.c **** 
 4080              		.loc 1 894 73 discriminator 2 view .LVU1232
 4081 0036 AA68     		ldr	r2, [r5, #8]
 894:Lib/lvgl/src/core/lv_obj_style.c **** 
 4082              		.loc 1 894 41 discriminator 2 view .LVU1233
 4083 0038 9042     		cmp	r0, r2
 4084 003a E8D1     		bne	.L304
 896:Lib/lvgl/src/core/lv_obj_style.c ****         switch(tr->prop) {
 4085              		.loc 1 896 9 is_stmt 1 view .LVU1234
 896:Lib/lvgl/src/core/lv_obj_style.c ****         switch(tr->prop) {
 4086              		.loc 1 896 26 is_stmt 0 view .LVU1235
 4087 003c 0023     		movs	r3, #0
 4088              	.LVL389:
 896:Lib/lvgl/src/core/lv_obj_style.c ****         switch(tr->prop) {
 4089              		.loc 1 896 26 view .LVU1236
ARM GAS  C:\Users\Alex\AppData\Local\Temp\ccdKwz1H.s 			page 143


 4090 003e 0093     		str	r3, [sp]
 897:Lib/lvgl/src/core/lv_obj_style.c **** 
 4091              		.loc 1 897 9 is_stmt 1 view .LVU1237
 897:Lib/lvgl/src/core/lv_obj_style.c **** 
 4092              		.loc 1 897 18 is_stmt 0 view .LVU1238
 4093 0040 2C79     		ldrb	r4, [r5, #4]	@ zero_extendqisi2
 897:Lib/lvgl/src/core/lv_obj_style.c **** 
 4094              		.loc 1 897 9 view .LVU1239
 4095 0042 672C     		cmp	r4, #103
 4096 0044 3DD8     		bhi	.L306
 4097 0046 5A2C     		cmp	r4, #90
 4098 0048 0CD3     		bcc	.L337
 4099 004a A4F15A03 		sub	r3, r4, #90
 4100 004e 0D2B     		cmp	r3, #13
 4101 0050 37D8     		bhi	.L306
 4102 0052 DFE803F0 		tbb	[pc, r3]
 4103              	.L311:
 4104 0056 3E       		.byte	(.L312-.L311)/2
 4105 0057 36       		.byte	(.L306-.L311)/2
 4106 0058 36       		.byte	(.L306-.L311)/2
 4107 0059 36       		.byte	(.L306-.L311)/2
 4108 005a 36       		.byte	(.L306-.L311)/2
 4109 005b 36       		.byte	(.L306-.L311)/2
 4110 005c 36       		.byte	(.L306-.L311)/2
 4111 005d 46       		.byte	(.L313-.L311)/2
 4112 005e 36       		.byte	(.L306-.L311)/2
 4113 005f 36       		.byte	(.L306-.L311)/2
 4114 0060 36       		.byte	(.L306-.L311)/2
 4115 0061 36       		.byte	(.L306-.L311)/2
 4116 0062 3E       		.byte	(.L312-.L311)/2
 4117 0063 17       		.byte	(.L310-.L311)/2
 4118              		.p2align 1
 4119              	.L337:
 4120 0064 392C     		cmp	r4, #57
 4121 0066 20D8     		bhi	.L308
 4122 0068 1C2C     		cmp	r4, #28
 4123 006a 2AD3     		bcc	.L306
 4124 006c A4F11C02 		sub	r2, r4, #28
 4125 0070 D2B2     		uxtb	r2, r2
 4126 0072 0123     		movs	r3, #1
 4127 0074 9340     		lsls	r3, r3, r2
 4128 0076 494A     		ldr	r2, .L344
 4129 0078 1A40     		ands	r2, r2, r3
 4130 007a 002A     		cmp	r2, #0
 4131 007c 40D1     		bne	.L314
 4132 007e 13F0407F 		tst	r3, #50331648
 4133 0082 1ED0     		beq	.L306
 4134              	.L310:
 902:Lib/lvgl/src/core/lv_obj_style.c ****                 else value_final.num = tr->end_value.num;
 4135              		.loc 1 902 17 is_stmt 1 view .LVU1240
 902:Lib/lvgl/src/core/lv_obj_style.c ****                 else value_final.num = tr->end_value.num;
 4136              		.loc 1 902 19 is_stmt 0 view .LVU1241
 4137 0084 FE29     		cmp	r1, #254
 4138 0086 21DC     		bgt	.L316
 902:Lib/lvgl/src/core/lv_obj_style.c ****                 else value_final.num = tr->end_value.num;
 4139              		.loc 1 902 29 is_stmt 1 discriminator 1 view .LVU1242
 902:Lib/lvgl/src/core/lv_obj_style.c ****                 else value_final.num = tr->end_value.num;
ARM GAS  C:\Users\Alex\AppData\Local\Temp\ccdKwz1H.s 			page 144


 4140              		.loc 1 902 62 is_stmt 0 discriminator 1 view .LVU1243
 4141 0088 EB68     		ldr	r3, [r5, #12]
 902:Lib/lvgl/src/core/lv_obj_style.c ****                 else value_final.num = tr->end_value.num;
 4142              		.loc 1 902 45 discriminator 1 view .LVU1244
 4143 008a 0093     		str	r3, [sp]
 4144              	.LVL390:
 4145              	.L317:
 935:Lib/lvgl/src/core/lv_obj_style.c ****         bool refr = true;
 4146              		.loc 1 935 9 is_stmt 1 view .LVU1245
 936:Lib/lvgl/src/core/lv_obj_style.c ****         if(lv_style_get_prop(obj->styles[i].style, tr->prop, &old_value)) {
 4147              		.loc 1 936 9 view .LVU1246
 937:Lib/lvgl/src/core/lv_obj_style.c ****             if(value_final.ptr == old_value.ptr && lv_color_eq(value_final.color, old_value.color) 
 4148              		.loc 1 937 9 view .LVU1247
 937:Lib/lvgl/src/core/lv_obj_style.c ****             if(value_final.ptr == old_value.ptr && lv_color_eq(value_final.color, old_value.color) 
 4149              		.loc 1 937 12 is_stmt 0 view .LVU1248
 4150 008c 01AA     		add	r2, sp, #4
 4151 008e 2146     		mov	r1, r4
 4152 0090 57F80800 		ldr	r0, [r7, r8]
 4153 0094 FFF7FEFF 		bl	lv_style_get_prop
 4154              	.LVL391:
 937:Lib/lvgl/src/core/lv_obj_style.c ****             if(value_final.ptr == old_value.ptr && lv_color_eq(value_final.color, old_value.color) 
 4155              		.loc 1 937 11 view .LVU1249
 4156 0098 0028     		cmp	r0, #0
 4157 009a 6BD0     		beq	.L330
 938:Lib/lvgl/src/core/lv_obj_style.c ****                value_final.num == old_value.num) {
 4158              		.loc 1 938 13 is_stmt 1 view .LVU1250
 938:Lib/lvgl/src/core/lv_obj_style.c ****                value_final.num == old_value.num) {
 4159              		.loc 1 938 27 is_stmt 0 view .LVU1251
 4160 009c DDF80090 		ldr	r9, [sp]
 938:Lib/lvgl/src/core/lv_obj_style.c ****                value_final.num == old_value.num) {
 4161              		.loc 1 938 44 view .LVU1252
 4162 00a0 019F     		ldr	r7, [sp, #4]
 938:Lib/lvgl/src/core/lv_obj_style.c ****                value_final.num == old_value.num) {
 4163              		.loc 1 938 15 view .LVU1253
 4164 00a2 B945     		cmp	r9, r7
 4165 00a4 5CD0     		beq	.L338
 936:Lib/lvgl/src/core/lv_obj_style.c ****         if(lv_style_get_prop(obj->styles[i].style, tr->prop, &old_value)) {
 4166              		.loc 1 936 14 view .LVU1254
 4167 00a6 0124     		movs	r4, #1
 4168 00a8 65E0     		b	.L326
 4169              	.LVL392:
 4170              	.L308:
 897:Lib/lvgl/src/core/lv_obj_style.c **** 
 4171              		.loc 1 897 9 view .LVU1255
 4172 00aa 582C     		cmp	r4, #88
 4173 00ac 09D8     		bhi	.L306
 4174 00ae 3D2C     		cmp	r4, #61
 4175 00b0 07D3     		bcc	.L306
 4176 00b2 A4F13D02 		sub	r2, r4, #61
 4177 00b6 D2B2     		uxtb	r2, r2
 4178 00b8 394B     		ldr	r3, .L344+4
 4179 00ba D340     		lsrs	r3, r3, r2
 4180 00bc 13F0010F 		tst	r3, #1
 4181 00c0 1ED1     		bne	.L314
 4182              	.L306:
 929:Lib/lvgl/src/core/lv_obj_style.c ****                 else if(v == 255) value_final.num = tr->end_value.num;
 4183              		.loc 1 929 17 is_stmt 1 view .LVU1256
ARM GAS  C:\Users\Alex\AppData\Local\Temp\ccdKwz1H.s 			page 145


 929:Lib/lvgl/src/core/lv_obj_style.c ****                 else if(v == 255) value_final.num = tr->end_value.num;
 4184              		.loc 1 929 19 is_stmt 0 view .LVU1257
 4185 00c2 0029     		cmp	r1, #0
 4186 00c4 3ED1     		bne	.L324
 929:Lib/lvgl/src/core/lv_obj_style.c ****                 else if(v == 255) value_final.num = tr->end_value.num;
 4187              		.loc 1 929 28 is_stmt 1 discriminator 1 view .LVU1258
 929:Lib/lvgl/src/core/lv_obj_style.c ****                 else if(v == 255) value_final.num = tr->end_value.num;
 4188              		.loc 1 929 61 is_stmt 0 discriminator 1 view .LVU1259
 4189 00c6 EB68     		ldr	r3, [r5, #12]
 929:Lib/lvgl/src/core/lv_obj_style.c ****                 else if(v == 255) value_final.num = tr->end_value.num;
 4190              		.loc 1 929 44 discriminator 1 view .LVU1260
 4191 00c8 0093     		str	r3, [sp]
 4192 00ca DFE7     		b	.L317
 4193              	.L316:
 903:Lib/lvgl/src/core/lv_obj_style.c ****                 break;
 4194              		.loc 1 903 22 is_stmt 1 view .LVU1261
 903:Lib/lvgl/src/core/lv_obj_style.c ****                 break;
 4195              		.loc 1 903 53 is_stmt 0 view .LVU1262
 4196 00cc 2B69     		ldr	r3, [r5, #16]
 903:Lib/lvgl/src/core/lv_obj_style.c ****                 break;
 4197              		.loc 1 903 38 view .LVU1263
 4198 00ce 0093     		str	r3, [sp]
 4199 00d0 DCE7     		b	.L317
 4200              	.L312:
 907:Lib/lvgl/src/core/lv_obj_style.c ****                 else value_final.ptr = tr->end_value.ptr;
 4201              		.loc 1 907 17 is_stmt 1 view .LVU1264
 907:Lib/lvgl/src/core/lv_obj_style.c ****                 else value_final.ptr = tr->end_value.ptr;
 4202              		.loc 1 907 19 is_stmt 0 view .LVU1265
 4203 00d2 FE29     		cmp	r1, #254
 4204 00d4 02DC     		bgt	.L318
 907:Lib/lvgl/src/core/lv_obj_style.c ****                 else value_final.ptr = tr->end_value.ptr;
 4205              		.loc 1 907 29 is_stmt 1 discriminator 1 view .LVU1266
 907:Lib/lvgl/src/core/lv_obj_style.c ****                 else value_final.ptr = tr->end_value.ptr;
 4206              		.loc 1 907 62 is_stmt 0 discriminator 1 view .LVU1267
 4207 00d6 EB68     		ldr	r3, [r5, #12]
 907:Lib/lvgl/src/core/lv_obj_style.c ****                 else value_final.ptr = tr->end_value.ptr;
 4208              		.loc 1 907 45 discriminator 1 view .LVU1268
 4209 00d8 0093     		str	r3, [sp]
 4210 00da D7E7     		b	.L317
 4211              	.L318:
 908:Lib/lvgl/src/core/lv_obj_style.c ****                 break;
 4212              		.loc 1 908 22 is_stmt 1 view .LVU1269
 908:Lib/lvgl/src/core/lv_obj_style.c ****                 break;
 4213              		.loc 1 908 53 is_stmt 0 view .LVU1270
 4214 00dc 2B69     		ldr	r3, [r5, #16]
 908:Lib/lvgl/src/core/lv_obj_style.c ****                 break;
 4215              		.loc 1 908 38 view .LVU1271
 4216 00de 0093     		str	r3, [sp]
 4217 00e0 D4E7     		b	.L317
 4218              	.L313:
 911:Lib/lvgl/src/core/lv_obj_style.c ****                 else if(tr->end_value.ptr == NULL) value_final.ptr = tr->start_value.ptr;
 4219              		.loc 1 911 17 is_stmt 1 view .LVU1272
 911:Lib/lvgl/src/core/lv_obj_style.c ****                 else if(tr->end_value.ptr == NULL) value_final.ptr = tr->start_value.ptr;
 4220              		.loc 1 911 35 is_stmt 0 view .LVU1273
 4221 00e2 EB68     		ldr	r3, [r5, #12]
 911:Lib/lvgl/src/core/lv_obj_style.c ****                 else if(tr->end_value.ptr == NULL) value_final.ptr = tr->start_value.ptr;
 4222              		.loc 1 911 19 view .LVU1274
ARM GAS  C:\Users\Alex\AppData\Local\Temp\ccdKwz1H.s 			page 146


 4223 00e4 2BB1     		cbz	r3, .L339
 912:Lib/lvgl/src/core/lv_obj_style.c ****                 else if(v < 128) value_final.ptr = tr->start_value.ptr;
 4224              		.loc 1 912 22 is_stmt 1 view .LVU1275
 912:Lib/lvgl/src/core/lv_obj_style.c ****                 else if(v < 128) value_final.ptr = tr->start_value.ptr;
 4225              		.loc 1 912 38 is_stmt 0 view .LVU1276
 4226 00e6 2A69     		ldr	r2, [r5, #16]
 912:Lib/lvgl/src/core/lv_obj_style.c ****                 else if(v < 128) value_final.ptr = tr->start_value.ptr;
 4227              		.loc 1 912 24 view .LVU1277
 4228 00e8 32B1     		cbz	r2, .L340
 913:Lib/lvgl/src/core/lv_obj_style.c ****                 else value_final.ptr = tr->end_value.ptr;
 4229              		.loc 1 913 22 is_stmt 1 view .LVU1278
 913:Lib/lvgl/src/core/lv_obj_style.c ****                 else value_final.ptr = tr->end_value.ptr;
 4230              		.loc 1 913 24 is_stmt 0 view .LVU1279
 4231 00ea 7F29     		cmp	r1, #127
 4232 00ec 06DC     		bgt	.L321
 913:Lib/lvgl/src/core/lv_obj_style.c ****                 else value_final.ptr = tr->end_value.ptr;
 4233              		.loc 1 913 34 is_stmt 1 discriminator 1 view .LVU1280
 913:Lib/lvgl/src/core/lv_obj_style.c ****                 else value_final.ptr = tr->end_value.ptr;
 4234              		.loc 1 913 50 is_stmt 0 discriminator 1 view .LVU1281
 4235 00ee 0093     		str	r3, [sp]
 4236 00f0 CCE7     		b	.L317
 4237              	.L339:
 911:Lib/lvgl/src/core/lv_obj_style.c ****                 else if(tr->end_value.ptr == NULL) value_final.ptr = tr->start_value.ptr;
 4238              		.loc 1 911 49 is_stmt 1 discriminator 1 view .LVU1282
 911:Lib/lvgl/src/core/lv_obj_style.c ****                 else if(tr->end_value.ptr == NULL) value_final.ptr = tr->start_value.ptr;
 4239              		.loc 1 911 80 is_stmt 0 discriminator 1 view .LVU1283
 4240 00f2 2B69     		ldr	r3, [r5, #16]
 911:Lib/lvgl/src/core/lv_obj_style.c ****                 else if(tr->end_value.ptr == NULL) value_final.ptr = tr->start_value.ptr;
 4241              		.loc 1 911 65 discriminator 1 view .LVU1284
 4242 00f4 0093     		str	r3, [sp]
 4243 00f6 C9E7     		b	.L317
 4244              	.L340:
 912:Lib/lvgl/src/core/lv_obj_style.c ****                 else if(v < 128) value_final.ptr = tr->start_value.ptr;
 4245              		.loc 1 912 52 is_stmt 1 discriminator 1 view .LVU1285
 912:Lib/lvgl/src/core/lv_obj_style.c ****                 else if(v < 128) value_final.ptr = tr->start_value.ptr;
 4246              		.loc 1 912 68 is_stmt 0 discriminator 1 view .LVU1286
 4247 00f8 0093     		str	r3, [sp]
 4248 00fa C7E7     		b	.L317
 4249              	.L321:
 914:Lib/lvgl/src/core/lv_obj_style.c ****                 break;
 4250              		.loc 1 914 22 is_stmt 1 view .LVU1287
 914:Lib/lvgl/src/core/lv_obj_style.c ****                 break;
 4251              		.loc 1 914 38 is_stmt 0 view .LVU1288
 4252 00fc 0092     		str	r2, [sp]
 4253 00fe C5E7     		b	.L317
 4254              	.L314:
 923:Lib/lvgl/src/core/lv_obj_style.c ****                 else if(v >= 255) value_final.color = tr->end_value.color;
 4255              		.loc 1 923 17 is_stmt 1 view .LVU1289
 923:Lib/lvgl/src/core/lv_obj_style.c ****                 else if(v >= 255) value_final.color = tr->end_value.color;
 4256              		.loc 1 923 19 is_stmt 0 view .LVU1290
 4257 0100 0029     		cmp	r1, #0
 4258 0102 08DD     		ble	.L341
 924:Lib/lvgl/src/core/lv_obj_style.c ****                 else value_final.color = lv_color_mix(tr->end_value.color, tr->start_value.color, v
 4259              		.loc 1 924 22 is_stmt 1 view .LVU1291
 924:Lib/lvgl/src/core/lv_obj_style.c ****                 else value_final.color = lv_color_mix(tr->end_value.color, tr->start_value.color, v
 4260              		.loc 1 924 24 is_stmt 0 view .LVU1292
 4261 0104 FE29     		cmp	r1, #254
ARM GAS  C:\Users\Alex\AppData\Local\Temp\ccdKwz1H.s 			page 147


 4262 0106 0DDD     		ble	.L323
 924:Lib/lvgl/src/core/lv_obj_style.c ****                 else value_final.color = lv_color_mix(tr->end_value.color, tr->start_value.color, v
 4263              		.loc 1 924 35 is_stmt 1 discriminator 1 view .LVU1293
 924:Lib/lvgl/src/core/lv_obj_style.c ****                 else value_final.color = lv_color_mix(tr->end_value.color, tr->start_value.color, v
 4264              		.loc 1 924 53 is_stmt 0 discriminator 1 view .LVU1294
 4265 0108 2B69     		ldr	r3, [r5, #16]
 4266 010a ADF80030 		strh	r3, [sp]	@ movhi
 4267 010e 1B0C     		lsrs	r3, r3, #16
 4268 0110 8DF80230 		strb	r3, [sp, #2]
 4269 0114 BAE7     		b	.L317
 4270              	.L341:
 923:Lib/lvgl/src/core/lv_obj_style.c ****                 else if(v >= 255) value_final.color = tr->end_value.color;
 4271              		.loc 1 923 28 is_stmt 1 discriminator 1 view .LVU1295
 923:Lib/lvgl/src/core/lv_obj_style.c ****                 else if(v >= 255) value_final.color = tr->end_value.color;
 4272              		.loc 1 923 46 is_stmt 0 discriminator 1 view .LVU1296
 4273 0116 EB68     		ldr	r3, [r5, #12]
 4274 0118 ADF80030 		strh	r3, [sp]	@ movhi
 4275 011c 1B0C     		lsrs	r3, r3, #16
 4276 011e 8DF80230 		strb	r3, [sp, #2]
 4277 0122 B3E7     		b	.L317
 4278              	.L323:
 925:Lib/lvgl/src/core/lv_obj_style.c ****                 break;
 4279              		.loc 1 925 22 is_stmt 1 view .LVU1297
 925:Lib/lvgl/src/core/lv_obj_style.c ****                 break;
 4280              		.loc 1 925 42 is_stmt 0 view .LVU1298
 4281 0124 CAB2     		uxtb	r2, r1
 4282 0126 E968     		ldr	r1, [r5, #12]
 4283              	.LVL393:
 925:Lib/lvgl/src/core/lv_obj_style.c ****                 break;
 4284              		.loc 1 925 42 view .LVU1299
 4285 0128 2869     		ldr	r0, [r5, #16]
 4286 012a FFF7FEFF 		bl	lv_color_mix
 4287              	.LVL394:
 4288 012e 8DF80000 		strb	r0, [sp]
 4289 0132 C0F30723 		ubfx	r3, r0, #8, #8
 4290 0136 8DF80130 		strb	r3, [sp, #1]
 4291 013a C0F30740 		ubfx	r0, r0, #16, #8
 4292 013e 8DF80200 		strb	r0, [sp, #2]
 4293 0142 A3E7     		b	.L317
 4294              	.LVL395:
 4295              	.L324:
 930:Lib/lvgl/src/core/lv_obj_style.c ****                 else value_final.num = tr->start_value.num + ((int32_t)((int32_t)(tr->end_value.num
 4296              		.loc 1 930 22 is_stmt 1 view .LVU1300
 930:Lib/lvgl/src/core/lv_obj_style.c ****                 else value_final.num = tr->start_value.num + ((int32_t)((int32_t)(tr->end_value.num
 4297              		.loc 1 930 24 is_stmt 0 view .LVU1301
 4298 0144 FF29     		cmp	r1, #255
 4299 0146 08D0     		beq	.L342
 931:Lib/lvgl/src/core/lv_obj_style.c ****                 break;
 4300              		.loc 1 931 22 is_stmt 1 view .LVU1302
 931:Lib/lvgl/src/core/lv_obj_style.c ****                 break;
 4301              		.loc 1 931 55 is_stmt 0 view .LVU1303
 4302 0148 EA68     		ldr	r2, [r5, #12]
 931:Lib/lvgl/src/core/lv_obj_style.c ****                 break;
 4303              		.loc 1 931 96 view .LVU1304
 4304 014a 2B69     		ldr	r3, [r5, #16]
 931:Lib/lvgl/src/core/lv_obj_style.c ****                 break;
 4305              		.loc 1 931 101 view .LVU1305
ARM GAS  C:\Users\Alex\AppData\Local\Temp\ccdKwz1H.s 			page 148


 4306 014c 9B1A     		subs	r3, r3, r2
 931:Lib/lvgl/src/core/lv_obj_style.c ****                 break;
 4307              		.loc 1 931 63 view .LVU1306
 4308 014e 01FB03F3 		mul	r3, r1, r3
 931:Lib/lvgl/src/core/lv_obj_style.c ****                 break;
 4309              		.loc 1 931 60 view .LVU1307
 4310 0152 02EB2322 		add	r2, r2, r3, asr #8
 931:Lib/lvgl/src/core/lv_obj_style.c ****                 break;
 4311              		.loc 1 931 38 view .LVU1308
 4312 0156 0092     		str	r2, [sp]
 4313 0158 98E7     		b	.L317
 4314              	.L342:
 930:Lib/lvgl/src/core/lv_obj_style.c ****                 else value_final.num = tr->start_value.num + ((int32_t)((int32_t)(tr->end_value.num
 4315              		.loc 1 930 35 is_stmt 1 discriminator 1 view .LVU1309
 930:Lib/lvgl/src/core/lv_obj_style.c ****                 else value_final.num = tr->start_value.num + ((int32_t)((int32_t)(tr->end_value.num
 4316              		.loc 1 930 66 is_stmt 0 discriminator 1 view .LVU1310
 4317 015a 2B69     		ldr	r3, [r5, #16]
 930:Lib/lvgl/src/core/lv_obj_style.c ****                 else value_final.num = tr->start_value.num + ((int32_t)((int32_t)(tr->end_value.num
 4318              		.loc 1 930 51 discriminator 1 view .LVU1311
 4319 015c 0093     		str	r3, [sp]
 4320 015e 95E7     		b	.L317
 4321              	.LVL396:
 4322              	.L338:
 938:Lib/lvgl/src/core/lv_obj_style.c ****                value_final.num == old_value.num) {
 4323              		.loc 1 938 52 discriminator 1 view .LVU1312
 4324 0160 3946     		mov	r1, r7
 4325 0162 4846     		mov	r0, r9
 4326 0164 FFF7FEFF 		bl	lv_color_eq
 4327              	.LVL397:
 938:Lib/lvgl/src/core/lv_obj_style.c ****                value_final.num == old_value.num) {
 4328              		.loc 1 938 49 discriminator 1 view .LVU1313
 4329 0168 0446     		mov	r4, r0
 4330 016a 78B1     		cbz	r0, .L332
 938:Lib/lvgl/src/core/lv_obj_style.c ****                value_final.num == old_value.num) {
 4331              		.loc 1 938 100 discriminator 2 view .LVU1314
 4332 016c B945     		cmp	r9, r7
 4333 016e 02D1     		bne	.L326
 940:Lib/lvgl/src/core/lv_obj_style.c ****             }
 4334              		.loc 1 940 22 view .LVU1315
 4335 0170 0024     		movs	r4, #0
 4336 0172 00E0     		b	.L326
 4337              	.L330:
 936:Lib/lvgl/src/core/lv_obj_style.c ****         if(lv_style_get_prop(obj->styles[i].style, tr->prop, &old_value)) {
 4338              		.loc 1 936 14 view .LVU1316
 4339 0174 0124     		movs	r4, #1
 4340              	.L326:
 4341              	.LVL398:
 943:Lib/lvgl/src/core/lv_obj_style.c ****         if(refr) lv_obj_refresh_style(tr->obj, tr->selector, tr->prop);
 4342              		.loc 1 943 9 is_stmt 1 view .LVU1317
 943:Lib/lvgl/src/core/lv_obj_style.c ****         if(refr) lv_obj_refresh_style(tr->obj, tr->selector, tr->prop);
 4343              		.loc 1 943 44 is_stmt 0 view .LVU1318
 4344 0176 F368     		ldr	r3, [r6, #12]
 943:Lib/lvgl/src/core/lv_obj_style.c ****         if(refr) lv_obj_refresh_style(tr->obj, tr->selector, tr->prop);
 4345              		.loc 1 943 9 view .LVU1319
 4346 0178 009A     		ldr	r2, [sp]
 4347 017a 2979     		ldrb	r1, [r5, #4]	@ zero_extendqisi2
 4348 017c 53F80800 		ldr	r0, [r3, r8]
ARM GAS  C:\Users\Alex\AppData\Local\Temp\ccdKwz1H.s 			page 149


 4349 0180 FFF7FEFF 		bl	lv_style_set_prop
 4350              	.LVL399:
 944:Lib/lvgl/src/core/lv_obj_style.c ****         break;
 4351              		.loc 1 944 9 is_stmt 1 view .LVU1320
 944:Lib/lvgl/src/core/lv_obj_style.c ****         break;
 4352              		.loc 1 944 11 is_stmt 0 view .LVU1321
 4353 0184 24B9     		cbnz	r4, .L343
 4354              	.LVL400:
 4355              	.L302:
 944:Lib/lvgl/src/core/lv_obj_style.c ****         break;
 4356              		.loc 1 944 11 view .LVU1322
 4357              	.LBE288:
 949:Lib/lvgl/src/core/lv_obj_style.c **** 
 4358              		.loc 1 949 1 view .LVU1323
 4359 0186 03B0     		add	sp, sp, #12
 4360              	.LCFI46:
 4361              		.cfi_remember_state
 4362              		.cfi_def_cfa_offset 28
 4363              		@ sp needed
 4364 0188 BDE8F083 		pop	{r4, r5, r6, r7, r8, r9, pc}
 4365              	.LVL401:
 4366              	.L332:
 4367              	.LCFI47:
 4368              		.cfi_restore_state
 4369              	.LBB289:
 936:Lib/lvgl/src/core/lv_obj_style.c ****         if(lv_style_get_prop(obj->styles[i].style, tr->prop, &old_value)) {
 4370              		.loc 1 936 14 view .LVU1324
 4371 018c 0124     		movs	r4, #1
 4372 018e F2E7     		b	.L326
 4373              	.LVL402:
 4374              	.L343:
 944:Lib/lvgl/src/core/lv_obj_style.c ****         break;
 4375              		.loc 1 944 18 is_stmt 1 discriminator 1 view .LVU1325
 4376 0190 2A79     		ldrb	r2, [r5, #4]	@ zero_extendqisi2
 4377 0192 A968     		ldr	r1, [r5, #8]
 4378 0194 2868     		ldr	r0, [r5]
 4379 0196 FFF7FEFF 		bl	lv_obj_refresh_style
 4380              	.LVL403:
 945:Lib/lvgl/src/core/lv_obj_style.c **** 
 4381              		.loc 1 945 9 discriminator 1 view .LVU1326
 4382 019a F4E7     		b	.L302
 4383              	.L345:
 4384              		.align	2
 4385              	.L344:
 4386 019c 81002020 		.word	538968193
 4387 01a0 01010008 		.word	134217985
 4388              	.LBE289:
 4389              		.cfi_endproc
 4390              	.LFE262:
 4392              		.section	.text.trans_anim_start_cb,"ax",%progbits
 4393              		.align	1
 4394              		.syntax unified
 4395              		.thumb
 4396              		.thumb_func
 4398              	trans_anim_start_cb:
 4399              	.LVL404:
 4400              	.LFB263:
ARM GAS  C:\Users\Alex\AppData\Local\Temp\ccdKwz1H.s 			page 150


 952:Lib/lvgl/src/core/lv_obj_style.c ****     trans_t * tr = a->var;
 4401              		.loc 1 952 1 view -0
 4402              		.cfi_startproc
 4403              		@ args = 0, pretend = 0, frame = 0
 4404              		@ frame_needed = 0, uses_anonymous_args = 0
 952:Lib/lvgl/src/core/lv_obj_style.c ****     trans_t * tr = a->var;
 4405              		.loc 1 952 1 is_stmt 0 view .LVU1328
 4406 0000 70B5     		push	{r4, r5, r6, lr}
 4407              	.LCFI48:
 4408              		.cfi_def_cfa_offset 16
 4409              		.cfi_offset 4, -16
 4410              		.cfi_offset 5, -12
 4411              		.cfi_offset 6, -8
 4412              		.cfi_offset 14, -4
 953:Lib/lvgl/src/core/lv_obj_style.c **** 
 4413              		.loc 1 953 5 is_stmt 1 view .LVU1329
 953:Lib/lvgl/src/core/lv_obj_style.c **** 
 4414              		.loc 1 953 15 is_stmt 0 view .LVU1330
 4415 0002 0468     		ldr	r4, [r0]
 4416              	.LVL405:
 955:Lib/lvgl/src/core/lv_obj_style.c ****     tr->start_value = lv_obj_get_style_prop(tr->obj, part, tr->prop);
 4417              		.loc 1 955 5 is_stmt 1 view .LVU1331
 955:Lib/lvgl/src/core/lv_obj_style.c ****     tr->start_value = lv_obj_get_style_prop(tr->obj, part, tr->prop);
 4418              		.loc 1 955 22 is_stmt 0 view .LVU1332
 4419 0004 A568     		ldr	r5, [r4, #8]
 4420              	.LVL406:
 4421              	.LBB290:
 4422              	.LBI290:
 234:Lib/lvgl/src/core/lv_obj_style.h **** {
 4423              		.loc 5 234 25 is_stmt 1 view .LVU1333
 4424              	.LBB291:
 4425              		.loc 5 236 5 view .LVU1334
 4426              		.loc 5 236 21 is_stmt 0 view .LVU1335
 4427 0006 05F47F05 		and	r5, r5, #16711680
 4428              	.LVL407:
 4429              		.loc 5 236 21 view .LVU1336
 4430              	.LBE291:
 4431              	.LBE290:
 956:Lib/lvgl/src/core/lv_obj_style.c **** 
 4432              		.loc 1 956 5 is_stmt 1 view .LVU1337
 956:Lib/lvgl/src/core/lv_obj_style.c **** 
 4433              		.loc 1 956 23 is_stmt 0 view .LVU1338
 4434 000a 2279     		ldrb	r2, [r4, #4]	@ zero_extendqisi2
 4435 000c 2946     		mov	r1, r5
 4436 000e 2068     		ldr	r0, [r4]
 4437              	.LVL408:
 956:Lib/lvgl/src/core/lv_obj_style.c **** 
 4438              		.loc 1 956 23 view .LVU1339
 4439 0010 FFF7FEFF 		bl	lv_obj_get_style_prop
 4440              	.LVL409:
 4441 0014 E060     		str	r0, [r4, #12]
 959:Lib/lvgl/src/core/lv_obj_style.c ****     tr->prop = LV_STYLE_PROP_INV;
 4442              		.loc 1 959 5 is_stmt 1 view .LVU1340
 959:Lib/lvgl/src/core/lv_obj_style.c ****     tr->prop = LV_STYLE_PROP_INV;
 4443              		.loc 1 959 21 is_stmt 0 view .LVU1341
 4444 0016 2679     		ldrb	r6, [r4, #4]	@ zero_extendqisi2
 4445              	.LVL410:
ARM GAS  C:\Users\Alex\AppData\Local\Temp\ccdKwz1H.s 			page 151


 960:Lib/lvgl/src/core/lv_obj_style.c **** 
 4446              		.loc 1 960 5 is_stmt 1 view .LVU1342
 960:Lib/lvgl/src/core/lv_obj_style.c **** 
 4447              		.loc 1 960 14 is_stmt 0 view .LVU1343
 4448 0018 0023     		movs	r3, #0
 4449 001a 2371     		strb	r3, [r4, #4]
 963:Lib/lvgl/src/core/lv_obj_style.c **** 
 4450              		.loc 1 963 5 is_stmt 1 view .LVU1344
 4451 001c 2346     		mov	r3, r4
 4452 001e 3246     		mov	r2, r6
 4453 0020 2946     		mov	r1, r5
 4454 0022 2068     		ldr	r0, [r4]
 4455 0024 FFF7FEFF 		bl	trans_delete
 4456              	.LVL411:
 965:Lib/lvgl/src/core/lv_obj_style.c **** 
 4457              		.loc 1 965 5 view .LVU1345
 965:Lib/lvgl/src/core/lv_obj_style.c **** 
 4458              		.loc 1 965 14 is_stmt 0 view .LVU1346
 4459 0028 2671     		strb	r6, [r4, #4]
 967:Lib/lvgl/src/core/lv_obj_style.c ****     lv_style_set_prop((lv_style_t *)style_trans->style, tr->prop,
 4460              		.loc 1 967 5 is_stmt 1 view .LVU1347
 967:Lib/lvgl/src/core/lv_obj_style.c ****     lv_style_set_prop((lv_style_t *)style_trans->style, tr->prop,
 4461              		.loc 1 967 37 is_stmt 0 view .LVU1348
 4462 002a A168     		ldr	r1, [r4, #8]
 4463 002c 2068     		ldr	r0, [r4]
 4464 002e FFF7FEFF 		bl	get_trans_style
 4465              	.LVL412:
 968:Lib/lvgl/src/core/lv_obj_style.c ****                       tr->start_value);  /*Be sure `trans_style` has a valid value*/
 4466              		.loc 1 968 5 is_stmt 1 view .LVU1349
 4467 0032 E268     		ldr	r2, [r4, #12]
 4468 0034 2179     		ldrb	r1, [r4, #4]	@ zero_extendqisi2
 4469 0036 0068     		ldr	r0, [r0]
 4470              	.LVL413:
 968:Lib/lvgl/src/core/lv_obj_style.c ****                       tr->start_value);  /*Be sure `trans_style` has a valid value*/
 4471              		.loc 1 968 5 is_stmt 0 view .LVU1350
 4472 0038 FFF7FEFF 		bl	lv_style_set_prop
 4473              	.LVL414:
 971:Lib/lvgl/src/core/lv_obj_style.c **** 
 4474              		.loc 1 971 1 view .LVU1351
 4475 003c 70BD     		pop	{r4, r5, r6, pc}
 971:Lib/lvgl/src/core/lv_obj_style.c **** 
 4476              		.loc 1 971 1 view .LVU1352
 4477              		.cfi_endproc
 4478              	.LFE263:
 4480              		.section	.text.lv_obj_has_style_prop,"ax",%progbits
 4481              		.align	1
 4482              		.global	lv_obj_has_style_prop
 4483              		.syntax unified
 4484              		.thumb
 4485              		.thumb_func
 4487              	lv_obj_has_style_prop:
 4488              	.LVL415:
 4489              	.LFB245:
 407:Lib/lvgl/src/core/lv_obj_style.c ****     LV_ASSERT_NULL(obj)
 4490              		.loc 1 407 1 is_stmt 1 view -0
 4491              		.cfi_startproc
 4492              		@ args = 0, pretend = 0, frame = 8
ARM GAS  C:\Users\Alex\AppData\Local\Temp\ccdKwz1H.s 			page 152


 4493              		@ frame_needed = 0, uses_anonymous_args = 0
 408:Lib/lvgl/src/core/lv_obj_style.c **** 
 4494              		.loc 1 408 5 view .LVU1354
 408:Lib/lvgl/src/core/lv_obj_style.c **** 
 4495              		.loc 1 408 5 view .LVU1355
 4496 0000 60B1     		cbz	r0, .L350
 407:Lib/lvgl/src/core/lv_obj_style.c ****     LV_ASSERT_NULL(obj)
 4497              		.loc 1 407 1 is_stmt 0 discriminator 2 view .LVU1356
 4498 0002 00B5     		push	{lr}
 4499              	.LCFI49:
 4500              		.cfi_def_cfa_offset 4
 4501              		.cfi_offset 14, -4
 4502 0004 83B0     		sub	sp, sp, #12
 4503              	.LCFI50:
 4504              		.cfi_def_cfa_offset 16
 408:Lib/lvgl/src/core/lv_obj_style.c **** 
 4505              		.loc 1 408 5 is_stmt 1 discriminator 2 view .LVU1357
 410:Lib/lvgl/src/core/lv_obj_style.c ****     lv_style_res_t found;
 4506              		.loc 1 410 5 discriminator 2 view .LVU1358
 410:Lib/lvgl/src/core/lv_obj_style.c ****     lv_style_res_t found;
 4507              		.loc 1 410 22 is_stmt 0 discriminator 2 view .LVU1359
 4508 0006 0023     		movs	r3, #0
 4509 0008 0193     		str	r3, [sp, #4]
 411:Lib/lvgl/src/core/lv_obj_style.c **** 
 4510              		.loc 1 411 5 is_stmt 1 discriminator 2 view .LVU1360
 413:Lib/lvgl/src/core/lv_obj_style.c ****     if(found == LV_STYLE_RES_FOUND) return true;
 4511              		.loc 1 413 5 discriminator 2 view .LVU1361
 413:Lib/lvgl/src/core/lv_obj_style.c ****     if(found == LV_STYLE_RES_FOUND) return true;
 4512              		.loc 1 413 13 is_stmt 0 discriminator 2 view .LVU1362
 4513 000a 01AB     		add	r3, sp, #4
 4514 000c FFF7FEFF 		bl	get_selector_style_prop
 4515              	.LVL416:
 414:Lib/lvgl/src/core/lv_obj_style.c **** 
 4516              		.loc 1 414 5 is_stmt 1 discriminator 2 view .LVU1363
 414:Lib/lvgl/src/core/lv_obj_style.c **** 
 4517              		.loc 1 414 7 is_stmt 0 discriminator 2 view .LVU1364
 4518 0010 0128     		cmp	r0, #1
 4519 0012 04D0     		beq	.L352
 416:Lib/lvgl/src/core/lv_obj_style.c **** }
 4520              		.loc 1 416 12 view .LVU1365
 4521 0014 0020     		movs	r0, #0
 4522              	.LVL417:
 4523              	.L351:
 417:Lib/lvgl/src/core/lv_obj_style.c **** 
 4524              		.loc 1 417 1 view .LVU1366
 4525 0016 03B0     		add	sp, sp, #12
 4526              	.LCFI51:
 4527              		.cfi_def_cfa_offset 4
 4528              		@ sp needed
 4529 0018 5DF804FB 		ldr	pc, [sp], #4
 4530              	.LVL418:
 4531              	.L350:
 4532              	.LCFI52:
 4533              		.cfi_def_cfa_offset 0
 4534              		.cfi_restore 14
 408:Lib/lvgl/src/core/lv_obj_style.c **** 
 4535              		.loc 1 408 5 is_stmt 1 discriminator 1 view .LVU1367
ARM GAS  C:\Users\Alex\AppData\Local\Temp\ccdKwz1H.s 			page 153


 408:Lib/lvgl/src/core/lv_obj_style.c **** 
 4536              		.loc 1 408 5 discriminator 1 view .LVU1368
 408:Lib/lvgl/src/core/lv_obj_style.c **** 
 4537              		.loc 1 408 5 discriminator 1 view .LVU1369
 408:Lib/lvgl/src/core/lv_obj_style.c **** 
 4538              		.loc 1 408 5 discriminator 1 view .LVU1370
 408:Lib/lvgl/src/core/lv_obj_style.c **** 
 4539              		.loc 1 408 5 discriminator 1 view .LVU1371
 4540 001c FEE7     		b	.L350
 4541              	.LVL419:
 4542              	.L352:
 4543              	.LCFI53:
 4544              		.cfi_def_cfa_offset 16
 4545              		.cfi_offset 14, -4
 414:Lib/lvgl/src/core/lv_obj_style.c **** 
 4546              		.loc 1 414 44 is_stmt 0 view .LVU1372
 4547 001e 0120     		movs	r0, #1
 4548              	.LVL420:
 414:Lib/lvgl/src/core/lv_obj_style.c **** 
 4549              		.loc 1 414 44 view .LVU1373
 4550 0020 F9E7     		b	.L351
 4551              		.cfi_endproc
 4552              	.LFE245:
 4554              		.section	.text.lv_obj_set_local_style_prop,"ax",%progbits
 4555              		.align	1
 4556              		.global	lv_obj_set_local_style_prop
 4557              		.syntax unified
 4558              		.thumb
 4559              		.thumb_func
 4561              	lv_obj_set_local_style_prop:
 4562              	.LVL421:
 4563              	.LFB246:
 421:Lib/lvgl/src/core/lv_obj_style.c ****     lv_style_t * style = get_local_style(obj, selector);
 4564              		.loc 1 421 1 is_stmt 1 view -0
 4565              		.cfi_startproc
 4566              		@ args = 0, pretend = 0, frame = 8
 4567              		@ frame_needed = 0, uses_anonymous_args = 0
 421:Lib/lvgl/src/core/lv_obj_style.c ****     lv_style_t * style = get_local_style(obj, selector);
 4568              		.loc 1 421 1 is_stmt 0 view .LVU1375
 4569 0000 F0B5     		push	{r4, r5, r6, r7, lr}
 4570              	.LCFI54:
 4571              		.cfi_def_cfa_offset 20
 4572              		.cfi_offset 4, -20
 4573              		.cfi_offset 5, -16
 4574              		.cfi_offset 6, -12
 4575              		.cfi_offset 7, -8
 4576              		.cfi_offset 14, -4
 4577 0002 83B0     		sub	sp, sp, #12
 4578              	.LCFI55:
 4579              		.cfi_def_cfa_offset 32
 4580 0004 0646     		mov	r6, r0
 4581 0006 0D46     		mov	r5, r1
 4582 0008 0192     		str	r2, [sp, #4]
 4583 000a 1C46     		mov	r4, r3
 422:Lib/lvgl/src/core/lv_obj_style.c ****     if(selector == LV_PART_MAIN && lv_style_prop_has_flag(prop, LV_STYLE_PROP_FLAG_TRANSFORM)) {
 4584              		.loc 1 422 5 is_stmt 1 view .LVU1376
 422:Lib/lvgl/src/core/lv_obj_style.c ****     if(selector == LV_PART_MAIN && lv_style_prop_has_flag(prop, LV_STYLE_PROP_FLAG_TRANSFORM)) {
ARM GAS  C:\Users\Alex\AppData\Local\Temp\ccdKwz1H.s 			page 154


 4585              		.loc 1 422 26 is_stmt 0 view .LVU1377
 4586 000c 1946     		mov	r1, r3
 4587              	.LVL422:
 422:Lib/lvgl/src/core/lv_obj_style.c ****     if(selector == LV_PART_MAIN && lv_style_prop_has_flag(prop, LV_STYLE_PROP_FLAG_TRANSFORM)) {
 4588              		.loc 1 422 26 view .LVU1378
 4589 000e FFF7FEFF 		bl	get_local_style
 4590              	.LVL423:
 422:Lib/lvgl/src/core/lv_obj_style.c ****     if(selector == LV_PART_MAIN && lv_style_prop_has_flag(prop, LV_STYLE_PROP_FLAG_TRANSFORM)) {
 4591              		.loc 1 422 26 view .LVU1379
 4592 0012 0746     		mov	r7, r0
 4593              	.LVL424:
 423:Lib/lvgl/src/core/lv_obj_style.c ****         lv_obj_invalidate(obj);
 4594              		.loc 1 423 5 is_stmt 1 view .LVU1380
 423:Lib/lvgl/src/core/lv_obj_style.c ****         lv_obj_invalidate(obj);
 4595              		.loc 1 423 7 is_stmt 0 view .LVU1381
 4596 0014 5CB1     		cbz	r4, .L358
 4597              	.LVL425:
 4598              	.L356:
 427:Lib/lvgl/src/core/lv_obj_style.c **** 
 4599              		.loc 1 427 5 is_stmt 1 view .LVU1382
 4600 0016 019A     		ldr	r2, [sp, #4]
 4601 0018 2946     		mov	r1, r5
 4602 001a 3846     		mov	r0, r7
 4603 001c FFF7FEFF 		bl	lv_style_set_prop
 4604              	.LVL426:
 439:Lib/lvgl/src/core/lv_obj_style.c **** }
 4605              		.loc 1 439 5 view .LVU1383
 4606 0020 2A46     		mov	r2, r5
 4607 0022 2146     		mov	r1, r4
 4608 0024 3046     		mov	r0, r6
 4609 0026 FFF7FEFF 		bl	lv_obj_refresh_style
 4610              	.LVL427:
 440:Lib/lvgl/src/core/lv_obj_style.c **** 
 4611              		.loc 1 440 1 is_stmt 0 view .LVU1384
 4612 002a 03B0     		add	sp, sp, #12
 4613              	.LCFI56:
 4614              		.cfi_remember_state
 4615              		.cfi_def_cfa_offset 20
 4616              		@ sp needed
 4617 002c F0BD     		pop	{r4, r5, r6, r7, pc}
 4618              	.LVL428:
 4619              	.L358:
 4620              	.LCFI57:
 4621              		.cfi_restore_state
 4622              	.LBB292:
 4623              	.LBI292:
 600:Lib/lvgl/src/core/../misc/lv_style.h **** {
 4624              		.loc 4 600 20 is_stmt 1 view .LVU1385
 4625              	.LBB293:
 4626              		.loc 4 602 5 view .LVU1386
 4627              		.loc 4 602 12 is_stmt 0 view .LVU1387
 4628 002e 2846     		mov	r0, r5
 4629              	.LVL429:
 4630              		.loc 4 602 12 view .LVU1388
 4631 0030 FFF7FEFF 		bl	_lv_style_prop_lookup_flags
 4632              	.LVL430:
 4633              		.loc 4 602 12 view .LVU1389
ARM GAS  C:\Users\Alex\AppData\Local\Temp\ccdKwz1H.s 			page 155


 4634              	.LBE293:
 4635              	.LBE292:
 423:Lib/lvgl/src/core/lv_obj_style.c ****         lv_obj_invalidate(obj);
 4636              		.loc 1 423 33 view .LVU1390
 4637 0034 10F0200F 		tst	r0, #32
 4638 0038 EDD0     		beq	.L356
 424:Lib/lvgl/src/core/lv_obj_style.c ****     }
 4639              		.loc 1 424 9 is_stmt 1 view .LVU1391
 4640 003a 3046     		mov	r0, r6
 4641 003c FFF7FEFF 		bl	lv_obj_invalidate
 4642              	.LVL431:
 4643 0040 E9E7     		b	.L356
 4644              		.cfi_endproc
 4645              	.LFE246:
 4647              		.section	.text.lv_obj_get_local_style_prop,"ax",%progbits
 4648              		.align	1
 4649              		.global	lv_obj_get_local_style_prop
 4650              		.syntax unified
 4651              		.thumb
 4652              		.thumb_func
 4654              	lv_obj_get_local_style_prop:
 4655              	.LVL432:
 4656              	.LFB247:
 444:Lib/lvgl/src/core/lv_obj_style.c ****     uint32_t i;
 4657              		.loc 1 444 1 view -0
 4658              		.cfi_startproc
 4659              		@ args = 0, pretend = 0, frame = 0
 4660              		@ frame_needed = 0, uses_anonymous_args = 0
 444:Lib/lvgl/src/core/lv_obj_style.c ****     uint32_t i;
 4661              		.loc 1 444 1 is_stmt 0 view .LVU1393
 4662 0000 70B5     		push	{r4, r5, r6, lr}
 4663              	.LCFI58:
 4664              		.cfi_def_cfa_offset 16
 4665              		.cfi_offset 4, -16
 4666              		.cfi_offset 5, -12
 4667              		.cfi_offset 6, -8
 4668              		.cfi_offset 14, -4
 445:Lib/lvgl/src/core/lv_obj_style.c ****     for(i = 0; i < obj->style_cnt; i++) {
 4669              		.loc 1 445 5 is_stmt 1 view .LVU1394
 446:Lib/lvgl/src/core/lv_obj_style.c ****         if(obj->styles[i].is_local &&
 4670              		.loc 1 446 5 view .LVU1395
 4671              	.LVL433:
 446:Lib/lvgl/src/core/lv_obj_style.c ****         if(obj->styles[i].is_local &&
 4672              		.loc 1 446 11 is_stmt 0 view .LVU1396
 4673 0002 4FF0000C 		mov	ip, #0
 446:Lib/lvgl/src/core/lv_obj_style.c ****         if(obj->styles[i].is_local &&
 4674              		.loc 1 446 5 view .LVU1397
 4675 0006 01E0     		b	.L360
 4676              	.LVL434:
 4677              	.L361:
 446:Lib/lvgl/src/core/lv_obj_style.c ****         if(obj->styles[i].is_local &&
 4678              		.loc 1 446 37 is_stmt 1 discriminator 2 view .LVU1398
 4679 0008 0CF1010C 		add	ip, ip, #1
 4680              	.LVL435:
 4681              	.L360:
 446:Lib/lvgl/src/core/lv_obj_style.c ****         if(obj->styles[i].is_local &&
 4682              		.loc 1 446 18 discriminator 1 view .LVU1399
ARM GAS  C:\Users\Alex\AppData\Local\Temp\ccdKwz1H.s 			page 156


 446:Lib/lvgl/src/core/lv_obj_style.c ****         if(obj->styles[i].is_local &&
 4683              		.loc 1 446 23 is_stmt 0 discriminator 1 view .LVU1400
 4684 000c B0F82AE0 		ldrh	lr, [r0, #42]
 4685 0010 CEF3051E 		ubfx	lr, lr, #4, #6
 446:Lib/lvgl/src/core/lv_obj_style.c ****         if(obj->styles[i].is_local &&
 4686              		.loc 1 446 18 discriminator 1 view .LVU1401
 4687 0014 E645     		cmp	lr, ip
 4688 0016 13D9     		bls	.L365
 447:Lib/lvgl/src/core/lv_obj_style.c ****            obj->styles[i].selector == selector) {
 4689              		.loc 1 447 9 is_stmt 1 view .LVU1402
 447:Lib/lvgl/src/core/lv_obj_style.c ****            obj->styles[i].selector == selector) {
 4690              		.loc 1 447 15 is_stmt 0 view .LVU1403
 4691 0018 C468     		ldr	r4, [r0, #12]
 447:Lib/lvgl/src/core/lv_obj_style.c ****            obj->styles[i].selector == selector) {
 4692              		.loc 1 447 23 view .LVU1404
 4693 001a 4FEACC06 		lsl	r6, ip, #3
 4694 001e 04EBCC0E 		add	lr, r4, ip, lsl #3
 447:Lib/lvgl/src/core/lv_obj_style.c ****            obj->styles[i].selector == selector) {
 4695              		.loc 1 447 12 view .LVU1405
 4696 0022 9EF80750 		ldrb	r5, [lr, #7]	@ zero_extendqisi2
 447:Lib/lvgl/src/core/lv_obj_style.c ****            obj->styles[i].selector == selector) {
 4697              		.loc 1 447 11 view .LVU1406
 4698 0026 15F0010F 		tst	r5, #1
 4699 002a EDD0     		beq	.L361
 448:Lib/lvgl/src/core/lv_obj_style.c ****             return lv_style_get_prop(obj->styles[i].style, prop, value);
 4700              		.loc 1 448 26 discriminator 1 view .LVU1407
 4701 002c DEF80450 		ldr	r5, [lr, #4]
 4702 0030 C5F31705 		ubfx	r5, r5, #0, #24
 447:Lib/lvgl/src/core/lv_obj_style.c ****            obj->styles[i].selector == selector) {
 4703              		.loc 1 447 36 discriminator 1 view .LVU1408
 4704 0034 9D42     		cmp	r5, r3
 4705 0036 E7D1     		bne	.L361
 449:Lib/lvgl/src/core/lv_obj_style.c ****         }
 4706              		.loc 1 449 13 is_stmt 1 view .LVU1409
 449:Lib/lvgl/src/core/lv_obj_style.c ****         }
 4707              		.loc 1 449 20 is_stmt 0 view .LVU1410
 4708 0038 A059     		ldr	r0, [r4, r6]
 4709              	.LVL436:
 449:Lib/lvgl/src/core/lv_obj_style.c ****         }
 4710              		.loc 1 449 20 view .LVU1411
 4711 003a FFF7FEFF 		bl	lv_style_get_prop
 4712              	.LVL437:
 449:Lib/lvgl/src/core/lv_obj_style.c ****         }
 4713              		.loc 1 449 20 view .LVU1412
 4714 003e 00E0     		b	.L362
 4715              	.LVL438:
 4716              	.L365:
 453:Lib/lvgl/src/core/lv_obj_style.c **** }
 4717              		.loc 1 453 12 view .LVU1413
 4718 0040 0020     		movs	r0, #0
 4719              	.LVL439:
 4720              	.L362:
 454:Lib/lvgl/src/core/lv_obj_style.c **** 
 4721              		.loc 1 454 1 view .LVU1414
 4722 0042 70BD     		pop	{r4, r5, r6, pc}
 4723              		.cfi_endproc
 4724              	.LFE247:
ARM GAS  C:\Users\Alex\AppData\Local\Temp\ccdKwz1H.s 			page 157


 4726              		.section	.text.lv_obj_remove_local_style_prop,"ax",%progbits
 4727              		.align	1
 4728              		.global	lv_obj_remove_local_style_prop
 4729              		.syntax unified
 4730              		.thumb
 4731              		.thumb_func
 4733              	lv_obj_remove_local_style_prop:
 4734              	.LVL440:
 4735              	.LFB248:
 457:Lib/lvgl/src/core/lv_obj_style.c ****     LV_ASSERT_OBJ(obj, MY_CLASS);
 4736              		.loc 1 457 1 is_stmt 1 view -0
 4737              		.cfi_startproc
 4738              		@ args = 0, pretend = 0, frame = 0
 4739              		@ frame_needed = 0, uses_anonymous_args = 0
 457:Lib/lvgl/src/core/lv_obj_style.c ****     LV_ASSERT_OBJ(obj, MY_CLASS);
 4740              		.loc 1 457 1 is_stmt 0 view .LVU1416
 4741 0000 F8B5     		push	{r3, r4, r5, r6, r7, lr}
 4742              	.LCFI59:
 4743              		.cfi_def_cfa_offset 24
 4744              		.cfi_offset 3, -24
 4745              		.cfi_offset 4, -20
 4746              		.cfi_offset 5, -16
 4747              		.cfi_offset 6, -12
 4748              		.cfi_offset 7, -8
 4749              		.cfi_offset 14, -4
 4750 0002 0446     		mov	r4, r0
 4751 0004 0E46     		mov	r6, r1
 4752 0006 1546     		mov	r5, r2
 458:Lib/lvgl/src/core/lv_obj_style.c **** 
 4753              		.loc 1 458 5 is_stmt 1 view .LVU1417
 458:Lib/lvgl/src/core/lv_obj_style.c **** 
 4754              		.loc 1 458 5 view .LVU1418
 458:Lib/lvgl/src/core/lv_obj_style.c **** 
 4755              		.loc 1 458 5 view .LVU1419
 460:Lib/lvgl/src/core/lv_obj_style.c ****     /*Find the style*/
 4756              		.loc 1 460 5 view .LVU1420
 462:Lib/lvgl/src/core/lv_obj_style.c ****         if(obj->styles[i].is_local &&
 4757              		.loc 1 462 5 view .LVU1421
 4758              	.LVL441:
 462:Lib/lvgl/src/core/lv_obj_style.c ****         if(obj->styles[i].is_local &&
 4759              		.loc 1 462 11 is_stmt 0 view .LVU1422
 4760 0008 4FF0000E 		mov	lr, #0
 462:Lib/lvgl/src/core/lv_obj_style.c ****         if(obj->styles[i].is_local &&
 4761              		.loc 1 462 5 view .LVU1423
 4762 000c 01E0     		b	.L367
 4763              	.LVL442:
 4764              	.L368:
 462:Lib/lvgl/src/core/lv_obj_style.c ****         if(obj->styles[i].is_local &&
 4765              		.loc 1 462 37 is_stmt 1 discriminator 2 view .LVU1424
 4766 000e 0EF1010E 		add	lr, lr, #1
 4767              	.LVL443:
 4768              	.L367:
 462:Lib/lvgl/src/core/lv_obj_style.c ****         if(obj->styles[i].is_local &&
 4769              		.loc 1 462 18 discriminator 1 view .LVU1425
 462:Lib/lvgl/src/core/lv_obj_style.c ****         if(obj->styles[i].is_local &&
 4770              		.loc 1 462 23 is_stmt 0 discriminator 1 view .LVU1426
 4771 0012 B4F82AC0 		ldrh	ip, [r4, #42]
ARM GAS  C:\Users\Alex\AppData\Local\Temp\ccdKwz1H.s 			page 158


 4772 0016 CCF3051C 		ubfx	ip, ip, #4, #6
 462:Lib/lvgl/src/core/lv_obj_style.c ****         if(obj->styles[i].is_local &&
 4773              		.loc 1 462 18 discriminator 1 view .LVU1427
 4774 001a F445     		cmp	ip, lr
 4775 001c 0BD9     		bls	.L369
 463:Lib/lvgl/src/core/lv_obj_style.c ****            obj->styles[i].selector == selector) {
 4776              		.loc 1 463 9 is_stmt 1 view .LVU1428
 463:Lib/lvgl/src/core/lv_obj_style.c ****            obj->styles[i].selector == selector) {
 4777              		.loc 1 463 15 is_stmt 0 view .LVU1429
 4778 001e E368     		ldr	r3, [r4, #12]
 463:Lib/lvgl/src/core/lv_obj_style.c ****            obj->styles[i].selector == selector) {
 4779              		.loc 1 463 23 view .LVU1430
 4780 0020 03EBCE03 		add	r3, r3, lr, lsl #3
 463:Lib/lvgl/src/core/lv_obj_style.c ****            obj->styles[i].selector == selector) {
 4781              		.loc 1 463 12 view .LVU1431
 4782 0024 DA79     		ldrb	r2, [r3, #7]	@ zero_extendqisi2
 463:Lib/lvgl/src/core/lv_obj_style.c ****            obj->styles[i].selector == selector) {
 4783              		.loc 1 463 11 view .LVU1432
 4784 0026 12F0010F 		tst	r2, #1
 4785 002a F0D0     		beq	.L368
 464:Lib/lvgl/src/core/lv_obj_style.c ****             break;
 4786              		.loc 1 464 26 discriminator 1 view .LVU1433
 4787 002c 5B68     		ldr	r3, [r3, #4]
 4788 002e C3F31703 		ubfx	r3, r3, #0, #24
 463:Lib/lvgl/src/core/lv_obj_style.c ****            obj->styles[i].selector == selector) {
 4789              		.loc 1 463 36 discriminator 1 view .LVU1434
 4790 0032 AB42     		cmp	r3, r5
 4791 0034 EBD1     		bne	.L368
 4792              	.L369:
 470:Lib/lvgl/src/core/lv_obj_style.c **** 
 4793              		.loc 1 470 5 is_stmt 1 view .LVU1435
 470:Lib/lvgl/src/core/lv_obj_style.c **** 
 4794              		.loc 1 470 7 is_stmt 0 view .LVU1436
 4795 0036 F445     		cmp	ip, lr
 4796 0038 0FD0     		beq	.L372
 472:Lib/lvgl/src/core/lv_obj_style.c ****     if(res == LV_RESULT_OK) {
 4797              		.loc 1 472 5 is_stmt 1 view .LVU1437
 472:Lib/lvgl/src/core/lv_obj_style.c ****     if(res == LV_RESULT_OK) {
 4798              		.loc 1 472 61 is_stmt 0 view .LVU1438
 4799 003a E368     		ldr	r3, [r4, #12]
 472:Lib/lvgl/src/core/lv_obj_style.c ****     if(res == LV_RESULT_OK) {
 4800              		.loc 1 472 23 view .LVU1439
 4801 003c 3146     		mov	r1, r6
 4802              	.LVL444:
 472:Lib/lvgl/src/core/lv_obj_style.c ****     if(res == LV_RESULT_OK) {
 4803              		.loc 1 472 23 view .LVU1440
 4804 003e 53F83E00 		ldr	r0, [r3, lr, lsl #3]
 4805              	.LVL445:
 472:Lib/lvgl/src/core/lv_obj_style.c ****     if(res == LV_RESULT_OK) {
 4806              		.loc 1 472 23 view .LVU1441
 4807 0042 FFF7FEFF 		bl	lv_style_remove_prop
 4808              	.LVL446:
 473:Lib/lvgl/src/core/lv_obj_style.c ****         full_cache_refresh(obj, lv_obj_style_get_selector_part(selector));
 4809              		.loc 1 473 5 is_stmt 1 view .LVU1442
 473:Lib/lvgl/src/core/lv_obj_style.c ****         full_cache_refresh(obj, lv_obj_style_get_selector_part(selector));
 4810              		.loc 1 473 7 is_stmt 0 view .LVU1443
 4811 0046 0746     		mov	r7, r0
ARM GAS  C:\Users\Alex\AppData\Local\Temp\ccdKwz1H.s 			page 159


 4812 0048 08B9     		cbnz	r0, .L374
 4813              	.LVL447:
 4814              	.L371:
 479:Lib/lvgl/src/core/lv_obj_style.c **** 
 4815              		.loc 1 479 1 view .LVU1444
 4816 004a 3846     		mov	r0, r7
 4817 004c F8BD     		pop	{r3, r4, r5, r6, r7, pc}
 4818              	.LVL448:
 4819              	.L374:
 474:Lib/lvgl/src/core/lv_obj_style.c ****         lv_obj_refresh_style(obj, selector, prop);
 4820              		.loc 1 474 9 is_stmt 1 view .LVU1445
 475:Lib/lvgl/src/core/lv_obj_style.c ****     }
 4821              		.loc 1 475 9 view .LVU1446
 4822 004e 3246     		mov	r2, r6
 4823 0050 2946     		mov	r1, r5
 4824 0052 2046     		mov	r0, r4
 4825              	.LVL449:
 475:Lib/lvgl/src/core/lv_obj_style.c ****     }
 4826              		.loc 1 475 9 is_stmt 0 view .LVU1447
 4827 0054 FFF7FEFF 		bl	lv_obj_refresh_style
 4828              	.LVL450:
 4829 0058 F7E7     		b	.L371
 4830              	.LVL451:
 4831              	.L372:
 470:Lib/lvgl/src/core/lv_obj_style.c **** 
 4832              		.loc 1 470 36 view .LVU1448
 4833 005a 0027     		movs	r7, #0
 4834 005c F5E7     		b	.L371
 4835              		.cfi_endproc
 4836              	.LFE248:
 4838              		.section	.text.fade_in_anim_completed,"ax",%progbits
 4839              		.align	1
 4840              		.syntax unified
 4841              		.thumb
 4842              		.thumb_func
 4844              	fade_in_anim_completed:
 4845              	.LVL452:
 4846              	.LFB268:
1079:Lib/lvgl/src/core/lv_obj_style.c ****     lv_obj_remove_local_style_prop(a->var, LV_STYLE_OPA, 0);
 4847              		.loc 1 1079 1 is_stmt 1 view -0
 4848              		.cfi_startproc
 4849              		@ args = 0, pretend = 0, frame = 0
 4850              		@ frame_needed = 0, uses_anonymous_args = 0
1079:Lib/lvgl/src/core/lv_obj_style.c ****     lv_obj_remove_local_style_prop(a->var, LV_STYLE_OPA, 0);
 4851              		.loc 1 1079 1 is_stmt 0 view .LVU1450
 4852 0000 08B5     		push	{r3, lr}
 4853              	.LCFI60:
 4854              		.cfi_def_cfa_offset 8
 4855              		.cfi_offset 3, -8
 4856              		.cfi_offset 14, -4
1080:Lib/lvgl/src/core/lv_obj_style.c **** }
 4857              		.loc 1 1080 5 is_stmt 1 view .LVU1451
 4858 0002 0022     		movs	r2, #0
 4859 0004 5F21     		movs	r1, #95
 4860 0006 0068     		ldr	r0, [r0]
 4861              	.LVL453:
1080:Lib/lvgl/src/core/lv_obj_style.c **** }
ARM GAS  C:\Users\Alex\AppData\Local\Temp\ccdKwz1H.s 			page 160


 4862              		.loc 1 1080 5 is_stmt 0 view .LVU1452
 4863 0008 FFF7FEFF 		bl	lv_obj_remove_local_style_prop
 4864              	.LVL454:
1081:Lib/lvgl/src/core/lv_obj_style.c **** 
 4865              		.loc 1 1081 1 view .LVU1453
 4866 000c 08BD     		pop	{r3, pc}
 4867              		.cfi_endproc
 4868              	.LFE268:
 4870              		.section	.text._lv_obj_style_create_transition,"ax",%progbits
 4871              		.align	1
 4872              		.global	_lv_obj_style_create_transition
 4873              		.syntax unified
 4874              		.thumb
 4875              		.thumb_func
 4877              	_lv_obj_style_create_transition:
 4878              	.LVL455:
 4879              	.LFB249:
 483:Lib/lvgl/src/core/lv_obj_style.c ****     trans_t * tr;
 4880              		.loc 1 483 1 is_stmt 1 view -0
 4881              		.cfi_startproc
 4882              		@ args = 4, pretend = 0, frame = 96
 4883              		@ frame_needed = 0, uses_anonymous_args = 0
 483:Lib/lvgl/src/core/lv_obj_style.c ****     trans_t * tr;
 4884              		.loc 1 483 1 is_stmt 0 view .LVU1455
 4885 0000 2DE9F043 		push	{r4, r5, r6, r7, r8, r9, lr}
 4886              	.LCFI61:
 4887              		.cfi_def_cfa_offset 28
 4888              		.cfi_offset 4, -28
 4889              		.cfi_offset 5, -24
 4890              		.cfi_offset 6, -20
 4891              		.cfi_offset 7, -16
 4892              		.cfi_offset 8, -12
 4893              		.cfi_offset 9, -8
 4894              		.cfi_offset 14, -4
 4895 0004 99B0     		sub	sp, sp, #100
 4896              	.LCFI62:
 4897              		.cfi_def_cfa_offset 128
 4898 0006 0446     		mov	r4, r0
 4899 0008 0E46     		mov	r6, r1
 4900 000a 9146     		mov	r9, r2
 4901 000c 9846     		mov	r8, r3
 4902 000e 209D     		ldr	r5, [sp, #128]
 484:Lib/lvgl/src/core/lv_obj_style.c **** 
 4903              		.loc 1 484 5 is_stmt 1 view .LVU1456
 487:Lib/lvgl/src/core/lv_obj_style.c ****     obj->state = prev_state;
 4904              		.loc 1 487 5 view .LVU1457
 487:Lib/lvgl/src/core/lv_obj_style.c ****     obj->state = prev_state;
 4905              		.loc 1 487 21 is_stmt 0 view .LVU1458
 4906 0010 90F82A30 		ldrb	r3, [r0, #42]	@ zero_extendqisi2
 4907              	.LVL456:
 487:Lib/lvgl/src/core/lv_obj_style.c ****     obj->state = prev_state;
 4908              		.loc 1 487 21 view .LVU1459
 4909 0014 43F00803 		orr	r3, r3, #8
 4910 0018 80F82A30 		strb	r3, [r0, #42]
 488:Lib/lvgl/src/core/lv_obj_style.c ****     lv_style_value_t v1 = lv_obj_get_style_prop(obj, part, tr_dsc->prop);
 4911              		.loc 1 488 5 is_stmt 1 view .LVU1460
 488:Lib/lvgl/src/core/lv_obj_style.c ****     lv_style_value_t v1 = lv_obj_get_style_prop(obj, part, tr_dsc->prop);
ARM GAS  C:\Users\Alex\AppData\Local\Temp\ccdKwz1H.s 			page 161


 4912              		.loc 1 488 16 is_stmt 0 view .LVU1461
 4913 001c 0285     		strh	r2, [r0, #40]	@ movhi
 489:Lib/lvgl/src/core/lv_obj_style.c ****     obj->state = new_state;
 4914              		.loc 1 489 5 is_stmt 1 view .LVU1462
 489:Lib/lvgl/src/core/lv_obj_style.c ****     obj->state = new_state;
 4915              		.loc 1 489 27 is_stmt 0 view .LVU1463
 4916 001e 2A7A     		ldrb	r2, [r5, #8]	@ zero_extendqisi2
 4917              	.LVL457:
 489:Lib/lvgl/src/core/lv_obj_style.c ****     obj->state = new_state;
 4918              		.loc 1 489 27 view .LVU1464
 4919 0020 FFF7FEFF 		bl	lv_obj_get_style_prop
 4920              	.LVL458:
 489:Lib/lvgl/src/core/lv_obj_style.c ****     obj->state = new_state;
 4921              		.loc 1 489 27 view .LVU1465
 4922 0024 1790     		str	r0, [sp, #92]
 490:Lib/lvgl/src/core/lv_obj_style.c ****     lv_style_value_t v2 = lv_obj_get_style_prop(obj, part, tr_dsc->prop);
 4923              		.loc 1 490 5 is_stmt 1 view .LVU1466
 490:Lib/lvgl/src/core/lv_obj_style.c ****     lv_style_value_t v2 = lv_obj_get_style_prop(obj, part, tr_dsc->prop);
 4924              		.loc 1 490 16 is_stmt 0 view .LVU1467
 4925 0026 A4F82880 		strh	r8, [r4, #40]	@ movhi
 491:Lib/lvgl/src/core/lv_obj_style.c ****     obj->skip_trans = 0;
 4926              		.loc 1 491 5 is_stmt 1 view .LVU1468
 491:Lib/lvgl/src/core/lv_obj_style.c ****     obj->skip_trans = 0;
 4927              		.loc 1 491 27 is_stmt 0 view .LVU1469
 4928 002a 2A7A     		ldrb	r2, [r5, #8]	@ zero_extendqisi2
 4929 002c 3146     		mov	r1, r6
 4930 002e 2046     		mov	r0, r4
 4931 0030 FFF7FEFF 		bl	lv_obj_get_style_prop
 4932              	.LVL459:
 4933 0034 0746     		mov	r7, r0
 4934 0036 1690     		str	r0, [sp, #88]
 492:Lib/lvgl/src/core/lv_obj_style.c **** 
 4935              		.loc 1 492 5 is_stmt 1 view .LVU1470
 492:Lib/lvgl/src/core/lv_obj_style.c **** 
 4936              		.loc 1 492 21 is_stmt 0 view .LVU1471
 4937 0038 94F82A30 		ldrb	r3, [r4, #42]	@ zero_extendqisi2
 4938 003c 6FF3C303 		bfc	r3, #3, #1
 4939 0040 84F82A30 		strb	r3, [r4, #42]
 494:Lib/lvgl/src/core/lv_obj_style.c ****     obj->state = prev_state;
 4940              		.loc 1 494 5 is_stmt 1 view .LVU1472
 494:Lib/lvgl/src/core/lv_obj_style.c ****     obj->state = prev_state;
 4941              		.loc 1 494 10 is_stmt 0 view .LVU1473
 4942 0044 179B     		ldr	r3, [sp, #92]
 494:Lib/lvgl/src/core/lv_obj_style.c ****     obj->state = prev_state;
 4943              		.loc 1 494 7 view .LVU1474
 4944 0046 8342     		cmp	r3, r0
 4945 0048 49D0     		beq	.L390
 4946              	.L378:
 495:Lib/lvgl/src/core/lv_obj_style.c ****     v1 = lv_obj_get_style_prop(obj, part, tr_dsc->prop);
 4947              		.loc 1 495 5 is_stmt 1 view .LVU1475
 495:Lib/lvgl/src/core/lv_obj_style.c ****     v1 = lv_obj_get_style_prop(obj, part, tr_dsc->prop);
 4948              		.loc 1 495 16 is_stmt 0 view .LVU1476
 4949 004a A4F82890 		strh	r9, [r4, #40]	@ movhi
 496:Lib/lvgl/src/core/lv_obj_style.c ****     obj->state = new_state;
 4950              		.loc 1 496 5 is_stmt 1 view .LVU1477
 496:Lib/lvgl/src/core/lv_obj_style.c ****     obj->state = new_state;
 4951              		.loc 1 496 10 is_stmt 0 view .LVU1478
ARM GAS  C:\Users\Alex\AppData\Local\Temp\ccdKwz1H.s 			page 162


 4952 004e 2A7A     		ldrb	r2, [r5, #8]	@ zero_extendqisi2
 4953 0050 3146     		mov	r1, r6
 4954 0052 2046     		mov	r0, r4
 4955 0054 FFF7FEFF 		bl	lv_obj_get_style_prop
 4956              	.LVL460:
 4957 0058 1790     		str	r0, [sp, #92]
 497:Lib/lvgl/src/core/lv_obj_style.c **** 
 4958              		.loc 1 497 5 is_stmt 1 view .LVU1479
 497:Lib/lvgl/src/core/lv_obj_style.c **** 
 4959              		.loc 1 497 16 is_stmt 0 view .LVU1480
 4960 005a A4F82880 		strh	r8, [r4, #40]	@ movhi
 499:Lib/lvgl/src/core/lv_obj_style.c ****     lv_style_set_prop((lv_style_t *)style_trans->style, tr_dsc->prop, v1);  /*Be sure `trans_style`
 4961              		.loc 1 499 5 is_stmt 1 view .LVU1481
 499:Lib/lvgl/src/core/lv_obj_style.c ****     lv_style_set_prop((lv_style_t *)style_trans->style, tr_dsc->prop, v1);  /*Be sure `trans_style`
 4962              		.loc 1 499 37 is_stmt 0 view .LVU1482
 4963 005e 3146     		mov	r1, r6
 4964 0060 2046     		mov	r0, r4
 4965 0062 FFF7FEFF 		bl	get_trans_style
 4966              	.LVL461:
 500:Lib/lvgl/src/core/lv_obj_style.c **** 
 4967              		.loc 1 500 5 is_stmt 1 view .LVU1483
 4968 0066 179A     		ldr	r2, [sp, #92]
 4969 0068 297A     		ldrb	r1, [r5, #8]	@ zero_extendqisi2
 4970 006a 0068     		ldr	r0, [r0]
 4971              	.LVL462:
 500:Lib/lvgl/src/core/lv_obj_style.c **** 
 4972              		.loc 1 500 5 is_stmt 0 view .LVU1484
 4973 006c FFF7FEFF 		bl	lv_style_set_prop
 4974              	.LVL463:
 502:Lib/lvgl/src/core/lv_obj_style.c ****         if(v1.num == LV_RADIUS_CIRCLE || v2.num == LV_RADIUS_CIRCLE) {
 4975              		.loc 1 502 5 is_stmt 1 view .LVU1485
 502:Lib/lvgl/src/core/lv_obj_style.c ****         if(v1.num == LV_RADIUS_CIRCLE || v2.num == LV_RADIUS_CIRCLE) {
 4976              		.loc 1 502 14 is_stmt 0 view .LVU1486
 4977 0070 2B7A     		ldrb	r3, [r5, #8]	@ zero_extendqisi2
 502:Lib/lvgl/src/core/lv_obj_style.c ****         if(v1.num == LV_RADIUS_CIRCLE || v2.num == LV_RADIUS_CIRCLE) {
 4978              		.loc 1 502 7 view .LVU1487
 4979 0072 0C2B     		cmp	r3, #12
 4980 0074 3BD0     		beq	.L391
 4981              	.L380:
 511:Lib/lvgl/src/core/lv_obj_style.c ****     LV_ASSERT_MALLOC(tr);
 4982              		.loc 1 511 5 is_stmt 1 view .LVU1488
 511:Lib/lvgl/src/core/lv_obj_style.c ****     LV_ASSERT_MALLOC(tr);
 4983              		.loc 1 511 10 is_stmt 0 view .LVU1489
 4984 0076 3548     		ldr	r0, .L393
 4985 0078 FFF7FEFF 		bl	_lv_ll_ins_head
 4986              	.LVL464:
 512:Lib/lvgl/src/core/lv_obj_style.c ****     if(tr == NULL) return;
 4987              		.loc 1 512 5 is_stmt 1 view .LVU1490
 512:Lib/lvgl/src/core/lv_obj_style.c ****     if(tr == NULL) return;
 4988              		.loc 1 512 5 view .LVU1491
 4989 007c 0746     		mov	r7, r0
 4990 007e 0028     		cmp	r0, #0
 4991 0080 62D0     		beq	.L388
 512:Lib/lvgl/src/core/lv_obj_style.c ****     if(tr == NULL) return;
 4992              		.loc 1 512 5 view .LVU1492
 512:Lib/lvgl/src/core/lv_obj_style.c ****     if(tr == NULL) return;
 4993              		.loc 1 512 25 view .LVU1493
ARM GAS  C:\Users\Alex\AppData\Local\Temp\ccdKwz1H.s 			page 163


 513:Lib/lvgl/src/core/lv_obj_style.c ****     tr->start_value = v1;
 4994              		.loc 1 513 5 view .LVU1494
 514:Lib/lvgl/src/core/lv_obj_style.c ****     tr->end_value = v2;
 4995              		.loc 1 514 5 view .LVU1495
 514:Lib/lvgl/src/core/lv_obj_style.c ****     tr->end_value = v2;
 4996              		.loc 1 514 21 is_stmt 0 view .LVU1496
 4997 0082 179B     		ldr	r3, [sp, #92]
 4998 0084 C360     		str	r3, [r0, #12]
 515:Lib/lvgl/src/core/lv_obj_style.c ****     tr->obj = obj;
 4999              		.loc 1 515 5 is_stmt 1 view .LVU1497
 515:Lib/lvgl/src/core/lv_obj_style.c ****     tr->obj = obj;
 5000              		.loc 1 515 19 is_stmt 0 view .LVU1498
 5001 0086 169B     		ldr	r3, [sp, #88]
 5002 0088 0361     		str	r3, [r0, #16]
 516:Lib/lvgl/src/core/lv_obj_style.c ****     tr->prop = tr_dsc->prop;
 5003              		.loc 1 516 5 is_stmt 1 view .LVU1499
 516:Lib/lvgl/src/core/lv_obj_style.c ****     tr->prop = tr_dsc->prop;
 5004              		.loc 1 516 13 is_stmt 0 view .LVU1500
 5005 008a 0460     		str	r4, [r0]
 517:Lib/lvgl/src/core/lv_obj_style.c ****     tr->selector = part;
 5006              		.loc 1 517 5 is_stmt 1 view .LVU1501
 517:Lib/lvgl/src/core/lv_obj_style.c ****     tr->selector = part;
 5007              		.loc 1 517 22 is_stmt 0 view .LVU1502
 5008 008c 2B7A     		ldrb	r3, [r5, #8]	@ zero_extendqisi2
 517:Lib/lvgl/src/core/lv_obj_style.c ****     tr->selector = part;
 5009              		.loc 1 517 14 view .LVU1503
 5010 008e 0371     		strb	r3, [r0, #4]
 518:Lib/lvgl/src/core/lv_obj_style.c **** 
 5011              		.loc 1 518 5 is_stmt 1 view .LVU1504
 518:Lib/lvgl/src/core/lv_obj_style.c **** 
 5012              		.loc 1 518 18 is_stmt 0 view .LVU1505
 5013 0090 8660     		str	r6, [r0, #8]
 520:Lib/lvgl/src/core/lv_obj_style.c ****     lv_anim_init(&a);
 5014              		.loc 1 520 5 is_stmt 1 view .LVU1506
 521:Lib/lvgl/src/core/lv_obj_style.c ****     lv_anim_set_var(&a, tr);
 5015              		.loc 1 521 5 view .LVU1507
 5016 0092 6846     		mov	r0, sp
 5017              	.LVL465:
 521:Lib/lvgl/src/core/lv_obj_style.c ****     lv_anim_set_var(&a, tr);
 5018              		.loc 1 521 5 is_stmt 0 view .LVU1508
 5019 0094 FFF7FEFF 		bl	lv_anim_init
 5020              	.LVL466:
 522:Lib/lvgl/src/core/lv_obj_style.c ****     lv_anim_set_exec_cb(&a, trans_anim_cb);
 5021              		.loc 1 522 5 is_stmt 1 view .LVU1509
 5022              	.LBB294:
 5023              	.LBI294:
 5024              		.file 9 "Lib/lvgl/src/core/../misc/lv_anim.h"
   1:Lib/lvgl/src/core/../misc/lv_anim.h **** /**
   2:Lib/lvgl/src/core/../misc/lv_anim.h ****  * @file lv_anim.h
   3:Lib/lvgl/src/core/../misc/lv_anim.h ****  *
   4:Lib/lvgl/src/core/../misc/lv_anim.h ****  */
   5:Lib/lvgl/src/core/../misc/lv_anim.h **** 
   6:Lib/lvgl/src/core/../misc/lv_anim.h **** #ifndef LV_ANIM_H
   7:Lib/lvgl/src/core/../misc/lv_anim.h **** #define LV_ANIM_H
   8:Lib/lvgl/src/core/../misc/lv_anim.h **** 
   9:Lib/lvgl/src/core/../misc/lv_anim.h **** #ifdef __cplusplus
  10:Lib/lvgl/src/core/../misc/lv_anim.h **** extern "C" {
ARM GAS  C:\Users\Alex\AppData\Local\Temp\ccdKwz1H.s 			page 164


  11:Lib/lvgl/src/core/../misc/lv_anim.h **** #endif
  12:Lib/lvgl/src/core/../misc/lv_anim.h **** 
  13:Lib/lvgl/src/core/../misc/lv_anim.h **** /*********************
  14:Lib/lvgl/src/core/../misc/lv_anim.h ****  *      INCLUDES
  15:Lib/lvgl/src/core/../misc/lv_anim.h ****  *********************/
  16:Lib/lvgl/src/core/../misc/lv_anim.h **** #include "../lv_conf_internal.h"
  17:Lib/lvgl/src/core/../misc/lv_anim.h **** #include "lv_types.h"
  18:Lib/lvgl/src/core/../misc/lv_anim.h **** #include "lv_math.h"
  19:Lib/lvgl/src/core/../misc/lv_anim.h **** #include "lv_timer.h"
  20:Lib/lvgl/src/core/../misc/lv_anim.h **** #include "lv_ll.h"
  21:Lib/lvgl/src/core/../misc/lv_anim.h **** 
  22:Lib/lvgl/src/core/../misc/lv_anim.h **** #include <stdint.h>
  23:Lib/lvgl/src/core/../misc/lv_anim.h **** #include <stdbool.h>
  24:Lib/lvgl/src/core/../misc/lv_anim.h **** #include <stddef.h>
  25:Lib/lvgl/src/core/../misc/lv_anim.h **** 
  26:Lib/lvgl/src/core/../misc/lv_anim.h **** /*********************
  27:Lib/lvgl/src/core/../misc/lv_anim.h ****  *      DEFINES
  28:Lib/lvgl/src/core/../misc/lv_anim.h ****  *********************/
  29:Lib/lvgl/src/core/../misc/lv_anim.h **** 
  30:Lib/lvgl/src/core/../misc/lv_anim.h **** #define LV_ANIM_REPEAT_INFINITE      0xFFFF
  31:Lib/lvgl/src/core/../misc/lv_anim.h **** #define LV_ANIM_PLAYTIME_INFINITE    0xFFFFFFFF
  32:Lib/lvgl/src/core/../misc/lv_anim.h **** 
  33:Lib/lvgl/src/core/../misc/lv_anim.h **** /*
  34:Lib/lvgl/src/core/../misc/lv_anim.h ****  * Macros used to set cubic-bezier anim parameter.
  35:Lib/lvgl/src/core/../misc/lv_anim.h ****  * Parameters come from https://easings.net/
  36:Lib/lvgl/src/core/../misc/lv_anim.h ****  *
  37:Lib/lvgl/src/core/../misc/lv_anim.h ****  * Usage:
  38:Lib/lvgl/src/core/../misc/lv_anim.h ****  *
  39:Lib/lvgl/src/core/../misc/lv_anim.h ****  * lv_anim_t a;
  40:Lib/lvgl/src/core/../misc/lv_anim.h ****  * lv_anim_init(&a);
  41:Lib/lvgl/src/core/../misc/lv_anim.h ****  * ...
  42:Lib/lvgl/src/core/../misc/lv_anim.h ****  * lv_anim_set_path_cb(&a, lv_anim_path_custom_bezier3);
  43:Lib/lvgl/src/core/../misc/lv_anim.h ****  * LV_ANIM_SET_EASE_IN_SINE(&a); //Set cubic-bezier anim parameter to easeInSine
  44:Lib/lvgl/src/core/../misc/lv_anim.h ****  * ...
  45:Lib/lvgl/src/core/../misc/lv_anim.h ****  * lv_anim_start(&a);
  46:Lib/lvgl/src/core/../misc/lv_anim.h ****  */
  47:Lib/lvgl/src/core/../misc/lv_anim.h **** 
  48:Lib/lvgl/src/core/../misc/lv_anim.h **** #define _PARA(a, x1, y1, x2, y2) ((a)->parameter.bezier3 =                                  \
  49:Lib/lvgl/src/core/../misc/lv_anim.h **** (struct _lv_anim_bezier3_para_t) {                      \
  50:Lib/lvgl/src/core/../misc/lv_anim.h ****     LV_BEZIER_VAL_FLOAT(x1), LV_BEZIER_VAL_FLOAT(y1),   \
  51:Lib/lvgl/src/core/../misc/lv_anim.h ****     LV_BEZIER_VAL_FLOAT(x2), LV_BEZIER_VAL_FLOAT(y2) }  \
  52:Lib/lvgl/src/core/../misc/lv_anim.h ****                                  )
  53:Lib/lvgl/src/core/../misc/lv_anim.h **** 
  54:Lib/lvgl/src/core/../misc/lv_anim.h **** #define LV_ANIM_SET_EASE_IN_SINE(a) _PARA(a, 0.12, 0, 0.39, 0)
  55:Lib/lvgl/src/core/../misc/lv_anim.h **** #define LV_ANIM_SET_EASE_OUT_SINE(a) _PARA(a, 0.61, 1, 0.88, 1)
  56:Lib/lvgl/src/core/../misc/lv_anim.h **** #define LV_ANIM_SET_EASE_IN_OUT_SINE(a) _PARA(a, 0.37, 0, 0.63, 1)
  57:Lib/lvgl/src/core/../misc/lv_anim.h **** #define LV_ANIM_SET_EASE_IN_QUAD(a) _PARA(a, 0.11, 0, 0.5, 0)
  58:Lib/lvgl/src/core/../misc/lv_anim.h **** #define LV_ANIM_SET_EASE_OUT_QUAD(a) _PARA(a, 0.5, 1, 0.89, 1)
  59:Lib/lvgl/src/core/../misc/lv_anim.h **** #define LV_ANIM_SET_EASE_IN_OUT_QUAD(a) _PARA(a, 0.45, 0, 0.55, 1)
  60:Lib/lvgl/src/core/../misc/lv_anim.h **** #define LV_ANIM_SET_EASE_IN_CUBIC(a) _PARA(a, 0.32, 0, 0.67, 0)
  61:Lib/lvgl/src/core/../misc/lv_anim.h **** #define LV_ANIM_SET_EASE_OUT_CUBIC(a) _PARA(a, 0.33, 1, 0.68, 1)
  62:Lib/lvgl/src/core/../misc/lv_anim.h **** #define LV_ANIM_SET_EASE_IN_OUT_CUBIC(a) _PARA(a, 0.65, 0, 0.35, 1)
  63:Lib/lvgl/src/core/../misc/lv_anim.h **** #define LV_ANIM_SET_EASE_IN_QUART(a) _PARA(a, 0.5, 0, 0.75, 0)
  64:Lib/lvgl/src/core/../misc/lv_anim.h **** #define LV_ANIM_SET_EASE_OUT_QUART(a) _PARA(a, 0.25, 1, 0.5, 1)
  65:Lib/lvgl/src/core/../misc/lv_anim.h **** #define LV_ANIM_SET_EASE_IN_OUT_QUART(a) _PARA(a, 0.76, 0, 0.24, 1)
  66:Lib/lvgl/src/core/../misc/lv_anim.h **** #define LV_ANIM_SET_EASE_IN_QUINT(a) _PARA(a, 0.64, 0, 0.78, 0)
  67:Lib/lvgl/src/core/../misc/lv_anim.h **** #define LV_ANIM_SET_EASE_OUT_QUINT(a) _PARA(a, 0.22, 1, 0.36, 1)
ARM GAS  C:\Users\Alex\AppData\Local\Temp\ccdKwz1H.s 			page 165


  68:Lib/lvgl/src/core/../misc/lv_anim.h **** #define LV_ANIM_SET_EASE_IN_OUT_QUINT(a) _PARA(a, 0.83, 0, 0.17, 1)
  69:Lib/lvgl/src/core/../misc/lv_anim.h **** #define LV_ANIM_SET_EASE_IN_EXPO(a) _PARA(a, 0.7, 0, 0.84, 0)
  70:Lib/lvgl/src/core/../misc/lv_anim.h **** #define LV_ANIM_SET_EASE_OUT_EXPO(a) _PARA(a, 0.16, 1, 0.3, 1)
  71:Lib/lvgl/src/core/../misc/lv_anim.h **** #define LV_ANIM_SET_EASE_IN_OUT_EXPO(a) _PARA(a, 0.87, 0, 0.13, 1)
  72:Lib/lvgl/src/core/../misc/lv_anim.h **** #define LV_ANIM_SET_EASE_IN_CIRC(a) _PARA(a, 0.55, 0, 1, 0.45)
  73:Lib/lvgl/src/core/../misc/lv_anim.h **** #define LV_ANIM_SET_EASE_OUT_CIRC(a) _PARA(a, 0, 0.55, 0.45, 1)
  74:Lib/lvgl/src/core/../misc/lv_anim.h **** #define LV_ANIM_SET_EASE_IN_OUT_CIRC(a) _PARA(a, 0.85, 0, 0.15, 1)
  75:Lib/lvgl/src/core/../misc/lv_anim.h **** #define LV_ANIM_SET_EASE_IN_BACK(a) _PARA(a, 0.36, 0, 0.66, -0.56)
  76:Lib/lvgl/src/core/../misc/lv_anim.h **** #define LV_ANIM_SET_EASE_OUT_BACK(a) _PARA(a, 0.34, 1.56, 0.64, 1)
  77:Lib/lvgl/src/core/../misc/lv_anim.h **** #define LV_ANIM_SET_EASE_IN_OUT_BACK(a) _PARA(a, 0.68, -0.6, 0.32, 1.6)
  78:Lib/lvgl/src/core/../misc/lv_anim.h **** 
  79:Lib/lvgl/src/core/../misc/lv_anim.h **** LV_EXPORT_CONST_INT(LV_ANIM_REPEAT_INFINITE);
  80:Lib/lvgl/src/core/../misc/lv_anim.h **** LV_EXPORT_CONST_INT(LV_ANIM_PLAYTIME_INFINITE);
  81:Lib/lvgl/src/core/../misc/lv_anim.h **** 
  82:Lib/lvgl/src/core/../misc/lv_anim.h **** /**********************
  83:Lib/lvgl/src/core/../misc/lv_anim.h ****  *      TYPEDEFS
  84:Lib/lvgl/src/core/../misc/lv_anim.h ****  **********************/
  85:Lib/lvgl/src/core/../misc/lv_anim.h **** 
  86:Lib/lvgl/src/core/../misc/lv_anim.h **** /** Can be used to indicate if animations are enabled or disabled in a case*/
  87:Lib/lvgl/src/core/../misc/lv_anim.h **** typedef enum {
  88:Lib/lvgl/src/core/../misc/lv_anim.h ****     LV_ANIM_OFF,
  89:Lib/lvgl/src/core/../misc/lv_anim.h ****     LV_ANIM_ON,
  90:Lib/lvgl/src/core/../misc/lv_anim.h **** } lv_anim_enable_t;
  91:Lib/lvgl/src/core/../misc/lv_anim.h **** 
  92:Lib/lvgl/src/core/../misc/lv_anim.h **** typedef struct {
  93:Lib/lvgl/src/core/../misc/lv_anim.h ****     bool anim_list_changed;
  94:Lib/lvgl/src/core/../misc/lv_anim.h ****     bool anim_run_round;
  95:Lib/lvgl/src/core/../misc/lv_anim.h ****     lv_timer_t * timer;
  96:Lib/lvgl/src/core/../misc/lv_anim.h ****     lv_ll_t anim_ll;
  97:Lib/lvgl/src/core/../misc/lv_anim.h **** } lv_anim_state_t;
  98:Lib/lvgl/src/core/../misc/lv_anim.h **** 
  99:Lib/lvgl/src/core/../misc/lv_anim.h **** /** Get the current value during an animation*/
 100:Lib/lvgl/src/core/../misc/lv_anim.h **** typedef int32_t (*lv_anim_path_cb_t)(const lv_anim_t *);
 101:Lib/lvgl/src/core/../misc/lv_anim.h **** 
 102:Lib/lvgl/src/core/../misc/lv_anim.h **** /** Generic prototype of "animator" functions.
 103:Lib/lvgl/src/core/../misc/lv_anim.h ****  * First parameter is the variable to animate.
 104:Lib/lvgl/src/core/../misc/lv_anim.h ****  * Second parameter is the value to set.
 105:Lib/lvgl/src/core/../misc/lv_anim.h ****  * Compatible with `lv_xxx_set_yyy(obj, value)` functions
 106:Lib/lvgl/src/core/../misc/lv_anim.h ****  * The `x` in `_xcb_t` means it's not a fully generic prototype because
 107:Lib/lvgl/src/core/../misc/lv_anim.h ****  * it doesn't receive `lv_anim_t *` as its first argument*/
 108:Lib/lvgl/src/core/../misc/lv_anim.h **** typedef void (*lv_anim_exec_xcb_t)(void *, int32_t);
 109:Lib/lvgl/src/core/../misc/lv_anim.h **** 
 110:Lib/lvgl/src/core/../misc/lv_anim.h **** /** Same as `lv_anim_exec_xcb_t` but receives `lv_anim_t *` as the first parameter.
 111:Lib/lvgl/src/core/../misc/lv_anim.h ****  * It's more consistent but less convenient. Might be used by binding generator functions.*/
 112:Lib/lvgl/src/core/../misc/lv_anim.h **** typedef void (*lv_anim_custom_exec_cb_t)(lv_anim_t *, int32_t);
 113:Lib/lvgl/src/core/../misc/lv_anim.h **** 
 114:Lib/lvgl/src/core/../misc/lv_anim.h **** /** Callback to call when the animation is ready*/
 115:Lib/lvgl/src/core/../misc/lv_anim.h **** typedef void (*lv_anim_completed_cb_t)(lv_anim_t *);
 116:Lib/lvgl/src/core/../misc/lv_anim.h **** 
 117:Lib/lvgl/src/core/../misc/lv_anim.h **** /** Callback to call when the animation really stars (considering `delay`)*/
 118:Lib/lvgl/src/core/../misc/lv_anim.h **** typedef void (*lv_anim_start_cb_t)(lv_anim_t *);
 119:Lib/lvgl/src/core/../misc/lv_anim.h **** 
 120:Lib/lvgl/src/core/../misc/lv_anim.h **** /** Callback used when the animation values are relative to get the current value*/
 121:Lib/lvgl/src/core/../misc/lv_anim.h **** typedef int32_t (*lv_anim_get_value_cb_t)(lv_anim_t *);
 122:Lib/lvgl/src/core/../misc/lv_anim.h **** 
 123:Lib/lvgl/src/core/../misc/lv_anim.h **** /** Callback used when the animation is deleted*/
 124:Lib/lvgl/src/core/../misc/lv_anim.h **** typedef void (*lv_anim_deleted_cb_t)(lv_anim_t *);
ARM GAS  C:\Users\Alex\AppData\Local\Temp\ccdKwz1H.s 			page 166


 125:Lib/lvgl/src/core/../misc/lv_anim.h **** 
 126:Lib/lvgl/src/core/../misc/lv_anim.h **** typedef struct _lv_anim_bezier3_para_t {
 127:Lib/lvgl/src/core/../misc/lv_anim.h ****     int16_t x1;
 128:Lib/lvgl/src/core/../misc/lv_anim.h ****     int16_t y1;
 129:Lib/lvgl/src/core/../misc/lv_anim.h ****     int16_t x2;
 130:Lib/lvgl/src/core/../misc/lv_anim.h ****     int16_t y2;
 131:Lib/lvgl/src/core/../misc/lv_anim.h **** } lv_anim_bezier3_para_t; /**< Parameter used when path is custom_bezier*/
 132:Lib/lvgl/src/core/../misc/lv_anim.h **** 
 133:Lib/lvgl/src/core/../misc/lv_anim.h **** /** Describes an animation*/
 134:Lib/lvgl/src/core/../misc/lv_anim.h **** struct _lv_anim_t {
 135:Lib/lvgl/src/core/../misc/lv_anim.h ****     void * var;                                 /**<Variable to animate*/
 136:Lib/lvgl/src/core/../misc/lv_anim.h ****     lv_anim_exec_xcb_t exec_cb;                 /**< Function to execute to animate*/
 137:Lib/lvgl/src/core/../misc/lv_anim.h ****     lv_anim_custom_exec_cb_t custom_exec_cb;/**< Function to execute to animate,
 138:Lib/lvgl/src/core/../misc/lv_anim.h ****                                                  same purpose as exec_cb but different parameters*/
 139:Lib/lvgl/src/core/../misc/lv_anim.h ****     lv_anim_start_cb_t start_cb;         /**< Call it when the animation is starts (considering `de
 140:Lib/lvgl/src/core/../misc/lv_anim.h ****     lv_anim_completed_cb_t completed_cb; /**< Call it when the animation is fully completed*/
 141:Lib/lvgl/src/core/../misc/lv_anim.h ****     lv_anim_deleted_cb_t deleted_cb;     /**< Call it when the animation is deleted*/
 142:Lib/lvgl/src/core/../misc/lv_anim.h ****     lv_anim_get_value_cb_t get_value_cb; /**< Get the current value in relative mode*/
 143:Lib/lvgl/src/core/../misc/lv_anim.h ****     void * user_data;                    /**< Custom user data*/
 144:Lib/lvgl/src/core/../misc/lv_anim.h ****     lv_anim_path_cb_t path_cb;         /**< Describe the path (curve) of animations*/
 145:Lib/lvgl/src/core/../misc/lv_anim.h ****     int32_t start_value;               /**< Start value*/
 146:Lib/lvgl/src/core/../misc/lv_anim.h ****     int32_t current_value;             /**< Current value*/
 147:Lib/lvgl/src/core/../misc/lv_anim.h ****     int32_t end_value;                 /**< End value*/
 148:Lib/lvgl/src/core/../misc/lv_anim.h ****     int32_t duration;                /**< Animation time in ms*/
 149:Lib/lvgl/src/core/../misc/lv_anim.h ****     int32_t act_time;            /**< Current time in animation. Set to negative to make delay.*/
 150:Lib/lvgl/src/core/../misc/lv_anim.h ****     uint32_t playback_delay;     /**< Wait before play back*/
 151:Lib/lvgl/src/core/../misc/lv_anim.h ****     uint32_t playback_duration;      /**< Duration of playback animation*/
 152:Lib/lvgl/src/core/../misc/lv_anim.h ****     uint32_t repeat_delay;       /**< Wait before repeat*/
 153:Lib/lvgl/src/core/../misc/lv_anim.h ****     uint16_t repeat_cnt;         /**< Repeat count for the animation*/
 154:Lib/lvgl/src/core/../misc/lv_anim.h ****     union _lv_anim_path_para_t {
 155:Lib/lvgl/src/core/../misc/lv_anim.h ****         lv_anim_bezier3_para_t bezier3; /**< Parameter used when path is custom_bezier*/
 156:Lib/lvgl/src/core/../misc/lv_anim.h ****     } parameter;
 157:Lib/lvgl/src/core/../misc/lv_anim.h **** 
 158:Lib/lvgl/src/core/../misc/lv_anim.h ****     uint8_t early_apply  : 1;    /**< 1: Apply start value immediately even is there is `delay`*/
 159:Lib/lvgl/src/core/../misc/lv_anim.h **** 
 160:Lib/lvgl/src/core/../misc/lv_anim.h ****     /*Animation system use these - user shouldn't set*/
 161:Lib/lvgl/src/core/../misc/lv_anim.h ****     uint32_t last_timer_run;
 162:Lib/lvgl/src/core/../misc/lv_anim.h ****     uint8_t playback_now : 1; /**< Play back is in progress*/
 163:Lib/lvgl/src/core/../misc/lv_anim.h ****     uint8_t run_round : 1;    /**< Indicates the animation has run in this round*/
 164:Lib/lvgl/src/core/../misc/lv_anim.h ****     uint8_t start_cb_called : 1;    /**< Indicates that the `start_cb` was already called*/
 165:Lib/lvgl/src/core/../misc/lv_anim.h **** };
 166:Lib/lvgl/src/core/../misc/lv_anim.h **** 
 167:Lib/lvgl/src/core/../misc/lv_anim.h **** /**********************
 168:Lib/lvgl/src/core/../misc/lv_anim.h ****  * GLOBAL PROTOTYPES
 169:Lib/lvgl/src/core/../misc/lv_anim.h ****  **********************/
 170:Lib/lvgl/src/core/../misc/lv_anim.h **** 
 171:Lib/lvgl/src/core/../misc/lv_anim.h **** /**
 172:Lib/lvgl/src/core/../misc/lv_anim.h ****  * Init the animation module
 173:Lib/lvgl/src/core/../misc/lv_anim.h ****  */
 174:Lib/lvgl/src/core/../misc/lv_anim.h **** void _lv_anim_core_init(void);
 175:Lib/lvgl/src/core/../misc/lv_anim.h **** 
 176:Lib/lvgl/src/core/../misc/lv_anim.h **** /**
 177:Lib/lvgl/src/core/../misc/lv_anim.h ****  * Deinit the animation module
 178:Lib/lvgl/src/core/../misc/lv_anim.h ****  */
 179:Lib/lvgl/src/core/../misc/lv_anim.h **** void _lv_anim_core_deinit(void);
 180:Lib/lvgl/src/core/../misc/lv_anim.h **** 
 181:Lib/lvgl/src/core/../misc/lv_anim.h **** /**
ARM GAS  C:\Users\Alex\AppData\Local\Temp\ccdKwz1H.s 			page 167


 182:Lib/lvgl/src/core/../misc/lv_anim.h ****  * Initialize an animation variable.
 183:Lib/lvgl/src/core/../misc/lv_anim.h ****  * E.g.:
 184:Lib/lvgl/src/core/../misc/lv_anim.h ****  * lv_anim_t a;
 185:Lib/lvgl/src/core/../misc/lv_anim.h ****  * lv_anim_init(&a);
 186:Lib/lvgl/src/core/../misc/lv_anim.h ****  * lv_anim_set_...(&a);
 187:Lib/lvgl/src/core/../misc/lv_anim.h ****  * lv_anim_start(&a);
 188:Lib/lvgl/src/core/../misc/lv_anim.h ****  * @param a     pointer to an `lv_anim_t` variable to initialize
 189:Lib/lvgl/src/core/../misc/lv_anim.h ****  */
 190:Lib/lvgl/src/core/../misc/lv_anim.h **** void lv_anim_init(lv_anim_t * a);
 191:Lib/lvgl/src/core/../misc/lv_anim.h **** 
 192:Lib/lvgl/src/core/../misc/lv_anim.h **** /**
 193:Lib/lvgl/src/core/../misc/lv_anim.h ****  * Set a variable to animate
 194:Lib/lvgl/src/core/../misc/lv_anim.h ****  * @param a     pointer to an initialized `lv_anim_t` variable
 195:Lib/lvgl/src/core/../misc/lv_anim.h ****  * @param var   pointer to a variable to animate
 196:Lib/lvgl/src/core/../misc/lv_anim.h ****  */
 197:Lib/lvgl/src/core/../misc/lv_anim.h **** static inline void lv_anim_set_var(lv_anim_t * a, void * var)
 5025              		.loc 9 197 20 view .LVU1510
 5026              	.LBB295:
 198:Lib/lvgl/src/core/../misc/lv_anim.h **** {
 199:Lib/lvgl/src/core/../misc/lv_anim.h ****     a->var = var;
 5027              		.loc 9 199 5 view .LVU1511
 5028              		.loc 9 199 12 is_stmt 0 view .LVU1512
 5029 0098 0097     		str	r7, [sp]
 5030              	.LVL467:
 5031              		.loc 9 199 12 view .LVU1513
 5032              	.LBE295:
 5033              	.LBE294:
 523:Lib/lvgl/src/core/lv_obj_style.c ****     lv_anim_set_start_cb(&a, trans_anim_start_cb);
 5034              		.loc 1 523 5 is_stmt 1 view .LVU1514
 5035              	.LBB296:
 5036              	.LBI296:
 200:Lib/lvgl/src/core/../misc/lv_anim.h **** }
 201:Lib/lvgl/src/core/../misc/lv_anim.h **** 
 202:Lib/lvgl/src/core/../misc/lv_anim.h **** /**
 203:Lib/lvgl/src/core/../misc/lv_anim.h ****  * Set a function to animate `var`
 204:Lib/lvgl/src/core/../misc/lv_anim.h ****  * @param a         pointer to an initialized `lv_anim_t` variable
 205:Lib/lvgl/src/core/../misc/lv_anim.h ****  * @param exec_cb   a function to execute during animation
 206:Lib/lvgl/src/core/../misc/lv_anim.h ****  *                  LVGL's built-in functions can be used.
 207:Lib/lvgl/src/core/../misc/lv_anim.h ****  *                  E.g. lv_obj_set_x
 208:Lib/lvgl/src/core/../misc/lv_anim.h ****  */
 209:Lib/lvgl/src/core/../misc/lv_anim.h **** static inline void lv_anim_set_exec_cb(lv_anim_t * a, lv_anim_exec_xcb_t exec_cb)
 5037              		.loc 9 209 20 view .LVU1515
 5038              	.LBB297:
 210:Lib/lvgl/src/core/../misc/lv_anim.h **** {
 211:Lib/lvgl/src/core/../misc/lv_anim.h ****     a->exec_cb = exec_cb;
 5039              		.loc 9 211 5 view .LVU1516
 5040              		.loc 9 211 16 is_stmt 0 view .LVU1517
 5041 009a 2D4B     		ldr	r3, .L393+4
 5042 009c 0193     		str	r3, [sp, #4]
 5043              	.LVL468:
 5044              		.loc 9 211 16 view .LVU1518
 5045              	.LBE297:
 5046              	.LBE296:
 524:Lib/lvgl/src/core/lv_obj_style.c ****     lv_anim_set_completed_cb(&a, trans_anim_completed_cb);
 5047              		.loc 1 524 5 is_stmt 1 view .LVU1519
 5048              	.LBB298:
 5049              	.LBI298:
ARM GAS  C:\Users\Alex\AppData\Local\Temp\ccdKwz1H.s 			page 168


 212:Lib/lvgl/src/core/../misc/lv_anim.h **** }
 213:Lib/lvgl/src/core/../misc/lv_anim.h **** 
 214:Lib/lvgl/src/core/../misc/lv_anim.h **** /**
 215:Lib/lvgl/src/core/../misc/lv_anim.h ****  * Set the duration of an animation
 216:Lib/lvgl/src/core/../misc/lv_anim.h ****  * @param a         pointer to an initialized `lv_anim_t` variable
 217:Lib/lvgl/src/core/../misc/lv_anim.h ****  * @param duration  duration of the animation in milliseconds
 218:Lib/lvgl/src/core/../misc/lv_anim.h ****  */
 219:Lib/lvgl/src/core/../misc/lv_anim.h **** static inline void lv_anim_set_duration(lv_anim_t * a, uint32_t duration)
 220:Lib/lvgl/src/core/../misc/lv_anim.h **** {
 221:Lib/lvgl/src/core/../misc/lv_anim.h ****     a->duration = duration;
 222:Lib/lvgl/src/core/../misc/lv_anim.h **** }
 223:Lib/lvgl/src/core/../misc/lv_anim.h **** 
 224:Lib/lvgl/src/core/../misc/lv_anim.h **** /**
 225:Lib/lvgl/src/core/../misc/lv_anim.h ****  * Legacy `lv_anim_set_time` API will be removed soon, use `lv_anim_set_duration` instead.
 226:Lib/lvgl/src/core/../misc/lv_anim.h ****  */
 227:Lib/lvgl/src/core/../misc/lv_anim.h **** static inline void lv_anim_set_time(lv_anim_t * a, uint32_t duration)
 228:Lib/lvgl/src/core/../misc/lv_anim.h **** {
 229:Lib/lvgl/src/core/../misc/lv_anim.h ****     lv_anim_set_duration(a, duration);
 230:Lib/lvgl/src/core/../misc/lv_anim.h **** }
 231:Lib/lvgl/src/core/../misc/lv_anim.h **** 
 232:Lib/lvgl/src/core/../misc/lv_anim.h **** /**
 233:Lib/lvgl/src/core/../misc/lv_anim.h ****  * Set a delay before starting the animation
 234:Lib/lvgl/src/core/../misc/lv_anim.h ****  * @param a         pointer to an initialized `lv_anim_t` variable
 235:Lib/lvgl/src/core/../misc/lv_anim.h ****  * @param delay     delay before the animation in milliseconds
 236:Lib/lvgl/src/core/../misc/lv_anim.h ****  */
 237:Lib/lvgl/src/core/../misc/lv_anim.h **** static inline void lv_anim_set_delay(lv_anim_t * a, uint32_t delay)
 238:Lib/lvgl/src/core/../misc/lv_anim.h **** {
 239:Lib/lvgl/src/core/../misc/lv_anim.h ****     a->act_time = -(int32_t)(delay);
 240:Lib/lvgl/src/core/../misc/lv_anim.h **** }
 241:Lib/lvgl/src/core/../misc/lv_anim.h **** 
 242:Lib/lvgl/src/core/../misc/lv_anim.h **** /**
 243:Lib/lvgl/src/core/../misc/lv_anim.h ****  * Set the start and end values of an animation
 244:Lib/lvgl/src/core/../misc/lv_anim.h ****  * @param a         pointer to an initialized `lv_anim_t` variable
 245:Lib/lvgl/src/core/../misc/lv_anim.h ****  * @param start     the start value
 246:Lib/lvgl/src/core/../misc/lv_anim.h ****  * @param end       the end value
 247:Lib/lvgl/src/core/../misc/lv_anim.h ****  */
 248:Lib/lvgl/src/core/../misc/lv_anim.h **** static inline void lv_anim_set_values(lv_anim_t * a, int32_t start, int32_t end)
 249:Lib/lvgl/src/core/../misc/lv_anim.h **** {
 250:Lib/lvgl/src/core/../misc/lv_anim.h ****     a->start_value = start;
 251:Lib/lvgl/src/core/../misc/lv_anim.h ****     a->current_value = INT32_MIN;
 252:Lib/lvgl/src/core/../misc/lv_anim.h ****     a->end_value = end;
 253:Lib/lvgl/src/core/../misc/lv_anim.h **** }
 254:Lib/lvgl/src/core/../misc/lv_anim.h **** 
 255:Lib/lvgl/src/core/../misc/lv_anim.h **** /**
 256:Lib/lvgl/src/core/../misc/lv_anim.h ****  * Similar to `lv_anim_set_exec_cb` but `lv_anim_custom_exec_cb_t` receives
 257:Lib/lvgl/src/core/../misc/lv_anim.h ****  * `lv_anim_t * ` as its first parameter instead of `void *`.
 258:Lib/lvgl/src/core/../misc/lv_anim.h ****  * This function might be used when LVGL is bound to other languages because
 259:Lib/lvgl/src/core/../misc/lv_anim.h ****  * it's more consistent to have `lv_anim_t *` as first parameter.
 260:Lib/lvgl/src/core/../misc/lv_anim.h ****  * @param a         pointer to an initialized `lv_anim_t` variable
 261:Lib/lvgl/src/core/../misc/lv_anim.h ****  * @param exec_cb   a function to execute.
 262:Lib/lvgl/src/core/../misc/lv_anim.h ****  */
 263:Lib/lvgl/src/core/../misc/lv_anim.h **** static inline void lv_anim_set_custom_exec_cb(lv_anim_t * a, lv_anim_custom_exec_cb_t exec_cb)
 264:Lib/lvgl/src/core/../misc/lv_anim.h **** {
 265:Lib/lvgl/src/core/../misc/lv_anim.h ****     a->custom_exec_cb = exec_cb;
 266:Lib/lvgl/src/core/../misc/lv_anim.h **** }
 267:Lib/lvgl/src/core/../misc/lv_anim.h **** 
 268:Lib/lvgl/src/core/../misc/lv_anim.h **** /**
ARM GAS  C:\Users\Alex\AppData\Local\Temp\ccdKwz1H.s 			page 169


 269:Lib/lvgl/src/core/../misc/lv_anim.h ****  * Set the path (curve) of the animation.
 270:Lib/lvgl/src/core/../misc/lv_anim.h ****  * @param a         pointer to an initialized `lv_anim_t` variable
 271:Lib/lvgl/src/core/../misc/lv_anim.h ****  * @param path_cb a function to set the current value of the animation.
 272:Lib/lvgl/src/core/../misc/lv_anim.h ****  */
 273:Lib/lvgl/src/core/../misc/lv_anim.h **** static inline void lv_anim_set_path_cb(lv_anim_t * a, lv_anim_path_cb_t path_cb)
 274:Lib/lvgl/src/core/../misc/lv_anim.h **** {
 275:Lib/lvgl/src/core/../misc/lv_anim.h ****     a->path_cb = path_cb;
 276:Lib/lvgl/src/core/../misc/lv_anim.h **** }
 277:Lib/lvgl/src/core/../misc/lv_anim.h **** 
 278:Lib/lvgl/src/core/../misc/lv_anim.h **** /**
 279:Lib/lvgl/src/core/../misc/lv_anim.h ****  * Set a function call when the animation really starts (considering `delay`)
 280:Lib/lvgl/src/core/../misc/lv_anim.h ****  * @param a         pointer to an initialized `lv_anim_t` variable
 281:Lib/lvgl/src/core/../misc/lv_anim.h ****  * @param start_cb  a function call when the animation starts
 282:Lib/lvgl/src/core/../misc/lv_anim.h ****  */
 283:Lib/lvgl/src/core/../misc/lv_anim.h **** static inline void lv_anim_set_start_cb(lv_anim_t * a, lv_anim_start_cb_t start_cb)
 5050              		.loc 9 283 20 view .LVU1520
 5051              	.LBB299:
 284:Lib/lvgl/src/core/../misc/lv_anim.h **** {
 285:Lib/lvgl/src/core/../misc/lv_anim.h ****     a->start_cb = start_cb;
 5052              		.loc 9 285 5 view .LVU1521
 5053              		.loc 9 285 17 is_stmt 0 view .LVU1522
 5054 009e 2D4B     		ldr	r3, .L393+8
 5055 00a0 0393     		str	r3, [sp, #12]
 5056              	.LVL469:
 5057              		.loc 9 285 17 view .LVU1523
 5058              	.LBE299:
 5059              	.LBE298:
 525:Lib/lvgl/src/core/lv_obj_style.c ****     lv_anim_set_values(&a, 0x00, 0xFF);
 5060              		.loc 1 525 5 is_stmt 1 view .LVU1524
 5061              	.LBB300:
 5062              	.LBI300:
 286:Lib/lvgl/src/core/../misc/lv_anim.h **** }
 287:Lib/lvgl/src/core/../misc/lv_anim.h **** 
 288:Lib/lvgl/src/core/../misc/lv_anim.h **** /**
 289:Lib/lvgl/src/core/../misc/lv_anim.h ****  * Set a function to use the current value of the variable and make start and end value
 290:Lib/lvgl/src/core/../misc/lv_anim.h ****  * relative to the returned current value.
 291:Lib/lvgl/src/core/../misc/lv_anim.h ****  * @param a             pointer to an initialized `lv_anim_t` variable
 292:Lib/lvgl/src/core/../misc/lv_anim.h ****  * @param get_value_cb  a function call when the animation starts
 293:Lib/lvgl/src/core/../misc/lv_anim.h ****  */
 294:Lib/lvgl/src/core/../misc/lv_anim.h **** static inline void lv_anim_set_get_value_cb(lv_anim_t * a, lv_anim_get_value_cb_t get_value_cb)
 295:Lib/lvgl/src/core/../misc/lv_anim.h **** {
 296:Lib/lvgl/src/core/../misc/lv_anim.h ****     a->get_value_cb = get_value_cb;
 297:Lib/lvgl/src/core/../misc/lv_anim.h **** }
 298:Lib/lvgl/src/core/../misc/lv_anim.h **** 
 299:Lib/lvgl/src/core/../misc/lv_anim.h **** /**
 300:Lib/lvgl/src/core/../misc/lv_anim.h ****  * Set a function call when the animation is completed
 301:Lib/lvgl/src/core/../misc/lv_anim.h ****  * @param a             pointer to an initialized `lv_anim_t` variable
 302:Lib/lvgl/src/core/../misc/lv_anim.h ****  * @param completed_cb  a function call when the animation is fully completed
 303:Lib/lvgl/src/core/../misc/lv_anim.h ****  */
 304:Lib/lvgl/src/core/../misc/lv_anim.h **** static inline void lv_anim_set_completed_cb(lv_anim_t * a, lv_anim_completed_cb_t completed_cb)
 5063              		.loc 9 304 20 view .LVU1525
 5064              	.LBB301:
 305:Lib/lvgl/src/core/../misc/lv_anim.h **** {
 306:Lib/lvgl/src/core/../misc/lv_anim.h ****     a->completed_cb = completed_cb;
 5065              		.loc 9 306 5 view .LVU1526
 5066              		.loc 9 306 21 is_stmt 0 view .LVU1527
 5067 00a2 2D4B     		ldr	r3, .L393+12
ARM GAS  C:\Users\Alex\AppData\Local\Temp\ccdKwz1H.s 			page 170


 5068 00a4 0493     		str	r3, [sp, #16]
 5069              	.LVL470:
 5070              		.loc 9 306 21 view .LVU1528
 5071              	.LBE301:
 5072              	.LBE300:
 526:Lib/lvgl/src/core/lv_obj_style.c ****     lv_anim_set_duration(&a, tr_dsc->time);
 5073              		.loc 1 526 5 is_stmt 1 view .LVU1529
 5074              	.LBB302:
 5075              	.LBI302:
 248:Lib/lvgl/src/core/../misc/lv_anim.h **** {
 5076              		.loc 9 248 20 view .LVU1530
 5077              	.LBB303:
 250:Lib/lvgl/src/core/../misc/lv_anim.h ****     a->current_value = INT32_MIN;
 5078              		.loc 9 250 5 view .LVU1531
 250:Lib/lvgl/src/core/../misc/lv_anim.h ****     a->current_value = INT32_MIN;
 5079              		.loc 9 250 20 is_stmt 0 view .LVU1532
 5080 00a6 0022     		movs	r2, #0
 5081 00a8 0992     		str	r2, [sp, #36]
 251:Lib/lvgl/src/core/../misc/lv_anim.h ****     a->end_value = end;
 5082              		.loc 9 251 5 is_stmt 1 view .LVU1533
 251:Lib/lvgl/src/core/../misc/lv_anim.h ****     a->end_value = end;
 5083              		.loc 9 251 22 is_stmt 0 view .LVU1534
 5084 00aa 4FF00043 		mov	r3, #-2147483648
 5085 00ae 0A93     		str	r3, [sp, #40]
 252:Lib/lvgl/src/core/../misc/lv_anim.h **** }
 5086              		.loc 9 252 5 is_stmt 1 view .LVU1535
 252:Lib/lvgl/src/core/../misc/lv_anim.h **** }
 5087              		.loc 9 252 18 is_stmt 0 view .LVU1536
 5088 00b0 FF23     		movs	r3, #255
 5089 00b2 0B93     		str	r3, [sp, #44]
 5090              	.LVL471:
 252:Lib/lvgl/src/core/../misc/lv_anim.h **** }
 5091              		.loc 9 252 18 view .LVU1537
 5092              	.LBE303:
 5093              	.LBE302:
 527:Lib/lvgl/src/core/lv_obj_style.c ****     lv_anim_set_delay(&a, tr_dsc->delay);
 5094              		.loc 1 527 5 is_stmt 1 view .LVU1538
 527:Lib/lvgl/src/core/lv_obj_style.c ****     lv_anim_set_delay(&a, tr_dsc->delay);
 5095              		.loc 1 527 36 is_stmt 0 view .LVU1539
 5096 00b4 2B88     		ldrh	r3, [r5]
 5097              	.LVL472:
 5098              	.LBB304:
 5099              	.LBI304:
 219:Lib/lvgl/src/core/../misc/lv_anim.h **** {
 5100              		.loc 9 219 20 is_stmt 1 view .LVU1540
 5101              	.LBB305:
 221:Lib/lvgl/src/core/../misc/lv_anim.h **** }
 5102              		.loc 9 221 5 view .LVU1541
 221:Lib/lvgl/src/core/../misc/lv_anim.h **** }
 5103              		.loc 9 221 17 is_stmt 0 view .LVU1542
 5104 00b6 0C93     		str	r3, [sp, #48]
 5105              	.LVL473:
 221:Lib/lvgl/src/core/../misc/lv_anim.h **** }
 5106              		.loc 9 221 17 view .LVU1543
 5107              	.LBE305:
 5108              	.LBE304:
 528:Lib/lvgl/src/core/lv_obj_style.c ****     lv_anim_set_path_cb(&a, tr_dsc->path_cb);
ARM GAS  C:\Users\Alex\AppData\Local\Temp\ccdKwz1H.s 			page 171


 5109              		.loc 1 528 5 is_stmt 1 view .LVU1544
 528:Lib/lvgl/src/core/lv_obj_style.c ****     lv_anim_set_path_cb(&a, tr_dsc->path_cb);
 5110              		.loc 1 528 33 is_stmt 0 view .LVU1545
 5111 00b8 6B88     		ldrh	r3, [r5, #2]
 5112              	.LVL474:
 5113              	.LBB306:
 5114              	.LBI306:
 237:Lib/lvgl/src/core/../misc/lv_anim.h **** {
 5115              		.loc 9 237 20 is_stmt 1 view .LVU1546
 5116              	.LBB307:
 239:Lib/lvgl/src/core/../misc/lv_anim.h **** }
 5117              		.loc 9 239 5 view .LVU1547
 239:Lib/lvgl/src/core/../misc/lv_anim.h **** }
 5118              		.loc 9 239 19 is_stmt 0 view .LVU1548
 5119 00ba 5B42     		rsbs	r3, r3, #0
 5120              	.LVL475:
 239:Lib/lvgl/src/core/../misc/lv_anim.h **** }
 5121              		.loc 9 239 17 view .LVU1549
 5122 00bc 0D93     		str	r3, [sp, #52]
 5123              	.LVL476:
 239:Lib/lvgl/src/core/../misc/lv_anim.h **** }
 5124              		.loc 9 239 17 view .LVU1550
 5125              	.LBE307:
 5126              	.LBE306:
 529:Lib/lvgl/src/core/lv_obj_style.c ****     lv_anim_set_early_apply(&a, false);
 5127              		.loc 1 529 5 is_stmt 1 view .LVU1551
 529:Lib/lvgl/src/core/lv_obj_style.c ****     lv_anim_set_early_apply(&a, false);
 5128              		.loc 1 529 35 is_stmt 0 view .LVU1552
 5129 00be EB68     		ldr	r3, [r5, #12]
 5130              	.LVL477:
 5131              	.LBB308:
 5132              	.LBI308:
 273:Lib/lvgl/src/core/../misc/lv_anim.h **** {
 5133              		.loc 9 273 20 is_stmt 1 view .LVU1553
 5134              	.LBB309:
 275:Lib/lvgl/src/core/../misc/lv_anim.h **** }
 5135              		.loc 9 275 5 view .LVU1554
 275:Lib/lvgl/src/core/../misc/lv_anim.h **** }
 5136              		.loc 9 275 16 is_stmt 0 view .LVU1555
 5137 00c0 0893     		str	r3, [sp, #32]
 5138              	.LVL478:
 275:Lib/lvgl/src/core/../misc/lv_anim.h **** }
 5139              		.loc 9 275 16 view .LVU1556
 5140              	.LBE309:
 5141              	.LBE308:
 530:Lib/lvgl/src/core/lv_obj_style.c ****     lv_anim_set_user_data(&a, tr_dsc->user_data);
 5142              		.loc 1 530 5 is_stmt 1 view .LVU1557
 5143              	.LBB310:
 5144              	.LBI310:
 307:Lib/lvgl/src/core/../misc/lv_anim.h **** }
 308:Lib/lvgl/src/core/../misc/lv_anim.h **** 
 309:Lib/lvgl/src/core/../misc/lv_anim.h **** /**
 310:Lib/lvgl/src/core/../misc/lv_anim.h ****  * Set a function call when the animation is deleted.
 311:Lib/lvgl/src/core/../misc/lv_anim.h ****  * @param a         pointer to an initialized `lv_anim_t` variable
 312:Lib/lvgl/src/core/../misc/lv_anim.h ****  * @param deleted_cb  a function call when the animation is deleted
 313:Lib/lvgl/src/core/../misc/lv_anim.h ****  */
 314:Lib/lvgl/src/core/../misc/lv_anim.h **** static inline void lv_anim_set_deleted_cb(lv_anim_t * a, lv_anim_deleted_cb_t deleted_cb)
ARM GAS  C:\Users\Alex\AppData\Local\Temp\ccdKwz1H.s 			page 172


 315:Lib/lvgl/src/core/../misc/lv_anim.h **** {
 316:Lib/lvgl/src/core/../misc/lv_anim.h ****     a->deleted_cb = deleted_cb;
 317:Lib/lvgl/src/core/../misc/lv_anim.h **** }
 318:Lib/lvgl/src/core/../misc/lv_anim.h **** 
 319:Lib/lvgl/src/core/../misc/lv_anim.h **** /**
 320:Lib/lvgl/src/core/../misc/lv_anim.h ****  * Make the animation to play back to when the forward direction is ready
 321:Lib/lvgl/src/core/../misc/lv_anim.h ****  * @param a         pointer to an initialized `lv_anim_t` variable
 322:Lib/lvgl/src/core/../misc/lv_anim.h ****  * @param time      the duration of the playback animation in milliseconds. 0: disable playback
 323:Lib/lvgl/src/core/../misc/lv_anim.h ****  */
 324:Lib/lvgl/src/core/../misc/lv_anim.h **** static inline void lv_anim_set_playback_duration(lv_anim_t * a, uint32_t duration)
 325:Lib/lvgl/src/core/../misc/lv_anim.h **** {
 326:Lib/lvgl/src/core/../misc/lv_anim.h ****     a->playback_duration = duration;
 327:Lib/lvgl/src/core/../misc/lv_anim.h **** }
 328:Lib/lvgl/src/core/../misc/lv_anim.h **** 
 329:Lib/lvgl/src/core/../misc/lv_anim.h **** /**
 330:Lib/lvgl/src/core/../misc/lv_anim.h ****  * Legacy `lv_anim_set_playback_time` API will be removed soon, use `lv_anim_set_playback_duration`
 331:Lib/lvgl/src/core/../misc/lv_anim.h ****  */
 332:Lib/lvgl/src/core/../misc/lv_anim.h **** static inline void lv_anim_set_playback_time(lv_anim_t * a, uint32_t duration)
 333:Lib/lvgl/src/core/../misc/lv_anim.h **** {
 334:Lib/lvgl/src/core/../misc/lv_anim.h ****     lv_anim_set_playback_duration(a, duration);
 335:Lib/lvgl/src/core/../misc/lv_anim.h **** }
 336:Lib/lvgl/src/core/../misc/lv_anim.h **** 
 337:Lib/lvgl/src/core/../misc/lv_anim.h **** /**
 338:Lib/lvgl/src/core/../misc/lv_anim.h ****  * Make the animation to play back to when the forward direction is ready
 339:Lib/lvgl/src/core/../misc/lv_anim.h ****  * @param a         pointer to an initialized `lv_anim_t` variable
 340:Lib/lvgl/src/core/../misc/lv_anim.h ****  * @param delay     delay in milliseconds before starting the playback animation.
 341:Lib/lvgl/src/core/../misc/lv_anim.h ****  */
 342:Lib/lvgl/src/core/../misc/lv_anim.h **** static inline void lv_anim_set_playback_delay(lv_anim_t * a, uint32_t delay)
 343:Lib/lvgl/src/core/../misc/lv_anim.h **** {
 344:Lib/lvgl/src/core/../misc/lv_anim.h ****     a->playback_delay = delay;
 345:Lib/lvgl/src/core/../misc/lv_anim.h **** }
 346:Lib/lvgl/src/core/../misc/lv_anim.h **** 
 347:Lib/lvgl/src/core/../misc/lv_anim.h **** /**
 348:Lib/lvgl/src/core/../misc/lv_anim.h ****  * Make the animation repeat itself.
 349:Lib/lvgl/src/core/../misc/lv_anim.h ****  * @param a         pointer to an initialized `lv_anim_t` variable
 350:Lib/lvgl/src/core/../misc/lv_anim.h ****  * @param cnt       repeat count or `LV_ANIM_REPEAT_INFINITE` for infinite repetition. 0: to disabl
 351:Lib/lvgl/src/core/../misc/lv_anim.h ****  */
 352:Lib/lvgl/src/core/../misc/lv_anim.h **** static inline void lv_anim_set_repeat_count(lv_anim_t * a, uint16_t cnt)
 353:Lib/lvgl/src/core/../misc/lv_anim.h **** {
 354:Lib/lvgl/src/core/../misc/lv_anim.h ****     a->repeat_cnt = cnt;
 355:Lib/lvgl/src/core/../misc/lv_anim.h **** }
 356:Lib/lvgl/src/core/../misc/lv_anim.h **** 
 357:Lib/lvgl/src/core/../misc/lv_anim.h **** /**
 358:Lib/lvgl/src/core/../misc/lv_anim.h ****  * Set a delay before repeating the animation.
 359:Lib/lvgl/src/core/../misc/lv_anim.h ****  * @param a         pointer to an initialized `lv_anim_t` variable
 360:Lib/lvgl/src/core/../misc/lv_anim.h ****  * @param delay     delay in milliseconds before repeating the animation.
 361:Lib/lvgl/src/core/../misc/lv_anim.h ****  */
 362:Lib/lvgl/src/core/../misc/lv_anim.h **** static inline void lv_anim_set_repeat_delay(lv_anim_t * a, uint32_t delay)
 363:Lib/lvgl/src/core/../misc/lv_anim.h **** {
 364:Lib/lvgl/src/core/../misc/lv_anim.h ****     a->repeat_delay = delay;
 365:Lib/lvgl/src/core/../misc/lv_anim.h **** }
 366:Lib/lvgl/src/core/../misc/lv_anim.h **** 
 367:Lib/lvgl/src/core/../misc/lv_anim.h **** /**
 368:Lib/lvgl/src/core/../misc/lv_anim.h ****  * Set a whether the animation's should be applied immediately or only when the delay expired.
 369:Lib/lvgl/src/core/../misc/lv_anim.h ****  * @param a         pointer to an initialized `lv_anim_t` variable
 370:Lib/lvgl/src/core/../misc/lv_anim.h ****  * @param en        true: apply the start value immediately in `lv_anim_start`;
 371:Lib/lvgl/src/core/../misc/lv_anim.h ****  *                  false: apply the start value only when `delay` ms is elapsed and the animations
ARM GAS  C:\Users\Alex\AppData\Local\Temp\ccdKwz1H.s 			page 173


 372:Lib/lvgl/src/core/../misc/lv_anim.h ****  */
 373:Lib/lvgl/src/core/../misc/lv_anim.h **** static inline void lv_anim_set_early_apply(lv_anim_t * a, bool en)
 5145              		.loc 9 373 20 view .LVU1558
 5146              	.LBB311:
 374:Lib/lvgl/src/core/../misc/lv_anim.h **** {
 375:Lib/lvgl/src/core/../misc/lv_anim.h ****     a->early_apply = en;
 5147              		.loc 9 375 5 view .LVU1559
 5148              		.loc 9 375 20 is_stmt 0 view .LVU1560
 5149 00c2 9DF84E30 		ldrb	r3, [sp, #78]	@ zero_extendqisi2
 5150 00c6 62F30003 		bfi	r3, r2, #0, #1
 5151 00ca 8DF84E30 		strb	r3, [sp, #78]
 5152              	.LVL479:
 5153              		.loc 9 375 20 view .LVU1561
 5154              	.LBE311:
 5155              	.LBE310:
 531:Lib/lvgl/src/core/lv_obj_style.c ****     lv_anim_start(&a);
 5156              		.loc 1 531 5 is_stmt 1 view .LVU1562
 531:Lib/lvgl/src/core/lv_obj_style.c ****     lv_anim_start(&a);
 5157              		.loc 1 531 37 is_stmt 0 view .LVU1563
 5158 00ce 2B69     		ldr	r3, [r5, #16]
 5159              	.LVL480:
 5160              	.LBB312:
 5161              	.LBI312:
 376:Lib/lvgl/src/core/../misc/lv_anim.h **** }
 377:Lib/lvgl/src/core/../misc/lv_anim.h **** 
 378:Lib/lvgl/src/core/../misc/lv_anim.h **** /**
 379:Lib/lvgl/src/core/../misc/lv_anim.h ****  * Set the custom user data field of the animation.
 380:Lib/lvgl/src/core/../misc/lv_anim.h ****  * @param a           pointer to an initialized `lv_anim_t` variable
 381:Lib/lvgl/src/core/../misc/lv_anim.h ****  * @param user_data   pointer to the new user_data.
 382:Lib/lvgl/src/core/../misc/lv_anim.h ****  */
 383:Lib/lvgl/src/core/../misc/lv_anim.h **** static inline void lv_anim_set_user_data(lv_anim_t * a, void * user_data)
 5162              		.loc 9 383 20 is_stmt 1 view .LVU1564
 5163              	.LBB313:
 384:Lib/lvgl/src/core/../misc/lv_anim.h **** {
 385:Lib/lvgl/src/core/../misc/lv_anim.h ****     a->user_data = user_data;
 5164              		.loc 9 385 5 view .LVU1565
 5165              		.loc 9 385 18 is_stmt 0 view .LVU1566
 5166 00d0 0793     		str	r3, [sp, #28]
 5167              	.LVL481:
 5168              		.loc 9 385 18 view .LVU1567
 5169              	.LBE313:
 5170              	.LBE312:
 532:Lib/lvgl/src/core/lv_obj_style.c **** }
 5171              		.loc 1 532 5 is_stmt 1 view .LVU1568
 5172 00d2 6846     		mov	r0, sp
 5173 00d4 FFF7FEFF 		bl	lv_anim_start
 5174              	.LVL482:
 5175              	.L377:
 533:Lib/lvgl/src/core/lv_obj_style.c **** 
 5176              		.loc 1 533 1 is_stmt 0 view .LVU1569
 5177 00d8 19B0     		add	sp, sp, #100
 5178              	.LCFI63:
 5179              		.cfi_remember_state
 5180              		.cfi_def_cfa_offset 28
 5181              		@ sp needed
 5182 00da BDE8F083 		pop	{r4, r5, r6, r7, r8, r9, pc}
 5183              	.LVL483:
ARM GAS  C:\Users\Alex\AppData\Local\Temp\ccdKwz1H.s 			page 174


 5184              	.L390:
 5185              	.LCFI64:
 5186              		.cfi_restore_state
 494:Lib/lvgl/src/core/lv_obj_style.c ****     obj->state = prev_state;
 5187              		.loc 1 494 25 discriminator 1 view .LVU1570
 5188 00de B4D1     		bne	.L378
 494:Lib/lvgl/src/core/lv_obj_style.c ****     obj->state = prev_state;
 5189              		.loc 1 494 48 discriminator 2 view .LVU1571
 5190 00e0 0146     		mov	r1, r0
 5191 00e2 1846     		mov	r0, r3
 5192 00e4 FFF7FEFF 		bl	lv_color_eq
 5193              	.LVL484:
 494:Lib/lvgl/src/core/lv_obj_style.c ****     obj->state = prev_state;
 5194              		.loc 1 494 45 discriminator 2 view .LVU1572
 5195 00e8 0028     		cmp	r0, #0
 5196 00ea AED0     		beq	.L378
 5197 00ec F4E7     		b	.L377
 5198              	.LVL485:
 5199              	.L391:
 503:Lib/lvgl/src/core/lv_obj_style.c ****             int32_t whalf = lv_obj_get_width(obj) / 2;
 5200              		.loc 1 503 9 is_stmt 1 view .LVU1573
 503:Lib/lvgl/src/core/lv_obj_style.c ****             int32_t whalf = lv_obj_get_width(obj) / 2;
 5201              		.loc 1 503 14 is_stmt 0 view .LVU1574
 5202 00ee DDF85C90 		ldr	r9, [sp, #92]
 503:Lib/lvgl/src/core/lv_obj_style.c ****             int32_t whalf = lv_obj_get_width(obj) / 2;
 5203              		.loc 1 503 11 view .LVU1575
 5204 00f2 47F6FF73 		movw	r3, #32767
 5205 00f6 9945     		cmp	r9, r3
 5206 00f8 01D0     		beq	.L381
 503:Lib/lvgl/src/core/lv_obj_style.c ****             int32_t whalf = lv_obj_get_width(obj) / 2;
 5207              		.loc 1 503 39 discriminator 1 view .LVU1576
 5208 00fa 9F42     		cmp	r7, r3
 5209 00fc BBD1     		bne	.L380
 5210              	.L381:
 5211              	.LBB314:
 504:Lib/lvgl/src/core/lv_obj_style.c ****             int32_t hhalf = lv_obj_get_height(obj) / 2;
 5212              		.loc 1 504 13 is_stmt 1 view .LVU1577
 504:Lib/lvgl/src/core/lv_obj_style.c ****             int32_t hhalf = lv_obj_get_height(obj) / 2;
 5213              		.loc 1 504 29 is_stmt 0 view .LVU1578
 5214 00fe 2046     		mov	r0, r4
 5215 0100 FFF7FEFF 		bl	lv_obj_get_width
 5216              	.LVL486:
 504:Lib/lvgl/src/core/lv_obj_style.c ****             int32_t hhalf = lv_obj_get_height(obj) / 2;
 5217              		.loc 1 504 21 view .LVU1579
 5218 0104 00EBD070 		add	r0, r0, r0, lsr #31
 5219 0108 4FEA6008 		asr	r8, r0, #1
 5220              	.LVL487:
 505:Lib/lvgl/src/core/lv_obj_style.c ****             if(v1.num == LV_RADIUS_CIRCLE) v1.num = LV_MIN(whalf + 1, hhalf + 1);
 5221              		.loc 1 505 13 is_stmt 1 view .LVU1580
 505:Lib/lvgl/src/core/lv_obj_style.c ****             if(v1.num == LV_RADIUS_CIRCLE) v1.num = LV_MIN(whalf + 1, hhalf + 1);
 5222              		.loc 1 505 29 is_stmt 0 view .LVU1581
 5223 010c 2046     		mov	r0, r4
 5224 010e FFF7FEFF 		bl	lv_obj_get_height
 5225              	.LVL488:
 505:Lib/lvgl/src/core/lv_obj_style.c ****             if(v1.num == LV_RADIUS_CIRCLE) v1.num = LV_MIN(whalf + 1, hhalf + 1);
 5226              		.loc 1 505 21 view .LVU1582
 5227 0112 00EBD070 		add	r0, r0, r0, lsr #31
ARM GAS  C:\Users\Alex\AppData\Local\Temp\ccdKwz1H.s 			page 175


 5228 0116 4310     		asrs	r3, r0, #1
 5229              	.LVL489:
 506:Lib/lvgl/src/core/lv_obj_style.c ****             if(v2.num == LV_RADIUS_CIRCLE) v2.num = LV_MIN(whalf + 1, hhalf + 1);
 5230              		.loc 1 506 13 is_stmt 1 view .LVU1583
 506:Lib/lvgl/src/core/lv_obj_style.c ****             if(v2.num == LV_RADIUS_CIRCLE) v2.num = LV_MIN(whalf + 1, hhalf + 1);
 5231              		.loc 1 506 15 is_stmt 0 view .LVU1584
 5232 0118 47F6FF72 		movw	r2, #32767
 5233 011c 9145     		cmp	r9, r2
 5234 011e 09D0     		beq	.L392
 5235              	.L382:
 507:Lib/lvgl/src/core/lv_obj_style.c ****         }
 5236              		.loc 1 507 13 is_stmt 1 view .LVU1585
 507:Lib/lvgl/src/core/lv_obj_style.c ****         }
 5237              		.loc 1 507 15 is_stmt 0 view .LVU1586
 5238 0120 47F6FF72 		movw	r2, #32767
 5239 0124 9742     		cmp	r7, r2
 5240 0126 A6D1     		bne	.L380
 507:Lib/lvgl/src/core/lv_obj_style.c ****         }
 5241              		.loc 1 507 44 is_stmt 1 discriminator 1 view .LVU1587
 507:Lib/lvgl/src/core/lv_obj_style.c ****         }
 5242              		.loc 1 507 53 is_stmt 0 discriminator 1 view .LVU1588
 5243 0128 9845     		cmp	r8, r3
 5244 012a 0BDA     		bge	.L385
 507:Lib/lvgl/src/core/lv_obj_style.c ****         }
 5245              		.loc 1 507 53 discriminator 2 view .LVU1589
 5246 012c 08F10103 		add	r3, r8, #1
 5247              	.LVL490:
 5248              	.L386:
 507:Lib/lvgl/src/core/lv_obj_style.c ****         }
 5249              		.loc 1 507 51 discriminator 5 view .LVU1590
 5250 0130 1693     		str	r3, [sp, #88]
 5251 0132 A0E7     		b	.L380
 5252              	.LVL491:
 5253              	.L392:
 506:Lib/lvgl/src/core/lv_obj_style.c ****             if(v2.num == LV_RADIUS_CIRCLE) v2.num = LV_MIN(whalf + 1, hhalf + 1);
 5254              		.loc 1 506 44 is_stmt 1 discriminator 1 view .LVU1591
 506:Lib/lvgl/src/core/lv_obj_style.c ****             if(v2.num == LV_RADIUS_CIRCLE) v2.num = LV_MIN(whalf + 1, hhalf + 1);
 5255              		.loc 1 506 53 is_stmt 0 discriminator 1 view .LVU1592
 5256 0134 9845     		cmp	r8, r3
 5257 0136 03DA     		bge	.L383
 506:Lib/lvgl/src/core/lv_obj_style.c ****             if(v2.num == LV_RADIUS_CIRCLE) v2.num = LV_MIN(whalf + 1, hhalf + 1);
 5258              		.loc 1 506 53 discriminator 2 view .LVU1593
 5259 0138 08F10102 		add	r2, r8, #1
 5260              	.L384:
 506:Lib/lvgl/src/core/lv_obj_style.c ****             if(v2.num == LV_RADIUS_CIRCLE) v2.num = LV_MIN(whalf + 1, hhalf + 1);
 5261              		.loc 1 506 51 discriminator 5 view .LVU1594
 5262 013c 1792     		str	r2, [sp, #92]
 5263 013e EFE7     		b	.L382
 5264              	.L383:
 506:Lib/lvgl/src/core/lv_obj_style.c ****             if(v2.num == LV_RADIUS_CIRCLE) v2.num = LV_MIN(whalf + 1, hhalf + 1);
 5265              		.loc 1 506 53 discriminator 3 view .LVU1595
 5266 0140 5A1C     		adds	r2, r3, #1
 5267 0142 FBE7     		b	.L384
 5268              	.L385:
 507:Lib/lvgl/src/core/lv_obj_style.c ****         }
 5269              		.loc 1 507 53 discriminator 3 view .LVU1596
 5270 0144 0133     		adds	r3, r3, #1
ARM GAS  C:\Users\Alex\AppData\Local\Temp\ccdKwz1H.s 			page 176


 5271              	.LVL492:
 507:Lib/lvgl/src/core/lv_obj_style.c ****         }
 5272              		.loc 1 507 53 discriminator 3 view .LVU1597
 5273 0146 F3E7     		b	.L386
 5274              	.LVL493:
 5275              	.L388:
 507:Lib/lvgl/src/core/lv_obj_style.c ****         }
 5276              		.loc 1 507 53 discriminator 3 view .LVU1598
 5277              	.LBE314:
 512:Lib/lvgl/src/core/lv_obj_style.c ****     if(tr == NULL) return;
 5278              		.loc 1 512 5 is_stmt 1 discriminator 1 view .LVU1599
 512:Lib/lvgl/src/core/lv_obj_style.c ****     if(tr == NULL) return;
 5279              		.loc 1 512 5 discriminator 1 view .LVU1600
 512:Lib/lvgl/src/core/lv_obj_style.c ****     if(tr == NULL) return;
 5280              		.loc 1 512 5 discriminator 1 view .LVU1601
 512:Lib/lvgl/src/core/lv_obj_style.c ****     if(tr == NULL) return;
 5281              		.loc 1 512 5 discriminator 1 view .LVU1602
 512:Lib/lvgl/src/core/lv_obj_style.c ****     if(tr == NULL) return;
 5282              		.loc 1 512 5 discriminator 1 view .LVU1603
 5283 0148 FEE7     		b	.L388
 5284              	.L394:
 5285 014a 00BF     		.align	2
 5286              	.L393:
 5287 014c 18000000 		.word	lv_global+24
 5288 0150 00000000 		.word	trans_anim_cb
 5289 0154 00000000 		.word	trans_anim_start_cb
 5290 0158 00000000 		.word	trans_anim_completed_cb
 5291              		.cfi_endproc
 5292              	.LFE249:
 5294              		.section	.text._lv_obj_style_apply_color_filter,"ax",%progbits
 5295              		.align	1
 5296              		.global	_lv_obj_style_apply_color_filter
 5297              		.syntax unified
 5298              		.thumb
 5299              		.thumb_func
 5301              	_lv_obj_style_apply_color_filter:
 5302              	.LVL494:
 5303              	.LFB250:
 536:Lib/lvgl/src/core/lv_obj_style.c ****     if(obj == NULL) return v;
 5304              		.loc 1 536 1 view -0
 5305              		.cfi_startproc
 5306              		@ args = 0, pretend = 0, frame = 16
 5307              		@ frame_needed = 0, uses_anonymous_args = 0
 536:Lib/lvgl/src/core/lv_obj_style.c ****     if(obj == NULL) return v;
 5308              		.loc 1 536 1 is_stmt 0 view .LVU1605
 5309 0000 70B5     		push	{r4, r5, r6, lr}
 5310              	.LCFI65:
 5311              		.cfi_def_cfa_offset 16
 5312              		.cfi_offset 4, -16
 5313              		.cfi_offset 5, -12
 5314              		.cfi_offset 6, -8
 5315              		.cfi_offset 14, -4
 5316 0002 84B0     		sub	sp, sp, #16
 5317              	.LCFI66:
 5318              		.cfi_def_cfa_offset 32
 5319 0004 0192     		str	r2, [sp, #4]
 537:Lib/lvgl/src/core/lv_obj_style.c ****     const lv_color_filter_dsc_t * f = lv_obj_get_style_color_filter_dsc(obj, part);
ARM GAS  C:\Users\Alex\AppData\Local\Temp\ccdKwz1H.s 			page 177


 5320              		.loc 1 537 5 is_stmt 1 view .LVU1606
 537:Lib/lvgl/src/core/lv_obj_style.c ****     const lv_color_filter_dsc_t * f = lv_obj_get_style_color_filter_dsc(obj, part);
 5321              		.loc 1 537 7 is_stmt 0 view .LVU1607
 5322 0006 28B3     		cbz	r0, .L400
 5323 0008 0D46     		mov	r5, r1
 5324 000a 0646     		mov	r6, r0
 538:Lib/lvgl/src/core/lv_obj_style.c ****     if(f && f->filter_cb) {
 5325              		.loc 1 538 5 is_stmt 1 view .LVU1608
 5326              	.LVL495:
 5327              	.LBB315:
 5328              	.LBI315:
 592:Lib/lvgl/src/core/lv_obj_style_gen.h **** {
 5329              		.loc 8 592 45 view .LVU1609
 5330              	.LBB316:
 594:Lib/lvgl/src/core/lv_obj_style_gen.h ****     return (const lv_color_filter_dsc_t *)v.ptr;
 5331              		.loc 8 594 5 view .LVU1610
 594:Lib/lvgl/src/core/lv_obj_style_gen.h ****     return (const lv_color_filter_dsc_t *)v.ptr;
 5332              		.loc 8 594 26 is_stmt 0 view .LVU1611
 5333 000c 6122     		movs	r2, #97
 5334 000e FFF7FEFF 		bl	lv_obj_get_style_prop
 5335              	.LVL496:
 594:Lib/lvgl/src/core/lv_obj_style_gen.h ****     return (const lv_color_filter_dsc_t *)v.ptr;
 5336              		.loc 8 594 26 view .LVU1612
 5337 0012 0446     		mov	r4, r0
 5338 0014 0290     		str	r0, [sp, #8]
 595:Lib/lvgl/src/core/lv_obj_style_gen.h **** }
 5339              		.loc 8 595 5 is_stmt 1 view .LVU1613
 5340              	.LVL497:
 595:Lib/lvgl/src/core/lv_obj_style_gen.h **** }
 5341              		.loc 8 595 5 is_stmt 0 view .LVU1614
 5342              	.LBE316:
 5343              	.LBE315:
 539:Lib/lvgl/src/core/lv_obj_style.c ****         lv_opa_t f_opa = lv_obj_get_style_color_filter_opa(obj, part);
 5344              		.loc 1 539 5 is_stmt 1 view .LVU1615
 539:Lib/lvgl/src/core/lv_obj_style.c ****         lv_opa_t f_opa = lv_obj_get_style_color_filter_opa(obj, part);
 5345              		.loc 1 539 7 is_stmt 0 view .LVU1616
 5346 0016 C0B1     		cbz	r0, .L398
 539:Lib/lvgl/src/core/lv_obj_style.c ****         lv_opa_t f_opa = lv_obj_get_style_color_filter_opa(obj, part);
 5347              		.loc 1 539 14 discriminator 1 view .LVU1617
 5348 0018 0368     		ldr	r3, [r0]
 539:Lib/lvgl/src/core/lv_obj_style.c ****         lv_opa_t f_opa = lv_obj_get_style_color_filter_opa(obj, part);
 5349              		.loc 1 539 10 discriminator 1 view .LVU1618
 5350 001a B3B1     		cbz	r3, .L398
 5351              	.LBB317:
 540:Lib/lvgl/src/core/lv_obj_style.c ****         if(f_opa != 0) v.color = f->filter_cb(f, v.color, f_opa);
 5352              		.loc 1 540 9 is_stmt 1 view .LVU1619
 5353              	.LVL498:
 5354              	.LBB318:
 5355              	.LBI318:
 598:Lib/lvgl/src/core/lv_obj_style_gen.h **** {
 5356              		.loc 8 598 24 view .LVU1620
 5357              	.LBB319:
 600:Lib/lvgl/src/core/lv_obj_style_gen.h ****     return (lv_opa_t)v.num;
 5358              		.loc 8 600 5 view .LVU1621
 600:Lib/lvgl/src/core/lv_obj_style_gen.h ****     return (lv_opa_t)v.num;
 5359              		.loc 8 600 26 is_stmt 0 view .LVU1622
 5360 001c 6222     		movs	r2, #98
ARM GAS  C:\Users\Alex\AppData\Local\Temp\ccdKwz1H.s 			page 178


 5361 001e 2946     		mov	r1, r5
 5362 0020 3046     		mov	r0, r6
 5363              	.LVL499:
 600:Lib/lvgl/src/core/lv_obj_style_gen.h ****     return (lv_opa_t)v.num;
 5364              		.loc 8 600 26 view .LVU1623
 5365 0022 FFF7FEFF 		bl	lv_obj_get_style_prop
 5366              	.LVL500:
 5367 0026 0290     		str	r0, [sp, #8]
 601:Lib/lvgl/src/core/lv_obj_style_gen.h **** }
 5368              		.loc 8 601 5 is_stmt 1 view .LVU1624
 5369              	.LVL501:
 601:Lib/lvgl/src/core/lv_obj_style_gen.h **** }
 5370              		.loc 8 601 5 is_stmt 0 view .LVU1625
 5371              	.LBE319:
 5372              	.LBE318:
 541:Lib/lvgl/src/core/lv_obj_style.c ****     }
 5373              		.loc 1 541 9 is_stmt 1 view .LVU1626
 541:Lib/lvgl/src/core/lv_obj_style.c ****     }
 5374              		.loc 1 541 11 is_stmt 0 view .LVU1627
 5375 0028 10F0FF02 		ands	r2, r0, #255
 5376 002c 0DD0     		beq	.L398
 541:Lib/lvgl/src/core/lv_obj_style.c ****     }
 5377              		.loc 1 541 24 is_stmt 1 discriminator 1 view .LVU1628
 541:Lib/lvgl/src/core/lv_obj_style.c ****     }
 5378              		.loc 1 541 35 is_stmt 0 discriminator 1 view .LVU1629
 5379 002e 2368     		ldr	r3, [r4]
 541:Lib/lvgl/src/core/lv_obj_style.c ****     }
 5380              		.loc 1 541 34 discriminator 1 view .LVU1630
 5381 0030 0199     		ldr	r1, [sp, #4]
 5382 0032 2046     		mov	r0, r4
 5383              	.LVL502:
 541:Lib/lvgl/src/core/lv_obj_style.c ****     }
 5384              		.loc 1 541 34 discriminator 1 view .LVU1631
 5385 0034 9847     		blx	r3
 5386              	.LVL503:
 541:Lib/lvgl/src/core/lv_obj_style.c ****     }
 5387              		.loc 1 541 34 discriminator 1 view .LVU1632
 5388 0036 8DF80400 		strb	r0, [sp, #4]
 5389 003a C0F30723 		ubfx	r3, r0, #8, #8
 5390 003e 8DF80530 		strb	r3, [sp, #5]
 5391 0042 C0F30740 		ubfx	r0, r0, #16, #8
 5392 0046 8DF80600 		strb	r0, [sp, #6]
 5393              	.LVL504:
 5394              	.L398:
 541:Lib/lvgl/src/core/lv_obj_style.c ****     }
 5395              		.loc 1 541 34 discriminator 1 view .LVU1633
 5396              	.LBE317:
 543:Lib/lvgl/src/core/lv_obj_style.c **** }
 5397              		.loc 1 543 5 is_stmt 1 view .LVU1634
 543:Lib/lvgl/src/core/lv_obj_style.c **** }
 5398              		.loc 1 543 12 is_stmt 0 view .LVU1635
 5399 004a 019B     		ldr	r3, [sp, #4]
 5400 004c 0393     		str	r3, [sp, #12]
 5401              	.LVL505:
 5402              	.L397:
 544:Lib/lvgl/src/core/lv_obj_style.c **** 
 5403              		.loc 1 544 1 view .LVU1636
ARM GAS  C:\Users\Alex\AppData\Local\Temp\ccdKwz1H.s 			page 179


 5404 004e 0398     		ldr	r0, [sp, #12]
 5405 0050 04B0     		add	sp, sp, #16
 5406              	.LCFI67:
 5407              		.cfi_remember_state
 5408              		.cfi_def_cfa_offset 16
 5409              		@ sp needed
 5410 0052 70BD     		pop	{r4, r5, r6, pc}
 5411              	.LVL506:
 5412              	.L400:
 5413              	.LCFI68:
 5414              		.cfi_restore_state
 537:Lib/lvgl/src/core/lv_obj_style.c ****     const lv_color_filter_dsc_t * f = lv_obj_get_style_color_filter_dsc(obj, part);
 5415              		.loc 1 537 21 is_stmt 1 discriminator 1 view .LVU1637
 537:Lib/lvgl/src/core/lv_obj_style.c ****     const lv_color_filter_dsc_t * f = lv_obj_get_style_color_filter_dsc(obj, part);
 5416              		.loc 1 537 28 is_stmt 0 discriminator 1 view .LVU1638
 5417 0054 0392     		str	r2, [sp, #12]
 5418 0056 FAE7     		b	.L397
 5419              		.cfi_endproc
 5420              	.LFE250:
 5422              		.section	.text._lv_obj_style_state_compare,"ax",%progbits
 5423              		.align	1
 5424              		.global	_lv_obj_style_state_compare
 5425              		.syntax unified
 5426              		.thumb
 5427              		.thumb_func
 5429              	_lv_obj_style_state_compare:
 5430              	.LVL507:
 5431              	.LFB251:
 547:Lib/lvgl/src/core/lv_obj_style.c ****     _lv_style_state_cmp_t res = _LV_STYLE_STATE_CMP_SAME;
 5432              		.loc 1 547 1 is_stmt 1 view -0
 5433              		.cfi_startproc
 5434              		@ args = 0, pretend = 0, frame = 8
 5435              		@ frame_needed = 0, uses_anonymous_args = 0
 547:Lib/lvgl/src/core/lv_obj_style.c ****     _lv_style_state_cmp_t res = _LV_STYLE_STATE_CMP_SAME;
 5436              		.loc 1 547 1 is_stmt 0 view .LVU1640
 5437 0000 2DE9F043 		push	{r4, r5, r6, r7, r8, r9, lr}
 5438              	.LCFI69:
 5439              		.cfi_def_cfa_offset 28
 5440              		.cfi_offset 4, -28
 5441              		.cfi_offset 5, -24
 5442              		.cfi_offset 6, -20
 5443              		.cfi_offset 7, -16
 5444              		.cfi_offset 8, -12
 5445              		.cfi_offset 9, -8
 5446              		.cfi_offset 14, -4
 5447 0004 83B0     		sub	sp, sp, #12
 5448              	.LCFI70:
 5449              		.cfi_def_cfa_offset 40
 5450 0006 0646     		mov	r6, r0
 5451 0008 8846     		mov	r8, r1
 5452 000a 1746     		mov	r7, r2
 548:Lib/lvgl/src/core/lv_obj_style.c **** 
 5453              		.loc 1 548 5 is_stmt 1 view .LVU1641
 5454              	.LVL508:
 551:Lib/lvgl/src/core/lv_obj_style.c ****     for(i = 0; i < obj->style_cnt; i++) {
 5455              		.loc 1 551 5 view .LVU1642
 552:Lib/lvgl/src/core/lv_obj_style.c ****         if(obj->styles[i].is_trans) continue;
ARM GAS  C:\Users\Alex\AppData\Local\Temp\ccdKwz1H.s 			page 180


 5456              		.loc 1 552 5 view .LVU1643
 552:Lib/lvgl/src/core/lv_obj_style.c ****         if(obj->styles[i].is_trans) continue;
 5457              		.loc 1 552 11 is_stmt 0 view .LVU1644
 5458 000c 0025     		movs	r5, #0
 548:Lib/lvgl/src/core/lv_obj_style.c **** 
 5459              		.loc 1 548 27 view .LVU1645
 5460 000e A946     		mov	r9, r5
 552:Lib/lvgl/src/core/lv_obj_style.c ****         if(obj->styles[i].is_trans) continue;
 5461              		.loc 1 552 5 view .LVU1646
 5462 0010 10E0     		b	.L402
 5463              	.LVL509:
 5464              	.L404:
 5465              	.LBB320:
 5466              	.LBB321:
 582:Lib/lvgl/src/core/lv_obj_style.c ****             }
 5467              		.loc 1 582 17 is_stmt 1 view .LVU1647
 582:Lib/lvgl/src/core/lv_obj_style.c ****             }
 5468              		.loc 1 582 24 is_stmt 0 view .LVU1648
 5469 0012 4FF00309 		mov	r9, #3
 5470              	.LVL510:
 5471              	.L407:
 582:Lib/lvgl/src/core/lv_obj_style.c ****             }
 5472              		.loc 1 582 24 view .LVU1649
 5473              	.LBE321:
 5474              	.LBE320:
 605:Lib/lvgl/src/core/lv_obj_style.c **** 
 5475              		.loc 1 605 1 view .LVU1650
 5476 0016 4846     		mov	r0, r9
 5477 0018 03B0     		add	sp, sp, #12
 5478              	.LCFI71:
 5479              		.cfi_remember_state
 5480              		.cfi_def_cfa_offset 28
 5481              		@ sp needed
 5482 001a BDE8F083 		pop	{r4, r5, r6, r7, r8, r9, pc}
 5483              	.LVL511:
 5484              	.L427:
 5485              	.LCFI72:
 5486              		.cfi_restore_state
 5487              	.LBB326:
 5488              	.LBB322:
 587:Lib/lvgl/src/core/lv_obj_style.c ****             else if(lv_style_get_prop(style, LV_STYLE_TRANSFORM_ROTATION, &v)) res = _LV_STYLE_STAT
 5489              		.loc 1 587 18 is_stmt 1 view .LVU1651
 587:Lib/lvgl/src/core/lv_obj_style.c ****             else if(lv_style_get_prop(style, LV_STYLE_TRANSFORM_ROTATION, &v)) res = _LV_STYLE_STAT
 5490              		.loc 1 587 21 is_stmt 0 view .LVU1652
 5491 001e 01AA     		add	r2, sp, #4
 5492 0020 6921     		movs	r1, #105
 5493 0022 2046     		mov	r0, r4
 5494 0024 FFF7FEFF 		bl	lv_style_get_prop
 5495              	.LVL512:
 587:Lib/lvgl/src/core/lv_obj_style.c ****             else if(lv_style_get_prop(style, LV_STYLE_TRANSFORM_ROTATION, &v)) res = _LV_STYLE_STAT
 5496              		.loc 1 587 20 view .LVU1653
 5497 0028 0028     		cmp	r0, #0
 5498 002a 00F09C80 		beq	.L426
 587:Lib/lvgl/src/core/lv_obj_style.c ****             else if(lv_style_get_prop(style, LV_STYLE_TRANSFORM_ROTATION, &v)) res = _LV_STYLE_STAT
 5499              		.loc 1 587 82 view .LVU1654
 5500 002e 4FF00209 		mov	r9, #2
 5501              	.LVL513:
ARM GAS  C:\Users\Alex\AppData\Local\Temp\ccdKwz1H.s 			page 181


 5502              	.L403:
 587:Lib/lvgl/src/core/lv_obj_style.c ****             else if(lv_style_get_prop(style, LV_STYLE_TRANSFORM_ROTATION, &v)) res = _LV_STYLE_STAT
 5503              		.loc 1 587 82 view .LVU1655
 5504              	.LBE322:
 5505              	.LBE326:
 552:Lib/lvgl/src/core/lv_obj_style.c ****         if(obj->styles[i].is_trans) continue;
 5506              		.loc 1 552 37 is_stmt 1 discriminator 2 view .LVU1656
 5507 0032 0135     		adds	r5, r5, #1
 5508              	.LVL514:
 5509              	.L402:
 552:Lib/lvgl/src/core/lv_obj_style.c ****         if(obj->styles[i].is_trans) continue;
 5510              		.loc 1 552 18 discriminator 1 view .LVU1657
 552:Lib/lvgl/src/core/lv_obj_style.c ****         if(obj->styles[i].is_trans) continue;
 5511              		.loc 1 552 23 is_stmt 0 discriminator 1 view .LVU1658
 5512 0034 738D     		ldrh	r3, [r6, #42]
 5513 0036 C3F30513 		ubfx	r3, r3, #4, #6
 552:Lib/lvgl/src/core/lv_obj_style.c ****         if(obj->styles[i].is_trans) continue;
 5514              		.loc 1 552 18 discriminator 1 view .LVU1659
 5515 003a AB42     		cmp	r3, r5
 5516 003c EBD9     		bls	.L407
 5517              	.LBB327:
 553:Lib/lvgl/src/core/lv_obj_style.c **** 
 5518              		.loc 1 553 9 is_stmt 1 view .LVU1660
 553:Lib/lvgl/src/core/lv_obj_style.c **** 
 5519              		.loc 1 553 15 is_stmt 0 view .LVU1661
 5520 003e F268     		ldr	r2, [r6, #12]
 553:Lib/lvgl/src/core/lv_obj_style.c **** 
 5521              		.loc 1 553 23 view .LVU1662
 5522 0040 E800     		lsls	r0, r5, #3
 5523 0042 02EBC503 		add	r3, r2, r5, lsl #3
 553:Lib/lvgl/src/core/lv_obj_style.c **** 
 5524              		.loc 1 553 12 view .LVU1663
 5525 0046 D979     		ldrb	r1, [r3, #7]	@ zero_extendqisi2
 553:Lib/lvgl/src/core/lv_obj_style.c **** 
 5526              		.loc 1 553 11 view .LVU1664
 5527 0048 11F0020F 		tst	r1, #2
 5528 004c F1D1     		bne	.L403
 555:Lib/lvgl/src/core/lv_obj_style.c ****         /*The style is valid for a state but not the other*/
 5529              		.loc 1 555 9 is_stmt 1 view .LVU1665
 5530              	.LVL515:
 5531              	.LBB323:
 5532              	.LBI323:
 229:Lib/lvgl/src/core/lv_obj_style.h **** {
 5533              		.loc 5 229 26 view .LVU1666
 5534              	.LBB324:
 231:Lib/lvgl/src/core/lv_obj_style.h **** }
 5535              		.loc 5 231 5 view .LVU1667
 231:Lib/lvgl/src/core/lv_obj_style.h **** }
 5536              		.loc 5 231 21 is_stmt 0 view .LVU1668
 5537 004e 9B88     		ldrh	r3, [r3, #4]
 5538              	.LVL516:
 231:Lib/lvgl/src/core/lv_obj_style.h **** }
 5539              		.loc 5 231 21 view .LVU1669
 5540              	.LBE324:
 5541              	.LBE323:
 557:Lib/lvgl/src/core/lv_obj_style.c ****         bool valid2 = state_act & (~state2) ? false : true;
 5542              		.loc 1 557 9 is_stmt 1 view .LVU1670
ARM GAS  C:\Users\Alex\AppData\Local\Temp\ccdKwz1H.s 			page 182


 557:Lib/lvgl/src/core/lv_obj_style.c ****         bool valid2 = state_act & (~state2) ? false : true;
 5543              		.loc 1 557 14 is_stmt 0 view .LVU1671
 5544 0050 33EA0801 		bics	r1, r3, r8
 5545 0054 0CBF     		ite	eq
 5546 0056 0121     		moveq	r1, #1
 5547 0058 0021     		movne	r1, #0
 5548              	.LVL517:
 558:Lib/lvgl/src/core/lv_obj_style.c ****         if(valid1 != valid2) {
 5549              		.loc 1 558 9 is_stmt 1 view .LVU1672
 558:Lib/lvgl/src/core/lv_obj_style.c ****         if(valid1 != valid2) {
 5550              		.loc 1 558 14 is_stmt 0 view .LVU1673
 5551 005a BB43     		bics	r3, r3, r7
 5552              	.LVL518:
 558:Lib/lvgl/src/core/lv_obj_style.c ****         if(valid1 != valid2) {
 5553              		.loc 1 558 14 view .LVU1674
 5554 005c 0CBF     		ite	eq
 5555 005e 0123     		moveq	r3, #1
 5556 0060 0023     		movne	r3, #0
 5557              	.LVL519:
 559:Lib/lvgl/src/core/lv_obj_style.c ****             const lv_style_t * style = obj->styles[i].style;
 5558              		.loc 1 559 9 is_stmt 1 view .LVU1675
 559:Lib/lvgl/src/core/lv_obj_style.c ****             const lv_style_t * style = obj->styles[i].style;
 5559              		.loc 1 559 11 is_stmt 0 view .LVU1676
 5560 0062 9942     		cmp	r1, r3
 5561 0064 E5D0     		beq	.L403
 5562              	.LBB325:
 560:Lib/lvgl/src/core/lv_obj_style.c ****             lv_style_value_t v;
 5563              		.loc 1 560 13 is_stmt 1 view .LVU1677
 560:Lib/lvgl/src/core/lv_obj_style.c ****             lv_style_value_t v;
 5564              		.loc 1 560 32 is_stmt 0 view .LVU1678
 5565 0066 1458     		ldr	r4, [r2, r0]
 5566              	.LVL520:
 561:Lib/lvgl/src/core/lv_obj_style.c ****             /*If there is layout difference on the main part, return immediately. There is no more 
 5567              		.loc 1 561 13 is_stmt 1 view .LVU1679
 563:Lib/lvgl/src/core/lv_obj_style.c ****             if(lv_style_get_prop(style, LV_STYLE_PAD_TOP, &v))layout_diff = true;
 5568              		.loc 1 563 13 view .LVU1680
 564:Lib/lvgl/src/core/lv_obj_style.c ****             else if(lv_style_get_prop(style, LV_STYLE_PAD_BOTTOM, &v)) layout_diff = true;
 5569              		.loc 1 564 13 view .LVU1681
 564:Lib/lvgl/src/core/lv_obj_style.c ****             else if(lv_style_get_prop(style, LV_STYLE_PAD_BOTTOM, &v)) layout_diff = true;
 5570              		.loc 1 564 16 is_stmt 0 view .LVU1682
 5571 0068 01AA     		add	r2, sp, #4
 5572              	.LVL521:
 564:Lib/lvgl/src/core/lv_obj_style.c ****             else if(lv_style_get_prop(style, LV_STYLE_PAD_BOTTOM, &v)) layout_diff = true;
 5573              		.loc 1 564 16 view .LVU1683
 5574 006a 1021     		movs	r1, #16
 5575              	.LVL522:
 564:Lib/lvgl/src/core/lv_obj_style.c ****             else if(lv_style_get_prop(style, LV_STYLE_PAD_BOTTOM, &v)) layout_diff = true;
 5576              		.loc 1 564 16 view .LVU1684
 5577 006c 2046     		mov	r0, r4
 5578 006e FFF7FEFF 		bl	lv_style_get_prop
 5579              	.LVL523:
 564:Lib/lvgl/src/core/lv_obj_style.c ****             else if(lv_style_get_prop(style, LV_STYLE_PAD_BOTTOM, &v)) layout_diff = true;
 5580              		.loc 1 564 15 view .LVU1685
 5581 0072 0028     		cmp	r0, #0
 5582 0074 CDD1     		bne	.L404
 565:Lib/lvgl/src/core/lv_obj_style.c ****             else if(lv_style_get_prop(style, LV_STYLE_PAD_LEFT, &v)) layout_diff = true;
 5583              		.loc 1 565 18 is_stmt 1 view .LVU1686
ARM GAS  C:\Users\Alex\AppData\Local\Temp\ccdKwz1H.s 			page 183


 565:Lib/lvgl/src/core/lv_obj_style.c ****             else if(lv_style_get_prop(style, LV_STYLE_PAD_LEFT, &v)) layout_diff = true;
 5584              		.loc 1 565 21 is_stmt 0 view .LVU1687
 5585 0076 01AA     		add	r2, sp, #4
 5586 0078 1121     		movs	r1, #17
 5587 007a 2046     		mov	r0, r4
 5588 007c FFF7FEFF 		bl	lv_style_get_prop
 5589              	.LVL524:
 565:Lib/lvgl/src/core/lv_obj_style.c ****             else if(lv_style_get_prop(style, LV_STYLE_PAD_LEFT, &v)) layout_diff = true;
 5590              		.loc 1 565 20 view .LVU1688
 5591 0080 0028     		cmp	r0, #0
 5592 0082 C6D1     		bne	.L404
 566:Lib/lvgl/src/core/lv_obj_style.c ****             else if(lv_style_get_prop(style, LV_STYLE_PAD_RIGHT, &v)) layout_diff = true;
 5593              		.loc 1 566 18 is_stmt 1 view .LVU1689
 566:Lib/lvgl/src/core/lv_obj_style.c ****             else if(lv_style_get_prop(style, LV_STYLE_PAD_RIGHT, &v)) layout_diff = true;
 5594              		.loc 1 566 21 is_stmt 0 view .LVU1690
 5595 0084 01AA     		add	r2, sp, #4
 5596 0086 1221     		movs	r1, #18
 5597 0088 2046     		mov	r0, r4
 5598 008a FFF7FEFF 		bl	lv_style_get_prop
 5599              	.LVL525:
 566:Lib/lvgl/src/core/lv_obj_style.c ****             else if(lv_style_get_prop(style, LV_STYLE_PAD_RIGHT, &v)) layout_diff = true;
 5600              		.loc 1 566 20 view .LVU1691
 5601 008e 0028     		cmp	r0, #0
 5602 0090 BFD1     		bne	.L404
 567:Lib/lvgl/src/core/lv_obj_style.c ****             else if(lv_style_get_prop(style, LV_STYLE_PAD_COLUMN, &v)) layout_diff = true;
 5603              		.loc 1 567 18 is_stmt 1 view .LVU1692
 567:Lib/lvgl/src/core/lv_obj_style.c ****             else if(lv_style_get_prop(style, LV_STYLE_PAD_COLUMN, &v)) layout_diff = true;
 5604              		.loc 1 567 21 is_stmt 0 view .LVU1693
 5605 0092 01AA     		add	r2, sp, #4
 5606 0094 1321     		movs	r1, #19
 5607 0096 2046     		mov	r0, r4
 5608 0098 FFF7FEFF 		bl	lv_style_get_prop
 5609              	.LVL526:
 567:Lib/lvgl/src/core/lv_obj_style.c ****             else if(lv_style_get_prop(style, LV_STYLE_PAD_COLUMN, &v)) layout_diff = true;
 5610              		.loc 1 567 20 view .LVU1694
 5611 009c 0028     		cmp	r0, #0
 5612 009e B8D1     		bne	.L404
 568:Lib/lvgl/src/core/lv_obj_style.c ****             else if(lv_style_get_prop(style, LV_STYLE_PAD_ROW, &v)) layout_diff = true;
 5613              		.loc 1 568 18 is_stmt 1 view .LVU1695
 568:Lib/lvgl/src/core/lv_obj_style.c ****             else if(lv_style_get_prop(style, LV_STYLE_PAD_ROW, &v)) layout_diff = true;
 5614              		.loc 1 568 21 is_stmt 0 view .LVU1696
 5615 00a0 01AA     		add	r2, sp, #4
 5616 00a2 1521     		movs	r1, #21
 5617 00a4 2046     		mov	r0, r4
 5618 00a6 FFF7FEFF 		bl	lv_style_get_prop
 5619              	.LVL527:
 568:Lib/lvgl/src/core/lv_obj_style.c ****             else if(lv_style_get_prop(style, LV_STYLE_PAD_ROW, &v)) layout_diff = true;
 5620              		.loc 1 568 20 view .LVU1697
 5621 00aa 0028     		cmp	r0, #0
 5622 00ac B1D1     		bne	.L404
 569:Lib/lvgl/src/core/lv_obj_style.c ****             else if(lv_style_get_prop(style, LV_STYLE_LAYOUT, &v)) layout_diff = true;
 5623              		.loc 1 569 18 is_stmt 1 view .LVU1698
 569:Lib/lvgl/src/core/lv_obj_style.c ****             else if(lv_style_get_prop(style, LV_STYLE_LAYOUT, &v)) layout_diff = true;
 5624              		.loc 1 569 21 is_stmt 0 view .LVU1699
 5625 00ae 01AA     		add	r2, sp, #4
 5626 00b0 1421     		movs	r1, #20
 5627 00b2 2046     		mov	r0, r4
ARM GAS  C:\Users\Alex\AppData\Local\Temp\ccdKwz1H.s 			page 184


 5628 00b4 FFF7FEFF 		bl	lv_style_get_prop
 5629              	.LVL528:
 569:Lib/lvgl/src/core/lv_obj_style.c ****             else if(lv_style_get_prop(style, LV_STYLE_LAYOUT, &v)) layout_diff = true;
 5630              		.loc 1 569 20 view .LVU1700
 5631 00b8 0028     		cmp	r0, #0
 5632 00ba AAD1     		bne	.L404
 570:Lib/lvgl/src/core/lv_obj_style.c ****             else if(lv_style_get_prop(style, LV_STYLE_TRANSLATE_X, &v)) layout_diff = true;
 5633              		.loc 1 570 18 is_stmt 1 view .LVU1701
 570:Lib/lvgl/src/core/lv_obj_style.c ****             else if(lv_style_get_prop(style, LV_STYLE_TRANSLATE_X, &v)) layout_diff = true;
 5634              		.loc 1 570 21 is_stmt 0 view .LVU1702
 5635 00bc 01AA     		add	r2, sp, #4
 5636 00be 1621     		movs	r1, #22
 5637 00c0 2046     		mov	r0, r4
 5638 00c2 FFF7FEFF 		bl	lv_style_get_prop
 5639              	.LVL529:
 570:Lib/lvgl/src/core/lv_obj_style.c ****             else if(lv_style_get_prop(style, LV_STYLE_TRANSLATE_X, &v)) layout_diff = true;
 5640              		.loc 1 570 20 view .LVU1703
 5641 00c6 0028     		cmp	r0, #0
 5642 00c8 A3D1     		bne	.L404
 571:Lib/lvgl/src/core/lv_obj_style.c ****             else if(lv_style_get_prop(style, LV_STYLE_TRANSLATE_Y, &v)) layout_diff = true;
 5643              		.loc 1 571 18 is_stmt 1 view .LVU1704
 571:Lib/lvgl/src/core/lv_obj_style.c ****             else if(lv_style_get_prop(style, LV_STYLE_TRANSLATE_Y, &v)) layout_diff = true;
 5644              		.loc 1 571 21 is_stmt 0 view .LVU1705
 5645 00ca 01AA     		add	r2, sp, #4
 5646 00cc 6A21     		movs	r1, #106
 5647 00ce 2046     		mov	r0, r4
 5648 00d0 FFF7FEFF 		bl	lv_style_get_prop
 5649              	.LVL530:
 571:Lib/lvgl/src/core/lv_obj_style.c ****             else if(lv_style_get_prop(style, LV_STYLE_TRANSLATE_Y, &v)) layout_diff = true;
 5650              		.loc 1 571 20 view .LVU1706
 5651 00d4 0028     		cmp	r0, #0
 5652 00d6 9CD1     		bne	.L404
 572:Lib/lvgl/src/core/lv_obj_style.c ****             else if(lv_style_get_prop(style, LV_STYLE_WIDTH, &v)) layout_diff = true;
 5653              		.loc 1 572 18 is_stmt 1 view .LVU1707
 572:Lib/lvgl/src/core/lv_obj_style.c ****             else if(lv_style_get_prop(style, LV_STYLE_WIDTH, &v)) layout_diff = true;
 5654              		.loc 1 572 21 is_stmt 0 view .LVU1708
 5655 00d8 01AA     		add	r2, sp, #4
 5656 00da 6B21     		movs	r1, #107
 5657 00dc 2046     		mov	r0, r4
 5658 00de FFF7FEFF 		bl	lv_style_get_prop
 5659              	.LVL531:
 572:Lib/lvgl/src/core/lv_obj_style.c ****             else if(lv_style_get_prop(style, LV_STYLE_WIDTH, &v)) layout_diff = true;
 5660              		.loc 1 572 20 view .LVU1709
 5661 00e2 0028     		cmp	r0, #0
 5662 00e4 95D1     		bne	.L404
 573:Lib/lvgl/src/core/lv_obj_style.c ****             else if(lv_style_get_prop(style, LV_STYLE_HEIGHT, &v)) layout_diff = true;
 5663              		.loc 1 573 18 is_stmt 1 view .LVU1710
 573:Lib/lvgl/src/core/lv_obj_style.c ****             else if(lv_style_get_prop(style, LV_STYLE_HEIGHT, &v)) layout_diff = true;
 5664              		.loc 1 573 21 is_stmt 0 view .LVU1711
 5665 00e6 01AA     		add	r2, sp, #4
 5666 00e8 0121     		movs	r1, #1
 5667 00ea 2046     		mov	r0, r4
 5668 00ec FFF7FEFF 		bl	lv_style_get_prop
 5669              	.LVL532:
 573:Lib/lvgl/src/core/lv_obj_style.c ****             else if(lv_style_get_prop(style, LV_STYLE_HEIGHT, &v)) layout_diff = true;
 5670              		.loc 1 573 20 view .LVU1712
 5671 00f0 0028     		cmp	r0, #0
ARM GAS  C:\Users\Alex\AppData\Local\Temp\ccdKwz1H.s 			page 185


 5672 00f2 8ED1     		bne	.L404
 574:Lib/lvgl/src/core/lv_obj_style.c ****             else if(lv_style_get_prop(style, LV_STYLE_MIN_WIDTH, &v)) layout_diff = true;
 5673              		.loc 1 574 18 is_stmt 1 view .LVU1713
 574:Lib/lvgl/src/core/lv_obj_style.c ****             else if(lv_style_get_prop(style, LV_STYLE_MIN_WIDTH, &v)) layout_diff = true;
 5674              		.loc 1 574 21 is_stmt 0 view .LVU1714
 5675 00f4 01AA     		add	r2, sp, #4
 5676 00f6 0221     		movs	r1, #2
 5677 00f8 2046     		mov	r0, r4
 5678 00fa FFF7FEFF 		bl	lv_style_get_prop
 5679              	.LVL533:
 574:Lib/lvgl/src/core/lv_obj_style.c ****             else if(lv_style_get_prop(style, LV_STYLE_MIN_WIDTH, &v)) layout_diff = true;
 5680              		.loc 1 574 20 view .LVU1715
 5681 00fe 0028     		cmp	r0, #0
 5682 0100 87D1     		bne	.L404
 575:Lib/lvgl/src/core/lv_obj_style.c ****             else if(lv_style_get_prop(style, LV_STYLE_MAX_WIDTH, &v)) layout_diff = true;
 5683              		.loc 1 575 18 is_stmt 1 view .LVU1716
 575:Lib/lvgl/src/core/lv_obj_style.c ****             else if(lv_style_get_prop(style, LV_STYLE_MAX_WIDTH, &v)) layout_diff = true;
 5684              		.loc 1 575 21 is_stmt 0 view .LVU1717
 5685 0102 01AA     		add	r2, sp, #4
 5686 0104 0421     		movs	r1, #4
 5687 0106 2046     		mov	r0, r4
 5688 0108 FFF7FEFF 		bl	lv_style_get_prop
 5689              	.LVL534:
 575:Lib/lvgl/src/core/lv_obj_style.c ****             else if(lv_style_get_prop(style, LV_STYLE_MAX_WIDTH, &v)) layout_diff = true;
 5690              		.loc 1 575 20 view .LVU1718
 5691 010c 0028     		cmp	r0, #0
 5692 010e 80D1     		bne	.L404
 576:Lib/lvgl/src/core/lv_obj_style.c ****             else if(lv_style_get_prop(style, LV_STYLE_MIN_HEIGHT, &v)) layout_diff = true;
 5693              		.loc 1 576 18 is_stmt 1 view .LVU1719
 576:Lib/lvgl/src/core/lv_obj_style.c ****             else if(lv_style_get_prop(style, LV_STYLE_MIN_HEIGHT, &v)) layout_diff = true;
 5694              		.loc 1 576 21 is_stmt 0 view .LVU1720
 5695 0110 01AA     		add	r2, sp, #4
 5696 0112 0521     		movs	r1, #5
 5697 0114 2046     		mov	r0, r4
 5698 0116 FFF7FEFF 		bl	lv_style_get_prop
 5699              	.LVL535:
 576:Lib/lvgl/src/core/lv_obj_style.c ****             else if(lv_style_get_prop(style, LV_STYLE_MIN_HEIGHT, &v)) layout_diff = true;
 5700              		.loc 1 576 20 view .LVU1721
 5701 011a 0028     		cmp	r0, #0
 5702 011c 7FF479AF 		bne	.L404
 577:Lib/lvgl/src/core/lv_obj_style.c ****             else if(lv_style_get_prop(style, LV_STYLE_MAX_HEIGHT, &v)) layout_diff = true;
 5703              		.loc 1 577 18 is_stmt 1 view .LVU1722
 577:Lib/lvgl/src/core/lv_obj_style.c ****             else if(lv_style_get_prop(style, LV_STYLE_MAX_HEIGHT, &v)) layout_diff = true;
 5704              		.loc 1 577 21 is_stmt 0 view .LVU1723
 5705 0120 01AA     		add	r2, sp, #4
 5706 0122 0621     		movs	r1, #6
 5707 0124 2046     		mov	r0, r4
 5708 0126 FFF7FEFF 		bl	lv_style_get_prop
 5709              	.LVL536:
 577:Lib/lvgl/src/core/lv_obj_style.c ****             else if(lv_style_get_prop(style, LV_STYLE_MAX_HEIGHT, &v)) layout_diff = true;
 5710              		.loc 1 577 20 view .LVU1724
 5711 012a 0028     		cmp	r0, #0
 5712 012c 7FF471AF 		bne	.L404
 578:Lib/lvgl/src/core/lv_obj_style.c ****             else if(lv_style_get_prop(style, LV_STYLE_BORDER_WIDTH, &v)) layout_diff = true;
 5713              		.loc 1 578 18 is_stmt 1 view .LVU1725
 578:Lib/lvgl/src/core/lv_obj_style.c ****             else if(lv_style_get_prop(style, LV_STYLE_BORDER_WIDTH, &v)) layout_diff = true;
 5714              		.loc 1 578 21 is_stmt 0 view .LVU1726
ARM GAS  C:\Users\Alex\AppData\Local\Temp\ccdKwz1H.s 			page 186


 5715 0130 01AA     		add	r2, sp, #4
 5716 0132 0721     		movs	r1, #7
 5717 0134 2046     		mov	r0, r4
 5718 0136 FFF7FEFF 		bl	lv_style_get_prop
 5719              	.LVL537:
 578:Lib/lvgl/src/core/lv_obj_style.c ****             else if(lv_style_get_prop(style, LV_STYLE_BORDER_WIDTH, &v)) layout_diff = true;
 5720              		.loc 1 578 20 view .LVU1727
 5721 013a 0028     		cmp	r0, #0
 5722 013c 7FF469AF 		bne	.L404
 579:Lib/lvgl/src/core/lv_obj_style.c **** 
 5723              		.loc 1 579 18 is_stmt 1 view .LVU1728
 579:Lib/lvgl/src/core/lv_obj_style.c **** 
 5724              		.loc 1 579 21 is_stmt 0 view .LVU1729
 5725 0140 01AA     		add	r2, sp, #4
 5726 0142 3021     		movs	r1, #48
 5727 0144 2046     		mov	r0, r4
 5728 0146 FFF7FEFF 		bl	lv_style_get_prop
 5729              	.LVL538:
 579:Lib/lvgl/src/core/lv_obj_style.c **** 
 5730              		.loc 1 579 20 view .LVU1730
 5731 014a 0028     		cmp	r0, #0
 5732 014c 7FF461AF 		bne	.L404
 581:Lib/lvgl/src/core/lv_obj_style.c ****                 return _LV_STYLE_STATE_CMP_DIFF_LAYOUT;
 5733              		.loc 1 581 13 is_stmt 1 view .LVU1731
 586:Lib/lvgl/src/core/lv_obj_style.c ****             else if(lv_style_get_prop(style, LV_STYLE_TRANSFORM_HEIGHT, &v)) res = _LV_STYLE_STATE_
 5734              		.loc 1 586 13 view .LVU1732
 586:Lib/lvgl/src/core/lv_obj_style.c ****             else if(lv_style_get_prop(style, LV_STYLE_TRANSFORM_HEIGHT, &v)) res = _LV_STYLE_STATE_
 5735              		.loc 1 586 16 is_stmt 0 view .LVU1733
 5736 0150 01AA     		add	r2, sp, #4
 5737 0152 6821     		movs	r1, #104
 5738 0154 2046     		mov	r0, r4
 5739 0156 FFF7FEFF 		bl	lv_style_get_prop
 5740              	.LVL539:
 586:Lib/lvgl/src/core/lv_obj_style.c ****             else if(lv_style_get_prop(style, LV_STYLE_TRANSFORM_HEIGHT, &v)) res = _LV_STYLE_STATE_
 5741              		.loc 1 586 15 view .LVU1734
 5742 015a 0028     		cmp	r0, #0
 5743 015c 3FF45FAF 		beq	.L427
 586:Lib/lvgl/src/core/lv_obj_style.c ****             else if(lv_style_get_prop(style, LV_STYLE_TRANSFORM_HEIGHT, &v)) res = _LV_STYLE_STATE_
 5744              		.loc 1 586 76 view .LVU1735
 5745 0160 4FF00209 		mov	r9, #2
 5746              	.LVL540:
 586:Lib/lvgl/src/core/lv_obj_style.c ****             else if(lv_style_get_prop(style, LV_STYLE_TRANSFORM_HEIGHT, &v)) res = _LV_STYLE_STATE_
 5747              		.loc 1 586 76 view .LVU1736
 5748 0164 65E7     		b	.L403
 5749              	.LVL541:
 5750              	.L426:
 588:Lib/lvgl/src/core/lv_obj_style.c ****             else if(lv_style_get_prop(style, LV_STYLE_TRANSFORM_SCALE_X, &v)) res = _LV_STYLE_STATE
 5751              		.loc 1 588 18 is_stmt 1 view .LVU1737
 588:Lib/lvgl/src/core/lv_obj_style.c ****             else if(lv_style_get_prop(style, LV_STYLE_TRANSFORM_SCALE_X, &v)) res = _LV_STYLE_STATE
 5752              		.loc 1 588 21 is_stmt 0 view .LVU1738
 5753 0166 01AA     		add	r2, sp, #4
 5754 0168 6E21     		movs	r1, #110
 5755 016a 2046     		mov	r0, r4
 5756 016c FFF7FEFF 		bl	lv_style_get_prop
 5757              	.LVL542:
 588:Lib/lvgl/src/core/lv_obj_style.c ****             else if(lv_style_get_prop(style, LV_STYLE_TRANSFORM_SCALE_X, &v)) res = _LV_STYLE_STATE
 5758              		.loc 1 588 20 view .LVU1739
ARM GAS  C:\Users\Alex\AppData\Local\Temp\ccdKwz1H.s 			page 187


 5759 0170 10B1     		cbz	r0, .L428
 588:Lib/lvgl/src/core/lv_obj_style.c ****             else if(lv_style_get_prop(style, LV_STYLE_TRANSFORM_SCALE_X, &v)) res = _LV_STYLE_STATE
 5760              		.loc 1 588 84 view .LVU1740
 5761 0172 4FF00209 		mov	r9, #2
 5762              	.LVL543:
 588:Lib/lvgl/src/core/lv_obj_style.c ****             else if(lv_style_get_prop(style, LV_STYLE_TRANSFORM_SCALE_X, &v)) res = _LV_STYLE_STATE
 5763              		.loc 1 588 84 view .LVU1741
 5764 0176 5CE7     		b	.L403
 5765              	.LVL544:
 5766              	.L428:
 589:Lib/lvgl/src/core/lv_obj_style.c ****             else if(lv_style_get_prop(style, LV_STYLE_TRANSFORM_SCALE_Y, &v)) res = _LV_STYLE_STATE
 5767              		.loc 1 589 18 is_stmt 1 view .LVU1742
 589:Lib/lvgl/src/core/lv_obj_style.c ****             else if(lv_style_get_prop(style, LV_STYLE_TRANSFORM_SCALE_Y, &v)) res = _LV_STYLE_STATE
 5768              		.loc 1 589 21 is_stmt 0 view .LVU1743
 5769 0178 01AA     		add	r2, sp, #4
 5770 017a 6C21     		movs	r1, #108
 5771 017c 2046     		mov	r0, r4
 5772 017e FFF7FEFF 		bl	lv_style_get_prop
 5773              	.LVL545:
 589:Lib/lvgl/src/core/lv_obj_style.c ****             else if(lv_style_get_prop(style, LV_STYLE_TRANSFORM_SCALE_Y, &v)) res = _LV_STYLE_STATE
 5774              		.loc 1 589 20 view .LVU1744
 5775 0182 10B1     		cbz	r0, .L429
 589:Lib/lvgl/src/core/lv_obj_style.c ****             else if(lv_style_get_prop(style, LV_STYLE_TRANSFORM_SCALE_Y, &v)) res = _LV_STYLE_STATE
 5776              		.loc 1 589 83 view .LVU1745
 5777 0184 4FF00209 		mov	r9, #2
 5778              	.LVL546:
 589:Lib/lvgl/src/core/lv_obj_style.c ****             else if(lv_style_get_prop(style, LV_STYLE_TRANSFORM_SCALE_Y, &v)) res = _LV_STYLE_STATE
 5779              		.loc 1 589 83 view .LVU1746
 5780 0188 53E7     		b	.L403
 5781              	.LVL547:
 5782              	.L429:
 590:Lib/lvgl/src/core/lv_obj_style.c ****             else if(lv_style_get_prop(style, LV_STYLE_OUTLINE_OPA, &v)) res = _LV_STYLE_STATE_CMP_D
 5783              		.loc 1 590 18 is_stmt 1 view .LVU1747
 590:Lib/lvgl/src/core/lv_obj_style.c ****             else if(lv_style_get_prop(style, LV_STYLE_OUTLINE_OPA, &v)) res = _LV_STYLE_STATE_CMP_D
 5784              		.loc 1 590 21 is_stmt 0 view .LVU1748
 5785 018a 01AA     		add	r2, sp, #4
 5786 018c 6D21     		movs	r1, #109
 5787 018e 2046     		mov	r0, r4
 5788 0190 FFF7FEFF 		bl	lv_style_get_prop
 5789              	.LVL548:
 590:Lib/lvgl/src/core/lv_obj_style.c ****             else if(lv_style_get_prop(style, LV_STYLE_OUTLINE_OPA, &v)) res = _LV_STYLE_STATE_CMP_D
 5790              		.loc 1 590 20 view .LVU1749
 5791 0194 10B1     		cbz	r0, .L430
 590:Lib/lvgl/src/core/lv_obj_style.c ****             else if(lv_style_get_prop(style, LV_STYLE_OUTLINE_OPA, &v)) res = _LV_STYLE_STATE_CMP_D
 5792              		.loc 1 590 83 view .LVU1750
 5793 0196 4FF00209 		mov	r9, #2
 5794              	.LVL549:
 590:Lib/lvgl/src/core/lv_obj_style.c ****             else if(lv_style_get_prop(style, LV_STYLE_OUTLINE_OPA, &v)) res = _LV_STYLE_STATE_CMP_D
 5795              		.loc 1 590 83 view .LVU1751
 5796 019a 4AE7     		b	.L403
 5797              	.LVL550:
 5798              	.L430:
 591:Lib/lvgl/src/core/lv_obj_style.c ****             else if(lv_style_get_prop(style, LV_STYLE_OUTLINE_PAD, &v)) res = _LV_STYLE_STATE_CMP_D
 5799              		.loc 1 591 18 is_stmt 1 view .LVU1752
 591:Lib/lvgl/src/core/lv_obj_style.c ****             else if(lv_style_get_prop(style, LV_STYLE_OUTLINE_PAD, &v)) res = _LV_STYLE_STATE_CMP_D
 5800              		.loc 1 591 21 is_stmt 0 view .LVU1753
 5801 019c 01AA     		add	r2, sp, #4
ARM GAS  C:\Users\Alex\AppData\Local\Temp\ccdKwz1H.s 			page 188


 5802 019e 3A21     		movs	r1, #58
 5803 01a0 2046     		mov	r0, r4
 5804 01a2 FFF7FEFF 		bl	lv_style_get_prop
 5805              	.LVL551:
 591:Lib/lvgl/src/core/lv_obj_style.c ****             else if(lv_style_get_prop(style, LV_STYLE_OUTLINE_PAD, &v)) res = _LV_STYLE_STATE_CMP_D
 5806              		.loc 1 591 20 view .LVU1754
 5807 01a6 10B1     		cbz	r0, .L431
 591:Lib/lvgl/src/core/lv_obj_style.c ****             else if(lv_style_get_prop(style, LV_STYLE_OUTLINE_PAD, &v)) res = _LV_STYLE_STATE_CMP_D
 5808              		.loc 1 591 77 view .LVU1755
 5809 01a8 4FF00209 		mov	r9, #2
 5810              	.LVL552:
 591:Lib/lvgl/src/core/lv_obj_style.c ****             else if(lv_style_get_prop(style, LV_STYLE_OUTLINE_PAD, &v)) res = _LV_STYLE_STATE_CMP_D
 5811              		.loc 1 591 77 view .LVU1756
 5812 01ac 41E7     		b	.L403
 5813              	.LVL553:
 5814              	.L431:
 592:Lib/lvgl/src/core/lv_obj_style.c ****             else if(lv_style_get_prop(style, LV_STYLE_OUTLINE_WIDTH, &v)) res = _LV_STYLE_STATE_CMP
 5815              		.loc 1 592 18 is_stmt 1 view .LVU1757
 592:Lib/lvgl/src/core/lv_obj_style.c ****             else if(lv_style_get_prop(style, LV_STYLE_OUTLINE_WIDTH, &v)) res = _LV_STYLE_STATE_CMP
 5816              		.loc 1 592 21 is_stmt 0 view .LVU1758
 5817 01ae 01AA     		add	r2, sp, #4
 5818 01b0 3B21     		movs	r1, #59
 5819 01b2 2046     		mov	r0, r4
 5820 01b4 FFF7FEFF 		bl	lv_style_get_prop
 5821              	.LVL554:
 592:Lib/lvgl/src/core/lv_obj_style.c ****             else if(lv_style_get_prop(style, LV_STYLE_OUTLINE_WIDTH, &v)) res = _LV_STYLE_STATE_CMP
 5822              		.loc 1 592 20 view .LVU1759
 5823 01b8 10B1     		cbz	r0, .L432
 592:Lib/lvgl/src/core/lv_obj_style.c ****             else if(lv_style_get_prop(style, LV_STYLE_OUTLINE_WIDTH, &v)) res = _LV_STYLE_STATE_CMP
 5824              		.loc 1 592 77 view .LVU1760
 5825 01ba 4FF00209 		mov	r9, #2
 5826              	.LVL555:
 592:Lib/lvgl/src/core/lv_obj_style.c ****             else if(lv_style_get_prop(style, LV_STYLE_OUTLINE_WIDTH, &v)) res = _LV_STYLE_STATE_CMP
 5827              		.loc 1 592 77 view .LVU1761
 5828 01be 38E7     		b	.L403
 5829              	.LVL556:
 5830              	.L432:
 593:Lib/lvgl/src/core/lv_obj_style.c ****             else if(lv_style_get_prop(style, LV_STYLE_SHADOW_WIDTH, &v)) res = _LV_STYLE_STATE_CMP_
 5831              		.loc 1 593 18 is_stmt 1 view .LVU1762
 593:Lib/lvgl/src/core/lv_obj_style.c ****             else if(lv_style_get_prop(style, LV_STYLE_SHADOW_WIDTH, &v)) res = _LV_STYLE_STATE_CMP_
 5832              		.loc 1 593 21 is_stmt 0 view .LVU1763
 5833 01c0 01AA     		add	r2, sp, #4
 5834 01c2 3821     		movs	r1, #56
 5835 01c4 2046     		mov	r0, r4
 5836 01c6 FFF7FEFF 		bl	lv_style_get_prop
 5837              	.LVL557:
 593:Lib/lvgl/src/core/lv_obj_style.c ****             else if(lv_style_get_prop(style, LV_STYLE_SHADOW_WIDTH, &v)) res = _LV_STYLE_STATE_CMP_
 5838              		.loc 1 593 20 view .LVU1764
 5839 01ca 10B1     		cbz	r0, .L433
 593:Lib/lvgl/src/core/lv_obj_style.c ****             else if(lv_style_get_prop(style, LV_STYLE_SHADOW_WIDTH, &v)) res = _LV_STYLE_STATE_CMP_
 5840              		.loc 1 593 79 view .LVU1765
 5841 01cc 4FF00209 		mov	r9, #2
 5842              	.LVL558:
 593:Lib/lvgl/src/core/lv_obj_style.c ****             else if(lv_style_get_prop(style, LV_STYLE_SHADOW_WIDTH, &v)) res = _LV_STYLE_STATE_CMP_
 5843              		.loc 1 593 79 view .LVU1766
 5844 01d0 2FE7     		b	.L403
 5845              	.LVL559:
ARM GAS  C:\Users\Alex\AppData\Local\Temp\ccdKwz1H.s 			page 189


 5846              	.L433:
 594:Lib/lvgl/src/core/lv_obj_style.c ****             else if(lv_style_get_prop(style, LV_STYLE_SHADOW_OPA, &v)) res = _LV_STYLE_STATE_CMP_DI
 5847              		.loc 1 594 18 is_stmt 1 view .LVU1767
 594:Lib/lvgl/src/core/lv_obj_style.c ****             else if(lv_style_get_prop(style, LV_STYLE_SHADOW_OPA, &v)) res = _LV_STYLE_STATE_CMP_DI
 5848              		.loc 1 594 21 is_stmt 0 view .LVU1768
 5849 01d2 01AA     		add	r2, sp, #4
 5850 01d4 3C21     		movs	r1, #60
 5851 01d6 2046     		mov	r0, r4
 5852 01d8 FFF7FEFF 		bl	lv_style_get_prop
 5853              	.LVL560:
 594:Lib/lvgl/src/core/lv_obj_style.c ****             else if(lv_style_get_prop(style, LV_STYLE_SHADOW_OPA, &v)) res = _LV_STYLE_STATE_CMP_DI
 5854              		.loc 1 594 20 view .LVU1769
 5855 01dc 10B1     		cbz	r0, .L434
 594:Lib/lvgl/src/core/lv_obj_style.c ****             else if(lv_style_get_prop(style, LV_STYLE_SHADOW_OPA, &v)) res = _LV_STYLE_STATE_CMP_DI
 5856              		.loc 1 594 78 view .LVU1770
 5857 01de 4FF00209 		mov	r9, #2
 5858              	.LVL561:
 594:Lib/lvgl/src/core/lv_obj_style.c ****             else if(lv_style_get_prop(style, LV_STYLE_SHADOW_OPA, &v)) res = _LV_STYLE_STATE_CMP_DI
 5859              		.loc 1 594 78 view .LVU1771
 5860 01e2 26E7     		b	.L403
 5861              	.LVL562:
 5862              	.L434:
 595:Lib/lvgl/src/core/lv_obj_style.c ****             else if(lv_style_get_prop(style, LV_STYLE_SHADOW_OFFSET_X, &v)) res = _LV_STYLE_STATE_C
 5863              		.loc 1 595 18 is_stmt 1 view .LVU1772
 595:Lib/lvgl/src/core/lv_obj_style.c ****             else if(lv_style_get_prop(style, LV_STYLE_SHADOW_OFFSET_X, &v)) res = _LV_STYLE_STATE_C
 5864              		.loc 1 595 21 is_stmt 0 view .LVU1773
 5865 01e4 01AA     		add	r2, sp, #4
 5866 01e6 3E21     		movs	r1, #62
 5867 01e8 2046     		mov	r0, r4
 5868 01ea FFF7FEFF 		bl	lv_style_get_prop
 5869              	.LVL563:
 595:Lib/lvgl/src/core/lv_obj_style.c ****             else if(lv_style_get_prop(style, LV_STYLE_SHADOW_OFFSET_X, &v)) res = _LV_STYLE_STATE_C
 5870              		.loc 1 595 20 view .LVU1774
 5871 01ee 10B1     		cbz	r0, .L435
 595:Lib/lvgl/src/core/lv_obj_style.c ****             else if(lv_style_get_prop(style, LV_STYLE_SHADOW_OFFSET_X, &v)) res = _LV_STYLE_STATE_C
 5872              		.loc 1 595 76 view .LVU1775
 5873 01f0 4FF00209 		mov	r9, #2
 5874              	.LVL564:
 595:Lib/lvgl/src/core/lv_obj_style.c ****             else if(lv_style_get_prop(style, LV_STYLE_SHADOW_OFFSET_X, &v)) res = _LV_STYLE_STATE_C
 5875              		.loc 1 595 76 view .LVU1776
 5876 01f4 1DE7     		b	.L403
 5877              	.LVL565:
 5878              	.L435:
 596:Lib/lvgl/src/core/lv_obj_style.c ****             else if(lv_style_get_prop(style, LV_STYLE_SHADOW_OFFSET_Y, &v)) res = _LV_STYLE_STATE_C
 5879              		.loc 1 596 18 is_stmt 1 view .LVU1777
 596:Lib/lvgl/src/core/lv_obj_style.c ****             else if(lv_style_get_prop(style, LV_STYLE_SHADOW_OFFSET_Y, &v)) res = _LV_STYLE_STATE_C
 5880              		.loc 1 596 21 is_stmt 0 view .LVU1778
 5881 01f6 01AA     		add	r2, sp, #4
 5882 01f8 4021     		movs	r1, #64
 5883 01fa 2046     		mov	r0, r4
 5884 01fc FFF7FEFF 		bl	lv_style_get_prop
 5885              	.LVL566:
 596:Lib/lvgl/src/core/lv_obj_style.c ****             else if(lv_style_get_prop(style, LV_STYLE_SHADOW_OFFSET_Y, &v)) res = _LV_STYLE_STATE_C
 5886              		.loc 1 596 20 view .LVU1779
 5887 0200 10B1     		cbz	r0, .L436
 596:Lib/lvgl/src/core/lv_obj_style.c ****             else if(lv_style_get_prop(style, LV_STYLE_SHADOW_OFFSET_Y, &v)) res = _LV_STYLE_STATE_C
 5888              		.loc 1 596 81 view .LVU1780
ARM GAS  C:\Users\Alex\AppData\Local\Temp\ccdKwz1H.s 			page 190


 5889 0202 4FF00209 		mov	r9, #2
 5890              	.LVL567:
 596:Lib/lvgl/src/core/lv_obj_style.c ****             else if(lv_style_get_prop(style, LV_STYLE_SHADOW_OFFSET_Y, &v)) res = _LV_STYLE_STATE_C
 5891              		.loc 1 596 81 view .LVU1781
 5892 0206 14E7     		b	.L403
 5893              	.LVL568:
 5894              	.L436:
 597:Lib/lvgl/src/core/lv_obj_style.c ****             else if(lv_style_get_prop(style, LV_STYLE_SHADOW_SPREAD, &v)) res = _LV_STYLE_STATE_CMP
 5895              		.loc 1 597 18 is_stmt 1 view .LVU1782
 597:Lib/lvgl/src/core/lv_obj_style.c ****             else if(lv_style_get_prop(style, LV_STYLE_SHADOW_SPREAD, &v)) res = _LV_STYLE_STATE_CMP
 5896              		.loc 1 597 21 is_stmt 0 view .LVU1783
 5897 0208 01AA     		add	r2, sp, #4
 5898 020a 4121     		movs	r1, #65
 5899 020c 2046     		mov	r0, r4
 5900 020e FFF7FEFF 		bl	lv_style_get_prop
 5901              	.LVL569:
 597:Lib/lvgl/src/core/lv_obj_style.c ****             else if(lv_style_get_prop(style, LV_STYLE_SHADOW_SPREAD, &v)) res = _LV_STYLE_STATE_CMP
 5902              		.loc 1 597 20 view .LVU1784
 5903 0212 10B1     		cbz	r0, .L437
 597:Lib/lvgl/src/core/lv_obj_style.c ****             else if(lv_style_get_prop(style, LV_STYLE_SHADOW_SPREAD, &v)) res = _LV_STYLE_STATE_CMP
 5904              		.loc 1 597 81 view .LVU1785
 5905 0214 4FF00209 		mov	r9, #2
 5906              	.LVL570:
 597:Lib/lvgl/src/core/lv_obj_style.c ****             else if(lv_style_get_prop(style, LV_STYLE_SHADOW_SPREAD, &v)) res = _LV_STYLE_STATE_CMP
 5907              		.loc 1 597 81 view .LVU1786
 5908 0218 0BE7     		b	.L403
 5909              	.LVL571:
 5910              	.L437:
 598:Lib/lvgl/src/core/lv_obj_style.c ****             else if(lv_style_get_prop(style, LV_STYLE_LINE_WIDTH, &v)) res = _LV_STYLE_STATE_CMP_DI
 5911              		.loc 1 598 18 is_stmt 1 view .LVU1787
 598:Lib/lvgl/src/core/lv_obj_style.c ****             else if(lv_style_get_prop(style, LV_STYLE_LINE_WIDTH, &v)) res = _LV_STYLE_STATE_CMP_DI
 5912              		.loc 1 598 21 is_stmt 0 view .LVU1788
 5913 021a 01AA     		add	r2, sp, #4
 5914 021c 4221     		movs	r1, #66
 5915 021e 2046     		mov	r0, r4
 5916 0220 FFF7FEFF 		bl	lv_style_get_prop
 5917              	.LVL572:
 598:Lib/lvgl/src/core/lv_obj_style.c ****             else if(lv_style_get_prop(style, LV_STYLE_LINE_WIDTH, &v)) res = _LV_STYLE_STATE_CMP_DI
 5918              		.loc 1 598 20 view .LVU1789
 5919 0224 10B1     		cbz	r0, .L438
 598:Lib/lvgl/src/core/lv_obj_style.c ****             else if(lv_style_get_prop(style, LV_STYLE_LINE_WIDTH, &v)) res = _LV_STYLE_STATE_CMP_DI
 5920              		.loc 1 598 79 view .LVU1790
 5921 0226 4FF00209 		mov	r9, #2
 5922              	.LVL573:
 598:Lib/lvgl/src/core/lv_obj_style.c ****             else if(lv_style_get_prop(style, LV_STYLE_LINE_WIDTH, &v)) res = _LV_STYLE_STATE_CMP_DI
 5923              		.loc 1 598 79 view .LVU1791
 5924 022a 02E7     		b	.L403
 5925              	.LVL574:
 5926              	.L438:
 599:Lib/lvgl/src/core/lv_obj_style.c ****             else if(res == _LV_STYLE_STATE_CMP_SAME) res = _LV_STYLE_STATE_CMP_DIFF_REDRAW;
 5927              		.loc 1 599 18 is_stmt 1 view .LVU1792
 599:Lib/lvgl/src/core/lv_obj_style.c ****             else if(res == _LV_STYLE_STATE_CMP_SAME) res = _LV_STYLE_STATE_CMP_DIFF_REDRAW;
 5928              		.loc 1 599 21 is_stmt 0 view .LVU1793
 5929 022c 01AA     		add	r2, sp, #4
 5930 022e 4821     		movs	r1, #72
 5931 0230 2046     		mov	r0, r4
 5932 0232 FFF7FEFF 		bl	lv_style_get_prop
ARM GAS  C:\Users\Alex\AppData\Local\Temp\ccdKwz1H.s 			page 191


 5933              	.LVL575:
 599:Lib/lvgl/src/core/lv_obj_style.c ****             else if(res == _LV_STYLE_STATE_CMP_SAME) res = _LV_STYLE_STATE_CMP_DIFF_REDRAW;
 5934              		.loc 1 599 20 view .LVU1794
 5935 0236 30B9     		cbnz	r0, .L422
 600:Lib/lvgl/src/core/lv_obj_style.c ****         }
 5936              		.loc 1 600 18 is_stmt 1 view .LVU1795
 600:Lib/lvgl/src/core/lv_obj_style.c ****         }
 5937              		.loc 1 600 20 is_stmt 0 view .LVU1796
 5938 0238 B9F1000F 		cmp	r9, #0
 5939 023c 7FF4F9AE 		bne	.L403
 600:Lib/lvgl/src/core/lv_obj_style.c ****         }
 5940              		.loc 1 600 58 view .LVU1797
 5941 0240 4FF00109 		mov	r9, #1
 5942              	.LVL576:
 600:Lib/lvgl/src/core/lv_obj_style.c ****         }
 5943              		.loc 1 600 58 view .LVU1798
 5944 0244 F5E6     		b	.L403
 5945              	.LVL577:
 5946              	.L422:
 599:Lib/lvgl/src/core/lv_obj_style.c ****             else if(res == _LV_STYLE_STATE_CMP_SAME) res = _LV_STYLE_STATE_CMP_DIFF_REDRAW;
 5947              		.loc 1 599 76 view .LVU1799
 5948 0246 4FF00209 		mov	r9, #2
 5949              	.LVL578:
 599:Lib/lvgl/src/core/lv_obj_style.c ****             else if(res == _LV_STYLE_STATE_CMP_SAME) res = _LV_STYLE_STATE_CMP_DIFF_REDRAW;
 5950              		.loc 1 599 76 view .LVU1800
 5951 024a F2E6     		b	.L403
 5952              	.LBE325:
 5953              	.LBE327:
 5954              		.cfi_endproc
 5955              	.LFE251:
 5957              		.section	.text.lv_obj_fade_in,"ax",%progbits
 5958              		.align	1
 5959              		.global	lv_obj_fade_in
 5960              		.syntax unified
 5961              		.thumb
 5962              		.thumb_func
 5964              	lv_obj_fade_in:
 5965              	.LVL579:
 5966              	.LFB252:
 608:Lib/lvgl/src/core/lv_obj_style.c ****     lv_anim_t a;
 5967              		.loc 1 608 1 is_stmt 1 view -0
 5968              		.cfi_startproc
 5969              		@ args = 0, pretend = 0, frame = 88
 5970              		@ frame_needed = 0, uses_anonymous_args = 0
 608:Lib/lvgl/src/core/lv_obj_style.c ****     lv_anim_t a;
 5971              		.loc 1 608 1 is_stmt 0 view .LVU1802
 5972 0000 70B5     		push	{r4, r5, r6, lr}
 5973              	.LCFI73:
 5974              		.cfi_def_cfa_offset 16
 5975              		.cfi_offset 4, -16
 5976              		.cfi_offset 5, -12
 5977              		.cfi_offset 6, -8
 5978              		.cfi_offset 14, -4
 5979 0002 96B0     		sub	sp, sp, #88
 5980              	.LCFI74:
 5981              		.cfi_def_cfa_offset 104
 5982 0004 0646     		mov	r6, r0
ARM GAS  C:\Users\Alex\AppData\Local\Temp\ccdKwz1H.s 			page 192


 5983 0006 0D46     		mov	r5, r1
 5984 0008 1446     		mov	r4, r2
 609:Lib/lvgl/src/core/lv_obj_style.c ****     lv_anim_init(&a);
 5985              		.loc 1 609 5 is_stmt 1 view .LVU1803
 610:Lib/lvgl/src/core/lv_obj_style.c ****     lv_anim_set_var(&a, obj);
 5986              		.loc 1 610 5 view .LVU1804
 5987 000a 6846     		mov	r0, sp
 5988              	.LVL580:
 610:Lib/lvgl/src/core/lv_obj_style.c ****     lv_anim_set_var(&a, obj);
 5989              		.loc 1 610 5 is_stmt 0 view .LVU1805
 5990 000c FFF7FEFF 		bl	lv_anim_init
 5991              	.LVL581:
 611:Lib/lvgl/src/core/lv_obj_style.c ****     lv_anim_set_values(&a, 0, LV_OPA_COVER);
 5992              		.loc 1 611 5 is_stmt 1 view .LVU1806
 5993              	.LBB328:
 5994              	.LBI328:
 197:Lib/lvgl/src/core/../misc/lv_anim.h **** {
 5995              		.loc 9 197 20 view .LVU1807
 5996              	.LBB329:
 199:Lib/lvgl/src/core/../misc/lv_anim.h **** }
 5997              		.loc 9 199 5 view .LVU1808
 199:Lib/lvgl/src/core/../misc/lv_anim.h **** }
 5998              		.loc 9 199 12 is_stmt 0 view .LVU1809
 5999 0010 0096     		str	r6, [sp]
 6000              	.LVL582:
 199:Lib/lvgl/src/core/../misc/lv_anim.h **** }
 6001              		.loc 9 199 12 view .LVU1810
 6002              	.LBE329:
 6003              	.LBE328:
 612:Lib/lvgl/src/core/lv_obj_style.c ****     lv_anim_set_exec_cb(&a, fade_anim_cb);
 6004              		.loc 1 612 5 is_stmt 1 view .LVU1811
 6005              	.LBB330:
 6006              	.LBI330:
 248:Lib/lvgl/src/core/../misc/lv_anim.h **** {
 6007              		.loc 9 248 20 view .LVU1812
 6008              	.LBB331:
 250:Lib/lvgl/src/core/../misc/lv_anim.h ****     a->current_value = INT32_MIN;
 6009              		.loc 9 250 5 view .LVU1813
 250:Lib/lvgl/src/core/../misc/lv_anim.h ****     a->current_value = INT32_MIN;
 6010              		.loc 9 250 20 is_stmt 0 view .LVU1814
 6011 0012 0023     		movs	r3, #0
 6012 0014 0993     		str	r3, [sp, #36]
 251:Lib/lvgl/src/core/../misc/lv_anim.h ****     a->end_value = end;
 6013              		.loc 9 251 5 is_stmt 1 view .LVU1815
 251:Lib/lvgl/src/core/../misc/lv_anim.h ****     a->end_value = end;
 6014              		.loc 9 251 22 is_stmt 0 view .LVU1816
 6015 0016 4FF00043 		mov	r3, #-2147483648
 6016 001a 0A93     		str	r3, [sp, #40]
 252:Lib/lvgl/src/core/../misc/lv_anim.h **** }
 6017              		.loc 9 252 5 is_stmt 1 view .LVU1817
 252:Lib/lvgl/src/core/../misc/lv_anim.h **** }
 6018              		.loc 9 252 18 is_stmt 0 view .LVU1818
 6019 001c FF23     		movs	r3, #255
 6020 001e 0B93     		str	r3, [sp, #44]
 6021              	.LVL583:
 252:Lib/lvgl/src/core/../misc/lv_anim.h **** }
 6022              		.loc 9 252 18 view .LVU1819
ARM GAS  C:\Users\Alex\AppData\Local\Temp\ccdKwz1H.s 			page 193


 6023              	.LBE331:
 6024              	.LBE330:
 613:Lib/lvgl/src/core/lv_obj_style.c ****     lv_anim_set_completed_cb(&a, fade_in_anim_completed);
 6025              		.loc 1 613 5 is_stmt 1 view .LVU1820
 6026              	.LBB332:
 6027              	.LBI332:
 209:Lib/lvgl/src/core/../misc/lv_anim.h **** {
 6028              		.loc 9 209 20 view .LVU1821
 6029              	.LBB333:
 211:Lib/lvgl/src/core/../misc/lv_anim.h **** }
 6030              		.loc 9 211 5 view .LVU1822
 211:Lib/lvgl/src/core/../misc/lv_anim.h **** }
 6031              		.loc 9 211 16 is_stmt 0 view .LVU1823
 6032 0020 054B     		ldr	r3, .L441
 6033 0022 0193     		str	r3, [sp, #4]
 6034              	.LVL584:
 211:Lib/lvgl/src/core/../misc/lv_anim.h **** }
 6035              		.loc 9 211 16 view .LVU1824
 6036              	.LBE333:
 6037              	.LBE332:
 614:Lib/lvgl/src/core/lv_obj_style.c ****     lv_anim_set_duration(&a, time);
 6038              		.loc 1 614 5 is_stmt 1 view .LVU1825
 6039              	.LBB334:
 6040              	.LBI334:
 304:Lib/lvgl/src/core/../misc/lv_anim.h **** {
 6041              		.loc 9 304 20 view .LVU1826
 6042              	.LBB335:
 306:Lib/lvgl/src/core/../misc/lv_anim.h **** }
 6043              		.loc 9 306 5 view .LVU1827
 306:Lib/lvgl/src/core/../misc/lv_anim.h **** }
 6044              		.loc 9 306 21 is_stmt 0 view .LVU1828
 6045 0024 054B     		ldr	r3, .L441+4
 6046 0026 0493     		str	r3, [sp, #16]
 6047              	.LVL585:
 306:Lib/lvgl/src/core/../misc/lv_anim.h **** }
 6048              		.loc 9 306 21 view .LVU1829
 6049              	.LBE335:
 6050              	.LBE334:
 615:Lib/lvgl/src/core/lv_obj_style.c ****     lv_anim_set_delay(&a, delay);
 6051              		.loc 1 615 5 is_stmt 1 view .LVU1830
 6052              	.LBB336:
 6053              	.LBI336:
 219:Lib/lvgl/src/core/../misc/lv_anim.h **** {
 6054              		.loc 9 219 20 view .LVU1831
 6055              	.LBB337:
 221:Lib/lvgl/src/core/../misc/lv_anim.h **** }
 6056              		.loc 9 221 5 view .LVU1832
 221:Lib/lvgl/src/core/../misc/lv_anim.h **** }
 6057              		.loc 9 221 17 is_stmt 0 view .LVU1833
 6058 0028 0C95     		str	r5, [sp, #48]
 6059              	.LVL586:
 221:Lib/lvgl/src/core/../misc/lv_anim.h **** }
 6060              		.loc 9 221 17 view .LVU1834
 6061              	.LBE337:
 6062              	.LBE336:
 616:Lib/lvgl/src/core/lv_obj_style.c ****     lv_anim_start(&a);
 6063              		.loc 1 616 5 is_stmt 1 view .LVU1835
ARM GAS  C:\Users\Alex\AppData\Local\Temp\ccdKwz1H.s 			page 194


 6064              	.LBB338:
 6065              	.LBI338:
 237:Lib/lvgl/src/core/../misc/lv_anim.h **** {
 6066              		.loc 9 237 20 view .LVU1836
 6067              	.LBB339:
 239:Lib/lvgl/src/core/../misc/lv_anim.h **** }
 6068              		.loc 9 239 5 view .LVU1837
 239:Lib/lvgl/src/core/../misc/lv_anim.h **** }
 6069              		.loc 9 239 19 is_stmt 0 view .LVU1838
 6070 002a 6442     		rsbs	r4, r4, #0
 6071              	.LVL587:
 239:Lib/lvgl/src/core/../misc/lv_anim.h **** }
 6072              		.loc 9 239 17 view .LVU1839
 6073 002c 0D94     		str	r4, [sp, #52]
 6074              	.LVL588:
 239:Lib/lvgl/src/core/../misc/lv_anim.h **** }
 6075              		.loc 9 239 17 view .LVU1840
 6076              	.LBE339:
 6077              	.LBE338:
 617:Lib/lvgl/src/core/lv_obj_style.c **** }
 6078              		.loc 1 617 5 is_stmt 1 view .LVU1841
 6079 002e 6846     		mov	r0, sp
 6080 0030 FFF7FEFF 		bl	lv_anim_start
 6081              	.LVL589:
 618:Lib/lvgl/src/core/lv_obj_style.c **** 
 6082              		.loc 1 618 1 is_stmt 0 view .LVU1842
 6083 0034 16B0     		add	sp, sp, #88
 6084              	.LCFI75:
 6085              		.cfi_def_cfa_offset 16
 6086              		@ sp needed
 6087 0036 70BD     		pop	{r4, r5, r6, pc}
 6088              	.LVL590:
 6089              	.L442:
 618:Lib/lvgl/src/core/lv_obj_style.c **** 
 6090              		.loc 1 618 1 view .LVU1843
 6091              		.align	2
 6092              	.L441:
 6093 0038 00000000 		.word	fade_anim_cb
 6094 003c 00000000 		.word	fade_in_anim_completed
 6095              		.cfi_endproc
 6096              	.LFE252:
 6098              		.section	.text.lv_obj_fade_out,"ax",%progbits
 6099              		.align	1
 6100              		.global	lv_obj_fade_out
 6101              		.syntax unified
 6102              		.thumb
 6103              		.thumb_func
 6105              	lv_obj_fade_out:
 6106              	.LVL591:
 6107              	.LFB253:
 621:Lib/lvgl/src/core/lv_obj_style.c ****     lv_anim_t a;
 6108              		.loc 1 621 1 is_stmt 1 view -0
 6109              		.cfi_startproc
 6110              		@ args = 0, pretend = 0, frame = 96
 6111              		@ frame_needed = 0, uses_anonymous_args = 0
 621:Lib/lvgl/src/core/lv_obj_style.c ****     lv_anim_t a;
 6112              		.loc 1 621 1 is_stmt 0 view .LVU1845
ARM GAS  C:\Users\Alex\AppData\Local\Temp\ccdKwz1H.s 			page 195


 6113 0000 70B5     		push	{r4, r5, r6, lr}
 6114              	.LCFI76:
 6115              		.cfi_def_cfa_offset 16
 6116              		.cfi_offset 4, -16
 6117              		.cfi_offset 5, -12
 6118              		.cfi_offset 6, -8
 6119              		.cfi_offset 14, -4
 6120 0002 98B0     		sub	sp, sp, #96
 6121              	.LCFI77:
 6122              		.cfi_def_cfa_offset 112
 6123 0004 0546     		mov	r5, r0
 6124 0006 0E46     		mov	r6, r1
 6125 0008 1446     		mov	r4, r2
 622:Lib/lvgl/src/core/lv_obj_style.c ****     lv_anim_init(&a);
 6126              		.loc 1 622 5 is_stmt 1 view .LVU1846
 623:Lib/lvgl/src/core/lv_obj_style.c ****     lv_anim_set_var(&a, obj);
 6127              		.loc 1 623 5 view .LVU1847
 6128 000a 02A8     		add	r0, sp, #8
 6129              	.LVL592:
 623:Lib/lvgl/src/core/lv_obj_style.c ****     lv_anim_set_var(&a, obj);
 6130              		.loc 1 623 5 is_stmt 0 view .LVU1848
 6131 000c FFF7FEFF 		bl	lv_anim_init
 6132              	.LVL593:
 624:Lib/lvgl/src/core/lv_obj_style.c ****     lv_anim_set_values(&a, lv_obj_get_style_opa(obj, 0), LV_OPA_TRANSP);
 6133              		.loc 1 624 5 is_stmt 1 view .LVU1849
 6134              	.LBB340:
 6135              	.LBI340:
 197:Lib/lvgl/src/core/../misc/lv_anim.h **** {
 6136              		.loc 9 197 20 view .LVU1850
 6137              	.LBB341:
 199:Lib/lvgl/src/core/../misc/lv_anim.h **** }
 6138              		.loc 9 199 5 view .LVU1851
 199:Lib/lvgl/src/core/../misc/lv_anim.h **** }
 6139              		.loc 9 199 12 is_stmt 0 view .LVU1852
 6140 0010 0295     		str	r5, [sp, #8]
 6141              	.LVL594:
 199:Lib/lvgl/src/core/../misc/lv_anim.h **** }
 6142              		.loc 9 199 12 view .LVU1853
 6143              	.LBE341:
 6144              	.LBE340:
 625:Lib/lvgl/src/core/lv_obj_style.c ****     lv_anim_set_exec_cb(&a, fade_anim_cb);
 6145              		.loc 1 625 5 is_stmt 1 view .LVU1854
 6146              	.LBB342:
 6147              	.LBI342:
 580:Lib/lvgl/src/core/lv_obj_style_gen.h **** {
 6148              		.loc 8 580 24 view .LVU1855
 6149              	.LBB343:
 582:Lib/lvgl/src/core/lv_obj_style_gen.h ****     return (lv_opa_t)v.num;
 6150              		.loc 8 582 5 view .LVU1856
 582:Lib/lvgl/src/core/lv_obj_style_gen.h ****     return (lv_opa_t)v.num;
 6151              		.loc 8 582 26 is_stmt 0 view .LVU1857
 6152 0012 5F22     		movs	r2, #95
 6153 0014 0021     		movs	r1, #0
 6154 0016 2846     		mov	r0, r5
 6155 0018 FFF7FEFF 		bl	lv_obj_get_style_prop
 6156              	.LVL595:
 6157 001c 0190     		str	r0, [sp, #4]
ARM GAS  C:\Users\Alex\AppData\Local\Temp\ccdKwz1H.s 			page 196


 583:Lib/lvgl/src/core/lv_obj_style_gen.h **** }
 6158              		.loc 8 583 5 is_stmt 1 view .LVU1858
 6159              	.LVL596:
 583:Lib/lvgl/src/core/lv_obj_style_gen.h **** }
 6160              		.loc 8 583 5 is_stmt 0 view .LVU1859
 6161              	.LBE343:
 6162              	.LBE342:
 6163              	.LBB344:
 6164              	.LBI344:
 248:Lib/lvgl/src/core/../misc/lv_anim.h **** {
 6165              		.loc 9 248 20 is_stmt 1 view .LVU1860
 6166              	.LBB345:
 250:Lib/lvgl/src/core/../misc/lv_anim.h ****     a->current_value = INT32_MIN;
 6167              		.loc 9 250 5 view .LVU1861
 250:Lib/lvgl/src/core/../misc/lv_anim.h ****     a->current_value = INT32_MIN;
 6168              		.loc 9 250 20 is_stmt 0 view .LVU1862
 6169 001e C0B2     		uxtb	r0, r0
 6170              	.LVL597:
 250:Lib/lvgl/src/core/../misc/lv_anim.h ****     a->current_value = INT32_MIN;
 6171              		.loc 9 250 20 view .LVU1863
 6172 0020 0B90     		str	r0, [sp, #44]
 251:Lib/lvgl/src/core/../misc/lv_anim.h ****     a->end_value = end;
 6173              		.loc 9 251 5 is_stmt 1 view .LVU1864
 251:Lib/lvgl/src/core/../misc/lv_anim.h ****     a->end_value = end;
 6174              		.loc 9 251 22 is_stmt 0 view .LVU1865
 6175 0022 4FF00043 		mov	r3, #-2147483648
 6176 0026 0C93     		str	r3, [sp, #48]
 252:Lib/lvgl/src/core/../misc/lv_anim.h **** }
 6177              		.loc 9 252 5 is_stmt 1 view .LVU1866
 252:Lib/lvgl/src/core/../misc/lv_anim.h **** }
 6178              		.loc 9 252 18 is_stmt 0 view .LVU1867
 6179 0028 0023     		movs	r3, #0
 6180 002a 0D93     		str	r3, [sp, #52]
 6181              	.LVL598:
 252:Lib/lvgl/src/core/../misc/lv_anim.h **** }
 6182              		.loc 9 252 18 view .LVU1868
 6183              	.LBE345:
 6184              	.LBE344:
 626:Lib/lvgl/src/core/lv_obj_style.c ****     lv_anim_set_duration(&a, time);
 6185              		.loc 1 626 5 is_stmt 1 view .LVU1869
 6186              	.LBB346:
 6187              	.LBI346:
 209:Lib/lvgl/src/core/../misc/lv_anim.h **** {
 6188              		.loc 9 209 20 view .LVU1870
 6189              	.LBB347:
 211:Lib/lvgl/src/core/../misc/lv_anim.h **** }
 6190              		.loc 9 211 5 view .LVU1871
 211:Lib/lvgl/src/core/../misc/lv_anim.h **** }
 6191              		.loc 9 211 16 is_stmt 0 view .LVU1872
 6192 002c 044B     		ldr	r3, .L445
 6193 002e 0393     		str	r3, [sp, #12]
 6194              	.LVL599:
 211:Lib/lvgl/src/core/../misc/lv_anim.h **** }
 6195              		.loc 9 211 16 view .LVU1873
 6196              	.LBE347:
 6197              	.LBE346:
 627:Lib/lvgl/src/core/lv_obj_style.c ****     lv_anim_set_delay(&a, delay);
ARM GAS  C:\Users\Alex\AppData\Local\Temp\ccdKwz1H.s 			page 197


 6198              		.loc 1 627 5 is_stmt 1 view .LVU1874
 6199              	.LBB348:
 6200              	.LBI348:
 219:Lib/lvgl/src/core/../misc/lv_anim.h **** {
 6201              		.loc 9 219 20 view .LVU1875
 6202              	.LBB349:
 221:Lib/lvgl/src/core/../misc/lv_anim.h **** }
 6203              		.loc 9 221 5 view .LVU1876
 221:Lib/lvgl/src/core/../misc/lv_anim.h **** }
 6204              		.loc 9 221 17 is_stmt 0 view .LVU1877
 6205 0030 0E96     		str	r6, [sp, #56]
 6206              	.LVL600:
 221:Lib/lvgl/src/core/../misc/lv_anim.h **** }
 6207              		.loc 9 221 17 view .LVU1878
 6208              	.LBE349:
 6209              	.LBE348:
 628:Lib/lvgl/src/core/lv_obj_style.c ****     lv_anim_start(&a);
 6210              		.loc 1 628 5 is_stmt 1 view .LVU1879
 6211              	.LBB350:
 6212              	.LBI350:
 237:Lib/lvgl/src/core/../misc/lv_anim.h **** {
 6213              		.loc 9 237 20 view .LVU1880
 6214              	.LBB351:
 239:Lib/lvgl/src/core/../misc/lv_anim.h **** }
 6215              		.loc 9 239 5 view .LVU1881
 239:Lib/lvgl/src/core/../misc/lv_anim.h **** }
 6216              		.loc 9 239 19 is_stmt 0 view .LVU1882
 6217 0032 6442     		rsbs	r4, r4, #0
 6218              	.LVL601:
 239:Lib/lvgl/src/core/../misc/lv_anim.h **** }
 6219              		.loc 9 239 17 view .LVU1883
 6220 0034 0F94     		str	r4, [sp, #60]
 6221              	.LVL602:
 239:Lib/lvgl/src/core/../misc/lv_anim.h **** }
 6222              		.loc 9 239 17 view .LVU1884
 6223              	.LBE351:
 6224              	.LBE350:
 629:Lib/lvgl/src/core/lv_obj_style.c **** }
 6225              		.loc 1 629 5 is_stmt 1 view .LVU1885
 6226 0036 02A8     		add	r0, sp, #8
 6227 0038 FFF7FEFF 		bl	lv_anim_start
 6228              	.LVL603:
 630:Lib/lvgl/src/core/lv_obj_style.c **** 
 6229              		.loc 1 630 1 is_stmt 0 view .LVU1886
 6230 003c 18B0     		add	sp, sp, #96
 6231              	.LCFI78:
 6232              		.cfi_def_cfa_offset 16
 6233              		@ sp needed
 6234 003e 70BD     		pop	{r4, r5, r6, pc}
 6235              	.LVL604:
 6236              	.L446:
 630:Lib/lvgl/src/core/lv_obj_style.c **** 
 6237              		.loc 1 630 1 view .LVU1887
 6238              		.align	2
 6239              	.L445:
 6240 0040 00000000 		.word	fade_anim_cb
 6241              		.cfi_endproc
ARM GAS  C:\Users\Alex\AppData\Local\Temp\ccdKwz1H.s 			page 198


 6242              	.LFE253:
 6244              		.section	.text.lv_obj_calculate_style_text_align,"ax",%progbits
 6245              		.align	1
 6246              		.global	lv_obj_calculate_style_text_align
 6247              		.syntax unified
 6248              		.thumb
 6249              		.thumb_func
 6251              	lv_obj_calculate_style_text_align:
 6252              	.LVL605:
 6253              	.LFB254:
 633:Lib/lvgl/src/core/lv_obj_style.c ****     lv_text_align_t align = lv_obj_get_style_text_align(obj, part);
 6254              		.loc 1 633 1 is_stmt 1 view -0
 6255              		.cfi_startproc
 6256              		@ args = 0, pretend = 0, frame = 8
 6257              		@ frame_needed = 0, uses_anonymous_args = 0
 633:Lib/lvgl/src/core/lv_obj_style.c ****     lv_text_align_t align = lv_obj_get_style_text_align(obj, part);
 6258              		.loc 1 633 1 is_stmt 0 view .LVU1889
 6259 0000 70B5     		push	{r4, r5, r6, lr}
 6260              	.LCFI79:
 6261              		.cfi_def_cfa_offset 16
 6262              		.cfi_offset 4, -16
 6263              		.cfi_offset 5, -12
 6264              		.cfi_offset 6, -8
 6265              		.cfi_offset 14, -4
 6266 0002 82B0     		sub	sp, sp, #8
 6267              	.LCFI80:
 6268              		.cfi_def_cfa_offset 24
 6269 0004 0546     		mov	r5, r0
 6270 0006 0E46     		mov	r6, r1
 634:Lib/lvgl/src/core/lv_obj_style.c ****     lv_base_dir_t base_dir = lv_obj_get_style_base_dir(obj, part);
 6271              		.loc 1 634 5 is_stmt 1 view .LVU1890
 6272              	.LVL606:
 6273              	.LBB352:
 6274              	.LBI352:
 562:Lib/lvgl/src/core/lv_obj_style_gen.h **** {
 6275              		.loc 8 562 31 view .LVU1891
 6276              	.LBB353:
 564:Lib/lvgl/src/core/lv_obj_style_gen.h ****     return (lv_text_align_t)v.num;
 6277              		.loc 8 564 5 view .LVU1892
 564:Lib/lvgl/src/core/lv_obj_style_gen.h ****     return (lv_text_align_t)v.num;
 6278              		.loc 8 564 26 is_stmt 0 view .LVU1893
 6279 0008 5E22     		movs	r2, #94
 6280              	.LVL607:
 564:Lib/lvgl/src/core/lv_obj_style_gen.h ****     return (lv_text_align_t)v.num;
 6281              		.loc 8 564 26 view .LVU1894
 6282 000a FFF7FEFF 		bl	lv_obj_get_style_prop
 6283              	.LVL608:
 564:Lib/lvgl/src/core/lv_obj_style_gen.h ****     return (lv_text_align_t)v.num;
 6284              		.loc 8 564 26 view .LVU1895
 6285 000e 0190     		str	r0, [sp, #4]
 565:Lib/lvgl/src/core/lv_obj_style_gen.h **** }
 6286              		.loc 8 565 5 is_stmt 1 view .LVU1896
 565:Lib/lvgl/src/core/lv_obj_style_gen.h **** }
 6287              		.loc 8 565 12 is_stmt 0 view .LVU1897
 6288 0010 C4B2     		uxtb	r4, r0
 6289              	.LVL609:
 565:Lib/lvgl/src/core/lv_obj_style_gen.h **** }
ARM GAS  C:\Users\Alex\AppData\Local\Temp\ccdKwz1H.s 			page 199


 6290              		.loc 8 565 12 view .LVU1898
 6291              	.LBE353:
 6292              	.LBE352:
 635:Lib/lvgl/src/core/lv_obj_style.c ****     lv_bidi_calculate_align(&align, &base_dir, txt);
 6293              		.loc 1 635 5 is_stmt 1 view .LVU1899
 6294              	.LBB354:
 6295              	.LBI354:
 626:Lib/lvgl/src/core/lv_obj_style_gen.h **** }
 627:Lib/lvgl/src/core/lv_obj_style_gen.h **** 
 628:Lib/lvgl/src/core/lv_obj_style_gen.h **** static inline uint16_t lv_obj_get_style_layout(const lv_obj_t * obj, uint32_t part)
 629:Lib/lvgl/src/core/lv_obj_style_gen.h **** {
 630:Lib/lvgl/src/core/lv_obj_style_gen.h ****     lv_style_value_t v = lv_obj_get_style_prop(obj, part, LV_STYLE_LAYOUT);
 631:Lib/lvgl/src/core/lv_obj_style_gen.h ****     return (uint16_t)v.num;
 632:Lib/lvgl/src/core/lv_obj_style_gen.h **** }
 633:Lib/lvgl/src/core/lv_obj_style_gen.h **** 
 634:Lib/lvgl/src/core/lv_obj_style_gen.h **** static inline lv_base_dir_t lv_obj_get_style_base_dir(const lv_obj_t * obj, uint32_t part)
 6296              		.loc 8 634 29 view .LVU1900
 6297              	.LBB355:
 635:Lib/lvgl/src/core/lv_obj_style_gen.h **** {
 636:Lib/lvgl/src/core/lv_obj_style_gen.h ****     lv_style_value_t v = lv_obj_get_style_prop(obj, part, LV_STYLE_BASE_DIR);
 6298              		.loc 8 636 5 view .LVU1901
 6299              		.loc 8 636 26 is_stmt 0 view .LVU1902
 6300 0012 2722     		movs	r2, #39
 6301 0014 3146     		mov	r1, r6
 6302 0016 2846     		mov	r0, r5
 6303 0018 FFF7FEFF 		bl	lv_obj_get_style_prop
 6304              	.LVL610:
 6305 001c 0190     		str	r0, [sp, #4]
 637:Lib/lvgl/src/core/lv_obj_style_gen.h ****     return (lv_base_dir_t)v.num;
 6306              		.loc 8 637 5 is_stmt 1 view .LVU1903
 6307              	.LVL611:
 6308              		.loc 8 637 5 is_stmt 0 view .LVU1904
 6309              	.LBE355:
 6310              	.LBE354:
 636:Lib/lvgl/src/core/lv_obj_style.c ****     return align;
 6311              		.loc 1 636 5 is_stmt 1 view .LVU1905
 6312              	.LBB356:
 6313              	.LBI356:
 6314              		.file 10 "Lib/lvgl/src/core/../misc/lv_bidi.h"
   1:Lib/lvgl/src/core/../misc/lv_bidi.h **** /**
   2:Lib/lvgl/src/core/../misc/lv_bidi.h ****  * @file lv_bidi.h
   3:Lib/lvgl/src/core/../misc/lv_bidi.h ****  *
   4:Lib/lvgl/src/core/../misc/lv_bidi.h ****  */
   5:Lib/lvgl/src/core/../misc/lv_bidi.h **** 
   6:Lib/lvgl/src/core/../misc/lv_bidi.h **** #ifndef LV_BIDI_H
   7:Lib/lvgl/src/core/../misc/lv_bidi.h **** #define LV_BIDI_H
   8:Lib/lvgl/src/core/../misc/lv_bidi.h **** 
   9:Lib/lvgl/src/core/../misc/lv_bidi.h **** #ifdef __cplusplus
  10:Lib/lvgl/src/core/../misc/lv_bidi.h **** extern "C" {
  11:Lib/lvgl/src/core/../misc/lv_bidi.h **** #endif
  12:Lib/lvgl/src/core/../misc/lv_bidi.h **** 
  13:Lib/lvgl/src/core/../misc/lv_bidi.h **** /*********************
  14:Lib/lvgl/src/core/../misc/lv_bidi.h ****  *      INCLUDES
  15:Lib/lvgl/src/core/../misc/lv_bidi.h ****  *********************/
  16:Lib/lvgl/src/core/../misc/lv_bidi.h **** #include "../lv_conf_internal.h"
  17:Lib/lvgl/src/core/../misc/lv_bidi.h **** 
  18:Lib/lvgl/src/core/../misc/lv_bidi.h **** #include <stdbool.h>
ARM GAS  C:\Users\Alex\AppData\Local\Temp\ccdKwz1H.s 			page 200


  19:Lib/lvgl/src/core/../misc/lv_bidi.h **** #include <stdint.h>
  20:Lib/lvgl/src/core/../misc/lv_bidi.h **** #include "lv_text.h"
  21:Lib/lvgl/src/core/../misc/lv_bidi.h **** 
  22:Lib/lvgl/src/core/../misc/lv_bidi.h **** /*********************
  23:Lib/lvgl/src/core/../misc/lv_bidi.h ****  *      DEFINES
  24:Lib/lvgl/src/core/../misc/lv_bidi.h ****  *********************/
  25:Lib/lvgl/src/core/../misc/lv_bidi.h **** /*Special non printable strong characters.
  26:Lib/lvgl/src/core/../misc/lv_bidi.h ****  *They can be inserted to texts to affect the run's direction*/
  27:Lib/lvgl/src/core/../misc/lv_bidi.h **** #define LV_BIDI_LRO  "\xE2\x80\xAD" /*U+202D*/
  28:Lib/lvgl/src/core/../misc/lv_bidi.h **** #define LV_BIDI_RLO  "\xE2\x80\xAE" /*U+202E*/
  29:Lib/lvgl/src/core/../misc/lv_bidi.h **** 
  30:Lib/lvgl/src/core/../misc/lv_bidi.h **** /**********************
  31:Lib/lvgl/src/core/../misc/lv_bidi.h ****  *      TYPEDEFS
  32:Lib/lvgl/src/core/../misc/lv_bidi.h ****  **********************/
  33:Lib/lvgl/src/core/../misc/lv_bidi.h **** enum _lv_base_dir_t {
  34:Lib/lvgl/src/core/../misc/lv_bidi.h ****     LV_BASE_DIR_LTR      = 0x00,
  35:Lib/lvgl/src/core/../misc/lv_bidi.h ****     LV_BASE_DIR_RTL      = 0x01,
  36:Lib/lvgl/src/core/../misc/lv_bidi.h ****     LV_BASE_DIR_AUTO     = 0x02,
  37:Lib/lvgl/src/core/../misc/lv_bidi.h **** 
  38:Lib/lvgl/src/core/../misc/lv_bidi.h ****     LV_BASE_DIR_NEUTRAL  = 0x20,
  39:Lib/lvgl/src/core/../misc/lv_bidi.h ****     LV_BASE_DIR_WEAK     = 0x21,
  40:Lib/lvgl/src/core/../misc/lv_bidi.h **** };
  41:Lib/lvgl/src/core/../misc/lv_bidi.h **** 
  42:Lib/lvgl/src/core/../misc/lv_bidi.h **** #ifdef DOXYGEN
  43:Lib/lvgl/src/core/../misc/lv_bidi.h **** typedef _lv_base_dir_t lv_base_dir_t;
  44:Lib/lvgl/src/core/../misc/lv_bidi.h **** #else
  45:Lib/lvgl/src/core/../misc/lv_bidi.h **** typedef uint8_t lv_base_dir_t;
  46:Lib/lvgl/src/core/../misc/lv_bidi.h **** #endif /*DOXYGEN*/
  47:Lib/lvgl/src/core/../misc/lv_bidi.h **** 
  48:Lib/lvgl/src/core/../misc/lv_bidi.h **** /**********************
  49:Lib/lvgl/src/core/../misc/lv_bidi.h ****  * GLOBAL PROTOTYPES
  50:Lib/lvgl/src/core/../misc/lv_bidi.h ****  **********************/
  51:Lib/lvgl/src/core/../misc/lv_bidi.h **** #if LV_USE_BIDI
  52:Lib/lvgl/src/core/../misc/lv_bidi.h **** 
  53:Lib/lvgl/src/core/../misc/lv_bidi.h **** /**
  54:Lib/lvgl/src/core/../misc/lv_bidi.h ****  * Convert a text to get the characters in the correct visual order according to
  55:Lib/lvgl/src/core/../misc/lv_bidi.h ****  * Unicode Bidirectional Algorithm
  56:Lib/lvgl/src/core/../misc/lv_bidi.h ****  * @param str_in the text to process
  57:Lib/lvgl/src/core/../misc/lv_bidi.h ****  * @param str_out store the result here. Has the be `strlen(str_in)` length
  58:Lib/lvgl/src/core/../misc/lv_bidi.h ****  * @param base_dir `LV_BASE_DIR_LTR` or `LV_BASE_DIR_RTL`
  59:Lib/lvgl/src/core/../misc/lv_bidi.h ****  */
  60:Lib/lvgl/src/core/../misc/lv_bidi.h **** void _lv_bidi_process(const char * str_in, char * str_out, lv_base_dir_t base_dir);
  61:Lib/lvgl/src/core/../misc/lv_bidi.h **** 
  62:Lib/lvgl/src/core/../misc/lv_bidi.h **** /**
  63:Lib/lvgl/src/core/../misc/lv_bidi.h ****  * Auto-detect the direction of a text based on the first strong character
  64:Lib/lvgl/src/core/../misc/lv_bidi.h ****  * @param txt the text to process
  65:Lib/lvgl/src/core/../misc/lv_bidi.h ****  * @return `LV_BASE_DIR_LTR` or `LV_BASE_DIR_RTL`
  66:Lib/lvgl/src/core/../misc/lv_bidi.h ****  */
  67:Lib/lvgl/src/core/../misc/lv_bidi.h **** lv_base_dir_t _lv_bidi_detect_base_dir(const char * txt);
  68:Lib/lvgl/src/core/../misc/lv_bidi.h **** 
  69:Lib/lvgl/src/core/../misc/lv_bidi.h **** /**
  70:Lib/lvgl/src/core/../misc/lv_bidi.h ****  * Get the logical position of a character in a line
  71:Lib/lvgl/src/core/../misc/lv_bidi.h ****  * @param str_in the input string. Can be only one line.
  72:Lib/lvgl/src/core/../misc/lv_bidi.h ****  * @param bidi_txt internally the text is bidi processed which buffer can be get here.
  73:Lib/lvgl/src/core/../misc/lv_bidi.h ****  * If not required anymore has to freed with `lv_free()`
  74:Lib/lvgl/src/core/../misc/lv_bidi.h ****  * Can be `NULL` is unused
  75:Lib/lvgl/src/core/../misc/lv_bidi.h ****  * @param len length of the line in character count
ARM GAS  C:\Users\Alex\AppData\Local\Temp\ccdKwz1H.s 			page 201


  76:Lib/lvgl/src/core/../misc/lv_bidi.h ****  * @param base_dir base direction of the text: `LV_BASE_DIR_LTR` or `LV_BASE_DIR_RTL`
  77:Lib/lvgl/src/core/../misc/lv_bidi.h ****  * @param visual_pos the visual character position which logical position should be get
  78:Lib/lvgl/src/core/../misc/lv_bidi.h ****  * @param is_rtl tell the char at `visual_pos` is RTL or LTR context
  79:Lib/lvgl/src/core/../misc/lv_bidi.h ****  * @return the logical character position
  80:Lib/lvgl/src/core/../misc/lv_bidi.h ****  */
  81:Lib/lvgl/src/core/../misc/lv_bidi.h **** uint16_t _lv_bidi_get_logical_pos(const char * str_in, char ** bidi_txt, uint32_t len, lv_base_dir_
  82:Lib/lvgl/src/core/../misc/lv_bidi.h ****                                   uint32_t visual_pos, bool * is_rtl);
  83:Lib/lvgl/src/core/../misc/lv_bidi.h **** 
  84:Lib/lvgl/src/core/../misc/lv_bidi.h **** /**
  85:Lib/lvgl/src/core/../misc/lv_bidi.h ****  * Get the visual position of a character in a line
  86:Lib/lvgl/src/core/../misc/lv_bidi.h ****  * @param str_in the input string. Can be only one line.
  87:Lib/lvgl/src/core/../misc/lv_bidi.h ****  * @param bidi_txt internally the text is bidi processed which buffer can be get here.
  88:Lib/lvgl/src/core/../misc/lv_bidi.h ****  * If not required anymore has to freed with `lv_free()`
  89:Lib/lvgl/src/core/../misc/lv_bidi.h ****  * Can be `NULL` is unused
  90:Lib/lvgl/src/core/../misc/lv_bidi.h ****  * @param len length of the line in character count
  91:Lib/lvgl/src/core/../misc/lv_bidi.h ****  * @param base_dir base direction of the text: `LV_BASE_DIR_LTR` or `LV_BASE_DIR_RTL`
  92:Lib/lvgl/src/core/../misc/lv_bidi.h ****  * @param logical_pos the logical character position which visual position should be get
  93:Lib/lvgl/src/core/../misc/lv_bidi.h ****  * @param is_rtl tell the char at `logical_pos` is RTL or LTR context
  94:Lib/lvgl/src/core/../misc/lv_bidi.h ****  * @return the visual character position
  95:Lib/lvgl/src/core/../misc/lv_bidi.h ****  */
  96:Lib/lvgl/src/core/../misc/lv_bidi.h **** uint16_t _lv_bidi_get_visual_pos(const char * str_in, char ** bidi_txt, uint16_t len, lv_base_dir_t
  97:Lib/lvgl/src/core/../misc/lv_bidi.h ****                                  uint32_t logical_pos, bool * is_rtl);
  98:Lib/lvgl/src/core/../misc/lv_bidi.h **** 
  99:Lib/lvgl/src/core/../misc/lv_bidi.h **** /**
 100:Lib/lvgl/src/core/../misc/lv_bidi.h ****  * Bidi process a paragraph of text
 101:Lib/lvgl/src/core/../misc/lv_bidi.h ****  * @param str_in the string to process
 102:Lib/lvgl/src/core/../misc/lv_bidi.h ****  * @param str_out store the result here
 103:Lib/lvgl/src/core/../misc/lv_bidi.h ****  * @param len length of the text
 104:Lib/lvgl/src/core/../misc/lv_bidi.h ****  * @param base_dir base dir of the text
 105:Lib/lvgl/src/core/../misc/lv_bidi.h ****  * @param pos_conv_out an `uint16_t` array to store the related logical position of the character.
 106:Lib/lvgl/src/core/../misc/lv_bidi.h ****  * Can be `NULL` is unused
 107:Lib/lvgl/src/core/../misc/lv_bidi.h ****  * @param pos_conv_len length of `pos_conv_out` in element count
 108:Lib/lvgl/src/core/../misc/lv_bidi.h ****  */
 109:Lib/lvgl/src/core/../misc/lv_bidi.h **** void _lv_bidi_process_paragraph(const char * str_in, char * str_out, uint32_t len, lv_base_dir_t ba
 110:Lib/lvgl/src/core/../misc/lv_bidi.h ****                                 uint16_t * pos_conv_out, uint16_t pos_conv_len);
 111:Lib/lvgl/src/core/../misc/lv_bidi.h **** 
 112:Lib/lvgl/src/core/../misc/lv_bidi.h **** /**
 113:Lib/lvgl/src/core/../misc/lv_bidi.h ****  * Get the real text alignment from the a text alignment, base direction and a text.
 114:Lib/lvgl/src/core/../misc/lv_bidi.h ****  * @param align     LV_TEXT_ALIGN_..., write back the calculated align here (LV_TEXT_ALIGN_LEFT/RIG
 115:Lib/lvgl/src/core/../misc/lv_bidi.h ****  * @param base_dir  LV_BASE_DIR_..., write the calculated base dir here (LV_BASE_DIR_LTR/RTL)
 116:Lib/lvgl/src/core/../misc/lv_bidi.h ****  * @param txt       a text, used with LV_BASE_DIR_AUTO to determine the base direction
 117:Lib/lvgl/src/core/../misc/lv_bidi.h ****  */
 118:Lib/lvgl/src/core/../misc/lv_bidi.h **** void lv_bidi_calculate_align(lv_text_align_t * align, lv_base_dir_t * base_dir, const char * txt);
 119:Lib/lvgl/src/core/../misc/lv_bidi.h **** 
 120:Lib/lvgl/src/core/../misc/lv_bidi.h **** /**********************
 121:Lib/lvgl/src/core/../misc/lv_bidi.h ****  *      MACROS
 122:Lib/lvgl/src/core/../misc/lv_bidi.h ****  **********************/
 123:Lib/lvgl/src/core/../misc/lv_bidi.h **** 
 124:Lib/lvgl/src/core/../misc/lv_bidi.h **** #else /*LV_USE_BIDI*/
 125:Lib/lvgl/src/core/../misc/lv_bidi.h **** /**
 126:Lib/lvgl/src/core/../misc/lv_bidi.h ****  * For compatibility if LV_USE_BIDI = 0
 127:Lib/lvgl/src/core/../misc/lv_bidi.h ****  * Get the real text alignment from the a text alignment, base direction and a text.
 128:Lib/lvgl/src/core/../misc/lv_bidi.h ****  * @param align     For LV_TEXT_ALIGN_AUTO give LV_TEXT_ALIGN_LEFT else leave unchanged, write back
 129:Lib/lvgl/src/core/../misc/lv_bidi.h ****  * @param base_dir  Unused
 130:Lib/lvgl/src/core/../misc/lv_bidi.h ****  * @param txt       Unused
 131:Lib/lvgl/src/core/../misc/lv_bidi.h ****  */
 132:Lib/lvgl/src/core/../misc/lv_bidi.h **** static inline void lv_bidi_calculate_align(lv_text_align_t * align, lv_base_dir_t * base_dir, const
ARM GAS  C:\Users\Alex\AppData\Local\Temp\ccdKwz1H.s 			page 202


 6315              		.loc 10 132 20 view .LVU1906
 6316              	.LBB357:
 133:Lib/lvgl/src/core/../misc/lv_bidi.h **** {
 134:Lib/lvgl/src/core/../misc/lv_bidi.h ****     LV_UNUSED(txt);
 6317              		.loc 10 134 5 view .LVU1907
 135:Lib/lvgl/src/core/../misc/lv_bidi.h ****     LV_UNUSED(base_dir);
 6318              		.loc 10 135 5 view .LVU1908
 136:Lib/lvgl/src/core/../misc/lv_bidi.h ****     if(*align == LV_TEXT_ALIGN_AUTO) * align = LV_TEXT_ALIGN_LEFT;
 6319              		.loc 10 136 5 view .LVU1909
 6320              		.loc 10 136 7 is_stmt 0 view .LVU1910
 6321 001e 04B9     		cbnz	r4, .L448
 6322              		.loc 10 136 46 view .LVU1911
 6323 0020 0124     		movs	r4, #1
 6324              	.LVL612:
 6325              	.L448:
 6326              		.loc 10 136 46 view .LVU1912
 6327              	.LBE357:
 6328              	.LBE356:
 637:Lib/lvgl/src/core/lv_obj_style.c **** }
 6329              		.loc 1 637 5 is_stmt 1 view .LVU1913
 638:Lib/lvgl/src/core/lv_obj_style.c **** 
 6330              		.loc 1 638 1 is_stmt 0 view .LVU1914
 6331 0022 2046     		mov	r0, r4
 6332 0024 02B0     		add	sp, sp, #8
 6333              	.LCFI81:
 6334              		.cfi_def_cfa_offset 16
 6335              		@ sp needed
 6336 0026 70BD     		pop	{r4, r5, r6, pc}
 638:Lib/lvgl/src/core/lv_obj_style.c **** 
 6337              		.loc 1 638 1 view .LVU1915
 6338              		.cfi_endproc
 6339              	.LFE254:
 6341              		.section	.text.lv_obj_get_style_opa_recursive,"ax",%progbits
 6342              		.align	1
 6343              		.global	lv_obj_get_style_opa_recursive
 6344              		.syntax unified
 6345              		.thumb
 6346              		.thumb_func
 6348              	lv_obj_get_style_opa_recursive:
 6349              	.LVL613:
 6350              	.LFB255:
 641:Lib/lvgl/src/core/lv_obj_style.c **** 
 6351              		.loc 1 641 1 is_stmt 1 view -0
 6352              		.cfi_startproc
 6353              		@ args = 0, pretend = 0, frame = 8
 6354              		@ frame_needed = 0, uses_anonymous_args = 0
 641:Lib/lvgl/src/core/lv_obj_style.c **** 
 6355              		.loc 1 641 1 is_stmt 0 view .LVU1917
 6356 0000 70B5     		push	{r4, r5, r6, lr}
 6357              	.LCFI82:
 6358              		.cfi_def_cfa_offset 16
 6359              		.cfi_offset 4, -16
 6360              		.cfi_offset 5, -12
 6361              		.cfi_offset 6, -8
 6362              		.cfi_offset 14, -4
 6363 0002 82B0     		sub	sp, sp, #8
 6364              	.LCFI83:
ARM GAS  C:\Users\Alex\AppData\Local\Temp\ccdKwz1H.s 			page 203


 6365              		.cfi_def_cfa_offset 24
 6366 0004 0446     		mov	r4, r0
 6367 0006 0E46     		mov	r6, r1
 643:Lib/lvgl/src/core/lv_obj_style.c ****     if(opa_obj <= LV_OPA_MIN) return LV_OPA_TRANSP;
 6368              		.loc 1 643 5 is_stmt 1 view .LVU1918
 6369              	.LVL614:
 6370              	.LBB358:
 6371              	.LBI358:
 580:Lib/lvgl/src/core/lv_obj_style_gen.h **** {
 6372              		.loc 8 580 24 view .LVU1919
 6373              	.LBB359:
 582:Lib/lvgl/src/core/lv_obj_style_gen.h ****     return (lv_opa_t)v.num;
 6374              		.loc 8 582 5 view .LVU1920
 582:Lib/lvgl/src/core/lv_obj_style_gen.h ****     return (lv_opa_t)v.num;
 6375              		.loc 8 582 26 is_stmt 0 view .LVU1921
 6376 0008 5F22     		movs	r2, #95
 6377 000a FFF7FEFF 		bl	lv_obj_get_style_prop
 6378              	.LVL615:
 582:Lib/lvgl/src/core/lv_obj_style_gen.h ****     return (lv_opa_t)v.num;
 6379              		.loc 8 582 26 view .LVU1922
 6380 000e 0190     		str	r0, [sp, #4]
 583:Lib/lvgl/src/core/lv_obj_style_gen.h **** }
 6381              		.loc 8 583 5 is_stmt 1 view .LVU1923
 583:Lib/lvgl/src/core/lv_obj_style_gen.h **** }
 6382              		.loc 8 583 12 is_stmt 0 view .LVU1924
 6383 0010 C3B2     		uxtb	r3, r0
 6384              	.LVL616:
 583:Lib/lvgl/src/core/lv_obj_style_gen.h **** }
 6385              		.loc 8 583 12 view .LVU1925
 6386              	.LBE359:
 6387              	.LBE358:
 644:Lib/lvgl/src/core/lv_obj_style.c **** 
 6388              		.loc 1 644 5 is_stmt 1 view .LVU1926
 644:Lib/lvgl/src/core/lv_obj_style.c **** 
 6389              		.loc 1 644 7 is_stmt 0 view .LVU1927
 6390 0012 022B     		cmp	r3, #2
 6391 0014 2AD9     		bls	.L458
 646:Lib/lvgl/src/core/lv_obj_style.c ****     if(opa_obj < LV_OPA_MAX) {
 6392              		.loc 1 646 5 is_stmt 1 view .LVU1928
 6393              	.LVL617:
 647:Lib/lvgl/src/core/lv_obj_style.c ****         opa_final = LV_OPA_MIX2(opa_final, opa_obj);
 6394              		.loc 1 647 5 view .LVU1929
 647:Lib/lvgl/src/core/lv_obj_style.c ****         opa_final = LV_OPA_MIX2(opa_final, opa_obj);
 6395              		.loc 1 647 7 is_stmt 0 view .LVU1930
 6396 0016 FC2B     		cmp	r3, #252
 6397 0018 06D8     		bhi	.L459
 648:Lib/lvgl/src/core/lv_obj_style.c ****     }
 6398              		.loc 1 648 9 is_stmt 1 view .LVU1931
 648:Lib/lvgl/src/core/lv_obj_style.c ****     }
 6399              		.loc 1 648 21 is_stmt 0 view .LVU1932
 6400 001a C3EB0320 		rsb	r0, r3, r3, lsl #8
 648:Lib/lvgl/src/core/lv_obj_style.c ****     }
 6401              		.loc 1 648 19 view .LVU1933
 6402 001e C0F30725 		ubfx	r5, r0, #8, #8
 6403              	.LVL618:
 6404              	.L453:
 651:Lib/lvgl/src/core/lv_obj_style.c ****         part = LV_PART_MAIN;
ARM GAS  C:\Users\Alex\AppData\Local\Temp\ccdKwz1H.s 			page 204


 6405              		.loc 1 651 5 is_stmt 1 view .LVU1934
 651:Lib/lvgl/src/core/lv_obj_style.c ****         part = LV_PART_MAIN;
 6406              		.loc 1 651 7 is_stmt 0 view .LVU1935
 6407 0022 1EB1     		cbz	r6, .L465
 652:Lib/lvgl/src/core/lv_obj_style.c ****     }
 6408              		.loc 1 652 14 view .LVU1936
 6409 0024 0026     		movs	r6, #0
 6410              	.LVL619:
 652:Lib/lvgl/src/core/lv_obj_style.c ****     }
 6411              		.loc 1 652 14 view .LVU1937
 6412 0026 0AE0     		b	.L456
 6413              	.LVL620:
 6414              	.L459:
 646:Lib/lvgl/src/core/lv_obj_style.c ****     if(opa_obj < LV_OPA_MAX) {
 6415              		.loc 1 646 14 view .LVU1938
 6416 0028 FF25     		movs	r5, #255
 6417 002a FAE7     		b	.L453
 6418              	.LVL621:
 6419              	.L465:
 655:Lib/lvgl/src/core/lv_obj_style.c ****     }
 6420              		.loc 1 655 9 is_stmt 1 view .LVU1939
 655:Lib/lvgl/src/core/lv_obj_style.c ****     }
 6421              		.loc 1 655 15 is_stmt 0 view .LVU1940
 6422 002c 2046     		mov	r0, r4
 6423 002e FFF7FEFF 		bl	lv_obj_get_parent
 6424              	.LVL622:
 655:Lib/lvgl/src/core/lv_obj_style.c ****     }
 6425              		.loc 1 655 15 view .LVU1941
 6426 0032 0446     		mov	r4, r0
 6427              	.LVL623:
 655:Lib/lvgl/src/core/lv_obj_style.c ****     }
 6428              		.loc 1 655 15 view .LVU1942
 6429 0034 03E0     		b	.L456
 6430              	.LVL624:
 6431              	.L455:
 665:Lib/lvgl/src/core/lv_obj_style.c ****     }
 6432              		.loc 1 665 9 is_stmt 1 view .LVU1943
 665:Lib/lvgl/src/core/lv_obj_style.c ****     }
 6433              		.loc 1 665 15 is_stmt 0 view .LVU1944
 6434 0036 2046     		mov	r0, r4
 6435              	.LVL625:
 665:Lib/lvgl/src/core/lv_obj_style.c ****     }
 6436              		.loc 1 665 15 view .LVU1945
 6437 0038 FFF7FEFF 		bl	lv_obj_get_parent
 6438              	.LVL626:
 665:Lib/lvgl/src/core/lv_obj_style.c ****     }
 6439              		.loc 1 665 15 view .LVU1946
 6440 003c 0446     		mov	r4, r0
 6441              	.LVL627:
 6442              	.L456:
 658:Lib/lvgl/src/core/lv_obj_style.c ****         opa_obj = lv_obj_get_style_opa(obj, part);
 6443              		.loc 1 658 11 is_stmt 1 view .LVU1947
 6444 003e 7CB1     		cbz	r4, .L466
 659:Lib/lvgl/src/core/lv_obj_style.c ****         if(opa_obj <= LV_OPA_MIN) return LV_OPA_TRANSP;
 6445              		.loc 1 659 9 view .LVU1948
 6446              	.LVL628:
 6447              	.LBB360:
ARM GAS  C:\Users\Alex\AppData\Local\Temp\ccdKwz1H.s 			page 205


 6448              	.LBI360:
 580:Lib/lvgl/src/core/lv_obj_style_gen.h **** {
 6449              		.loc 8 580 24 view .LVU1949
 6450              	.LBB361:
 582:Lib/lvgl/src/core/lv_obj_style_gen.h ****     return (lv_opa_t)v.num;
 6451              		.loc 8 582 5 view .LVU1950
 582:Lib/lvgl/src/core/lv_obj_style_gen.h ****     return (lv_opa_t)v.num;
 6452              		.loc 8 582 26 is_stmt 0 view .LVU1951
 6453 0040 5F22     		movs	r2, #95
 6454 0042 3146     		mov	r1, r6
 6455 0044 2046     		mov	r0, r4
 6456 0046 FFF7FEFF 		bl	lv_obj_get_style_prop
 6457              	.LVL629:
 6458 004a 0190     		str	r0, [sp, #4]
 583:Lib/lvgl/src/core/lv_obj_style_gen.h **** }
 6459              		.loc 8 583 5 is_stmt 1 view .LVU1952
 583:Lib/lvgl/src/core/lv_obj_style_gen.h **** }
 6460              		.loc 8 583 12 is_stmt 0 view .LVU1953
 6461 004c C3B2     		uxtb	r3, r0
 6462              	.LVL630:
 583:Lib/lvgl/src/core/lv_obj_style_gen.h **** }
 6463              		.loc 8 583 12 view .LVU1954
 6464              	.LBE361:
 6465              	.LBE360:
 660:Lib/lvgl/src/core/lv_obj_style.c ****         if(opa_obj < LV_OPA_MAX) {
 6466              		.loc 1 660 9 is_stmt 1 view .LVU1955
 660:Lib/lvgl/src/core/lv_obj_style.c ****         if(opa_obj < LV_OPA_MAX) {
 6467              		.loc 1 660 11 is_stmt 0 view .LVU1956
 6468 004e 022B     		cmp	r3, #2
 6469 0050 10D9     		bls	.L461
 661:Lib/lvgl/src/core/lv_obj_style.c ****             opa_final = LV_OPA_MIX2(opa_final, opa_obj);
 6470              		.loc 1 661 9 is_stmt 1 view .LVU1957
 661:Lib/lvgl/src/core/lv_obj_style.c ****             opa_final = LV_OPA_MIX2(opa_final, opa_obj);
 6471              		.loc 1 661 11 is_stmt 0 view .LVU1958
 6472 0052 FC2B     		cmp	r3, #252
 6473 0054 EFD8     		bhi	.L455
 662:Lib/lvgl/src/core/lv_obj_style.c ****         }
 6474              		.loc 1 662 13 is_stmt 1 view .LVU1959
 662:Lib/lvgl/src/core/lv_obj_style.c ****         }
 6475              		.loc 1 662 25 is_stmt 0 view .LVU1960
 6476 0056 05FB03F3 		mul	r3, r5, r3
 6477              	.LVL631:
 662:Lib/lvgl/src/core/lv_obj_style.c ****         }
 6478              		.loc 1 662 23 view .LVU1961
 6479 005a C3F30725 		ubfx	r5, r3, #8, #8
 6480              	.LVL632:
 662:Lib/lvgl/src/core/lv_obj_style.c ****         }
 6481              		.loc 1 662 23 view .LVU1962
 6482 005e EAE7     		b	.L455
 6483              	.LVL633:
 6484              	.L466:
 668:Lib/lvgl/src/core/lv_obj_style.c ****     if(opa_final >= LV_OPA_MAX) return LV_OPA_COVER;
 6485              		.loc 1 668 5 is_stmt 1 view .LVU1963
 668:Lib/lvgl/src/core/lv_obj_style.c ****     if(opa_final >= LV_OPA_MAX) return LV_OPA_COVER;
 6486              		.loc 1 668 7 is_stmt 0 view .LVU1964
 6487 0060 022D     		cmp	r5, #2
 6488 0062 09D9     		bls	.L462
ARM GAS  C:\Users\Alex\AppData\Local\Temp\ccdKwz1H.s 			page 206


 669:Lib/lvgl/src/core/lv_obj_style.c ****     return opa_final;
 6489              		.loc 1 669 5 is_stmt 1 view .LVU1965
 669:Lib/lvgl/src/core/lv_obj_style.c ****     return opa_final;
 6490              		.loc 1 669 7 is_stmt 0 view .LVU1966
 6491 0064 FC2D     		cmp	r5, #252
 6492 0066 02D9     		bls	.L452
 669:Lib/lvgl/src/core/lv_obj_style.c ****     return opa_final;
 6493              		.loc 1 669 40 view .LVU1967
 6494 0068 FF25     		movs	r5, #255
 6495              	.LVL634:
 669:Lib/lvgl/src/core/lv_obj_style.c ****     return opa_final;
 6496              		.loc 1 669 40 view .LVU1968
 6497 006a 00E0     		b	.L452
 6498              	.LVL635:
 6499              	.L458:
 644:Lib/lvgl/src/core/lv_obj_style.c **** 
 6500              		.loc 1 644 38 view .LVU1969
 6501 006c 0025     		movs	r5, #0
 6502              	.LVL636:
 6503              	.L452:
 671:Lib/lvgl/src/core/lv_obj_style.c **** 
 6504              		.loc 1 671 1 view .LVU1970
 6505 006e 2846     		mov	r0, r5
 6506 0070 02B0     		add	sp, sp, #8
 6507              	.LCFI84:
 6508              		.cfi_remember_state
 6509              		.cfi_def_cfa_offset 16
 6510              		@ sp needed
 6511 0072 70BD     		pop	{r4, r5, r6, pc}
 6512              	.LVL637:
 6513              	.L461:
 6514              	.LCFI85:
 6515              		.cfi_restore_state
 660:Lib/lvgl/src/core/lv_obj_style.c ****         if(opa_obj < LV_OPA_MAX) {
 6516              		.loc 1 660 42 view .LVU1971
 6517 0074 0025     		movs	r5, #0
 6518              	.LVL638:
 660:Lib/lvgl/src/core/lv_obj_style.c ****         if(opa_obj < LV_OPA_MAX) {
 6519              		.loc 1 660 42 view .LVU1972
 6520 0076 FAE7     		b	.L452
 6521              	.LVL639:
 6522              	.L462:
 668:Lib/lvgl/src/core/lv_obj_style.c ****     if(opa_final >= LV_OPA_MAX) return LV_OPA_COVER;
 6523              		.loc 1 668 40 view .LVU1973
 6524 0078 0025     		movs	r5, #0
 6525              	.LVL640:
 668:Lib/lvgl/src/core/lv_obj_style.c ****     if(opa_final >= LV_OPA_MAX) return LV_OPA_COVER;
 6526              		.loc 1 668 40 view .LVU1974
 6527 007a F8E7     		b	.L452
 6528              		.cfi_endproc
 6529              	.LFE255:
 6531              		.section	.rodata.white.0,"a"
 6532              		.align	2
 6535              	white.0:
 6536 0000 FF       		.byte	-1
 6537 0001 FF       		.byte	-1
 6538 0002 FF       		.byte	-1
ARM GAS  C:\Users\Alex\AppData\Local\Temp\ccdKwz1H.s 			page 207


 6539              		.text
 6540              	.Letext0:
 6541              		.file 11 "e:\\programms\\gnu_mcu_eclipse\\toolchain\\arm-gnu-toolchain-12.2.mpacbti-bet1-mingw-w64
 6542              		.file 12 "e:\\programms\\gnu_mcu_eclipse\\toolchain\\arm-gnu-toolchain-12.2.mpacbti-bet1-mingw-w64
 6543              		.file 13 "e:\\programms\\gnu_mcu_eclipse\\toolchain\\arm-gnu-toolchain-12.2.mpacbti-bet1-mingw-w64
 6544              		.file 14 "Lib/lvgl/src/core/../misc/lv_types.h"
 6545              		.file 15 "Lib/lvgl/src/core/lv_obj.h"
 6546              		.file 16 "Lib/lvgl/src/core/lv_obj_class.h"
 6547              		.file 17 "Lib/lvgl/src/core/../indev/../core/lv_group.h"
 6548              		.file 18 "Lib/lvgl/src/core/../display/lv_display_private.h"
 6549              		.file 19 "Lib/lvgl/src/core/../display/../draw/lv_draw.h"
 6550              		.file 20 "Lib/lvgl/src/core/../display/../misc/lv_event.h"
 6551              		.file 21 "Lib/lvgl/src/core/../misc/lv_timer.h"
 6552              		.file 22 "Lib/lvgl/src/core/../misc/../font/lv_font.h"
 6553              		.file 23 "Lib/lvgl/src/core/../misc/../font/../draw/../misc/lv_area.h"
 6554              		.file 24 "Lib/lvgl/src/core/../misc/../font/../draw/lv_image_buf.h"
 6555              		.file 25 "Lib/lvgl/src/core/../misc/../font/../draw/lv_draw_buf.h"
 6556              		.file 26 "Lib/lvgl/src/core/../misc/../font/../misc/cache/../../osal/lv_os_none.h"
 6557              		.file 27 "Lib/lvgl/src/core/../misc/../font/../misc/cache/lv_cache_private.h"
 6558              		.file 28 "Lib/lvgl/src/core/../misc/../tick/lv_tick.h"
 6559              		.file 29 "Lib/lvgl/src/core/../misc/lv_text.h"
 6560              		.file 30 "Lib/lvgl/src/core/../misc/../layouts/lv_layout.h"
 6561              		.file 31 "Lib/lvgl/src/core/../display/../misc/lv_array.h"
 6562              		.file 32 "Lib/lvgl/src/core/../display/lv_display.h"
 6563              		.file 33 "Lib/lvgl/src/core/lv_obj_draw.h"
 6564              		.file 34 "Lib/lvgl/src/core/../core/../draw/sw/blend/../lv_draw_sw_mask.h"
 6565              		.file 35 "Lib/lvgl/src/core/../core/../stdlib/builtin/lv_tlsf.h"
 6566              		.file 36 "Lib/lvgl/src/core/../core/lv_global.h"
 6567              		.file 37 "Lib/lvgl/src/core/lv_obj_pos.h"
 6568              		.file 38 "Lib/lvgl/src/core/../misc/../font/../draw/../misc/../stdlib/lv_mem.h"
 6569              		.file 39 "Lib/lvgl/src/core/lv_obj_tree.h"
 6570              		.file 40 "Lib/lvgl/src/core/lv_obj_event.h"
ARM GAS  C:\Users\Alex\AppData\Local\Temp\ccdKwz1H.s 			page 208


DEFINED SYMBOLS
                            *ABS*:00000000 lv_obj_style.c
C:\Users\Alex\AppData\Local\Temp\ccdKwz1H.s:21     .text.lv_color_eq:00000000 $t
C:\Users\Alex\AppData\Local\Temp\ccdKwz1H.s:26     .text.lv_color_eq:00000000 lv_color_eq
C:\Users\Alex\AppData\Local\Temp\ccdKwz1H.s:100    .text.lv_color_mix:00000000 $t
C:\Users\Alex\AppData\Local\Temp\ccdKwz1H.s:105    .text.lv_color_mix:00000000 lv_color_mix
C:\Users\Alex\AppData\Local\Temp\ccdKwz1H.s:180    .text.lv_style_get_prop_inlined:00000000 $t
C:\Users\Alex\AppData\Local\Temp\ccdKwz1H.s:185    .text.lv_style_get_prop_inlined:00000000 lv_style_get_prop_inlined
C:\Users\Alex\AppData\Local\Temp\ccdKwz1H.s:325    .text.lv_style_prop_get_default_inlined:00000000 $t
C:\Users\Alex\AppData\Local\Temp\ccdKwz1H.s:330    .text.lv_style_prop_get_default_inlined:00000000 lv_style_prop_get_default_inlined
C:\Users\Alex\AppData\Local\Temp\ccdKwz1H.s:365    .text.lv_style_prop_get_default_inlined:0000002a $d
C:\Users\Alex\AppData\Local\Temp\ccdKwz1H.s:396    .text.lv_style_prop_get_default_inlined:00000048 $t
C:\Users\Alex\AppData\Local\Temp\ccdKwz1H.s:467    .text.lv_style_prop_get_default_inlined:000000aa $d
C:\Users\Alex\AppData\Local\Temp\ccdKwz1H.s:557    .text.lv_style_prop_get_default_inlined:00000104 $d
C:\Users\Alex\AppData\Local\Temp\ccdKwz1H.s:6535   .rodata.white.0:00000000 white.0
C:\Users\Alex\AppData\Local\Temp\ccdKwz1H.s:567    .text.get_prop_core:00000000 $t
C:\Users\Alex\AppData\Local\Temp\ccdKwz1H.s:572    .text.get_prop_core:00000000 get_prop_core
C:\Users\Alex\AppData\Local\Temp\ccdKwz1H.s:891    .text.get_selector_style_prop:00000000 $t
C:\Users\Alex\AppData\Local\Temp\ccdKwz1H.s:896    .text.get_selector_style_prop:00000000 get_selector_style_prop
C:\Users\Alex\AppData\Local\Temp\ccdKwz1H.s:1116   .text.get_selector_style_prop:00000090 $d
C:\Users\Alex\AppData\Local\Temp\ccdKwz1H.s:1122   .text.trans_delete:00000000 $t
C:\Users\Alex\AppData\Local\Temp\ccdKwz1H.s:1127   .text.trans_delete:00000000 trans_delete
C:\Users\Alex\AppData\Local\Temp\ccdKwz1H.s:1311   .text.trans_delete:000000ac $d
C:\Users\Alex\AppData\Local\Temp\ccdKwz1H.s:1316   .text.style_has_flag:00000000 $t
C:\Users\Alex\AppData\Local\Temp\ccdKwz1H.s:1321   .text.style_has_flag:00000000 style_has_flag
C:\Users\Alex\AppData\Local\Temp\ccdKwz1H.s:1486   .text.refresh_children_style:00000000 $t
C:\Users\Alex\AppData\Local\Temp\ccdKwz1H.s:1491   .text.refresh_children_style:00000000 refresh_children_style
C:\Users\Alex\AppData\Local\Temp\ccdKwz1H.s:1567   .text.get_local_style:00000000 $t
C:\Users\Alex\AppData\Local\Temp\ccdKwz1H.s:1572   .text.get_local_style:00000000 get_local_style
C:\Users\Alex\AppData\Local\Temp\ccdKwz1H.s:1783   .text.get_trans_style:00000000 $t
C:\Users\Alex\AppData\Local\Temp\ccdKwz1H.s:1788   .text.get_trans_style:00000000 get_trans_style
C:\Users\Alex\AppData\Local\Temp\ccdKwz1H.s:1973   .text.fade_anim_cb:00000000 $t
C:\Users\Alex\AppData\Local\Temp\ccdKwz1H.s:1978   .text.fade_anim_cb:00000000 fade_anim_cb
C:\Users\Alex\AppData\Local\Temp\ccdKwz1H.s:2004   .text._lv_obj_style_init:00000000 $t
C:\Users\Alex\AppData\Local\Temp\ccdKwz1H.s:2010   .text._lv_obj_style_init:00000000 _lv_obj_style_init
C:\Users\Alex\AppData\Local\Temp\ccdKwz1H.s:2031   .text._lv_obj_style_init:0000000c $d
C:\Users\Alex\AppData\Local\Temp\ccdKwz1H.s:2036   .text._lv_obj_style_deinit:00000000 $t
C:\Users\Alex\AppData\Local\Temp\ccdKwz1H.s:2042   .text._lv_obj_style_deinit:00000000 _lv_obj_style_deinit
C:\Users\Alex\AppData\Local\Temp\ccdKwz1H.s:2090   .text._lv_obj_style_deinit:00000020 $d
C:\Users\Alex\AppData\Local\Temp\ccdKwz1H.s:2095   .text.lv_obj_enable_style_refresh:00000000 $t
C:\Users\Alex\AppData\Local\Temp\ccdKwz1H.s:2101   .text.lv_obj_enable_style_refresh:00000000 lv_obj_enable_style_refresh
C:\Users\Alex\AppData\Local\Temp\ccdKwz1H.s:2118   .text.lv_obj_enable_style_refresh:00000008 $d
C:\Users\Alex\AppData\Local\Temp\ccdKwz1H.s:2123   .text.lv_obj_get_style_prop:00000000 $t
C:\Users\Alex\AppData\Local\Temp\ccdKwz1H.s:2129   .text.lv_obj_get_style_prop:00000000 lv_obj_get_style_prop
C:\Users\Alex\AppData\Local\Temp\ccdKwz1H.s:2216   .text.calculate_layer_type:00000000 $t
C:\Users\Alex\AppData\Local\Temp\ccdKwz1H.s:2221   .text.calculate_layer_type:00000000 calculate_layer_type
C:\Users\Alex\AppData\Local\Temp\ccdKwz1H.s:2434   .text.lv_obj_refresh_style:00000000 $t
C:\Users\Alex\AppData\Local\Temp\ccdKwz1H.s:2440   .text.lv_obj_refresh_style:00000000 lv_obj_refresh_style
C:\Users\Alex\AppData\Local\Temp\ccdKwz1H.s:2761   .text.lv_obj_refresh_style:00000120 $d
C:\Users\Alex\AppData\Local\Temp\ccdKwz1H.s:2767   .text.lv_obj_replace_style:00000000 $t
C:\Users\Alex\AppData\Local\Temp\ccdKwz1H.s:2773   .text.lv_obj_replace_style:00000000 lv_obj_replace_style
C:\Users\Alex\AppData\Local\Temp\ccdKwz1H.s:3021   .text.lv_obj_remove_style:00000000 $t
C:\Users\Alex\AppData\Local\Temp\ccdKwz1H.s:3027   .text.lv_obj_remove_style:00000000 lv_obj_remove_style
C:\Users\Alex\AppData\Local\Temp\ccdKwz1H.s:3343   .text.lv_obj_remove_style_all:00000000 $t
C:\Users\Alex\AppData\Local\Temp\ccdKwz1H.s:3349   .text.lv_obj_remove_style_all:00000000 lv_obj_remove_style_all
C:\Users\Alex\AppData\Local\Temp\ccdKwz1H.s:3372   .text.lv_obj_remove_style_all:0000000c $d
C:\Users\Alex\AppData\Local\Temp\ccdKwz1H.s:3377   .text.trans_anim_completed_cb:00000000 $t
ARM GAS  C:\Users\Alex\AppData\Local\Temp\ccdKwz1H.s 			page 209


C:\Users\Alex\AppData\Local\Temp\ccdKwz1H.s:3382   .text.trans_anim_completed_cb:00000000 trans_anim_completed_cb
C:\Users\Alex\AppData\Local\Temp\ccdKwz1H.s:3556   .text.trans_anim_completed_cb:000000a8 $d
C:\Users\Alex\AppData\Local\Temp\ccdKwz1H.s:3563   .text.lv_obj_add_style:00000000 $t
C:\Users\Alex\AppData\Local\Temp\ccdKwz1H.s:3569   .text.lv_obj_add_style:00000000 lv_obj_add_style
C:\Users\Alex\AppData\Local\Temp\ccdKwz1H.s:3810   .text.report_style_change_core:00000000 $t
C:\Users\Alex\AppData\Local\Temp\ccdKwz1H.s:3815   .text.report_style_change_core:00000000 report_style_change_core
C:\Users\Alex\AppData\Local\Temp\ccdKwz1H.s:3917   .text.lv_obj_report_style_change:00000000 $t
C:\Users\Alex\AppData\Local\Temp\ccdKwz1H.s:3923   .text.lv_obj_report_style_change:00000000 lv_obj_report_style_change
C:\Users\Alex\AppData\Local\Temp\ccdKwz1H.s:4005   .text.lv_obj_report_style_change:00000040 $d
C:\Users\Alex\AppData\Local\Temp\ccdKwz1H.s:4010   .text.trans_anim_cb:00000000 $t
C:\Users\Alex\AppData\Local\Temp\ccdKwz1H.s:4015   .text.trans_anim_cb:00000000 trans_anim_cb
C:\Users\Alex\AppData\Local\Temp\ccdKwz1H.s:4104   .text.trans_anim_cb:00000056 $d
C:\Users\Alex\AppData\Local\Temp\ccdKwz1H.s:4118   .text.trans_anim_cb:00000064 $t
C:\Users\Alex\AppData\Local\Temp\ccdKwz1H.s:4386   .text.trans_anim_cb:0000019c $d
C:\Users\Alex\AppData\Local\Temp\ccdKwz1H.s:4393   .text.trans_anim_start_cb:00000000 $t
C:\Users\Alex\AppData\Local\Temp\ccdKwz1H.s:4398   .text.trans_anim_start_cb:00000000 trans_anim_start_cb
C:\Users\Alex\AppData\Local\Temp\ccdKwz1H.s:4481   .text.lv_obj_has_style_prop:00000000 $t
C:\Users\Alex\AppData\Local\Temp\ccdKwz1H.s:4487   .text.lv_obj_has_style_prop:00000000 lv_obj_has_style_prop
C:\Users\Alex\AppData\Local\Temp\ccdKwz1H.s:4555   .text.lv_obj_set_local_style_prop:00000000 $t
C:\Users\Alex\AppData\Local\Temp\ccdKwz1H.s:4561   .text.lv_obj_set_local_style_prop:00000000 lv_obj_set_local_style_prop
C:\Users\Alex\AppData\Local\Temp\ccdKwz1H.s:4648   .text.lv_obj_get_local_style_prop:00000000 $t
C:\Users\Alex\AppData\Local\Temp\ccdKwz1H.s:4654   .text.lv_obj_get_local_style_prop:00000000 lv_obj_get_local_style_prop
C:\Users\Alex\AppData\Local\Temp\ccdKwz1H.s:4727   .text.lv_obj_remove_local_style_prop:00000000 $t
C:\Users\Alex\AppData\Local\Temp\ccdKwz1H.s:4733   .text.lv_obj_remove_local_style_prop:00000000 lv_obj_remove_local_style_prop
C:\Users\Alex\AppData\Local\Temp\ccdKwz1H.s:4839   .text.fade_in_anim_completed:00000000 $t
C:\Users\Alex\AppData\Local\Temp\ccdKwz1H.s:4844   .text.fade_in_anim_completed:00000000 fade_in_anim_completed
C:\Users\Alex\AppData\Local\Temp\ccdKwz1H.s:4871   .text._lv_obj_style_create_transition:00000000 $t
C:\Users\Alex\AppData\Local\Temp\ccdKwz1H.s:4877   .text._lv_obj_style_create_transition:00000000 _lv_obj_style_create_transition
C:\Users\Alex\AppData\Local\Temp\ccdKwz1H.s:5287   .text._lv_obj_style_create_transition:0000014c $d
C:\Users\Alex\AppData\Local\Temp\ccdKwz1H.s:5295   .text._lv_obj_style_apply_color_filter:00000000 $t
C:\Users\Alex\AppData\Local\Temp\ccdKwz1H.s:5301   .text._lv_obj_style_apply_color_filter:00000000 _lv_obj_style_apply_color_filter
C:\Users\Alex\AppData\Local\Temp\ccdKwz1H.s:5423   .text._lv_obj_style_state_compare:00000000 $t
C:\Users\Alex\AppData\Local\Temp\ccdKwz1H.s:5429   .text._lv_obj_style_state_compare:00000000 _lv_obj_style_state_compare
C:\Users\Alex\AppData\Local\Temp\ccdKwz1H.s:5958   .text.lv_obj_fade_in:00000000 $t
C:\Users\Alex\AppData\Local\Temp\ccdKwz1H.s:5964   .text.lv_obj_fade_in:00000000 lv_obj_fade_in
C:\Users\Alex\AppData\Local\Temp\ccdKwz1H.s:6093   .text.lv_obj_fade_in:00000038 $d
C:\Users\Alex\AppData\Local\Temp\ccdKwz1H.s:6099   .text.lv_obj_fade_out:00000000 $t
C:\Users\Alex\AppData\Local\Temp\ccdKwz1H.s:6105   .text.lv_obj_fade_out:00000000 lv_obj_fade_out
C:\Users\Alex\AppData\Local\Temp\ccdKwz1H.s:6240   .text.lv_obj_fade_out:00000040 $d
C:\Users\Alex\AppData\Local\Temp\ccdKwz1H.s:6245   .text.lv_obj_calculate_style_text_align:00000000 $t
C:\Users\Alex\AppData\Local\Temp\ccdKwz1H.s:6251   .text.lv_obj_calculate_style_text_align:00000000 lv_obj_calculate_style_text_align
C:\Users\Alex\AppData\Local\Temp\ccdKwz1H.s:6342   .text.lv_obj_get_style_opa_recursive:00000000 $t
C:\Users\Alex\AppData\Local\Temp\ccdKwz1H.s:6348   .text.lv_obj_get_style_opa_recursive:00000000 lv_obj_get_style_opa_recursive
C:\Users\Alex\AppData\Local\Temp\ccdKwz1H.s:6532   .rodata.white.0:00000000 $d
C:\Users\Alex\AppData\Local\Temp\ccdKwz1H.s:489    .text.lv_style_prop_get_default_inlined:000000bf $d
C:\Users\Alex\AppData\Local\Temp\ccdKwz1H.s:489    .text.lv_style_prop_get_default_inlined:000000c0 $t

UNDEFINED SYMBOLS
lv_font_montserrat_14
_lv_style_builtin_prop_flag_lookup_table
lv_global
_lv_ll_get_tail
_lv_ll_get_prev
lv_style_remove_prop
lv_anim_delete
_lv_ll_remove
lv_free
ARM GAS  C:\Users\Alex\AppData\Local\Temp\ccdKwz1H.s 			page 210


_lv_style_prop_lookup_flags
lv_obj_get_child_count
lv_obj_invalidate
lv_obj_send_event
lv_realloc
lv_memset
lv_malloc
lv_style_init
lv_obj_set_style_opa
_lv_ll_init
_lv_ll_clear_custom
lv_obj_mark_layout_as_dirty
lv_obj_get_parent
lv_obj_refresh_ext_draw_size
lv_obj_allocate_spec_attr
lv_style_reset
_lv_ll_get_head
_lv_ll_get_next
lv_style_is_empty
lv_display_get_next
lv_style_get_prop
lv_style_set_prop
_lv_ll_ins_head
lv_anim_init
lv_anim_start
lv_obj_get_width
lv_obj_get_height
