ARM GAS  C:\Users\Alex\AppData\Local\Temp\ccqVx2FS.s 			page 1


   1              		.cpu cortex-m4
   2              		.arch armv7e-m
   3              		.fpu fpv4-sp-d16
   4              		.eabi_attribute 27, 1
   5              		.eabi_attribute 28, 1
   6              		.eabi_attribute 20, 1
   7              		.eabi_attribute 21, 1
   8              		.eabi_attribute 23, 3
   9              		.eabi_attribute 24, 1
  10              		.eabi_attribute 25, 1
  11              		.eabi_attribute 26, 1
  12              		.eabi_attribute 30, 1
  13              		.eabi_attribute 34, 1
  14              		.eabi_attribute 18, 4
  15              		.file	"lv_string_builtin.c"
  16              		.text
  17              	.Ltext0:
  18              		.cfi_sections	.debug_frame
  19              		.file 1 "Lib/lvgl/src/stdlib/builtin/lv_string_builtin.c"
  20              		.section	.text.lv_memcpy,"ax",%progbits
  21              		.align	1
  22              		.global	lv_memcpy
  23              		.syntax unified
  24              		.thumb
  25              		.thumb_func
  27              	lv_memcpy:
  28              	.LVL0:
  29              	.LFB3:
   1:Lib/lvgl/src/stdlib/builtin/lv_string_builtin.c **** /**
   2:Lib/lvgl/src/stdlib/builtin/lv_string_builtin.c ****  * @file lv_string.c
   3:Lib/lvgl/src/stdlib/builtin/lv_string_builtin.c ****  */
   4:Lib/lvgl/src/stdlib/builtin/lv_string_builtin.c **** 
   5:Lib/lvgl/src/stdlib/builtin/lv_string_builtin.c **** /*********************
   6:Lib/lvgl/src/stdlib/builtin/lv_string_builtin.c ****  *      INCLUDES
   7:Lib/lvgl/src/stdlib/builtin/lv_string_builtin.c ****  *********************/
   8:Lib/lvgl/src/stdlib/builtin/lv_string_builtin.c **** #include "../../lv_conf_internal.h"
   9:Lib/lvgl/src/stdlib/builtin/lv_string_builtin.c **** #if LV_USE_STDLIB_STRING == LV_STDLIB_BUILTIN
  10:Lib/lvgl/src/stdlib/builtin/lv_string_builtin.c **** #include "../../misc/lv_assert.h"
  11:Lib/lvgl/src/stdlib/builtin/lv_string_builtin.c **** #include "../../misc/lv_log.h"
  12:Lib/lvgl/src/stdlib/builtin/lv_string_builtin.c **** #include "../../misc/lv_math.h"
  13:Lib/lvgl/src/stdlib/builtin/lv_string_builtin.c **** #include "../../stdlib/lv_string.h"
  14:Lib/lvgl/src/stdlib/builtin/lv_string_builtin.c **** #include "../../stdlib/lv_mem.h"
  15:Lib/lvgl/src/stdlib/builtin/lv_string_builtin.c **** 
  16:Lib/lvgl/src/stdlib/builtin/lv_string_builtin.c **** /*********************
  17:Lib/lvgl/src/stdlib/builtin/lv_string_builtin.c ****  *      DEFINES
  18:Lib/lvgl/src/stdlib/builtin/lv_string_builtin.c ****  *********************/
  19:Lib/lvgl/src/stdlib/builtin/lv_string_builtin.c **** #ifdef LV_ARCH_64
  20:Lib/lvgl/src/stdlib/builtin/lv_string_builtin.c ****     #define MEM_UNIT         uint64_t
  21:Lib/lvgl/src/stdlib/builtin/lv_string_builtin.c ****     #define ALIGN_MASK       0x7
  22:Lib/lvgl/src/stdlib/builtin/lv_string_builtin.c **** #else
  23:Lib/lvgl/src/stdlib/builtin/lv_string_builtin.c ****     #define MEM_UNIT         uint32_t
  24:Lib/lvgl/src/stdlib/builtin/lv_string_builtin.c ****     #define ALIGN_MASK       0x3
  25:Lib/lvgl/src/stdlib/builtin/lv_string_builtin.c **** #endif
  26:Lib/lvgl/src/stdlib/builtin/lv_string_builtin.c **** 
  27:Lib/lvgl/src/stdlib/builtin/lv_string_builtin.c **** /**********************
  28:Lib/lvgl/src/stdlib/builtin/lv_string_builtin.c ****  *      TYPEDEFS
  29:Lib/lvgl/src/stdlib/builtin/lv_string_builtin.c ****  **********************/
ARM GAS  C:\Users\Alex\AppData\Local\Temp\ccqVx2FS.s 			page 2


  30:Lib/lvgl/src/stdlib/builtin/lv_string_builtin.c **** 
  31:Lib/lvgl/src/stdlib/builtin/lv_string_builtin.c **** /**********************
  32:Lib/lvgl/src/stdlib/builtin/lv_string_builtin.c ****  *  STATIC PROTOTYPES
  33:Lib/lvgl/src/stdlib/builtin/lv_string_builtin.c ****  **********************/
  34:Lib/lvgl/src/stdlib/builtin/lv_string_builtin.c **** 
  35:Lib/lvgl/src/stdlib/builtin/lv_string_builtin.c **** /**********************
  36:Lib/lvgl/src/stdlib/builtin/lv_string_builtin.c ****  *  STATIC VARIABLES
  37:Lib/lvgl/src/stdlib/builtin/lv_string_builtin.c ****  **********************/
  38:Lib/lvgl/src/stdlib/builtin/lv_string_builtin.c **** 
  39:Lib/lvgl/src/stdlib/builtin/lv_string_builtin.c **** /**********************
  40:Lib/lvgl/src/stdlib/builtin/lv_string_builtin.c ****  *      MACROS
  41:Lib/lvgl/src/stdlib/builtin/lv_string_builtin.c ****  **********************/
  42:Lib/lvgl/src/stdlib/builtin/lv_string_builtin.c **** #if LV_USE_LOG && LV_LOG_TRACE_MEM
  43:Lib/lvgl/src/stdlib/builtin/lv_string_builtin.c ****     #define LV_TRACE_MEM(...) LV_LOG_TRACE(__VA_ARGS__)
  44:Lib/lvgl/src/stdlib/builtin/lv_string_builtin.c **** #else
  45:Lib/lvgl/src/stdlib/builtin/lv_string_builtin.c ****     #define LV_TRACE_MEM(...)
  46:Lib/lvgl/src/stdlib/builtin/lv_string_builtin.c **** #endif
  47:Lib/lvgl/src/stdlib/builtin/lv_string_builtin.c **** 
  48:Lib/lvgl/src/stdlib/builtin/lv_string_builtin.c **** #define _COPY(d, s) *d = *s; d++; s++;
  49:Lib/lvgl/src/stdlib/builtin/lv_string_builtin.c **** #define _SET(d, v) *d = v; d++;
  50:Lib/lvgl/src/stdlib/builtin/lv_string_builtin.c **** #define _REPEAT8(expr) expr expr expr expr expr expr expr expr
  51:Lib/lvgl/src/stdlib/builtin/lv_string_builtin.c **** 
  52:Lib/lvgl/src/stdlib/builtin/lv_string_builtin.c **** /**********************
  53:Lib/lvgl/src/stdlib/builtin/lv_string_builtin.c ****  *   GLOBAL FUNCTIONS
  54:Lib/lvgl/src/stdlib/builtin/lv_string_builtin.c ****  **********************/
  55:Lib/lvgl/src/stdlib/builtin/lv_string_builtin.c **** 
  56:Lib/lvgl/src/stdlib/builtin/lv_string_builtin.c **** LV_ATTRIBUTE_FAST_MEM void * lv_memcpy(void * dst, const void * src, size_t len)
  57:Lib/lvgl/src/stdlib/builtin/lv_string_builtin.c **** {
  30              		.loc 1 57 1 view -0
  31              		.cfi_startproc
  32              		@ args = 0, pretend = 0, frame = 0
  33              		@ frame_needed = 0, uses_anonymous_args = 0
  34              		@ link register save eliminated.
  35              		.loc 1 57 1 is_stmt 0 view .LVU1
  36 0000 10B4     		push	{r4}
  37              	.LCFI0:
  38              		.cfi_def_cfa_offset 4
  39              		.cfi_offset 4, -4
  58:Lib/lvgl/src/stdlib/builtin/lv_string_builtin.c ****     uint8_t * d8 = dst;
  40              		.loc 1 58 5 is_stmt 1 view .LVU2
  41              	.LVL1:
  59:Lib/lvgl/src/stdlib/builtin/lv_string_builtin.c ****     const uint8_t * s8 = src;
  42              		.loc 1 59 5 view .LVU3
  60:Lib/lvgl/src/stdlib/builtin/lv_string_builtin.c **** 
  61:Lib/lvgl/src/stdlib/builtin/lv_string_builtin.c ****     /*Simplify for small memories*/
  62:Lib/lvgl/src/stdlib/builtin/lv_string_builtin.c ****     if(len < 16) {
  43              		.loc 1 62 5 view .LVU4
  44              		.loc 1 62 7 is_stmt 0 view .LVU5
  45 0002 0F2A     		cmp	r2, #15
  46 0004 1FD9     		bls	.L24
  63:Lib/lvgl/src/stdlib/builtin/lv_string_builtin.c ****         while(len) {
  64:Lib/lvgl/src/stdlib/builtin/lv_string_builtin.c ****             *d8 = *s8;
  65:Lib/lvgl/src/stdlib/builtin/lv_string_builtin.c ****             d8++;
  66:Lib/lvgl/src/stdlib/builtin/lv_string_builtin.c ****             s8++;
  67:Lib/lvgl/src/stdlib/builtin/lv_string_builtin.c ****             len--;
  68:Lib/lvgl/src/stdlib/builtin/lv_string_builtin.c ****         }
  69:Lib/lvgl/src/stdlib/builtin/lv_string_builtin.c ****         return dst;
ARM GAS  C:\Users\Alex\AppData\Local\Temp\ccqVx2FS.s 			page 3


  70:Lib/lvgl/src/stdlib/builtin/lv_string_builtin.c ****     }
  71:Lib/lvgl/src/stdlib/builtin/lv_string_builtin.c **** 
  72:Lib/lvgl/src/stdlib/builtin/lv_string_builtin.c ****     lv_uintptr_t d_align = (lv_uintptr_t)d8 & ALIGN_MASK;
  47              		.loc 1 72 5 is_stmt 1 view .LVU6
  48              		.loc 1 72 18 is_stmt 0 view .LVU7
  49 0006 00F00304 		and	r4, r0, #3
  50              	.LVL2:
  73:Lib/lvgl/src/stdlib/builtin/lv_string_builtin.c ****     lv_uintptr_t s_align = (lv_uintptr_t)s8 & ALIGN_MASK;
  51              		.loc 1 73 5 is_stmt 1 view .LVU8
  52              		.loc 1 73 18 is_stmt 0 view .LVU9
  53 000a 01F00303 		and	r3, r1, #3
  54              	.LVL3:
  74:Lib/lvgl/src/stdlib/builtin/lv_string_builtin.c **** 
  75:Lib/lvgl/src/stdlib/builtin/lv_string_builtin.c ****     /*Byte copy for unaligned memories*/
  76:Lib/lvgl/src/stdlib/builtin/lv_string_builtin.c ****     if(s_align != d_align) {
  55              		.loc 1 76 5 is_stmt 1 view .LVU10
  56              		.loc 1 76 7 is_stmt 0 view .LVU11
  57 000e 9C42     		cmp	r4, r3
  58 0010 61D1     		bne	.L19
  77:Lib/lvgl/src/stdlib/builtin/lv_string_builtin.c ****         while(len > 32) {
  78:Lib/lvgl/src/stdlib/builtin/lv_string_builtin.c ****             _REPEAT8(_COPY(d8, s8));
  79:Lib/lvgl/src/stdlib/builtin/lv_string_builtin.c ****             _REPEAT8(_COPY(d8, s8));
  80:Lib/lvgl/src/stdlib/builtin/lv_string_builtin.c ****             _REPEAT8(_COPY(d8, s8));
  81:Lib/lvgl/src/stdlib/builtin/lv_string_builtin.c ****             _REPEAT8(_COPY(d8, s8));
  82:Lib/lvgl/src/stdlib/builtin/lv_string_builtin.c ****             len -= 32;
  83:Lib/lvgl/src/stdlib/builtin/lv_string_builtin.c ****         }
  84:Lib/lvgl/src/stdlib/builtin/lv_string_builtin.c ****         while(len) {
  85:Lib/lvgl/src/stdlib/builtin/lv_string_builtin.c ****             _COPY(d8, s8)
  86:Lib/lvgl/src/stdlib/builtin/lv_string_builtin.c ****             len--;
  87:Lib/lvgl/src/stdlib/builtin/lv_string_builtin.c ****         }
  88:Lib/lvgl/src/stdlib/builtin/lv_string_builtin.c ****         return dst;
  89:Lib/lvgl/src/stdlib/builtin/lv_string_builtin.c ****     }
  90:Lib/lvgl/src/stdlib/builtin/lv_string_builtin.c **** 
  91:Lib/lvgl/src/stdlib/builtin/lv_string_builtin.c ****     /*Make the memories aligned*/
  92:Lib/lvgl/src/stdlib/builtin/lv_string_builtin.c ****     if(d_align) {
  59              		.loc 1 92 5 is_stmt 1 view .LVU12
  60              		.loc 1 92 7 is_stmt 0 view .LVU13
  61 0012 002C     		cmp	r4, #0
  62 0014 7FD0     		beq	.L20
  93:Lib/lvgl/src/stdlib/builtin/lv_string_builtin.c ****         d_align = ALIGN_MASK + 1 - d_align;
  63              		.loc 1 93 9 is_stmt 1 view .LVU14
  64              		.loc 1 93 17 is_stmt 0 view .LVU15
  65 0016 C4F10404 		rsb	r4, r4, #4
  66              	.LVL4:
  94:Lib/lvgl/src/stdlib/builtin/lv_string_builtin.c ****         while(d_align && len) {
  67              		.loc 1 94 9 is_stmt 1 view .LVU16
  58:Lib/lvgl/src/stdlib/builtin/lv_string_builtin.c ****     const uint8_t * s8 = src;
  68              		.loc 1 58 15 is_stmt 0 view .LVU17
  69 001a 0346     		mov	r3, r0
  70              	.LVL5:
  71              	.L12:
  72              		.loc 1 94 23 is_stmt 1 view .LVU18
  73 001c 002C     		cmp	r4, #0
  74 001e 77D0     		beq	.L14
  75              		.loc 1 94 23 is_stmt 0 discriminator 1 view .LVU19
  76 0020 002A     		cmp	r2, #0
  77 0022 75D0     		beq	.L14
ARM GAS  C:\Users\Alex\AppData\Local\Temp\ccqVx2FS.s 			page 4


  95:Lib/lvgl/src/stdlib/builtin/lv_string_builtin.c ****             _COPY(d8, s8);
  78              		.loc 1 95 13 is_stmt 1 view .LVU20
  79 0024 11F801CB 		ldrb	ip, [r1], #1	@ zero_extendqisi2
  80              	.LVL6:
  81              		.loc 1 95 13 is_stmt 0 view .LVU21
  82 0028 03F801CB 		strb	ip, [r3], #1
  83              	.LVL7:
  84              		.loc 1 95 13 is_stmt 1 view .LVU22
  85              		.loc 1 95 13 view .LVU23
  86              		.loc 1 95 26 view .LVU24
  96:Lib/lvgl/src/stdlib/builtin/lv_string_builtin.c ****             d_align--;
  87              		.loc 1 96 13 view .LVU25
  88              		.loc 1 96 20 is_stmt 0 view .LVU26
  89 002c 013C     		subs	r4, r4, #1
  90              	.LVL8:
  97:Lib/lvgl/src/stdlib/builtin/lv_string_builtin.c ****             len--;
  91              		.loc 1 97 13 is_stmt 1 view .LVU27
  92              		.loc 1 97 16 is_stmt 0 view .LVU28
  93 002e 013A     		subs	r2, r2, #1
  94              	.LVL9:
  95              		.loc 1 97 16 view .LVU29
  96 0030 F4E7     		b	.L12
  97              	.LVL10:
  98              	.L4:
  64:Lib/lvgl/src/stdlib/builtin/lv_string_builtin.c ****             d8++;
  99              		.loc 1 64 13 is_stmt 1 view .LVU30
  64:Lib/lvgl/src/stdlib/builtin/lv_string_builtin.c ****             d8++;
 100              		.loc 1 64 19 is_stmt 0 view .LVU31
 101 0032 11F8014B 		ldrb	r4, [r1], #1	@ zero_extendqisi2
 102              	.LVL11:
  64:Lib/lvgl/src/stdlib/builtin/lv_string_builtin.c ****             d8++;
 103              		.loc 1 64 17 view .LVU32
 104 0036 03F8014B 		strb	r4, [r3], #1
 105              	.LVL12:
  65:Lib/lvgl/src/stdlib/builtin/lv_string_builtin.c ****             s8++;
 106              		.loc 1 65 13 is_stmt 1 view .LVU33
  66:Lib/lvgl/src/stdlib/builtin/lv_string_builtin.c ****             len--;
 107              		.loc 1 66 13 view .LVU34
  67:Lib/lvgl/src/stdlib/builtin/lv_string_builtin.c ****         }
 108              		.loc 1 67 13 view .LVU35
  67:Lib/lvgl/src/stdlib/builtin/lv_string_builtin.c ****         }
 109              		.loc 1 67 16 is_stmt 0 view .LVU36
 110 003a 013A     		subs	r2, r2, #1
 111              	.LVL13:
 112              	.L2:
  63:Lib/lvgl/src/stdlib/builtin/lv_string_builtin.c ****             *d8 = *s8;
 113              		.loc 1 63 15 is_stmt 1 view .LVU37
 114 003c 002A     		cmp	r2, #0
 115 003e F8D1     		bne	.L4
 116              	.L5:
  98:Lib/lvgl/src/stdlib/builtin/lv_string_builtin.c ****         }
  99:Lib/lvgl/src/stdlib/builtin/lv_string_builtin.c ****     }
 100:Lib/lvgl/src/stdlib/builtin/lv_string_builtin.c **** 
 101:Lib/lvgl/src/stdlib/builtin/lv_string_builtin.c ****     uint32_t * d32 = (uint32_t *)d8;
 102:Lib/lvgl/src/stdlib/builtin/lv_string_builtin.c ****     const uint32_t * s32 = (uint32_t *)s8;
 103:Lib/lvgl/src/stdlib/builtin/lv_string_builtin.c ****     while(len > 32) {
 104:Lib/lvgl/src/stdlib/builtin/lv_string_builtin.c ****         _REPEAT8(_COPY(d32, s32))
ARM GAS  C:\Users\Alex\AppData\Local\Temp\ccqVx2FS.s 			page 5


 105:Lib/lvgl/src/stdlib/builtin/lv_string_builtin.c ****         len -= 32;
 106:Lib/lvgl/src/stdlib/builtin/lv_string_builtin.c ****     }
 107:Lib/lvgl/src/stdlib/builtin/lv_string_builtin.c **** 
 108:Lib/lvgl/src/stdlib/builtin/lv_string_builtin.c ****     d8 = (uint8_t *)d32;
 109:Lib/lvgl/src/stdlib/builtin/lv_string_builtin.c ****     s8 = (const uint8_t *)s32;
 110:Lib/lvgl/src/stdlib/builtin/lv_string_builtin.c ****     while(len) {
 111:Lib/lvgl/src/stdlib/builtin/lv_string_builtin.c ****         _COPY(d8, s8)
 112:Lib/lvgl/src/stdlib/builtin/lv_string_builtin.c ****         len--;
 113:Lib/lvgl/src/stdlib/builtin/lv_string_builtin.c ****     }
 114:Lib/lvgl/src/stdlib/builtin/lv_string_builtin.c **** 
 115:Lib/lvgl/src/stdlib/builtin/lv_string_builtin.c ****     return dst;
 116:Lib/lvgl/src/stdlib/builtin/lv_string_builtin.c **** }
 117              		.loc 1 116 1 is_stmt 0 view .LVU38
 118 0040 5DF8044B 		ldr	r4, [sp], #4
 119              	.LCFI1:
 120              		.cfi_remember_state
 121              		.cfi_restore 4
 122              		.cfi_def_cfa_offset 0
 123 0044 7047     		bx	lr
 124              	.LVL14:
 125              	.L24:
 126              	.LCFI2:
 127              		.cfi_restore_state
  58:Lib/lvgl/src/stdlib/builtin/lv_string_builtin.c ****     const uint8_t * s8 = src;
 128              		.loc 1 58 15 view .LVU39
 129 0046 0346     		mov	r3, r0
 130 0048 F8E7     		b	.L2
 131              	.LVL15:
 132              	.L8:
  78:Lib/lvgl/src/stdlib/builtin/lv_string_builtin.c ****             _REPEAT8(_COPY(d8, s8));
 133              		.loc 1 78 13 is_stmt 1 view .LVU40
 134 004a 0C78     		ldrb	r4, [r1]	@ zero_extendqisi2
 135 004c 1C70     		strb	r4, [r3]
  78:Lib/lvgl/src/stdlib/builtin/lv_string_builtin.c ****             _REPEAT8(_COPY(d8, s8));
 136              		.loc 1 78 13 view .LVU41
 137              	.LVL16:
  78:Lib/lvgl/src/stdlib/builtin/lv_string_builtin.c ****             _REPEAT8(_COPY(d8, s8));
 138              		.loc 1 78 13 view .LVU42
  78:Lib/lvgl/src/stdlib/builtin/lv_string_builtin.c ****             _REPEAT8(_COPY(d8, s8));
 139              		.loc 1 78 13 view .LVU43
 140 004e 4C78     		ldrb	r4, [r1, #1]	@ zero_extendqisi2
 141 0050 5C70     		strb	r4, [r3, #1]
  78:Lib/lvgl/src/stdlib/builtin/lv_string_builtin.c ****             _REPEAT8(_COPY(d8, s8));
 142              		.loc 1 78 13 view .LVU44
 143              	.LVL17:
  78:Lib/lvgl/src/stdlib/builtin/lv_string_builtin.c ****             _REPEAT8(_COPY(d8, s8));
 144              		.loc 1 78 13 view .LVU45
  78:Lib/lvgl/src/stdlib/builtin/lv_string_builtin.c ****             _REPEAT8(_COPY(d8, s8));
 145              		.loc 1 78 13 view .LVU46
 146 0052 8C78     		ldrb	r4, [r1, #2]	@ zero_extendqisi2
 147 0054 9C70     		strb	r4, [r3, #2]
  78:Lib/lvgl/src/stdlib/builtin/lv_string_builtin.c ****             _REPEAT8(_COPY(d8, s8));
 148              		.loc 1 78 13 view .LVU47
 149              	.LVL18:
  78:Lib/lvgl/src/stdlib/builtin/lv_string_builtin.c ****             _REPEAT8(_COPY(d8, s8));
 150              		.loc 1 78 13 view .LVU48
  78:Lib/lvgl/src/stdlib/builtin/lv_string_builtin.c ****             _REPEAT8(_COPY(d8, s8));
ARM GAS  C:\Users\Alex\AppData\Local\Temp\ccqVx2FS.s 			page 6


 151              		.loc 1 78 13 view .LVU49
 152 0056 CC78     		ldrb	r4, [r1, #3]	@ zero_extendqisi2
 153 0058 DC70     		strb	r4, [r3, #3]
  78:Lib/lvgl/src/stdlib/builtin/lv_string_builtin.c ****             _REPEAT8(_COPY(d8, s8));
 154              		.loc 1 78 13 view .LVU50
 155              	.LVL19:
  78:Lib/lvgl/src/stdlib/builtin/lv_string_builtin.c ****             _REPEAT8(_COPY(d8, s8));
 156              		.loc 1 78 13 view .LVU51
  78:Lib/lvgl/src/stdlib/builtin/lv_string_builtin.c ****             _REPEAT8(_COPY(d8, s8));
 157              		.loc 1 78 13 view .LVU52
 158 005a 0C79     		ldrb	r4, [r1, #4]	@ zero_extendqisi2
 159 005c 1C71     		strb	r4, [r3, #4]
  78:Lib/lvgl/src/stdlib/builtin/lv_string_builtin.c ****             _REPEAT8(_COPY(d8, s8));
 160              		.loc 1 78 13 view .LVU53
 161              	.LVL20:
  78:Lib/lvgl/src/stdlib/builtin/lv_string_builtin.c ****             _REPEAT8(_COPY(d8, s8));
 162              		.loc 1 78 13 view .LVU54
  78:Lib/lvgl/src/stdlib/builtin/lv_string_builtin.c ****             _REPEAT8(_COPY(d8, s8));
 163              		.loc 1 78 13 view .LVU55
 164 005e 4C79     		ldrb	r4, [r1, #5]	@ zero_extendqisi2
 165 0060 5C71     		strb	r4, [r3, #5]
  78:Lib/lvgl/src/stdlib/builtin/lv_string_builtin.c ****             _REPEAT8(_COPY(d8, s8));
 166              		.loc 1 78 13 view .LVU56
 167              	.LVL21:
  78:Lib/lvgl/src/stdlib/builtin/lv_string_builtin.c ****             _REPEAT8(_COPY(d8, s8));
 168              		.loc 1 78 13 view .LVU57
  78:Lib/lvgl/src/stdlib/builtin/lv_string_builtin.c ****             _REPEAT8(_COPY(d8, s8));
 169              		.loc 1 78 13 view .LVU58
 170 0062 8C79     		ldrb	r4, [r1, #6]	@ zero_extendqisi2
 171 0064 9C71     		strb	r4, [r3, #6]
  78:Lib/lvgl/src/stdlib/builtin/lv_string_builtin.c ****             _REPEAT8(_COPY(d8, s8));
 172              		.loc 1 78 13 view .LVU59
 173              	.LVL22:
  78:Lib/lvgl/src/stdlib/builtin/lv_string_builtin.c ****             _REPEAT8(_COPY(d8, s8));
 174              		.loc 1 78 13 view .LVU60
  78:Lib/lvgl/src/stdlib/builtin/lv_string_builtin.c ****             _REPEAT8(_COPY(d8, s8));
 175              		.loc 1 78 13 view .LVU61
 176 0066 CC79     		ldrb	r4, [r1, #7]	@ zero_extendqisi2
 177 0068 DC71     		strb	r4, [r3, #7]
  78:Lib/lvgl/src/stdlib/builtin/lv_string_builtin.c ****             _REPEAT8(_COPY(d8, s8));
 178              		.loc 1 78 13 view .LVU62
 179              	.LVL23:
  78:Lib/lvgl/src/stdlib/builtin/lv_string_builtin.c ****             _REPEAT8(_COPY(d8, s8));
 180              		.loc 1 78 13 view .LVU63
  78:Lib/lvgl/src/stdlib/builtin/lv_string_builtin.c ****             _REPEAT8(_COPY(d8, s8));
 181              		.loc 1 78 36 view .LVU64
  79:Lib/lvgl/src/stdlib/builtin/lv_string_builtin.c ****             _REPEAT8(_COPY(d8, s8));
 182              		.loc 1 79 13 view .LVU65
 183 006a 0C7A     		ldrb	r4, [r1, #8]	@ zero_extendqisi2
 184 006c 1C72     		strb	r4, [r3, #8]
  79:Lib/lvgl/src/stdlib/builtin/lv_string_builtin.c ****             _REPEAT8(_COPY(d8, s8));
 185              		.loc 1 79 13 view .LVU66
 186              	.LVL24:
  79:Lib/lvgl/src/stdlib/builtin/lv_string_builtin.c ****             _REPEAT8(_COPY(d8, s8));
 187              		.loc 1 79 13 view .LVU67
  79:Lib/lvgl/src/stdlib/builtin/lv_string_builtin.c ****             _REPEAT8(_COPY(d8, s8));
 188              		.loc 1 79 13 view .LVU68
ARM GAS  C:\Users\Alex\AppData\Local\Temp\ccqVx2FS.s 			page 7


 189 006e 4C7A     		ldrb	r4, [r1, #9]	@ zero_extendqisi2
 190 0070 5C72     		strb	r4, [r3, #9]
  79:Lib/lvgl/src/stdlib/builtin/lv_string_builtin.c ****             _REPEAT8(_COPY(d8, s8));
 191              		.loc 1 79 13 view .LVU69
 192              	.LVL25:
  79:Lib/lvgl/src/stdlib/builtin/lv_string_builtin.c ****             _REPEAT8(_COPY(d8, s8));
 193              		.loc 1 79 13 view .LVU70
  79:Lib/lvgl/src/stdlib/builtin/lv_string_builtin.c ****             _REPEAT8(_COPY(d8, s8));
 194              		.loc 1 79 13 view .LVU71
 195 0072 8C7A     		ldrb	r4, [r1, #10]	@ zero_extendqisi2
 196 0074 9C72     		strb	r4, [r3, #10]
  79:Lib/lvgl/src/stdlib/builtin/lv_string_builtin.c ****             _REPEAT8(_COPY(d8, s8));
 197              		.loc 1 79 13 view .LVU72
 198              	.LVL26:
  79:Lib/lvgl/src/stdlib/builtin/lv_string_builtin.c ****             _REPEAT8(_COPY(d8, s8));
 199              		.loc 1 79 13 view .LVU73
  79:Lib/lvgl/src/stdlib/builtin/lv_string_builtin.c ****             _REPEAT8(_COPY(d8, s8));
 200              		.loc 1 79 13 view .LVU74
 201 0076 CC7A     		ldrb	r4, [r1, #11]	@ zero_extendqisi2
 202 0078 DC72     		strb	r4, [r3, #11]
  79:Lib/lvgl/src/stdlib/builtin/lv_string_builtin.c ****             _REPEAT8(_COPY(d8, s8));
 203              		.loc 1 79 13 view .LVU75
 204              	.LVL27:
  79:Lib/lvgl/src/stdlib/builtin/lv_string_builtin.c ****             _REPEAT8(_COPY(d8, s8));
 205              		.loc 1 79 13 view .LVU76
  79:Lib/lvgl/src/stdlib/builtin/lv_string_builtin.c ****             _REPEAT8(_COPY(d8, s8));
 206              		.loc 1 79 13 view .LVU77
 207 007a 0C7B     		ldrb	r4, [r1, #12]	@ zero_extendqisi2
 208 007c 1C73     		strb	r4, [r3, #12]
  79:Lib/lvgl/src/stdlib/builtin/lv_string_builtin.c ****             _REPEAT8(_COPY(d8, s8));
 209              		.loc 1 79 13 view .LVU78
 210              	.LVL28:
  79:Lib/lvgl/src/stdlib/builtin/lv_string_builtin.c ****             _REPEAT8(_COPY(d8, s8));
 211              		.loc 1 79 13 view .LVU79
  79:Lib/lvgl/src/stdlib/builtin/lv_string_builtin.c ****             _REPEAT8(_COPY(d8, s8));
 212              		.loc 1 79 13 view .LVU80
 213 007e 4C7B     		ldrb	r4, [r1, #13]	@ zero_extendqisi2
 214 0080 5C73     		strb	r4, [r3, #13]
  79:Lib/lvgl/src/stdlib/builtin/lv_string_builtin.c ****             _REPEAT8(_COPY(d8, s8));
 215              		.loc 1 79 13 view .LVU81
 216              	.LVL29:
  79:Lib/lvgl/src/stdlib/builtin/lv_string_builtin.c ****             _REPEAT8(_COPY(d8, s8));
 217              		.loc 1 79 13 view .LVU82
  79:Lib/lvgl/src/stdlib/builtin/lv_string_builtin.c ****             _REPEAT8(_COPY(d8, s8));
 218              		.loc 1 79 13 view .LVU83
 219 0082 8C7B     		ldrb	r4, [r1, #14]	@ zero_extendqisi2
 220 0084 9C73     		strb	r4, [r3, #14]
  79:Lib/lvgl/src/stdlib/builtin/lv_string_builtin.c ****             _REPEAT8(_COPY(d8, s8));
 221              		.loc 1 79 13 view .LVU84
 222              	.LVL30:
  79:Lib/lvgl/src/stdlib/builtin/lv_string_builtin.c ****             _REPEAT8(_COPY(d8, s8));
 223              		.loc 1 79 13 view .LVU85
  79:Lib/lvgl/src/stdlib/builtin/lv_string_builtin.c ****             _REPEAT8(_COPY(d8, s8));
 224              		.loc 1 79 13 view .LVU86
 225 0086 CC7B     		ldrb	r4, [r1, #15]	@ zero_extendqisi2
 226 0088 DC73     		strb	r4, [r3, #15]
  79:Lib/lvgl/src/stdlib/builtin/lv_string_builtin.c ****             _REPEAT8(_COPY(d8, s8));
ARM GAS  C:\Users\Alex\AppData\Local\Temp\ccqVx2FS.s 			page 8


 227              		.loc 1 79 13 view .LVU87
 228              	.LVL31:
  79:Lib/lvgl/src/stdlib/builtin/lv_string_builtin.c ****             _REPEAT8(_COPY(d8, s8));
 229              		.loc 1 79 13 view .LVU88
  79:Lib/lvgl/src/stdlib/builtin/lv_string_builtin.c ****             _REPEAT8(_COPY(d8, s8));
 230              		.loc 1 79 36 view .LVU89
  80:Lib/lvgl/src/stdlib/builtin/lv_string_builtin.c ****             _REPEAT8(_COPY(d8, s8));
 231              		.loc 1 80 13 view .LVU90
 232 008a 0C7C     		ldrb	r4, [r1, #16]	@ zero_extendqisi2
 233 008c 1C74     		strb	r4, [r3, #16]
  80:Lib/lvgl/src/stdlib/builtin/lv_string_builtin.c ****             _REPEAT8(_COPY(d8, s8));
 234              		.loc 1 80 13 view .LVU91
 235              	.LVL32:
  80:Lib/lvgl/src/stdlib/builtin/lv_string_builtin.c ****             _REPEAT8(_COPY(d8, s8));
 236              		.loc 1 80 13 view .LVU92
  80:Lib/lvgl/src/stdlib/builtin/lv_string_builtin.c ****             _REPEAT8(_COPY(d8, s8));
 237              		.loc 1 80 13 view .LVU93
 238 008e 4C7C     		ldrb	r4, [r1, #17]	@ zero_extendqisi2
 239 0090 5C74     		strb	r4, [r3, #17]
  80:Lib/lvgl/src/stdlib/builtin/lv_string_builtin.c ****             _REPEAT8(_COPY(d8, s8));
 240              		.loc 1 80 13 view .LVU94
 241              	.LVL33:
  80:Lib/lvgl/src/stdlib/builtin/lv_string_builtin.c ****             _REPEAT8(_COPY(d8, s8));
 242              		.loc 1 80 13 view .LVU95
  80:Lib/lvgl/src/stdlib/builtin/lv_string_builtin.c ****             _REPEAT8(_COPY(d8, s8));
 243              		.loc 1 80 13 view .LVU96
 244 0092 8C7C     		ldrb	r4, [r1, #18]	@ zero_extendqisi2
 245 0094 9C74     		strb	r4, [r3, #18]
  80:Lib/lvgl/src/stdlib/builtin/lv_string_builtin.c ****             _REPEAT8(_COPY(d8, s8));
 246              		.loc 1 80 13 view .LVU97
 247              	.LVL34:
  80:Lib/lvgl/src/stdlib/builtin/lv_string_builtin.c ****             _REPEAT8(_COPY(d8, s8));
 248              		.loc 1 80 13 view .LVU98
  80:Lib/lvgl/src/stdlib/builtin/lv_string_builtin.c ****             _REPEAT8(_COPY(d8, s8));
 249              		.loc 1 80 13 view .LVU99
 250 0096 CC7C     		ldrb	r4, [r1, #19]	@ zero_extendqisi2
 251 0098 DC74     		strb	r4, [r3, #19]
  80:Lib/lvgl/src/stdlib/builtin/lv_string_builtin.c ****             _REPEAT8(_COPY(d8, s8));
 252              		.loc 1 80 13 view .LVU100
 253              	.LVL35:
  80:Lib/lvgl/src/stdlib/builtin/lv_string_builtin.c ****             _REPEAT8(_COPY(d8, s8));
 254              		.loc 1 80 13 view .LVU101
  80:Lib/lvgl/src/stdlib/builtin/lv_string_builtin.c ****             _REPEAT8(_COPY(d8, s8));
 255              		.loc 1 80 13 view .LVU102
 256 009a 0C7D     		ldrb	r4, [r1, #20]	@ zero_extendqisi2
 257 009c 1C75     		strb	r4, [r3, #20]
  80:Lib/lvgl/src/stdlib/builtin/lv_string_builtin.c ****             _REPEAT8(_COPY(d8, s8));
 258              		.loc 1 80 13 view .LVU103
 259              	.LVL36:
  80:Lib/lvgl/src/stdlib/builtin/lv_string_builtin.c ****             _REPEAT8(_COPY(d8, s8));
 260              		.loc 1 80 13 view .LVU104
  80:Lib/lvgl/src/stdlib/builtin/lv_string_builtin.c ****             _REPEAT8(_COPY(d8, s8));
 261              		.loc 1 80 13 view .LVU105
 262 009e 4C7D     		ldrb	r4, [r1, #21]	@ zero_extendqisi2
 263 00a0 5C75     		strb	r4, [r3, #21]
  80:Lib/lvgl/src/stdlib/builtin/lv_string_builtin.c ****             _REPEAT8(_COPY(d8, s8));
 264              		.loc 1 80 13 view .LVU106
ARM GAS  C:\Users\Alex\AppData\Local\Temp\ccqVx2FS.s 			page 9


 265              	.LVL37:
  80:Lib/lvgl/src/stdlib/builtin/lv_string_builtin.c ****             _REPEAT8(_COPY(d8, s8));
 266              		.loc 1 80 13 view .LVU107
  80:Lib/lvgl/src/stdlib/builtin/lv_string_builtin.c ****             _REPEAT8(_COPY(d8, s8));
 267              		.loc 1 80 13 view .LVU108
 268 00a2 8C7D     		ldrb	r4, [r1, #22]	@ zero_extendqisi2
 269 00a4 9C75     		strb	r4, [r3, #22]
  80:Lib/lvgl/src/stdlib/builtin/lv_string_builtin.c ****             _REPEAT8(_COPY(d8, s8));
 270              		.loc 1 80 13 view .LVU109
 271              	.LVL38:
  80:Lib/lvgl/src/stdlib/builtin/lv_string_builtin.c ****             _REPEAT8(_COPY(d8, s8));
 272              		.loc 1 80 13 view .LVU110
  80:Lib/lvgl/src/stdlib/builtin/lv_string_builtin.c ****             _REPEAT8(_COPY(d8, s8));
 273              		.loc 1 80 13 view .LVU111
 274 00a6 CC7D     		ldrb	r4, [r1, #23]	@ zero_extendqisi2
 275 00a8 DC75     		strb	r4, [r3, #23]
  80:Lib/lvgl/src/stdlib/builtin/lv_string_builtin.c ****             _REPEAT8(_COPY(d8, s8));
 276              		.loc 1 80 13 view .LVU112
 277              	.LVL39:
  80:Lib/lvgl/src/stdlib/builtin/lv_string_builtin.c ****             _REPEAT8(_COPY(d8, s8));
 278              		.loc 1 80 13 view .LVU113
  80:Lib/lvgl/src/stdlib/builtin/lv_string_builtin.c ****             _REPEAT8(_COPY(d8, s8));
 279              		.loc 1 80 36 view .LVU114
  81:Lib/lvgl/src/stdlib/builtin/lv_string_builtin.c ****             len -= 32;
 280              		.loc 1 81 13 view .LVU115
 281 00aa 0C7E     		ldrb	r4, [r1, #24]	@ zero_extendqisi2
 282 00ac 1C76     		strb	r4, [r3, #24]
  81:Lib/lvgl/src/stdlib/builtin/lv_string_builtin.c ****             len -= 32;
 283              		.loc 1 81 13 view .LVU116
 284              	.LVL40:
  81:Lib/lvgl/src/stdlib/builtin/lv_string_builtin.c ****             len -= 32;
 285              		.loc 1 81 13 view .LVU117
  81:Lib/lvgl/src/stdlib/builtin/lv_string_builtin.c ****             len -= 32;
 286              		.loc 1 81 13 view .LVU118
 287 00ae 4C7E     		ldrb	r4, [r1, #25]	@ zero_extendqisi2
 288 00b0 5C76     		strb	r4, [r3, #25]
  81:Lib/lvgl/src/stdlib/builtin/lv_string_builtin.c ****             len -= 32;
 289              		.loc 1 81 13 view .LVU119
 290              	.LVL41:
  81:Lib/lvgl/src/stdlib/builtin/lv_string_builtin.c ****             len -= 32;
 291              		.loc 1 81 13 view .LVU120
  81:Lib/lvgl/src/stdlib/builtin/lv_string_builtin.c ****             len -= 32;
 292              		.loc 1 81 13 view .LVU121
 293 00b2 8C7E     		ldrb	r4, [r1, #26]	@ zero_extendqisi2
 294 00b4 9C76     		strb	r4, [r3, #26]
  81:Lib/lvgl/src/stdlib/builtin/lv_string_builtin.c ****             len -= 32;
 295              		.loc 1 81 13 view .LVU122
 296              	.LVL42:
  81:Lib/lvgl/src/stdlib/builtin/lv_string_builtin.c ****             len -= 32;
 297              		.loc 1 81 13 view .LVU123
  81:Lib/lvgl/src/stdlib/builtin/lv_string_builtin.c ****             len -= 32;
 298              		.loc 1 81 13 view .LVU124
 299 00b6 CC7E     		ldrb	r4, [r1, #27]	@ zero_extendqisi2
 300 00b8 DC76     		strb	r4, [r3, #27]
  81:Lib/lvgl/src/stdlib/builtin/lv_string_builtin.c ****             len -= 32;
 301              		.loc 1 81 13 view .LVU125
 302              	.LVL43:
ARM GAS  C:\Users\Alex\AppData\Local\Temp\ccqVx2FS.s 			page 10


  81:Lib/lvgl/src/stdlib/builtin/lv_string_builtin.c ****             len -= 32;
 303              		.loc 1 81 13 view .LVU126
  81:Lib/lvgl/src/stdlib/builtin/lv_string_builtin.c ****             len -= 32;
 304              		.loc 1 81 13 view .LVU127
 305 00ba 0C7F     		ldrb	r4, [r1, #28]	@ zero_extendqisi2
 306 00bc 1C77     		strb	r4, [r3, #28]
  81:Lib/lvgl/src/stdlib/builtin/lv_string_builtin.c ****             len -= 32;
 307              		.loc 1 81 13 view .LVU128
 308              	.LVL44:
  81:Lib/lvgl/src/stdlib/builtin/lv_string_builtin.c ****             len -= 32;
 309              		.loc 1 81 13 view .LVU129
  81:Lib/lvgl/src/stdlib/builtin/lv_string_builtin.c ****             len -= 32;
 310              		.loc 1 81 13 view .LVU130
 311 00be 4C7F     		ldrb	r4, [r1, #29]	@ zero_extendqisi2
 312 00c0 5C77     		strb	r4, [r3, #29]
  81:Lib/lvgl/src/stdlib/builtin/lv_string_builtin.c ****             len -= 32;
 313              		.loc 1 81 13 view .LVU131
 314              	.LVL45:
  81:Lib/lvgl/src/stdlib/builtin/lv_string_builtin.c ****             len -= 32;
 315              		.loc 1 81 13 view .LVU132
  81:Lib/lvgl/src/stdlib/builtin/lv_string_builtin.c ****             len -= 32;
 316              		.loc 1 81 13 view .LVU133
 317 00c2 8C7F     		ldrb	r4, [r1, #30]	@ zero_extendqisi2
 318 00c4 9C77     		strb	r4, [r3, #30]
  81:Lib/lvgl/src/stdlib/builtin/lv_string_builtin.c ****             len -= 32;
 319              		.loc 1 81 13 view .LVU134
 320              	.LVL46:
  81:Lib/lvgl/src/stdlib/builtin/lv_string_builtin.c ****             len -= 32;
 321              		.loc 1 81 13 view .LVU135
  81:Lib/lvgl/src/stdlib/builtin/lv_string_builtin.c ****             len -= 32;
 322              		.loc 1 81 13 view .LVU136
 323 00c6 CC7F     		ldrb	r4, [r1, #31]	@ zero_extendqisi2
 324 00c8 DC77     		strb	r4, [r3, #31]
  81:Lib/lvgl/src/stdlib/builtin/lv_string_builtin.c ****             len -= 32;
 325              		.loc 1 81 13 view .LVU137
 326 00ca 2033     		adds	r3, r3, #32
 327              	.LVL47:
  81:Lib/lvgl/src/stdlib/builtin/lv_string_builtin.c ****             len -= 32;
 328              		.loc 1 81 13 view .LVU138
 329 00cc 2031     		adds	r1, r1, #32
 330              	.LVL48:
  81:Lib/lvgl/src/stdlib/builtin/lv_string_builtin.c ****             len -= 32;
 331              		.loc 1 81 36 view .LVU139
  82:Lib/lvgl/src/stdlib/builtin/lv_string_builtin.c ****         }
 332              		.loc 1 82 13 view .LVU140
  82:Lib/lvgl/src/stdlib/builtin/lv_string_builtin.c ****         }
 333              		.loc 1 82 17 is_stmt 0 view .LVU141
 334 00ce 203A     		subs	r2, r2, #32
 335              	.LVL49:
 336              	.L6:
  77:Lib/lvgl/src/stdlib/builtin/lv_string_builtin.c ****             _REPEAT8(_COPY(d8, s8));
 337              		.loc 1 77 19 is_stmt 1 view .LVU142
 338 00d0 202A     		cmp	r2, #32
 339 00d2 BAD8     		bhi	.L8
  77:Lib/lvgl/src/stdlib/builtin/lv_string_builtin.c ****             _REPEAT8(_COPY(d8, s8));
 340              		.loc 1 77 19 is_stmt 0 view .LVU143
 341 00d4 06E0     		b	.L9
ARM GAS  C:\Users\Alex\AppData\Local\Temp\ccqVx2FS.s 			page 11


 342              	.LVL50:
 343              	.L19:
  58:Lib/lvgl/src/stdlib/builtin/lv_string_builtin.c ****     const uint8_t * s8 = src;
 344              		.loc 1 58 15 view .LVU144
 345 00d6 0346     		mov	r3, r0
 346              	.LVL51:
  58:Lib/lvgl/src/stdlib/builtin/lv_string_builtin.c ****     const uint8_t * s8 = src;
 347              		.loc 1 58 15 view .LVU145
 348 00d8 FAE7     		b	.L6
 349              	.LVL52:
 350              	.L10:
  85:Lib/lvgl/src/stdlib/builtin/lv_string_builtin.c ****             len--;
 351              		.loc 1 85 13 is_stmt 1 view .LVU146
 352 00da 11F8014B 		ldrb	r4, [r1], #1	@ zero_extendqisi2
 353              	.LVL53:
  85:Lib/lvgl/src/stdlib/builtin/lv_string_builtin.c ****             len--;
 354              		.loc 1 85 13 is_stmt 0 view .LVU147
 355 00de 03F8014B 		strb	r4, [r3], #1
 356              	.LVL54:
  85:Lib/lvgl/src/stdlib/builtin/lv_string_builtin.c ****             len--;
 357              		.loc 1 85 13 is_stmt 1 view .LVU148
  85:Lib/lvgl/src/stdlib/builtin/lv_string_builtin.c ****             len--;
 358              		.loc 1 85 13 view .LVU149
  86:Lib/lvgl/src/stdlib/builtin/lv_string_builtin.c ****         }
 359              		.loc 1 86 13 view .LVU150
  86:Lib/lvgl/src/stdlib/builtin/lv_string_builtin.c ****         }
 360              		.loc 1 86 16 is_stmt 0 view .LVU151
 361 00e2 013A     		subs	r2, r2, #1
 362              	.LVL55:
 363              	.L9:
  84:Lib/lvgl/src/stdlib/builtin/lv_string_builtin.c ****             _COPY(d8, s8)
 364              		.loc 1 84 15 is_stmt 1 view .LVU152
 365 00e4 002A     		cmp	r2, #0
 366 00e6 F8D1     		bne	.L10
  84:Lib/lvgl/src/stdlib/builtin/lv_string_builtin.c ****             _COPY(d8, s8)
 367              		.loc 1 84 15 is_stmt 0 view .LVU153
 368 00e8 AAE7     		b	.L5
 369              	.LVL56:
 370              	.L15:
 104:Lib/lvgl/src/stdlib/builtin/lv_string_builtin.c ****         len -= 32;
 371              		.loc 1 104 9 is_stmt 1 view .LVU154
 372 00ea 0C68     		ldr	r4, [r1]
 373 00ec 1C60     		str	r4, [r3]
 104:Lib/lvgl/src/stdlib/builtin/lv_string_builtin.c ****         len -= 32;
 374              		.loc 1 104 9 view .LVU155
 375              	.LVL57:
 104:Lib/lvgl/src/stdlib/builtin/lv_string_builtin.c ****         len -= 32;
 376              		.loc 1 104 9 view .LVU156
 104:Lib/lvgl/src/stdlib/builtin/lv_string_builtin.c ****         len -= 32;
 377              		.loc 1 104 9 view .LVU157
 378 00ee 4C68     		ldr	r4, [r1, #4]
 379 00f0 5C60     		str	r4, [r3, #4]
 104:Lib/lvgl/src/stdlib/builtin/lv_string_builtin.c ****         len -= 32;
 380              		.loc 1 104 9 view .LVU158
 381              	.LVL58:
 104:Lib/lvgl/src/stdlib/builtin/lv_string_builtin.c ****         len -= 32;
 382              		.loc 1 104 9 view .LVU159
ARM GAS  C:\Users\Alex\AppData\Local\Temp\ccqVx2FS.s 			page 12


 104:Lib/lvgl/src/stdlib/builtin/lv_string_builtin.c ****         len -= 32;
 383              		.loc 1 104 9 view .LVU160
 384 00f2 8C68     		ldr	r4, [r1, #8]
 385 00f4 9C60     		str	r4, [r3, #8]
 104:Lib/lvgl/src/stdlib/builtin/lv_string_builtin.c ****         len -= 32;
 386              		.loc 1 104 9 view .LVU161
 387              	.LVL59:
 104:Lib/lvgl/src/stdlib/builtin/lv_string_builtin.c ****         len -= 32;
 388              		.loc 1 104 9 view .LVU162
 104:Lib/lvgl/src/stdlib/builtin/lv_string_builtin.c ****         len -= 32;
 389              		.loc 1 104 9 view .LVU163
 390 00f6 CC68     		ldr	r4, [r1, #12]
 391 00f8 DC60     		str	r4, [r3, #12]
 104:Lib/lvgl/src/stdlib/builtin/lv_string_builtin.c ****         len -= 32;
 392              		.loc 1 104 9 view .LVU164
 393              	.LVL60:
 104:Lib/lvgl/src/stdlib/builtin/lv_string_builtin.c ****         len -= 32;
 394              		.loc 1 104 9 view .LVU165
 104:Lib/lvgl/src/stdlib/builtin/lv_string_builtin.c ****         len -= 32;
 395              		.loc 1 104 9 view .LVU166
 396 00fa 0C69     		ldr	r4, [r1, #16]
 397 00fc 1C61     		str	r4, [r3, #16]
 104:Lib/lvgl/src/stdlib/builtin/lv_string_builtin.c ****         len -= 32;
 398              		.loc 1 104 9 view .LVU167
 399              	.LVL61:
 104:Lib/lvgl/src/stdlib/builtin/lv_string_builtin.c ****         len -= 32;
 400              		.loc 1 104 9 view .LVU168
 104:Lib/lvgl/src/stdlib/builtin/lv_string_builtin.c ****         len -= 32;
 401              		.loc 1 104 9 view .LVU169
 402 00fe 4C69     		ldr	r4, [r1, #20]
 403 0100 5C61     		str	r4, [r3, #20]
 104:Lib/lvgl/src/stdlib/builtin/lv_string_builtin.c ****         len -= 32;
 404              		.loc 1 104 9 view .LVU170
 405              	.LVL62:
 104:Lib/lvgl/src/stdlib/builtin/lv_string_builtin.c ****         len -= 32;
 406              		.loc 1 104 9 view .LVU171
 104:Lib/lvgl/src/stdlib/builtin/lv_string_builtin.c ****         len -= 32;
 407              		.loc 1 104 9 view .LVU172
 408 0102 8C69     		ldr	r4, [r1, #24]
 409 0104 9C61     		str	r4, [r3, #24]
 104:Lib/lvgl/src/stdlib/builtin/lv_string_builtin.c ****         len -= 32;
 410              		.loc 1 104 9 view .LVU173
 411              	.LVL63:
 104:Lib/lvgl/src/stdlib/builtin/lv_string_builtin.c ****         len -= 32;
 412              		.loc 1 104 9 view .LVU174
 104:Lib/lvgl/src/stdlib/builtin/lv_string_builtin.c ****         len -= 32;
 413              		.loc 1 104 9 view .LVU175
 414 0106 CC69     		ldr	r4, [r1, #28]
 415 0108 DC61     		str	r4, [r3, #28]
 104:Lib/lvgl/src/stdlib/builtin/lv_string_builtin.c ****         len -= 32;
 416              		.loc 1 104 9 view .LVU176
 417 010a 2033     		adds	r3, r3, #32
 418              	.LVL64:
 104:Lib/lvgl/src/stdlib/builtin/lv_string_builtin.c ****         len -= 32;
 419              		.loc 1 104 9 view .LVU177
 420 010c 2031     		adds	r1, r1, #32
 421              	.LVL65:
ARM GAS  C:\Users\Alex\AppData\Local\Temp\ccqVx2FS.s 			page 13


 105:Lib/lvgl/src/stdlib/builtin/lv_string_builtin.c ****     }
 422              		.loc 1 105 9 view .LVU178
 105:Lib/lvgl/src/stdlib/builtin/lv_string_builtin.c ****     }
 423              		.loc 1 105 13 is_stmt 0 view .LVU179
 424 010e 203A     		subs	r2, r2, #32
 425              	.LVL66:
 426              	.L14:
 103:Lib/lvgl/src/stdlib/builtin/lv_string_builtin.c ****         _REPEAT8(_COPY(d32, s32))
 427              		.loc 1 103 15 is_stmt 1 view .LVU180
 428 0110 202A     		cmp	r2, #32
 429 0112 EAD8     		bhi	.L15
 103:Lib/lvgl/src/stdlib/builtin/lv_string_builtin.c ****         _REPEAT8(_COPY(d32, s32))
 430              		.loc 1 103 15 is_stmt 0 view .LVU181
 431 0114 06E0     		b	.L16
 432              	.LVL67:
 433              	.L20:
  58:Lib/lvgl/src/stdlib/builtin/lv_string_builtin.c ****     const uint8_t * s8 = src;
 434              		.loc 1 58 15 view .LVU182
 435 0116 0346     		mov	r3, r0
 436              	.LVL68:
  58:Lib/lvgl/src/stdlib/builtin/lv_string_builtin.c ****     const uint8_t * s8 = src;
 437              		.loc 1 58 15 view .LVU183
 438 0118 FAE7     		b	.L14
 439              	.LVL69:
 440              	.L17:
 111:Lib/lvgl/src/stdlib/builtin/lv_string_builtin.c ****         len--;
 441              		.loc 1 111 9 is_stmt 1 view .LVU184
 442 011a 11F8014B 		ldrb	r4, [r1], #1	@ zero_extendqisi2
 443              	.LVL70:
 111:Lib/lvgl/src/stdlib/builtin/lv_string_builtin.c ****         len--;
 444              		.loc 1 111 9 is_stmt 0 view .LVU185
 445 011e 03F8014B 		strb	r4, [r3], #1
 446              	.LVL71:
 111:Lib/lvgl/src/stdlib/builtin/lv_string_builtin.c ****         len--;
 447              		.loc 1 111 9 is_stmt 1 view .LVU186
 111:Lib/lvgl/src/stdlib/builtin/lv_string_builtin.c ****         len--;
 448              		.loc 1 111 9 view .LVU187
 112:Lib/lvgl/src/stdlib/builtin/lv_string_builtin.c ****     }
 449              		.loc 1 112 9 view .LVU188
 112:Lib/lvgl/src/stdlib/builtin/lv_string_builtin.c ****     }
 450              		.loc 1 112 12 is_stmt 0 view .LVU189
 451 0122 013A     		subs	r2, r2, #1
 452              	.LVL72:
 453              	.L16:
 110:Lib/lvgl/src/stdlib/builtin/lv_string_builtin.c ****         _COPY(d8, s8)
 454              		.loc 1 110 11 is_stmt 1 view .LVU190
 455 0124 002A     		cmp	r2, #0
 456 0126 F8D1     		bne	.L17
 110:Lib/lvgl/src/stdlib/builtin/lv_string_builtin.c ****         _COPY(d8, s8)
 457              		.loc 1 110 11 is_stmt 0 view .LVU191
 458 0128 8AE7     		b	.L5
 459              		.cfi_endproc
 460              	.LFE3:
 462              		.section	.text.lv_memset,"ax",%progbits
 463              		.align	1
 464              		.global	lv_memset
 465              		.syntax unified
ARM GAS  C:\Users\Alex\AppData\Local\Temp\ccqVx2FS.s 			page 14


 466              		.thumb
 467              		.thumb_func
 469              	lv_memset:
 470              	.LVL73:
 471              	.LFB4:
 117:Lib/lvgl/src/stdlib/builtin/lv_string_builtin.c **** 
 118:Lib/lvgl/src/stdlib/builtin/lv_string_builtin.c **** LV_ATTRIBUTE_FAST_MEM void lv_memset(void * dst, uint8_t v, size_t len)
 119:Lib/lvgl/src/stdlib/builtin/lv_string_builtin.c **** {
 472              		.loc 1 119 1 is_stmt 1 view -0
 473              		.cfi_startproc
 474              		@ args = 0, pretend = 0, frame = 0
 475              		@ frame_needed = 0, uses_anonymous_args = 0
 476              		@ link register save eliminated.
 120:Lib/lvgl/src/stdlib/builtin/lv_string_builtin.c ****     uint8_t * d8 = (uint8_t *)dst;
 477              		.loc 1 120 5 view .LVU193
 121:Lib/lvgl/src/stdlib/builtin/lv_string_builtin.c ****     uintptr_t d_align = (lv_uintptr_t) d8 & ALIGN_MASK;
 478              		.loc 1 121 5 view .LVU194
 122:Lib/lvgl/src/stdlib/builtin/lv_string_builtin.c **** 
 123:Lib/lvgl/src/stdlib/builtin/lv_string_builtin.c ****     /*Make the address aligned*/
 124:Lib/lvgl/src/stdlib/builtin/lv_string_builtin.c ****     if(d_align) {
 479              		.loc 1 124 5 view .LVU195
 480              		.loc 1 124 7 is_stmt 0 view .LVU196
 481 0000 10F00303 		ands	r3, r0, #3
 482              	.LVL74:
 483              		.loc 1 124 7 view .LVU197
 484 0004 09D0     		beq	.L26
 125:Lib/lvgl/src/stdlib/builtin/lv_string_builtin.c ****         d_align = ALIGN_MASK + 1 - d_align;
 485              		.loc 1 125 9 is_stmt 1 view .LVU198
 486              		.loc 1 125 17 is_stmt 0 view .LVU199
 487 0006 C3F10403 		rsb	r3, r3, #4
 488              	.LVL75:
 126:Lib/lvgl/src/stdlib/builtin/lv_string_builtin.c ****         while(d_align && len) {
 489              		.loc 1 126 9 is_stmt 1 view .LVU200
 490              		.loc 1 126 14 is_stmt 0 view .LVU201
 491 000a 03E0     		b	.L27
 492              	.LVL76:
 493              	.L28:
 127:Lib/lvgl/src/stdlib/builtin/lv_string_builtin.c ****             _SET(d8, v);
 494              		.loc 1 127 13 is_stmt 1 view .LVU202
 495 000c 00F8011B 		strb	r1, [r0], #1
 496              	.LVL77:
 497              		.loc 1 127 13 view .LVU203
 498              		.loc 1 127 24 view .LVU204
 128:Lib/lvgl/src/stdlib/builtin/lv_string_builtin.c ****             len--;
 499              		.loc 1 128 13 view .LVU205
 500              		.loc 1 128 16 is_stmt 0 view .LVU206
 501 0010 013A     		subs	r2, r2, #1
 502              	.LVL78:
 129:Lib/lvgl/src/stdlib/builtin/lv_string_builtin.c ****             d_align--;
 503              		.loc 1 129 13 is_stmt 1 view .LVU207
 504              		.loc 1 129 20 is_stmt 0 view .LVU208
 505 0012 013B     		subs	r3, r3, #1
 506              	.LVL79:
 507              	.L27:
 126:Lib/lvgl/src/stdlib/builtin/lv_string_builtin.c ****             _SET(d8, v);
 508              		.loc 1 126 23 is_stmt 1 view .LVU209
 509 0014 0BB1     		cbz	r3, .L26
ARM GAS  C:\Users\Alex\AppData\Local\Temp\ccqVx2FS.s 			page 15


 126:Lib/lvgl/src/stdlib/builtin/lv_string_builtin.c ****             _SET(d8, v);
 510              		.loc 1 126 23 is_stmt 0 discriminator 1 view .LVU210
 511 0016 002A     		cmp	r2, #0
 512 0018 F8D1     		bne	.L28
 513              	.L26:
 130:Lib/lvgl/src/stdlib/builtin/lv_string_builtin.c ****         }
 131:Lib/lvgl/src/stdlib/builtin/lv_string_builtin.c ****     }
 132:Lib/lvgl/src/stdlib/builtin/lv_string_builtin.c **** 
 133:Lib/lvgl/src/stdlib/builtin/lv_string_builtin.c ****     uint32_t v32 = (uint32_t)v + ((uint32_t)v << 8) + ((uint32_t)v << 16) + ((uint32_t)v << 24);
 514              		.loc 1 133 5 is_stmt 1 view .LVU211
 515              		.loc 1 133 32 is_stmt 0 view .LVU212
 516 001a 01EB0123 		add	r3, r1, r1, lsl #8
 517              	.LVL80:
 518              		.loc 1 133 53 view .LVU213
 519 001e 03EB0143 		add	r3, r3, r1, lsl #16
 520              		.loc 1 133 14 view .LVU214
 521 0022 03EB0163 		add	r3, r3, r1, lsl #24
 522              	.LVL81:
 134:Lib/lvgl/src/stdlib/builtin/lv_string_builtin.c ****     uint32_t * d32 = (uint32_t *)d8;
 523              		.loc 1 134 5 is_stmt 1 view .LVU215
 135:Lib/lvgl/src/stdlib/builtin/lv_string_builtin.c **** 
 136:Lib/lvgl/src/stdlib/builtin/lv_string_builtin.c ****     while(len > 32) {
 524              		.loc 1 136 5 view .LVU216
 525              		.loc 1 136 10 is_stmt 0 view .LVU217
 526 0026 09E0     		b	.L29
 527              	.LVL82:
 528              	.L30:
 137:Lib/lvgl/src/stdlib/builtin/lv_string_builtin.c ****         _REPEAT8(_SET(d32, v32));
 529              		.loc 1 137 9 is_stmt 1 view .LVU218
 530 0028 0360     		str	r3, [r0]
 531              		.loc 1 137 9 view .LVU219
 532              	.LVL83:
 533              		.loc 1 137 9 view .LVU220
 534 002a 4360     		str	r3, [r0, #4]
 535              		.loc 1 137 9 view .LVU221
 536              	.LVL84:
 537              		.loc 1 137 9 view .LVU222
 538 002c 8360     		str	r3, [r0, #8]
 539              		.loc 1 137 9 view .LVU223
 540              	.LVL85:
 541              		.loc 1 137 9 view .LVU224
 542 002e C360     		str	r3, [r0, #12]
 543              		.loc 1 137 9 view .LVU225
 544              	.LVL86:
 545              		.loc 1 137 9 view .LVU226
 546 0030 0361     		str	r3, [r0, #16]
 547              		.loc 1 137 9 view .LVU227
 548              	.LVL87:
 549              		.loc 1 137 9 view .LVU228
 550 0032 4361     		str	r3, [r0, #20]
 551              		.loc 1 137 9 view .LVU229
 552              	.LVL88:
 553              		.loc 1 137 9 view .LVU230
 554 0034 8361     		str	r3, [r0, #24]
 555              		.loc 1 137 9 view .LVU231
 556              	.LVL89:
 557              		.loc 1 137 9 view .LVU232
ARM GAS  C:\Users\Alex\AppData\Local\Temp\ccqVx2FS.s 			page 16


 558 0036 C361     		str	r3, [r0, #28]
 559              		.loc 1 137 9 view .LVU233
 560 0038 2030     		adds	r0, r0, #32
 561              	.LVL90:
 562              		.loc 1 137 33 view .LVU234
 138:Lib/lvgl/src/stdlib/builtin/lv_string_builtin.c ****         len -= 32;
 563              		.loc 1 138 9 view .LVU235
 564              		.loc 1 138 13 is_stmt 0 view .LVU236
 565 003a 203A     		subs	r2, r2, #32
 566              	.LVL91:
 567              	.L29:
 136:Lib/lvgl/src/stdlib/builtin/lv_string_builtin.c ****         _REPEAT8(_SET(d32, v32));
 568              		.loc 1 136 15 is_stmt 1 view .LVU237
 569 003c 202A     		cmp	r2, #32
 570 003e F3D8     		bhi	.L30
 136:Lib/lvgl/src/stdlib/builtin/lv_string_builtin.c ****         _REPEAT8(_SET(d32, v32));
 571              		.loc 1 136 15 is_stmt 0 view .LVU238
 572 0040 02E0     		b	.L31
 573              	.LVL92:
 574              	.L32:
 139:Lib/lvgl/src/stdlib/builtin/lv_string_builtin.c ****     }
 140:Lib/lvgl/src/stdlib/builtin/lv_string_builtin.c **** 
 141:Lib/lvgl/src/stdlib/builtin/lv_string_builtin.c ****     d8 = (uint8_t *)d32;
 142:Lib/lvgl/src/stdlib/builtin/lv_string_builtin.c ****     while(len) {
 143:Lib/lvgl/src/stdlib/builtin/lv_string_builtin.c ****         _SET(d8, v);
 575              		.loc 1 143 9 is_stmt 1 view .LVU239
 576 0042 00F8011B 		strb	r1, [r0], #1
 577              	.LVL93:
 578              		.loc 1 143 9 view .LVU240
 579              		.loc 1 143 20 view .LVU241
 144:Lib/lvgl/src/stdlib/builtin/lv_string_builtin.c ****         len--;
 580              		.loc 1 144 9 view .LVU242
 581              		.loc 1 144 12 is_stmt 0 view .LVU243
 582 0046 013A     		subs	r2, r2, #1
 583              	.LVL94:
 584              	.L31:
 142:Lib/lvgl/src/stdlib/builtin/lv_string_builtin.c ****         _SET(d8, v);
 585              		.loc 1 142 11 is_stmt 1 view .LVU244
 586 0048 002A     		cmp	r2, #0
 587 004a FAD1     		bne	.L32
 145:Lib/lvgl/src/stdlib/builtin/lv_string_builtin.c ****     }
 146:Lib/lvgl/src/stdlib/builtin/lv_string_builtin.c **** }
 588              		.loc 1 146 1 is_stmt 0 view .LVU245
 589 004c 7047     		bx	lr
 590              		.cfi_endproc
 591              	.LFE4:
 593              		.section	.text.lv_memmove,"ax",%progbits
 594              		.align	1
 595              		.global	lv_memmove
 596              		.syntax unified
 597              		.thumb
 598              		.thumb_func
 600              	lv_memmove:
 601              	.LVL95:
 602              	.LFB5:
 147:Lib/lvgl/src/stdlib/builtin/lv_string_builtin.c **** 
 148:Lib/lvgl/src/stdlib/builtin/lv_string_builtin.c **** LV_ATTRIBUTE_FAST_MEM void * lv_memmove(void * dst, const void * src, size_t len)
ARM GAS  C:\Users\Alex\AppData\Local\Temp\ccqVx2FS.s 			page 17


 149:Lib/lvgl/src/stdlib/builtin/lv_string_builtin.c **** {
 603              		.loc 1 149 1 is_stmt 1 view -0
 604              		.cfi_startproc
 605              		@ args = 0, pretend = 0, frame = 0
 606              		@ frame_needed = 0, uses_anonymous_args = 0
 607              		.loc 1 149 1 is_stmt 0 view .LVU247
 608 0000 08B5     		push	{r3, lr}
 609              	.LCFI3:
 610              		.cfi_def_cfa_offset 8
 611              		.cfi_offset 3, -8
 612              		.cfi_offset 14, -4
 150:Lib/lvgl/src/stdlib/builtin/lv_string_builtin.c ****     if(dst < src || (char *)dst > ((char *)src + len)) {
 613              		.loc 1 150 5 is_stmt 1 view .LVU248
 614              		.loc 1 150 7 is_stmt 0 view .LVU249
 615 0002 8842     		cmp	r0, r1
 616 0004 0AD3     		bcc	.L34
 617              		.loc 1 150 48 discriminator 1 view .LVU250
 618 0006 8B18     		adds	r3, r1, r2
 619              		.loc 1 150 18 discriminator 1 view .LVU251
 620 0008 8342     		cmp	r3, r0
 621 000a 07D3     		bcc	.L34
 151:Lib/lvgl/src/stdlib/builtin/lv_string_builtin.c ****         return lv_memcpy(dst, src, len);
 152:Lib/lvgl/src/stdlib/builtin/lv_string_builtin.c ****     }
 153:Lib/lvgl/src/stdlib/builtin/lv_string_builtin.c **** 
 154:Lib/lvgl/src/stdlib/builtin/lv_string_builtin.c ****     if(dst > src) {
 622              		.loc 1 154 5 is_stmt 1 view .LVU252
 623              		.loc 1 154 7 is_stmt 0 view .LVU253
 624 000c 8842     		cmp	r0, r1
 625 000e 1CD9     		bls	.L41
 626              	.LBB2:
 155:Lib/lvgl/src/stdlib/builtin/lv_string_builtin.c ****         char * tmp = (char *)dst + len - 1;
 627              		.loc 1 155 9 is_stmt 1 view .LVU254
 628              		.loc 1 155 40 is_stmt 0 view .LVU255
 629 0010 02F1FF3C 		add	ip, r2, #-1
 630              		.loc 1 155 16 view .LVU256
 631 0014 00EB0C03 		add	r3, r0, ip
 632              	.LVL96:
 156:Lib/lvgl/src/stdlib/builtin/lv_string_builtin.c ****         char * s   = (char *)src + len - 1;
 633              		.loc 1 156 9 is_stmt 1 view .LVU257
 634              		.loc 1 156 16 is_stmt 0 view .LVU258
 635 0018 6144     		add	r1, r1, ip
 636              	.LVL97:
 157:Lib/lvgl/src/stdlib/builtin/lv_string_builtin.c **** 
 158:Lib/lvgl/src/stdlib/builtin/lv_string_builtin.c ****         while(len--) {
 637              		.loc 1 158 9 is_stmt 1 view .LVU259
 638              		.loc 1 158 14 is_stmt 0 view .LVU260
 639 001a 07E0     		b	.L38
 640              	.LVL98:
 641              	.L34:
 642              		.loc 1 158 14 view .LVU261
 643              	.LBE2:
 151:Lib/lvgl/src/stdlib/builtin/lv_string_builtin.c ****     }
 644              		.loc 1 151 9 is_stmt 1 view .LVU262
 151:Lib/lvgl/src/stdlib/builtin/lv_string_builtin.c ****     }
 645              		.loc 1 151 16 is_stmt 0 view .LVU263
 646 001c FFF7FEFF 		bl	lv_memcpy
 647              	.LVL99:
ARM GAS  C:\Users\Alex\AppData\Local\Temp\ccqVx2FS.s 			page 18


 648              	.L36:
 159:Lib/lvgl/src/stdlib/builtin/lv_string_builtin.c ****             *tmp-- = *s--;
 160:Lib/lvgl/src/stdlib/builtin/lv_string_builtin.c ****         }
 161:Lib/lvgl/src/stdlib/builtin/lv_string_builtin.c ****     }
 162:Lib/lvgl/src/stdlib/builtin/lv_string_builtin.c ****     else {
 163:Lib/lvgl/src/stdlib/builtin/lv_string_builtin.c ****         char * tmp = (char *)dst;
 164:Lib/lvgl/src/stdlib/builtin/lv_string_builtin.c ****         char * s   = (char *)src;
 165:Lib/lvgl/src/stdlib/builtin/lv_string_builtin.c **** 
 166:Lib/lvgl/src/stdlib/builtin/lv_string_builtin.c ****         while(len--) {
 167:Lib/lvgl/src/stdlib/builtin/lv_string_builtin.c ****             *tmp++ = *s++;
 168:Lib/lvgl/src/stdlib/builtin/lv_string_builtin.c ****         }
 169:Lib/lvgl/src/stdlib/builtin/lv_string_builtin.c ****     }
 170:Lib/lvgl/src/stdlib/builtin/lv_string_builtin.c **** 
 171:Lib/lvgl/src/stdlib/builtin/lv_string_builtin.c ****     return dst;
 172:Lib/lvgl/src/stdlib/builtin/lv_string_builtin.c **** }
 649              		.loc 1 172 1 view .LVU264
 650 0020 08BD     		pop	{r3, pc}
 651              	.LVL100:
 652              	.L39:
 653              	.LBB3:
 159:Lib/lvgl/src/stdlib/builtin/lv_string_builtin.c ****             *tmp-- = *s--;
 654              		.loc 1 159 13 is_stmt 1 view .LVU265
 159:Lib/lvgl/src/stdlib/builtin/lv_string_builtin.c ****             *tmp-- = *s--;
 655              		.loc 1 159 22 is_stmt 0 view .LVU266
 656 0022 11F80129 		ldrb	r2, [r1], #-1	@ zero_extendqisi2
 657              	.LVL101:
 159:Lib/lvgl/src/stdlib/builtin/lv_string_builtin.c ****             *tmp-- = *s--;
 658              		.loc 1 159 20 view .LVU267
 659 0026 03F80129 		strb	r2, [r3], #-1
 660              	.LVL102:
 158:Lib/lvgl/src/stdlib/builtin/lv_string_builtin.c ****             *tmp-- = *s--;
 661              		.loc 1 158 18 view .LVU268
 662 002a 6246     		mov	r2, ip
 663              	.LVL103:
 664              	.L38:
 158:Lib/lvgl/src/stdlib/builtin/lv_string_builtin.c ****             *tmp-- = *s--;
 665              		.loc 1 158 15 is_stmt 1 view .LVU269
 158:Lib/lvgl/src/stdlib/builtin/lv_string_builtin.c ****             *tmp-- = *s--;
 666              		.loc 1 158 18 is_stmt 0 view .LVU270
 667 002c 02F1FF3C 		add	ip, r2, #-1
 668              	.LVL104:
 158:Lib/lvgl/src/stdlib/builtin/lv_string_builtin.c ****             *tmp-- = *s--;
 669              		.loc 1 158 15 view .LVU271
 670 0030 002A     		cmp	r2, #0
 671 0032 F6D1     		bne	.L39
 158:Lib/lvgl/src/stdlib/builtin/lv_string_builtin.c ****             *tmp-- = *s--;
 672              		.loc 1 158 15 view .LVU272
 673 0034 F4E7     		b	.L36
 674              	.LVL105:
 675              	.L40:
 158:Lib/lvgl/src/stdlib/builtin/lv_string_builtin.c ****             *tmp-- = *s--;
 676              		.loc 1 158 15 view .LVU273
 677              	.LBE3:
 678              	.LBB4:
 167:Lib/lvgl/src/stdlib/builtin/lv_string_builtin.c ****         }
 679              		.loc 1 167 13 is_stmt 1 view .LVU274
 167:Lib/lvgl/src/stdlib/builtin/lv_string_builtin.c ****         }
ARM GAS  C:\Users\Alex\AppData\Local\Temp\ccqVx2FS.s 			page 19


 680              		.loc 1 167 22 is_stmt 0 view .LVU275
 681 0036 11F8012B 		ldrb	r2, [r1], #1	@ zero_extendqisi2
 682              	.LVL106:
 167:Lib/lvgl/src/stdlib/builtin/lv_string_builtin.c ****         }
 683              		.loc 1 167 20 view .LVU276
 684 003a 03F8012B 		strb	r2, [r3], #1
 685              	.LVL107:
 166:Lib/lvgl/src/stdlib/builtin/lv_string_builtin.c ****             *tmp++ = *s++;
 686              		.loc 1 166 18 view .LVU277
 687 003e 6246     		mov	r2, ip
 688              	.LVL108:
 689              	.L37:
 166:Lib/lvgl/src/stdlib/builtin/lv_string_builtin.c ****             *tmp++ = *s++;
 690              		.loc 1 166 15 is_stmt 1 view .LVU278
 166:Lib/lvgl/src/stdlib/builtin/lv_string_builtin.c ****             *tmp++ = *s++;
 691              		.loc 1 166 18 is_stmt 0 view .LVU279
 692 0040 02F1FF3C 		add	ip, r2, #-1
 693              	.LVL109:
 166:Lib/lvgl/src/stdlib/builtin/lv_string_builtin.c ****             *tmp++ = *s++;
 694              		.loc 1 166 15 view .LVU280
 695 0044 002A     		cmp	r2, #0
 696 0046 F6D1     		bne	.L40
 697 0048 EAE7     		b	.L36
 698              	.LVL110:
 699              	.L41:
 163:Lib/lvgl/src/stdlib/builtin/lv_string_builtin.c ****         char * s   = (char *)src;
 700              		.loc 1 163 16 view .LVU281
 701 004a 0346     		mov	r3, r0
 702 004c F8E7     		b	.L37
 703              	.LBE4:
 704              		.cfi_endproc
 705              	.LFE5:
 707              		.section	.text.lv_strlen,"ax",%progbits
 708              		.align	1
 709              		.global	lv_strlen
 710              		.syntax unified
 711              		.thumb
 712              		.thumb_func
 714              	lv_strlen:
 715              	.LVL111:
 716              	.LFB6:
 173:Lib/lvgl/src/stdlib/builtin/lv_string_builtin.c **** 
 174:Lib/lvgl/src/stdlib/builtin/lv_string_builtin.c **** /* See https://en.cppreference.com/w/c/string/byte/strlen for reference */
 175:Lib/lvgl/src/stdlib/builtin/lv_string_builtin.c **** size_t lv_strlen(const char * str)
 176:Lib/lvgl/src/stdlib/builtin/lv_string_builtin.c **** {
 717              		.loc 1 176 1 is_stmt 1 view -0
 718              		.cfi_startproc
 719              		@ args = 0, pretend = 0, frame = 0
 720              		@ frame_needed = 0, uses_anonymous_args = 0
 721              		@ link register save eliminated.
 722              		.loc 1 176 1 is_stmt 0 view .LVU283
 723 0000 0246     		mov	r2, r0
 177:Lib/lvgl/src/stdlib/builtin/lv_string_builtin.c ****     size_t i = 0;
 724              		.loc 1 177 5 is_stmt 1 view .LVU284
 725              	.LVL112:
 178:Lib/lvgl/src/stdlib/builtin/lv_string_builtin.c ****     while(str[i]) i++;
 726              		.loc 1 178 5 view .LVU285
ARM GAS  C:\Users\Alex\AppData\Local\Temp\ccqVx2FS.s 			page 20


 177:Lib/lvgl/src/stdlib/builtin/lv_string_builtin.c ****     size_t i = 0;
 727              		.loc 1 177 12 is_stmt 0 view .LVU286
 728 0002 0020     		movs	r0, #0
 729              	.LVL113:
 730              		.loc 1 178 10 view .LVU287
 731 0004 00E0     		b	.L44
 732              	.LVL114:
 733              	.L45:
 734              		.loc 1 178 19 is_stmt 1 discriminator 2 view .LVU288
 735              		.loc 1 178 20 is_stmt 0 discriminator 2 view .LVU289
 736 0006 0130     		adds	r0, r0, #1
 737              	.LVL115:
 738              	.L44:
 739              		.loc 1 178 11 is_stmt 1 discriminator 1 view .LVU290
 740              		.loc 1 178 14 is_stmt 0 discriminator 1 view .LVU291
 741 0008 135C     		ldrb	r3, [r2, r0]	@ zero_extendqisi2
 742              		.loc 1 178 11 discriminator 1 view .LVU292
 743 000a 002B     		cmp	r3, #0
 744 000c FBD1     		bne	.L45
 179:Lib/lvgl/src/stdlib/builtin/lv_string_builtin.c **** 
 180:Lib/lvgl/src/stdlib/builtin/lv_string_builtin.c ****     return i;
 745              		.loc 1 180 5 is_stmt 1 view .LVU293
 181:Lib/lvgl/src/stdlib/builtin/lv_string_builtin.c **** }
 746              		.loc 1 181 1 is_stmt 0 view .LVU294
 747 000e 7047     		bx	lr
 748              		.cfi_endproc
 749              	.LFE6:
 751              		.section	.text.lv_strncpy,"ax",%progbits
 752              		.align	1
 753              		.global	lv_strncpy
 754              		.syntax unified
 755              		.thumb
 756              		.thumb_func
 758              	lv_strncpy:
 759              	.LVL116:
 760              	.LFB7:
 182:Lib/lvgl/src/stdlib/builtin/lv_string_builtin.c **** 
 183:Lib/lvgl/src/stdlib/builtin/lv_string_builtin.c **** char * lv_strncpy(char * dst, const char * src, size_t dst_size)
 184:Lib/lvgl/src/stdlib/builtin/lv_string_builtin.c **** {
 761              		.loc 1 184 1 is_stmt 1 view -0
 762              		.cfi_startproc
 763              		@ args = 0, pretend = 0, frame = 0
 764              		@ frame_needed = 0, uses_anonymous_args = 0
 765              		@ link register save eliminated.
 766              		.loc 1 184 1 is_stmt 0 view .LVU296
 767 0000 10B4     		push	{r4}
 768              	.LCFI4:
 769              		.cfi_def_cfa_offset 4
 770              		.cfi_offset 4, -4
 185:Lib/lvgl/src/stdlib/builtin/lv_string_builtin.c ****     size_t i;
 771              		.loc 1 185 5 is_stmt 1 view .LVU297
 186:Lib/lvgl/src/stdlib/builtin/lv_string_builtin.c ****     for(i = 0; i < dst_size - 1 && src[i]; i++) {
 772              		.loc 1 186 5 view .LVU298
 773              	.LVL117:
 774              		.loc 1 186 11 is_stmt 0 view .LVU299
 775 0002 0023     		movs	r3, #0
 776              		.loc 1 186 5 view .LVU300
ARM GAS  C:\Users\Alex\AppData\Local\Temp\ccqVx2FS.s 			page 21


 777 0004 01E0     		b	.L47
 778              	.LVL118:
 779              	.L49:
 187:Lib/lvgl/src/stdlib/builtin/lv_string_builtin.c ****         dst[i] = src[i];
 780              		.loc 1 187 9 is_stmt 1 discriminator 4 view .LVU301
 781              		.loc 1 187 16 is_stmt 0 discriminator 4 view .LVU302
 782 0006 C454     		strb	r4, [r0, r3]
 186:Lib/lvgl/src/stdlib/builtin/lv_string_builtin.c ****     for(i = 0; i < dst_size - 1 && src[i]; i++) {
 783              		.loc 1 186 45 is_stmt 1 discriminator 4 view .LVU303
 784 0008 0133     		adds	r3, r3, #1
 785              	.LVL119:
 786              	.L47:
 186:Lib/lvgl/src/stdlib/builtin/lv_string_builtin.c ****     for(i = 0; i < dst_size - 1 && src[i]; i++) {
 787              		.loc 1 186 33 discriminator 1 view .LVU304
 186:Lib/lvgl/src/stdlib/builtin/lv_string_builtin.c ****     for(i = 0; i < dst_size - 1 && src[i]; i++) {
 788              		.loc 1 186 29 is_stmt 0 discriminator 1 view .LVU305
 789 000a 541E     		subs	r4, r2, #1
 186:Lib/lvgl/src/stdlib/builtin/lv_string_builtin.c ****     for(i = 0; i < dst_size - 1 && src[i]; i++) {
 790              		.loc 1 186 33 discriminator 1 view .LVU306
 791 000c 9C42     		cmp	r4, r3
 792 000e 02D9     		bls	.L48
 186:Lib/lvgl/src/stdlib/builtin/lv_string_builtin.c ****     for(i = 0; i < dst_size - 1 && src[i]; i++) {
 793              		.loc 1 186 39 discriminator 3 view .LVU307
 794 0010 CC5C     		ldrb	r4, [r1, r3]	@ zero_extendqisi2
 186:Lib/lvgl/src/stdlib/builtin/lv_string_builtin.c ****     for(i = 0; i < dst_size - 1 && src[i]; i++) {
 795              		.loc 1 186 33 discriminator 3 view .LVU308
 796 0012 002C     		cmp	r4, #0
 797 0014 F7D1     		bne	.L49
 798              	.L48:
 188:Lib/lvgl/src/stdlib/builtin/lv_string_builtin.c ****     }
 189:Lib/lvgl/src/stdlib/builtin/lv_string_builtin.c ****     dst[i] = '\0';
 799              		.loc 1 189 5 is_stmt 1 view .LVU309
 800              		.loc 1 189 12 is_stmt 0 view .LVU310
 801 0016 0022     		movs	r2, #0
 802              	.LVL120:
 803              		.loc 1 189 12 view .LVU311
 804 0018 C254     		strb	r2, [r0, r3]
 190:Lib/lvgl/src/stdlib/builtin/lv_string_builtin.c ****     return dst;
 805              		.loc 1 190 5 is_stmt 1 view .LVU312
 191:Lib/lvgl/src/stdlib/builtin/lv_string_builtin.c **** }
 806              		.loc 1 191 1 is_stmt 0 view .LVU313
 807 001a 5DF8044B 		ldr	r4, [sp], #4
 808              	.LCFI5:
 809              		.cfi_restore 4
 810              		.cfi_def_cfa_offset 0
 811 001e 7047     		bx	lr
 812              		.cfi_endproc
 813              	.LFE7:
 815              		.section	.text.lv_strcpy,"ax",%progbits
 816              		.align	1
 817              		.global	lv_strcpy
 818              		.syntax unified
 819              		.thumb
 820              		.thumb_func
 822              	lv_strcpy:
 823              	.LVL121:
 824              	.LFB8:
ARM GAS  C:\Users\Alex\AppData\Local\Temp\ccqVx2FS.s 			page 22


 192:Lib/lvgl/src/stdlib/builtin/lv_string_builtin.c **** 
 193:Lib/lvgl/src/stdlib/builtin/lv_string_builtin.c **** char * lv_strcpy(char * dst, const char * src)
 194:Lib/lvgl/src/stdlib/builtin/lv_string_builtin.c **** {
 825              		.loc 1 194 1 is_stmt 1 view -0
 826              		.cfi_startproc
 827              		@ args = 0, pretend = 0, frame = 0
 828              		@ frame_needed = 0, uses_anonymous_args = 0
 829              		@ link register save eliminated.
 195:Lib/lvgl/src/stdlib/builtin/lv_string_builtin.c ****     char * tmp = dst;
 830              		.loc 1 195 5 view .LVU315
 196:Lib/lvgl/src/stdlib/builtin/lv_string_builtin.c ****     while((*dst++ = *src++) != '\0');
 831              		.loc 1 196 5 view .LVU316
 832              		.loc 1 196 10 is_stmt 0 view .LVU317
 833 0000 8446     		mov	ip, r0
 834              	.LVL122:
 835              	.L52:
 836              		.loc 1 196 29 is_stmt 1 discriminator 1 view .LVU318
 837              		.loc 1 196 21 is_stmt 0 discriminator 1 view .LVU319
 838 0002 0A78     		ldrb	r2, [r1]	@ zero_extendqisi2
 839 0004 0131     		adds	r1, r1, #1
 840              	.LVL123:
 841              		.loc 1 196 19 discriminator 1 view .LVU320
 842 0006 8CF80020 		strb	r2, [ip]
 843 000a 0CF1010C 		add	ip, ip, #1
 844              	.LVL124:
 845              		.loc 1 196 29 discriminator 1 view .LVU321
 846 000e 002A     		cmp	r2, #0
 847 0010 F7D1     		bne	.L52
 197:Lib/lvgl/src/stdlib/builtin/lv_string_builtin.c ****     return tmp;
 848              		.loc 1 197 5 is_stmt 1 view .LVU322
 198:Lib/lvgl/src/stdlib/builtin/lv_string_builtin.c **** }
 849              		.loc 1 198 1 is_stmt 0 view .LVU323
 850 0012 7047     		bx	lr
 851              		.cfi_endproc
 852              	.LFE8:
 854              		.section	.text.lv_strcmp,"ax",%progbits
 855              		.align	1
 856              		.global	lv_strcmp
 857              		.syntax unified
 858              		.thumb
 859              		.thumb_func
 861              	lv_strcmp:
 862              	.LVL125:
 863              	.LFB9:
 199:Lib/lvgl/src/stdlib/builtin/lv_string_builtin.c **** 
 200:Lib/lvgl/src/stdlib/builtin/lv_string_builtin.c **** int32_t lv_strcmp(const char * s1, const char * s2)
 201:Lib/lvgl/src/stdlib/builtin/lv_string_builtin.c **** {
 864              		.loc 1 201 1 is_stmt 1 view -0
 865              		.cfi_startproc
 866              		@ args = 0, pretend = 0, frame = 0
 867              		@ frame_needed = 0, uses_anonymous_args = 0
 868              		@ link register save eliminated.
 202:Lib/lvgl/src/stdlib/builtin/lv_string_builtin.c ****     while(*s1 && (*s1 == *s2)) {
 869              		.loc 1 202 5 view .LVU325
 870              		.loc 1 202 10 is_stmt 0 view .LVU326
 871 0000 01E0     		b	.L54
 872              	.L56:
ARM GAS  C:\Users\Alex\AppData\Local\Temp\ccqVx2FS.s 			page 23


 203:Lib/lvgl/src/stdlib/builtin/lv_string_builtin.c ****         s1++;
 873              		.loc 1 203 9 is_stmt 1 view .LVU327
 874              		.loc 1 203 11 is_stmt 0 view .LVU328
 875 0002 0130     		adds	r0, r0, #1
 876              	.LVL126:
 204:Lib/lvgl/src/stdlib/builtin/lv_string_builtin.c ****         s2++;
 877              		.loc 1 204 9 is_stmt 1 view .LVU329
 878              		.loc 1 204 11 is_stmt 0 view .LVU330
 879 0004 0131     		adds	r1, r1, #1
 880              	.LVL127:
 881              	.L54:
 202:Lib/lvgl/src/stdlib/builtin/lv_string_builtin.c ****     while(*s1 && (*s1 == *s2)) {
 882              		.loc 1 202 15 is_stmt 1 view .LVU331
 202:Lib/lvgl/src/stdlib/builtin/lv_string_builtin.c ****     while(*s1 && (*s1 == *s2)) {
 883              		.loc 1 202 11 is_stmt 0 view .LVU332
 884 0006 0378     		ldrb	r3, [r0]	@ zero_extendqisi2
 202:Lib/lvgl/src/stdlib/builtin/lv_string_builtin.c ****     while(*s1 && (*s1 == *s2)) {
 885              		.loc 1 202 15 view .LVU333
 886 0008 13B1     		cbz	r3, .L55
 202:Lib/lvgl/src/stdlib/builtin/lv_string_builtin.c ****     while(*s1 && (*s1 == *s2)) {
 887              		.loc 1 202 26 discriminator 1 view .LVU334
 888 000a 0A78     		ldrb	r2, [r1]	@ zero_extendqisi2
 202:Lib/lvgl/src/stdlib/builtin/lv_string_builtin.c ****     while(*s1 && (*s1 == *s2)) {
 889              		.loc 1 202 15 discriminator 1 view .LVU335
 890 000c 9342     		cmp	r3, r2
 891 000e F8D0     		beq	.L56
 892              	.L55:
 205:Lib/lvgl/src/stdlib/builtin/lv_string_builtin.c ****     }
 206:Lib/lvgl/src/stdlib/builtin/lv_string_builtin.c ****     return *(const unsigned char *)s1 - *(const unsigned char *)s2;
 893              		.loc 1 206 5 is_stmt 1 view .LVU336
 894              		.loc 1 206 41 is_stmt 0 view .LVU337
 895 0010 0878     		ldrb	r0, [r1]	@ zero_extendqisi2
 896              	.LVL128:
 207:Lib/lvgl/src/stdlib/builtin/lv_string_builtin.c **** }
 897              		.loc 1 207 1 view .LVU338
 898 0012 181A     		subs	r0, r3, r0
 899 0014 7047     		bx	lr
 900              		.cfi_endproc
 901              	.LFE9:
 903              		.section	.text.lv_strdup,"ax",%progbits
 904              		.align	1
 905              		.global	lv_strdup
 906              		.syntax unified
 907              		.thumb
 908              		.thumb_func
 910              	lv_strdup:
 911              	.LVL129:
 912              	.LFB10:
 208:Lib/lvgl/src/stdlib/builtin/lv_string_builtin.c **** 
 209:Lib/lvgl/src/stdlib/builtin/lv_string_builtin.c **** char * lv_strdup(const char * src)
 210:Lib/lvgl/src/stdlib/builtin/lv_string_builtin.c **** {
 913              		.loc 1 210 1 is_stmt 1 view -0
 914              		.cfi_startproc
 915              		@ args = 0, pretend = 0, frame = 0
 916              		@ frame_needed = 0, uses_anonymous_args = 0
 917              		.loc 1 210 1 is_stmt 0 view .LVU340
 918 0000 70B5     		push	{r4, r5, r6, lr}
ARM GAS  C:\Users\Alex\AppData\Local\Temp\ccqVx2FS.s 			page 24


 919              	.LCFI6:
 920              		.cfi_def_cfa_offset 16
 921              		.cfi_offset 4, -16
 922              		.cfi_offset 5, -12
 923              		.cfi_offset 6, -8
 924              		.cfi_offset 14, -4
 925 0002 0546     		mov	r5, r0
 211:Lib/lvgl/src/stdlib/builtin/lv_string_builtin.c ****     size_t len = lv_strlen(src) + 1;
 926              		.loc 1 211 5 is_stmt 1 view .LVU341
 927              		.loc 1 211 18 is_stmt 0 view .LVU342
 928 0004 FFF7FEFF 		bl	lv_strlen
 929              	.LVL130:
 930              		.loc 1 211 12 view .LVU343
 931 0008 441C     		adds	r4, r0, #1
 932              	.LVL131:
 212:Lib/lvgl/src/stdlib/builtin/lv_string_builtin.c ****     char * dst = lv_malloc(len);
 933              		.loc 1 212 5 is_stmt 1 view .LVU344
 934              		.loc 1 212 18 is_stmt 0 view .LVU345
 935 000a 2046     		mov	r0, r4
 936 000c FFF7FEFF 		bl	lv_malloc
 937              	.LVL132:
 213:Lib/lvgl/src/stdlib/builtin/lv_string_builtin.c ****     if(dst == NULL) return NULL;
 938              		.loc 1 213 5 is_stmt 1 view .LVU346
 939              		.loc 1 213 7 is_stmt 0 view .LVU347
 940 0010 0646     		mov	r6, r0
 941 0012 18B1     		cbz	r0, .L57
 214:Lib/lvgl/src/stdlib/builtin/lv_string_builtin.c **** 
 215:Lib/lvgl/src/stdlib/builtin/lv_string_builtin.c ****     lv_memcpy(dst, src, len); /*do memcpy is faster than strncpy when length is known*/
 942              		.loc 1 215 5 is_stmt 1 view .LVU348
 943 0014 2246     		mov	r2, r4
 944 0016 2946     		mov	r1, r5
 945 0018 FFF7FEFF 		bl	lv_memcpy
 946              	.LVL133:
 216:Lib/lvgl/src/stdlib/builtin/lv_string_builtin.c ****     return dst;
 947              		.loc 1 216 5 view .LVU349
 948              	.L57:
 217:Lib/lvgl/src/stdlib/builtin/lv_string_builtin.c **** }
 949              		.loc 1 217 1 is_stmt 0 view .LVU350
 950 001c 3046     		mov	r0, r6
 951 001e 70BD     		pop	{r4, r5, r6, pc}
 952              		.loc 1 217 1 view .LVU351
 953              		.cfi_endproc
 954              	.LFE10:
 956              		.text
 957              	.Letext0:
 958              		.file 2 "e:\\programms\\gnu_mcu_eclipse\\toolchain\\arm-gnu-toolchain-12.2.mpacbti-bet1-mingw-w64-
 959              		.file 3 "e:\\programms\\gnu_mcu_eclipse\\toolchain\\arm-gnu-toolchain-12.2.mpacbti-bet1-mingw-w64-
 960              		.file 4 "Lib/lvgl/src/stdlib/builtin/../../misc/lv_types.h"
 961              		.file 5 "e:\\programms\\gnu_mcu_eclipse\\toolchain\\arm-gnu-toolchain-12.2.mpacbti-bet1-mingw-w64-
 962              		.file 6 "Lib/lvgl/src/stdlib/builtin/../../misc/../stdlib/lv_mem.h"
ARM GAS  C:\Users\Alex\AppData\Local\Temp\ccqVx2FS.s 			page 25

