ARM GAS  C:\Users\Alex\AppData\Local\Temp\ccl5l8V8.s 			page 1


   1              		.cpu cortex-m4
   2              		.arch armv7e-m
   3              		.fpu fpv4-sp-d16
   4              		.eabi_attribute 27, 1
   5              		.eabi_attribute 28, 1
   6              		.eabi_attribute 20, 1
   7              		.eabi_attribute 21, 1
   8              		.eabi_attribute 23, 3
   9              		.eabi_attribute 24, 1
  10              		.eabi_attribute 25, 1
  11              		.eabi_attribute 26, 1
  12              		.eabi_attribute 30, 1
  13              		.eabi_attribute 34, 1
  14              		.eabi_attribute 18, 4
  15              		.file	"lv_style_gen.c"
  16              		.text
  17              	.Ltext0:
  18              		.cfi_sections	.debug_frame
  19              		.file 1 "Lib/lvgl/src/misc/lv_style_gen.c"
  20              		.section	.text.lv_style_set_width,"ax",%progbits
  21              		.align	1
  22              		.global	lv_style_set_width
  23              		.syntax unified
  24              		.thumb
  25              		.thumb_func
  27              	lv_style_set_width:
  28              	.LVL0:
  29              	.LFB82:
   1:Lib/lvgl/src/misc/lv_style_gen.c **** 
   2:Lib/lvgl/src/misc/lv_style_gen.c **** /*
   3:Lib/lvgl/src/misc/lv_style_gen.c ****  **********************************************************************
   4:Lib/lvgl/src/misc/lv_style_gen.c ****  *                            DO NOT EDIT
   5:Lib/lvgl/src/misc/lv_style_gen.c ****  * This file is automatically generated by "style_api_gen.py"
   6:Lib/lvgl/src/misc/lv_style_gen.c ****  **********************************************************************
   7:Lib/lvgl/src/misc/lv_style_gen.c ****  */
   8:Lib/lvgl/src/misc/lv_style_gen.c **** 
   9:Lib/lvgl/src/misc/lv_style_gen.c **** #include "lv_style.h"
  10:Lib/lvgl/src/misc/lv_style_gen.c **** 
  11:Lib/lvgl/src/misc/lv_style_gen.c **** void lv_style_set_width(lv_style_t * style, int32_t value)
  12:Lib/lvgl/src/misc/lv_style_gen.c **** {
  30              		.loc 1 12 1 view -0
  31              		.cfi_startproc
  32              		@ args = 0, pretend = 0, frame = 8
  33              		@ frame_needed = 0, uses_anonymous_args = 0
  34              		.loc 1 12 1 is_stmt 0 view .LVU1
  35 0000 00B5     		push	{lr}
  36              	.LCFI0:
  37              		.cfi_def_cfa_offset 4
  38              		.cfi_offset 14, -4
  39 0002 83B0     		sub	sp, sp, #12
  40              	.LCFI1:
  41              		.cfi_def_cfa_offset 16
  42 0004 0A46     		mov	r2, r1
  13:Lib/lvgl/src/misc/lv_style_gen.c ****     lv_style_value_t v = {
  43              		.loc 1 13 5 is_stmt 1 view .LVU2
  44              		.loc 1 13 22 is_stmt 0 view .LVU3
  45 0006 0191     		str	r1, [sp, #4]
ARM GAS  C:\Users\Alex\AppData\Local\Temp\ccl5l8V8.s 			page 2


  14:Lib/lvgl/src/misc/lv_style_gen.c ****         .num = (int32_t)value
  15:Lib/lvgl/src/misc/lv_style_gen.c ****     };
  16:Lib/lvgl/src/misc/lv_style_gen.c ****     lv_style_set_prop(style, LV_STYLE_WIDTH, v);
  46              		.loc 1 16 5 is_stmt 1 view .LVU4
  47 0008 0121     		movs	r1, #1
  48              	.LVL1:
  49              		.loc 1 16 5 is_stmt 0 view .LVU5
  50 000a FFF7FEFF 		bl	lv_style_set_prop
  51              	.LVL2:
  17:Lib/lvgl/src/misc/lv_style_gen.c **** }
  52              		.loc 1 17 1 view .LVU6
  53 000e 03B0     		add	sp, sp, #12
  54              	.LCFI2:
  55              		.cfi_def_cfa_offset 4
  56              		@ sp needed
  57 0010 5DF804FB 		ldr	pc, [sp], #4
  58              		.loc 1 17 1 view .LVU7
  59              		.cfi_endproc
  60              	.LFE82:
  62              		.section	.text.lv_style_set_min_width,"ax",%progbits
  63              		.align	1
  64              		.global	lv_style_set_min_width
  65              		.syntax unified
  66              		.thumb
  67              		.thumb_func
  69              	lv_style_set_min_width:
  70              	.LVL3:
  71              	.LFB83:
  18:Lib/lvgl/src/misc/lv_style_gen.c **** 
  19:Lib/lvgl/src/misc/lv_style_gen.c **** const lv_style_prop_t _lv_style_const_prop_id_WIDTH = LV_STYLE_WIDTH;
  20:Lib/lvgl/src/misc/lv_style_gen.c **** 
  21:Lib/lvgl/src/misc/lv_style_gen.c **** void lv_style_set_min_width(lv_style_t * style, int32_t value)
  22:Lib/lvgl/src/misc/lv_style_gen.c **** {
  72              		.loc 1 22 1 is_stmt 1 view -0
  73              		.cfi_startproc
  74              		@ args = 0, pretend = 0, frame = 8
  75              		@ frame_needed = 0, uses_anonymous_args = 0
  76              		.loc 1 22 1 is_stmt 0 view .LVU9
  77 0000 00B5     		push	{lr}
  78              	.LCFI3:
  79              		.cfi_def_cfa_offset 4
  80              		.cfi_offset 14, -4
  81 0002 83B0     		sub	sp, sp, #12
  82              	.LCFI4:
  83              		.cfi_def_cfa_offset 16
  84 0004 0A46     		mov	r2, r1
  23:Lib/lvgl/src/misc/lv_style_gen.c ****     lv_style_value_t v = {
  85              		.loc 1 23 5 is_stmt 1 view .LVU10
  86              		.loc 1 23 22 is_stmt 0 view .LVU11
  87 0006 0191     		str	r1, [sp, #4]
  24:Lib/lvgl/src/misc/lv_style_gen.c ****         .num = (int32_t)value
  25:Lib/lvgl/src/misc/lv_style_gen.c ****     };
  26:Lib/lvgl/src/misc/lv_style_gen.c ****     lv_style_set_prop(style, LV_STYLE_MIN_WIDTH, v);
  88              		.loc 1 26 5 is_stmt 1 view .LVU12
  89 0008 0421     		movs	r1, #4
  90              	.LVL4:
  91              		.loc 1 26 5 is_stmt 0 view .LVU13
ARM GAS  C:\Users\Alex\AppData\Local\Temp\ccl5l8V8.s 			page 3


  92 000a FFF7FEFF 		bl	lv_style_set_prop
  93              	.LVL5:
  27:Lib/lvgl/src/misc/lv_style_gen.c **** }
  94              		.loc 1 27 1 view .LVU14
  95 000e 03B0     		add	sp, sp, #12
  96              	.LCFI5:
  97              		.cfi_def_cfa_offset 4
  98              		@ sp needed
  99 0010 5DF804FB 		ldr	pc, [sp], #4
 100              		.loc 1 27 1 view .LVU15
 101              		.cfi_endproc
 102              	.LFE83:
 104              		.section	.text.lv_style_set_max_width,"ax",%progbits
 105              		.align	1
 106              		.global	lv_style_set_max_width
 107              		.syntax unified
 108              		.thumb
 109              		.thumb_func
 111              	lv_style_set_max_width:
 112              	.LVL6:
 113              	.LFB84:
  28:Lib/lvgl/src/misc/lv_style_gen.c **** 
  29:Lib/lvgl/src/misc/lv_style_gen.c **** const lv_style_prop_t _lv_style_const_prop_id_MIN_WIDTH = LV_STYLE_MIN_WIDTH;
  30:Lib/lvgl/src/misc/lv_style_gen.c **** 
  31:Lib/lvgl/src/misc/lv_style_gen.c **** void lv_style_set_max_width(lv_style_t * style, int32_t value)
  32:Lib/lvgl/src/misc/lv_style_gen.c **** {
 114              		.loc 1 32 1 is_stmt 1 view -0
 115              		.cfi_startproc
 116              		@ args = 0, pretend = 0, frame = 8
 117              		@ frame_needed = 0, uses_anonymous_args = 0
 118              		.loc 1 32 1 is_stmt 0 view .LVU17
 119 0000 00B5     		push	{lr}
 120              	.LCFI6:
 121              		.cfi_def_cfa_offset 4
 122              		.cfi_offset 14, -4
 123 0002 83B0     		sub	sp, sp, #12
 124              	.LCFI7:
 125              		.cfi_def_cfa_offset 16
 126 0004 0A46     		mov	r2, r1
  33:Lib/lvgl/src/misc/lv_style_gen.c ****     lv_style_value_t v = {
 127              		.loc 1 33 5 is_stmt 1 view .LVU18
 128              		.loc 1 33 22 is_stmt 0 view .LVU19
 129 0006 0191     		str	r1, [sp, #4]
  34:Lib/lvgl/src/misc/lv_style_gen.c ****         .num = (int32_t)value
  35:Lib/lvgl/src/misc/lv_style_gen.c ****     };
  36:Lib/lvgl/src/misc/lv_style_gen.c ****     lv_style_set_prop(style, LV_STYLE_MAX_WIDTH, v);
 130              		.loc 1 36 5 is_stmt 1 view .LVU20
 131 0008 0521     		movs	r1, #5
 132              	.LVL7:
 133              		.loc 1 36 5 is_stmt 0 view .LVU21
 134 000a FFF7FEFF 		bl	lv_style_set_prop
 135              	.LVL8:
  37:Lib/lvgl/src/misc/lv_style_gen.c **** }
 136              		.loc 1 37 1 view .LVU22
 137 000e 03B0     		add	sp, sp, #12
 138              	.LCFI8:
 139              		.cfi_def_cfa_offset 4
ARM GAS  C:\Users\Alex\AppData\Local\Temp\ccl5l8V8.s 			page 4


 140              		@ sp needed
 141 0010 5DF804FB 		ldr	pc, [sp], #4
 142              		.loc 1 37 1 view .LVU23
 143              		.cfi_endproc
 144              	.LFE84:
 146              		.section	.text.lv_style_set_height,"ax",%progbits
 147              		.align	1
 148              		.global	lv_style_set_height
 149              		.syntax unified
 150              		.thumb
 151              		.thumb_func
 153              	lv_style_set_height:
 154              	.LVL9:
 155              	.LFB85:
  38:Lib/lvgl/src/misc/lv_style_gen.c **** 
  39:Lib/lvgl/src/misc/lv_style_gen.c **** const lv_style_prop_t _lv_style_const_prop_id_MAX_WIDTH = LV_STYLE_MAX_WIDTH;
  40:Lib/lvgl/src/misc/lv_style_gen.c **** 
  41:Lib/lvgl/src/misc/lv_style_gen.c **** void lv_style_set_height(lv_style_t * style, int32_t value)
  42:Lib/lvgl/src/misc/lv_style_gen.c **** {
 156              		.loc 1 42 1 is_stmt 1 view -0
 157              		.cfi_startproc
 158              		@ args = 0, pretend = 0, frame = 8
 159              		@ frame_needed = 0, uses_anonymous_args = 0
 160              		.loc 1 42 1 is_stmt 0 view .LVU25
 161 0000 00B5     		push	{lr}
 162              	.LCFI9:
 163              		.cfi_def_cfa_offset 4
 164              		.cfi_offset 14, -4
 165 0002 83B0     		sub	sp, sp, #12
 166              	.LCFI10:
 167              		.cfi_def_cfa_offset 16
 168 0004 0A46     		mov	r2, r1
  43:Lib/lvgl/src/misc/lv_style_gen.c ****     lv_style_value_t v = {
 169              		.loc 1 43 5 is_stmt 1 view .LVU26
 170              		.loc 1 43 22 is_stmt 0 view .LVU27
 171 0006 0191     		str	r1, [sp, #4]
  44:Lib/lvgl/src/misc/lv_style_gen.c ****         .num = (int32_t)value
  45:Lib/lvgl/src/misc/lv_style_gen.c ****     };
  46:Lib/lvgl/src/misc/lv_style_gen.c ****     lv_style_set_prop(style, LV_STYLE_HEIGHT, v);
 172              		.loc 1 46 5 is_stmt 1 view .LVU28
 173 0008 0221     		movs	r1, #2
 174              	.LVL10:
 175              		.loc 1 46 5 is_stmt 0 view .LVU29
 176 000a FFF7FEFF 		bl	lv_style_set_prop
 177              	.LVL11:
  47:Lib/lvgl/src/misc/lv_style_gen.c **** }
 178              		.loc 1 47 1 view .LVU30
 179 000e 03B0     		add	sp, sp, #12
 180              	.LCFI11:
 181              		.cfi_def_cfa_offset 4
 182              		@ sp needed
 183 0010 5DF804FB 		ldr	pc, [sp], #4
 184              		.loc 1 47 1 view .LVU31
 185              		.cfi_endproc
 186              	.LFE85:
 188              		.section	.text.lv_style_set_min_height,"ax",%progbits
 189              		.align	1
ARM GAS  C:\Users\Alex\AppData\Local\Temp\ccl5l8V8.s 			page 5


 190              		.global	lv_style_set_min_height
 191              		.syntax unified
 192              		.thumb
 193              		.thumb_func
 195              	lv_style_set_min_height:
 196              	.LVL12:
 197              	.LFB86:
  48:Lib/lvgl/src/misc/lv_style_gen.c **** 
  49:Lib/lvgl/src/misc/lv_style_gen.c **** const lv_style_prop_t _lv_style_const_prop_id_HEIGHT = LV_STYLE_HEIGHT;
  50:Lib/lvgl/src/misc/lv_style_gen.c **** 
  51:Lib/lvgl/src/misc/lv_style_gen.c **** void lv_style_set_min_height(lv_style_t * style, int32_t value)
  52:Lib/lvgl/src/misc/lv_style_gen.c **** {
 198              		.loc 1 52 1 is_stmt 1 view -0
 199              		.cfi_startproc
 200              		@ args = 0, pretend = 0, frame = 8
 201              		@ frame_needed = 0, uses_anonymous_args = 0
 202              		.loc 1 52 1 is_stmt 0 view .LVU33
 203 0000 00B5     		push	{lr}
 204              	.LCFI12:
 205              		.cfi_def_cfa_offset 4
 206              		.cfi_offset 14, -4
 207 0002 83B0     		sub	sp, sp, #12
 208              	.LCFI13:
 209              		.cfi_def_cfa_offset 16
 210 0004 0A46     		mov	r2, r1
  53:Lib/lvgl/src/misc/lv_style_gen.c ****     lv_style_value_t v = {
 211              		.loc 1 53 5 is_stmt 1 view .LVU34
 212              		.loc 1 53 22 is_stmt 0 view .LVU35
 213 0006 0191     		str	r1, [sp, #4]
  54:Lib/lvgl/src/misc/lv_style_gen.c ****         .num = (int32_t)value
  55:Lib/lvgl/src/misc/lv_style_gen.c ****     };
  56:Lib/lvgl/src/misc/lv_style_gen.c ****     lv_style_set_prop(style, LV_STYLE_MIN_HEIGHT, v);
 214              		.loc 1 56 5 is_stmt 1 view .LVU36
 215 0008 0621     		movs	r1, #6
 216              	.LVL13:
 217              		.loc 1 56 5 is_stmt 0 view .LVU37
 218 000a FFF7FEFF 		bl	lv_style_set_prop
 219              	.LVL14:
  57:Lib/lvgl/src/misc/lv_style_gen.c **** }
 220              		.loc 1 57 1 view .LVU38
 221 000e 03B0     		add	sp, sp, #12
 222              	.LCFI14:
 223              		.cfi_def_cfa_offset 4
 224              		@ sp needed
 225 0010 5DF804FB 		ldr	pc, [sp], #4
 226              		.loc 1 57 1 view .LVU39
 227              		.cfi_endproc
 228              	.LFE86:
 230              		.section	.text.lv_style_set_max_height,"ax",%progbits
 231              		.align	1
 232              		.global	lv_style_set_max_height
 233              		.syntax unified
 234              		.thumb
 235              		.thumb_func
 237              	lv_style_set_max_height:
 238              	.LVL15:
 239              	.LFB87:
ARM GAS  C:\Users\Alex\AppData\Local\Temp\ccl5l8V8.s 			page 6


  58:Lib/lvgl/src/misc/lv_style_gen.c **** 
  59:Lib/lvgl/src/misc/lv_style_gen.c **** const lv_style_prop_t _lv_style_const_prop_id_MIN_HEIGHT = LV_STYLE_MIN_HEIGHT;
  60:Lib/lvgl/src/misc/lv_style_gen.c **** 
  61:Lib/lvgl/src/misc/lv_style_gen.c **** void lv_style_set_max_height(lv_style_t * style, int32_t value)
  62:Lib/lvgl/src/misc/lv_style_gen.c **** {
 240              		.loc 1 62 1 is_stmt 1 view -0
 241              		.cfi_startproc
 242              		@ args = 0, pretend = 0, frame = 8
 243              		@ frame_needed = 0, uses_anonymous_args = 0
 244              		.loc 1 62 1 is_stmt 0 view .LVU41
 245 0000 00B5     		push	{lr}
 246              	.LCFI15:
 247              		.cfi_def_cfa_offset 4
 248              		.cfi_offset 14, -4
 249 0002 83B0     		sub	sp, sp, #12
 250              	.LCFI16:
 251              		.cfi_def_cfa_offset 16
 252 0004 0A46     		mov	r2, r1
  63:Lib/lvgl/src/misc/lv_style_gen.c ****     lv_style_value_t v = {
 253              		.loc 1 63 5 is_stmt 1 view .LVU42
 254              		.loc 1 63 22 is_stmt 0 view .LVU43
 255 0006 0191     		str	r1, [sp, #4]
  64:Lib/lvgl/src/misc/lv_style_gen.c ****         .num = (int32_t)value
  65:Lib/lvgl/src/misc/lv_style_gen.c ****     };
  66:Lib/lvgl/src/misc/lv_style_gen.c ****     lv_style_set_prop(style, LV_STYLE_MAX_HEIGHT, v);
 256              		.loc 1 66 5 is_stmt 1 view .LVU44
 257 0008 0721     		movs	r1, #7
 258              	.LVL16:
 259              		.loc 1 66 5 is_stmt 0 view .LVU45
 260 000a FFF7FEFF 		bl	lv_style_set_prop
 261              	.LVL17:
  67:Lib/lvgl/src/misc/lv_style_gen.c **** }
 262              		.loc 1 67 1 view .LVU46
 263 000e 03B0     		add	sp, sp, #12
 264              	.LCFI17:
 265              		.cfi_def_cfa_offset 4
 266              		@ sp needed
 267 0010 5DF804FB 		ldr	pc, [sp], #4
 268              		.loc 1 67 1 view .LVU47
 269              		.cfi_endproc
 270              	.LFE87:
 272              		.section	.text.lv_style_set_length,"ax",%progbits
 273              		.align	1
 274              		.global	lv_style_set_length
 275              		.syntax unified
 276              		.thumb
 277              		.thumb_func
 279              	lv_style_set_length:
 280              	.LVL18:
 281              	.LFB88:
  68:Lib/lvgl/src/misc/lv_style_gen.c **** 
  69:Lib/lvgl/src/misc/lv_style_gen.c **** const lv_style_prop_t _lv_style_const_prop_id_MAX_HEIGHT = LV_STYLE_MAX_HEIGHT;
  70:Lib/lvgl/src/misc/lv_style_gen.c **** 
  71:Lib/lvgl/src/misc/lv_style_gen.c **** void lv_style_set_length(lv_style_t * style, int32_t value)
  72:Lib/lvgl/src/misc/lv_style_gen.c **** {
 282              		.loc 1 72 1 is_stmt 1 view -0
 283              		.cfi_startproc
ARM GAS  C:\Users\Alex\AppData\Local\Temp\ccl5l8V8.s 			page 7


 284              		@ args = 0, pretend = 0, frame = 8
 285              		@ frame_needed = 0, uses_anonymous_args = 0
 286              		.loc 1 72 1 is_stmt 0 view .LVU49
 287 0000 00B5     		push	{lr}
 288              	.LCFI18:
 289              		.cfi_def_cfa_offset 4
 290              		.cfi_offset 14, -4
 291 0002 83B0     		sub	sp, sp, #12
 292              	.LCFI19:
 293              		.cfi_def_cfa_offset 16
 294 0004 0A46     		mov	r2, r1
  73:Lib/lvgl/src/misc/lv_style_gen.c ****     lv_style_value_t v = {
 295              		.loc 1 73 5 is_stmt 1 view .LVU50
 296              		.loc 1 73 22 is_stmt 0 view .LVU51
 297 0006 0191     		str	r1, [sp, #4]
  74:Lib/lvgl/src/misc/lv_style_gen.c ****         .num = (int32_t)value
  75:Lib/lvgl/src/misc/lv_style_gen.c ****     };
  76:Lib/lvgl/src/misc/lv_style_gen.c ****     lv_style_set_prop(style, LV_STYLE_LENGTH, v);
 298              		.loc 1 76 5 is_stmt 1 view .LVU52
 299 0008 0321     		movs	r1, #3
 300              	.LVL19:
 301              		.loc 1 76 5 is_stmt 0 view .LVU53
 302 000a FFF7FEFF 		bl	lv_style_set_prop
 303              	.LVL20:
  77:Lib/lvgl/src/misc/lv_style_gen.c **** }
 304              		.loc 1 77 1 view .LVU54
 305 000e 03B0     		add	sp, sp, #12
 306              	.LCFI20:
 307              		.cfi_def_cfa_offset 4
 308              		@ sp needed
 309 0010 5DF804FB 		ldr	pc, [sp], #4
 310              		.loc 1 77 1 view .LVU55
 311              		.cfi_endproc
 312              	.LFE88:
 314              		.section	.text.lv_style_set_x,"ax",%progbits
 315              		.align	1
 316              		.global	lv_style_set_x
 317              		.syntax unified
 318              		.thumb
 319              		.thumb_func
 321              	lv_style_set_x:
 322              	.LVL21:
 323              	.LFB89:
  78:Lib/lvgl/src/misc/lv_style_gen.c **** 
  79:Lib/lvgl/src/misc/lv_style_gen.c **** const lv_style_prop_t _lv_style_const_prop_id_LENGTH = LV_STYLE_LENGTH;
  80:Lib/lvgl/src/misc/lv_style_gen.c **** 
  81:Lib/lvgl/src/misc/lv_style_gen.c **** void lv_style_set_x(lv_style_t * style, int32_t value)
  82:Lib/lvgl/src/misc/lv_style_gen.c **** {
 324              		.loc 1 82 1 is_stmt 1 view -0
 325              		.cfi_startproc
 326              		@ args = 0, pretend = 0, frame = 8
 327              		@ frame_needed = 0, uses_anonymous_args = 0
 328              		.loc 1 82 1 is_stmt 0 view .LVU57
 329 0000 00B5     		push	{lr}
 330              	.LCFI21:
 331              		.cfi_def_cfa_offset 4
 332              		.cfi_offset 14, -4
ARM GAS  C:\Users\Alex\AppData\Local\Temp\ccl5l8V8.s 			page 8


 333 0002 83B0     		sub	sp, sp, #12
 334              	.LCFI22:
 335              		.cfi_def_cfa_offset 16
 336 0004 0A46     		mov	r2, r1
  83:Lib/lvgl/src/misc/lv_style_gen.c ****     lv_style_value_t v = {
 337              		.loc 1 83 5 is_stmt 1 view .LVU58
 338              		.loc 1 83 22 is_stmt 0 view .LVU59
 339 0006 0191     		str	r1, [sp, #4]
  84:Lib/lvgl/src/misc/lv_style_gen.c ****         .num = (int32_t)value
  85:Lib/lvgl/src/misc/lv_style_gen.c ****     };
  86:Lib/lvgl/src/misc/lv_style_gen.c ****     lv_style_set_prop(style, LV_STYLE_X, v);
 340              		.loc 1 86 5 is_stmt 1 view .LVU60
 341 0008 0821     		movs	r1, #8
 342              	.LVL22:
 343              		.loc 1 86 5 is_stmt 0 view .LVU61
 344 000a FFF7FEFF 		bl	lv_style_set_prop
 345              	.LVL23:
  87:Lib/lvgl/src/misc/lv_style_gen.c **** }
 346              		.loc 1 87 1 view .LVU62
 347 000e 03B0     		add	sp, sp, #12
 348              	.LCFI23:
 349              		.cfi_def_cfa_offset 4
 350              		@ sp needed
 351 0010 5DF804FB 		ldr	pc, [sp], #4
 352              		.loc 1 87 1 view .LVU63
 353              		.cfi_endproc
 354              	.LFE89:
 356              		.section	.text.lv_style_set_y,"ax",%progbits
 357              		.align	1
 358              		.global	lv_style_set_y
 359              		.syntax unified
 360              		.thumb
 361              		.thumb_func
 363              	lv_style_set_y:
 364              	.LVL24:
 365              	.LFB90:
  88:Lib/lvgl/src/misc/lv_style_gen.c **** 
  89:Lib/lvgl/src/misc/lv_style_gen.c **** const lv_style_prop_t _lv_style_const_prop_id_X = LV_STYLE_X;
  90:Lib/lvgl/src/misc/lv_style_gen.c **** 
  91:Lib/lvgl/src/misc/lv_style_gen.c **** void lv_style_set_y(lv_style_t * style, int32_t value)
  92:Lib/lvgl/src/misc/lv_style_gen.c **** {
 366              		.loc 1 92 1 is_stmt 1 view -0
 367              		.cfi_startproc
 368              		@ args = 0, pretend = 0, frame = 8
 369              		@ frame_needed = 0, uses_anonymous_args = 0
 370              		.loc 1 92 1 is_stmt 0 view .LVU65
 371 0000 00B5     		push	{lr}
 372              	.LCFI24:
 373              		.cfi_def_cfa_offset 4
 374              		.cfi_offset 14, -4
 375 0002 83B0     		sub	sp, sp, #12
 376              	.LCFI25:
 377              		.cfi_def_cfa_offset 16
 378 0004 0A46     		mov	r2, r1
  93:Lib/lvgl/src/misc/lv_style_gen.c ****     lv_style_value_t v = {
 379              		.loc 1 93 5 is_stmt 1 view .LVU66
 380              		.loc 1 93 22 is_stmt 0 view .LVU67
ARM GAS  C:\Users\Alex\AppData\Local\Temp\ccl5l8V8.s 			page 9


 381 0006 0191     		str	r1, [sp, #4]
  94:Lib/lvgl/src/misc/lv_style_gen.c ****         .num = (int32_t)value
  95:Lib/lvgl/src/misc/lv_style_gen.c ****     };
  96:Lib/lvgl/src/misc/lv_style_gen.c ****     lv_style_set_prop(style, LV_STYLE_Y, v);
 382              		.loc 1 96 5 is_stmt 1 view .LVU68
 383 0008 0921     		movs	r1, #9
 384              	.LVL25:
 385              		.loc 1 96 5 is_stmt 0 view .LVU69
 386 000a FFF7FEFF 		bl	lv_style_set_prop
 387              	.LVL26:
  97:Lib/lvgl/src/misc/lv_style_gen.c **** }
 388              		.loc 1 97 1 view .LVU70
 389 000e 03B0     		add	sp, sp, #12
 390              	.LCFI26:
 391              		.cfi_def_cfa_offset 4
 392              		@ sp needed
 393 0010 5DF804FB 		ldr	pc, [sp], #4
 394              		.loc 1 97 1 view .LVU71
 395              		.cfi_endproc
 396              	.LFE90:
 398              		.section	.text.lv_style_set_align,"ax",%progbits
 399              		.align	1
 400              		.global	lv_style_set_align
 401              		.syntax unified
 402              		.thumb
 403              		.thumb_func
 405              	lv_style_set_align:
 406              	.LVL27:
 407              	.LFB91:
  98:Lib/lvgl/src/misc/lv_style_gen.c **** 
  99:Lib/lvgl/src/misc/lv_style_gen.c **** const lv_style_prop_t _lv_style_const_prop_id_Y = LV_STYLE_Y;
 100:Lib/lvgl/src/misc/lv_style_gen.c **** 
 101:Lib/lvgl/src/misc/lv_style_gen.c **** void lv_style_set_align(lv_style_t * style, lv_align_t value)
 102:Lib/lvgl/src/misc/lv_style_gen.c **** {
 408              		.loc 1 102 1 is_stmt 1 view -0
 409              		.cfi_startproc
 410              		@ args = 0, pretend = 0, frame = 8
 411              		@ frame_needed = 0, uses_anonymous_args = 0
 412              		.loc 1 102 1 is_stmt 0 view .LVU73
 413 0000 00B5     		push	{lr}
 414              	.LCFI27:
 415              		.cfi_def_cfa_offset 4
 416              		.cfi_offset 14, -4
 417 0002 83B0     		sub	sp, sp, #12
 418              	.LCFI28:
 419              		.cfi_def_cfa_offset 16
 420 0004 0A46     		mov	r2, r1
 103:Lib/lvgl/src/misc/lv_style_gen.c ****     lv_style_value_t v = {
 421              		.loc 1 103 5 is_stmt 1 view .LVU74
 422              		.loc 1 103 22 is_stmt 0 view .LVU75
 423 0006 0191     		str	r1, [sp, #4]
 104:Lib/lvgl/src/misc/lv_style_gen.c ****         .num = (int32_t)value
 105:Lib/lvgl/src/misc/lv_style_gen.c ****     };
 106:Lib/lvgl/src/misc/lv_style_gen.c ****     lv_style_set_prop(style, LV_STYLE_ALIGN, v);
 424              		.loc 1 106 5 is_stmt 1 view .LVU76
 425 0008 0A21     		movs	r1, #10
 426              	.LVL28:
ARM GAS  C:\Users\Alex\AppData\Local\Temp\ccl5l8V8.s 			page 10


 427              		.loc 1 106 5 is_stmt 0 view .LVU77
 428 000a FFF7FEFF 		bl	lv_style_set_prop
 429              	.LVL29:
 107:Lib/lvgl/src/misc/lv_style_gen.c **** }
 430              		.loc 1 107 1 view .LVU78
 431 000e 03B0     		add	sp, sp, #12
 432              	.LCFI29:
 433              		.cfi_def_cfa_offset 4
 434              		@ sp needed
 435 0010 5DF804FB 		ldr	pc, [sp], #4
 436              		.cfi_endproc
 437              	.LFE91:
 439              		.section	.text.lv_style_set_transform_width,"ax",%progbits
 440              		.align	1
 441              		.global	lv_style_set_transform_width
 442              		.syntax unified
 443              		.thumb
 444              		.thumb_func
 446              	lv_style_set_transform_width:
 447              	.LVL30:
 448              	.LFB92:
 108:Lib/lvgl/src/misc/lv_style_gen.c **** 
 109:Lib/lvgl/src/misc/lv_style_gen.c **** const lv_style_prop_t _lv_style_const_prop_id_ALIGN = LV_STYLE_ALIGN;
 110:Lib/lvgl/src/misc/lv_style_gen.c **** 
 111:Lib/lvgl/src/misc/lv_style_gen.c **** void lv_style_set_transform_width(lv_style_t * style, int32_t value)
 112:Lib/lvgl/src/misc/lv_style_gen.c **** {
 449              		.loc 1 112 1 is_stmt 1 view -0
 450              		.cfi_startproc
 451              		@ args = 0, pretend = 0, frame = 8
 452              		@ frame_needed = 0, uses_anonymous_args = 0
 453              		.loc 1 112 1 is_stmt 0 view .LVU80
 454 0000 00B5     		push	{lr}
 455              	.LCFI30:
 456              		.cfi_def_cfa_offset 4
 457              		.cfi_offset 14, -4
 458 0002 83B0     		sub	sp, sp, #12
 459              	.LCFI31:
 460              		.cfi_def_cfa_offset 16
 461 0004 0A46     		mov	r2, r1
 113:Lib/lvgl/src/misc/lv_style_gen.c ****     lv_style_value_t v = {
 462              		.loc 1 113 5 is_stmt 1 view .LVU81
 463              		.loc 1 113 22 is_stmt 0 view .LVU82
 464 0006 0191     		str	r1, [sp, #4]
 114:Lib/lvgl/src/misc/lv_style_gen.c ****         .num = (int32_t)value
 115:Lib/lvgl/src/misc/lv_style_gen.c ****     };
 116:Lib/lvgl/src/misc/lv_style_gen.c ****     lv_style_set_prop(style, LV_STYLE_TRANSFORM_WIDTH, v);
 465              		.loc 1 116 5 is_stmt 1 view .LVU83
 466 0008 6821     		movs	r1, #104
 467              	.LVL31:
 468              		.loc 1 116 5 is_stmt 0 view .LVU84
 469 000a FFF7FEFF 		bl	lv_style_set_prop
 470              	.LVL32:
 117:Lib/lvgl/src/misc/lv_style_gen.c **** }
 471              		.loc 1 117 1 view .LVU85
 472 000e 03B0     		add	sp, sp, #12
 473              	.LCFI32:
 474              		.cfi_def_cfa_offset 4
ARM GAS  C:\Users\Alex\AppData\Local\Temp\ccl5l8V8.s 			page 11


 475              		@ sp needed
 476 0010 5DF804FB 		ldr	pc, [sp], #4
 477              		.loc 1 117 1 view .LVU86
 478              		.cfi_endproc
 479              	.LFE92:
 481              		.section	.text.lv_style_set_transform_height,"ax",%progbits
 482              		.align	1
 483              		.global	lv_style_set_transform_height
 484              		.syntax unified
 485              		.thumb
 486              		.thumb_func
 488              	lv_style_set_transform_height:
 489              	.LVL33:
 490              	.LFB93:
 118:Lib/lvgl/src/misc/lv_style_gen.c **** 
 119:Lib/lvgl/src/misc/lv_style_gen.c **** const lv_style_prop_t _lv_style_const_prop_id_TRANSFORM_WIDTH = LV_STYLE_TRANSFORM_WIDTH;
 120:Lib/lvgl/src/misc/lv_style_gen.c **** 
 121:Lib/lvgl/src/misc/lv_style_gen.c **** void lv_style_set_transform_height(lv_style_t * style, int32_t value)
 122:Lib/lvgl/src/misc/lv_style_gen.c **** {
 491              		.loc 1 122 1 is_stmt 1 view -0
 492              		.cfi_startproc
 493              		@ args = 0, pretend = 0, frame = 8
 494              		@ frame_needed = 0, uses_anonymous_args = 0
 495              		.loc 1 122 1 is_stmt 0 view .LVU88
 496 0000 00B5     		push	{lr}
 497              	.LCFI33:
 498              		.cfi_def_cfa_offset 4
 499              		.cfi_offset 14, -4
 500 0002 83B0     		sub	sp, sp, #12
 501              	.LCFI34:
 502              		.cfi_def_cfa_offset 16
 503 0004 0A46     		mov	r2, r1
 123:Lib/lvgl/src/misc/lv_style_gen.c ****     lv_style_value_t v = {
 504              		.loc 1 123 5 is_stmt 1 view .LVU89
 505              		.loc 1 123 22 is_stmt 0 view .LVU90
 506 0006 0191     		str	r1, [sp, #4]
 124:Lib/lvgl/src/misc/lv_style_gen.c ****         .num = (int32_t)value
 125:Lib/lvgl/src/misc/lv_style_gen.c ****     };
 126:Lib/lvgl/src/misc/lv_style_gen.c ****     lv_style_set_prop(style, LV_STYLE_TRANSFORM_HEIGHT, v);
 507              		.loc 1 126 5 is_stmt 1 view .LVU91
 508 0008 6921     		movs	r1, #105
 509              	.LVL34:
 510              		.loc 1 126 5 is_stmt 0 view .LVU92
 511 000a FFF7FEFF 		bl	lv_style_set_prop
 512              	.LVL35:
 127:Lib/lvgl/src/misc/lv_style_gen.c **** }
 513              		.loc 1 127 1 view .LVU93
 514 000e 03B0     		add	sp, sp, #12
 515              	.LCFI35:
 516              		.cfi_def_cfa_offset 4
 517              		@ sp needed
 518 0010 5DF804FB 		ldr	pc, [sp], #4
 519              		.loc 1 127 1 view .LVU94
 520              		.cfi_endproc
 521              	.LFE93:
 523              		.section	.text.lv_style_set_translate_x,"ax",%progbits
 524              		.align	1
ARM GAS  C:\Users\Alex\AppData\Local\Temp\ccl5l8V8.s 			page 12


 525              		.global	lv_style_set_translate_x
 526              		.syntax unified
 527              		.thumb
 528              		.thumb_func
 530              	lv_style_set_translate_x:
 531              	.LVL36:
 532              	.LFB94:
 128:Lib/lvgl/src/misc/lv_style_gen.c **** 
 129:Lib/lvgl/src/misc/lv_style_gen.c **** const lv_style_prop_t _lv_style_const_prop_id_TRANSFORM_HEIGHT = LV_STYLE_TRANSFORM_HEIGHT;
 130:Lib/lvgl/src/misc/lv_style_gen.c **** 
 131:Lib/lvgl/src/misc/lv_style_gen.c **** void lv_style_set_translate_x(lv_style_t * style, int32_t value)
 132:Lib/lvgl/src/misc/lv_style_gen.c **** {
 533              		.loc 1 132 1 is_stmt 1 view -0
 534              		.cfi_startproc
 535              		@ args = 0, pretend = 0, frame = 8
 536              		@ frame_needed = 0, uses_anonymous_args = 0
 537              		.loc 1 132 1 is_stmt 0 view .LVU96
 538 0000 00B5     		push	{lr}
 539              	.LCFI36:
 540              		.cfi_def_cfa_offset 4
 541              		.cfi_offset 14, -4
 542 0002 83B0     		sub	sp, sp, #12
 543              	.LCFI37:
 544              		.cfi_def_cfa_offset 16
 545 0004 0A46     		mov	r2, r1
 133:Lib/lvgl/src/misc/lv_style_gen.c ****     lv_style_value_t v = {
 546              		.loc 1 133 5 is_stmt 1 view .LVU97
 547              		.loc 1 133 22 is_stmt 0 view .LVU98
 548 0006 0191     		str	r1, [sp, #4]
 134:Lib/lvgl/src/misc/lv_style_gen.c ****         .num = (int32_t)value
 135:Lib/lvgl/src/misc/lv_style_gen.c ****     };
 136:Lib/lvgl/src/misc/lv_style_gen.c ****     lv_style_set_prop(style, LV_STYLE_TRANSLATE_X, v);
 549              		.loc 1 136 5 is_stmt 1 view .LVU99
 550 0008 6A21     		movs	r1, #106
 551              	.LVL37:
 552              		.loc 1 136 5 is_stmt 0 view .LVU100
 553 000a FFF7FEFF 		bl	lv_style_set_prop
 554              	.LVL38:
 137:Lib/lvgl/src/misc/lv_style_gen.c **** }
 555              		.loc 1 137 1 view .LVU101
 556 000e 03B0     		add	sp, sp, #12
 557              	.LCFI38:
 558              		.cfi_def_cfa_offset 4
 559              		@ sp needed
 560 0010 5DF804FB 		ldr	pc, [sp], #4
 561              		.loc 1 137 1 view .LVU102
 562              		.cfi_endproc
 563              	.LFE94:
 565              		.section	.text.lv_style_set_translate_y,"ax",%progbits
 566              		.align	1
 567              		.global	lv_style_set_translate_y
 568              		.syntax unified
 569              		.thumb
 570              		.thumb_func
 572              	lv_style_set_translate_y:
 573              	.LVL39:
 574              	.LFB95:
ARM GAS  C:\Users\Alex\AppData\Local\Temp\ccl5l8V8.s 			page 13


 138:Lib/lvgl/src/misc/lv_style_gen.c **** 
 139:Lib/lvgl/src/misc/lv_style_gen.c **** const lv_style_prop_t _lv_style_const_prop_id_TRANSLATE_X = LV_STYLE_TRANSLATE_X;
 140:Lib/lvgl/src/misc/lv_style_gen.c **** 
 141:Lib/lvgl/src/misc/lv_style_gen.c **** void lv_style_set_translate_y(lv_style_t * style, int32_t value)
 142:Lib/lvgl/src/misc/lv_style_gen.c **** {
 575              		.loc 1 142 1 is_stmt 1 view -0
 576              		.cfi_startproc
 577              		@ args = 0, pretend = 0, frame = 8
 578              		@ frame_needed = 0, uses_anonymous_args = 0
 579              		.loc 1 142 1 is_stmt 0 view .LVU104
 580 0000 00B5     		push	{lr}
 581              	.LCFI39:
 582              		.cfi_def_cfa_offset 4
 583              		.cfi_offset 14, -4
 584 0002 83B0     		sub	sp, sp, #12
 585              	.LCFI40:
 586              		.cfi_def_cfa_offset 16
 587 0004 0A46     		mov	r2, r1
 143:Lib/lvgl/src/misc/lv_style_gen.c ****     lv_style_value_t v = {
 588              		.loc 1 143 5 is_stmt 1 view .LVU105
 589              		.loc 1 143 22 is_stmt 0 view .LVU106
 590 0006 0191     		str	r1, [sp, #4]
 144:Lib/lvgl/src/misc/lv_style_gen.c ****         .num = (int32_t)value
 145:Lib/lvgl/src/misc/lv_style_gen.c ****     };
 146:Lib/lvgl/src/misc/lv_style_gen.c ****     lv_style_set_prop(style, LV_STYLE_TRANSLATE_Y, v);
 591              		.loc 1 146 5 is_stmt 1 view .LVU107
 592 0008 6B21     		movs	r1, #107
 593              	.LVL40:
 594              		.loc 1 146 5 is_stmt 0 view .LVU108
 595 000a FFF7FEFF 		bl	lv_style_set_prop
 596              	.LVL41:
 147:Lib/lvgl/src/misc/lv_style_gen.c **** }
 597              		.loc 1 147 1 view .LVU109
 598 000e 03B0     		add	sp, sp, #12
 599              	.LCFI41:
 600              		.cfi_def_cfa_offset 4
 601              		@ sp needed
 602 0010 5DF804FB 		ldr	pc, [sp], #4
 603              		.loc 1 147 1 view .LVU110
 604              		.cfi_endproc
 605              	.LFE95:
 607              		.section	.text.lv_style_set_transform_scale_x,"ax",%progbits
 608              		.align	1
 609              		.global	lv_style_set_transform_scale_x
 610              		.syntax unified
 611              		.thumb
 612              		.thumb_func
 614              	lv_style_set_transform_scale_x:
 615              	.LVL42:
 616              	.LFB96:
 148:Lib/lvgl/src/misc/lv_style_gen.c **** 
 149:Lib/lvgl/src/misc/lv_style_gen.c **** const lv_style_prop_t _lv_style_const_prop_id_TRANSLATE_Y = LV_STYLE_TRANSLATE_Y;
 150:Lib/lvgl/src/misc/lv_style_gen.c **** 
 151:Lib/lvgl/src/misc/lv_style_gen.c **** void lv_style_set_transform_scale_x(lv_style_t * style, int32_t value)
 152:Lib/lvgl/src/misc/lv_style_gen.c **** {
 617              		.loc 1 152 1 is_stmt 1 view -0
 618              		.cfi_startproc
ARM GAS  C:\Users\Alex\AppData\Local\Temp\ccl5l8V8.s 			page 14


 619              		@ args = 0, pretend = 0, frame = 8
 620              		@ frame_needed = 0, uses_anonymous_args = 0
 621              		.loc 1 152 1 is_stmt 0 view .LVU112
 622 0000 00B5     		push	{lr}
 623              	.LCFI42:
 624              		.cfi_def_cfa_offset 4
 625              		.cfi_offset 14, -4
 626 0002 83B0     		sub	sp, sp, #12
 627              	.LCFI43:
 628              		.cfi_def_cfa_offset 16
 629 0004 0A46     		mov	r2, r1
 153:Lib/lvgl/src/misc/lv_style_gen.c ****     lv_style_value_t v = {
 630              		.loc 1 153 5 is_stmt 1 view .LVU113
 631              		.loc 1 153 22 is_stmt 0 view .LVU114
 632 0006 0191     		str	r1, [sp, #4]
 154:Lib/lvgl/src/misc/lv_style_gen.c ****         .num = (int32_t)value
 155:Lib/lvgl/src/misc/lv_style_gen.c ****     };
 156:Lib/lvgl/src/misc/lv_style_gen.c ****     lv_style_set_prop(style, LV_STYLE_TRANSFORM_SCALE_X, v);
 633              		.loc 1 156 5 is_stmt 1 view .LVU115
 634 0008 6C21     		movs	r1, #108
 635              	.LVL43:
 636              		.loc 1 156 5 is_stmt 0 view .LVU116
 637 000a FFF7FEFF 		bl	lv_style_set_prop
 638              	.LVL44:
 157:Lib/lvgl/src/misc/lv_style_gen.c **** }
 639              		.loc 1 157 1 view .LVU117
 640 000e 03B0     		add	sp, sp, #12
 641              	.LCFI44:
 642              		.cfi_def_cfa_offset 4
 643              		@ sp needed
 644 0010 5DF804FB 		ldr	pc, [sp], #4
 645              		.loc 1 157 1 view .LVU118
 646              		.cfi_endproc
 647              	.LFE96:
 649              		.section	.text.lv_style_set_transform_scale_y,"ax",%progbits
 650              		.align	1
 651              		.global	lv_style_set_transform_scale_y
 652              		.syntax unified
 653              		.thumb
 654              		.thumb_func
 656              	lv_style_set_transform_scale_y:
 657              	.LVL45:
 658              	.LFB97:
 158:Lib/lvgl/src/misc/lv_style_gen.c **** 
 159:Lib/lvgl/src/misc/lv_style_gen.c **** const lv_style_prop_t _lv_style_const_prop_id_TRANSFORM_SCALE_X = LV_STYLE_TRANSFORM_SCALE_X;
 160:Lib/lvgl/src/misc/lv_style_gen.c **** 
 161:Lib/lvgl/src/misc/lv_style_gen.c **** void lv_style_set_transform_scale_y(lv_style_t * style, int32_t value)
 162:Lib/lvgl/src/misc/lv_style_gen.c **** {
 659              		.loc 1 162 1 is_stmt 1 view -0
 660              		.cfi_startproc
 661              		@ args = 0, pretend = 0, frame = 8
 662              		@ frame_needed = 0, uses_anonymous_args = 0
 663              		.loc 1 162 1 is_stmt 0 view .LVU120
 664 0000 00B5     		push	{lr}
 665              	.LCFI45:
 666              		.cfi_def_cfa_offset 4
 667              		.cfi_offset 14, -4
ARM GAS  C:\Users\Alex\AppData\Local\Temp\ccl5l8V8.s 			page 15


 668 0002 83B0     		sub	sp, sp, #12
 669              	.LCFI46:
 670              		.cfi_def_cfa_offset 16
 671 0004 0A46     		mov	r2, r1
 163:Lib/lvgl/src/misc/lv_style_gen.c ****     lv_style_value_t v = {
 672              		.loc 1 163 5 is_stmt 1 view .LVU121
 673              		.loc 1 163 22 is_stmt 0 view .LVU122
 674 0006 0191     		str	r1, [sp, #4]
 164:Lib/lvgl/src/misc/lv_style_gen.c ****         .num = (int32_t)value
 165:Lib/lvgl/src/misc/lv_style_gen.c ****     };
 166:Lib/lvgl/src/misc/lv_style_gen.c ****     lv_style_set_prop(style, LV_STYLE_TRANSFORM_SCALE_Y, v);
 675              		.loc 1 166 5 is_stmt 1 view .LVU123
 676 0008 6D21     		movs	r1, #109
 677              	.LVL46:
 678              		.loc 1 166 5 is_stmt 0 view .LVU124
 679 000a FFF7FEFF 		bl	lv_style_set_prop
 680              	.LVL47:
 167:Lib/lvgl/src/misc/lv_style_gen.c **** }
 681              		.loc 1 167 1 view .LVU125
 682 000e 03B0     		add	sp, sp, #12
 683              	.LCFI47:
 684              		.cfi_def_cfa_offset 4
 685              		@ sp needed
 686 0010 5DF804FB 		ldr	pc, [sp], #4
 687              		.loc 1 167 1 view .LVU126
 688              		.cfi_endproc
 689              	.LFE97:
 691              		.section	.text.lv_style_set_transform_rotation,"ax",%progbits
 692              		.align	1
 693              		.global	lv_style_set_transform_rotation
 694              		.syntax unified
 695              		.thumb
 696              		.thumb_func
 698              	lv_style_set_transform_rotation:
 699              	.LVL48:
 700              	.LFB98:
 168:Lib/lvgl/src/misc/lv_style_gen.c **** 
 169:Lib/lvgl/src/misc/lv_style_gen.c **** const lv_style_prop_t _lv_style_const_prop_id_TRANSFORM_SCALE_Y = LV_STYLE_TRANSFORM_SCALE_Y;
 170:Lib/lvgl/src/misc/lv_style_gen.c **** 
 171:Lib/lvgl/src/misc/lv_style_gen.c **** void lv_style_set_transform_rotation(lv_style_t * style, int32_t value)
 172:Lib/lvgl/src/misc/lv_style_gen.c **** {
 701              		.loc 1 172 1 is_stmt 1 view -0
 702              		.cfi_startproc
 703              		@ args = 0, pretend = 0, frame = 8
 704              		@ frame_needed = 0, uses_anonymous_args = 0
 705              		.loc 1 172 1 is_stmt 0 view .LVU128
 706 0000 00B5     		push	{lr}
 707              	.LCFI48:
 708              		.cfi_def_cfa_offset 4
 709              		.cfi_offset 14, -4
 710 0002 83B0     		sub	sp, sp, #12
 711              	.LCFI49:
 712              		.cfi_def_cfa_offset 16
 713 0004 0A46     		mov	r2, r1
 173:Lib/lvgl/src/misc/lv_style_gen.c ****     lv_style_value_t v = {
 714              		.loc 1 173 5 is_stmt 1 view .LVU129
 715              		.loc 1 173 22 is_stmt 0 view .LVU130
ARM GAS  C:\Users\Alex\AppData\Local\Temp\ccl5l8V8.s 			page 16


 716 0006 0191     		str	r1, [sp, #4]
 174:Lib/lvgl/src/misc/lv_style_gen.c ****         .num = (int32_t)value
 175:Lib/lvgl/src/misc/lv_style_gen.c ****     };
 176:Lib/lvgl/src/misc/lv_style_gen.c ****     lv_style_set_prop(style, LV_STYLE_TRANSFORM_ROTATION, v);
 717              		.loc 1 176 5 is_stmt 1 view .LVU131
 718 0008 6E21     		movs	r1, #110
 719              	.LVL49:
 720              		.loc 1 176 5 is_stmt 0 view .LVU132
 721 000a FFF7FEFF 		bl	lv_style_set_prop
 722              	.LVL50:
 177:Lib/lvgl/src/misc/lv_style_gen.c **** }
 723              		.loc 1 177 1 view .LVU133
 724 000e 03B0     		add	sp, sp, #12
 725              	.LCFI50:
 726              		.cfi_def_cfa_offset 4
 727              		@ sp needed
 728 0010 5DF804FB 		ldr	pc, [sp], #4
 729              		.loc 1 177 1 view .LVU134
 730              		.cfi_endproc
 731              	.LFE98:
 733              		.section	.text.lv_style_set_transform_pivot_x,"ax",%progbits
 734              		.align	1
 735              		.global	lv_style_set_transform_pivot_x
 736              		.syntax unified
 737              		.thumb
 738              		.thumb_func
 740              	lv_style_set_transform_pivot_x:
 741              	.LVL51:
 742              	.LFB99:
 178:Lib/lvgl/src/misc/lv_style_gen.c **** 
 179:Lib/lvgl/src/misc/lv_style_gen.c **** const lv_style_prop_t _lv_style_const_prop_id_TRANSFORM_ROTATION = LV_STYLE_TRANSFORM_ROTATION;
 180:Lib/lvgl/src/misc/lv_style_gen.c **** 
 181:Lib/lvgl/src/misc/lv_style_gen.c **** void lv_style_set_transform_pivot_x(lv_style_t * style, int32_t value)
 182:Lib/lvgl/src/misc/lv_style_gen.c **** {
 743              		.loc 1 182 1 is_stmt 1 view -0
 744              		.cfi_startproc
 745              		@ args = 0, pretend = 0, frame = 8
 746              		@ frame_needed = 0, uses_anonymous_args = 0
 747              		.loc 1 182 1 is_stmt 0 view .LVU136
 748 0000 00B5     		push	{lr}
 749              	.LCFI51:
 750              		.cfi_def_cfa_offset 4
 751              		.cfi_offset 14, -4
 752 0002 83B0     		sub	sp, sp, #12
 753              	.LCFI52:
 754              		.cfi_def_cfa_offset 16
 755 0004 0A46     		mov	r2, r1
 183:Lib/lvgl/src/misc/lv_style_gen.c ****     lv_style_value_t v = {
 756              		.loc 1 183 5 is_stmt 1 view .LVU137
 757              		.loc 1 183 22 is_stmt 0 view .LVU138
 758 0006 0191     		str	r1, [sp, #4]
 184:Lib/lvgl/src/misc/lv_style_gen.c ****         .num = (int32_t)value
 185:Lib/lvgl/src/misc/lv_style_gen.c ****     };
 186:Lib/lvgl/src/misc/lv_style_gen.c ****     lv_style_set_prop(style, LV_STYLE_TRANSFORM_PIVOT_X, v);
 759              		.loc 1 186 5 is_stmt 1 view .LVU139
 760 0008 6F21     		movs	r1, #111
 761              	.LVL52:
ARM GAS  C:\Users\Alex\AppData\Local\Temp\ccl5l8V8.s 			page 17


 762              		.loc 1 186 5 is_stmt 0 view .LVU140
 763 000a FFF7FEFF 		bl	lv_style_set_prop
 764              	.LVL53:
 187:Lib/lvgl/src/misc/lv_style_gen.c **** }
 765              		.loc 1 187 1 view .LVU141
 766 000e 03B0     		add	sp, sp, #12
 767              	.LCFI53:
 768              		.cfi_def_cfa_offset 4
 769              		@ sp needed
 770 0010 5DF804FB 		ldr	pc, [sp], #4
 771              		.loc 1 187 1 view .LVU142
 772              		.cfi_endproc
 773              	.LFE99:
 775              		.section	.text.lv_style_set_transform_pivot_y,"ax",%progbits
 776              		.align	1
 777              		.global	lv_style_set_transform_pivot_y
 778              		.syntax unified
 779              		.thumb
 780              		.thumb_func
 782              	lv_style_set_transform_pivot_y:
 783              	.LVL54:
 784              	.LFB100:
 188:Lib/lvgl/src/misc/lv_style_gen.c **** 
 189:Lib/lvgl/src/misc/lv_style_gen.c **** const lv_style_prop_t _lv_style_const_prop_id_TRANSFORM_PIVOT_X = LV_STYLE_TRANSFORM_PIVOT_X;
 190:Lib/lvgl/src/misc/lv_style_gen.c **** 
 191:Lib/lvgl/src/misc/lv_style_gen.c **** void lv_style_set_transform_pivot_y(lv_style_t * style, int32_t value)
 192:Lib/lvgl/src/misc/lv_style_gen.c **** {
 785              		.loc 1 192 1 is_stmt 1 view -0
 786              		.cfi_startproc
 787              		@ args = 0, pretend = 0, frame = 8
 788              		@ frame_needed = 0, uses_anonymous_args = 0
 789              		.loc 1 192 1 is_stmt 0 view .LVU144
 790 0000 00B5     		push	{lr}
 791              	.LCFI54:
 792              		.cfi_def_cfa_offset 4
 793              		.cfi_offset 14, -4
 794 0002 83B0     		sub	sp, sp, #12
 795              	.LCFI55:
 796              		.cfi_def_cfa_offset 16
 797 0004 0A46     		mov	r2, r1
 193:Lib/lvgl/src/misc/lv_style_gen.c ****     lv_style_value_t v = {
 798              		.loc 1 193 5 is_stmt 1 view .LVU145
 799              		.loc 1 193 22 is_stmt 0 view .LVU146
 800 0006 0191     		str	r1, [sp, #4]
 194:Lib/lvgl/src/misc/lv_style_gen.c ****         .num = (int32_t)value
 195:Lib/lvgl/src/misc/lv_style_gen.c ****     };
 196:Lib/lvgl/src/misc/lv_style_gen.c ****     lv_style_set_prop(style, LV_STYLE_TRANSFORM_PIVOT_Y, v);
 801              		.loc 1 196 5 is_stmt 1 view .LVU147
 802 0008 7021     		movs	r1, #112
 803              	.LVL55:
 804              		.loc 1 196 5 is_stmt 0 view .LVU148
 805 000a FFF7FEFF 		bl	lv_style_set_prop
 806              	.LVL56:
 197:Lib/lvgl/src/misc/lv_style_gen.c **** }
 807              		.loc 1 197 1 view .LVU149
 808 000e 03B0     		add	sp, sp, #12
 809              	.LCFI56:
ARM GAS  C:\Users\Alex\AppData\Local\Temp\ccl5l8V8.s 			page 18


 810              		.cfi_def_cfa_offset 4
 811              		@ sp needed
 812 0010 5DF804FB 		ldr	pc, [sp], #4
 813              		.loc 1 197 1 view .LVU150
 814              		.cfi_endproc
 815              	.LFE100:
 817              		.section	.text.lv_style_set_transform_skew_x,"ax",%progbits
 818              		.align	1
 819              		.global	lv_style_set_transform_skew_x
 820              		.syntax unified
 821              		.thumb
 822              		.thumb_func
 824              	lv_style_set_transform_skew_x:
 825              	.LVL57:
 826              	.LFB101:
 198:Lib/lvgl/src/misc/lv_style_gen.c **** 
 199:Lib/lvgl/src/misc/lv_style_gen.c **** const lv_style_prop_t _lv_style_const_prop_id_TRANSFORM_PIVOT_Y = LV_STYLE_TRANSFORM_PIVOT_Y;
 200:Lib/lvgl/src/misc/lv_style_gen.c **** 
 201:Lib/lvgl/src/misc/lv_style_gen.c **** void lv_style_set_transform_skew_x(lv_style_t * style, int32_t value)
 202:Lib/lvgl/src/misc/lv_style_gen.c **** {
 827              		.loc 1 202 1 is_stmt 1 view -0
 828              		.cfi_startproc
 829              		@ args = 0, pretend = 0, frame = 8
 830              		@ frame_needed = 0, uses_anonymous_args = 0
 831              		.loc 1 202 1 is_stmt 0 view .LVU152
 832 0000 00B5     		push	{lr}
 833              	.LCFI57:
 834              		.cfi_def_cfa_offset 4
 835              		.cfi_offset 14, -4
 836 0002 83B0     		sub	sp, sp, #12
 837              	.LCFI58:
 838              		.cfi_def_cfa_offset 16
 839 0004 0A46     		mov	r2, r1
 203:Lib/lvgl/src/misc/lv_style_gen.c ****     lv_style_value_t v = {
 840              		.loc 1 203 5 is_stmt 1 view .LVU153
 841              		.loc 1 203 22 is_stmt 0 view .LVU154
 842 0006 0191     		str	r1, [sp, #4]
 204:Lib/lvgl/src/misc/lv_style_gen.c ****         .num = (int32_t)value
 205:Lib/lvgl/src/misc/lv_style_gen.c ****     };
 206:Lib/lvgl/src/misc/lv_style_gen.c ****     lv_style_set_prop(style, LV_STYLE_TRANSFORM_SKEW_X, v);
 843              		.loc 1 206 5 is_stmt 1 view .LVU155
 844 0008 7121     		movs	r1, #113
 845              	.LVL58:
 846              		.loc 1 206 5 is_stmt 0 view .LVU156
 847 000a FFF7FEFF 		bl	lv_style_set_prop
 848              	.LVL59:
 207:Lib/lvgl/src/misc/lv_style_gen.c **** }
 849              		.loc 1 207 1 view .LVU157
 850 000e 03B0     		add	sp, sp, #12
 851              	.LCFI59:
 852              		.cfi_def_cfa_offset 4
 853              		@ sp needed
 854 0010 5DF804FB 		ldr	pc, [sp], #4
 855              		.loc 1 207 1 view .LVU158
 856              		.cfi_endproc
 857              	.LFE101:
 859              		.section	.text.lv_style_set_transform_skew_y,"ax",%progbits
ARM GAS  C:\Users\Alex\AppData\Local\Temp\ccl5l8V8.s 			page 19


 860              		.align	1
 861              		.global	lv_style_set_transform_skew_y
 862              		.syntax unified
 863              		.thumb
 864              		.thumb_func
 866              	lv_style_set_transform_skew_y:
 867              	.LVL60:
 868              	.LFB102:
 208:Lib/lvgl/src/misc/lv_style_gen.c **** 
 209:Lib/lvgl/src/misc/lv_style_gen.c **** const lv_style_prop_t _lv_style_const_prop_id_TRANSFORM_SKEW_X = LV_STYLE_TRANSFORM_SKEW_X;
 210:Lib/lvgl/src/misc/lv_style_gen.c **** 
 211:Lib/lvgl/src/misc/lv_style_gen.c **** void lv_style_set_transform_skew_y(lv_style_t * style, int32_t value)
 212:Lib/lvgl/src/misc/lv_style_gen.c **** {
 869              		.loc 1 212 1 is_stmt 1 view -0
 870              		.cfi_startproc
 871              		@ args = 0, pretend = 0, frame = 8
 872              		@ frame_needed = 0, uses_anonymous_args = 0
 873              		.loc 1 212 1 is_stmt 0 view .LVU160
 874 0000 00B5     		push	{lr}
 875              	.LCFI60:
 876              		.cfi_def_cfa_offset 4
 877              		.cfi_offset 14, -4
 878 0002 83B0     		sub	sp, sp, #12
 879              	.LCFI61:
 880              		.cfi_def_cfa_offset 16
 881 0004 0A46     		mov	r2, r1
 213:Lib/lvgl/src/misc/lv_style_gen.c ****     lv_style_value_t v = {
 882              		.loc 1 213 5 is_stmt 1 view .LVU161
 883              		.loc 1 213 22 is_stmt 0 view .LVU162
 884 0006 0191     		str	r1, [sp, #4]
 214:Lib/lvgl/src/misc/lv_style_gen.c ****         .num = (int32_t)value
 215:Lib/lvgl/src/misc/lv_style_gen.c ****     };
 216:Lib/lvgl/src/misc/lv_style_gen.c ****     lv_style_set_prop(style, LV_STYLE_TRANSFORM_SKEW_Y, v);
 885              		.loc 1 216 5 is_stmt 1 view .LVU163
 886 0008 7221     		movs	r1, #114
 887              	.LVL61:
 888              		.loc 1 216 5 is_stmt 0 view .LVU164
 889 000a FFF7FEFF 		bl	lv_style_set_prop
 890              	.LVL62:
 217:Lib/lvgl/src/misc/lv_style_gen.c **** }
 891              		.loc 1 217 1 view .LVU165
 892 000e 03B0     		add	sp, sp, #12
 893              	.LCFI62:
 894              		.cfi_def_cfa_offset 4
 895              		@ sp needed
 896 0010 5DF804FB 		ldr	pc, [sp], #4
 897              		.loc 1 217 1 view .LVU166
 898              		.cfi_endproc
 899              	.LFE102:
 901              		.section	.text.lv_style_set_pad_top,"ax",%progbits
 902              		.align	1
 903              		.global	lv_style_set_pad_top
 904              		.syntax unified
 905              		.thumb
 906              		.thumb_func
 908              	lv_style_set_pad_top:
 909              	.LVL63:
ARM GAS  C:\Users\Alex\AppData\Local\Temp\ccl5l8V8.s 			page 20


 910              	.LFB103:
 218:Lib/lvgl/src/misc/lv_style_gen.c **** 
 219:Lib/lvgl/src/misc/lv_style_gen.c **** const lv_style_prop_t _lv_style_const_prop_id_TRANSFORM_SKEW_Y = LV_STYLE_TRANSFORM_SKEW_Y;
 220:Lib/lvgl/src/misc/lv_style_gen.c **** 
 221:Lib/lvgl/src/misc/lv_style_gen.c **** void lv_style_set_pad_top(lv_style_t * style, int32_t value)
 222:Lib/lvgl/src/misc/lv_style_gen.c **** {
 911              		.loc 1 222 1 is_stmt 1 view -0
 912              		.cfi_startproc
 913              		@ args = 0, pretend = 0, frame = 8
 914              		@ frame_needed = 0, uses_anonymous_args = 0
 915              		.loc 1 222 1 is_stmt 0 view .LVU168
 916 0000 00B5     		push	{lr}
 917              	.LCFI63:
 918              		.cfi_def_cfa_offset 4
 919              		.cfi_offset 14, -4
 920 0002 83B0     		sub	sp, sp, #12
 921              	.LCFI64:
 922              		.cfi_def_cfa_offset 16
 923 0004 0A46     		mov	r2, r1
 223:Lib/lvgl/src/misc/lv_style_gen.c ****     lv_style_value_t v = {
 924              		.loc 1 223 5 is_stmt 1 view .LVU169
 925              		.loc 1 223 22 is_stmt 0 view .LVU170
 926 0006 0191     		str	r1, [sp, #4]
 224:Lib/lvgl/src/misc/lv_style_gen.c ****         .num = (int32_t)value
 225:Lib/lvgl/src/misc/lv_style_gen.c ****     };
 226:Lib/lvgl/src/misc/lv_style_gen.c ****     lv_style_set_prop(style, LV_STYLE_PAD_TOP, v);
 927              		.loc 1 226 5 is_stmt 1 view .LVU171
 928 0008 1021     		movs	r1, #16
 929              	.LVL64:
 930              		.loc 1 226 5 is_stmt 0 view .LVU172
 931 000a FFF7FEFF 		bl	lv_style_set_prop
 932              	.LVL65:
 227:Lib/lvgl/src/misc/lv_style_gen.c **** }
 933              		.loc 1 227 1 view .LVU173
 934 000e 03B0     		add	sp, sp, #12
 935              	.LCFI65:
 936              		.cfi_def_cfa_offset 4
 937              		@ sp needed
 938 0010 5DF804FB 		ldr	pc, [sp], #4
 939              		.loc 1 227 1 view .LVU174
 940              		.cfi_endproc
 941              	.LFE103:
 943              		.section	.text.lv_style_set_pad_bottom,"ax",%progbits
 944              		.align	1
 945              		.global	lv_style_set_pad_bottom
 946              		.syntax unified
 947              		.thumb
 948              		.thumb_func
 950              	lv_style_set_pad_bottom:
 951              	.LVL66:
 952              	.LFB104:
 228:Lib/lvgl/src/misc/lv_style_gen.c **** 
 229:Lib/lvgl/src/misc/lv_style_gen.c **** const lv_style_prop_t _lv_style_const_prop_id_PAD_TOP = LV_STYLE_PAD_TOP;
 230:Lib/lvgl/src/misc/lv_style_gen.c **** 
 231:Lib/lvgl/src/misc/lv_style_gen.c **** void lv_style_set_pad_bottom(lv_style_t * style, int32_t value)
 232:Lib/lvgl/src/misc/lv_style_gen.c **** {
 953              		.loc 1 232 1 is_stmt 1 view -0
ARM GAS  C:\Users\Alex\AppData\Local\Temp\ccl5l8V8.s 			page 21


 954              		.cfi_startproc
 955              		@ args = 0, pretend = 0, frame = 8
 956              		@ frame_needed = 0, uses_anonymous_args = 0
 957              		.loc 1 232 1 is_stmt 0 view .LVU176
 958 0000 00B5     		push	{lr}
 959              	.LCFI66:
 960              		.cfi_def_cfa_offset 4
 961              		.cfi_offset 14, -4
 962 0002 83B0     		sub	sp, sp, #12
 963              	.LCFI67:
 964              		.cfi_def_cfa_offset 16
 965 0004 0A46     		mov	r2, r1
 233:Lib/lvgl/src/misc/lv_style_gen.c ****     lv_style_value_t v = {
 966              		.loc 1 233 5 is_stmt 1 view .LVU177
 967              		.loc 1 233 22 is_stmt 0 view .LVU178
 968 0006 0191     		str	r1, [sp, #4]
 234:Lib/lvgl/src/misc/lv_style_gen.c ****         .num = (int32_t)value
 235:Lib/lvgl/src/misc/lv_style_gen.c ****     };
 236:Lib/lvgl/src/misc/lv_style_gen.c ****     lv_style_set_prop(style, LV_STYLE_PAD_BOTTOM, v);
 969              		.loc 1 236 5 is_stmt 1 view .LVU179
 970 0008 1121     		movs	r1, #17
 971              	.LVL67:
 972              		.loc 1 236 5 is_stmt 0 view .LVU180
 973 000a FFF7FEFF 		bl	lv_style_set_prop
 974              	.LVL68:
 237:Lib/lvgl/src/misc/lv_style_gen.c **** }
 975              		.loc 1 237 1 view .LVU181
 976 000e 03B0     		add	sp, sp, #12
 977              	.LCFI68:
 978              		.cfi_def_cfa_offset 4
 979              		@ sp needed
 980 0010 5DF804FB 		ldr	pc, [sp], #4
 981              		.loc 1 237 1 view .LVU182
 982              		.cfi_endproc
 983              	.LFE104:
 985              		.section	.text.lv_style_set_pad_left,"ax",%progbits
 986              		.align	1
 987              		.global	lv_style_set_pad_left
 988              		.syntax unified
 989              		.thumb
 990              		.thumb_func
 992              	lv_style_set_pad_left:
 993              	.LVL69:
 994              	.LFB105:
 238:Lib/lvgl/src/misc/lv_style_gen.c **** 
 239:Lib/lvgl/src/misc/lv_style_gen.c **** const lv_style_prop_t _lv_style_const_prop_id_PAD_BOTTOM = LV_STYLE_PAD_BOTTOM;
 240:Lib/lvgl/src/misc/lv_style_gen.c **** 
 241:Lib/lvgl/src/misc/lv_style_gen.c **** void lv_style_set_pad_left(lv_style_t * style, int32_t value)
 242:Lib/lvgl/src/misc/lv_style_gen.c **** {
 995              		.loc 1 242 1 is_stmt 1 view -0
 996              		.cfi_startproc
 997              		@ args = 0, pretend = 0, frame = 8
 998              		@ frame_needed = 0, uses_anonymous_args = 0
 999              		.loc 1 242 1 is_stmt 0 view .LVU184
 1000 0000 00B5     		push	{lr}
 1001              	.LCFI69:
 1002              		.cfi_def_cfa_offset 4
ARM GAS  C:\Users\Alex\AppData\Local\Temp\ccl5l8V8.s 			page 22


 1003              		.cfi_offset 14, -4
 1004 0002 83B0     		sub	sp, sp, #12
 1005              	.LCFI70:
 1006              		.cfi_def_cfa_offset 16
 1007 0004 0A46     		mov	r2, r1
 243:Lib/lvgl/src/misc/lv_style_gen.c ****     lv_style_value_t v = {
 1008              		.loc 1 243 5 is_stmt 1 view .LVU185
 1009              		.loc 1 243 22 is_stmt 0 view .LVU186
 1010 0006 0191     		str	r1, [sp, #4]
 244:Lib/lvgl/src/misc/lv_style_gen.c ****         .num = (int32_t)value
 245:Lib/lvgl/src/misc/lv_style_gen.c ****     };
 246:Lib/lvgl/src/misc/lv_style_gen.c ****     lv_style_set_prop(style, LV_STYLE_PAD_LEFT, v);
 1011              		.loc 1 246 5 is_stmt 1 view .LVU187
 1012 0008 1221     		movs	r1, #18
 1013              	.LVL70:
 1014              		.loc 1 246 5 is_stmt 0 view .LVU188
 1015 000a FFF7FEFF 		bl	lv_style_set_prop
 1016              	.LVL71:
 247:Lib/lvgl/src/misc/lv_style_gen.c **** }
 1017              		.loc 1 247 1 view .LVU189
 1018 000e 03B0     		add	sp, sp, #12
 1019              	.LCFI71:
 1020              		.cfi_def_cfa_offset 4
 1021              		@ sp needed
 1022 0010 5DF804FB 		ldr	pc, [sp], #4
 1023              		.loc 1 247 1 view .LVU190
 1024              		.cfi_endproc
 1025              	.LFE105:
 1027              		.section	.text.lv_style_set_pad_right,"ax",%progbits
 1028              		.align	1
 1029              		.global	lv_style_set_pad_right
 1030              		.syntax unified
 1031              		.thumb
 1032              		.thumb_func
 1034              	lv_style_set_pad_right:
 1035              	.LVL72:
 1036              	.LFB106:
 248:Lib/lvgl/src/misc/lv_style_gen.c **** 
 249:Lib/lvgl/src/misc/lv_style_gen.c **** const lv_style_prop_t _lv_style_const_prop_id_PAD_LEFT = LV_STYLE_PAD_LEFT;
 250:Lib/lvgl/src/misc/lv_style_gen.c **** 
 251:Lib/lvgl/src/misc/lv_style_gen.c **** void lv_style_set_pad_right(lv_style_t * style, int32_t value)
 252:Lib/lvgl/src/misc/lv_style_gen.c **** {
 1037              		.loc 1 252 1 is_stmt 1 view -0
 1038              		.cfi_startproc
 1039              		@ args = 0, pretend = 0, frame = 8
 1040              		@ frame_needed = 0, uses_anonymous_args = 0
 1041              		.loc 1 252 1 is_stmt 0 view .LVU192
 1042 0000 00B5     		push	{lr}
 1043              	.LCFI72:
 1044              		.cfi_def_cfa_offset 4
 1045              		.cfi_offset 14, -4
 1046 0002 83B0     		sub	sp, sp, #12
 1047              	.LCFI73:
 1048              		.cfi_def_cfa_offset 16
 1049 0004 0A46     		mov	r2, r1
 253:Lib/lvgl/src/misc/lv_style_gen.c ****     lv_style_value_t v = {
 1050              		.loc 1 253 5 is_stmt 1 view .LVU193
ARM GAS  C:\Users\Alex\AppData\Local\Temp\ccl5l8V8.s 			page 23


 1051              		.loc 1 253 22 is_stmt 0 view .LVU194
 1052 0006 0191     		str	r1, [sp, #4]
 254:Lib/lvgl/src/misc/lv_style_gen.c ****         .num = (int32_t)value
 255:Lib/lvgl/src/misc/lv_style_gen.c ****     };
 256:Lib/lvgl/src/misc/lv_style_gen.c ****     lv_style_set_prop(style, LV_STYLE_PAD_RIGHT, v);
 1053              		.loc 1 256 5 is_stmt 1 view .LVU195
 1054 0008 1321     		movs	r1, #19
 1055              	.LVL73:
 1056              		.loc 1 256 5 is_stmt 0 view .LVU196
 1057 000a FFF7FEFF 		bl	lv_style_set_prop
 1058              	.LVL74:
 257:Lib/lvgl/src/misc/lv_style_gen.c **** }
 1059              		.loc 1 257 1 view .LVU197
 1060 000e 03B0     		add	sp, sp, #12
 1061              	.LCFI74:
 1062              		.cfi_def_cfa_offset 4
 1063              		@ sp needed
 1064 0010 5DF804FB 		ldr	pc, [sp], #4
 1065              		.loc 1 257 1 view .LVU198
 1066              		.cfi_endproc
 1067              	.LFE106:
 1069              		.section	.text.lv_style_set_pad_row,"ax",%progbits
 1070              		.align	1
 1071              		.global	lv_style_set_pad_row
 1072              		.syntax unified
 1073              		.thumb
 1074              		.thumb_func
 1076              	lv_style_set_pad_row:
 1077              	.LVL75:
 1078              	.LFB107:
 258:Lib/lvgl/src/misc/lv_style_gen.c **** 
 259:Lib/lvgl/src/misc/lv_style_gen.c **** const lv_style_prop_t _lv_style_const_prop_id_PAD_RIGHT = LV_STYLE_PAD_RIGHT;
 260:Lib/lvgl/src/misc/lv_style_gen.c **** 
 261:Lib/lvgl/src/misc/lv_style_gen.c **** void lv_style_set_pad_row(lv_style_t * style, int32_t value)
 262:Lib/lvgl/src/misc/lv_style_gen.c **** {
 1079              		.loc 1 262 1 is_stmt 1 view -0
 1080              		.cfi_startproc
 1081              		@ args = 0, pretend = 0, frame = 8
 1082              		@ frame_needed = 0, uses_anonymous_args = 0
 1083              		.loc 1 262 1 is_stmt 0 view .LVU200
 1084 0000 00B5     		push	{lr}
 1085              	.LCFI75:
 1086              		.cfi_def_cfa_offset 4
 1087              		.cfi_offset 14, -4
 1088 0002 83B0     		sub	sp, sp, #12
 1089              	.LCFI76:
 1090              		.cfi_def_cfa_offset 16
 1091 0004 0A46     		mov	r2, r1
 263:Lib/lvgl/src/misc/lv_style_gen.c ****     lv_style_value_t v = {
 1092              		.loc 1 263 5 is_stmt 1 view .LVU201
 1093              		.loc 1 263 22 is_stmt 0 view .LVU202
 1094 0006 0191     		str	r1, [sp, #4]
 264:Lib/lvgl/src/misc/lv_style_gen.c ****         .num = (int32_t)value
 265:Lib/lvgl/src/misc/lv_style_gen.c ****     };
 266:Lib/lvgl/src/misc/lv_style_gen.c ****     lv_style_set_prop(style, LV_STYLE_PAD_ROW, v);
 1095              		.loc 1 266 5 is_stmt 1 view .LVU203
 1096 0008 1421     		movs	r1, #20
ARM GAS  C:\Users\Alex\AppData\Local\Temp\ccl5l8V8.s 			page 24


 1097              	.LVL76:
 1098              		.loc 1 266 5 is_stmt 0 view .LVU204
 1099 000a FFF7FEFF 		bl	lv_style_set_prop
 1100              	.LVL77:
 267:Lib/lvgl/src/misc/lv_style_gen.c **** }
 1101              		.loc 1 267 1 view .LVU205
 1102 000e 03B0     		add	sp, sp, #12
 1103              	.LCFI77:
 1104              		.cfi_def_cfa_offset 4
 1105              		@ sp needed
 1106 0010 5DF804FB 		ldr	pc, [sp], #4
 1107              		.loc 1 267 1 view .LVU206
 1108              		.cfi_endproc
 1109              	.LFE107:
 1111              		.section	.text.lv_style_set_pad_column,"ax",%progbits
 1112              		.align	1
 1113              		.global	lv_style_set_pad_column
 1114              		.syntax unified
 1115              		.thumb
 1116              		.thumb_func
 1118              	lv_style_set_pad_column:
 1119              	.LVL78:
 1120              	.LFB108:
 268:Lib/lvgl/src/misc/lv_style_gen.c **** 
 269:Lib/lvgl/src/misc/lv_style_gen.c **** const lv_style_prop_t _lv_style_const_prop_id_PAD_ROW = LV_STYLE_PAD_ROW;
 270:Lib/lvgl/src/misc/lv_style_gen.c **** 
 271:Lib/lvgl/src/misc/lv_style_gen.c **** void lv_style_set_pad_column(lv_style_t * style, int32_t value)
 272:Lib/lvgl/src/misc/lv_style_gen.c **** {
 1121              		.loc 1 272 1 is_stmt 1 view -0
 1122              		.cfi_startproc
 1123              		@ args = 0, pretend = 0, frame = 8
 1124              		@ frame_needed = 0, uses_anonymous_args = 0
 1125              		.loc 1 272 1 is_stmt 0 view .LVU208
 1126 0000 00B5     		push	{lr}
 1127              	.LCFI78:
 1128              		.cfi_def_cfa_offset 4
 1129              		.cfi_offset 14, -4
 1130 0002 83B0     		sub	sp, sp, #12
 1131              	.LCFI79:
 1132              		.cfi_def_cfa_offset 16
 1133 0004 0A46     		mov	r2, r1
 273:Lib/lvgl/src/misc/lv_style_gen.c ****     lv_style_value_t v = {
 1134              		.loc 1 273 5 is_stmt 1 view .LVU209
 1135              		.loc 1 273 22 is_stmt 0 view .LVU210
 1136 0006 0191     		str	r1, [sp, #4]
 274:Lib/lvgl/src/misc/lv_style_gen.c ****         .num = (int32_t)value
 275:Lib/lvgl/src/misc/lv_style_gen.c ****     };
 276:Lib/lvgl/src/misc/lv_style_gen.c ****     lv_style_set_prop(style, LV_STYLE_PAD_COLUMN, v);
 1137              		.loc 1 276 5 is_stmt 1 view .LVU211
 1138 0008 1521     		movs	r1, #21
 1139              	.LVL79:
 1140              		.loc 1 276 5 is_stmt 0 view .LVU212
 1141 000a FFF7FEFF 		bl	lv_style_set_prop
 1142              	.LVL80:
 277:Lib/lvgl/src/misc/lv_style_gen.c **** }
 1143              		.loc 1 277 1 view .LVU213
 1144 000e 03B0     		add	sp, sp, #12
ARM GAS  C:\Users\Alex\AppData\Local\Temp\ccl5l8V8.s 			page 25


 1145              	.LCFI80:
 1146              		.cfi_def_cfa_offset 4
 1147              		@ sp needed
 1148 0010 5DF804FB 		ldr	pc, [sp], #4
 1149              		.loc 1 277 1 view .LVU214
 1150              		.cfi_endproc
 1151              	.LFE108:
 1153              		.section	.text.lv_style_set_margin_top,"ax",%progbits
 1154              		.align	1
 1155              		.global	lv_style_set_margin_top
 1156              		.syntax unified
 1157              		.thumb
 1158              		.thumb_func
 1160              	lv_style_set_margin_top:
 1161              	.LVL81:
 1162              	.LFB109:
 278:Lib/lvgl/src/misc/lv_style_gen.c **** 
 279:Lib/lvgl/src/misc/lv_style_gen.c **** const lv_style_prop_t _lv_style_const_prop_id_PAD_COLUMN = LV_STYLE_PAD_COLUMN;
 280:Lib/lvgl/src/misc/lv_style_gen.c **** 
 281:Lib/lvgl/src/misc/lv_style_gen.c **** void lv_style_set_margin_top(lv_style_t * style, int32_t value)
 282:Lib/lvgl/src/misc/lv_style_gen.c **** {
 1163              		.loc 1 282 1 is_stmt 1 view -0
 1164              		.cfi_startproc
 1165              		@ args = 0, pretend = 0, frame = 8
 1166              		@ frame_needed = 0, uses_anonymous_args = 0
 1167              		.loc 1 282 1 is_stmt 0 view .LVU216
 1168 0000 00B5     		push	{lr}
 1169              	.LCFI81:
 1170              		.cfi_def_cfa_offset 4
 1171              		.cfi_offset 14, -4
 1172 0002 83B0     		sub	sp, sp, #12
 1173              	.LCFI82:
 1174              		.cfi_def_cfa_offset 16
 1175 0004 0A46     		mov	r2, r1
 283:Lib/lvgl/src/misc/lv_style_gen.c ****     lv_style_value_t v = {
 1176              		.loc 1 283 5 is_stmt 1 view .LVU217
 1177              		.loc 1 283 22 is_stmt 0 view .LVU218
 1178 0006 0191     		str	r1, [sp, #4]
 284:Lib/lvgl/src/misc/lv_style_gen.c ****         .num = (int32_t)value
 285:Lib/lvgl/src/misc/lv_style_gen.c ****     };
 286:Lib/lvgl/src/misc/lv_style_gen.c ****     lv_style_set_prop(style, LV_STYLE_MARGIN_TOP, v);
 1179              		.loc 1 286 5 is_stmt 1 view .LVU219
 1180 0008 1821     		movs	r1, #24
 1181              	.LVL82:
 1182              		.loc 1 286 5 is_stmt 0 view .LVU220
 1183 000a FFF7FEFF 		bl	lv_style_set_prop
 1184              	.LVL83:
 287:Lib/lvgl/src/misc/lv_style_gen.c **** }
 1185              		.loc 1 287 1 view .LVU221
 1186 000e 03B0     		add	sp, sp, #12
 1187              	.LCFI83:
 1188              		.cfi_def_cfa_offset 4
 1189              		@ sp needed
 1190 0010 5DF804FB 		ldr	pc, [sp], #4
 1191              		.loc 1 287 1 view .LVU222
 1192              		.cfi_endproc
 1193              	.LFE109:
ARM GAS  C:\Users\Alex\AppData\Local\Temp\ccl5l8V8.s 			page 26


 1195              		.section	.text.lv_style_set_margin_bottom,"ax",%progbits
 1196              		.align	1
 1197              		.global	lv_style_set_margin_bottom
 1198              		.syntax unified
 1199              		.thumb
 1200              		.thumb_func
 1202              	lv_style_set_margin_bottom:
 1203              	.LVL84:
 1204              	.LFB110:
 288:Lib/lvgl/src/misc/lv_style_gen.c **** 
 289:Lib/lvgl/src/misc/lv_style_gen.c **** const lv_style_prop_t _lv_style_const_prop_id_MARGIN_TOP = LV_STYLE_MARGIN_TOP;
 290:Lib/lvgl/src/misc/lv_style_gen.c **** 
 291:Lib/lvgl/src/misc/lv_style_gen.c **** void lv_style_set_margin_bottom(lv_style_t * style, int32_t value)
 292:Lib/lvgl/src/misc/lv_style_gen.c **** {
 1205              		.loc 1 292 1 is_stmt 1 view -0
 1206              		.cfi_startproc
 1207              		@ args = 0, pretend = 0, frame = 8
 1208              		@ frame_needed = 0, uses_anonymous_args = 0
 1209              		.loc 1 292 1 is_stmt 0 view .LVU224
 1210 0000 00B5     		push	{lr}
 1211              	.LCFI84:
 1212              		.cfi_def_cfa_offset 4
 1213              		.cfi_offset 14, -4
 1214 0002 83B0     		sub	sp, sp, #12
 1215              	.LCFI85:
 1216              		.cfi_def_cfa_offset 16
 1217 0004 0A46     		mov	r2, r1
 293:Lib/lvgl/src/misc/lv_style_gen.c ****     lv_style_value_t v = {
 1218              		.loc 1 293 5 is_stmt 1 view .LVU225
 1219              		.loc 1 293 22 is_stmt 0 view .LVU226
 1220 0006 0191     		str	r1, [sp, #4]
 294:Lib/lvgl/src/misc/lv_style_gen.c ****         .num = (int32_t)value
 295:Lib/lvgl/src/misc/lv_style_gen.c ****     };
 296:Lib/lvgl/src/misc/lv_style_gen.c ****     lv_style_set_prop(style, LV_STYLE_MARGIN_BOTTOM, v);
 1221              		.loc 1 296 5 is_stmt 1 view .LVU227
 1222 0008 1921     		movs	r1, #25
 1223              	.LVL85:
 1224              		.loc 1 296 5 is_stmt 0 view .LVU228
 1225 000a FFF7FEFF 		bl	lv_style_set_prop
 1226              	.LVL86:
 297:Lib/lvgl/src/misc/lv_style_gen.c **** }
 1227              		.loc 1 297 1 view .LVU229
 1228 000e 03B0     		add	sp, sp, #12
 1229              	.LCFI86:
 1230              		.cfi_def_cfa_offset 4
 1231              		@ sp needed
 1232 0010 5DF804FB 		ldr	pc, [sp], #4
 1233              		.loc 1 297 1 view .LVU230
 1234              		.cfi_endproc
 1235              	.LFE110:
 1237              		.section	.text.lv_style_set_margin_left,"ax",%progbits
 1238              		.align	1
 1239              		.global	lv_style_set_margin_left
 1240              		.syntax unified
 1241              		.thumb
 1242              		.thumb_func
 1244              	lv_style_set_margin_left:
ARM GAS  C:\Users\Alex\AppData\Local\Temp\ccl5l8V8.s 			page 27


 1245              	.LVL87:
 1246              	.LFB111:
 298:Lib/lvgl/src/misc/lv_style_gen.c **** 
 299:Lib/lvgl/src/misc/lv_style_gen.c **** const lv_style_prop_t _lv_style_const_prop_id_MARGIN_BOTTOM = LV_STYLE_MARGIN_BOTTOM;
 300:Lib/lvgl/src/misc/lv_style_gen.c **** 
 301:Lib/lvgl/src/misc/lv_style_gen.c **** void lv_style_set_margin_left(lv_style_t * style, int32_t value)
 302:Lib/lvgl/src/misc/lv_style_gen.c **** {
 1247              		.loc 1 302 1 is_stmt 1 view -0
 1248              		.cfi_startproc
 1249              		@ args = 0, pretend = 0, frame = 8
 1250              		@ frame_needed = 0, uses_anonymous_args = 0
 1251              		.loc 1 302 1 is_stmt 0 view .LVU232
 1252 0000 00B5     		push	{lr}
 1253              	.LCFI87:
 1254              		.cfi_def_cfa_offset 4
 1255              		.cfi_offset 14, -4
 1256 0002 83B0     		sub	sp, sp, #12
 1257              	.LCFI88:
 1258              		.cfi_def_cfa_offset 16
 1259 0004 0A46     		mov	r2, r1
 303:Lib/lvgl/src/misc/lv_style_gen.c ****     lv_style_value_t v = {
 1260              		.loc 1 303 5 is_stmt 1 view .LVU233
 1261              		.loc 1 303 22 is_stmt 0 view .LVU234
 1262 0006 0191     		str	r1, [sp, #4]
 304:Lib/lvgl/src/misc/lv_style_gen.c ****         .num = (int32_t)value
 305:Lib/lvgl/src/misc/lv_style_gen.c ****     };
 306:Lib/lvgl/src/misc/lv_style_gen.c ****     lv_style_set_prop(style, LV_STYLE_MARGIN_LEFT, v);
 1263              		.loc 1 306 5 is_stmt 1 view .LVU235
 1264 0008 1A21     		movs	r1, #26
 1265              	.LVL88:
 1266              		.loc 1 306 5 is_stmt 0 view .LVU236
 1267 000a FFF7FEFF 		bl	lv_style_set_prop
 1268              	.LVL89:
 307:Lib/lvgl/src/misc/lv_style_gen.c **** }
 1269              		.loc 1 307 1 view .LVU237
 1270 000e 03B0     		add	sp, sp, #12
 1271              	.LCFI89:
 1272              		.cfi_def_cfa_offset 4
 1273              		@ sp needed
 1274 0010 5DF804FB 		ldr	pc, [sp], #4
 1275              		.loc 1 307 1 view .LVU238
 1276              		.cfi_endproc
 1277              	.LFE111:
 1279              		.section	.text.lv_style_set_margin_right,"ax",%progbits
 1280              		.align	1
 1281              		.global	lv_style_set_margin_right
 1282              		.syntax unified
 1283              		.thumb
 1284              		.thumb_func
 1286              	lv_style_set_margin_right:
 1287              	.LVL90:
 1288              	.LFB112:
 308:Lib/lvgl/src/misc/lv_style_gen.c **** 
 309:Lib/lvgl/src/misc/lv_style_gen.c **** const lv_style_prop_t _lv_style_const_prop_id_MARGIN_LEFT = LV_STYLE_MARGIN_LEFT;
 310:Lib/lvgl/src/misc/lv_style_gen.c **** 
 311:Lib/lvgl/src/misc/lv_style_gen.c **** void lv_style_set_margin_right(lv_style_t * style, int32_t value)
 312:Lib/lvgl/src/misc/lv_style_gen.c **** {
ARM GAS  C:\Users\Alex\AppData\Local\Temp\ccl5l8V8.s 			page 28


 1289              		.loc 1 312 1 is_stmt 1 view -0
 1290              		.cfi_startproc
 1291              		@ args = 0, pretend = 0, frame = 8
 1292              		@ frame_needed = 0, uses_anonymous_args = 0
 1293              		.loc 1 312 1 is_stmt 0 view .LVU240
 1294 0000 00B5     		push	{lr}
 1295              	.LCFI90:
 1296              		.cfi_def_cfa_offset 4
 1297              		.cfi_offset 14, -4
 1298 0002 83B0     		sub	sp, sp, #12
 1299              	.LCFI91:
 1300              		.cfi_def_cfa_offset 16
 1301 0004 0A46     		mov	r2, r1
 313:Lib/lvgl/src/misc/lv_style_gen.c ****     lv_style_value_t v = {
 1302              		.loc 1 313 5 is_stmt 1 view .LVU241
 1303              		.loc 1 313 22 is_stmt 0 view .LVU242
 1304 0006 0191     		str	r1, [sp, #4]
 314:Lib/lvgl/src/misc/lv_style_gen.c ****         .num = (int32_t)value
 315:Lib/lvgl/src/misc/lv_style_gen.c ****     };
 316:Lib/lvgl/src/misc/lv_style_gen.c ****     lv_style_set_prop(style, LV_STYLE_MARGIN_RIGHT, v);
 1305              		.loc 1 316 5 is_stmt 1 view .LVU243
 1306 0008 1B21     		movs	r1, #27
 1307              	.LVL91:
 1308              		.loc 1 316 5 is_stmt 0 view .LVU244
 1309 000a FFF7FEFF 		bl	lv_style_set_prop
 1310              	.LVL92:
 317:Lib/lvgl/src/misc/lv_style_gen.c **** }
 1311              		.loc 1 317 1 view .LVU245
 1312 000e 03B0     		add	sp, sp, #12
 1313              	.LCFI92:
 1314              		.cfi_def_cfa_offset 4
 1315              		@ sp needed
 1316 0010 5DF804FB 		ldr	pc, [sp], #4
 1317              		.loc 1 317 1 view .LVU246
 1318              		.cfi_endproc
 1319              	.LFE112:
 1321              		.section	.text.lv_style_set_bg_color,"ax",%progbits
 1322              		.align	1
 1323              		.global	lv_style_set_bg_color
 1324              		.syntax unified
 1325              		.thumb
 1326              		.thumb_func
 1328              	lv_style_set_bg_color:
 1329              	.LVL93:
 1330              	.LFB113:
 318:Lib/lvgl/src/misc/lv_style_gen.c **** 
 319:Lib/lvgl/src/misc/lv_style_gen.c **** const lv_style_prop_t _lv_style_const_prop_id_MARGIN_RIGHT = LV_STYLE_MARGIN_RIGHT;
 320:Lib/lvgl/src/misc/lv_style_gen.c **** 
 321:Lib/lvgl/src/misc/lv_style_gen.c **** void lv_style_set_bg_color(lv_style_t * style, lv_color_t value)
 322:Lib/lvgl/src/misc/lv_style_gen.c **** {
 1331              		.loc 1 322 1 is_stmt 1 view -0
 1332              		.cfi_startproc
 1333              		@ args = 0, pretend = 0, frame = 16
 1334              		@ frame_needed = 0, uses_anonymous_args = 0
 1335              		.loc 1 322 1 is_stmt 0 view .LVU248
 1336 0000 00B5     		push	{lr}
 1337              	.LCFI93:
ARM GAS  C:\Users\Alex\AppData\Local\Temp\ccl5l8V8.s 			page 29


 1338              		.cfi_def_cfa_offset 4
 1339              		.cfi_offset 14, -4
 1340 0002 85B0     		sub	sp, sp, #20
 1341              	.LCFI94:
 1342              		.cfi_def_cfa_offset 24
 1343 0004 0191     		str	r1, [sp, #4]
 323:Lib/lvgl/src/misc/lv_style_gen.c ****     lv_style_value_t v = {
 1344              		.loc 1 323 5 is_stmt 1 view .LVU249
 1345              		.loc 1 323 22 is_stmt 0 view .LVU250
 1346 0006 0023     		movs	r3, #0
 1347 0008 0393     		str	r3, [sp, #12]
 1348 000a ADF80C10 		strh	r1, [sp, #12]	@ movhi
 1349 000e 0B0C     		lsrs	r3, r1, #16
 1350 0010 8DF80E30 		strb	r3, [sp, #14]
 324:Lib/lvgl/src/misc/lv_style_gen.c ****         .color = value
 325:Lib/lvgl/src/misc/lv_style_gen.c ****     };
 326:Lib/lvgl/src/misc/lv_style_gen.c ****     lv_style_set_prop(style, LV_STYLE_BG_COLOR, v);
 1351              		.loc 1 326 5 is_stmt 1 view .LVU251
 1352 0014 039A     		ldr	r2, [sp, #12]
 1353 0016 1C21     		movs	r1, #28
 1354 0018 FFF7FEFF 		bl	lv_style_set_prop
 1355              	.LVL94:
 327:Lib/lvgl/src/misc/lv_style_gen.c **** }
 1356              		.loc 1 327 1 is_stmt 0 view .LVU252
 1357 001c 05B0     		add	sp, sp, #20
 1358              	.LCFI95:
 1359              		.cfi_def_cfa_offset 4
 1360              		@ sp needed
 1361 001e 5DF804FB 		ldr	pc, [sp], #4
 1362              		.cfi_endproc
 1363              	.LFE113:
 1365              		.section	.text.lv_style_set_bg_opa,"ax",%progbits
 1366              		.align	1
 1367              		.global	lv_style_set_bg_opa
 1368              		.syntax unified
 1369              		.thumb
 1370              		.thumb_func
 1372              	lv_style_set_bg_opa:
 1373              	.LVL95:
 1374              	.LFB114:
 328:Lib/lvgl/src/misc/lv_style_gen.c **** 
 329:Lib/lvgl/src/misc/lv_style_gen.c **** const lv_style_prop_t _lv_style_const_prop_id_BG_COLOR = LV_STYLE_BG_COLOR;
 330:Lib/lvgl/src/misc/lv_style_gen.c **** 
 331:Lib/lvgl/src/misc/lv_style_gen.c **** void lv_style_set_bg_opa(lv_style_t * style, lv_opa_t value)
 332:Lib/lvgl/src/misc/lv_style_gen.c **** {
 1375              		.loc 1 332 1 is_stmt 1 view -0
 1376              		.cfi_startproc
 1377              		@ args = 0, pretend = 0, frame = 8
 1378              		@ frame_needed = 0, uses_anonymous_args = 0
 1379              		.loc 1 332 1 is_stmt 0 view .LVU254
 1380 0000 00B5     		push	{lr}
 1381              	.LCFI96:
 1382              		.cfi_def_cfa_offset 4
 1383              		.cfi_offset 14, -4
 1384 0002 83B0     		sub	sp, sp, #12
 1385              	.LCFI97:
 1386              		.cfi_def_cfa_offset 16
ARM GAS  C:\Users\Alex\AppData\Local\Temp\ccl5l8V8.s 			page 30


 1387 0004 0A46     		mov	r2, r1
 333:Lib/lvgl/src/misc/lv_style_gen.c ****     lv_style_value_t v = {
 1388              		.loc 1 333 5 is_stmt 1 view .LVU255
 1389              		.loc 1 333 22 is_stmt 0 view .LVU256
 1390 0006 0191     		str	r1, [sp, #4]
 334:Lib/lvgl/src/misc/lv_style_gen.c ****         .num = (int32_t)value
 335:Lib/lvgl/src/misc/lv_style_gen.c ****     };
 336:Lib/lvgl/src/misc/lv_style_gen.c ****     lv_style_set_prop(style, LV_STYLE_BG_OPA, v);
 1391              		.loc 1 336 5 is_stmt 1 view .LVU257
 1392 0008 1D21     		movs	r1, #29
 1393              	.LVL96:
 1394              		.loc 1 336 5 is_stmt 0 view .LVU258
 1395 000a FFF7FEFF 		bl	lv_style_set_prop
 1396              	.LVL97:
 337:Lib/lvgl/src/misc/lv_style_gen.c **** }
 1397              		.loc 1 337 1 view .LVU259
 1398 000e 03B0     		add	sp, sp, #12
 1399              	.LCFI98:
 1400              		.cfi_def_cfa_offset 4
 1401              		@ sp needed
 1402 0010 5DF804FB 		ldr	pc, [sp], #4
 1403              		.cfi_endproc
 1404              	.LFE114:
 1406              		.section	.text.lv_style_set_bg_grad_color,"ax",%progbits
 1407              		.align	1
 1408              		.global	lv_style_set_bg_grad_color
 1409              		.syntax unified
 1410              		.thumb
 1411              		.thumb_func
 1413              	lv_style_set_bg_grad_color:
 1414              	.LVL98:
 1415              	.LFB115:
 338:Lib/lvgl/src/misc/lv_style_gen.c **** 
 339:Lib/lvgl/src/misc/lv_style_gen.c **** const lv_style_prop_t _lv_style_const_prop_id_BG_OPA = LV_STYLE_BG_OPA;
 340:Lib/lvgl/src/misc/lv_style_gen.c **** 
 341:Lib/lvgl/src/misc/lv_style_gen.c **** void lv_style_set_bg_grad_color(lv_style_t * style, lv_color_t value)
 342:Lib/lvgl/src/misc/lv_style_gen.c **** {
 1416              		.loc 1 342 1 is_stmt 1 view -0
 1417              		.cfi_startproc
 1418              		@ args = 0, pretend = 0, frame = 16
 1419              		@ frame_needed = 0, uses_anonymous_args = 0
 1420              		.loc 1 342 1 is_stmt 0 view .LVU261
 1421 0000 00B5     		push	{lr}
 1422              	.LCFI99:
 1423              		.cfi_def_cfa_offset 4
 1424              		.cfi_offset 14, -4
 1425 0002 85B0     		sub	sp, sp, #20
 1426              	.LCFI100:
 1427              		.cfi_def_cfa_offset 24
 1428 0004 0191     		str	r1, [sp, #4]
 343:Lib/lvgl/src/misc/lv_style_gen.c ****     lv_style_value_t v = {
 1429              		.loc 1 343 5 is_stmt 1 view .LVU262
 1430              		.loc 1 343 22 is_stmt 0 view .LVU263
 1431 0006 0023     		movs	r3, #0
 1432 0008 0393     		str	r3, [sp, #12]
 1433 000a ADF80C10 		strh	r1, [sp, #12]	@ movhi
 1434 000e 0B0C     		lsrs	r3, r1, #16
ARM GAS  C:\Users\Alex\AppData\Local\Temp\ccl5l8V8.s 			page 31


 1435 0010 8DF80E30 		strb	r3, [sp, #14]
 344:Lib/lvgl/src/misc/lv_style_gen.c ****         .color = value
 345:Lib/lvgl/src/misc/lv_style_gen.c ****     };
 346:Lib/lvgl/src/misc/lv_style_gen.c ****     lv_style_set_prop(style, LV_STYLE_BG_GRAD_COLOR, v);
 1436              		.loc 1 346 5 is_stmt 1 view .LVU264
 1437 0014 039A     		ldr	r2, [sp, #12]
 1438 0016 2321     		movs	r1, #35
 1439 0018 FFF7FEFF 		bl	lv_style_set_prop
 1440              	.LVL99:
 347:Lib/lvgl/src/misc/lv_style_gen.c **** }
 1441              		.loc 1 347 1 is_stmt 0 view .LVU265
 1442 001c 05B0     		add	sp, sp, #20
 1443              	.LCFI101:
 1444              		.cfi_def_cfa_offset 4
 1445              		@ sp needed
 1446 001e 5DF804FB 		ldr	pc, [sp], #4
 1447              		.cfi_endproc
 1448              	.LFE115:
 1450              		.section	.text.lv_style_set_bg_grad_dir,"ax",%progbits
 1451              		.align	1
 1452              		.global	lv_style_set_bg_grad_dir
 1453              		.syntax unified
 1454              		.thumb
 1455              		.thumb_func
 1457              	lv_style_set_bg_grad_dir:
 1458              	.LVL100:
 1459              	.LFB116:
 348:Lib/lvgl/src/misc/lv_style_gen.c **** 
 349:Lib/lvgl/src/misc/lv_style_gen.c **** const lv_style_prop_t _lv_style_const_prop_id_BG_GRAD_COLOR = LV_STYLE_BG_GRAD_COLOR;
 350:Lib/lvgl/src/misc/lv_style_gen.c **** 
 351:Lib/lvgl/src/misc/lv_style_gen.c **** void lv_style_set_bg_grad_dir(lv_style_t * style, lv_grad_dir_t value)
 352:Lib/lvgl/src/misc/lv_style_gen.c **** {
 1460              		.loc 1 352 1 is_stmt 1 view -0
 1461              		.cfi_startproc
 1462              		@ args = 0, pretend = 0, frame = 8
 1463              		@ frame_needed = 0, uses_anonymous_args = 0
 1464              		.loc 1 352 1 is_stmt 0 view .LVU267
 1465 0000 00B5     		push	{lr}
 1466              	.LCFI102:
 1467              		.cfi_def_cfa_offset 4
 1468              		.cfi_offset 14, -4
 1469 0002 83B0     		sub	sp, sp, #12
 1470              	.LCFI103:
 1471              		.cfi_def_cfa_offset 16
 1472 0004 0A46     		mov	r2, r1
 353:Lib/lvgl/src/misc/lv_style_gen.c ****     lv_style_value_t v = {
 1473              		.loc 1 353 5 is_stmt 1 view .LVU268
 1474              		.loc 1 353 22 is_stmt 0 view .LVU269
 1475 0006 0191     		str	r1, [sp, #4]
 354:Lib/lvgl/src/misc/lv_style_gen.c ****         .num = (int32_t)value
 355:Lib/lvgl/src/misc/lv_style_gen.c ****     };
 356:Lib/lvgl/src/misc/lv_style_gen.c ****     lv_style_set_prop(style, LV_STYLE_BG_GRAD_DIR, v);
 1476              		.loc 1 356 5 is_stmt 1 view .LVU270
 1477 0008 2021     		movs	r1, #32
 1478              	.LVL101:
 1479              		.loc 1 356 5 is_stmt 0 view .LVU271
 1480 000a FFF7FEFF 		bl	lv_style_set_prop
ARM GAS  C:\Users\Alex\AppData\Local\Temp\ccl5l8V8.s 			page 32


 1481              	.LVL102:
 357:Lib/lvgl/src/misc/lv_style_gen.c **** }
 1482              		.loc 1 357 1 view .LVU272
 1483 000e 03B0     		add	sp, sp, #12
 1484              	.LCFI104:
 1485              		.cfi_def_cfa_offset 4
 1486              		@ sp needed
 1487 0010 5DF804FB 		ldr	pc, [sp], #4
 1488              		.cfi_endproc
 1489              	.LFE116:
 1491              		.section	.text.lv_style_set_bg_main_stop,"ax",%progbits
 1492              		.align	1
 1493              		.global	lv_style_set_bg_main_stop
 1494              		.syntax unified
 1495              		.thumb
 1496              		.thumb_func
 1498              	lv_style_set_bg_main_stop:
 1499              	.LVL103:
 1500              	.LFB117:
 358:Lib/lvgl/src/misc/lv_style_gen.c **** 
 359:Lib/lvgl/src/misc/lv_style_gen.c **** const lv_style_prop_t _lv_style_const_prop_id_BG_GRAD_DIR = LV_STYLE_BG_GRAD_DIR;
 360:Lib/lvgl/src/misc/lv_style_gen.c **** 
 361:Lib/lvgl/src/misc/lv_style_gen.c **** void lv_style_set_bg_main_stop(lv_style_t * style, int32_t value)
 362:Lib/lvgl/src/misc/lv_style_gen.c **** {
 1501              		.loc 1 362 1 is_stmt 1 view -0
 1502              		.cfi_startproc
 1503              		@ args = 0, pretend = 0, frame = 8
 1504              		@ frame_needed = 0, uses_anonymous_args = 0
 1505              		.loc 1 362 1 is_stmt 0 view .LVU274
 1506 0000 00B5     		push	{lr}
 1507              	.LCFI105:
 1508              		.cfi_def_cfa_offset 4
 1509              		.cfi_offset 14, -4
 1510 0002 83B0     		sub	sp, sp, #12
 1511              	.LCFI106:
 1512              		.cfi_def_cfa_offset 16
 1513 0004 0A46     		mov	r2, r1
 363:Lib/lvgl/src/misc/lv_style_gen.c ****     lv_style_value_t v = {
 1514              		.loc 1 363 5 is_stmt 1 view .LVU275
 1515              		.loc 1 363 22 is_stmt 0 view .LVU276
 1516 0006 0191     		str	r1, [sp, #4]
 364:Lib/lvgl/src/misc/lv_style_gen.c ****         .num = (int32_t)value
 365:Lib/lvgl/src/misc/lv_style_gen.c ****     };
 366:Lib/lvgl/src/misc/lv_style_gen.c ****     lv_style_set_prop(style, LV_STYLE_BG_MAIN_STOP, v);
 1517              		.loc 1 366 5 is_stmt 1 view .LVU277
 1518 0008 2121     		movs	r1, #33
 1519              	.LVL104:
 1520              		.loc 1 366 5 is_stmt 0 view .LVU278
 1521 000a FFF7FEFF 		bl	lv_style_set_prop
 1522              	.LVL105:
 367:Lib/lvgl/src/misc/lv_style_gen.c **** }
 1523              		.loc 1 367 1 view .LVU279
 1524 000e 03B0     		add	sp, sp, #12
 1525              	.LCFI107:
 1526              		.cfi_def_cfa_offset 4
 1527              		@ sp needed
 1528 0010 5DF804FB 		ldr	pc, [sp], #4
ARM GAS  C:\Users\Alex\AppData\Local\Temp\ccl5l8V8.s 			page 33


 1529              		.loc 1 367 1 view .LVU280
 1530              		.cfi_endproc
 1531              	.LFE117:
 1533              		.section	.text.lv_style_set_bg_grad_stop,"ax",%progbits
 1534              		.align	1
 1535              		.global	lv_style_set_bg_grad_stop
 1536              		.syntax unified
 1537              		.thumb
 1538              		.thumb_func
 1540              	lv_style_set_bg_grad_stop:
 1541              	.LVL106:
 1542              	.LFB118:
 368:Lib/lvgl/src/misc/lv_style_gen.c **** 
 369:Lib/lvgl/src/misc/lv_style_gen.c **** const lv_style_prop_t _lv_style_const_prop_id_BG_MAIN_STOP = LV_STYLE_BG_MAIN_STOP;
 370:Lib/lvgl/src/misc/lv_style_gen.c **** 
 371:Lib/lvgl/src/misc/lv_style_gen.c **** void lv_style_set_bg_grad_stop(lv_style_t * style, int32_t value)
 372:Lib/lvgl/src/misc/lv_style_gen.c **** {
 1543              		.loc 1 372 1 is_stmt 1 view -0
 1544              		.cfi_startproc
 1545              		@ args = 0, pretend = 0, frame = 8
 1546              		@ frame_needed = 0, uses_anonymous_args = 0
 1547              		.loc 1 372 1 is_stmt 0 view .LVU282
 1548 0000 00B5     		push	{lr}
 1549              	.LCFI108:
 1550              		.cfi_def_cfa_offset 4
 1551              		.cfi_offset 14, -4
 1552 0002 83B0     		sub	sp, sp, #12
 1553              	.LCFI109:
 1554              		.cfi_def_cfa_offset 16
 1555 0004 0A46     		mov	r2, r1
 373:Lib/lvgl/src/misc/lv_style_gen.c ****     lv_style_value_t v = {
 1556              		.loc 1 373 5 is_stmt 1 view .LVU283
 1557              		.loc 1 373 22 is_stmt 0 view .LVU284
 1558 0006 0191     		str	r1, [sp, #4]
 374:Lib/lvgl/src/misc/lv_style_gen.c ****         .num = (int32_t)value
 375:Lib/lvgl/src/misc/lv_style_gen.c ****     };
 376:Lib/lvgl/src/misc/lv_style_gen.c ****     lv_style_set_prop(style, LV_STYLE_BG_GRAD_STOP, v);
 1559              		.loc 1 376 5 is_stmt 1 view .LVU285
 1560 0008 2221     		movs	r1, #34
 1561              	.LVL107:
 1562              		.loc 1 376 5 is_stmt 0 view .LVU286
 1563 000a FFF7FEFF 		bl	lv_style_set_prop
 1564              	.LVL108:
 377:Lib/lvgl/src/misc/lv_style_gen.c **** }
 1565              		.loc 1 377 1 view .LVU287
 1566 000e 03B0     		add	sp, sp, #12
 1567              	.LCFI110:
 1568              		.cfi_def_cfa_offset 4
 1569              		@ sp needed
 1570 0010 5DF804FB 		ldr	pc, [sp], #4
 1571              		.loc 1 377 1 view .LVU288
 1572              		.cfi_endproc
 1573              	.LFE118:
 1575              		.section	.text.lv_style_set_bg_main_opa,"ax",%progbits
 1576              		.align	1
 1577              		.global	lv_style_set_bg_main_opa
 1578              		.syntax unified
ARM GAS  C:\Users\Alex\AppData\Local\Temp\ccl5l8V8.s 			page 34


 1579              		.thumb
 1580              		.thumb_func
 1582              	lv_style_set_bg_main_opa:
 1583              	.LVL109:
 1584              	.LFB119:
 378:Lib/lvgl/src/misc/lv_style_gen.c **** 
 379:Lib/lvgl/src/misc/lv_style_gen.c **** const lv_style_prop_t _lv_style_const_prop_id_BG_GRAD_STOP = LV_STYLE_BG_GRAD_STOP;
 380:Lib/lvgl/src/misc/lv_style_gen.c **** 
 381:Lib/lvgl/src/misc/lv_style_gen.c **** void lv_style_set_bg_main_opa(lv_style_t * style, lv_opa_t value)
 382:Lib/lvgl/src/misc/lv_style_gen.c **** {
 1585              		.loc 1 382 1 is_stmt 1 view -0
 1586              		.cfi_startproc
 1587              		@ args = 0, pretend = 0, frame = 8
 1588              		@ frame_needed = 0, uses_anonymous_args = 0
 1589              		.loc 1 382 1 is_stmt 0 view .LVU290
 1590 0000 00B5     		push	{lr}
 1591              	.LCFI111:
 1592              		.cfi_def_cfa_offset 4
 1593              		.cfi_offset 14, -4
 1594 0002 83B0     		sub	sp, sp, #12
 1595              	.LCFI112:
 1596              		.cfi_def_cfa_offset 16
 1597 0004 0A46     		mov	r2, r1
 383:Lib/lvgl/src/misc/lv_style_gen.c ****     lv_style_value_t v = {
 1598              		.loc 1 383 5 is_stmt 1 view .LVU291
 1599              		.loc 1 383 22 is_stmt 0 view .LVU292
 1600 0006 0191     		str	r1, [sp, #4]
 384:Lib/lvgl/src/misc/lv_style_gen.c ****         .num = (int32_t)value
 385:Lib/lvgl/src/misc/lv_style_gen.c ****     };
 386:Lib/lvgl/src/misc/lv_style_gen.c ****     lv_style_set_prop(style, LV_STYLE_BG_MAIN_OPA, v);
 1601              		.loc 1 386 5 is_stmt 1 view .LVU293
 1602 0008 2421     		movs	r1, #36
 1603              	.LVL110:
 1604              		.loc 1 386 5 is_stmt 0 view .LVU294
 1605 000a FFF7FEFF 		bl	lv_style_set_prop
 1606              	.LVL111:
 387:Lib/lvgl/src/misc/lv_style_gen.c **** }
 1607              		.loc 1 387 1 view .LVU295
 1608 000e 03B0     		add	sp, sp, #12
 1609              	.LCFI113:
 1610              		.cfi_def_cfa_offset 4
 1611              		@ sp needed
 1612 0010 5DF804FB 		ldr	pc, [sp], #4
 1613              		.cfi_endproc
 1614              	.LFE119:
 1616              		.section	.text.lv_style_set_bg_grad_opa,"ax",%progbits
 1617              		.align	1
 1618              		.global	lv_style_set_bg_grad_opa
 1619              		.syntax unified
 1620              		.thumb
 1621              		.thumb_func
 1623              	lv_style_set_bg_grad_opa:
 1624              	.LVL112:
 1625              	.LFB120:
 388:Lib/lvgl/src/misc/lv_style_gen.c **** 
 389:Lib/lvgl/src/misc/lv_style_gen.c **** const lv_style_prop_t _lv_style_const_prop_id_BG_MAIN_OPA = LV_STYLE_BG_MAIN_OPA;
 390:Lib/lvgl/src/misc/lv_style_gen.c **** 
ARM GAS  C:\Users\Alex\AppData\Local\Temp\ccl5l8V8.s 			page 35


 391:Lib/lvgl/src/misc/lv_style_gen.c **** void lv_style_set_bg_grad_opa(lv_style_t * style, lv_opa_t value)
 392:Lib/lvgl/src/misc/lv_style_gen.c **** {
 1626              		.loc 1 392 1 is_stmt 1 view -0
 1627              		.cfi_startproc
 1628              		@ args = 0, pretend = 0, frame = 8
 1629              		@ frame_needed = 0, uses_anonymous_args = 0
 1630              		.loc 1 392 1 is_stmt 0 view .LVU297
 1631 0000 00B5     		push	{lr}
 1632              	.LCFI114:
 1633              		.cfi_def_cfa_offset 4
 1634              		.cfi_offset 14, -4
 1635 0002 83B0     		sub	sp, sp, #12
 1636              	.LCFI115:
 1637              		.cfi_def_cfa_offset 16
 1638 0004 0A46     		mov	r2, r1
 393:Lib/lvgl/src/misc/lv_style_gen.c ****     lv_style_value_t v = {
 1639              		.loc 1 393 5 is_stmt 1 view .LVU298
 1640              		.loc 1 393 22 is_stmt 0 view .LVU299
 1641 0006 0191     		str	r1, [sp, #4]
 394:Lib/lvgl/src/misc/lv_style_gen.c ****         .num = (int32_t)value
 395:Lib/lvgl/src/misc/lv_style_gen.c ****     };
 396:Lib/lvgl/src/misc/lv_style_gen.c ****     lv_style_set_prop(style, LV_STYLE_BG_GRAD_OPA, v);
 1642              		.loc 1 396 5 is_stmt 1 view .LVU300
 1643 0008 2521     		movs	r1, #37
 1644              	.LVL113:
 1645              		.loc 1 396 5 is_stmt 0 view .LVU301
 1646 000a FFF7FEFF 		bl	lv_style_set_prop
 1647              	.LVL114:
 397:Lib/lvgl/src/misc/lv_style_gen.c **** }
 1648              		.loc 1 397 1 view .LVU302
 1649 000e 03B0     		add	sp, sp, #12
 1650              	.LCFI116:
 1651              		.cfi_def_cfa_offset 4
 1652              		@ sp needed
 1653 0010 5DF804FB 		ldr	pc, [sp], #4
 1654              		.cfi_endproc
 1655              	.LFE120:
 1657              		.section	.text.lv_style_set_bg_grad,"ax",%progbits
 1658              		.align	1
 1659              		.global	lv_style_set_bg_grad
 1660              		.syntax unified
 1661              		.thumb
 1662              		.thumb_func
 1664              	lv_style_set_bg_grad:
 1665              	.LVL115:
 1666              	.LFB121:
 398:Lib/lvgl/src/misc/lv_style_gen.c **** 
 399:Lib/lvgl/src/misc/lv_style_gen.c **** const lv_style_prop_t _lv_style_const_prop_id_BG_GRAD_OPA = LV_STYLE_BG_GRAD_OPA;
 400:Lib/lvgl/src/misc/lv_style_gen.c **** 
 401:Lib/lvgl/src/misc/lv_style_gen.c **** void lv_style_set_bg_grad(lv_style_t * style, const lv_grad_dsc_t * value)
 402:Lib/lvgl/src/misc/lv_style_gen.c **** {
 1667              		.loc 1 402 1 is_stmt 1 view -0
 1668              		.cfi_startproc
 1669              		@ args = 0, pretend = 0, frame = 8
 1670              		@ frame_needed = 0, uses_anonymous_args = 0
 1671              		.loc 1 402 1 is_stmt 0 view .LVU304
 1672 0000 00B5     		push	{lr}
ARM GAS  C:\Users\Alex\AppData\Local\Temp\ccl5l8V8.s 			page 36


 1673              	.LCFI117:
 1674              		.cfi_def_cfa_offset 4
 1675              		.cfi_offset 14, -4
 1676 0002 83B0     		sub	sp, sp, #12
 1677              	.LCFI118:
 1678              		.cfi_def_cfa_offset 16
 1679 0004 0A46     		mov	r2, r1
 403:Lib/lvgl/src/misc/lv_style_gen.c ****     lv_style_value_t v = {
 1680              		.loc 1 403 5 is_stmt 1 view .LVU305
 1681              		.loc 1 403 22 is_stmt 0 view .LVU306
 1682 0006 0191     		str	r1, [sp, #4]
 404:Lib/lvgl/src/misc/lv_style_gen.c ****         .ptr = value
 405:Lib/lvgl/src/misc/lv_style_gen.c ****     };
 406:Lib/lvgl/src/misc/lv_style_gen.c ****     lv_style_set_prop(style, LV_STYLE_BG_GRAD, v);
 1683              		.loc 1 406 5 is_stmt 1 view .LVU307
 1684 0008 2621     		movs	r1, #38
 1685              	.LVL116:
 1686              		.loc 1 406 5 is_stmt 0 view .LVU308
 1687 000a FFF7FEFF 		bl	lv_style_set_prop
 1688              	.LVL117:
 407:Lib/lvgl/src/misc/lv_style_gen.c **** }
 1689              		.loc 1 407 1 view .LVU309
 1690 000e 03B0     		add	sp, sp, #12
 1691              	.LCFI119:
 1692              		.cfi_def_cfa_offset 4
 1693              		@ sp needed
 1694 0010 5DF804FB 		ldr	pc, [sp], #4
 1695              		.loc 1 407 1 view .LVU310
 1696              		.cfi_endproc
 1697              	.LFE121:
 1699              		.section	.text.lv_style_set_bg_image_src,"ax",%progbits
 1700              		.align	1
 1701              		.global	lv_style_set_bg_image_src
 1702              		.syntax unified
 1703              		.thumb
 1704              		.thumb_func
 1706              	lv_style_set_bg_image_src:
 1707              	.LVL118:
 1708              	.LFB122:
 408:Lib/lvgl/src/misc/lv_style_gen.c **** 
 409:Lib/lvgl/src/misc/lv_style_gen.c **** const lv_style_prop_t _lv_style_const_prop_id_BG_GRAD = LV_STYLE_BG_GRAD;
 410:Lib/lvgl/src/misc/lv_style_gen.c **** 
 411:Lib/lvgl/src/misc/lv_style_gen.c **** void lv_style_set_bg_image_src(lv_style_t * style, const void * value)
 412:Lib/lvgl/src/misc/lv_style_gen.c **** {
 1709              		.loc 1 412 1 is_stmt 1 view -0
 1710              		.cfi_startproc
 1711              		@ args = 0, pretend = 0, frame = 8
 1712              		@ frame_needed = 0, uses_anonymous_args = 0
 1713              		.loc 1 412 1 is_stmt 0 view .LVU312
 1714 0000 00B5     		push	{lr}
 1715              	.LCFI120:
 1716              		.cfi_def_cfa_offset 4
 1717              		.cfi_offset 14, -4
 1718 0002 83B0     		sub	sp, sp, #12
 1719              	.LCFI121:
 1720              		.cfi_def_cfa_offset 16
 1721 0004 0A46     		mov	r2, r1
ARM GAS  C:\Users\Alex\AppData\Local\Temp\ccl5l8V8.s 			page 37


 413:Lib/lvgl/src/misc/lv_style_gen.c ****     lv_style_value_t v = {
 1722              		.loc 1 413 5 is_stmt 1 view .LVU313
 1723              		.loc 1 413 22 is_stmt 0 view .LVU314
 1724 0006 0191     		str	r1, [sp, #4]
 414:Lib/lvgl/src/misc/lv_style_gen.c ****         .ptr = value
 415:Lib/lvgl/src/misc/lv_style_gen.c ****     };
 416:Lib/lvgl/src/misc/lv_style_gen.c ****     lv_style_set_prop(style, LV_STYLE_BG_IMAGE_SRC, v);
 1725              		.loc 1 416 5 is_stmt 1 view .LVU315
 1726 0008 2821     		movs	r1, #40
 1727              	.LVL119:
 1728              		.loc 1 416 5 is_stmt 0 view .LVU316
 1729 000a FFF7FEFF 		bl	lv_style_set_prop
 1730              	.LVL120:
 417:Lib/lvgl/src/misc/lv_style_gen.c **** }
 1731              		.loc 1 417 1 view .LVU317
 1732 000e 03B0     		add	sp, sp, #12
 1733              	.LCFI122:
 1734              		.cfi_def_cfa_offset 4
 1735              		@ sp needed
 1736 0010 5DF804FB 		ldr	pc, [sp], #4
 1737              		.loc 1 417 1 view .LVU318
 1738              		.cfi_endproc
 1739              	.LFE122:
 1741              		.section	.text.lv_style_set_bg_image_opa,"ax",%progbits
 1742              		.align	1
 1743              		.global	lv_style_set_bg_image_opa
 1744              		.syntax unified
 1745              		.thumb
 1746              		.thumb_func
 1748              	lv_style_set_bg_image_opa:
 1749              	.LVL121:
 1750              	.LFB123:
 418:Lib/lvgl/src/misc/lv_style_gen.c **** 
 419:Lib/lvgl/src/misc/lv_style_gen.c **** const lv_style_prop_t _lv_style_const_prop_id_BG_IMAGE_SRC = LV_STYLE_BG_IMAGE_SRC;
 420:Lib/lvgl/src/misc/lv_style_gen.c **** 
 421:Lib/lvgl/src/misc/lv_style_gen.c **** void lv_style_set_bg_image_opa(lv_style_t * style, lv_opa_t value)
 422:Lib/lvgl/src/misc/lv_style_gen.c **** {
 1751              		.loc 1 422 1 is_stmt 1 view -0
 1752              		.cfi_startproc
 1753              		@ args = 0, pretend = 0, frame = 8
 1754              		@ frame_needed = 0, uses_anonymous_args = 0
 1755              		.loc 1 422 1 is_stmt 0 view .LVU320
 1756 0000 00B5     		push	{lr}
 1757              	.LCFI123:
 1758              		.cfi_def_cfa_offset 4
 1759              		.cfi_offset 14, -4
 1760 0002 83B0     		sub	sp, sp, #12
 1761              	.LCFI124:
 1762              		.cfi_def_cfa_offset 16
 1763 0004 0A46     		mov	r2, r1
 423:Lib/lvgl/src/misc/lv_style_gen.c ****     lv_style_value_t v = {
 1764              		.loc 1 423 5 is_stmt 1 view .LVU321
 1765              		.loc 1 423 22 is_stmt 0 view .LVU322
 1766 0006 0191     		str	r1, [sp, #4]
 424:Lib/lvgl/src/misc/lv_style_gen.c ****         .num = (int32_t)value
 425:Lib/lvgl/src/misc/lv_style_gen.c ****     };
 426:Lib/lvgl/src/misc/lv_style_gen.c ****     lv_style_set_prop(style, LV_STYLE_BG_IMAGE_OPA, v);
ARM GAS  C:\Users\Alex\AppData\Local\Temp\ccl5l8V8.s 			page 38


 1767              		.loc 1 426 5 is_stmt 1 view .LVU323
 1768 0008 2921     		movs	r1, #41
 1769              	.LVL122:
 1770              		.loc 1 426 5 is_stmt 0 view .LVU324
 1771 000a FFF7FEFF 		bl	lv_style_set_prop
 1772              	.LVL123:
 427:Lib/lvgl/src/misc/lv_style_gen.c **** }
 1773              		.loc 1 427 1 view .LVU325
 1774 000e 03B0     		add	sp, sp, #12
 1775              	.LCFI125:
 1776              		.cfi_def_cfa_offset 4
 1777              		@ sp needed
 1778 0010 5DF804FB 		ldr	pc, [sp], #4
 1779              		.cfi_endproc
 1780              	.LFE123:
 1782              		.section	.text.lv_style_set_bg_image_recolor,"ax",%progbits
 1783              		.align	1
 1784              		.global	lv_style_set_bg_image_recolor
 1785              		.syntax unified
 1786              		.thumb
 1787              		.thumb_func
 1789              	lv_style_set_bg_image_recolor:
 1790              	.LVL124:
 1791              	.LFB124:
 428:Lib/lvgl/src/misc/lv_style_gen.c **** 
 429:Lib/lvgl/src/misc/lv_style_gen.c **** const lv_style_prop_t _lv_style_const_prop_id_BG_IMAGE_OPA = LV_STYLE_BG_IMAGE_OPA;
 430:Lib/lvgl/src/misc/lv_style_gen.c **** 
 431:Lib/lvgl/src/misc/lv_style_gen.c **** void lv_style_set_bg_image_recolor(lv_style_t * style, lv_color_t value)
 432:Lib/lvgl/src/misc/lv_style_gen.c **** {
 1792              		.loc 1 432 1 is_stmt 1 view -0
 1793              		.cfi_startproc
 1794              		@ args = 0, pretend = 0, frame = 16
 1795              		@ frame_needed = 0, uses_anonymous_args = 0
 1796              		.loc 1 432 1 is_stmt 0 view .LVU327
 1797 0000 00B5     		push	{lr}
 1798              	.LCFI126:
 1799              		.cfi_def_cfa_offset 4
 1800              		.cfi_offset 14, -4
 1801 0002 85B0     		sub	sp, sp, #20
 1802              	.LCFI127:
 1803              		.cfi_def_cfa_offset 24
 1804 0004 0191     		str	r1, [sp, #4]
 433:Lib/lvgl/src/misc/lv_style_gen.c ****     lv_style_value_t v = {
 1805              		.loc 1 433 5 is_stmt 1 view .LVU328
 1806              		.loc 1 433 22 is_stmt 0 view .LVU329
 1807 0006 0023     		movs	r3, #0
 1808 0008 0393     		str	r3, [sp, #12]
 1809 000a ADF80C10 		strh	r1, [sp, #12]	@ movhi
 1810 000e 0B0C     		lsrs	r3, r1, #16
 1811 0010 8DF80E30 		strb	r3, [sp, #14]
 434:Lib/lvgl/src/misc/lv_style_gen.c ****         .color = value
 435:Lib/lvgl/src/misc/lv_style_gen.c ****     };
 436:Lib/lvgl/src/misc/lv_style_gen.c ****     lv_style_set_prop(style, LV_STYLE_BG_IMAGE_RECOLOR, v);
 1812              		.loc 1 436 5 is_stmt 1 view .LVU330
 1813 0014 039A     		ldr	r2, [sp, #12]
 1814 0016 2A21     		movs	r1, #42
 1815 0018 FFF7FEFF 		bl	lv_style_set_prop
ARM GAS  C:\Users\Alex\AppData\Local\Temp\ccl5l8V8.s 			page 39


 1816              	.LVL125:
 437:Lib/lvgl/src/misc/lv_style_gen.c **** }
 1817              		.loc 1 437 1 is_stmt 0 view .LVU331
 1818 001c 05B0     		add	sp, sp, #20
 1819              	.LCFI128:
 1820              		.cfi_def_cfa_offset 4
 1821              		@ sp needed
 1822 001e 5DF804FB 		ldr	pc, [sp], #4
 1823              		.cfi_endproc
 1824              	.LFE124:
 1826              		.section	.text.lv_style_set_bg_image_recolor_opa,"ax",%progbits
 1827              		.align	1
 1828              		.global	lv_style_set_bg_image_recolor_opa
 1829              		.syntax unified
 1830              		.thumb
 1831              		.thumb_func
 1833              	lv_style_set_bg_image_recolor_opa:
 1834              	.LVL126:
 1835              	.LFB125:
 438:Lib/lvgl/src/misc/lv_style_gen.c **** 
 439:Lib/lvgl/src/misc/lv_style_gen.c **** const lv_style_prop_t _lv_style_const_prop_id_BG_IMAGE_RECOLOR = LV_STYLE_BG_IMAGE_RECOLOR;
 440:Lib/lvgl/src/misc/lv_style_gen.c **** 
 441:Lib/lvgl/src/misc/lv_style_gen.c **** void lv_style_set_bg_image_recolor_opa(lv_style_t * style, lv_opa_t value)
 442:Lib/lvgl/src/misc/lv_style_gen.c **** {
 1836              		.loc 1 442 1 is_stmt 1 view -0
 1837              		.cfi_startproc
 1838              		@ args = 0, pretend = 0, frame = 8
 1839              		@ frame_needed = 0, uses_anonymous_args = 0
 1840              		.loc 1 442 1 is_stmt 0 view .LVU333
 1841 0000 00B5     		push	{lr}
 1842              	.LCFI129:
 1843              		.cfi_def_cfa_offset 4
 1844              		.cfi_offset 14, -4
 1845 0002 83B0     		sub	sp, sp, #12
 1846              	.LCFI130:
 1847              		.cfi_def_cfa_offset 16
 1848 0004 0A46     		mov	r2, r1
 443:Lib/lvgl/src/misc/lv_style_gen.c ****     lv_style_value_t v = {
 1849              		.loc 1 443 5 is_stmt 1 view .LVU334
 1850              		.loc 1 443 22 is_stmt 0 view .LVU335
 1851 0006 0191     		str	r1, [sp, #4]
 444:Lib/lvgl/src/misc/lv_style_gen.c ****         .num = (int32_t)value
 445:Lib/lvgl/src/misc/lv_style_gen.c ****     };
 446:Lib/lvgl/src/misc/lv_style_gen.c ****     lv_style_set_prop(style, LV_STYLE_BG_IMAGE_RECOLOR_OPA, v);
 1852              		.loc 1 446 5 is_stmt 1 view .LVU336
 1853 0008 2B21     		movs	r1, #43
 1854              	.LVL127:
 1855              		.loc 1 446 5 is_stmt 0 view .LVU337
 1856 000a FFF7FEFF 		bl	lv_style_set_prop
 1857              	.LVL128:
 447:Lib/lvgl/src/misc/lv_style_gen.c **** }
 1858              		.loc 1 447 1 view .LVU338
 1859 000e 03B0     		add	sp, sp, #12
 1860              	.LCFI131:
 1861              		.cfi_def_cfa_offset 4
 1862              		@ sp needed
 1863 0010 5DF804FB 		ldr	pc, [sp], #4
ARM GAS  C:\Users\Alex\AppData\Local\Temp\ccl5l8V8.s 			page 40


 1864              		.cfi_endproc
 1865              	.LFE125:
 1867              		.section	.text.lv_style_set_bg_image_tiled,"ax",%progbits
 1868              		.align	1
 1869              		.global	lv_style_set_bg_image_tiled
 1870              		.syntax unified
 1871              		.thumb
 1872              		.thumb_func
 1874              	lv_style_set_bg_image_tiled:
 1875              	.LVL129:
 1876              	.LFB126:
 448:Lib/lvgl/src/misc/lv_style_gen.c **** 
 449:Lib/lvgl/src/misc/lv_style_gen.c **** const lv_style_prop_t _lv_style_const_prop_id_BG_IMAGE_RECOLOR_OPA = LV_STYLE_BG_IMAGE_RECOLOR_OPA;
 450:Lib/lvgl/src/misc/lv_style_gen.c **** 
 451:Lib/lvgl/src/misc/lv_style_gen.c **** void lv_style_set_bg_image_tiled(lv_style_t * style, bool value)
 452:Lib/lvgl/src/misc/lv_style_gen.c **** {
 1877              		.loc 1 452 1 is_stmt 1 view -0
 1878              		.cfi_startproc
 1879              		@ args = 0, pretend = 0, frame = 8
 1880              		@ frame_needed = 0, uses_anonymous_args = 0
 1881              		.loc 1 452 1 is_stmt 0 view .LVU340
 1882 0000 00B5     		push	{lr}
 1883              	.LCFI132:
 1884              		.cfi_def_cfa_offset 4
 1885              		.cfi_offset 14, -4
 1886 0002 83B0     		sub	sp, sp, #12
 1887              	.LCFI133:
 1888              		.cfi_def_cfa_offset 16
 1889 0004 0A46     		mov	r2, r1
 453:Lib/lvgl/src/misc/lv_style_gen.c ****     lv_style_value_t v = {
 1890              		.loc 1 453 5 is_stmt 1 view .LVU341
 1891              		.loc 1 453 22 is_stmt 0 view .LVU342
 1892 0006 0191     		str	r1, [sp, #4]
 454:Lib/lvgl/src/misc/lv_style_gen.c ****         .num = (int32_t)value
 455:Lib/lvgl/src/misc/lv_style_gen.c ****     };
 456:Lib/lvgl/src/misc/lv_style_gen.c ****     lv_style_set_prop(style, LV_STYLE_BG_IMAGE_TILED, v);
 1893              		.loc 1 456 5 is_stmt 1 view .LVU343
 1894 0008 2C21     		movs	r1, #44
 1895              	.LVL130:
 1896              		.loc 1 456 5 is_stmt 0 view .LVU344
 1897 000a FFF7FEFF 		bl	lv_style_set_prop
 1898              	.LVL131:
 457:Lib/lvgl/src/misc/lv_style_gen.c **** }
 1899              		.loc 1 457 1 view .LVU345
 1900 000e 03B0     		add	sp, sp, #12
 1901              	.LCFI134:
 1902              		.cfi_def_cfa_offset 4
 1903              		@ sp needed
 1904 0010 5DF804FB 		ldr	pc, [sp], #4
 1905              		.cfi_endproc
 1906              	.LFE126:
 1908              		.section	.text.lv_style_set_border_color,"ax",%progbits
 1909              		.align	1
 1910              		.global	lv_style_set_border_color
 1911              		.syntax unified
 1912              		.thumb
 1913              		.thumb_func
ARM GAS  C:\Users\Alex\AppData\Local\Temp\ccl5l8V8.s 			page 41


 1915              	lv_style_set_border_color:
 1916              	.LVL132:
 1917              	.LFB127:
 458:Lib/lvgl/src/misc/lv_style_gen.c **** 
 459:Lib/lvgl/src/misc/lv_style_gen.c **** const lv_style_prop_t _lv_style_const_prop_id_BG_IMAGE_TILED = LV_STYLE_BG_IMAGE_TILED;
 460:Lib/lvgl/src/misc/lv_style_gen.c **** 
 461:Lib/lvgl/src/misc/lv_style_gen.c **** void lv_style_set_border_color(lv_style_t * style, lv_color_t value)
 462:Lib/lvgl/src/misc/lv_style_gen.c **** {
 1918              		.loc 1 462 1 is_stmt 1 view -0
 1919              		.cfi_startproc
 1920              		@ args = 0, pretend = 0, frame = 16
 1921              		@ frame_needed = 0, uses_anonymous_args = 0
 1922              		.loc 1 462 1 is_stmt 0 view .LVU347
 1923 0000 00B5     		push	{lr}
 1924              	.LCFI135:
 1925              		.cfi_def_cfa_offset 4
 1926              		.cfi_offset 14, -4
 1927 0002 85B0     		sub	sp, sp, #20
 1928              	.LCFI136:
 1929              		.cfi_def_cfa_offset 24
 1930 0004 0191     		str	r1, [sp, #4]
 463:Lib/lvgl/src/misc/lv_style_gen.c ****     lv_style_value_t v = {
 1931              		.loc 1 463 5 is_stmt 1 view .LVU348
 1932              		.loc 1 463 22 is_stmt 0 view .LVU349
 1933 0006 0023     		movs	r3, #0
 1934 0008 0393     		str	r3, [sp, #12]
 1935 000a ADF80C10 		strh	r1, [sp, #12]	@ movhi
 1936 000e 0B0C     		lsrs	r3, r1, #16
 1937 0010 8DF80E30 		strb	r3, [sp, #14]
 464:Lib/lvgl/src/misc/lv_style_gen.c ****         .color = value
 465:Lib/lvgl/src/misc/lv_style_gen.c ****     };
 466:Lib/lvgl/src/misc/lv_style_gen.c ****     lv_style_set_prop(style, LV_STYLE_BORDER_COLOR, v);
 1938              		.loc 1 466 5 is_stmt 1 view .LVU350
 1939 0014 039A     		ldr	r2, [sp, #12]
 1940 0016 3121     		movs	r1, #49
 1941 0018 FFF7FEFF 		bl	lv_style_set_prop
 1942              	.LVL133:
 467:Lib/lvgl/src/misc/lv_style_gen.c **** }
 1943              		.loc 1 467 1 is_stmt 0 view .LVU351
 1944 001c 05B0     		add	sp, sp, #20
 1945              	.LCFI137:
 1946              		.cfi_def_cfa_offset 4
 1947              		@ sp needed
 1948 001e 5DF804FB 		ldr	pc, [sp], #4
 1949              		.cfi_endproc
 1950              	.LFE127:
 1952              		.section	.text.lv_style_set_border_opa,"ax",%progbits
 1953              		.align	1
 1954              		.global	lv_style_set_border_opa
 1955              		.syntax unified
 1956              		.thumb
 1957              		.thumb_func
 1959              	lv_style_set_border_opa:
 1960              	.LVL134:
 1961              	.LFB128:
 468:Lib/lvgl/src/misc/lv_style_gen.c **** 
 469:Lib/lvgl/src/misc/lv_style_gen.c **** const lv_style_prop_t _lv_style_const_prop_id_BORDER_COLOR = LV_STYLE_BORDER_COLOR;
ARM GAS  C:\Users\Alex\AppData\Local\Temp\ccl5l8V8.s 			page 42


 470:Lib/lvgl/src/misc/lv_style_gen.c **** 
 471:Lib/lvgl/src/misc/lv_style_gen.c **** void lv_style_set_border_opa(lv_style_t * style, lv_opa_t value)
 472:Lib/lvgl/src/misc/lv_style_gen.c **** {
 1962              		.loc 1 472 1 is_stmt 1 view -0
 1963              		.cfi_startproc
 1964              		@ args = 0, pretend = 0, frame = 8
 1965              		@ frame_needed = 0, uses_anonymous_args = 0
 1966              		.loc 1 472 1 is_stmt 0 view .LVU353
 1967 0000 00B5     		push	{lr}
 1968              	.LCFI138:
 1969              		.cfi_def_cfa_offset 4
 1970              		.cfi_offset 14, -4
 1971 0002 83B0     		sub	sp, sp, #12
 1972              	.LCFI139:
 1973              		.cfi_def_cfa_offset 16
 1974 0004 0A46     		mov	r2, r1
 473:Lib/lvgl/src/misc/lv_style_gen.c ****     lv_style_value_t v = {
 1975              		.loc 1 473 5 is_stmt 1 view .LVU354
 1976              		.loc 1 473 22 is_stmt 0 view .LVU355
 1977 0006 0191     		str	r1, [sp, #4]
 474:Lib/lvgl/src/misc/lv_style_gen.c ****         .num = (int32_t)value
 475:Lib/lvgl/src/misc/lv_style_gen.c ****     };
 476:Lib/lvgl/src/misc/lv_style_gen.c ****     lv_style_set_prop(style, LV_STYLE_BORDER_OPA, v);
 1978              		.loc 1 476 5 is_stmt 1 view .LVU356
 1979 0008 3221     		movs	r1, #50
 1980              	.LVL135:
 1981              		.loc 1 476 5 is_stmt 0 view .LVU357
 1982 000a FFF7FEFF 		bl	lv_style_set_prop
 1983              	.LVL136:
 477:Lib/lvgl/src/misc/lv_style_gen.c **** }
 1984              		.loc 1 477 1 view .LVU358
 1985 000e 03B0     		add	sp, sp, #12
 1986              	.LCFI140:
 1987              		.cfi_def_cfa_offset 4
 1988              		@ sp needed
 1989 0010 5DF804FB 		ldr	pc, [sp], #4
 1990              		.cfi_endproc
 1991              	.LFE128:
 1993              		.section	.text.lv_style_set_border_width,"ax",%progbits
 1994              		.align	1
 1995              		.global	lv_style_set_border_width
 1996              		.syntax unified
 1997              		.thumb
 1998              		.thumb_func
 2000              	lv_style_set_border_width:
 2001              	.LVL137:
 2002              	.LFB129:
 478:Lib/lvgl/src/misc/lv_style_gen.c **** 
 479:Lib/lvgl/src/misc/lv_style_gen.c **** const lv_style_prop_t _lv_style_const_prop_id_BORDER_OPA = LV_STYLE_BORDER_OPA;
 480:Lib/lvgl/src/misc/lv_style_gen.c **** 
 481:Lib/lvgl/src/misc/lv_style_gen.c **** void lv_style_set_border_width(lv_style_t * style, int32_t value)
 482:Lib/lvgl/src/misc/lv_style_gen.c **** {
 2003              		.loc 1 482 1 is_stmt 1 view -0
 2004              		.cfi_startproc
 2005              		@ args = 0, pretend = 0, frame = 8
 2006              		@ frame_needed = 0, uses_anonymous_args = 0
 2007              		.loc 1 482 1 is_stmt 0 view .LVU360
ARM GAS  C:\Users\Alex\AppData\Local\Temp\ccl5l8V8.s 			page 43


 2008 0000 00B5     		push	{lr}
 2009              	.LCFI141:
 2010              		.cfi_def_cfa_offset 4
 2011              		.cfi_offset 14, -4
 2012 0002 83B0     		sub	sp, sp, #12
 2013              	.LCFI142:
 2014              		.cfi_def_cfa_offset 16
 2015 0004 0A46     		mov	r2, r1
 483:Lib/lvgl/src/misc/lv_style_gen.c ****     lv_style_value_t v = {
 2016              		.loc 1 483 5 is_stmt 1 view .LVU361
 2017              		.loc 1 483 22 is_stmt 0 view .LVU362
 2018 0006 0191     		str	r1, [sp, #4]
 484:Lib/lvgl/src/misc/lv_style_gen.c ****         .num = (int32_t)value
 485:Lib/lvgl/src/misc/lv_style_gen.c ****     };
 486:Lib/lvgl/src/misc/lv_style_gen.c ****     lv_style_set_prop(style, LV_STYLE_BORDER_WIDTH, v);
 2019              		.loc 1 486 5 is_stmt 1 view .LVU363
 2020 0008 3021     		movs	r1, #48
 2021              	.LVL138:
 2022              		.loc 1 486 5 is_stmt 0 view .LVU364
 2023 000a FFF7FEFF 		bl	lv_style_set_prop
 2024              	.LVL139:
 487:Lib/lvgl/src/misc/lv_style_gen.c **** }
 2025              		.loc 1 487 1 view .LVU365
 2026 000e 03B0     		add	sp, sp, #12
 2027              	.LCFI143:
 2028              		.cfi_def_cfa_offset 4
 2029              		@ sp needed
 2030 0010 5DF804FB 		ldr	pc, [sp], #4
 2031              		.loc 1 487 1 view .LVU366
 2032              		.cfi_endproc
 2033              	.LFE129:
 2035              		.section	.text.lv_style_set_border_side,"ax",%progbits
 2036              		.align	1
 2037              		.global	lv_style_set_border_side
 2038              		.syntax unified
 2039              		.thumb
 2040              		.thumb_func
 2042              	lv_style_set_border_side:
 2043              	.LVL140:
 2044              	.LFB130:
 488:Lib/lvgl/src/misc/lv_style_gen.c **** 
 489:Lib/lvgl/src/misc/lv_style_gen.c **** const lv_style_prop_t _lv_style_const_prop_id_BORDER_WIDTH = LV_STYLE_BORDER_WIDTH;
 490:Lib/lvgl/src/misc/lv_style_gen.c **** 
 491:Lib/lvgl/src/misc/lv_style_gen.c **** void lv_style_set_border_side(lv_style_t * style, lv_border_side_t value)
 492:Lib/lvgl/src/misc/lv_style_gen.c **** {
 2045              		.loc 1 492 1 is_stmt 1 view -0
 2046              		.cfi_startproc
 2047              		@ args = 0, pretend = 0, frame = 8
 2048              		@ frame_needed = 0, uses_anonymous_args = 0
 2049              		.loc 1 492 1 is_stmt 0 view .LVU368
 2050 0000 00B5     		push	{lr}
 2051              	.LCFI144:
 2052              		.cfi_def_cfa_offset 4
 2053              		.cfi_offset 14, -4
 2054 0002 83B0     		sub	sp, sp, #12
 2055              	.LCFI145:
 2056              		.cfi_def_cfa_offset 16
ARM GAS  C:\Users\Alex\AppData\Local\Temp\ccl5l8V8.s 			page 44


 2057 0004 0A46     		mov	r2, r1
 493:Lib/lvgl/src/misc/lv_style_gen.c ****     lv_style_value_t v = {
 2058              		.loc 1 493 5 is_stmt 1 view .LVU369
 2059              		.loc 1 493 22 is_stmt 0 view .LVU370
 2060 0006 0191     		str	r1, [sp, #4]
 494:Lib/lvgl/src/misc/lv_style_gen.c ****         .num = (int32_t)value
 495:Lib/lvgl/src/misc/lv_style_gen.c ****     };
 496:Lib/lvgl/src/misc/lv_style_gen.c ****     lv_style_set_prop(style, LV_STYLE_BORDER_SIDE, v);
 2061              		.loc 1 496 5 is_stmt 1 view .LVU371
 2062 0008 3421     		movs	r1, #52
 2063              	.LVL141:
 2064              		.loc 1 496 5 is_stmt 0 view .LVU372
 2065 000a FFF7FEFF 		bl	lv_style_set_prop
 2066              	.LVL142:
 497:Lib/lvgl/src/misc/lv_style_gen.c **** }
 2067              		.loc 1 497 1 view .LVU373
 2068 000e 03B0     		add	sp, sp, #12
 2069              	.LCFI146:
 2070              		.cfi_def_cfa_offset 4
 2071              		@ sp needed
 2072 0010 5DF804FB 		ldr	pc, [sp], #4
 2073              		.cfi_endproc
 2074              	.LFE130:
 2076              		.section	.text.lv_style_set_border_post,"ax",%progbits
 2077              		.align	1
 2078              		.global	lv_style_set_border_post
 2079              		.syntax unified
 2080              		.thumb
 2081              		.thumb_func
 2083              	lv_style_set_border_post:
 2084              	.LVL143:
 2085              	.LFB131:
 498:Lib/lvgl/src/misc/lv_style_gen.c **** 
 499:Lib/lvgl/src/misc/lv_style_gen.c **** const lv_style_prop_t _lv_style_const_prop_id_BORDER_SIDE = LV_STYLE_BORDER_SIDE;
 500:Lib/lvgl/src/misc/lv_style_gen.c **** 
 501:Lib/lvgl/src/misc/lv_style_gen.c **** void lv_style_set_border_post(lv_style_t * style, bool value)
 502:Lib/lvgl/src/misc/lv_style_gen.c **** {
 2086              		.loc 1 502 1 is_stmt 1 view -0
 2087              		.cfi_startproc
 2088              		@ args = 0, pretend = 0, frame = 8
 2089              		@ frame_needed = 0, uses_anonymous_args = 0
 2090              		.loc 1 502 1 is_stmt 0 view .LVU375
 2091 0000 00B5     		push	{lr}
 2092              	.LCFI147:
 2093              		.cfi_def_cfa_offset 4
 2094              		.cfi_offset 14, -4
 2095 0002 83B0     		sub	sp, sp, #12
 2096              	.LCFI148:
 2097              		.cfi_def_cfa_offset 16
 2098 0004 0A46     		mov	r2, r1
 503:Lib/lvgl/src/misc/lv_style_gen.c ****     lv_style_value_t v = {
 2099              		.loc 1 503 5 is_stmt 1 view .LVU376
 2100              		.loc 1 503 22 is_stmt 0 view .LVU377
 2101 0006 0191     		str	r1, [sp, #4]
 504:Lib/lvgl/src/misc/lv_style_gen.c ****         .num = (int32_t)value
 505:Lib/lvgl/src/misc/lv_style_gen.c ****     };
 506:Lib/lvgl/src/misc/lv_style_gen.c ****     lv_style_set_prop(style, LV_STYLE_BORDER_POST, v);
ARM GAS  C:\Users\Alex\AppData\Local\Temp\ccl5l8V8.s 			page 45


 2102              		.loc 1 506 5 is_stmt 1 view .LVU378
 2103 0008 3521     		movs	r1, #53
 2104              	.LVL144:
 2105              		.loc 1 506 5 is_stmt 0 view .LVU379
 2106 000a FFF7FEFF 		bl	lv_style_set_prop
 2107              	.LVL145:
 507:Lib/lvgl/src/misc/lv_style_gen.c **** }
 2108              		.loc 1 507 1 view .LVU380
 2109 000e 03B0     		add	sp, sp, #12
 2110              	.LCFI149:
 2111              		.cfi_def_cfa_offset 4
 2112              		@ sp needed
 2113 0010 5DF804FB 		ldr	pc, [sp], #4
 2114              		.cfi_endproc
 2115              	.LFE131:
 2117              		.section	.text.lv_style_set_outline_width,"ax",%progbits
 2118              		.align	1
 2119              		.global	lv_style_set_outline_width
 2120              		.syntax unified
 2121              		.thumb
 2122              		.thumb_func
 2124              	lv_style_set_outline_width:
 2125              	.LVL146:
 2126              	.LFB132:
 508:Lib/lvgl/src/misc/lv_style_gen.c **** 
 509:Lib/lvgl/src/misc/lv_style_gen.c **** const lv_style_prop_t _lv_style_const_prop_id_BORDER_POST = LV_STYLE_BORDER_POST;
 510:Lib/lvgl/src/misc/lv_style_gen.c **** 
 511:Lib/lvgl/src/misc/lv_style_gen.c **** void lv_style_set_outline_width(lv_style_t * style, int32_t value)
 512:Lib/lvgl/src/misc/lv_style_gen.c **** {
 2127              		.loc 1 512 1 is_stmt 1 view -0
 2128              		.cfi_startproc
 2129              		@ args = 0, pretend = 0, frame = 8
 2130              		@ frame_needed = 0, uses_anonymous_args = 0
 2131              		.loc 1 512 1 is_stmt 0 view .LVU382
 2132 0000 00B5     		push	{lr}
 2133              	.LCFI150:
 2134              		.cfi_def_cfa_offset 4
 2135              		.cfi_offset 14, -4
 2136 0002 83B0     		sub	sp, sp, #12
 2137              	.LCFI151:
 2138              		.cfi_def_cfa_offset 16
 2139 0004 0A46     		mov	r2, r1
 513:Lib/lvgl/src/misc/lv_style_gen.c ****     lv_style_value_t v = {
 2140              		.loc 1 513 5 is_stmt 1 view .LVU383
 2141              		.loc 1 513 22 is_stmt 0 view .LVU384
 2142 0006 0191     		str	r1, [sp, #4]
 514:Lib/lvgl/src/misc/lv_style_gen.c ****         .num = (int32_t)value
 515:Lib/lvgl/src/misc/lv_style_gen.c ****     };
 516:Lib/lvgl/src/misc/lv_style_gen.c ****     lv_style_set_prop(style, LV_STYLE_OUTLINE_WIDTH, v);
 2143              		.loc 1 516 5 is_stmt 1 view .LVU385
 2144 0008 3821     		movs	r1, #56
 2145              	.LVL147:
 2146              		.loc 1 516 5 is_stmt 0 view .LVU386
 2147 000a FFF7FEFF 		bl	lv_style_set_prop
 2148              	.LVL148:
 517:Lib/lvgl/src/misc/lv_style_gen.c **** }
 2149              		.loc 1 517 1 view .LVU387
ARM GAS  C:\Users\Alex\AppData\Local\Temp\ccl5l8V8.s 			page 46


 2150 000e 03B0     		add	sp, sp, #12
 2151              	.LCFI152:
 2152              		.cfi_def_cfa_offset 4
 2153              		@ sp needed
 2154 0010 5DF804FB 		ldr	pc, [sp], #4
 2155              		.loc 1 517 1 view .LVU388
 2156              		.cfi_endproc
 2157              	.LFE132:
 2159              		.section	.text.lv_style_set_outline_color,"ax",%progbits
 2160              		.align	1
 2161              		.global	lv_style_set_outline_color
 2162              		.syntax unified
 2163              		.thumb
 2164              		.thumb_func
 2166              	lv_style_set_outline_color:
 2167              	.LVL149:
 2168              	.LFB133:
 518:Lib/lvgl/src/misc/lv_style_gen.c **** 
 519:Lib/lvgl/src/misc/lv_style_gen.c **** const lv_style_prop_t _lv_style_const_prop_id_OUTLINE_WIDTH = LV_STYLE_OUTLINE_WIDTH;
 520:Lib/lvgl/src/misc/lv_style_gen.c **** 
 521:Lib/lvgl/src/misc/lv_style_gen.c **** void lv_style_set_outline_color(lv_style_t * style, lv_color_t value)
 522:Lib/lvgl/src/misc/lv_style_gen.c **** {
 2169              		.loc 1 522 1 is_stmt 1 view -0
 2170              		.cfi_startproc
 2171              		@ args = 0, pretend = 0, frame = 16
 2172              		@ frame_needed = 0, uses_anonymous_args = 0
 2173              		.loc 1 522 1 is_stmt 0 view .LVU390
 2174 0000 00B5     		push	{lr}
 2175              	.LCFI153:
 2176              		.cfi_def_cfa_offset 4
 2177              		.cfi_offset 14, -4
 2178 0002 85B0     		sub	sp, sp, #20
 2179              	.LCFI154:
 2180              		.cfi_def_cfa_offset 24
 2181 0004 0191     		str	r1, [sp, #4]
 523:Lib/lvgl/src/misc/lv_style_gen.c ****     lv_style_value_t v = {
 2182              		.loc 1 523 5 is_stmt 1 view .LVU391
 2183              		.loc 1 523 22 is_stmt 0 view .LVU392
 2184 0006 0023     		movs	r3, #0
 2185 0008 0393     		str	r3, [sp, #12]
 2186 000a ADF80C10 		strh	r1, [sp, #12]	@ movhi
 2187 000e 0B0C     		lsrs	r3, r1, #16
 2188 0010 8DF80E30 		strb	r3, [sp, #14]
 524:Lib/lvgl/src/misc/lv_style_gen.c ****         .color = value
 525:Lib/lvgl/src/misc/lv_style_gen.c ****     };
 526:Lib/lvgl/src/misc/lv_style_gen.c ****     lv_style_set_prop(style, LV_STYLE_OUTLINE_COLOR, v);
 2189              		.loc 1 526 5 is_stmt 1 view .LVU393
 2190 0014 039A     		ldr	r2, [sp, #12]
 2191 0016 3921     		movs	r1, #57
 2192 0018 FFF7FEFF 		bl	lv_style_set_prop
 2193              	.LVL150:
 527:Lib/lvgl/src/misc/lv_style_gen.c **** }
 2194              		.loc 1 527 1 is_stmt 0 view .LVU394
 2195 001c 05B0     		add	sp, sp, #20
 2196              	.LCFI155:
 2197              		.cfi_def_cfa_offset 4
 2198              		@ sp needed
ARM GAS  C:\Users\Alex\AppData\Local\Temp\ccl5l8V8.s 			page 47


 2199 001e 5DF804FB 		ldr	pc, [sp], #4
 2200              		.cfi_endproc
 2201              	.LFE133:
 2203              		.section	.text.lv_style_set_outline_opa,"ax",%progbits
 2204              		.align	1
 2205              		.global	lv_style_set_outline_opa
 2206              		.syntax unified
 2207              		.thumb
 2208              		.thumb_func
 2210              	lv_style_set_outline_opa:
 2211              	.LVL151:
 2212              	.LFB134:
 528:Lib/lvgl/src/misc/lv_style_gen.c **** 
 529:Lib/lvgl/src/misc/lv_style_gen.c **** const lv_style_prop_t _lv_style_const_prop_id_OUTLINE_COLOR = LV_STYLE_OUTLINE_COLOR;
 530:Lib/lvgl/src/misc/lv_style_gen.c **** 
 531:Lib/lvgl/src/misc/lv_style_gen.c **** void lv_style_set_outline_opa(lv_style_t * style, lv_opa_t value)
 532:Lib/lvgl/src/misc/lv_style_gen.c **** {
 2213              		.loc 1 532 1 is_stmt 1 view -0
 2214              		.cfi_startproc
 2215              		@ args = 0, pretend = 0, frame = 8
 2216              		@ frame_needed = 0, uses_anonymous_args = 0
 2217              		.loc 1 532 1 is_stmt 0 view .LVU396
 2218 0000 00B5     		push	{lr}
 2219              	.LCFI156:
 2220              		.cfi_def_cfa_offset 4
 2221              		.cfi_offset 14, -4
 2222 0002 83B0     		sub	sp, sp, #12
 2223              	.LCFI157:
 2224              		.cfi_def_cfa_offset 16
 2225 0004 0A46     		mov	r2, r1
 533:Lib/lvgl/src/misc/lv_style_gen.c ****     lv_style_value_t v = {
 2226              		.loc 1 533 5 is_stmt 1 view .LVU397
 2227              		.loc 1 533 22 is_stmt 0 view .LVU398
 2228 0006 0191     		str	r1, [sp, #4]
 534:Lib/lvgl/src/misc/lv_style_gen.c ****         .num = (int32_t)value
 535:Lib/lvgl/src/misc/lv_style_gen.c ****     };
 536:Lib/lvgl/src/misc/lv_style_gen.c ****     lv_style_set_prop(style, LV_STYLE_OUTLINE_OPA, v);
 2229              		.loc 1 536 5 is_stmt 1 view .LVU399
 2230 0008 3A21     		movs	r1, #58
 2231              	.LVL152:
 2232              		.loc 1 536 5 is_stmt 0 view .LVU400
 2233 000a FFF7FEFF 		bl	lv_style_set_prop
 2234              	.LVL153:
 537:Lib/lvgl/src/misc/lv_style_gen.c **** }
 2235              		.loc 1 537 1 view .LVU401
 2236 000e 03B0     		add	sp, sp, #12
 2237              	.LCFI158:
 2238              		.cfi_def_cfa_offset 4
 2239              		@ sp needed
 2240 0010 5DF804FB 		ldr	pc, [sp], #4
 2241              		.cfi_endproc
 2242              	.LFE134:
 2244              		.section	.text.lv_style_set_outline_pad,"ax",%progbits
 2245              		.align	1
 2246              		.global	lv_style_set_outline_pad
 2247              		.syntax unified
 2248              		.thumb
ARM GAS  C:\Users\Alex\AppData\Local\Temp\ccl5l8V8.s 			page 48


 2249              		.thumb_func
 2251              	lv_style_set_outline_pad:
 2252              	.LVL154:
 2253              	.LFB135:
 538:Lib/lvgl/src/misc/lv_style_gen.c **** 
 539:Lib/lvgl/src/misc/lv_style_gen.c **** const lv_style_prop_t _lv_style_const_prop_id_OUTLINE_OPA = LV_STYLE_OUTLINE_OPA;
 540:Lib/lvgl/src/misc/lv_style_gen.c **** 
 541:Lib/lvgl/src/misc/lv_style_gen.c **** void lv_style_set_outline_pad(lv_style_t * style, int32_t value)
 542:Lib/lvgl/src/misc/lv_style_gen.c **** {
 2254              		.loc 1 542 1 is_stmt 1 view -0
 2255              		.cfi_startproc
 2256              		@ args = 0, pretend = 0, frame = 8
 2257              		@ frame_needed = 0, uses_anonymous_args = 0
 2258              		.loc 1 542 1 is_stmt 0 view .LVU403
 2259 0000 00B5     		push	{lr}
 2260              	.LCFI159:
 2261              		.cfi_def_cfa_offset 4
 2262              		.cfi_offset 14, -4
 2263 0002 83B0     		sub	sp, sp, #12
 2264              	.LCFI160:
 2265              		.cfi_def_cfa_offset 16
 2266 0004 0A46     		mov	r2, r1
 543:Lib/lvgl/src/misc/lv_style_gen.c ****     lv_style_value_t v = {
 2267              		.loc 1 543 5 is_stmt 1 view .LVU404
 2268              		.loc 1 543 22 is_stmt 0 view .LVU405
 2269 0006 0191     		str	r1, [sp, #4]
 544:Lib/lvgl/src/misc/lv_style_gen.c ****         .num = (int32_t)value
 545:Lib/lvgl/src/misc/lv_style_gen.c ****     };
 546:Lib/lvgl/src/misc/lv_style_gen.c ****     lv_style_set_prop(style, LV_STYLE_OUTLINE_PAD, v);
 2270              		.loc 1 546 5 is_stmt 1 view .LVU406
 2271 0008 3B21     		movs	r1, #59
 2272              	.LVL155:
 2273              		.loc 1 546 5 is_stmt 0 view .LVU407
 2274 000a FFF7FEFF 		bl	lv_style_set_prop
 2275              	.LVL156:
 547:Lib/lvgl/src/misc/lv_style_gen.c **** }
 2276              		.loc 1 547 1 view .LVU408
 2277 000e 03B0     		add	sp, sp, #12
 2278              	.LCFI161:
 2279              		.cfi_def_cfa_offset 4
 2280              		@ sp needed
 2281 0010 5DF804FB 		ldr	pc, [sp], #4
 2282              		.loc 1 547 1 view .LVU409
 2283              		.cfi_endproc
 2284              	.LFE135:
 2286              		.section	.text.lv_style_set_shadow_width,"ax",%progbits
 2287              		.align	1
 2288              		.global	lv_style_set_shadow_width
 2289              		.syntax unified
 2290              		.thumb
 2291              		.thumb_func
 2293              	lv_style_set_shadow_width:
 2294              	.LVL157:
 2295              	.LFB136:
 548:Lib/lvgl/src/misc/lv_style_gen.c **** 
 549:Lib/lvgl/src/misc/lv_style_gen.c **** const lv_style_prop_t _lv_style_const_prop_id_OUTLINE_PAD = LV_STYLE_OUTLINE_PAD;
 550:Lib/lvgl/src/misc/lv_style_gen.c **** 
ARM GAS  C:\Users\Alex\AppData\Local\Temp\ccl5l8V8.s 			page 49


 551:Lib/lvgl/src/misc/lv_style_gen.c **** void lv_style_set_shadow_width(lv_style_t * style, int32_t value)
 552:Lib/lvgl/src/misc/lv_style_gen.c **** {
 2296              		.loc 1 552 1 is_stmt 1 view -0
 2297              		.cfi_startproc
 2298              		@ args = 0, pretend = 0, frame = 8
 2299              		@ frame_needed = 0, uses_anonymous_args = 0
 2300              		.loc 1 552 1 is_stmt 0 view .LVU411
 2301 0000 00B5     		push	{lr}
 2302              	.LCFI162:
 2303              		.cfi_def_cfa_offset 4
 2304              		.cfi_offset 14, -4
 2305 0002 83B0     		sub	sp, sp, #12
 2306              	.LCFI163:
 2307              		.cfi_def_cfa_offset 16
 2308 0004 0A46     		mov	r2, r1
 553:Lib/lvgl/src/misc/lv_style_gen.c ****     lv_style_value_t v = {
 2309              		.loc 1 553 5 is_stmt 1 view .LVU412
 2310              		.loc 1 553 22 is_stmt 0 view .LVU413
 2311 0006 0191     		str	r1, [sp, #4]
 554:Lib/lvgl/src/misc/lv_style_gen.c ****         .num = (int32_t)value
 555:Lib/lvgl/src/misc/lv_style_gen.c ****     };
 556:Lib/lvgl/src/misc/lv_style_gen.c ****     lv_style_set_prop(style, LV_STYLE_SHADOW_WIDTH, v);
 2312              		.loc 1 556 5 is_stmt 1 view .LVU414
 2313 0008 3C21     		movs	r1, #60
 2314              	.LVL158:
 2315              		.loc 1 556 5 is_stmt 0 view .LVU415
 2316 000a FFF7FEFF 		bl	lv_style_set_prop
 2317              	.LVL159:
 557:Lib/lvgl/src/misc/lv_style_gen.c **** }
 2318              		.loc 1 557 1 view .LVU416
 2319 000e 03B0     		add	sp, sp, #12
 2320              	.LCFI164:
 2321              		.cfi_def_cfa_offset 4
 2322              		@ sp needed
 2323 0010 5DF804FB 		ldr	pc, [sp], #4
 2324              		.loc 1 557 1 view .LVU417
 2325              		.cfi_endproc
 2326              	.LFE136:
 2328              		.section	.text.lv_style_set_shadow_offset_x,"ax",%progbits
 2329              		.align	1
 2330              		.global	lv_style_set_shadow_offset_x
 2331              		.syntax unified
 2332              		.thumb
 2333              		.thumb_func
 2335              	lv_style_set_shadow_offset_x:
 2336              	.LVL160:
 2337              	.LFB137:
 558:Lib/lvgl/src/misc/lv_style_gen.c **** 
 559:Lib/lvgl/src/misc/lv_style_gen.c **** const lv_style_prop_t _lv_style_const_prop_id_SHADOW_WIDTH = LV_STYLE_SHADOW_WIDTH;
 560:Lib/lvgl/src/misc/lv_style_gen.c **** 
 561:Lib/lvgl/src/misc/lv_style_gen.c **** void lv_style_set_shadow_offset_x(lv_style_t * style, int32_t value)
 562:Lib/lvgl/src/misc/lv_style_gen.c **** {
 2338              		.loc 1 562 1 is_stmt 1 view -0
 2339              		.cfi_startproc
 2340              		@ args = 0, pretend = 0, frame = 8
 2341              		@ frame_needed = 0, uses_anonymous_args = 0
 2342              		.loc 1 562 1 is_stmt 0 view .LVU419
ARM GAS  C:\Users\Alex\AppData\Local\Temp\ccl5l8V8.s 			page 50


 2343 0000 00B5     		push	{lr}
 2344              	.LCFI165:
 2345              		.cfi_def_cfa_offset 4
 2346              		.cfi_offset 14, -4
 2347 0002 83B0     		sub	sp, sp, #12
 2348              	.LCFI166:
 2349              		.cfi_def_cfa_offset 16
 2350 0004 0A46     		mov	r2, r1
 563:Lib/lvgl/src/misc/lv_style_gen.c ****     lv_style_value_t v = {
 2351              		.loc 1 563 5 is_stmt 1 view .LVU420
 2352              		.loc 1 563 22 is_stmt 0 view .LVU421
 2353 0006 0191     		str	r1, [sp, #4]
 564:Lib/lvgl/src/misc/lv_style_gen.c ****         .num = (int32_t)value
 565:Lib/lvgl/src/misc/lv_style_gen.c ****     };
 566:Lib/lvgl/src/misc/lv_style_gen.c ****     lv_style_set_prop(style, LV_STYLE_SHADOW_OFFSET_X, v);
 2354              		.loc 1 566 5 is_stmt 1 view .LVU422
 2355 0008 4021     		movs	r1, #64
 2356              	.LVL161:
 2357              		.loc 1 566 5 is_stmt 0 view .LVU423
 2358 000a FFF7FEFF 		bl	lv_style_set_prop
 2359              	.LVL162:
 567:Lib/lvgl/src/misc/lv_style_gen.c **** }
 2360              		.loc 1 567 1 view .LVU424
 2361 000e 03B0     		add	sp, sp, #12
 2362              	.LCFI167:
 2363              		.cfi_def_cfa_offset 4
 2364              		@ sp needed
 2365 0010 5DF804FB 		ldr	pc, [sp], #4
 2366              		.loc 1 567 1 view .LVU425
 2367              		.cfi_endproc
 2368              	.LFE137:
 2370              		.section	.text.lv_style_set_shadow_offset_y,"ax",%progbits
 2371              		.align	1
 2372              		.global	lv_style_set_shadow_offset_y
 2373              		.syntax unified
 2374              		.thumb
 2375              		.thumb_func
 2377              	lv_style_set_shadow_offset_y:
 2378              	.LVL163:
 2379              	.LFB138:
 568:Lib/lvgl/src/misc/lv_style_gen.c **** 
 569:Lib/lvgl/src/misc/lv_style_gen.c **** const lv_style_prop_t _lv_style_const_prop_id_SHADOW_OFFSET_X = LV_STYLE_SHADOW_OFFSET_X;
 570:Lib/lvgl/src/misc/lv_style_gen.c **** 
 571:Lib/lvgl/src/misc/lv_style_gen.c **** void lv_style_set_shadow_offset_y(lv_style_t * style, int32_t value)
 572:Lib/lvgl/src/misc/lv_style_gen.c **** {
 2380              		.loc 1 572 1 is_stmt 1 view -0
 2381              		.cfi_startproc
 2382              		@ args = 0, pretend = 0, frame = 8
 2383              		@ frame_needed = 0, uses_anonymous_args = 0
 2384              		.loc 1 572 1 is_stmt 0 view .LVU427
 2385 0000 00B5     		push	{lr}
 2386              	.LCFI168:
 2387              		.cfi_def_cfa_offset 4
 2388              		.cfi_offset 14, -4
 2389 0002 83B0     		sub	sp, sp, #12
 2390              	.LCFI169:
 2391              		.cfi_def_cfa_offset 16
ARM GAS  C:\Users\Alex\AppData\Local\Temp\ccl5l8V8.s 			page 51


 2392 0004 0A46     		mov	r2, r1
 573:Lib/lvgl/src/misc/lv_style_gen.c ****     lv_style_value_t v = {
 2393              		.loc 1 573 5 is_stmt 1 view .LVU428
 2394              		.loc 1 573 22 is_stmt 0 view .LVU429
 2395 0006 0191     		str	r1, [sp, #4]
 574:Lib/lvgl/src/misc/lv_style_gen.c ****         .num = (int32_t)value
 575:Lib/lvgl/src/misc/lv_style_gen.c ****     };
 576:Lib/lvgl/src/misc/lv_style_gen.c ****     lv_style_set_prop(style, LV_STYLE_SHADOW_OFFSET_Y, v);
 2396              		.loc 1 576 5 is_stmt 1 view .LVU430
 2397 0008 4121     		movs	r1, #65
 2398              	.LVL164:
 2399              		.loc 1 576 5 is_stmt 0 view .LVU431
 2400 000a FFF7FEFF 		bl	lv_style_set_prop
 2401              	.LVL165:
 577:Lib/lvgl/src/misc/lv_style_gen.c **** }
 2402              		.loc 1 577 1 view .LVU432
 2403 000e 03B0     		add	sp, sp, #12
 2404              	.LCFI170:
 2405              		.cfi_def_cfa_offset 4
 2406              		@ sp needed
 2407 0010 5DF804FB 		ldr	pc, [sp], #4
 2408              		.loc 1 577 1 view .LVU433
 2409              		.cfi_endproc
 2410              	.LFE138:
 2412              		.section	.text.lv_style_set_shadow_spread,"ax",%progbits
 2413              		.align	1
 2414              		.global	lv_style_set_shadow_spread
 2415              		.syntax unified
 2416              		.thumb
 2417              		.thumb_func
 2419              	lv_style_set_shadow_spread:
 2420              	.LVL166:
 2421              	.LFB139:
 578:Lib/lvgl/src/misc/lv_style_gen.c **** 
 579:Lib/lvgl/src/misc/lv_style_gen.c **** const lv_style_prop_t _lv_style_const_prop_id_SHADOW_OFFSET_Y = LV_STYLE_SHADOW_OFFSET_Y;
 580:Lib/lvgl/src/misc/lv_style_gen.c **** 
 581:Lib/lvgl/src/misc/lv_style_gen.c **** void lv_style_set_shadow_spread(lv_style_t * style, int32_t value)
 582:Lib/lvgl/src/misc/lv_style_gen.c **** {
 2422              		.loc 1 582 1 is_stmt 1 view -0
 2423              		.cfi_startproc
 2424              		@ args = 0, pretend = 0, frame = 8
 2425              		@ frame_needed = 0, uses_anonymous_args = 0
 2426              		.loc 1 582 1 is_stmt 0 view .LVU435
 2427 0000 00B5     		push	{lr}
 2428              	.LCFI171:
 2429              		.cfi_def_cfa_offset 4
 2430              		.cfi_offset 14, -4
 2431 0002 83B0     		sub	sp, sp, #12
 2432              	.LCFI172:
 2433              		.cfi_def_cfa_offset 16
 2434 0004 0A46     		mov	r2, r1
 583:Lib/lvgl/src/misc/lv_style_gen.c ****     lv_style_value_t v = {
 2435              		.loc 1 583 5 is_stmt 1 view .LVU436
 2436              		.loc 1 583 22 is_stmt 0 view .LVU437
 2437 0006 0191     		str	r1, [sp, #4]
 584:Lib/lvgl/src/misc/lv_style_gen.c ****         .num = (int32_t)value
 585:Lib/lvgl/src/misc/lv_style_gen.c ****     };
ARM GAS  C:\Users\Alex\AppData\Local\Temp\ccl5l8V8.s 			page 52


 586:Lib/lvgl/src/misc/lv_style_gen.c ****     lv_style_set_prop(style, LV_STYLE_SHADOW_SPREAD, v);
 2438              		.loc 1 586 5 is_stmt 1 view .LVU438
 2439 0008 4221     		movs	r1, #66
 2440              	.LVL167:
 2441              		.loc 1 586 5 is_stmt 0 view .LVU439
 2442 000a FFF7FEFF 		bl	lv_style_set_prop
 2443              	.LVL168:
 587:Lib/lvgl/src/misc/lv_style_gen.c **** }
 2444              		.loc 1 587 1 view .LVU440
 2445 000e 03B0     		add	sp, sp, #12
 2446              	.LCFI173:
 2447              		.cfi_def_cfa_offset 4
 2448              		@ sp needed
 2449 0010 5DF804FB 		ldr	pc, [sp], #4
 2450              		.loc 1 587 1 view .LVU441
 2451              		.cfi_endproc
 2452              	.LFE139:
 2454              		.section	.text.lv_style_set_shadow_color,"ax",%progbits
 2455              		.align	1
 2456              		.global	lv_style_set_shadow_color
 2457              		.syntax unified
 2458              		.thumb
 2459              		.thumb_func
 2461              	lv_style_set_shadow_color:
 2462              	.LVL169:
 2463              	.LFB140:
 588:Lib/lvgl/src/misc/lv_style_gen.c **** 
 589:Lib/lvgl/src/misc/lv_style_gen.c **** const lv_style_prop_t _lv_style_const_prop_id_SHADOW_SPREAD = LV_STYLE_SHADOW_SPREAD;
 590:Lib/lvgl/src/misc/lv_style_gen.c **** 
 591:Lib/lvgl/src/misc/lv_style_gen.c **** void lv_style_set_shadow_color(lv_style_t * style, lv_color_t value)
 592:Lib/lvgl/src/misc/lv_style_gen.c **** {
 2464              		.loc 1 592 1 is_stmt 1 view -0
 2465              		.cfi_startproc
 2466              		@ args = 0, pretend = 0, frame = 16
 2467              		@ frame_needed = 0, uses_anonymous_args = 0
 2468              		.loc 1 592 1 is_stmt 0 view .LVU443
 2469 0000 00B5     		push	{lr}
 2470              	.LCFI174:
 2471              		.cfi_def_cfa_offset 4
 2472              		.cfi_offset 14, -4
 2473 0002 85B0     		sub	sp, sp, #20
 2474              	.LCFI175:
 2475              		.cfi_def_cfa_offset 24
 2476 0004 0191     		str	r1, [sp, #4]
 593:Lib/lvgl/src/misc/lv_style_gen.c ****     lv_style_value_t v = {
 2477              		.loc 1 593 5 is_stmt 1 view .LVU444
 2478              		.loc 1 593 22 is_stmt 0 view .LVU445
 2479 0006 0023     		movs	r3, #0
 2480 0008 0393     		str	r3, [sp, #12]
 2481 000a ADF80C10 		strh	r1, [sp, #12]	@ movhi
 2482 000e 0B0C     		lsrs	r3, r1, #16
 2483 0010 8DF80E30 		strb	r3, [sp, #14]
 594:Lib/lvgl/src/misc/lv_style_gen.c ****         .color = value
 595:Lib/lvgl/src/misc/lv_style_gen.c ****     };
 596:Lib/lvgl/src/misc/lv_style_gen.c ****     lv_style_set_prop(style, LV_STYLE_SHADOW_COLOR, v);
 2484              		.loc 1 596 5 is_stmt 1 view .LVU446
 2485 0014 039A     		ldr	r2, [sp, #12]
ARM GAS  C:\Users\Alex\AppData\Local\Temp\ccl5l8V8.s 			page 53


 2486 0016 3D21     		movs	r1, #61
 2487 0018 FFF7FEFF 		bl	lv_style_set_prop
 2488              	.LVL170:
 597:Lib/lvgl/src/misc/lv_style_gen.c **** }
 2489              		.loc 1 597 1 is_stmt 0 view .LVU447
 2490 001c 05B0     		add	sp, sp, #20
 2491              	.LCFI176:
 2492              		.cfi_def_cfa_offset 4
 2493              		@ sp needed
 2494 001e 5DF804FB 		ldr	pc, [sp], #4
 2495              		.cfi_endproc
 2496              	.LFE140:
 2498              		.section	.text.lv_style_set_shadow_opa,"ax",%progbits
 2499              		.align	1
 2500              		.global	lv_style_set_shadow_opa
 2501              		.syntax unified
 2502              		.thumb
 2503              		.thumb_func
 2505              	lv_style_set_shadow_opa:
 2506              	.LVL171:
 2507              	.LFB141:
 598:Lib/lvgl/src/misc/lv_style_gen.c **** 
 599:Lib/lvgl/src/misc/lv_style_gen.c **** const lv_style_prop_t _lv_style_const_prop_id_SHADOW_COLOR = LV_STYLE_SHADOW_COLOR;
 600:Lib/lvgl/src/misc/lv_style_gen.c **** 
 601:Lib/lvgl/src/misc/lv_style_gen.c **** void lv_style_set_shadow_opa(lv_style_t * style, lv_opa_t value)
 602:Lib/lvgl/src/misc/lv_style_gen.c **** {
 2508              		.loc 1 602 1 is_stmt 1 view -0
 2509              		.cfi_startproc
 2510              		@ args = 0, pretend = 0, frame = 8
 2511              		@ frame_needed = 0, uses_anonymous_args = 0
 2512              		.loc 1 602 1 is_stmt 0 view .LVU449
 2513 0000 00B5     		push	{lr}
 2514              	.LCFI177:
 2515              		.cfi_def_cfa_offset 4
 2516              		.cfi_offset 14, -4
 2517 0002 83B0     		sub	sp, sp, #12
 2518              	.LCFI178:
 2519              		.cfi_def_cfa_offset 16
 2520 0004 0A46     		mov	r2, r1
 603:Lib/lvgl/src/misc/lv_style_gen.c ****     lv_style_value_t v = {
 2521              		.loc 1 603 5 is_stmt 1 view .LVU450
 2522              		.loc 1 603 22 is_stmt 0 view .LVU451
 2523 0006 0191     		str	r1, [sp, #4]
 604:Lib/lvgl/src/misc/lv_style_gen.c ****         .num = (int32_t)value
 605:Lib/lvgl/src/misc/lv_style_gen.c ****     };
 606:Lib/lvgl/src/misc/lv_style_gen.c ****     lv_style_set_prop(style, LV_STYLE_SHADOW_OPA, v);
 2524              		.loc 1 606 5 is_stmt 1 view .LVU452
 2525 0008 3E21     		movs	r1, #62
 2526              	.LVL172:
 2527              		.loc 1 606 5 is_stmt 0 view .LVU453
 2528 000a FFF7FEFF 		bl	lv_style_set_prop
 2529              	.LVL173:
 607:Lib/lvgl/src/misc/lv_style_gen.c **** }
 2530              		.loc 1 607 1 view .LVU454
 2531 000e 03B0     		add	sp, sp, #12
 2532              	.LCFI179:
 2533              		.cfi_def_cfa_offset 4
ARM GAS  C:\Users\Alex\AppData\Local\Temp\ccl5l8V8.s 			page 54


 2534              		@ sp needed
 2535 0010 5DF804FB 		ldr	pc, [sp], #4
 2536              		.cfi_endproc
 2537              	.LFE141:
 2539              		.section	.text.lv_style_set_image_opa,"ax",%progbits
 2540              		.align	1
 2541              		.global	lv_style_set_image_opa
 2542              		.syntax unified
 2543              		.thumb
 2544              		.thumb_func
 2546              	lv_style_set_image_opa:
 2547              	.LVL174:
 2548              	.LFB142:
 608:Lib/lvgl/src/misc/lv_style_gen.c **** 
 609:Lib/lvgl/src/misc/lv_style_gen.c **** const lv_style_prop_t _lv_style_const_prop_id_SHADOW_OPA = LV_STYLE_SHADOW_OPA;
 610:Lib/lvgl/src/misc/lv_style_gen.c **** 
 611:Lib/lvgl/src/misc/lv_style_gen.c **** void lv_style_set_image_opa(lv_style_t * style, lv_opa_t value)
 612:Lib/lvgl/src/misc/lv_style_gen.c **** {
 2549              		.loc 1 612 1 is_stmt 1 view -0
 2550              		.cfi_startproc
 2551              		@ args = 0, pretend = 0, frame = 8
 2552              		@ frame_needed = 0, uses_anonymous_args = 0
 2553              		.loc 1 612 1 is_stmt 0 view .LVU456
 2554 0000 00B5     		push	{lr}
 2555              	.LCFI180:
 2556              		.cfi_def_cfa_offset 4
 2557              		.cfi_offset 14, -4
 2558 0002 83B0     		sub	sp, sp, #12
 2559              	.LCFI181:
 2560              		.cfi_def_cfa_offset 16
 2561 0004 0A46     		mov	r2, r1
 613:Lib/lvgl/src/misc/lv_style_gen.c ****     lv_style_value_t v = {
 2562              		.loc 1 613 5 is_stmt 1 view .LVU457
 2563              		.loc 1 613 22 is_stmt 0 view .LVU458
 2564 0006 0191     		str	r1, [sp, #4]
 614:Lib/lvgl/src/misc/lv_style_gen.c ****         .num = (int32_t)value
 615:Lib/lvgl/src/misc/lv_style_gen.c ****     };
 616:Lib/lvgl/src/misc/lv_style_gen.c ****     lv_style_set_prop(style, LV_STYLE_IMAGE_OPA, v);
 2565              		.loc 1 616 5 is_stmt 1 view .LVU459
 2566 0008 4421     		movs	r1, #68
 2567              	.LVL175:
 2568              		.loc 1 616 5 is_stmt 0 view .LVU460
 2569 000a FFF7FEFF 		bl	lv_style_set_prop
 2570              	.LVL176:
 617:Lib/lvgl/src/misc/lv_style_gen.c **** }
 2571              		.loc 1 617 1 view .LVU461
 2572 000e 03B0     		add	sp, sp, #12
 2573              	.LCFI182:
 2574              		.cfi_def_cfa_offset 4
 2575              		@ sp needed
 2576 0010 5DF804FB 		ldr	pc, [sp], #4
 2577              		.cfi_endproc
 2578              	.LFE142:
 2580              		.section	.text.lv_style_set_image_recolor,"ax",%progbits
 2581              		.align	1
 2582              		.global	lv_style_set_image_recolor
 2583              		.syntax unified
ARM GAS  C:\Users\Alex\AppData\Local\Temp\ccl5l8V8.s 			page 55


 2584              		.thumb
 2585              		.thumb_func
 2587              	lv_style_set_image_recolor:
 2588              	.LVL177:
 2589              	.LFB143:
 618:Lib/lvgl/src/misc/lv_style_gen.c **** 
 619:Lib/lvgl/src/misc/lv_style_gen.c **** const lv_style_prop_t _lv_style_const_prop_id_IMAGE_OPA = LV_STYLE_IMAGE_OPA;
 620:Lib/lvgl/src/misc/lv_style_gen.c **** 
 621:Lib/lvgl/src/misc/lv_style_gen.c **** void lv_style_set_image_recolor(lv_style_t * style, lv_color_t value)
 622:Lib/lvgl/src/misc/lv_style_gen.c **** {
 2590              		.loc 1 622 1 is_stmt 1 view -0
 2591              		.cfi_startproc
 2592              		@ args = 0, pretend = 0, frame = 16
 2593              		@ frame_needed = 0, uses_anonymous_args = 0
 2594              		.loc 1 622 1 is_stmt 0 view .LVU463
 2595 0000 00B5     		push	{lr}
 2596              	.LCFI183:
 2597              		.cfi_def_cfa_offset 4
 2598              		.cfi_offset 14, -4
 2599 0002 85B0     		sub	sp, sp, #20
 2600              	.LCFI184:
 2601              		.cfi_def_cfa_offset 24
 2602 0004 0191     		str	r1, [sp, #4]
 623:Lib/lvgl/src/misc/lv_style_gen.c ****     lv_style_value_t v = {
 2603              		.loc 1 623 5 is_stmt 1 view .LVU464
 2604              		.loc 1 623 22 is_stmt 0 view .LVU465
 2605 0006 0023     		movs	r3, #0
 2606 0008 0393     		str	r3, [sp, #12]
 2607 000a ADF80C10 		strh	r1, [sp, #12]	@ movhi
 2608 000e 0B0C     		lsrs	r3, r1, #16
 2609 0010 8DF80E30 		strb	r3, [sp, #14]
 624:Lib/lvgl/src/misc/lv_style_gen.c ****         .color = value
 625:Lib/lvgl/src/misc/lv_style_gen.c ****     };
 626:Lib/lvgl/src/misc/lv_style_gen.c ****     lv_style_set_prop(style, LV_STYLE_IMAGE_RECOLOR, v);
 2610              		.loc 1 626 5 is_stmt 1 view .LVU466
 2611 0014 039A     		ldr	r2, [sp, #12]
 2612 0016 4521     		movs	r1, #69
 2613 0018 FFF7FEFF 		bl	lv_style_set_prop
 2614              	.LVL178:
 627:Lib/lvgl/src/misc/lv_style_gen.c **** }
 2615              		.loc 1 627 1 is_stmt 0 view .LVU467
 2616 001c 05B0     		add	sp, sp, #20
 2617              	.LCFI185:
 2618              		.cfi_def_cfa_offset 4
 2619              		@ sp needed
 2620 001e 5DF804FB 		ldr	pc, [sp], #4
 2621              		.cfi_endproc
 2622              	.LFE143:
 2624              		.section	.text.lv_style_set_image_recolor_opa,"ax",%progbits
 2625              		.align	1
 2626              		.global	lv_style_set_image_recolor_opa
 2627              		.syntax unified
 2628              		.thumb
 2629              		.thumb_func
 2631              	lv_style_set_image_recolor_opa:
 2632              	.LVL179:
 2633              	.LFB144:
ARM GAS  C:\Users\Alex\AppData\Local\Temp\ccl5l8V8.s 			page 56


 628:Lib/lvgl/src/misc/lv_style_gen.c **** 
 629:Lib/lvgl/src/misc/lv_style_gen.c **** const lv_style_prop_t _lv_style_const_prop_id_IMAGE_RECOLOR = LV_STYLE_IMAGE_RECOLOR;
 630:Lib/lvgl/src/misc/lv_style_gen.c **** 
 631:Lib/lvgl/src/misc/lv_style_gen.c **** void lv_style_set_image_recolor_opa(lv_style_t * style, lv_opa_t value)
 632:Lib/lvgl/src/misc/lv_style_gen.c **** {
 2634              		.loc 1 632 1 is_stmt 1 view -0
 2635              		.cfi_startproc
 2636              		@ args = 0, pretend = 0, frame = 8
 2637              		@ frame_needed = 0, uses_anonymous_args = 0
 2638              		.loc 1 632 1 is_stmt 0 view .LVU469
 2639 0000 00B5     		push	{lr}
 2640              	.LCFI186:
 2641              		.cfi_def_cfa_offset 4
 2642              		.cfi_offset 14, -4
 2643 0002 83B0     		sub	sp, sp, #12
 2644              	.LCFI187:
 2645              		.cfi_def_cfa_offset 16
 2646 0004 0A46     		mov	r2, r1
 633:Lib/lvgl/src/misc/lv_style_gen.c ****     lv_style_value_t v = {
 2647              		.loc 1 633 5 is_stmt 1 view .LVU470
 2648              		.loc 1 633 22 is_stmt 0 view .LVU471
 2649 0006 0191     		str	r1, [sp, #4]
 634:Lib/lvgl/src/misc/lv_style_gen.c ****         .num = (int32_t)value
 635:Lib/lvgl/src/misc/lv_style_gen.c ****     };
 636:Lib/lvgl/src/misc/lv_style_gen.c ****     lv_style_set_prop(style, LV_STYLE_IMAGE_RECOLOR_OPA, v);
 2650              		.loc 1 636 5 is_stmt 1 view .LVU472
 2651 0008 4621     		movs	r1, #70
 2652              	.LVL180:
 2653              		.loc 1 636 5 is_stmt 0 view .LVU473
 2654 000a FFF7FEFF 		bl	lv_style_set_prop
 2655              	.LVL181:
 637:Lib/lvgl/src/misc/lv_style_gen.c **** }
 2656              		.loc 1 637 1 view .LVU474
 2657 000e 03B0     		add	sp, sp, #12
 2658              	.LCFI188:
 2659              		.cfi_def_cfa_offset 4
 2660              		@ sp needed
 2661 0010 5DF804FB 		ldr	pc, [sp], #4
 2662              		.cfi_endproc
 2663              	.LFE144:
 2665              		.section	.text.lv_style_set_line_width,"ax",%progbits
 2666              		.align	1
 2667              		.global	lv_style_set_line_width
 2668              		.syntax unified
 2669              		.thumb
 2670              		.thumb_func
 2672              	lv_style_set_line_width:
 2673              	.LVL182:
 2674              	.LFB145:
 638:Lib/lvgl/src/misc/lv_style_gen.c **** 
 639:Lib/lvgl/src/misc/lv_style_gen.c **** const lv_style_prop_t _lv_style_const_prop_id_IMAGE_RECOLOR_OPA = LV_STYLE_IMAGE_RECOLOR_OPA;
 640:Lib/lvgl/src/misc/lv_style_gen.c **** 
 641:Lib/lvgl/src/misc/lv_style_gen.c **** void lv_style_set_line_width(lv_style_t * style, int32_t value)
 642:Lib/lvgl/src/misc/lv_style_gen.c **** {
 2675              		.loc 1 642 1 is_stmt 1 view -0
 2676              		.cfi_startproc
 2677              		@ args = 0, pretend = 0, frame = 8
ARM GAS  C:\Users\Alex\AppData\Local\Temp\ccl5l8V8.s 			page 57


 2678              		@ frame_needed = 0, uses_anonymous_args = 0
 2679              		.loc 1 642 1 is_stmt 0 view .LVU476
 2680 0000 00B5     		push	{lr}
 2681              	.LCFI189:
 2682              		.cfi_def_cfa_offset 4
 2683              		.cfi_offset 14, -4
 2684 0002 83B0     		sub	sp, sp, #12
 2685              	.LCFI190:
 2686              		.cfi_def_cfa_offset 16
 2687 0004 0A46     		mov	r2, r1
 643:Lib/lvgl/src/misc/lv_style_gen.c ****     lv_style_value_t v = {
 2688              		.loc 1 643 5 is_stmt 1 view .LVU477
 2689              		.loc 1 643 22 is_stmt 0 view .LVU478
 2690 0006 0191     		str	r1, [sp, #4]
 644:Lib/lvgl/src/misc/lv_style_gen.c ****         .num = (int32_t)value
 645:Lib/lvgl/src/misc/lv_style_gen.c ****     };
 646:Lib/lvgl/src/misc/lv_style_gen.c ****     lv_style_set_prop(style, LV_STYLE_LINE_WIDTH, v);
 2691              		.loc 1 646 5 is_stmt 1 view .LVU479
 2692 0008 4821     		movs	r1, #72
 2693              	.LVL183:
 2694              		.loc 1 646 5 is_stmt 0 view .LVU480
 2695 000a FFF7FEFF 		bl	lv_style_set_prop
 2696              	.LVL184:
 647:Lib/lvgl/src/misc/lv_style_gen.c **** }
 2697              		.loc 1 647 1 view .LVU481
 2698 000e 03B0     		add	sp, sp, #12
 2699              	.LCFI191:
 2700              		.cfi_def_cfa_offset 4
 2701              		@ sp needed
 2702 0010 5DF804FB 		ldr	pc, [sp], #4
 2703              		.loc 1 647 1 view .LVU482
 2704              		.cfi_endproc
 2705              	.LFE145:
 2707              		.section	.text.lv_style_set_line_dash_width,"ax",%progbits
 2708              		.align	1
 2709              		.global	lv_style_set_line_dash_width
 2710              		.syntax unified
 2711              		.thumb
 2712              		.thumb_func
 2714              	lv_style_set_line_dash_width:
 2715              	.LVL185:
 2716              	.LFB146:
 648:Lib/lvgl/src/misc/lv_style_gen.c **** 
 649:Lib/lvgl/src/misc/lv_style_gen.c **** const lv_style_prop_t _lv_style_const_prop_id_LINE_WIDTH = LV_STYLE_LINE_WIDTH;
 650:Lib/lvgl/src/misc/lv_style_gen.c **** 
 651:Lib/lvgl/src/misc/lv_style_gen.c **** void lv_style_set_line_dash_width(lv_style_t * style, int32_t value)
 652:Lib/lvgl/src/misc/lv_style_gen.c **** {
 2717              		.loc 1 652 1 is_stmt 1 view -0
 2718              		.cfi_startproc
 2719              		@ args = 0, pretend = 0, frame = 8
 2720              		@ frame_needed = 0, uses_anonymous_args = 0
 2721              		.loc 1 652 1 is_stmt 0 view .LVU484
 2722 0000 00B5     		push	{lr}
 2723              	.LCFI192:
 2724              		.cfi_def_cfa_offset 4
 2725              		.cfi_offset 14, -4
 2726 0002 83B0     		sub	sp, sp, #12
ARM GAS  C:\Users\Alex\AppData\Local\Temp\ccl5l8V8.s 			page 58


 2727              	.LCFI193:
 2728              		.cfi_def_cfa_offset 16
 2729 0004 0A46     		mov	r2, r1
 653:Lib/lvgl/src/misc/lv_style_gen.c ****     lv_style_value_t v = {
 2730              		.loc 1 653 5 is_stmt 1 view .LVU485
 2731              		.loc 1 653 22 is_stmt 0 view .LVU486
 2732 0006 0191     		str	r1, [sp, #4]
 654:Lib/lvgl/src/misc/lv_style_gen.c ****         .num = (int32_t)value
 655:Lib/lvgl/src/misc/lv_style_gen.c ****     };
 656:Lib/lvgl/src/misc/lv_style_gen.c ****     lv_style_set_prop(style, LV_STYLE_LINE_DASH_WIDTH, v);
 2733              		.loc 1 656 5 is_stmt 1 view .LVU487
 2734 0008 4921     		movs	r1, #73
 2735              	.LVL186:
 2736              		.loc 1 656 5 is_stmt 0 view .LVU488
 2737 000a FFF7FEFF 		bl	lv_style_set_prop
 2738              	.LVL187:
 657:Lib/lvgl/src/misc/lv_style_gen.c **** }
 2739              		.loc 1 657 1 view .LVU489
 2740 000e 03B0     		add	sp, sp, #12
 2741              	.LCFI194:
 2742              		.cfi_def_cfa_offset 4
 2743              		@ sp needed
 2744 0010 5DF804FB 		ldr	pc, [sp], #4
 2745              		.loc 1 657 1 view .LVU490
 2746              		.cfi_endproc
 2747              	.LFE146:
 2749              		.section	.text.lv_style_set_line_dash_gap,"ax",%progbits
 2750              		.align	1
 2751              		.global	lv_style_set_line_dash_gap
 2752              		.syntax unified
 2753              		.thumb
 2754              		.thumb_func
 2756              	lv_style_set_line_dash_gap:
 2757              	.LVL188:
 2758              	.LFB147:
 658:Lib/lvgl/src/misc/lv_style_gen.c **** 
 659:Lib/lvgl/src/misc/lv_style_gen.c **** const lv_style_prop_t _lv_style_const_prop_id_LINE_DASH_WIDTH = LV_STYLE_LINE_DASH_WIDTH;
 660:Lib/lvgl/src/misc/lv_style_gen.c **** 
 661:Lib/lvgl/src/misc/lv_style_gen.c **** void lv_style_set_line_dash_gap(lv_style_t * style, int32_t value)
 662:Lib/lvgl/src/misc/lv_style_gen.c **** {
 2759              		.loc 1 662 1 is_stmt 1 view -0
 2760              		.cfi_startproc
 2761              		@ args = 0, pretend = 0, frame = 8
 2762              		@ frame_needed = 0, uses_anonymous_args = 0
 2763              		.loc 1 662 1 is_stmt 0 view .LVU492
 2764 0000 00B5     		push	{lr}
 2765              	.LCFI195:
 2766              		.cfi_def_cfa_offset 4
 2767              		.cfi_offset 14, -4
 2768 0002 83B0     		sub	sp, sp, #12
 2769              	.LCFI196:
 2770              		.cfi_def_cfa_offset 16
 2771 0004 0A46     		mov	r2, r1
 663:Lib/lvgl/src/misc/lv_style_gen.c ****     lv_style_value_t v = {
 2772              		.loc 1 663 5 is_stmt 1 view .LVU493
 2773              		.loc 1 663 22 is_stmt 0 view .LVU494
 2774 0006 0191     		str	r1, [sp, #4]
ARM GAS  C:\Users\Alex\AppData\Local\Temp\ccl5l8V8.s 			page 59


 664:Lib/lvgl/src/misc/lv_style_gen.c ****         .num = (int32_t)value
 665:Lib/lvgl/src/misc/lv_style_gen.c ****     };
 666:Lib/lvgl/src/misc/lv_style_gen.c ****     lv_style_set_prop(style, LV_STYLE_LINE_DASH_GAP, v);
 2775              		.loc 1 666 5 is_stmt 1 view .LVU495
 2776 0008 4A21     		movs	r1, #74
 2777              	.LVL189:
 2778              		.loc 1 666 5 is_stmt 0 view .LVU496
 2779 000a FFF7FEFF 		bl	lv_style_set_prop
 2780              	.LVL190:
 667:Lib/lvgl/src/misc/lv_style_gen.c **** }
 2781              		.loc 1 667 1 view .LVU497
 2782 000e 03B0     		add	sp, sp, #12
 2783              	.LCFI197:
 2784              		.cfi_def_cfa_offset 4
 2785              		@ sp needed
 2786 0010 5DF804FB 		ldr	pc, [sp], #4
 2787              		.loc 1 667 1 view .LVU498
 2788              		.cfi_endproc
 2789              	.LFE147:
 2791              		.section	.text.lv_style_set_line_rounded,"ax",%progbits
 2792              		.align	1
 2793              		.global	lv_style_set_line_rounded
 2794              		.syntax unified
 2795              		.thumb
 2796              		.thumb_func
 2798              	lv_style_set_line_rounded:
 2799              	.LVL191:
 2800              	.LFB148:
 668:Lib/lvgl/src/misc/lv_style_gen.c **** 
 669:Lib/lvgl/src/misc/lv_style_gen.c **** const lv_style_prop_t _lv_style_const_prop_id_LINE_DASH_GAP = LV_STYLE_LINE_DASH_GAP;
 670:Lib/lvgl/src/misc/lv_style_gen.c **** 
 671:Lib/lvgl/src/misc/lv_style_gen.c **** void lv_style_set_line_rounded(lv_style_t * style, bool value)
 672:Lib/lvgl/src/misc/lv_style_gen.c **** {
 2801              		.loc 1 672 1 is_stmt 1 view -0
 2802              		.cfi_startproc
 2803              		@ args = 0, pretend = 0, frame = 8
 2804              		@ frame_needed = 0, uses_anonymous_args = 0
 2805              		.loc 1 672 1 is_stmt 0 view .LVU500
 2806 0000 00B5     		push	{lr}
 2807              	.LCFI198:
 2808              		.cfi_def_cfa_offset 4
 2809              		.cfi_offset 14, -4
 2810 0002 83B0     		sub	sp, sp, #12
 2811              	.LCFI199:
 2812              		.cfi_def_cfa_offset 16
 2813 0004 0A46     		mov	r2, r1
 673:Lib/lvgl/src/misc/lv_style_gen.c ****     lv_style_value_t v = {
 2814              		.loc 1 673 5 is_stmt 1 view .LVU501
 2815              		.loc 1 673 22 is_stmt 0 view .LVU502
 2816 0006 0191     		str	r1, [sp, #4]
 674:Lib/lvgl/src/misc/lv_style_gen.c ****         .num = (int32_t)value
 675:Lib/lvgl/src/misc/lv_style_gen.c ****     };
 676:Lib/lvgl/src/misc/lv_style_gen.c ****     lv_style_set_prop(style, LV_STYLE_LINE_ROUNDED, v);
 2817              		.loc 1 676 5 is_stmt 1 view .LVU503
 2818 0008 4B21     		movs	r1, #75
 2819              	.LVL192:
 2820              		.loc 1 676 5 is_stmt 0 view .LVU504
ARM GAS  C:\Users\Alex\AppData\Local\Temp\ccl5l8V8.s 			page 60


 2821 000a FFF7FEFF 		bl	lv_style_set_prop
 2822              	.LVL193:
 677:Lib/lvgl/src/misc/lv_style_gen.c **** }
 2823              		.loc 1 677 1 view .LVU505
 2824 000e 03B0     		add	sp, sp, #12
 2825              	.LCFI200:
 2826              		.cfi_def_cfa_offset 4
 2827              		@ sp needed
 2828 0010 5DF804FB 		ldr	pc, [sp], #4
 2829              		.cfi_endproc
 2830              	.LFE148:
 2832              		.section	.text.lv_style_set_line_color,"ax",%progbits
 2833              		.align	1
 2834              		.global	lv_style_set_line_color
 2835              		.syntax unified
 2836              		.thumb
 2837              		.thumb_func
 2839              	lv_style_set_line_color:
 2840              	.LVL194:
 2841              	.LFB149:
 678:Lib/lvgl/src/misc/lv_style_gen.c **** 
 679:Lib/lvgl/src/misc/lv_style_gen.c **** const lv_style_prop_t _lv_style_const_prop_id_LINE_ROUNDED = LV_STYLE_LINE_ROUNDED;
 680:Lib/lvgl/src/misc/lv_style_gen.c **** 
 681:Lib/lvgl/src/misc/lv_style_gen.c **** void lv_style_set_line_color(lv_style_t * style, lv_color_t value)
 682:Lib/lvgl/src/misc/lv_style_gen.c **** {
 2842              		.loc 1 682 1 is_stmt 1 view -0
 2843              		.cfi_startproc
 2844              		@ args = 0, pretend = 0, frame = 16
 2845              		@ frame_needed = 0, uses_anonymous_args = 0
 2846              		.loc 1 682 1 is_stmt 0 view .LVU507
 2847 0000 00B5     		push	{lr}
 2848              	.LCFI201:
 2849              		.cfi_def_cfa_offset 4
 2850              		.cfi_offset 14, -4
 2851 0002 85B0     		sub	sp, sp, #20
 2852              	.LCFI202:
 2853              		.cfi_def_cfa_offset 24
 2854 0004 0191     		str	r1, [sp, #4]
 683:Lib/lvgl/src/misc/lv_style_gen.c ****     lv_style_value_t v = {
 2855              		.loc 1 683 5 is_stmt 1 view .LVU508
 2856              		.loc 1 683 22 is_stmt 0 view .LVU509
 2857 0006 0023     		movs	r3, #0
 2858 0008 0393     		str	r3, [sp, #12]
 2859 000a ADF80C10 		strh	r1, [sp, #12]	@ movhi
 2860 000e 0B0C     		lsrs	r3, r1, #16
 2861 0010 8DF80E30 		strb	r3, [sp, #14]
 684:Lib/lvgl/src/misc/lv_style_gen.c ****         .color = value
 685:Lib/lvgl/src/misc/lv_style_gen.c ****     };
 686:Lib/lvgl/src/misc/lv_style_gen.c ****     lv_style_set_prop(style, LV_STYLE_LINE_COLOR, v);
 2862              		.loc 1 686 5 is_stmt 1 view .LVU510
 2863 0014 039A     		ldr	r2, [sp, #12]
 2864 0016 4C21     		movs	r1, #76
 2865 0018 FFF7FEFF 		bl	lv_style_set_prop
 2866              	.LVL195:
 687:Lib/lvgl/src/misc/lv_style_gen.c **** }
 2867              		.loc 1 687 1 is_stmt 0 view .LVU511
 2868 001c 05B0     		add	sp, sp, #20
ARM GAS  C:\Users\Alex\AppData\Local\Temp\ccl5l8V8.s 			page 61


 2869              	.LCFI203:
 2870              		.cfi_def_cfa_offset 4
 2871              		@ sp needed
 2872 001e 5DF804FB 		ldr	pc, [sp], #4
 2873              		.cfi_endproc
 2874              	.LFE149:
 2876              		.section	.text.lv_style_set_line_opa,"ax",%progbits
 2877              		.align	1
 2878              		.global	lv_style_set_line_opa
 2879              		.syntax unified
 2880              		.thumb
 2881              		.thumb_func
 2883              	lv_style_set_line_opa:
 2884              	.LVL196:
 2885              	.LFB150:
 688:Lib/lvgl/src/misc/lv_style_gen.c **** 
 689:Lib/lvgl/src/misc/lv_style_gen.c **** const lv_style_prop_t _lv_style_const_prop_id_LINE_COLOR = LV_STYLE_LINE_COLOR;
 690:Lib/lvgl/src/misc/lv_style_gen.c **** 
 691:Lib/lvgl/src/misc/lv_style_gen.c **** void lv_style_set_line_opa(lv_style_t * style, lv_opa_t value)
 692:Lib/lvgl/src/misc/lv_style_gen.c **** {
 2886              		.loc 1 692 1 is_stmt 1 view -0
 2887              		.cfi_startproc
 2888              		@ args = 0, pretend = 0, frame = 8
 2889              		@ frame_needed = 0, uses_anonymous_args = 0
 2890              		.loc 1 692 1 is_stmt 0 view .LVU513
 2891 0000 00B5     		push	{lr}
 2892              	.LCFI204:
 2893              		.cfi_def_cfa_offset 4
 2894              		.cfi_offset 14, -4
 2895 0002 83B0     		sub	sp, sp, #12
 2896              	.LCFI205:
 2897              		.cfi_def_cfa_offset 16
 2898 0004 0A46     		mov	r2, r1
 693:Lib/lvgl/src/misc/lv_style_gen.c ****     lv_style_value_t v = {
 2899              		.loc 1 693 5 is_stmt 1 view .LVU514
 2900              		.loc 1 693 22 is_stmt 0 view .LVU515
 2901 0006 0191     		str	r1, [sp, #4]
 694:Lib/lvgl/src/misc/lv_style_gen.c ****         .num = (int32_t)value
 695:Lib/lvgl/src/misc/lv_style_gen.c ****     };
 696:Lib/lvgl/src/misc/lv_style_gen.c ****     lv_style_set_prop(style, LV_STYLE_LINE_OPA, v);
 2902              		.loc 1 696 5 is_stmt 1 view .LVU516
 2903 0008 4D21     		movs	r1, #77
 2904              	.LVL197:
 2905              		.loc 1 696 5 is_stmt 0 view .LVU517
 2906 000a FFF7FEFF 		bl	lv_style_set_prop
 2907              	.LVL198:
 697:Lib/lvgl/src/misc/lv_style_gen.c **** }
 2908              		.loc 1 697 1 view .LVU518
 2909 000e 03B0     		add	sp, sp, #12
 2910              	.LCFI206:
 2911              		.cfi_def_cfa_offset 4
 2912              		@ sp needed
 2913 0010 5DF804FB 		ldr	pc, [sp], #4
 2914              		.cfi_endproc
 2915              	.LFE150:
 2917              		.section	.text.lv_style_set_arc_width,"ax",%progbits
 2918              		.align	1
ARM GAS  C:\Users\Alex\AppData\Local\Temp\ccl5l8V8.s 			page 62


 2919              		.global	lv_style_set_arc_width
 2920              		.syntax unified
 2921              		.thumb
 2922              		.thumb_func
 2924              	lv_style_set_arc_width:
 2925              	.LVL199:
 2926              	.LFB151:
 698:Lib/lvgl/src/misc/lv_style_gen.c **** 
 699:Lib/lvgl/src/misc/lv_style_gen.c **** const lv_style_prop_t _lv_style_const_prop_id_LINE_OPA = LV_STYLE_LINE_OPA;
 700:Lib/lvgl/src/misc/lv_style_gen.c **** 
 701:Lib/lvgl/src/misc/lv_style_gen.c **** void lv_style_set_arc_width(lv_style_t * style, int32_t value)
 702:Lib/lvgl/src/misc/lv_style_gen.c **** {
 2927              		.loc 1 702 1 is_stmt 1 view -0
 2928              		.cfi_startproc
 2929              		@ args = 0, pretend = 0, frame = 8
 2930              		@ frame_needed = 0, uses_anonymous_args = 0
 2931              		.loc 1 702 1 is_stmt 0 view .LVU520
 2932 0000 00B5     		push	{lr}
 2933              	.LCFI207:
 2934              		.cfi_def_cfa_offset 4
 2935              		.cfi_offset 14, -4
 2936 0002 83B0     		sub	sp, sp, #12
 2937              	.LCFI208:
 2938              		.cfi_def_cfa_offset 16
 2939 0004 0A46     		mov	r2, r1
 703:Lib/lvgl/src/misc/lv_style_gen.c ****     lv_style_value_t v = {
 2940              		.loc 1 703 5 is_stmt 1 view .LVU521
 2941              		.loc 1 703 22 is_stmt 0 view .LVU522
 2942 0006 0191     		str	r1, [sp, #4]
 704:Lib/lvgl/src/misc/lv_style_gen.c ****         .num = (int32_t)value
 705:Lib/lvgl/src/misc/lv_style_gen.c ****     };
 706:Lib/lvgl/src/misc/lv_style_gen.c ****     lv_style_set_prop(style, LV_STYLE_ARC_WIDTH, v);
 2943              		.loc 1 706 5 is_stmt 1 view .LVU523
 2944 0008 5021     		movs	r1, #80
 2945              	.LVL200:
 2946              		.loc 1 706 5 is_stmt 0 view .LVU524
 2947 000a FFF7FEFF 		bl	lv_style_set_prop
 2948              	.LVL201:
 707:Lib/lvgl/src/misc/lv_style_gen.c **** }
 2949              		.loc 1 707 1 view .LVU525
 2950 000e 03B0     		add	sp, sp, #12
 2951              	.LCFI209:
 2952              		.cfi_def_cfa_offset 4
 2953              		@ sp needed
 2954 0010 5DF804FB 		ldr	pc, [sp], #4
 2955              		.loc 1 707 1 view .LVU526
 2956              		.cfi_endproc
 2957              	.LFE151:
 2959              		.section	.text.lv_style_set_arc_rounded,"ax",%progbits
 2960              		.align	1
 2961              		.global	lv_style_set_arc_rounded
 2962              		.syntax unified
 2963              		.thumb
 2964              		.thumb_func
 2966              	lv_style_set_arc_rounded:
 2967              	.LVL202:
 2968              	.LFB152:
ARM GAS  C:\Users\Alex\AppData\Local\Temp\ccl5l8V8.s 			page 63


 708:Lib/lvgl/src/misc/lv_style_gen.c **** 
 709:Lib/lvgl/src/misc/lv_style_gen.c **** const lv_style_prop_t _lv_style_const_prop_id_ARC_WIDTH = LV_STYLE_ARC_WIDTH;
 710:Lib/lvgl/src/misc/lv_style_gen.c **** 
 711:Lib/lvgl/src/misc/lv_style_gen.c **** void lv_style_set_arc_rounded(lv_style_t * style, bool value)
 712:Lib/lvgl/src/misc/lv_style_gen.c **** {
 2969              		.loc 1 712 1 is_stmt 1 view -0
 2970              		.cfi_startproc
 2971              		@ args = 0, pretend = 0, frame = 8
 2972              		@ frame_needed = 0, uses_anonymous_args = 0
 2973              		.loc 1 712 1 is_stmt 0 view .LVU528
 2974 0000 00B5     		push	{lr}
 2975              	.LCFI210:
 2976              		.cfi_def_cfa_offset 4
 2977              		.cfi_offset 14, -4
 2978 0002 83B0     		sub	sp, sp, #12
 2979              	.LCFI211:
 2980              		.cfi_def_cfa_offset 16
 2981 0004 0A46     		mov	r2, r1
 713:Lib/lvgl/src/misc/lv_style_gen.c ****     lv_style_value_t v = {
 2982              		.loc 1 713 5 is_stmt 1 view .LVU529
 2983              		.loc 1 713 22 is_stmt 0 view .LVU530
 2984 0006 0191     		str	r1, [sp, #4]
 714:Lib/lvgl/src/misc/lv_style_gen.c ****         .num = (int32_t)value
 715:Lib/lvgl/src/misc/lv_style_gen.c ****     };
 716:Lib/lvgl/src/misc/lv_style_gen.c ****     lv_style_set_prop(style, LV_STYLE_ARC_ROUNDED, v);
 2985              		.loc 1 716 5 is_stmt 1 view .LVU531
 2986 0008 5121     		movs	r1, #81
 2987              	.LVL203:
 2988              		.loc 1 716 5 is_stmt 0 view .LVU532
 2989 000a FFF7FEFF 		bl	lv_style_set_prop
 2990              	.LVL204:
 717:Lib/lvgl/src/misc/lv_style_gen.c **** }
 2991              		.loc 1 717 1 view .LVU533
 2992 000e 03B0     		add	sp, sp, #12
 2993              	.LCFI212:
 2994              		.cfi_def_cfa_offset 4
 2995              		@ sp needed
 2996 0010 5DF804FB 		ldr	pc, [sp], #4
 2997              		.cfi_endproc
 2998              	.LFE152:
 3000              		.section	.text.lv_style_set_arc_color,"ax",%progbits
 3001              		.align	1
 3002              		.global	lv_style_set_arc_color
 3003              		.syntax unified
 3004              		.thumb
 3005              		.thumb_func
 3007              	lv_style_set_arc_color:
 3008              	.LVL205:
 3009              	.LFB153:
 718:Lib/lvgl/src/misc/lv_style_gen.c **** 
 719:Lib/lvgl/src/misc/lv_style_gen.c **** const lv_style_prop_t _lv_style_const_prop_id_ARC_ROUNDED = LV_STYLE_ARC_ROUNDED;
 720:Lib/lvgl/src/misc/lv_style_gen.c **** 
 721:Lib/lvgl/src/misc/lv_style_gen.c **** void lv_style_set_arc_color(lv_style_t * style, lv_color_t value)
 722:Lib/lvgl/src/misc/lv_style_gen.c **** {
 3010              		.loc 1 722 1 is_stmt 1 view -0
 3011              		.cfi_startproc
 3012              		@ args = 0, pretend = 0, frame = 16
ARM GAS  C:\Users\Alex\AppData\Local\Temp\ccl5l8V8.s 			page 64


 3013              		@ frame_needed = 0, uses_anonymous_args = 0
 3014              		.loc 1 722 1 is_stmt 0 view .LVU535
 3015 0000 00B5     		push	{lr}
 3016              	.LCFI213:
 3017              		.cfi_def_cfa_offset 4
 3018              		.cfi_offset 14, -4
 3019 0002 85B0     		sub	sp, sp, #20
 3020              	.LCFI214:
 3021              		.cfi_def_cfa_offset 24
 3022 0004 0191     		str	r1, [sp, #4]
 723:Lib/lvgl/src/misc/lv_style_gen.c ****     lv_style_value_t v = {
 3023              		.loc 1 723 5 is_stmt 1 view .LVU536
 3024              		.loc 1 723 22 is_stmt 0 view .LVU537
 3025 0006 0023     		movs	r3, #0
 3026 0008 0393     		str	r3, [sp, #12]
 3027 000a ADF80C10 		strh	r1, [sp, #12]	@ movhi
 3028 000e 0B0C     		lsrs	r3, r1, #16
 3029 0010 8DF80E30 		strb	r3, [sp, #14]
 724:Lib/lvgl/src/misc/lv_style_gen.c ****         .color = value
 725:Lib/lvgl/src/misc/lv_style_gen.c ****     };
 726:Lib/lvgl/src/misc/lv_style_gen.c ****     lv_style_set_prop(style, LV_STYLE_ARC_COLOR, v);
 3030              		.loc 1 726 5 is_stmt 1 view .LVU538
 3031 0014 039A     		ldr	r2, [sp, #12]
 3032 0016 5221     		movs	r1, #82
 3033 0018 FFF7FEFF 		bl	lv_style_set_prop
 3034              	.LVL206:
 727:Lib/lvgl/src/misc/lv_style_gen.c **** }
 3035              		.loc 1 727 1 is_stmt 0 view .LVU539
 3036 001c 05B0     		add	sp, sp, #20
 3037              	.LCFI215:
 3038              		.cfi_def_cfa_offset 4
 3039              		@ sp needed
 3040 001e 5DF804FB 		ldr	pc, [sp], #4
 3041              		.cfi_endproc
 3042              	.LFE153:
 3044              		.section	.text.lv_style_set_arc_opa,"ax",%progbits
 3045              		.align	1
 3046              		.global	lv_style_set_arc_opa
 3047              		.syntax unified
 3048              		.thumb
 3049              		.thumb_func
 3051              	lv_style_set_arc_opa:
 3052              	.LVL207:
 3053              	.LFB154:
 728:Lib/lvgl/src/misc/lv_style_gen.c **** 
 729:Lib/lvgl/src/misc/lv_style_gen.c **** const lv_style_prop_t _lv_style_const_prop_id_ARC_COLOR = LV_STYLE_ARC_COLOR;
 730:Lib/lvgl/src/misc/lv_style_gen.c **** 
 731:Lib/lvgl/src/misc/lv_style_gen.c **** void lv_style_set_arc_opa(lv_style_t * style, lv_opa_t value)
 732:Lib/lvgl/src/misc/lv_style_gen.c **** {
 3054              		.loc 1 732 1 is_stmt 1 view -0
 3055              		.cfi_startproc
 3056              		@ args = 0, pretend = 0, frame = 8
 3057              		@ frame_needed = 0, uses_anonymous_args = 0
 3058              		.loc 1 732 1 is_stmt 0 view .LVU541
 3059 0000 00B5     		push	{lr}
 3060              	.LCFI216:
 3061              		.cfi_def_cfa_offset 4
ARM GAS  C:\Users\Alex\AppData\Local\Temp\ccl5l8V8.s 			page 65


 3062              		.cfi_offset 14, -4
 3063 0002 83B0     		sub	sp, sp, #12
 3064              	.LCFI217:
 3065              		.cfi_def_cfa_offset 16
 3066 0004 0A46     		mov	r2, r1
 733:Lib/lvgl/src/misc/lv_style_gen.c ****     lv_style_value_t v = {
 3067              		.loc 1 733 5 is_stmt 1 view .LVU542
 3068              		.loc 1 733 22 is_stmt 0 view .LVU543
 3069 0006 0191     		str	r1, [sp, #4]
 734:Lib/lvgl/src/misc/lv_style_gen.c ****         .num = (int32_t)value
 735:Lib/lvgl/src/misc/lv_style_gen.c ****     };
 736:Lib/lvgl/src/misc/lv_style_gen.c ****     lv_style_set_prop(style, LV_STYLE_ARC_OPA, v);
 3070              		.loc 1 736 5 is_stmt 1 view .LVU544
 3071 0008 5321     		movs	r1, #83
 3072              	.LVL208:
 3073              		.loc 1 736 5 is_stmt 0 view .LVU545
 3074 000a FFF7FEFF 		bl	lv_style_set_prop
 3075              	.LVL209:
 737:Lib/lvgl/src/misc/lv_style_gen.c **** }
 3076              		.loc 1 737 1 view .LVU546
 3077 000e 03B0     		add	sp, sp, #12
 3078              	.LCFI218:
 3079              		.cfi_def_cfa_offset 4
 3080              		@ sp needed
 3081 0010 5DF804FB 		ldr	pc, [sp], #4
 3082              		.cfi_endproc
 3083              	.LFE154:
 3085              		.section	.text.lv_style_set_arc_image_src,"ax",%progbits
 3086              		.align	1
 3087              		.global	lv_style_set_arc_image_src
 3088              		.syntax unified
 3089              		.thumb
 3090              		.thumb_func
 3092              	lv_style_set_arc_image_src:
 3093              	.LVL210:
 3094              	.LFB155:
 738:Lib/lvgl/src/misc/lv_style_gen.c **** 
 739:Lib/lvgl/src/misc/lv_style_gen.c **** const lv_style_prop_t _lv_style_const_prop_id_ARC_OPA = LV_STYLE_ARC_OPA;
 740:Lib/lvgl/src/misc/lv_style_gen.c **** 
 741:Lib/lvgl/src/misc/lv_style_gen.c **** void lv_style_set_arc_image_src(lv_style_t * style, const void * value)
 742:Lib/lvgl/src/misc/lv_style_gen.c **** {
 3095              		.loc 1 742 1 is_stmt 1 view -0
 3096              		.cfi_startproc
 3097              		@ args = 0, pretend = 0, frame = 8
 3098              		@ frame_needed = 0, uses_anonymous_args = 0
 3099              		.loc 1 742 1 is_stmt 0 view .LVU548
 3100 0000 00B5     		push	{lr}
 3101              	.LCFI219:
 3102              		.cfi_def_cfa_offset 4
 3103              		.cfi_offset 14, -4
 3104 0002 83B0     		sub	sp, sp, #12
 3105              	.LCFI220:
 3106              		.cfi_def_cfa_offset 16
 3107 0004 0A46     		mov	r2, r1
 743:Lib/lvgl/src/misc/lv_style_gen.c ****     lv_style_value_t v = {
 3108              		.loc 1 743 5 is_stmt 1 view .LVU549
 3109              		.loc 1 743 22 is_stmt 0 view .LVU550
ARM GAS  C:\Users\Alex\AppData\Local\Temp\ccl5l8V8.s 			page 66


 3110 0006 0191     		str	r1, [sp, #4]
 744:Lib/lvgl/src/misc/lv_style_gen.c ****         .ptr = value
 745:Lib/lvgl/src/misc/lv_style_gen.c ****     };
 746:Lib/lvgl/src/misc/lv_style_gen.c ****     lv_style_set_prop(style, LV_STYLE_ARC_IMAGE_SRC, v);
 3111              		.loc 1 746 5 is_stmt 1 view .LVU551
 3112 0008 5421     		movs	r1, #84
 3113              	.LVL211:
 3114              		.loc 1 746 5 is_stmt 0 view .LVU552
 3115 000a FFF7FEFF 		bl	lv_style_set_prop
 3116              	.LVL212:
 747:Lib/lvgl/src/misc/lv_style_gen.c **** }
 3117              		.loc 1 747 1 view .LVU553
 3118 000e 03B0     		add	sp, sp, #12
 3119              	.LCFI221:
 3120              		.cfi_def_cfa_offset 4
 3121              		@ sp needed
 3122 0010 5DF804FB 		ldr	pc, [sp], #4
 3123              		.loc 1 747 1 view .LVU554
 3124              		.cfi_endproc
 3125              	.LFE155:
 3127              		.section	.text.lv_style_set_text_color,"ax",%progbits
 3128              		.align	1
 3129              		.global	lv_style_set_text_color
 3130              		.syntax unified
 3131              		.thumb
 3132              		.thumb_func
 3134              	lv_style_set_text_color:
 3135              	.LVL213:
 3136              	.LFB156:
 748:Lib/lvgl/src/misc/lv_style_gen.c **** 
 749:Lib/lvgl/src/misc/lv_style_gen.c **** const lv_style_prop_t _lv_style_const_prop_id_ARC_IMAGE_SRC = LV_STYLE_ARC_IMAGE_SRC;
 750:Lib/lvgl/src/misc/lv_style_gen.c **** 
 751:Lib/lvgl/src/misc/lv_style_gen.c **** void lv_style_set_text_color(lv_style_t * style, lv_color_t value)
 752:Lib/lvgl/src/misc/lv_style_gen.c **** {
 3137              		.loc 1 752 1 is_stmt 1 view -0
 3138              		.cfi_startproc
 3139              		@ args = 0, pretend = 0, frame = 16
 3140              		@ frame_needed = 0, uses_anonymous_args = 0
 3141              		.loc 1 752 1 is_stmt 0 view .LVU556
 3142 0000 00B5     		push	{lr}
 3143              	.LCFI222:
 3144              		.cfi_def_cfa_offset 4
 3145              		.cfi_offset 14, -4
 3146 0002 85B0     		sub	sp, sp, #20
 3147              	.LCFI223:
 3148              		.cfi_def_cfa_offset 24
 3149 0004 0191     		str	r1, [sp, #4]
 753:Lib/lvgl/src/misc/lv_style_gen.c ****     lv_style_value_t v = {
 3150              		.loc 1 753 5 is_stmt 1 view .LVU557
 3151              		.loc 1 753 22 is_stmt 0 view .LVU558
 3152 0006 0023     		movs	r3, #0
 3153 0008 0393     		str	r3, [sp, #12]
 3154 000a ADF80C10 		strh	r1, [sp, #12]	@ movhi
 3155 000e 0B0C     		lsrs	r3, r1, #16
 3156 0010 8DF80E30 		strb	r3, [sp, #14]
 754:Lib/lvgl/src/misc/lv_style_gen.c ****         .color = value
 755:Lib/lvgl/src/misc/lv_style_gen.c ****     };
ARM GAS  C:\Users\Alex\AppData\Local\Temp\ccl5l8V8.s 			page 67


 756:Lib/lvgl/src/misc/lv_style_gen.c ****     lv_style_set_prop(style, LV_STYLE_TEXT_COLOR, v);
 3157              		.loc 1 756 5 is_stmt 1 view .LVU559
 3158 0014 039A     		ldr	r2, [sp, #12]
 3159 0016 5821     		movs	r1, #88
 3160 0018 FFF7FEFF 		bl	lv_style_set_prop
 3161              	.LVL214:
 757:Lib/lvgl/src/misc/lv_style_gen.c **** }
 3162              		.loc 1 757 1 is_stmt 0 view .LVU560
 3163 001c 05B0     		add	sp, sp, #20
 3164              	.LCFI224:
 3165              		.cfi_def_cfa_offset 4
 3166              		@ sp needed
 3167 001e 5DF804FB 		ldr	pc, [sp], #4
 3168              		.cfi_endproc
 3169              	.LFE156:
 3171              		.section	.text.lv_style_set_text_opa,"ax",%progbits
 3172              		.align	1
 3173              		.global	lv_style_set_text_opa
 3174              		.syntax unified
 3175              		.thumb
 3176              		.thumb_func
 3178              	lv_style_set_text_opa:
 3179              	.LVL215:
 3180              	.LFB157:
 758:Lib/lvgl/src/misc/lv_style_gen.c **** 
 759:Lib/lvgl/src/misc/lv_style_gen.c **** const lv_style_prop_t _lv_style_const_prop_id_TEXT_COLOR = LV_STYLE_TEXT_COLOR;
 760:Lib/lvgl/src/misc/lv_style_gen.c **** 
 761:Lib/lvgl/src/misc/lv_style_gen.c **** void lv_style_set_text_opa(lv_style_t * style, lv_opa_t value)
 762:Lib/lvgl/src/misc/lv_style_gen.c **** {
 3181              		.loc 1 762 1 is_stmt 1 view -0
 3182              		.cfi_startproc
 3183              		@ args = 0, pretend = 0, frame = 8
 3184              		@ frame_needed = 0, uses_anonymous_args = 0
 3185              		.loc 1 762 1 is_stmt 0 view .LVU562
 3186 0000 00B5     		push	{lr}
 3187              	.LCFI225:
 3188              		.cfi_def_cfa_offset 4
 3189              		.cfi_offset 14, -4
 3190 0002 83B0     		sub	sp, sp, #12
 3191              	.LCFI226:
 3192              		.cfi_def_cfa_offset 16
 3193 0004 0A46     		mov	r2, r1
 763:Lib/lvgl/src/misc/lv_style_gen.c ****     lv_style_value_t v = {
 3194              		.loc 1 763 5 is_stmt 1 view .LVU563
 3195              		.loc 1 763 22 is_stmt 0 view .LVU564
 3196 0006 0191     		str	r1, [sp, #4]
 764:Lib/lvgl/src/misc/lv_style_gen.c ****         .num = (int32_t)value
 765:Lib/lvgl/src/misc/lv_style_gen.c ****     };
 766:Lib/lvgl/src/misc/lv_style_gen.c ****     lv_style_set_prop(style, LV_STYLE_TEXT_OPA, v);
 3197              		.loc 1 766 5 is_stmt 1 view .LVU565
 3198 0008 5921     		movs	r1, #89
 3199              	.LVL216:
 3200              		.loc 1 766 5 is_stmt 0 view .LVU566
 3201 000a FFF7FEFF 		bl	lv_style_set_prop
 3202              	.LVL217:
 767:Lib/lvgl/src/misc/lv_style_gen.c **** }
 3203              		.loc 1 767 1 view .LVU567
ARM GAS  C:\Users\Alex\AppData\Local\Temp\ccl5l8V8.s 			page 68


 3204 000e 03B0     		add	sp, sp, #12
 3205              	.LCFI227:
 3206              		.cfi_def_cfa_offset 4
 3207              		@ sp needed
 3208 0010 5DF804FB 		ldr	pc, [sp], #4
 3209              		.cfi_endproc
 3210              	.LFE157:
 3212              		.section	.text.lv_style_set_text_font,"ax",%progbits
 3213              		.align	1
 3214              		.global	lv_style_set_text_font
 3215              		.syntax unified
 3216              		.thumb
 3217              		.thumb_func
 3219              	lv_style_set_text_font:
 3220              	.LVL218:
 3221              	.LFB158:
 768:Lib/lvgl/src/misc/lv_style_gen.c **** 
 769:Lib/lvgl/src/misc/lv_style_gen.c **** const lv_style_prop_t _lv_style_const_prop_id_TEXT_OPA = LV_STYLE_TEXT_OPA;
 770:Lib/lvgl/src/misc/lv_style_gen.c **** 
 771:Lib/lvgl/src/misc/lv_style_gen.c **** void lv_style_set_text_font(lv_style_t * style, const lv_font_t * value)
 772:Lib/lvgl/src/misc/lv_style_gen.c **** {
 3222              		.loc 1 772 1 is_stmt 1 view -0
 3223              		.cfi_startproc
 3224              		@ args = 0, pretend = 0, frame = 8
 3225              		@ frame_needed = 0, uses_anonymous_args = 0
 3226              		.loc 1 772 1 is_stmt 0 view .LVU569
 3227 0000 00B5     		push	{lr}
 3228              	.LCFI228:
 3229              		.cfi_def_cfa_offset 4
 3230              		.cfi_offset 14, -4
 3231 0002 83B0     		sub	sp, sp, #12
 3232              	.LCFI229:
 3233              		.cfi_def_cfa_offset 16
 3234 0004 0A46     		mov	r2, r1
 773:Lib/lvgl/src/misc/lv_style_gen.c ****     lv_style_value_t v = {
 3235              		.loc 1 773 5 is_stmt 1 view .LVU570
 3236              		.loc 1 773 22 is_stmt 0 view .LVU571
 3237 0006 0191     		str	r1, [sp, #4]
 774:Lib/lvgl/src/misc/lv_style_gen.c ****         .ptr = value
 775:Lib/lvgl/src/misc/lv_style_gen.c ****     };
 776:Lib/lvgl/src/misc/lv_style_gen.c ****     lv_style_set_prop(style, LV_STYLE_TEXT_FONT, v);
 3238              		.loc 1 776 5 is_stmt 1 view .LVU572
 3239 0008 5A21     		movs	r1, #90
 3240              	.LVL219:
 3241              		.loc 1 776 5 is_stmt 0 view .LVU573
 3242 000a FFF7FEFF 		bl	lv_style_set_prop
 3243              	.LVL220:
 777:Lib/lvgl/src/misc/lv_style_gen.c **** }
 3244              		.loc 1 777 1 view .LVU574
 3245 000e 03B0     		add	sp, sp, #12
 3246              	.LCFI230:
 3247              		.cfi_def_cfa_offset 4
 3248              		@ sp needed
 3249 0010 5DF804FB 		ldr	pc, [sp], #4
 3250              		.loc 1 777 1 view .LVU575
 3251              		.cfi_endproc
 3252              	.LFE158:
ARM GAS  C:\Users\Alex\AppData\Local\Temp\ccl5l8V8.s 			page 69


 3254              		.section	.text.lv_style_set_text_letter_space,"ax",%progbits
 3255              		.align	1
 3256              		.global	lv_style_set_text_letter_space
 3257              		.syntax unified
 3258              		.thumb
 3259              		.thumb_func
 3261              	lv_style_set_text_letter_space:
 3262              	.LVL221:
 3263              	.LFB159:
 778:Lib/lvgl/src/misc/lv_style_gen.c **** 
 779:Lib/lvgl/src/misc/lv_style_gen.c **** const lv_style_prop_t _lv_style_const_prop_id_TEXT_FONT = LV_STYLE_TEXT_FONT;
 780:Lib/lvgl/src/misc/lv_style_gen.c **** 
 781:Lib/lvgl/src/misc/lv_style_gen.c **** void lv_style_set_text_letter_space(lv_style_t * style, int32_t value)
 782:Lib/lvgl/src/misc/lv_style_gen.c **** {
 3264              		.loc 1 782 1 is_stmt 1 view -0
 3265              		.cfi_startproc
 3266              		@ args = 0, pretend = 0, frame = 8
 3267              		@ frame_needed = 0, uses_anonymous_args = 0
 3268              		.loc 1 782 1 is_stmt 0 view .LVU577
 3269 0000 00B5     		push	{lr}
 3270              	.LCFI231:
 3271              		.cfi_def_cfa_offset 4
 3272              		.cfi_offset 14, -4
 3273 0002 83B0     		sub	sp, sp, #12
 3274              	.LCFI232:
 3275              		.cfi_def_cfa_offset 16
 3276 0004 0A46     		mov	r2, r1
 783:Lib/lvgl/src/misc/lv_style_gen.c ****     lv_style_value_t v = {
 3277              		.loc 1 783 5 is_stmt 1 view .LVU578
 3278              		.loc 1 783 22 is_stmt 0 view .LVU579
 3279 0006 0191     		str	r1, [sp, #4]
 784:Lib/lvgl/src/misc/lv_style_gen.c ****         .num = (int32_t)value
 785:Lib/lvgl/src/misc/lv_style_gen.c ****     };
 786:Lib/lvgl/src/misc/lv_style_gen.c ****     lv_style_set_prop(style, LV_STYLE_TEXT_LETTER_SPACE, v);
 3280              		.loc 1 786 5 is_stmt 1 view .LVU580
 3281 0008 5B21     		movs	r1, #91
 3282              	.LVL222:
 3283              		.loc 1 786 5 is_stmt 0 view .LVU581
 3284 000a FFF7FEFF 		bl	lv_style_set_prop
 3285              	.LVL223:
 787:Lib/lvgl/src/misc/lv_style_gen.c **** }
 3286              		.loc 1 787 1 view .LVU582
 3287 000e 03B0     		add	sp, sp, #12
 3288              	.LCFI233:
 3289              		.cfi_def_cfa_offset 4
 3290              		@ sp needed
 3291 0010 5DF804FB 		ldr	pc, [sp], #4
 3292              		.loc 1 787 1 view .LVU583
 3293              		.cfi_endproc
 3294              	.LFE159:
 3296              		.section	.text.lv_style_set_text_line_space,"ax",%progbits
 3297              		.align	1
 3298              		.global	lv_style_set_text_line_space
 3299              		.syntax unified
 3300              		.thumb
 3301              		.thumb_func
 3303              	lv_style_set_text_line_space:
ARM GAS  C:\Users\Alex\AppData\Local\Temp\ccl5l8V8.s 			page 70


 3304              	.LVL224:
 3305              	.LFB160:
 788:Lib/lvgl/src/misc/lv_style_gen.c **** 
 789:Lib/lvgl/src/misc/lv_style_gen.c **** const lv_style_prop_t _lv_style_const_prop_id_TEXT_LETTER_SPACE = LV_STYLE_TEXT_LETTER_SPACE;
 790:Lib/lvgl/src/misc/lv_style_gen.c **** 
 791:Lib/lvgl/src/misc/lv_style_gen.c **** void lv_style_set_text_line_space(lv_style_t * style, int32_t value)
 792:Lib/lvgl/src/misc/lv_style_gen.c **** {
 3306              		.loc 1 792 1 is_stmt 1 view -0
 3307              		.cfi_startproc
 3308              		@ args = 0, pretend = 0, frame = 8
 3309              		@ frame_needed = 0, uses_anonymous_args = 0
 3310              		.loc 1 792 1 is_stmt 0 view .LVU585
 3311 0000 00B5     		push	{lr}
 3312              	.LCFI234:
 3313              		.cfi_def_cfa_offset 4
 3314              		.cfi_offset 14, -4
 3315 0002 83B0     		sub	sp, sp, #12
 3316              	.LCFI235:
 3317              		.cfi_def_cfa_offset 16
 3318 0004 0A46     		mov	r2, r1
 793:Lib/lvgl/src/misc/lv_style_gen.c ****     lv_style_value_t v = {
 3319              		.loc 1 793 5 is_stmt 1 view .LVU586
 3320              		.loc 1 793 22 is_stmt 0 view .LVU587
 3321 0006 0191     		str	r1, [sp, #4]
 794:Lib/lvgl/src/misc/lv_style_gen.c ****         .num = (int32_t)value
 795:Lib/lvgl/src/misc/lv_style_gen.c ****     };
 796:Lib/lvgl/src/misc/lv_style_gen.c ****     lv_style_set_prop(style, LV_STYLE_TEXT_LINE_SPACE, v);
 3322              		.loc 1 796 5 is_stmt 1 view .LVU588
 3323 0008 5C21     		movs	r1, #92
 3324              	.LVL225:
 3325              		.loc 1 796 5 is_stmt 0 view .LVU589
 3326 000a FFF7FEFF 		bl	lv_style_set_prop
 3327              	.LVL226:
 797:Lib/lvgl/src/misc/lv_style_gen.c **** }
 3328              		.loc 1 797 1 view .LVU590
 3329 000e 03B0     		add	sp, sp, #12
 3330              	.LCFI236:
 3331              		.cfi_def_cfa_offset 4
 3332              		@ sp needed
 3333 0010 5DF804FB 		ldr	pc, [sp], #4
 3334              		.loc 1 797 1 view .LVU591
 3335              		.cfi_endproc
 3336              	.LFE160:
 3338              		.section	.text.lv_style_set_text_decor,"ax",%progbits
 3339              		.align	1
 3340              		.global	lv_style_set_text_decor
 3341              		.syntax unified
 3342              		.thumb
 3343              		.thumb_func
 3345              	lv_style_set_text_decor:
 3346              	.LVL227:
 3347              	.LFB161:
 798:Lib/lvgl/src/misc/lv_style_gen.c **** 
 799:Lib/lvgl/src/misc/lv_style_gen.c **** const lv_style_prop_t _lv_style_const_prop_id_TEXT_LINE_SPACE = LV_STYLE_TEXT_LINE_SPACE;
 800:Lib/lvgl/src/misc/lv_style_gen.c **** 
 801:Lib/lvgl/src/misc/lv_style_gen.c **** void lv_style_set_text_decor(lv_style_t * style, lv_text_decor_t value)
 802:Lib/lvgl/src/misc/lv_style_gen.c **** {
ARM GAS  C:\Users\Alex\AppData\Local\Temp\ccl5l8V8.s 			page 71


 3348              		.loc 1 802 1 is_stmt 1 view -0
 3349              		.cfi_startproc
 3350              		@ args = 0, pretend = 0, frame = 8
 3351              		@ frame_needed = 0, uses_anonymous_args = 0
 3352              		.loc 1 802 1 is_stmt 0 view .LVU593
 3353 0000 00B5     		push	{lr}
 3354              	.LCFI237:
 3355              		.cfi_def_cfa_offset 4
 3356              		.cfi_offset 14, -4
 3357 0002 83B0     		sub	sp, sp, #12
 3358              	.LCFI238:
 3359              		.cfi_def_cfa_offset 16
 3360 0004 0A46     		mov	r2, r1
 803:Lib/lvgl/src/misc/lv_style_gen.c ****     lv_style_value_t v = {
 3361              		.loc 1 803 5 is_stmt 1 view .LVU594
 3362              		.loc 1 803 22 is_stmt 0 view .LVU595
 3363 0006 0191     		str	r1, [sp, #4]
 804:Lib/lvgl/src/misc/lv_style_gen.c ****         .num = (int32_t)value
 805:Lib/lvgl/src/misc/lv_style_gen.c ****     };
 806:Lib/lvgl/src/misc/lv_style_gen.c ****     lv_style_set_prop(style, LV_STYLE_TEXT_DECOR, v);
 3364              		.loc 1 806 5 is_stmt 1 view .LVU596
 3365 0008 5D21     		movs	r1, #93
 3366              	.LVL228:
 3367              		.loc 1 806 5 is_stmt 0 view .LVU597
 3368 000a FFF7FEFF 		bl	lv_style_set_prop
 3369              	.LVL229:
 807:Lib/lvgl/src/misc/lv_style_gen.c **** }
 3370              		.loc 1 807 1 view .LVU598
 3371 000e 03B0     		add	sp, sp, #12
 3372              	.LCFI239:
 3373              		.cfi_def_cfa_offset 4
 3374              		@ sp needed
 3375 0010 5DF804FB 		ldr	pc, [sp], #4
 3376              		.cfi_endproc
 3377              	.LFE161:
 3379              		.section	.text.lv_style_set_text_align,"ax",%progbits
 3380              		.align	1
 3381              		.global	lv_style_set_text_align
 3382              		.syntax unified
 3383              		.thumb
 3384              		.thumb_func
 3386              	lv_style_set_text_align:
 3387              	.LVL230:
 3388              	.LFB162:
 808:Lib/lvgl/src/misc/lv_style_gen.c **** 
 809:Lib/lvgl/src/misc/lv_style_gen.c **** const lv_style_prop_t _lv_style_const_prop_id_TEXT_DECOR = LV_STYLE_TEXT_DECOR;
 810:Lib/lvgl/src/misc/lv_style_gen.c **** 
 811:Lib/lvgl/src/misc/lv_style_gen.c **** void lv_style_set_text_align(lv_style_t * style, lv_text_align_t value)
 812:Lib/lvgl/src/misc/lv_style_gen.c **** {
 3389              		.loc 1 812 1 is_stmt 1 view -0
 3390              		.cfi_startproc
 3391              		@ args = 0, pretend = 0, frame = 8
 3392              		@ frame_needed = 0, uses_anonymous_args = 0
 3393              		.loc 1 812 1 is_stmt 0 view .LVU600
 3394 0000 00B5     		push	{lr}
 3395              	.LCFI240:
 3396              		.cfi_def_cfa_offset 4
ARM GAS  C:\Users\Alex\AppData\Local\Temp\ccl5l8V8.s 			page 72


 3397              		.cfi_offset 14, -4
 3398 0002 83B0     		sub	sp, sp, #12
 3399              	.LCFI241:
 3400              		.cfi_def_cfa_offset 16
 3401 0004 0A46     		mov	r2, r1
 813:Lib/lvgl/src/misc/lv_style_gen.c ****     lv_style_value_t v = {
 3402              		.loc 1 813 5 is_stmt 1 view .LVU601
 3403              		.loc 1 813 22 is_stmt 0 view .LVU602
 3404 0006 0191     		str	r1, [sp, #4]
 814:Lib/lvgl/src/misc/lv_style_gen.c ****         .num = (int32_t)value
 815:Lib/lvgl/src/misc/lv_style_gen.c ****     };
 816:Lib/lvgl/src/misc/lv_style_gen.c ****     lv_style_set_prop(style, LV_STYLE_TEXT_ALIGN, v);
 3405              		.loc 1 816 5 is_stmt 1 view .LVU603
 3406 0008 5E21     		movs	r1, #94
 3407              	.LVL231:
 3408              		.loc 1 816 5 is_stmt 0 view .LVU604
 3409 000a FFF7FEFF 		bl	lv_style_set_prop
 3410              	.LVL232:
 817:Lib/lvgl/src/misc/lv_style_gen.c **** }
 3411              		.loc 1 817 1 view .LVU605
 3412 000e 03B0     		add	sp, sp, #12
 3413              	.LCFI242:
 3414              		.cfi_def_cfa_offset 4
 3415              		@ sp needed
 3416 0010 5DF804FB 		ldr	pc, [sp], #4
 3417              		.cfi_endproc
 3418              	.LFE162:
 3420              		.section	.text.lv_style_set_radius,"ax",%progbits
 3421              		.align	1
 3422              		.global	lv_style_set_radius
 3423              		.syntax unified
 3424              		.thumb
 3425              		.thumb_func
 3427              	lv_style_set_radius:
 3428              	.LVL233:
 3429              	.LFB163:
 818:Lib/lvgl/src/misc/lv_style_gen.c **** 
 819:Lib/lvgl/src/misc/lv_style_gen.c **** const lv_style_prop_t _lv_style_const_prop_id_TEXT_ALIGN = LV_STYLE_TEXT_ALIGN;
 820:Lib/lvgl/src/misc/lv_style_gen.c **** 
 821:Lib/lvgl/src/misc/lv_style_gen.c **** void lv_style_set_radius(lv_style_t * style, int32_t value)
 822:Lib/lvgl/src/misc/lv_style_gen.c **** {
 3430              		.loc 1 822 1 is_stmt 1 view -0
 3431              		.cfi_startproc
 3432              		@ args = 0, pretend = 0, frame = 8
 3433              		@ frame_needed = 0, uses_anonymous_args = 0
 3434              		.loc 1 822 1 is_stmt 0 view .LVU607
 3435 0000 00B5     		push	{lr}
 3436              	.LCFI243:
 3437              		.cfi_def_cfa_offset 4
 3438              		.cfi_offset 14, -4
 3439 0002 83B0     		sub	sp, sp, #12
 3440              	.LCFI244:
 3441              		.cfi_def_cfa_offset 16
 3442 0004 0A46     		mov	r2, r1
 823:Lib/lvgl/src/misc/lv_style_gen.c ****     lv_style_value_t v = {
 3443              		.loc 1 823 5 is_stmt 1 view .LVU608
 3444              		.loc 1 823 22 is_stmt 0 view .LVU609
ARM GAS  C:\Users\Alex\AppData\Local\Temp\ccl5l8V8.s 			page 73


 3445 0006 0191     		str	r1, [sp, #4]
 824:Lib/lvgl/src/misc/lv_style_gen.c ****         .num = (int32_t)value
 825:Lib/lvgl/src/misc/lv_style_gen.c ****     };
 826:Lib/lvgl/src/misc/lv_style_gen.c ****     lv_style_set_prop(style, LV_STYLE_RADIUS, v);
 3446              		.loc 1 826 5 is_stmt 1 view .LVU610
 3447 0008 0C21     		movs	r1, #12
 3448              	.LVL234:
 3449              		.loc 1 826 5 is_stmt 0 view .LVU611
 3450 000a FFF7FEFF 		bl	lv_style_set_prop
 3451              	.LVL235:
 827:Lib/lvgl/src/misc/lv_style_gen.c **** }
 3452              		.loc 1 827 1 view .LVU612
 3453 000e 03B0     		add	sp, sp, #12
 3454              	.LCFI245:
 3455              		.cfi_def_cfa_offset 4
 3456              		@ sp needed
 3457 0010 5DF804FB 		ldr	pc, [sp], #4
 3458              		.loc 1 827 1 view .LVU613
 3459              		.cfi_endproc
 3460              	.LFE163:
 3462              		.section	.text.lv_style_set_clip_corner,"ax",%progbits
 3463              		.align	1
 3464              		.global	lv_style_set_clip_corner
 3465              		.syntax unified
 3466              		.thumb
 3467              		.thumb_func
 3469              	lv_style_set_clip_corner:
 3470              	.LVL236:
 3471              	.LFB164:
 828:Lib/lvgl/src/misc/lv_style_gen.c **** 
 829:Lib/lvgl/src/misc/lv_style_gen.c **** const lv_style_prop_t _lv_style_const_prop_id_RADIUS = LV_STYLE_RADIUS;
 830:Lib/lvgl/src/misc/lv_style_gen.c **** 
 831:Lib/lvgl/src/misc/lv_style_gen.c **** void lv_style_set_clip_corner(lv_style_t * style, bool value)
 832:Lib/lvgl/src/misc/lv_style_gen.c **** {
 3472              		.loc 1 832 1 is_stmt 1 view -0
 3473              		.cfi_startproc
 3474              		@ args = 0, pretend = 0, frame = 8
 3475              		@ frame_needed = 0, uses_anonymous_args = 0
 3476              		.loc 1 832 1 is_stmt 0 view .LVU615
 3477 0000 00B5     		push	{lr}
 3478              	.LCFI246:
 3479              		.cfi_def_cfa_offset 4
 3480              		.cfi_offset 14, -4
 3481 0002 83B0     		sub	sp, sp, #12
 3482              	.LCFI247:
 3483              		.cfi_def_cfa_offset 16
 3484 0004 0A46     		mov	r2, r1
 833:Lib/lvgl/src/misc/lv_style_gen.c ****     lv_style_value_t v = {
 3485              		.loc 1 833 5 is_stmt 1 view .LVU616
 3486              		.loc 1 833 22 is_stmt 0 view .LVU617
 3487 0006 0191     		str	r1, [sp, #4]
 834:Lib/lvgl/src/misc/lv_style_gen.c ****         .num = (int32_t)value
 835:Lib/lvgl/src/misc/lv_style_gen.c ****     };
 836:Lib/lvgl/src/misc/lv_style_gen.c ****     lv_style_set_prop(style, LV_STYLE_CLIP_CORNER, v);
 3488              		.loc 1 836 5 is_stmt 1 view .LVU618
 3489 0008 2D21     		movs	r1, #45
 3490              	.LVL237:
ARM GAS  C:\Users\Alex\AppData\Local\Temp\ccl5l8V8.s 			page 74


 3491              		.loc 1 836 5 is_stmt 0 view .LVU619
 3492 000a FFF7FEFF 		bl	lv_style_set_prop
 3493              	.LVL238:
 837:Lib/lvgl/src/misc/lv_style_gen.c **** }
 3494              		.loc 1 837 1 view .LVU620
 3495 000e 03B0     		add	sp, sp, #12
 3496              	.LCFI248:
 3497              		.cfi_def_cfa_offset 4
 3498              		@ sp needed
 3499 0010 5DF804FB 		ldr	pc, [sp], #4
 3500              		.cfi_endproc
 3501              	.LFE164:
 3503              		.section	.text.lv_style_set_opa,"ax",%progbits
 3504              		.align	1
 3505              		.global	lv_style_set_opa
 3506              		.syntax unified
 3507              		.thumb
 3508              		.thumb_func
 3510              	lv_style_set_opa:
 3511              	.LVL239:
 3512              	.LFB165:
 838:Lib/lvgl/src/misc/lv_style_gen.c **** 
 839:Lib/lvgl/src/misc/lv_style_gen.c **** const lv_style_prop_t _lv_style_const_prop_id_CLIP_CORNER = LV_STYLE_CLIP_CORNER;
 840:Lib/lvgl/src/misc/lv_style_gen.c **** 
 841:Lib/lvgl/src/misc/lv_style_gen.c **** void lv_style_set_opa(lv_style_t * style, lv_opa_t value)
 842:Lib/lvgl/src/misc/lv_style_gen.c **** {
 3513              		.loc 1 842 1 is_stmt 1 view -0
 3514              		.cfi_startproc
 3515              		@ args = 0, pretend = 0, frame = 8
 3516              		@ frame_needed = 0, uses_anonymous_args = 0
 3517              		.loc 1 842 1 is_stmt 0 view .LVU622
 3518 0000 00B5     		push	{lr}
 3519              	.LCFI249:
 3520              		.cfi_def_cfa_offset 4
 3521              		.cfi_offset 14, -4
 3522 0002 83B0     		sub	sp, sp, #12
 3523              	.LCFI250:
 3524              		.cfi_def_cfa_offset 16
 3525 0004 0A46     		mov	r2, r1
 843:Lib/lvgl/src/misc/lv_style_gen.c ****     lv_style_value_t v = {
 3526              		.loc 1 843 5 is_stmt 1 view .LVU623
 3527              		.loc 1 843 22 is_stmt 0 view .LVU624
 3528 0006 0191     		str	r1, [sp, #4]
 844:Lib/lvgl/src/misc/lv_style_gen.c ****         .num = (int32_t)value
 845:Lib/lvgl/src/misc/lv_style_gen.c ****     };
 846:Lib/lvgl/src/misc/lv_style_gen.c ****     lv_style_set_prop(style, LV_STYLE_OPA, v);
 3529              		.loc 1 846 5 is_stmt 1 view .LVU625
 3530 0008 5F21     		movs	r1, #95
 3531              	.LVL240:
 3532              		.loc 1 846 5 is_stmt 0 view .LVU626
 3533 000a FFF7FEFF 		bl	lv_style_set_prop
 3534              	.LVL241:
 847:Lib/lvgl/src/misc/lv_style_gen.c **** }
 3535              		.loc 1 847 1 view .LVU627
 3536 000e 03B0     		add	sp, sp, #12
 3537              	.LCFI251:
 3538              		.cfi_def_cfa_offset 4
ARM GAS  C:\Users\Alex\AppData\Local\Temp\ccl5l8V8.s 			page 75


 3539              		@ sp needed
 3540 0010 5DF804FB 		ldr	pc, [sp], #4
 3541              		.cfi_endproc
 3542              	.LFE165:
 3544              		.section	.text.lv_style_set_opa_layered,"ax",%progbits
 3545              		.align	1
 3546              		.global	lv_style_set_opa_layered
 3547              		.syntax unified
 3548              		.thumb
 3549              		.thumb_func
 3551              	lv_style_set_opa_layered:
 3552              	.LVL242:
 3553              	.LFB166:
 848:Lib/lvgl/src/misc/lv_style_gen.c **** 
 849:Lib/lvgl/src/misc/lv_style_gen.c **** const lv_style_prop_t _lv_style_const_prop_id_OPA = LV_STYLE_OPA;
 850:Lib/lvgl/src/misc/lv_style_gen.c **** 
 851:Lib/lvgl/src/misc/lv_style_gen.c **** void lv_style_set_opa_layered(lv_style_t * style, lv_opa_t value)
 852:Lib/lvgl/src/misc/lv_style_gen.c **** {
 3554              		.loc 1 852 1 is_stmt 1 view -0
 3555              		.cfi_startproc
 3556              		@ args = 0, pretend = 0, frame = 8
 3557              		@ frame_needed = 0, uses_anonymous_args = 0
 3558              		.loc 1 852 1 is_stmt 0 view .LVU629
 3559 0000 00B5     		push	{lr}
 3560              	.LCFI252:
 3561              		.cfi_def_cfa_offset 4
 3562              		.cfi_offset 14, -4
 3563 0002 83B0     		sub	sp, sp, #12
 3564              	.LCFI253:
 3565              		.cfi_def_cfa_offset 16
 3566 0004 0A46     		mov	r2, r1
 853:Lib/lvgl/src/misc/lv_style_gen.c ****     lv_style_value_t v = {
 3567              		.loc 1 853 5 is_stmt 1 view .LVU630
 3568              		.loc 1 853 22 is_stmt 0 view .LVU631
 3569 0006 0191     		str	r1, [sp, #4]
 854:Lib/lvgl/src/misc/lv_style_gen.c ****         .num = (int32_t)value
 855:Lib/lvgl/src/misc/lv_style_gen.c ****     };
 856:Lib/lvgl/src/misc/lv_style_gen.c ****     lv_style_set_prop(style, LV_STYLE_OPA_LAYERED, v);
 3570              		.loc 1 856 5 is_stmt 1 view .LVU632
 3571 0008 6021     		movs	r1, #96
 3572              	.LVL243:
 3573              		.loc 1 856 5 is_stmt 0 view .LVU633
 3574 000a FFF7FEFF 		bl	lv_style_set_prop
 3575              	.LVL244:
 857:Lib/lvgl/src/misc/lv_style_gen.c **** }
 3576              		.loc 1 857 1 view .LVU634
 3577 000e 03B0     		add	sp, sp, #12
 3578              	.LCFI254:
 3579              		.cfi_def_cfa_offset 4
 3580              		@ sp needed
 3581 0010 5DF804FB 		ldr	pc, [sp], #4
 3582              		.cfi_endproc
 3583              	.LFE166:
 3585              		.section	.text.lv_style_set_color_filter_dsc,"ax",%progbits
 3586              		.align	1
 3587              		.global	lv_style_set_color_filter_dsc
 3588              		.syntax unified
ARM GAS  C:\Users\Alex\AppData\Local\Temp\ccl5l8V8.s 			page 76


 3589              		.thumb
 3590              		.thumb_func
 3592              	lv_style_set_color_filter_dsc:
 3593              	.LVL245:
 3594              	.LFB167:
 858:Lib/lvgl/src/misc/lv_style_gen.c **** 
 859:Lib/lvgl/src/misc/lv_style_gen.c **** const lv_style_prop_t _lv_style_const_prop_id_OPA_LAYERED = LV_STYLE_OPA_LAYERED;
 860:Lib/lvgl/src/misc/lv_style_gen.c **** 
 861:Lib/lvgl/src/misc/lv_style_gen.c **** void lv_style_set_color_filter_dsc(lv_style_t * style, const lv_color_filter_dsc_t * value)
 862:Lib/lvgl/src/misc/lv_style_gen.c **** {
 3595              		.loc 1 862 1 is_stmt 1 view -0
 3596              		.cfi_startproc
 3597              		@ args = 0, pretend = 0, frame = 8
 3598              		@ frame_needed = 0, uses_anonymous_args = 0
 3599              		.loc 1 862 1 is_stmt 0 view .LVU636
 3600 0000 00B5     		push	{lr}
 3601              	.LCFI255:
 3602              		.cfi_def_cfa_offset 4
 3603              		.cfi_offset 14, -4
 3604 0002 83B0     		sub	sp, sp, #12
 3605              	.LCFI256:
 3606              		.cfi_def_cfa_offset 16
 3607 0004 0A46     		mov	r2, r1
 863:Lib/lvgl/src/misc/lv_style_gen.c ****     lv_style_value_t v = {
 3608              		.loc 1 863 5 is_stmt 1 view .LVU637
 3609              		.loc 1 863 22 is_stmt 0 view .LVU638
 3610 0006 0191     		str	r1, [sp, #4]
 864:Lib/lvgl/src/misc/lv_style_gen.c ****         .ptr = value
 865:Lib/lvgl/src/misc/lv_style_gen.c ****     };
 866:Lib/lvgl/src/misc/lv_style_gen.c ****     lv_style_set_prop(style, LV_STYLE_COLOR_FILTER_DSC, v);
 3611              		.loc 1 866 5 is_stmt 1 view .LVU639
 3612 0008 6121     		movs	r1, #97
 3613              	.LVL246:
 3614              		.loc 1 866 5 is_stmt 0 view .LVU640
 3615 000a FFF7FEFF 		bl	lv_style_set_prop
 3616              	.LVL247:
 867:Lib/lvgl/src/misc/lv_style_gen.c **** }
 3617              		.loc 1 867 1 view .LVU641
 3618 000e 03B0     		add	sp, sp, #12
 3619              	.LCFI257:
 3620              		.cfi_def_cfa_offset 4
 3621              		@ sp needed
 3622 0010 5DF804FB 		ldr	pc, [sp], #4
 3623              		.loc 1 867 1 view .LVU642
 3624              		.cfi_endproc
 3625              	.LFE167:
 3627              		.section	.text.lv_style_set_color_filter_opa,"ax",%progbits
 3628              		.align	1
 3629              		.global	lv_style_set_color_filter_opa
 3630              		.syntax unified
 3631              		.thumb
 3632              		.thumb_func
 3634              	lv_style_set_color_filter_opa:
 3635              	.LVL248:
 3636              	.LFB168:
 868:Lib/lvgl/src/misc/lv_style_gen.c **** 
 869:Lib/lvgl/src/misc/lv_style_gen.c **** const lv_style_prop_t _lv_style_const_prop_id_COLOR_FILTER_DSC = LV_STYLE_COLOR_FILTER_DSC;
ARM GAS  C:\Users\Alex\AppData\Local\Temp\ccl5l8V8.s 			page 77


 870:Lib/lvgl/src/misc/lv_style_gen.c **** 
 871:Lib/lvgl/src/misc/lv_style_gen.c **** void lv_style_set_color_filter_opa(lv_style_t * style, lv_opa_t value)
 872:Lib/lvgl/src/misc/lv_style_gen.c **** {
 3637              		.loc 1 872 1 is_stmt 1 view -0
 3638              		.cfi_startproc
 3639              		@ args = 0, pretend = 0, frame = 8
 3640              		@ frame_needed = 0, uses_anonymous_args = 0
 3641              		.loc 1 872 1 is_stmt 0 view .LVU644
 3642 0000 00B5     		push	{lr}
 3643              	.LCFI258:
 3644              		.cfi_def_cfa_offset 4
 3645              		.cfi_offset 14, -4
 3646 0002 83B0     		sub	sp, sp, #12
 3647              	.LCFI259:
 3648              		.cfi_def_cfa_offset 16
 3649 0004 0A46     		mov	r2, r1
 873:Lib/lvgl/src/misc/lv_style_gen.c ****     lv_style_value_t v = {
 3650              		.loc 1 873 5 is_stmt 1 view .LVU645
 3651              		.loc 1 873 22 is_stmt 0 view .LVU646
 3652 0006 0191     		str	r1, [sp, #4]
 874:Lib/lvgl/src/misc/lv_style_gen.c ****         .num = (int32_t)value
 875:Lib/lvgl/src/misc/lv_style_gen.c ****     };
 876:Lib/lvgl/src/misc/lv_style_gen.c ****     lv_style_set_prop(style, LV_STYLE_COLOR_FILTER_OPA, v);
 3653              		.loc 1 876 5 is_stmt 1 view .LVU647
 3654 0008 6221     		movs	r1, #98
 3655              	.LVL249:
 3656              		.loc 1 876 5 is_stmt 0 view .LVU648
 3657 000a FFF7FEFF 		bl	lv_style_set_prop
 3658              	.LVL250:
 877:Lib/lvgl/src/misc/lv_style_gen.c **** }
 3659              		.loc 1 877 1 view .LVU649
 3660 000e 03B0     		add	sp, sp, #12
 3661              	.LCFI260:
 3662              		.cfi_def_cfa_offset 4
 3663              		@ sp needed
 3664 0010 5DF804FB 		ldr	pc, [sp], #4
 3665              		.cfi_endproc
 3666              	.LFE168:
 3668              		.section	.text.lv_style_set_anim,"ax",%progbits
 3669              		.align	1
 3670              		.global	lv_style_set_anim
 3671              		.syntax unified
 3672              		.thumb
 3673              		.thumb_func
 3675              	lv_style_set_anim:
 3676              	.LVL251:
 3677              	.LFB169:
 878:Lib/lvgl/src/misc/lv_style_gen.c **** 
 879:Lib/lvgl/src/misc/lv_style_gen.c **** const lv_style_prop_t _lv_style_const_prop_id_COLOR_FILTER_OPA = LV_STYLE_COLOR_FILTER_OPA;
 880:Lib/lvgl/src/misc/lv_style_gen.c **** 
 881:Lib/lvgl/src/misc/lv_style_gen.c **** void lv_style_set_anim(lv_style_t * style, const lv_anim_t * value)
 882:Lib/lvgl/src/misc/lv_style_gen.c **** {
 3678              		.loc 1 882 1 is_stmt 1 view -0
 3679              		.cfi_startproc
 3680              		@ args = 0, pretend = 0, frame = 8
 3681              		@ frame_needed = 0, uses_anonymous_args = 0
 3682              		.loc 1 882 1 is_stmt 0 view .LVU651
ARM GAS  C:\Users\Alex\AppData\Local\Temp\ccl5l8V8.s 			page 78


 3683 0000 00B5     		push	{lr}
 3684              	.LCFI261:
 3685              		.cfi_def_cfa_offset 4
 3686              		.cfi_offset 14, -4
 3687 0002 83B0     		sub	sp, sp, #12
 3688              	.LCFI262:
 3689              		.cfi_def_cfa_offset 16
 3690 0004 0A46     		mov	r2, r1
 883:Lib/lvgl/src/misc/lv_style_gen.c ****     lv_style_value_t v = {
 3691              		.loc 1 883 5 is_stmt 1 view .LVU652
 3692              		.loc 1 883 22 is_stmt 0 view .LVU653
 3693 0006 0191     		str	r1, [sp, #4]
 884:Lib/lvgl/src/misc/lv_style_gen.c ****         .ptr = value
 885:Lib/lvgl/src/misc/lv_style_gen.c ****     };
 886:Lib/lvgl/src/misc/lv_style_gen.c ****     lv_style_set_prop(style, LV_STYLE_ANIM, v);
 3694              		.loc 1 886 5 is_stmt 1 view .LVU654
 3695 0008 6321     		movs	r1, #99
 3696              	.LVL252:
 3697              		.loc 1 886 5 is_stmt 0 view .LVU655
 3698 000a FFF7FEFF 		bl	lv_style_set_prop
 3699              	.LVL253:
 887:Lib/lvgl/src/misc/lv_style_gen.c **** }
 3700              		.loc 1 887 1 view .LVU656
 3701 000e 03B0     		add	sp, sp, #12
 3702              	.LCFI263:
 3703              		.cfi_def_cfa_offset 4
 3704              		@ sp needed
 3705 0010 5DF804FB 		ldr	pc, [sp], #4
 3706              		.loc 1 887 1 view .LVU657
 3707              		.cfi_endproc
 3708              	.LFE169:
 3710              		.section	.text.lv_style_set_anim_duration,"ax",%progbits
 3711              		.align	1
 3712              		.global	lv_style_set_anim_duration
 3713              		.syntax unified
 3714              		.thumb
 3715              		.thumb_func
 3717              	lv_style_set_anim_duration:
 3718              	.LVL254:
 3719              	.LFB170:
 888:Lib/lvgl/src/misc/lv_style_gen.c **** 
 889:Lib/lvgl/src/misc/lv_style_gen.c **** const lv_style_prop_t _lv_style_const_prop_id_ANIM = LV_STYLE_ANIM;
 890:Lib/lvgl/src/misc/lv_style_gen.c **** 
 891:Lib/lvgl/src/misc/lv_style_gen.c **** void lv_style_set_anim_duration(lv_style_t * style, uint32_t value)
 892:Lib/lvgl/src/misc/lv_style_gen.c **** {
 3720              		.loc 1 892 1 is_stmt 1 view -0
 3721              		.cfi_startproc
 3722              		@ args = 0, pretend = 0, frame = 8
 3723              		@ frame_needed = 0, uses_anonymous_args = 0
 3724              		.loc 1 892 1 is_stmt 0 view .LVU659
 3725 0000 00B5     		push	{lr}
 3726              	.LCFI264:
 3727              		.cfi_def_cfa_offset 4
 3728              		.cfi_offset 14, -4
 3729 0002 83B0     		sub	sp, sp, #12
 3730              	.LCFI265:
 3731              		.cfi_def_cfa_offset 16
ARM GAS  C:\Users\Alex\AppData\Local\Temp\ccl5l8V8.s 			page 79


 3732 0004 0A46     		mov	r2, r1
 893:Lib/lvgl/src/misc/lv_style_gen.c ****     lv_style_value_t v = {
 3733              		.loc 1 893 5 is_stmt 1 view .LVU660
 3734              		.loc 1 893 22 is_stmt 0 view .LVU661
 3735 0006 0191     		str	r1, [sp, #4]
 894:Lib/lvgl/src/misc/lv_style_gen.c ****         .num = (int32_t)value
 895:Lib/lvgl/src/misc/lv_style_gen.c ****     };
 896:Lib/lvgl/src/misc/lv_style_gen.c ****     lv_style_set_prop(style, LV_STYLE_ANIM_DURATION, v);
 3736              		.loc 1 896 5 is_stmt 1 view .LVU662
 3737 0008 6421     		movs	r1, #100
 3738              	.LVL255:
 3739              		.loc 1 896 5 is_stmt 0 view .LVU663
 3740 000a FFF7FEFF 		bl	lv_style_set_prop
 3741              	.LVL256:
 897:Lib/lvgl/src/misc/lv_style_gen.c **** }
 3742              		.loc 1 897 1 view .LVU664
 3743 000e 03B0     		add	sp, sp, #12
 3744              	.LCFI266:
 3745              		.cfi_def_cfa_offset 4
 3746              		@ sp needed
 3747 0010 5DF804FB 		ldr	pc, [sp], #4
 3748              		.loc 1 897 1 view .LVU665
 3749              		.cfi_endproc
 3750              	.LFE170:
 3752              		.section	.text.lv_style_set_transition,"ax",%progbits
 3753              		.align	1
 3754              		.global	lv_style_set_transition
 3755              		.syntax unified
 3756              		.thumb
 3757              		.thumb_func
 3759              	lv_style_set_transition:
 3760              	.LVL257:
 3761              	.LFB171:
 898:Lib/lvgl/src/misc/lv_style_gen.c **** 
 899:Lib/lvgl/src/misc/lv_style_gen.c **** const lv_style_prop_t _lv_style_const_prop_id_ANIM_DURATION = LV_STYLE_ANIM_DURATION;
 900:Lib/lvgl/src/misc/lv_style_gen.c **** 
 901:Lib/lvgl/src/misc/lv_style_gen.c **** void lv_style_set_transition(lv_style_t * style, const lv_style_transition_dsc_t * value)
 902:Lib/lvgl/src/misc/lv_style_gen.c **** {
 3762              		.loc 1 902 1 is_stmt 1 view -0
 3763              		.cfi_startproc
 3764              		@ args = 0, pretend = 0, frame = 8
 3765              		@ frame_needed = 0, uses_anonymous_args = 0
 3766              		.loc 1 902 1 is_stmt 0 view .LVU667
 3767 0000 00B5     		push	{lr}
 3768              	.LCFI267:
 3769              		.cfi_def_cfa_offset 4
 3770              		.cfi_offset 14, -4
 3771 0002 83B0     		sub	sp, sp, #12
 3772              	.LCFI268:
 3773              		.cfi_def_cfa_offset 16
 3774 0004 0A46     		mov	r2, r1
 903:Lib/lvgl/src/misc/lv_style_gen.c ****     lv_style_value_t v = {
 3775              		.loc 1 903 5 is_stmt 1 view .LVU668
 3776              		.loc 1 903 22 is_stmt 0 view .LVU669
 3777 0006 0191     		str	r1, [sp, #4]
 904:Lib/lvgl/src/misc/lv_style_gen.c ****         .ptr = value
 905:Lib/lvgl/src/misc/lv_style_gen.c ****     };
ARM GAS  C:\Users\Alex\AppData\Local\Temp\ccl5l8V8.s 			page 80


 906:Lib/lvgl/src/misc/lv_style_gen.c ****     lv_style_set_prop(style, LV_STYLE_TRANSITION, v);
 3778              		.loc 1 906 5 is_stmt 1 view .LVU670
 3779 0008 6621     		movs	r1, #102
 3780              	.LVL258:
 3781              		.loc 1 906 5 is_stmt 0 view .LVU671
 3782 000a FFF7FEFF 		bl	lv_style_set_prop
 3783              	.LVL259:
 907:Lib/lvgl/src/misc/lv_style_gen.c **** }
 3784              		.loc 1 907 1 view .LVU672
 3785 000e 03B0     		add	sp, sp, #12
 3786              	.LCFI269:
 3787              		.cfi_def_cfa_offset 4
 3788              		@ sp needed
 3789 0010 5DF804FB 		ldr	pc, [sp], #4
 3790              		.loc 1 907 1 view .LVU673
 3791              		.cfi_endproc
 3792              	.LFE171:
 3794              		.section	.text.lv_style_set_blend_mode,"ax",%progbits
 3795              		.align	1
 3796              		.global	lv_style_set_blend_mode
 3797              		.syntax unified
 3798              		.thumb
 3799              		.thumb_func
 3801              	lv_style_set_blend_mode:
 3802              	.LVL260:
 3803              	.LFB172:
 908:Lib/lvgl/src/misc/lv_style_gen.c **** 
 909:Lib/lvgl/src/misc/lv_style_gen.c **** const lv_style_prop_t _lv_style_const_prop_id_TRANSITION = LV_STYLE_TRANSITION;
 910:Lib/lvgl/src/misc/lv_style_gen.c **** 
 911:Lib/lvgl/src/misc/lv_style_gen.c **** void lv_style_set_blend_mode(lv_style_t * style, lv_blend_mode_t value)
 912:Lib/lvgl/src/misc/lv_style_gen.c **** {
 3804              		.loc 1 912 1 is_stmt 1 view -0
 3805              		.cfi_startproc
 3806              		@ args = 0, pretend = 0, frame = 8
 3807              		@ frame_needed = 0, uses_anonymous_args = 0
 3808              		.loc 1 912 1 is_stmt 0 view .LVU675
 3809 0000 00B5     		push	{lr}
 3810              	.LCFI270:
 3811              		.cfi_def_cfa_offset 4
 3812              		.cfi_offset 14, -4
 3813 0002 83B0     		sub	sp, sp, #12
 3814              	.LCFI271:
 3815              		.cfi_def_cfa_offset 16
 3816 0004 0A46     		mov	r2, r1
 913:Lib/lvgl/src/misc/lv_style_gen.c ****     lv_style_value_t v = {
 3817              		.loc 1 913 5 is_stmt 1 view .LVU676
 3818              		.loc 1 913 22 is_stmt 0 view .LVU677
 3819 0006 0191     		str	r1, [sp, #4]
 914:Lib/lvgl/src/misc/lv_style_gen.c ****         .num = (int32_t)value
 915:Lib/lvgl/src/misc/lv_style_gen.c ****     };
 916:Lib/lvgl/src/misc/lv_style_gen.c ****     lv_style_set_prop(style, LV_STYLE_BLEND_MODE, v);
 3820              		.loc 1 916 5 is_stmt 1 view .LVU678
 3821 0008 6721     		movs	r1, #103
 3822              	.LVL261:
 3823              		.loc 1 916 5 is_stmt 0 view .LVU679
 3824 000a FFF7FEFF 		bl	lv_style_set_prop
 3825              	.LVL262:
ARM GAS  C:\Users\Alex\AppData\Local\Temp\ccl5l8V8.s 			page 81


 917:Lib/lvgl/src/misc/lv_style_gen.c **** }
 3826              		.loc 1 917 1 view .LVU680
 3827 000e 03B0     		add	sp, sp, #12
 3828              	.LCFI272:
 3829              		.cfi_def_cfa_offset 4
 3830              		@ sp needed
 3831 0010 5DF804FB 		ldr	pc, [sp], #4
 3832              		.cfi_endproc
 3833              	.LFE172:
 3835              		.section	.text.lv_style_set_layout,"ax",%progbits
 3836              		.align	1
 3837              		.global	lv_style_set_layout
 3838              		.syntax unified
 3839              		.thumb
 3840              		.thumb_func
 3842              	lv_style_set_layout:
 3843              	.LVL263:
 3844              	.LFB173:
 918:Lib/lvgl/src/misc/lv_style_gen.c **** 
 919:Lib/lvgl/src/misc/lv_style_gen.c **** const lv_style_prop_t _lv_style_const_prop_id_BLEND_MODE = LV_STYLE_BLEND_MODE;
 920:Lib/lvgl/src/misc/lv_style_gen.c **** 
 921:Lib/lvgl/src/misc/lv_style_gen.c **** void lv_style_set_layout(lv_style_t * style, uint16_t value)
 922:Lib/lvgl/src/misc/lv_style_gen.c **** {
 3845              		.loc 1 922 1 is_stmt 1 view -0
 3846              		.cfi_startproc
 3847              		@ args = 0, pretend = 0, frame = 8
 3848              		@ frame_needed = 0, uses_anonymous_args = 0
 3849              		.loc 1 922 1 is_stmt 0 view .LVU682
 3850 0000 00B5     		push	{lr}
 3851              	.LCFI273:
 3852              		.cfi_def_cfa_offset 4
 3853              		.cfi_offset 14, -4
 3854 0002 83B0     		sub	sp, sp, #12
 3855              	.LCFI274:
 3856              		.cfi_def_cfa_offset 16
 3857 0004 0A46     		mov	r2, r1
 923:Lib/lvgl/src/misc/lv_style_gen.c ****     lv_style_value_t v = {
 3858              		.loc 1 923 5 is_stmt 1 view .LVU683
 3859              		.loc 1 923 22 is_stmt 0 view .LVU684
 3860 0006 0191     		str	r1, [sp, #4]
 924:Lib/lvgl/src/misc/lv_style_gen.c ****         .num = (int32_t)value
 925:Lib/lvgl/src/misc/lv_style_gen.c ****     };
 926:Lib/lvgl/src/misc/lv_style_gen.c ****     lv_style_set_prop(style, LV_STYLE_LAYOUT, v);
 3861              		.loc 1 926 5 is_stmt 1 view .LVU685
 3862 0008 1621     		movs	r1, #22
 3863              	.LVL264:
 3864              		.loc 1 926 5 is_stmt 0 view .LVU686
 3865 000a FFF7FEFF 		bl	lv_style_set_prop
 3866              	.LVL265:
 927:Lib/lvgl/src/misc/lv_style_gen.c **** }
 3867              		.loc 1 927 1 view .LVU687
 3868 000e 03B0     		add	sp, sp, #12
 3869              	.LCFI275:
 3870              		.cfi_def_cfa_offset 4
 3871              		@ sp needed
 3872 0010 5DF804FB 		ldr	pc, [sp], #4
 3873              		.cfi_endproc
ARM GAS  C:\Users\Alex\AppData\Local\Temp\ccl5l8V8.s 			page 82


 3874              	.LFE173:
 3876              		.section	.text.lv_style_set_base_dir,"ax",%progbits
 3877              		.align	1
 3878              		.global	lv_style_set_base_dir
 3879              		.syntax unified
 3880              		.thumb
 3881              		.thumb_func
 3883              	lv_style_set_base_dir:
 3884              	.LVL266:
 3885              	.LFB174:
 928:Lib/lvgl/src/misc/lv_style_gen.c **** 
 929:Lib/lvgl/src/misc/lv_style_gen.c **** const lv_style_prop_t _lv_style_const_prop_id_LAYOUT = LV_STYLE_LAYOUT;
 930:Lib/lvgl/src/misc/lv_style_gen.c **** 
 931:Lib/lvgl/src/misc/lv_style_gen.c **** void lv_style_set_base_dir(lv_style_t * style, lv_base_dir_t value)
 932:Lib/lvgl/src/misc/lv_style_gen.c **** {
 3886              		.loc 1 932 1 is_stmt 1 view -0
 3887              		.cfi_startproc
 3888              		@ args = 0, pretend = 0, frame = 8
 3889              		@ frame_needed = 0, uses_anonymous_args = 0
 3890              		.loc 1 932 1 is_stmt 0 view .LVU689
 3891 0000 00B5     		push	{lr}
 3892              	.LCFI276:
 3893              		.cfi_def_cfa_offset 4
 3894              		.cfi_offset 14, -4
 3895 0002 83B0     		sub	sp, sp, #12
 3896              	.LCFI277:
 3897              		.cfi_def_cfa_offset 16
 3898 0004 0A46     		mov	r2, r1
 933:Lib/lvgl/src/misc/lv_style_gen.c ****     lv_style_value_t v = {
 3899              		.loc 1 933 5 is_stmt 1 view .LVU690
 3900              		.loc 1 933 22 is_stmt 0 view .LVU691
 3901 0006 0191     		str	r1, [sp, #4]
 934:Lib/lvgl/src/misc/lv_style_gen.c ****         .num = (int32_t)value
 935:Lib/lvgl/src/misc/lv_style_gen.c ****     };
 936:Lib/lvgl/src/misc/lv_style_gen.c ****     lv_style_set_prop(style, LV_STYLE_BASE_DIR, v);
 3902              		.loc 1 936 5 is_stmt 1 view .LVU692
 3903 0008 2721     		movs	r1, #39
 3904              	.LVL267:
 3905              		.loc 1 936 5 is_stmt 0 view .LVU693
 3906 000a FFF7FEFF 		bl	lv_style_set_prop
 3907              	.LVL268:
 937:Lib/lvgl/src/misc/lv_style_gen.c **** }
 3908              		.loc 1 937 1 view .LVU694
 3909 000e 03B0     		add	sp, sp, #12
 3910              	.LCFI278:
 3911              		.cfi_def_cfa_offset 4
 3912              		@ sp needed
 3913 0010 5DF804FB 		ldr	pc, [sp], #4
 3914              		.cfi_endproc
 3915              	.LFE174:
 3917              		.section	.text.lv_style_set_flex_flow,"ax",%progbits
 3918              		.align	1
 3919              		.global	lv_style_set_flex_flow
 3920              		.syntax unified
 3921              		.thumb
 3922              		.thumb_func
 3924              	lv_style_set_flex_flow:
ARM GAS  C:\Users\Alex\AppData\Local\Temp\ccl5l8V8.s 			page 83


 3925              	.LVL269:
 3926              	.LFB175:
 938:Lib/lvgl/src/misc/lv_style_gen.c **** 
 939:Lib/lvgl/src/misc/lv_style_gen.c **** const lv_style_prop_t _lv_style_const_prop_id_BASE_DIR = LV_STYLE_BASE_DIR;
 940:Lib/lvgl/src/misc/lv_style_gen.c **** #if LV_USE_FLEX
 941:Lib/lvgl/src/misc/lv_style_gen.c **** 
 942:Lib/lvgl/src/misc/lv_style_gen.c **** void lv_style_set_flex_flow(lv_style_t * style, lv_flex_flow_t value)
 943:Lib/lvgl/src/misc/lv_style_gen.c **** {
 3927              		.loc 1 943 1 is_stmt 1 view -0
 3928              		.cfi_startproc
 3929              		@ args = 0, pretend = 0, frame = 8
 3930              		@ frame_needed = 0, uses_anonymous_args = 0
 3931              		.loc 1 943 1 is_stmt 0 view .LVU696
 3932 0000 00B5     		push	{lr}
 3933              	.LCFI279:
 3934              		.cfi_def_cfa_offset 4
 3935              		.cfi_offset 14, -4
 3936 0002 83B0     		sub	sp, sp, #12
 3937              	.LCFI280:
 3938              		.cfi_def_cfa_offset 16
 3939 0004 0A46     		mov	r2, r1
 944:Lib/lvgl/src/misc/lv_style_gen.c ****     lv_style_value_t v = {
 3940              		.loc 1 944 5 is_stmt 1 view .LVU697
 3941              		.loc 1 944 22 is_stmt 0 view .LVU698
 3942 0006 0191     		str	r1, [sp, #4]
 945:Lib/lvgl/src/misc/lv_style_gen.c ****         .num = (int32_t)value
 946:Lib/lvgl/src/misc/lv_style_gen.c ****     };
 947:Lib/lvgl/src/misc/lv_style_gen.c ****     lv_style_set_prop(style, LV_STYLE_FLEX_FLOW, v);
 3943              		.loc 1 947 5 is_stmt 1 view .LVU699
 3944 0008 7321     		movs	r1, #115
 3945              	.LVL270:
 3946              		.loc 1 947 5 is_stmt 0 view .LVU700
 3947 000a FFF7FEFF 		bl	lv_style_set_prop
 3948              	.LVL271:
 948:Lib/lvgl/src/misc/lv_style_gen.c **** }
 3949              		.loc 1 948 1 view .LVU701
 3950 000e 03B0     		add	sp, sp, #12
 3951              	.LCFI281:
 3952              		.cfi_def_cfa_offset 4
 3953              		@ sp needed
 3954 0010 5DF804FB 		ldr	pc, [sp], #4
 3955              		.cfi_endproc
 3956              	.LFE175:
 3958              		.section	.text.lv_style_set_flex_main_place,"ax",%progbits
 3959              		.align	1
 3960              		.global	lv_style_set_flex_main_place
 3961              		.syntax unified
 3962              		.thumb
 3963              		.thumb_func
 3965              	lv_style_set_flex_main_place:
 3966              	.LVL272:
 3967              	.LFB176:
 949:Lib/lvgl/src/misc/lv_style_gen.c **** 
 950:Lib/lvgl/src/misc/lv_style_gen.c **** const lv_style_prop_t _lv_style_const_prop_id_FLEX_FLOW = LV_STYLE_FLEX_FLOW;
 951:Lib/lvgl/src/misc/lv_style_gen.c **** 
 952:Lib/lvgl/src/misc/lv_style_gen.c **** void lv_style_set_flex_main_place(lv_style_t * style, lv_flex_align_t value)
 953:Lib/lvgl/src/misc/lv_style_gen.c **** {
ARM GAS  C:\Users\Alex\AppData\Local\Temp\ccl5l8V8.s 			page 84


 3968              		.loc 1 953 1 is_stmt 1 view -0
 3969              		.cfi_startproc
 3970              		@ args = 0, pretend = 0, frame = 8
 3971              		@ frame_needed = 0, uses_anonymous_args = 0
 3972              		.loc 1 953 1 is_stmt 0 view .LVU703
 3973 0000 00B5     		push	{lr}
 3974              	.LCFI282:
 3975              		.cfi_def_cfa_offset 4
 3976              		.cfi_offset 14, -4
 3977 0002 83B0     		sub	sp, sp, #12
 3978              	.LCFI283:
 3979              		.cfi_def_cfa_offset 16
 3980 0004 0A46     		mov	r2, r1
 954:Lib/lvgl/src/misc/lv_style_gen.c ****     lv_style_value_t v = {
 3981              		.loc 1 954 5 is_stmt 1 view .LVU704
 3982              		.loc 1 954 22 is_stmt 0 view .LVU705
 3983 0006 0191     		str	r1, [sp, #4]
 955:Lib/lvgl/src/misc/lv_style_gen.c ****         .num = (int32_t)value
 956:Lib/lvgl/src/misc/lv_style_gen.c ****     };
 957:Lib/lvgl/src/misc/lv_style_gen.c ****     lv_style_set_prop(style, LV_STYLE_FLEX_MAIN_PLACE, v);
 3984              		.loc 1 957 5 is_stmt 1 view .LVU706
 3985 0008 7421     		movs	r1, #116
 3986              	.LVL273:
 3987              		.loc 1 957 5 is_stmt 0 view .LVU707
 3988 000a FFF7FEFF 		bl	lv_style_set_prop
 3989              	.LVL274:
 958:Lib/lvgl/src/misc/lv_style_gen.c **** }
 3990              		.loc 1 958 1 view .LVU708
 3991 000e 03B0     		add	sp, sp, #12
 3992              	.LCFI284:
 3993              		.cfi_def_cfa_offset 4
 3994              		@ sp needed
 3995 0010 5DF804FB 		ldr	pc, [sp], #4
 3996              		.cfi_endproc
 3997              	.LFE176:
 3999              		.section	.text.lv_style_set_flex_cross_place,"ax",%progbits
 4000              		.align	1
 4001              		.global	lv_style_set_flex_cross_place
 4002              		.syntax unified
 4003              		.thumb
 4004              		.thumb_func
 4006              	lv_style_set_flex_cross_place:
 4007              	.LVL275:
 4008              	.LFB177:
 959:Lib/lvgl/src/misc/lv_style_gen.c **** 
 960:Lib/lvgl/src/misc/lv_style_gen.c **** const lv_style_prop_t _lv_style_const_prop_id_FLEX_MAIN_PLACE = LV_STYLE_FLEX_MAIN_PLACE;
 961:Lib/lvgl/src/misc/lv_style_gen.c **** 
 962:Lib/lvgl/src/misc/lv_style_gen.c **** void lv_style_set_flex_cross_place(lv_style_t * style, lv_flex_align_t value)
 963:Lib/lvgl/src/misc/lv_style_gen.c **** {
 4009              		.loc 1 963 1 is_stmt 1 view -0
 4010              		.cfi_startproc
 4011              		@ args = 0, pretend = 0, frame = 8
 4012              		@ frame_needed = 0, uses_anonymous_args = 0
 4013              		.loc 1 963 1 is_stmt 0 view .LVU710
 4014 0000 00B5     		push	{lr}
 4015              	.LCFI285:
 4016              		.cfi_def_cfa_offset 4
ARM GAS  C:\Users\Alex\AppData\Local\Temp\ccl5l8V8.s 			page 85


 4017              		.cfi_offset 14, -4
 4018 0002 83B0     		sub	sp, sp, #12
 4019              	.LCFI286:
 4020              		.cfi_def_cfa_offset 16
 4021 0004 0A46     		mov	r2, r1
 964:Lib/lvgl/src/misc/lv_style_gen.c ****     lv_style_value_t v = {
 4022              		.loc 1 964 5 is_stmt 1 view .LVU711
 4023              		.loc 1 964 22 is_stmt 0 view .LVU712
 4024 0006 0191     		str	r1, [sp, #4]
 965:Lib/lvgl/src/misc/lv_style_gen.c ****         .num = (int32_t)value
 966:Lib/lvgl/src/misc/lv_style_gen.c ****     };
 967:Lib/lvgl/src/misc/lv_style_gen.c ****     lv_style_set_prop(style, LV_STYLE_FLEX_CROSS_PLACE, v);
 4025              		.loc 1 967 5 is_stmt 1 view .LVU713
 4026 0008 7521     		movs	r1, #117
 4027              	.LVL276:
 4028              		.loc 1 967 5 is_stmt 0 view .LVU714
 4029 000a FFF7FEFF 		bl	lv_style_set_prop
 4030              	.LVL277:
 968:Lib/lvgl/src/misc/lv_style_gen.c **** }
 4031              		.loc 1 968 1 view .LVU715
 4032 000e 03B0     		add	sp, sp, #12
 4033              	.LCFI287:
 4034              		.cfi_def_cfa_offset 4
 4035              		@ sp needed
 4036 0010 5DF804FB 		ldr	pc, [sp], #4
 4037              		.cfi_endproc
 4038              	.LFE177:
 4040              		.section	.text.lv_style_set_flex_track_place,"ax",%progbits
 4041              		.align	1
 4042              		.global	lv_style_set_flex_track_place
 4043              		.syntax unified
 4044              		.thumb
 4045              		.thumb_func
 4047              	lv_style_set_flex_track_place:
 4048              	.LVL278:
 4049              	.LFB178:
 969:Lib/lvgl/src/misc/lv_style_gen.c **** 
 970:Lib/lvgl/src/misc/lv_style_gen.c **** const lv_style_prop_t _lv_style_const_prop_id_FLEX_CROSS_PLACE = LV_STYLE_FLEX_CROSS_PLACE;
 971:Lib/lvgl/src/misc/lv_style_gen.c **** 
 972:Lib/lvgl/src/misc/lv_style_gen.c **** void lv_style_set_flex_track_place(lv_style_t * style, lv_flex_align_t value)
 973:Lib/lvgl/src/misc/lv_style_gen.c **** {
 4050              		.loc 1 973 1 is_stmt 1 view -0
 4051              		.cfi_startproc
 4052              		@ args = 0, pretend = 0, frame = 8
 4053              		@ frame_needed = 0, uses_anonymous_args = 0
 4054              		.loc 1 973 1 is_stmt 0 view .LVU717
 4055 0000 00B5     		push	{lr}
 4056              	.LCFI288:
 4057              		.cfi_def_cfa_offset 4
 4058              		.cfi_offset 14, -4
 4059 0002 83B0     		sub	sp, sp, #12
 4060              	.LCFI289:
 4061              		.cfi_def_cfa_offset 16
 4062 0004 0A46     		mov	r2, r1
 974:Lib/lvgl/src/misc/lv_style_gen.c ****     lv_style_value_t v = {
 4063              		.loc 1 974 5 is_stmt 1 view .LVU718
 4064              		.loc 1 974 22 is_stmt 0 view .LVU719
ARM GAS  C:\Users\Alex\AppData\Local\Temp\ccl5l8V8.s 			page 86


 4065 0006 0191     		str	r1, [sp, #4]
 975:Lib/lvgl/src/misc/lv_style_gen.c ****         .num = (int32_t)value
 976:Lib/lvgl/src/misc/lv_style_gen.c ****     };
 977:Lib/lvgl/src/misc/lv_style_gen.c ****     lv_style_set_prop(style, LV_STYLE_FLEX_TRACK_PLACE, v);
 4066              		.loc 1 977 5 is_stmt 1 view .LVU720
 4067 0008 7621     		movs	r1, #118
 4068              	.LVL279:
 4069              		.loc 1 977 5 is_stmt 0 view .LVU721
 4070 000a FFF7FEFF 		bl	lv_style_set_prop
 4071              	.LVL280:
 978:Lib/lvgl/src/misc/lv_style_gen.c **** }
 4072              		.loc 1 978 1 view .LVU722
 4073 000e 03B0     		add	sp, sp, #12
 4074              	.LCFI290:
 4075              		.cfi_def_cfa_offset 4
 4076              		@ sp needed
 4077 0010 5DF804FB 		ldr	pc, [sp], #4
 4078              		.cfi_endproc
 4079              	.LFE178:
 4081              		.section	.text.lv_style_set_flex_grow,"ax",%progbits
 4082              		.align	1
 4083              		.global	lv_style_set_flex_grow
 4084              		.syntax unified
 4085              		.thumb
 4086              		.thumb_func
 4088              	lv_style_set_flex_grow:
 4089              	.LVL281:
 4090              	.LFB179:
 979:Lib/lvgl/src/misc/lv_style_gen.c **** 
 980:Lib/lvgl/src/misc/lv_style_gen.c **** const lv_style_prop_t _lv_style_const_prop_id_FLEX_TRACK_PLACE = LV_STYLE_FLEX_TRACK_PLACE;
 981:Lib/lvgl/src/misc/lv_style_gen.c **** 
 982:Lib/lvgl/src/misc/lv_style_gen.c **** void lv_style_set_flex_grow(lv_style_t * style, uint8_t value)
 983:Lib/lvgl/src/misc/lv_style_gen.c **** {
 4091              		.loc 1 983 1 is_stmt 1 view -0
 4092              		.cfi_startproc
 4093              		@ args = 0, pretend = 0, frame = 8
 4094              		@ frame_needed = 0, uses_anonymous_args = 0
 4095              		.loc 1 983 1 is_stmt 0 view .LVU724
 4096 0000 00B5     		push	{lr}
 4097              	.LCFI291:
 4098              		.cfi_def_cfa_offset 4
 4099              		.cfi_offset 14, -4
 4100 0002 83B0     		sub	sp, sp, #12
 4101              	.LCFI292:
 4102              		.cfi_def_cfa_offset 16
 4103 0004 0A46     		mov	r2, r1
 984:Lib/lvgl/src/misc/lv_style_gen.c ****     lv_style_value_t v = {
 4104              		.loc 1 984 5 is_stmt 1 view .LVU725
 4105              		.loc 1 984 22 is_stmt 0 view .LVU726
 4106 0006 0191     		str	r1, [sp, #4]
 985:Lib/lvgl/src/misc/lv_style_gen.c ****         .num = (int32_t)value
 986:Lib/lvgl/src/misc/lv_style_gen.c ****     };
 987:Lib/lvgl/src/misc/lv_style_gen.c ****     lv_style_set_prop(style, LV_STYLE_FLEX_GROW, v);
 4107              		.loc 1 987 5 is_stmt 1 view .LVU727
 4108 0008 7721     		movs	r1, #119
 4109              	.LVL282:
 4110              		.loc 1 987 5 is_stmt 0 view .LVU728
ARM GAS  C:\Users\Alex\AppData\Local\Temp\ccl5l8V8.s 			page 87


 4111 000a FFF7FEFF 		bl	lv_style_set_prop
 4112              	.LVL283:
 988:Lib/lvgl/src/misc/lv_style_gen.c **** }
 4113              		.loc 1 988 1 view .LVU729
 4114 000e 03B0     		add	sp, sp, #12
 4115              	.LCFI293:
 4116              		.cfi_def_cfa_offset 4
 4117              		@ sp needed
 4118 0010 5DF804FB 		ldr	pc, [sp], #4
 4119              		.cfi_endproc
 4120              	.LFE179:
 4122              		.section	.text.lv_style_set_grid_column_dsc_array,"ax",%progbits
 4123              		.align	1
 4124              		.global	lv_style_set_grid_column_dsc_array
 4125              		.syntax unified
 4126              		.thumb
 4127              		.thumb_func
 4129              	lv_style_set_grid_column_dsc_array:
 4130              	.LVL284:
 4131              	.LFB180:
 989:Lib/lvgl/src/misc/lv_style_gen.c **** 
 990:Lib/lvgl/src/misc/lv_style_gen.c **** const lv_style_prop_t _lv_style_const_prop_id_FLEX_GROW = LV_STYLE_FLEX_GROW;
 991:Lib/lvgl/src/misc/lv_style_gen.c **** #endif /*LV_USE_FLEX*/
 992:Lib/lvgl/src/misc/lv_style_gen.c **** 
 993:Lib/lvgl/src/misc/lv_style_gen.c **** #if LV_USE_GRID
 994:Lib/lvgl/src/misc/lv_style_gen.c **** 
 995:Lib/lvgl/src/misc/lv_style_gen.c **** void lv_style_set_grid_column_dsc_array(lv_style_t * style, const int32_t * value)
 996:Lib/lvgl/src/misc/lv_style_gen.c **** {
 4132              		.loc 1 996 1 is_stmt 1 view -0
 4133              		.cfi_startproc
 4134              		@ args = 0, pretend = 0, frame = 8
 4135              		@ frame_needed = 0, uses_anonymous_args = 0
 4136              		.loc 1 996 1 is_stmt 0 view .LVU731
 4137 0000 00B5     		push	{lr}
 4138              	.LCFI294:
 4139              		.cfi_def_cfa_offset 4
 4140              		.cfi_offset 14, -4
 4141 0002 83B0     		sub	sp, sp, #12
 4142              	.LCFI295:
 4143              		.cfi_def_cfa_offset 16
 4144 0004 0A46     		mov	r2, r1
 997:Lib/lvgl/src/misc/lv_style_gen.c ****     lv_style_value_t v = {
 4145              		.loc 1 997 5 is_stmt 1 view .LVU732
 4146              		.loc 1 997 22 is_stmt 0 view .LVU733
 4147 0006 0191     		str	r1, [sp, #4]
 998:Lib/lvgl/src/misc/lv_style_gen.c ****         .ptr = value
 999:Lib/lvgl/src/misc/lv_style_gen.c ****     };
1000:Lib/lvgl/src/misc/lv_style_gen.c ****     lv_style_set_prop(style, LV_STYLE_GRID_COLUMN_DSC_ARRAY, v);
 4148              		.loc 1 1000 5 is_stmt 1 view .LVU734
 4149 0008 7B21     		movs	r1, #123
 4150              	.LVL285:
 4151              		.loc 1 1000 5 is_stmt 0 view .LVU735
 4152 000a FFF7FEFF 		bl	lv_style_set_prop
 4153              	.LVL286:
1001:Lib/lvgl/src/misc/lv_style_gen.c **** }
 4154              		.loc 1 1001 1 view .LVU736
 4155 000e 03B0     		add	sp, sp, #12
ARM GAS  C:\Users\Alex\AppData\Local\Temp\ccl5l8V8.s 			page 88


 4156              	.LCFI296:
 4157              		.cfi_def_cfa_offset 4
 4158              		@ sp needed
 4159 0010 5DF804FB 		ldr	pc, [sp], #4
 4160              		.loc 1 1001 1 view .LVU737
 4161              		.cfi_endproc
 4162              	.LFE180:
 4164              		.section	.text.lv_style_set_grid_column_align,"ax",%progbits
 4165              		.align	1
 4166              		.global	lv_style_set_grid_column_align
 4167              		.syntax unified
 4168              		.thumb
 4169              		.thumb_func
 4171              	lv_style_set_grid_column_align:
 4172              	.LVL287:
 4173              	.LFB181:
1002:Lib/lvgl/src/misc/lv_style_gen.c **** 
1003:Lib/lvgl/src/misc/lv_style_gen.c **** const lv_style_prop_t _lv_style_const_prop_id_GRID_COLUMN_DSC_ARRAY = LV_STYLE_GRID_COLUMN_DSC_ARRA
1004:Lib/lvgl/src/misc/lv_style_gen.c **** 
1005:Lib/lvgl/src/misc/lv_style_gen.c **** void lv_style_set_grid_column_align(lv_style_t * style, lv_grid_align_t value)
1006:Lib/lvgl/src/misc/lv_style_gen.c **** {
 4174              		.loc 1 1006 1 is_stmt 1 view -0
 4175              		.cfi_startproc
 4176              		@ args = 0, pretend = 0, frame = 8
 4177              		@ frame_needed = 0, uses_anonymous_args = 0
 4178              		.loc 1 1006 1 is_stmt 0 view .LVU739
 4179 0000 00B5     		push	{lr}
 4180              	.LCFI297:
 4181              		.cfi_def_cfa_offset 4
 4182              		.cfi_offset 14, -4
 4183 0002 83B0     		sub	sp, sp, #12
 4184              	.LCFI298:
 4185              		.cfi_def_cfa_offset 16
 4186 0004 0A46     		mov	r2, r1
1007:Lib/lvgl/src/misc/lv_style_gen.c ****     lv_style_value_t v = {
 4187              		.loc 1 1007 5 is_stmt 1 view .LVU740
 4188              		.loc 1 1007 22 is_stmt 0 view .LVU741
 4189 0006 0191     		str	r1, [sp, #4]
1008:Lib/lvgl/src/misc/lv_style_gen.c ****         .num = (int32_t)value
1009:Lib/lvgl/src/misc/lv_style_gen.c ****     };
1010:Lib/lvgl/src/misc/lv_style_gen.c ****     lv_style_set_prop(style, LV_STYLE_GRID_COLUMN_ALIGN, v);
 4190              		.loc 1 1010 5 is_stmt 1 view .LVU742
 4191 0008 7821     		movs	r1, #120
 4192              	.LVL288:
 4193              		.loc 1 1010 5 is_stmt 0 view .LVU743
 4194 000a FFF7FEFF 		bl	lv_style_set_prop
 4195              	.LVL289:
1011:Lib/lvgl/src/misc/lv_style_gen.c **** }
 4196              		.loc 1 1011 1 view .LVU744
 4197 000e 03B0     		add	sp, sp, #12
 4198              	.LCFI299:
 4199              		.cfi_def_cfa_offset 4
 4200              		@ sp needed
 4201 0010 5DF804FB 		ldr	pc, [sp], #4
 4202              		.cfi_endproc
 4203              	.LFE181:
 4205              		.section	.text.lv_style_set_grid_row_dsc_array,"ax",%progbits
ARM GAS  C:\Users\Alex\AppData\Local\Temp\ccl5l8V8.s 			page 89


 4206              		.align	1
 4207              		.global	lv_style_set_grid_row_dsc_array
 4208              		.syntax unified
 4209              		.thumb
 4210              		.thumb_func
 4212              	lv_style_set_grid_row_dsc_array:
 4213              	.LVL290:
 4214              	.LFB182:
1012:Lib/lvgl/src/misc/lv_style_gen.c **** 
1013:Lib/lvgl/src/misc/lv_style_gen.c **** const lv_style_prop_t _lv_style_const_prop_id_GRID_COLUMN_ALIGN = LV_STYLE_GRID_COLUMN_ALIGN;
1014:Lib/lvgl/src/misc/lv_style_gen.c **** 
1015:Lib/lvgl/src/misc/lv_style_gen.c **** void lv_style_set_grid_row_dsc_array(lv_style_t * style, const int32_t * value)
1016:Lib/lvgl/src/misc/lv_style_gen.c **** {
 4215              		.loc 1 1016 1 is_stmt 1 view -0
 4216              		.cfi_startproc
 4217              		@ args = 0, pretend = 0, frame = 8
 4218              		@ frame_needed = 0, uses_anonymous_args = 0
 4219              		.loc 1 1016 1 is_stmt 0 view .LVU746
 4220 0000 00B5     		push	{lr}
 4221              	.LCFI300:
 4222              		.cfi_def_cfa_offset 4
 4223              		.cfi_offset 14, -4
 4224 0002 83B0     		sub	sp, sp, #12
 4225              	.LCFI301:
 4226              		.cfi_def_cfa_offset 16
 4227 0004 0A46     		mov	r2, r1
1017:Lib/lvgl/src/misc/lv_style_gen.c ****     lv_style_value_t v = {
 4228              		.loc 1 1017 5 is_stmt 1 view .LVU747
 4229              		.loc 1 1017 22 is_stmt 0 view .LVU748
 4230 0006 0191     		str	r1, [sp, #4]
1018:Lib/lvgl/src/misc/lv_style_gen.c ****         .ptr = value
1019:Lib/lvgl/src/misc/lv_style_gen.c ****     };
1020:Lib/lvgl/src/misc/lv_style_gen.c ****     lv_style_set_prop(style, LV_STYLE_GRID_ROW_DSC_ARRAY, v);
 4231              		.loc 1 1020 5 is_stmt 1 view .LVU749
 4232 0008 7A21     		movs	r1, #122
 4233              	.LVL291:
 4234              		.loc 1 1020 5 is_stmt 0 view .LVU750
 4235 000a FFF7FEFF 		bl	lv_style_set_prop
 4236              	.LVL292:
1021:Lib/lvgl/src/misc/lv_style_gen.c **** }
 4237              		.loc 1 1021 1 view .LVU751
 4238 000e 03B0     		add	sp, sp, #12
 4239              	.LCFI302:
 4240              		.cfi_def_cfa_offset 4
 4241              		@ sp needed
 4242 0010 5DF804FB 		ldr	pc, [sp], #4
 4243              		.loc 1 1021 1 view .LVU752
 4244              		.cfi_endproc
 4245              	.LFE182:
 4247              		.section	.text.lv_style_set_grid_row_align,"ax",%progbits
 4248              		.align	1
 4249              		.global	lv_style_set_grid_row_align
 4250              		.syntax unified
 4251              		.thumb
 4252              		.thumb_func
 4254              	lv_style_set_grid_row_align:
 4255              	.LVL293:
ARM GAS  C:\Users\Alex\AppData\Local\Temp\ccl5l8V8.s 			page 90


 4256              	.LFB183:
1022:Lib/lvgl/src/misc/lv_style_gen.c **** 
1023:Lib/lvgl/src/misc/lv_style_gen.c **** const lv_style_prop_t _lv_style_const_prop_id_GRID_ROW_DSC_ARRAY = LV_STYLE_GRID_ROW_DSC_ARRAY;
1024:Lib/lvgl/src/misc/lv_style_gen.c **** 
1025:Lib/lvgl/src/misc/lv_style_gen.c **** void lv_style_set_grid_row_align(lv_style_t * style, lv_grid_align_t value)
1026:Lib/lvgl/src/misc/lv_style_gen.c **** {
 4257              		.loc 1 1026 1 is_stmt 1 view -0
 4258              		.cfi_startproc
 4259              		@ args = 0, pretend = 0, frame = 8
 4260              		@ frame_needed = 0, uses_anonymous_args = 0
 4261              		.loc 1 1026 1 is_stmt 0 view .LVU754
 4262 0000 00B5     		push	{lr}
 4263              	.LCFI303:
 4264              		.cfi_def_cfa_offset 4
 4265              		.cfi_offset 14, -4
 4266 0002 83B0     		sub	sp, sp, #12
 4267              	.LCFI304:
 4268              		.cfi_def_cfa_offset 16
 4269 0004 0A46     		mov	r2, r1
1027:Lib/lvgl/src/misc/lv_style_gen.c ****     lv_style_value_t v = {
 4270              		.loc 1 1027 5 is_stmt 1 view .LVU755
 4271              		.loc 1 1027 22 is_stmt 0 view .LVU756
 4272 0006 0191     		str	r1, [sp, #4]
1028:Lib/lvgl/src/misc/lv_style_gen.c ****         .num = (int32_t)value
1029:Lib/lvgl/src/misc/lv_style_gen.c ****     };
1030:Lib/lvgl/src/misc/lv_style_gen.c ****     lv_style_set_prop(style, LV_STYLE_GRID_ROW_ALIGN, v);
 4273              		.loc 1 1030 5 is_stmt 1 view .LVU757
 4274 0008 7921     		movs	r1, #121
 4275              	.LVL294:
 4276              		.loc 1 1030 5 is_stmt 0 view .LVU758
 4277 000a FFF7FEFF 		bl	lv_style_set_prop
 4278              	.LVL295:
1031:Lib/lvgl/src/misc/lv_style_gen.c **** }
 4279              		.loc 1 1031 1 view .LVU759
 4280 000e 03B0     		add	sp, sp, #12
 4281              	.LCFI305:
 4282              		.cfi_def_cfa_offset 4
 4283              		@ sp needed
 4284 0010 5DF804FB 		ldr	pc, [sp], #4
 4285              		.cfi_endproc
 4286              	.LFE183:
 4288              		.section	.text.lv_style_set_grid_cell_column_pos,"ax",%progbits
 4289              		.align	1
 4290              		.global	lv_style_set_grid_cell_column_pos
 4291              		.syntax unified
 4292              		.thumb
 4293              		.thumb_func
 4295              	lv_style_set_grid_cell_column_pos:
 4296              	.LVL296:
 4297              	.LFB184:
1032:Lib/lvgl/src/misc/lv_style_gen.c **** 
1033:Lib/lvgl/src/misc/lv_style_gen.c **** const lv_style_prop_t _lv_style_const_prop_id_GRID_ROW_ALIGN = LV_STYLE_GRID_ROW_ALIGN;
1034:Lib/lvgl/src/misc/lv_style_gen.c **** 
1035:Lib/lvgl/src/misc/lv_style_gen.c **** void lv_style_set_grid_cell_column_pos(lv_style_t * style, int32_t value)
1036:Lib/lvgl/src/misc/lv_style_gen.c **** {
 4298              		.loc 1 1036 1 is_stmt 1 view -0
 4299              		.cfi_startproc
ARM GAS  C:\Users\Alex\AppData\Local\Temp\ccl5l8V8.s 			page 91


 4300              		@ args = 0, pretend = 0, frame = 8
 4301              		@ frame_needed = 0, uses_anonymous_args = 0
 4302              		.loc 1 1036 1 is_stmt 0 view .LVU761
 4303 0000 00B5     		push	{lr}
 4304              	.LCFI306:
 4305              		.cfi_def_cfa_offset 4
 4306              		.cfi_offset 14, -4
 4307 0002 83B0     		sub	sp, sp, #12
 4308              	.LCFI307:
 4309              		.cfi_def_cfa_offset 16
 4310 0004 0A46     		mov	r2, r1
1037:Lib/lvgl/src/misc/lv_style_gen.c ****     lv_style_value_t v = {
 4311              		.loc 1 1037 5 is_stmt 1 view .LVU762
 4312              		.loc 1 1037 22 is_stmt 0 view .LVU763
 4313 0006 0191     		str	r1, [sp, #4]
1038:Lib/lvgl/src/misc/lv_style_gen.c ****         .num = (int32_t)value
1039:Lib/lvgl/src/misc/lv_style_gen.c ****     };
1040:Lib/lvgl/src/misc/lv_style_gen.c ****     lv_style_set_prop(style, LV_STYLE_GRID_CELL_COLUMN_POS, v);
 4314              		.loc 1 1040 5 is_stmt 1 view .LVU764
 4315 0008 7C21     		movs	r1, #124
 4316              	.LVL297:
 4317              		.loc 1 1040 5 is_stmt 0 view .LVU765
 4318 000a FFF7FEFF 		bl	lv_style_set_prop
 4319              	.LVL298:
1041:Lib/lvgl/src/misc/lv_style_gen.c **** }
 4320              		.loc 1 1041 1 view .LVU766
 4321 000e 03B0     		add	sp, sp, #12
 4322              	.LCFI308:
 4323              		.cfi_def_cfa_offset 4
 4324              		@ sp needed
 4325 0010 5DF804FB 		ldr	pc, [sp], #4
 4326              		.loc 1 1041 1 view .LVU767
 4327              		.cfi_endproc
 4328              	.LFE184:
 4330              		.section	.text.lv_style_set_grid_cell_x_align,"ax",%progbits
 4331              		.align	1
 4332              		.global	lv_style_set_grid_cell_x_align
 4333              		.syntax unified
 4334              		.thumb
 4335              		.thumb_func
 4337              	lv_style_set_grid_cell_x_align:
 4338              	.LVL299:
 4339              	.LFB185:
1042:Lib/lvgl/src/misc/lv_style_gen.c **** 
1043:Lib/lvgl/src/misc/lv_style_gen.c **** const lv_style_prop_t _lv_style_const_prop_id_GRID_CELL_COLUMN_POS = LV_STYLE_GRID_CELL_COLUMN_POS;
1044:Lib/lvgl/src/misc/lv_style_gen.c **** 
