ARM GAS  C:\Users\Alex\AppData\Local\Temp\ccEKNduN.s 			page 1


   1              		.cpu cortex-m4
   2              		.arch armv7e-m
   3              		.fpu fpv4-sp-d16
   4              		.eabi_attribute 27, 1
   5              		.eabi_attribute 28, 1
   6              		.eabi_attribute 20, 1
   7              		.eabi_attribute 21, 1
   8              		.eabi_attribute 23, 3
   9              		.eabi_attribute 24, 1
  10              		.eabi_attribute 25, 1
  11              		.eabi_attribute 26, 1
  12              		.eabi_attribute 30, 1
  13              		.eabi_attribute 34, 1
  14              		.eabi_attribute 18, 4
  15              		.file	"lv_switch.c"
  16              		.text
  17              	.Ltext0:
  18              		.cfi_sections	.debug_frame
  19              		.file 1 "Lib/lvgl/src/widgets/switch/lv_switch.c"
  20              		.section	.text.lv_switch_anim_completed,"ax",%progbits
  21              		.align	1
  22              		.syntax unified
  23              		.thumb
  24              		.thumb_func
  26              	lv_switch_anim_completed:
  27              	.LVL0:
  28              	.LFB239:
   1:Lib/lvgl/src/widgets/switch/lv_switch.c **** /**
   2:Lib/lvgl/src/widgets/switch/lv_switch.c ****  * @file lv_sw.c
   3:Lib/lvgl/src/widgets/switch/lv_switch.c ****  *
   4:Lib/lvgl/src/widgets/switch/lv_switch.c ****  */
   5:Lib/lvgl/src/widgets/switch/lv_switch.c **** 
   6:Lib/lvgl/src/widgets/switch/lv_switch.c **** /*********************
   7:Lib/lvgl/src/widgets/switch/lv_switch.c ****  *      INCLUDES
   8:Lib/lvgl/src/widgets/switch/lv_switch.c ****  *********************/
   9:Lib/lvgl/src/widgets/switch/lv_switch.c **** #include "lv_switch.h"
  10:Lib/lvgl/src/widgets/switch/lv_switch.c **** 
  11:Lib/lvgl/src/widgets/switch/lv_switch.c **** #if LV_USE_SWITCH != 0
  12:Lib/lvgl/src/widgets/switch/lv_switch.c **** 
  13:Lib/lvgl/src/widgets/switch/lv_switch.c **** #include "../../misc/lv_assert.h"
  14:Lib/lvgl/src/widgets/switch/lv_switch.c **** #include "../../misc/lv_math.h"
  15:Lib/lvgl/src/widgets/switch/lv_switch.c **** #include "../../misc/lv_anim.h"
  16:Lib/lvgl/src/widgets/switch/lv_switch.c **** #include "../../indev/lv_indev.h"
  17:Lib/lvgl/src/widgets/switch/lv_switch.c **** #include "../../display/lv_display.h"
  18:Lib/lvgl/src/widgets/switch/lv_switch.c **** 
  19:Lib/lvgl/src/widgets/switch/lv_switch.c **** /*********************
  20:Lib/lvgl/src/widgets/switch/lv_switch.c ****  *      DEFINES
  21:Lib/lvgl/src/widgets/switch/lv_switch.c ****  *********************/
  22:Lib/lvgl/src/widgets/switch/lv_switch.c **** #define MY_CLASS &lv_switch_class
  23:Lib/lvgl/src/widgets/switch/lv_switch.c **** 
  24:Lib/lvgl/src/widgets/switch/lv_switch.c **** #define LV_SWITCH_IS_ANIMATING(sw) (((sw)->anim_state) != LV_SWITCH_ANIM_STATE_INV)
  25:Lib/lvgl/src/widgets/switch/lv_switch.c **** 
  26:Lib/lvgl/src/widgets/switch/lv_switch.c **** /** Switch animation start value. (Not the real value of the switch just indicates process animatio
  27:Lib/lvgl/src/widgets/switch/lv_switch.c **** #define LV_SWITCH_ANIM_STATE_START 0
  28:Lib/lvgl/src/widgets/switch/lv_switch.c **** 
  29:Lib/lvgl/src/widgets/switch/lv_switch.c **** /** Switch animation end value.  (Not the real value of the switch just indicates process animation
  30:Lib/lvgl/src/widgets/switch/lv_switch.c **** #define LV_SWITCH_ANIM_STATE_END   256
ARM GAS  C:\Users\Alex\AppData\Local\Temp\ccEKNduN.s 			page 2


  31:Lib/lvgl/src/widgets/switch/lv_switch.c **** 
  32:Lib/lvgl/src/widgets/switch/lv_switch.c **** /** Mark no animation is in progress*/
  33:Lib/lvgl/src/widgets/switch/lv_switch.c **** #define LV_SWITCH_ANIM_STATE_INV   -1
  34:Lib/lvgl/src/widgets/switch/lv_switch.c **** 
  35:Lib/lvgl/src/widgets/switch/lv_switch.c **** /**********************
  36:Lib/lvgl/src/widgets/switch/lv_switch.c ****  *      TYPEDEFS
  37:Lib/lvgl/src/widgets/switch/lv_switch.c ****  **********************/
  38:Lib/lvgl/src/widgets/switch/lv_switch.c **** 
  39:Lib/lvgl/src/widgets/switch/lv_switch.c **** /**********************
  40:Lib/lvgl/src/widgets/switch/lv_switch.c ****  *  STATIC PROTOTYPES
  41:Lib/lvgl/src/widgets/switch/lv_switch.c ****  **********************/
  42:Lib/lvgl/src/widgets/switch/lv_switch.c **** static void lv_switch_constructor(const lv_obj_class_t * class_p, lv_obj_t * obj);
  43:Lib/lvgl/src/widgets/switch/lv_switch.c **** static void lv_switch_destructor(const lv_obj_class_t * class_p, lv_obj_t * obj);
  44:Lib/lvgl/src/widgets/switch/lv_switch.c **** static void lv_switch_event(const lv_obj_class_t * class_p, lv_event_t * e);
  45:Lib/lvgl/src/widgets/switch/lv_switch.c **** static void draw_main(lv_event_t * e);
  46:Lib/lvgl/src/widgets/switch/lv_switch.c **** 
  47:Lib/lvgl/src/widgets/switch/lv_switch.c **** static void lv_switch_anim_exec_cb(void * sw, int32_t value);
  48:Lib/lvgl/src/widgets/switch/lv_switch.c **** static void lv_switch_trigger_anim(lv_obj_t * obj);
  49:Lib/lvgl/src/widgets/switch/lv_switch.c **** static void lv_switch_anim_completed(lv_anim_t * a);
  50:Lib/lvgl/src/widgets/switch/lv_switch.c **** /**********************
  51:Lib/lvgl/src/widgets/switch/lv_switch.c ****  *  STATIC VARIABLES
  52:Lib/lvgl/src/widgets/switch/lv_switch.c ****  **********************/
  53:Lib/lvgl/src/widgets/switch/lv_switch.c **** const lv_obj_class_t lv_switch_class = {
  54:Lib/lvgl/src/widgets/switch/lv_switch.c ****     .constructor_cb = lv_switch_constructor,
  55:Lib/lvgl/src/widgets/switch/lv_switch.c ****     .destructor_cb = lv_switch_destructor,
  56:Lib/lvgl/src/widgets/switch/lv_switch.c ****     .event_cb = lv_switch_event,
  57:Lib/lvgl/src/widgets/switch/lv_switch.c ****     .width_def = (4 * LV_DPI_DEF) / 10,
  58:Lib/lvgl/src/widgets/switch/lv_switch.c ****     .height_def = (4 * LV_DPI_DEF) / 17,
  59:Lib/lvgl/src/widgets/switch/lv_switch.c ****     .group_def = LV_OBJ_CLASS_GROUP_DEF_TRUE,
  60:Lib/lvgl/src/widgets/switch/lv_switch.c ****     .instance_size = sizeof(lv_switch_t),
  61:Lib/lvgl/src/widgets/switch/lv_switch.c ****     .base_class = &lv_obj_class,
  62:Lib/lvgl/src/widgets/switch/lv_switch.c ****     .name = "switch",
  63:Lib/lvgl/src/widgets/switch/lv_switch.c **** };
  64:Lib/lvgl/src/widgets/switch/lv_switch.c **** 
  65:Lib/lvgl/src/widgets/switch/lv_switch.c **** /**********************
  66:Lib/lvgl/src/widgets/switch/lv_switch.c ****  *      MACROS
  67:Lib/lvgl/src/widgets/switch/lv_switch.c ****  **********************/
  68:Lib/lvgl/src/widgets/switch/lv_switch.c **** 
  69:Lib/lvgl/src/widgets/switch/lv_switch.c **** /**********************
  70:Lib/lvgl/src/widgets/switch/lv_switch.c ****  *   GLOBAL FUNCTIONS
  71:Lib/lvgl/src/widgets/switch/lv_switch.c ****  **********************/
  72:Lib/lvgl/src/widgets/switch/lv_switch.c **** 
  73:Lib/lvgl/src/widgets/switch/lv_switch.c **** lv_obj_t * lv_switch_create(lv_obj_t * parent)
  74:Lib/lvgl/src/widgets/switch/lv_switch.c **** {
  75:Lib/lvgl/src/widgets/switch/lv_switch.c ****     LV_LOG_INFO("begin");
  76:Lib/lvgl/src/widgets/switch/lv_switch.c ****     lv_obj_t * obj = lv_obj_class_create_obj(MY_CLASS, parent);
  77:Lib/lvgl/src/widgets/switch/lv_switch.c ****     lv_obj_class_init_obj(obj);
  78:Lib/lvgl/src/widgets/switch/lv_switch.c ****     return obj;
  79:Lib/lvgl/src/widgets/switch/lv_switch.c **** }
  80:Lib/lvgl/src/widgets/switch/lv_switch.c **** 
  81:Lib/lvgl/src/widgets/switch/lv_switch.c **** /**********************
  82:Lib/lvgl/src/widgets/switch/lv_switch.c ****  *   STATIC FUNCTIONS
  83:Lib/lvgl/src/widgets/switch/lv_switch.c ****  **********************/
  84:Lib/lvgl/src/widgets/switch/lv_switch.c **** 
  85:Lib/lvgl/src/widgets/switch/lv_switch.c **** static void lv_switch_constructor(const lv_obj_class_t * class_p, lv_obj_t * obj)
  86:Lib/lvgl/src/widgets/switch/lv_switch.c **** {
  87:Lib/lvgl/src/widgets/switch/lv_switch.c ****     LV_UNUSED(class_p);
ARM GAS  C:\Users\Alex\AppData\Local\Temp\ccEKNduN.s 			page 3


  88:Lib/lvgl/src/widgets/switch/lv_switch.c ****     LV_TRACE_OBJ_CREATE("begin");
  89:Lib/lvgl/src/widgets/switch/lv_switch.c **** 
  90:Lib/lvgl/src/widgets/switch/lv_switch.c ****     lv_switch_t * sw = (lv_switch_t *)obj;
  91:Lib/lvgl/src/widgets/switch/lv_switch.c **** 
  92:Lib/lvgl/src/widgets/switch/lv_switch.c ****     sw->anim_state = LV_SWITCH_ANIM_STATE_INV;
  93:Lib/lvgl/src/widgets/switch/lv_switch.c **** 
  94:Lib/lvgl/src/widgets/switch/lv_switch.c ****     lv_obj_remove_flag(obj, LV_OBJ_FLAG_SCROLLABLE);
  95:Lib/lvgl/src/widgets/switch/lv_switch.c ****     lv_obj_add_flag(obj, LV_OBJ_FLAG_CHECKABLE);
  96:Lib/lvgl/src/widgets/switch/lv_switch.c ****     lv_obj_add_flag(obj, LV_OBJ_FLAG_SCROLL_ON_FOCUS);
  97:Lib/lvgl/src/widgets/switch/lv_switch.c **** 
  98:Lib/lvgl/src/widgets/switch/lv_switch.c ****     LV_TRACE_OBJ_CREATE("finished");
  99:Lib/lvgl/src/widgets/switch/lv_switch.c **** }
 100:Lib/lvgl/src/widgets/switch/lv_switch.c **** 
 101:Lib/lvgl/src/widgets/switch/lv_switch.c **** static void lv_switch_destructor(const lv_obj_class_t * class_p, lv_obj_t * obj)
 102:Lib/lvgl/src/widgets/switch/lv_switch.c **** {
 103:Lib/lvgl/src/widgets/switch/lv_switch.c ****     LV_UNUSED(class_p);
 104:Lib/lvgl/src/widgets/switch/lv_switch.c ****     lv_switch_t * sw = (lv_switch_t *)obj;
 105:Lib/lvgl/src/widgets/switch/lv_switch.c **** 
 106:Lib/lvgl/src/widgets/switch/lv_switch.c ****     lv_anim_delete(sw, NULL);
 107:Lib/lvgl/src/widgets/switch/lv_switch.c **** }
 108:Lib/lvgl/src/widgets/switch/lv_switch.c **** 
 109:Lib/lvgl/src/widgets/switch/lv_switch.c **** static void lv_switch_event(const lv_obj_class_t * class_p, lv_event_t * e)
 110:Lib/lvgl/src/widgets/switch/lv_switch.c **** {
 111:Lib/lvgl/src/widgets/switch/lv_switch.c ****     LV_UNUSED(class_p);
 112:Lib/lvgl/src/widgets/switch/lv_switch.c **** 
 113:Lib/lvgl/src/widgets/switch/lv_switch.c ****     lv_result_t res;
 114:Lib/lvgl/src/widgets/switch/lv_switch.c **** 
 115:Lib/lvgl/src/widgets/switch/lv_switch.c ****     /*Call the ancestor's event handler*/
 116:Lib/lvgl/src/widgets/switch/lv_switch.c ****     res = lv_obj_event_base(MY_CLASS, e);
 117:Lib/lvgl/src/widgets/switch/lv_switch.c ****     if(res != LV_RESULT_OK) return;
 118:Lib/lvgl/src/widgets/switch/lv_switch.c **** 
 119:Lib/lvgl/src/widgets/switch/lv_switch.c ****     lv_event_code_t code = lv_event_get_code(e);
 120:Lib/lvgl/src/widgets/switch/lv_switch.c ****     lv_obj_t * obj = lv_event_get_current_target(e);
 121:Lib/lvgl/src/widgets/switch/lv_switch.c **** 
 122:Lib/lvgl/src/widgets/switch/lv_switch.c ****     if(code == LV_EVENT_REFR_EXT_DRAW_SIZE) {
 123:Lib/lvgl/src/widgets/switch/lv_switch.c ****         int32_t knob_left = lv_obj_get_style_pad_left(obj,   LV_PART_KNOB);
 124:Lib/lvgl/src/widgets/switch/lv_switch.c ****         int32_t knob_right = lv_obj_get_style_pad_right(obj,  LV_PART_KNOB);
 125:Lib/lvgl/src/widgets/switch/lv_switch.c ****         int32_t knob_top = lv_obj_get_style_pad_top(obj,    LV_PART_KNOB);
 126:Lib/lvgl/src/widgets/switch/lv_switch.c ****         int32_t knob_bottom = lv_obj_get_style_pad_bottom(obj, LV_PART_KNOB);
 127:Lib/lvgl/src/widgets/switch/lv_switch.c **** 
 128:Lib/lvgl/src/widgets/switch/lv_switch.c ****         /*The smaller size is the knob diameter*/
 129:Lib/lvgl/src/widgets/switch/lv_switch.c ****         int32_t knob_size = LV_MAX4(knob_left, knob_right, knob_bottom, knob_top);
 130:Lib/lvgl/src/widgets/switch/lv_switch.c ****         knob_size += _LV_SWITCH_KNOB_EXT_AREA_CORRECTION;
 131:Lib/lvgl/src/widgets/switch/lv_switch.c ****         knob_size += lv_obj_calculate_ext_draw_size(obj, LV_PART_KNOB);
 132:Lib/lvgl/src/widgets/switch/lv_switch.c **** 
 133:Lib/lvgl/src/widgets/switch/lv_switch.c ****         int32_t * s = lv_event_get_param(e);
 134:Lib/lvgl/src/widgets/switch/lv_switch.c ****         *s = LV_MAX(*s, knob_size);
 135:Lib/lvgl/src/widgets/switch/lv_switch.c ****         *s = LV_MAX(*s, lv_obj_calculate_ext_draw_size(obj, LV_PART_INDICATOR));
 136:Lib/lvgl/src/widgets/switch/lv_switch.c ****     }
 137:Lib/lvgl/src/widgets/switch/lv_switch.c ****     else if(code == LV_EVENT_VALUE_CHANGED) {
 138:Lib/lvgl/src/widgets/switch/lv_switch.c ****         lv_switch_trigger_anim(obj);
 139:Lib/lvgl/src/widgets/switch/lv_switch.c ****         lv_obj_invalidate(obj);
 140:Lib/lvgl/src/widgets/switch/lv_switch.c ****     }
 141:Lib/lvgl/src/widgets/switch/lv_switch.c ****     else if(code == LV_EVENT_DRAW_MAIN) {
 142:Lib/lvgl/src/widgets/switch/lv_switch.c ****         draw_main(e);
 143:Lib/lvgl/src/widgets/switch/lv_switch.c ****     }
 144:Lib/lvgl/src/widgets/switch/lv_switch.c **** }
ARM GAS  C:\Users\Alex\AppData\Local\Temp\ccEKNduN.s 			page 4


 145:Lib/lvgl/src/widgets/switch/lv_switch.c **** 
 146:Lib/lvgl/src/widgets/switch/lv_switch.c **** static void draw_main(lv_event_t * e)
 147:Lib/lvgl/src/widgets/switch/lv_switch.c **** {
 148:Lib/lvgl/src/widgets/switch/lv_switch.c ****     lv_obj_t * obj = lv_event_get_current_target(e);
 149:Lib/lvgl/src/widgets/switch/lv_switch.c ****     lv_switch_t * sw = (lv_switch_t *)obj;
 150:Lib/lvgl/src/widgets/switch/lv_switch.c **** 
 151:Lib/lvgl/src/widgets/switch/lv_switch.c ****     lv_layer_t * layer = lv_event_get_layer(e);
 152:Lib/lvgl/src/widgets/switch/lv_switch.c **** 
 153:Lib/lvgl/src/widgets/switch/lv_switch.c ****     /*Draw the indicator*/
 154:Lib/lvgl/src/widgets/switch/lv_switch.c ****     lv_area_t indic_area;
 155:Lib/lvgl/src/widgets/switch/lv_switch.c ****     /*Exclude background's padding*/
 156:Lib/lvgl/src/widgets/switch/lv_switch.c ****     lv_obj_get_content_coords(obj, &indic_area);
 157:Lib/lvgl/src/widgets/switch/lv_switch.c **** 
 158:Lib/lvgl/src/widgets/switch/lv_switch.c ****     lv_draw_rect_dsc_t draw_indic_dsc;
 159:Lib/lvgl/src/widgets/switch/lv_switch.c ****     lv_draw_rect_dsc_init(&draw_indic_dsc);
 160:Lib/lvgl/src/widgets/switch/lv_switch.c ****     lv_obj_init_draw_rect_dsc(obj, LV_PART_INDICATOR, &draw_indic_dsc);
 161:Lib/lvgl/src/widgets/switch/lv_switch.c ****     lv_draw_rect(layer, &draw_indic_dsc, &indic_area);
 162:Lib/lvgl/src/widgets/switch/lv_switch.c **** 
 163:Lib/lvgl/src/widgets/switch/lv_switch.c ****     /*Draw the knob*/
 164:Lib/lvgl/src/widgets/switch/lv_switch.c ****     int32_t anim_value_x = 0;
 165:Lib/lvgl/src/widgets/switch/lv_switch.c ****     int32_t knob_size = lv_obj_get_height(obj);
 166:Lib/lvgl/src/widgets/switch/lv_switch.c ****     int32_t anim_length = lv_area_get_width(&obj->coords) - knob_size;
 167:Lib/lvgl/src/widgets/switch/lv_switch.c **** 
 168:Lib/lvgl/src/widgets/switch/lv_switch.c ****     if(LV_SWITCH_IS_ANIMATING(sw)) {
 169:Lib/lvgl/src/widgets/switch/lv_switch.c ****         /* Use the animation's coordinate */
 170:Lib/lvgl/src/widgets/switch/lv_switch.c ****         anim_value_x = (anim_length * sw->anim_state) / LV_SWITCH_ANIM_STATE_END;
 171:Lib/lvgl/src/widgets/switch/lv_switch.c ****     }
 172:Lib/lvgl/src/widgets/switch/lv_switch.c ****     else {
 173:Lib/lvgl/src/widgets/switch/lv_switch.c ****         /* Use LV_STATE_CHECKED to decide the coordinate */
 174:Lib/lvgl/src/widgets/switch/lv_switch.c ****         bool chk = lv_obj_get_state(obj) & LV_STATE_CHECKED;
 175:Lib/lvgl/src/widgets/switch/lv_switch.c ****         anim_value_x = chk ? anim_length : 0;
 176:Lib/lvgl/src/widgets/switch/lv_switch.c ****     }
 177:Lib/lvgl/src/widgets/switch/lv_switch.c **** 
 178:Lib/lvgl/src/widgets/switch/lv_switch.c ****     if(LV_BASE_DIR_RTL == lv_obj_get_style_base_dir(obj, LV_PART_MAIN)) {
 179:Lib/lvgl/src/widgets/switch/lv_switch.c ****         anim_value_x = anim_length - anim_value_x;
 180:Lib/lvgl/src/widgets/switch/lv_switch.c ****     }
 181:Lib/lvgl/src/widgets/switch/lv_switch.c **** 
 182:Lib/lvgl/src/widgets/switch/lv_switch.c ****     lv_area_t knob_area;
 183:Lib/lvgl/src/widgets/switch/lv_switch.c ****     lv_area_copy(&knob_area, &obj->coords);
 184:Lib/lvgl/src/widgets/switch/lv_switch.c ****     knob_area.x1 += anim_value_x;
 185:Lib/lvgl/src/widgets/switch/lv_switch.c ****     knob_area.x2 = knob_area.x1 + (knob_size > 0 ? knob_size - 1 : 0);
 186:Lib/lvgl/src/widgets/switch/lv_switch.c **** 
 187:Lib/lvgl/src/widgets/switch/lv_switch.c ****     int32_t knob_left = lv_obj_get_style_pad_left(obj, LV_PART_KNOB);
 188:Lib/lvgl/src/widgets/switch/lv_switch.c ****     int32_t knob_right = lv_obj_get_style_pad_right(obj, LV_PART_KNOB);
 189:Lib/lvgl/src/widgets/switch/lv_switch.c ****     int32_t knob_top = lv_obj_get_style_pad_top(obj, LV_PART_KNOB);
 190:Lib/lvgl/src/widgets/switch/lv_switch.c ****     int32_t knob_bottom = lv_obj_get_style_pad_bottom(obj, LV_PART_KNOB);
 191:Lib/lvgl/src/widgets/switch/lv_switch.c **** 
 192:Lib/lvgl/src/widgets/switch/lv_switch.c ****     /*Apply the paddings on the knob area*/
 193:Lib/lvgl/src/widgets/switch/lv_switch.c ****     knob_area.x1 -= knob_left;
 194:Lib/lvgl/src/widgets/switch/lv_switch.c ****     knob_area.x2 += knob_right;
 195:Lib/lvgl/src/widgets/switch/lv_switch.c ****     knob_area.y1 -= knob_top;
 196:Lib/lvgl/src/widgets/switch/lv_switch.c ****     knob_area.y2 += knob_bottom;
 197:Lib/lvgl/src/widgets/switch/lv_switch.c **** 
 198:Lib/lvgl/src/widgets/switch/lv_switch.c ****     lv_draw_rect_dsc_t knob_rect_dsc;
 199:Lib/lvgl/src/widgets/switch/lv_switch.c ****     lv_draw_rect_dsc_init(&knob_rect_dsc);
 200:Lib/lvgl/src/widgets/switch/lv_switch.c ****     lv_obj_init_draw_rect_dsc(obj, LV_PART_KNOB, &knob_rect_dsc);
 201:Lib/lvgl/src/widgets/switch/lv_switch.c **** 
ARM GAS  C:\Users\Alex\AppData\Local\Temp\ccEKNduN.s 			page 5


 202:Lib/lvgl/src/widgets/switch/lv_switch.c ****     lv_draw_rect(layer, &knob_rect_dsc, &knob_area);
 203:Lib/lvgl/src/widgets/switch/lv_switch.c **** }
 204:Lib/lvgl/src/widgets/switch/lv_switch.c **** 
 205:Lib/lvgl/src/widgets/switch/lv_switch.c **** static void lv_switch_anim_exec_cb(void * var, int32_t value)
 206:Lib/lvgl/src/widgets/switch/lv_switch.c **** {
 207:Lib/lvgl/src/widgets/switch/lv_switch.c ****     lv_switch_t * sw = var;
 208:Lib/lvgl/src/widgets/switch/lv_switch.c ****     sw->anim_state = value;
 209:Lib/lvgl/src/widgets/switch/lv_switch.c ****     lv_obj_invalidate((lv_obj_t *)sw);
 210:Lib/lvgl/src/widgets/switch/lv_switch.c **** }
 211:Lib/lvgl/src/widgets/switch/lv_switch.c **** 
 212:Lib/lvgl/src/widgets/switch/lv_switch.c **** /**
 213:Lib/lvgl/src/widgets/switch/lv_switch.c ****  * Resets the switch's animation state to "no animation in progress".
 214:Lib/lvgl/src/widgets/switch/lv_switch.c ****  */
 215:Lib/lvgl/src/widgets/switch/lv_switch.c **** static void lv_switch_anim_completed(lv_anim_t * a)
 216:Lib/lvgl/src/widgets/switch/lv_switch.c **** {
  29              		.loc 1 216 1 view -0
  30              		.cfi_startproc
  31              		@ args = 0, pretend = 0, frame = 0
  32              		@ frame_needed = 0, uses_anonymous_args = 0
  33              		.loc 1 216 1 is_stmt 0 view .LVU1
  34 0000 08B5     		push	{r3, lr}
  35              	.LCFI0:
  36              		.cfi_def_cfa_offset 8
  37              		.cfi_offset 3, -8
  38              		.cfi_offset 14, -4
 217:Lib/lvgl/src/widgets/switch/lv_switch.c ****     lv_switch_t * sw = a->var;
  39              		.loc 1 217 5 is_stmt 1 view .LVU2
  40              		.loc 1 217 19 is_stmt 0 view .LVU3
  41 0002 0068     		ldr	r0, [r0]
  42              	.LVL1:
 218:Lib/lvgl/src/widgets/switch/lv_switch.c ****     sw->anim_state = LV_SWITCH_ANIM_STATE_INV;
  43              		.loc 1 218 5 is_stmt 1 view .LVU4
  44              		.loc 1 218 20 is_stmt 0 view .LVU5
  45 0004 4FF0FF33 		mov	r3, #-1
  46 0008 C362     		str	r3, [r0, #44]
 219:Lib/lvgl/src/widgets/switch/lv_switch.c ****     lv_obj_invalidate((lv_obj_t *)sw);
  47              		.loc 1 219 5 is_stmt 1 view .LVU6
  48 000a FFF7FEFF 		bl	lv_obj_invalidate
  49              	.LVL2:
 220:Lib/lvgl/src/widgets/switch/lv_switch.c **** }
  50              		.loc 1 220 1 is_stmt 0 view .LVU7
  51 000e 08BD     		pop	{r3, pc}
  52              		.cfi_endproc
  53              	.LFE239:
  55              		.section	.text.lv_switch_anim_exec_cb,"ax",%progbits
  56              		.align	1
  57              		.syntax unified
  58              		.thumb
  59              		.thumb_func
  61              	lv_switch_anim_exec_cb:
  62              	.LVL3:
  63              	.LFB238:
 206:Lib/lvgl/src/widgets/switch/lv_switch.c ****     lv_switch_t * sw = var;
  64              		.loc 1 206 1 is_stmt 1 view -0
  65              		.cfi_startproc
  66              		@ args = 0, pretend = 0, frame = 0
  67              		@ frame_needed = 0, uses_anonymous_args = 0
ARM GAS  C:\Users\Alex\AppData\Local\Temp\ccEKNduN.s 			page 6


 206:Lib/lvgl/src/widgets/switch/lv_switch.c ****     lv_switch_t * sw = var;
  68              		.loc 1 206 1 is_stmt 0 view .LVU9
  69 0000 08B5     		push	{r3, lr}
  70              	.LCFI1:
  71              		.cfi_def_cfa_offset 8
  72              		.cfi_offset 3, -8
  73              		.cfi_offset 14, -4
 207:Lib/lvgl/src/widgets/switch/lv_switch.c ****     sw->anim_state = value;
  74              		.loc 1 207 5 is_stmt 1 view .LVU10
  75              	.LVL4:
 208:Lib/lvgl/src/widgets/switch/lv_switch.c ****     lv_obj_invalidate((lv_obj_t *)sw);
  76              		.loc 1 208 5 view .LVU11
 208:Lib/lvgl/src/widgets/switch/lv_switch.c ****     lv_obj_invalidate((lv_obj_t *)sw);
  77              		.loc 1 208 20 is_stmt 0 view .LVU12
  78 0002 C162     		str	r1, [r0, #44]
 209:Lib/lvgl/src/widgets/switch/lv_switch.c **** }
  79              		.loc 1 209 5 is_stmt 1 view .LVU13
  80 0004 FFF7FEFF 		bl	lv_obj_invalidate
  81              	.LVL5:
 210:Lib/lvgl/src/widgets/switch/lv_switch.c **** 
  82              		.loc 1 210 1 is_stmt 0 view .LVU14
  83 0008 08BD     		pop	{r3, pc}
  84              		.cfi_endproc
  85              	.LFE238:
  87              		.section	.text.lv_switch_destructor,"ax",%progbits
  88              		.align	1
  89              		.syntax unified
  90              		.thumb
  91              		.thumb_func
  93              	lv_switch_destructor:
  94              	.LVL6:
  95              	.LFB235:
 102:Lib/lvgl/src/widgets/switch/lv_switch.c ****     LV_UNUSED(class_p);
  96              		.loc 1 102 1 is_stmt 1 view -0
  97              		.cfi_startproc
  98              		@ args = 0, pretend = 0, frame = 0
  99              		@ frame_needed = 0, uses_anonymous_args = 0
 102:Lib/lvgl/src/widgets/switch/lv_switch.c ****     LV_UNUSED(class_p);
 100              		.loc 1 102 1 is_stmt 0 view .LVU16
 101 0000 08B5     		push	{r3, lr}
 102              	.LCFI2:
 103              		.cfi_def_cfa_offset 8
 104              		.cfi_offset 3, -8
 105              		.cfi_offset 14, -4
 106 0002 0846     		mov	r0, r1
 107              	.LVL7:
 103:Lib/lvgl/src/widgets/switch/lv_switch.c ****     lv_switch_t * sw = (lv_switch_t *)obj;
 108              		.loc 1 103 5 is_stmt 1 view .LVU17
 104:Lib/lvgl/src/widgets/switch/lv_switch.c **** 
 109              		.loc 1 104 5 view .LVU18
 106:Lib/lvgl/src/widgets/switch/lv_switch.c **** }
 110              		.loc 1 106 5 view .LVU19
 111 0004 0021     		movs	r1, #0
 112              	.LVL8:
 106:Lib/lvgl/src/widgets/switch/lv_switch.c **** }
 113              		.loc 1 106 5 is_stmt 0 view .LVU20
 114 0006 FFF7FEFF 		bl	lv_anim_delete
ARM GAS  C:\Users\Alex\AppData\Local\Temp\ccEKNduN.s 			page 7


 115              	.LVL9:
 107:Lib/lvgl/src/widgets/switch/lv_switch.c **** 
 116              		.loc 1 107 1 view .LVU21
 117 000a 08BD     		pop	{r3, pc}
 118              		.cfi_endproc
 119              	.LFE235:
 121              		.section	.text.lv_switch_trigger_anim,"ax",%progbits
 122              		.align	1
 123              		.syntax unified
 124              		.thumb
 125              		.thumb_func
 127              	lv_switch_trigger_anim:
 128              	.LVL10:
 129              	.LFB240:
 221:Lib/lvgl/src/widgets/switch/lv_switch.c **** 
 222:Lib/lvgl/src/widgets/switch/lv_switch.c **** /**
 223:Lib/lvgl/src/widgets/switch/lv_switch.c ****  * Starts an animation for the switch knob. if the anim_time style property is greater than 0
 224:Lib/lvgl/src/widgets/switch/lv_switch.c ****  * @param obj the switch to animate
 225:Lib/lvgl/src/widgets/switch/lv_switch.c ****  */
 226:Lib/lvgl/src/widgets/switch/lv_switch.c **** static void lv_switch_trigger_anim(lv_obj_t * obj)
 227:Lib/lvgl/src/widgets/switch/lv_switch.c **** {
 130              		.loc 1 227 1 is_stmt 1 view -0
 131              		.cfi_startproc
 132              		@ args = 0, pretend = 0, frame = 88
 133              		@ frame_needed = 0, uses_anonymous_args = 0
 134              		.loc 1 227 1 is_stmt 0 view .LVU23
 135 0000 F0B5     		push	{r4, r5, r6, r7, lr}
 136              	.LCFI3:
 137              		.cfi_def_cfa_offset 20
 138              		.cfi_offset 4, -20
 139              		.cfi_offset 5, -16
 140              		.cfi_offset 6, -12
 141              		.cfi_offset 7, -8
 142              		.cfi_offset 14, -4
 143 0002 97B0     		sub	sp, sp, #92
 144              	.LCFI4:
 145              		.cfi_def_cfa_offset 112
 146 0004 0546     		mov	r5, r0
 228:Lib/lvgl/src/widgets/switch/lv_switch.c ****     LV_ASSERT_OBJ(obj, MY_CLASS);
 147              		.loc 1 228 5 is_stmt 1 view .LVU24
 148              		.loc 1 228 5 view .LVU25
 149              		.loc 1 228 5 view .LVU26
 229:Lib/lvgl/src/widgets/switch/lv_switch.c ****     lv_switch_t * sw = (lv_switch_t *)obj;
 150              		.loc 1 229 5 view .LVU27
 151              	.LVL11:
 230:Lib/lvgl/src/widgets/switch/lv_switch.c **** 
 231:Lib/lvgl/src/widgets/switch/lv_switch.c ****     uint32_t anim_dur_full = lv_obj_get_style_anim_duration(obj, LV_PART_MAIN);
 152              		.loc 1 231 5 view .LVU28
 153              	.LBB39:
 154              	.LBI39:
 155              		.file 2 "Lib/lvgl/src/widgets/switch/../../core/lv_obj_style_gen.h"
   1:Lib/lvgl/src/widgets/switch/../../core/lv_obj_style_gen.h **** 
   2:Lib/lvgl/src/widgets/switch/../../core/lv_obj_style_gen.h **** /*
   3:Lib/lvgl/src/widgets/switch/../../core/lv_obj_style_gen.h ****  **********************************************************************
   4:Lib/lvgl/src/widgets/switch/../../core/lv_obj_style_gen.h ****  *                            DO NOT EDIT
   5:Lib/lvgl/src/widgets/switch/../../core/lv_obj_style_gen.h ****  * This file is automatically generated by "style_api_gen.py"
   6:Lib/lvgl/src/widgets/switch/../../core/lv_obj_style_gen.h ****  **********************************************************************
ARM GAS  C:\Users\Alex\AppData\Local\Temp\ccEKNduN.s 			page 8


   7:Lib/lvgl/src/widgets/switch/../../core/lv_obj_style_gen.h ****  */
   8:Lib/lvgl/src/widgets/switch/../../core/lv_obj_style_gen.h **** 
   9:Lib/lvgl/src/widgets/switch/../../core/lv_obj_style_gen.h **** #ifndef LV_OBJ_STYLE_GEN_H
  10:Lib/lvgl/src/widgets/switch/../../core/lv_obj_style_gen.h **** #define LV_OBJ_STYLE_GEN_H
  11:Lib/lvgl/src/widgets/switch/../../core/lv_obj_style_gen.h **** 
  12:Lib/lvgl/src/widgets/switch/../../core/lv_obj_style_gen.h **** #include "../misc/lv_area.h"
  13:Lib/lvgl/src/widgets/switch/../../core/lv_obj_style_gen.h **** #include "../misc/lv_style.h"
  14:Lib/lvgl/src/widgets/switch/../../core/lv_obj_style_gen.h **** #include "../core/lv_obj_style.h"
  15:Lib/lvgl/src/widgets/switch/../../core/lv_obj_style_gen.h **** 
  16:Lib/lvgl/src/widgets/switch/../../core/lv_obj_style_gen.h **** static inline int32_t lv_obj_get_style_width(const lv_obj_t * obj, uint32_t part)
  17:Lib/lvgl/src/widgets/switch/../../core/lv_obj_style_gen.h **** {
  18:Lib/lvgl/src/widgets/switch/../../core/lv_obj_style_gen.h ****     lv_style_value_t v = lv_obj_get_style_prop(obj, part, LV_STYLE_WIDTH);
  19:Lib/lvgl/src/widgets/switch/../../core/lv_obj_style_gen.h ****     return (int32_t)v.num;
  20:Lib/lvgl/src/widgets/switch/../../core/lv_obj_style_gen.h **** }
  21:Lib/lvgl/src/widgets/switch/../../core/lv_obj_style_gen.h **** 
  22:Lib/lvgl/src/widgets/switch/../../core/lv_obj_style_gen.h **** static inline int32_t lv_obj_get_style_min_width(const lv_obj_t * obj, uint32_t part)
  23:Lib/lvgl/src/widgets/switch/../../core/lv_obj_style_gen.h **** {
  24:Lib/lvgl/src/widgets/switch/../../core/lv_obj_style_gen.h ****     lv_style_value_t v = lv_obj_get_style_prop(obj, part, LV_STYLE_MIN_WIDTH);
  25:Lib/lvgl/src/widgets/switch/../../core/lv_obj_style_gen.h ****     return (int32_t)v.num;
  26:Lib/lvgl/src/widgets/switch/../../core/lv_obj_style_gen.h **** }
  27:Lib/lvgl/src/widgets/switch/../../core/lv_obj_style_gen.h **** 
  28:Lib/lvgl/src/widgets/switch/../../core/lv_obj_style_gen.h **** static inline int32_t lv_obj_get_style_max_width(const lv_obj_t * obj, uint32_t part)
  29:Lib/lvgl/src/widgets/switch/../../core/lv_obj_style_gen.h **** {
  30:Lib/lvgl/src/widgets/switch/../../core/lv_obj_style_gen.h ****     lv_style_value_t v = lv_obj_get_style_prop(obj, part, LV_STYLE_MAX_WIDTH);
  31:Lib/lvgl/src/widgets/switch/../../core/lv_obj_style_gen.h ****     return (int32_t)v.num;
  32:Lib/lvgl/src/widgets/switch/../../core/lv_obj_style_gen.h **** }
  33:Lib/lvgl/src/widgets/switch/../../core/lv_obj_style_gen.h **** 
  34:Lib/lvgl/src/widgets/switch/../../core/lv_obj_style_gen.h **** static inline int32_t lv_obj_get_style_height(const lv_obj_t * obj, uint32_t part)
  35:Lib/lvgl/src/widgets/switch/../../core/lv_obj_style_gen.h **** {
  36:Lib/lvgl/src/widgets/switch/../../core/lv_obj_style_gen.h ****     lv_style_value_t v = lv_obj_get_style_prop(obj, part, LV_STYLE_HEIGHT);
  37:Lib/lvgl/src/widgets/switch/../../core/lv_obj_style_gen.h ****     return (int32_t)v.num;
  38:Lib/lvgl/src/widgets/switch/../../core/lv_obj_style_gen.h **** }
  39:Lib/lvgl/src/widgets/switch/../../core/lv_obj_style_gen.h **** 
  40:Lib/lvgl/src/widgets/switch/../../core/lv_obj_style_gen.h **** static inline int32_t lv_obj_get_style_min_height(const lv_obj_t * obj, uint32_t part)
  41:Lib/lvgl/src/widgets/switch/../../core/lv_obj_style_gen.h **** {
  42:Lib/lvgl/src/widgets/switch/../../core/lv_obj_style_gen.h ****     lv_style_value_t v = lv_obj_get_style_prop(obj, part, LV_STYLE_MIN_HEIGHT);
  43:Lib/lvgl/src/widgets/switch/../../core/lv_obj_style_gen.h ****     return (int32_t)v.num;
  44:Lib/lvgl/src/widgets/switch/../../core/lv_obj_style_gen.h **** }
  45:Lib/lvgl/src/widgets/switch/../../core/lv_obj_style_gen.h **** 
  46:Lib/lvgl/src/widgets/switch/../../core/lv_obj_style_gen.h **** static inline int32_t lv_obj_get_style_max_height(const lv_obj_t * obj, uint32_t part)
  47:Lib/lvgl/src/widgets/switch/../../core/lv_obj_style_gen.h **** {
  48:Lib/lvgl/src/widgets/switch/../../core/lv_obj_style_gen.h ****     lv_style_value_t v = lv_obj_get_style_prop(obj, part, LV_STYLE_MAX_HEIGHT);
  49:Lib/lvgl/src/widgets/switch/../../core/lv_obj_style_gen.h ****     return (int32_t)v.num;
  50:Lib/lvgl/src/widgets/switch/../../core/lv_obj_style_gen.h **** }
  51:Lib/lvgl/src/widgets/switch/../../core/lv_obj_style_gen.h **** 
  52:Lib/lvgl/src/widgets/switch/../../core/lv_obj_style_gen.h **** static inline int32_t lv_obj_get_style_length(const lv_obj_t * obj, uint32_t part)
  53:Lib/lvgl/src/widgets/switch/../../core/lv_obj_style_gen.h **** {
  54:Lib/lvgl/src/widgets/switch/../../core/lv_obj_style_gen.h ****     lv_style_value_t v = lv_obj_get_style_prop(obj, part, LV_STYLE_LENGTH);
  55:Lib/lvgl/src/widgets/switch/../../core/lv_obj_style_gen.h ****     return (int32_t)v.num;
  56:Lib/lvgl/src/widgets/switch/../../core/lv_obj_style_gen.h **** }
  57:Lib/lvgl/src/widgets/switch/../../core/lv_obj_style_gen.h **** 
  58:Lib/lvgl/src/widgets/switch/../../core/lv_obj_style_gen.h **** static inline int32_t lv_obj_get_style_x(const lv_obj_t * obj, uint32_t part)
  59:Lib/lvgl/src/widgets/switch/../../core/lv_obj_style_gen.h **** {
  60:Lib/lvgl/src/widgets/switch/../../core/lv_obj_style_gen.h ****     lv_style_value_t v = lv_obj_get_style_prop(obj, part, LV_STYLE_X);
  61:Lib/lvgl/src/widgets/switch/../../core/lv_obj_style_gen.h ****     return (int32_t)v.num;
  62:Lib/lvgl/src/widgets/switch/../../core/lv_obj_style_gen.h **** }
  63:Lib/lvgl/src/widgets/switch/../../core/lv_obj_style_gen.h **** 
ARM GAS  C:\Users\Alex\AppData\Local\Temp\ccEKNduN.s 			page 9


  64:Lib/lvgl/src/widgets/switch/../../core/lv_obj_style_gen.h **** static inline int32_t lv_obj_get_style_y(const lv_obj_t * obj, uint32_t part)
  65:Lib/lvgl/src/widgets/switch/../../core/lv_obj_style_gen.h **** {
  66:Lib/lvgl/src/widgets/switch/../../core/lv_obj_style_gen.h ****     lv_style_value_t v = lv_obj_get_style_prop(obj, part, LV_STYLE_Y);
  67:Lib/lvgl/src/widgets/switch/../../core/lv_obj_style_gen.h ****     return (int32_t)v.num;
  68:Lib/lvgl/src/widgets/switch/../../core/lv_obj_style_gen.h **** }
  69:Lib/lvgl/src/widgets/switch/../../core/lv_obj_style_gen.h **** 
  70:Lib/lvgl/src/widgets/switch/../../core/lv_obj_style_gen.h **** static inline lv_align_t lv_obj_get_style_align(const lv_obj_t * obj, uint32_t part)
  71:Lib/lvgl/src/widgets/switch/../../core/lv_obj_style_gen.h **** {
  72:Lib/lvgl/src/widgets/switch/../../core/lv_obj_style_gen.h ****     lv_style_value_t v = lv_obj_get_style_prop(obj, part, LV_STYLE_ALIGN);
  73:Lib/lvgl/src/widgets/switch/../../core/lv_obj_style_gen.h ****     return (lv_align_t)v.num;
  74:Lib/lvgl/src/widgets/switch/../../core/lv_obj_style_gen.h **** }
  75:Lib/lvgl/src/widgets/switch/../../core/lv_obj_style_gen.h **** 
  76:Lib/lvgl/src/widgets/switch/../../core/lv_obj_style_gen.h **** static inline int32_t lv_obj_get_style_transform_width(const lv_obj_t * obj, uint32_t part)
  77:Lib/lvgl/src/widgets/switch/../../core/lv_obj_style_gen.h **** {
  78:Lib/lvgl/src/widgets/switch/../../core/lv_obj_style_gen.h ****     lv_style_value_t v = lv_obj_get_style_prop(obj, part, LV_STYLE_TRANSFORM_WIDTH);
  79:Lib/lvgl/src/widgets/switch/../../core/lv_obj_style_gen.h ****     return (int32_t)v.num;
  80:Lib/lvgl/src/widgets/switch/../../core/lv_obj_style_gen.h **** }
  81:Lib/lvgl/src/widgets/switch/../../core/lv_obj_style_gen.h **** 
  82:Lib/lvgl/src/widgets/switch/../../core/lv_obj_style_gen.h **** static inline int32_t lv_obj_get_style_transform_height(const lv_obj_t * obj, uint32_t part)
  83:Lib/lvgl/src/widgets/switch/../../core/lv_obj_style_gen.h **** {
  84:Lib/lvgl/src/widgets/switch/../../core/lv_obj_style_gen.h ****     lv_style_value_t v = lv_obj_get_style_prop(obj, part, LV_STYLE_TRANSFORM_HEIGHT);
  85:Lib/lvgl/src/widgets/switch/../../core/lv_obj_style_gen.h ****     return (int32_t)v.num;
  86:Lib/lvgl/src/widgets/switch/../../core/lv_obj_style_gen.h **** }
  87:Lib/lvgl/src/widgets/switch/../../core/lv_obj_style_gen.h **** 
  88:Lib/lvgl/src/widgets/switch/../../core/lv_obj_style_gen.h **** static inline int32_t lv_obj_get_style_translate_x(const lv_obj_t * obj, uint32_t part)
  89:Lib/lvgl/src/widgets/switch/../../core/lv_obj_style_gen.h **** {
  90:Lib/lvgl/src/widgets/switch/../../core/lv_obj_style_gen.h ****     lv_style_value_t v = lv_obj_get_style_prop(obj, part, LV_STYLE_TRANSLATE_X);
  91:Lib/lvgl/src/widgets/switch/../../core/lv_obj_style_gen.h ****     return (int32_t)v.num;
  92:Lib/lvgl/src/widgets/switch/../../core/lv_obj_style_gen.h **** }
  93:Lib/lvgl/src/widgets/switch/../../core/lv_obj_style_gen.h **** 
  94:Lib/lvgl/src/widgets/switch/../../core/lv_obj_style_gen.h **** static inline int32_t lv_obj_get_style_translate_y(const lv_obj_t * obj, uint32_t part)
  95:Lib/lvgl/src/widgets/switch/../../core/lv_obj_style_gen.h **** {
  96:Lib/lvgl/src/widgets/switch/../../core/lv_obj_style_gen.h ****     lv_style_value_t v = lv_obj_get_style_prop(obj, part, LV_STYLE_TRANSLATE_Y);
  97:Lib/lvgl/src/widgets/switch/../../core/lv_obj_style_gen.h ****     return (int32_t)v.num;
  98:Lib/lvgl/src/widgets/switch/../../core/lv_obj_style_gen.h **** }
  99:Lib/lvgl/src/widgets/switch/../../core/lv_obj_style_gen.h **** 
 100:Lib/lvgl/src/widgets/switch/../../core/lv_obj_style_gen.h **** static inline int32_t lv_obj_get_style_transform_scale_x(const lv_obj_t * obj, uint32_t part)
 101:Lib/lvgl/src/widgets/switch/../../core/lv_obj_style_gen.h **** {
 102:Lib/lvgl/src/widgets/switch/../../core/lv_obj_style_gen.h ****     lv_style_value_t v = lv_obj_get_style_prop(obj, part, LV_STYLE_TRANSFORM_SCALE_X);
 103:Lib/lvgl/src/widgets/switch/../../core/lv_obj_style_gen.h ****     return (int32_t)v.num;
 104:Lib/lvgl/src/widgets/switch/../../core/lv_obj_style_gen.h **** }
 105:Lib/lvgl/src/widgets/switch/../../core/lv_obj_style_gen.h **** 
 106:Lib/lvgl/src/widgets/switch/../../core/lv_obj_style_gen.h **** static inline int32_t lv_obj_get_style_transform_scale_y(const lv_obj_t * obj, uint32_t part)
 107:Lib/lvgl/src/widgets/switch/../../core/lv_obj_style_gen.h **** {
 108:Lib/lvgl/src/widgets/switch/../../core/lv_obj_style_gen.h ****     lv_style_value_t v = lv_obj_get_style_prop(obj, part, LV_STYLE_TRANSFORM_SCALE_Y);
 109:Lib/lvgl/src/widgets/switch/../../core/lv_obj_style_gen.h ****     return (int32_t)v.num;
 110:Lib/lvgl/src/widgets/switch/../../core/lv_obj_style_gen.h **** }
 111:Lib/lvgl/src/widgets/switch/../../core/lv_obj_style_gen.h **** 
 112:Lib/lvgl/src/widgets/switch/../../core/lv_obj_style_gen.h **** static inline int32_t lv_obj_get_style_transform_rotation(const lv_obj_t * obj, uint32_t part)
 113:Lib/lvgl/src/widgets/switch/../../core/lv_obj_style_gen.h **** {
 114:Lib/lvgl/src/widgets/switch/../../core/lv_obj_style_gen.h ****     lv_style_value_t v = lv_obj_get_style_prop(obj, part, LV_STYLE_TRANSFORM_ROTATION);
 115:Lib/lvgl/src/widgets/switch/../../core/lv_obj_style_gen.h ****     return (int32_t)v.num;
 116:Lib/lvgl/src/widgets/switch/../../core/lv_obj_style_gen.h **** }
 117:Lib/lvgl/src/widgets/switch/../../core/lv_obj_style_gen.h **** 
 118:Lib/lvgl/src/widgets/switch/../../core/lv_obj_style_gen.h **** static inline int32_t lv_obj_get_style_transform_pivot_x(const lv_obj_t * obj, uint32_t part)
 119:Lib/lvgl/src/widgets/switch/../../core/lv_obj_style_gen.h **** {
 120:Lib/lvgl/src/widgets/switch/../../core/lv_obj_style_gen.h ****     lv_style_value_t v = lv_obj_get_style_prop(obj, part, LV_STYLE_TRANSFORM_PIVOT_X);
ARM GAS  C:\Users\Alex\AppData\Local\Temp\ccEKNduN.s 			page 10


 121:Lib/lvgl/src/widgets/switch/../../core/lv_obj_style_gen.h ****     return (int32_t)v.num;
 122:Lib/lvgl/src/widgets/switch/../../core/lv_obj_style_gen.h **** }
 123:Lib/lvgl/src/widgets/switch/../../core/lv_obj_style_gen.h **** 
 124:Lib/lvgl/src/widgets/switch/../../core/lv_obj_style_gen.h **** static inline int32_t lv_obj_get_style_transform_pivot_y(const lv_obj_t * obj, uint32_t part)
 125:Lib/lvgl/src/widgets/switch/../../core/lv_obj_style_gen.h **** {
 126:Lib/lvgl/src/widgets/switch/../../core/lv_obj_style_gen.h ****     lv_style_value_t v = lv_obj_get_style_prop(obj, part, LV_STYLE_TRANSFORM_PIVOT_Y);
 127:Lib/lvgl/src/widgets/switch/../../core/lv_obj_style_gen.h ****     return (int32_t)v.num;
 128:Lib/lvgl/src/widgets/switch/../../core/lv_obj_style_gen.h **** }
 129:Lib/lvgl/src/widgets/switch/../../core/lv_obj_style_gen.h **** 
 130:Lib/lvgl/src/widgets/switch/../../core/lv_obj_style_gen.h **** static inline int32_t lv_obj_get_style_transform_skew_x(const lv_obj_t * obj, uint32_t part)
 131:Lib/lvgl/src/widgets/switch/../../core/lv_obj_style_gen.h **** {
 132:Lib/lvgl/src/widgets/switch/../../core/lv_obj_style_gen.h ****     lv_style_value_t v = lv_obj_get_style_prop(obj, part, LV_STYLE_TRANSFORM_SKEW_X);
 133:Lib/lvgl/src/widgets/switch/../../core/lv_obj_style_gen.h ****     return (int32_t)v.num;
 134:Lib/lvgl/src/widgets/switch/../../core/lv_obj_style_gen.h **** }
 135:Lib/lvgl/src/widgets/switch/../../core/lv_obj_style_gen.h **** 
 136:Lib/lvgl/src/widgets/switch/../../core/lv_obj_style_gen.h **** static inline int32_t lv_obj_get_style_transform_skew_y(const lv_obj_t * obj, uint32_t part)
 137:Lib/lvgl/src/widgets/switch/../../core/lv_obj_style_gen.h **** {
 138:Lib/lvgl/src/widgets/switch/../../core/lv_obj_style_gen.h ****     lv_style_value_t v = lv_obj_get_style_prop(obj, part, LV_STYLE_TRANSFORM_SKEW_Y);
 139:Lib/lvgl/src/widgets/switch/../../core/lv_obj_style_gen.h ****     return (int32_t)v.num;
 140:Lib/lvgl/src/widgets/switch/../../core/lv_obj_style_gen.h **** }
 141:Lib/lvgl/src/widgets/switch/../../core/lv_obj_style_gen.h **** 
 142:Lib/lvgl/src/widgets/switch/../../core/lv_obj_style_gen.h **** static inline int32_t lv_obj_get_style_pad_top(const lv_obj_t * obj, uint32_t part)
 143:Lib/lvgl/src/widgets/switch/../../core/lv_obj_style_gen.h **** {
 144:Lib/lvgl/src/widgets/switch/../../core/lv_obj_style_gen.h ****     lv_style_value_t v = lv_obj_get_style_prop(obj, part, LV_STYLE_PAD_TOP);
 145:Lib/lvgl/src/widgets/switch/../../core/lv_obj_style_gen.h ****     return (int32_t)v.num;
 146:Lib/lvgl/src/widgets/switch/../../core/lv_obj_style_gen.h **** }
 147:Lib/lvgl/src/widgets/switch/../../core/lv_obj_style_gen.h **** 
 148:Lib/lvgl/src/widgets/switch/../../core/lv_obj_style_gen.h **** static inline int32_t lv_obj_get_style_pad_bottom(const lv_obj_t * obj, uint32_t part)
 149:Lib/lvgl/src/widgets/switch/../../core/lv_obj_style_gen.h **** {
 150:Lib/lvgl/src/widgets/switch/../../core/lv_obj_style_gen.h ****     lv_style_value_t v = lv_obj_get_style_prop(obj, part, LV_STYLE_PAD_BOTTOM);
 151:Lib/lvgl/src/widgets/switch/../../core/lv_obj_style_gen.h ****     return (int32_t)v.num;
 152:Lib/lvgl/src/widgets/switch/../../core/lv_obj_style_gen.h **** }
 153:Lib/lvgl/src/widgets/switch/../../core/lv_obj_style_gen.h **** 
 154:Lib/lvgl/src/widgets/switch/../../core/lv_obj_style_gen.h **** static inline int32_t lv_obj_get_style_pad_left(const lv_obj_t * obj, uint32_t part)
 155:Lib/lvgl/src/widgets/switch/../../core/lv_obj_style_gen.h **** {
 156:Lib/lvgl/src/widgets/switch/../../core/lv_obj_style_gen.h ****     lv_style_value_t v = lv_obj_get_style_prop(obj, part, LV_STYLE_PAD_LEFT);
 157:Lib/lvgl/src/widgets/switch/../../core/lv_obj_style_gen.h ****     return (int32_t)v.num;
 158:Lib/lvgl/src/widgets/switch/../../core/lv_obj_style_gen.h **** }
 159:Lib/lvgl/src/widgets/switch/../../core/lv_obj_style_gen.h **** 
 160:Lib/lvgl/src/widgets/switch/../../core/lv_obj_style_gen.h **** static inline int32_t lv_obj_get_style_pad_right(const lv_obj_t * obj, uint32_t part)
 161:Lib/lvgl/src/widgets/switch/../../core/lv_obj_style_gen.h **** {
 162:Lib/lvgl/src/widgets/switch/../../core/lv_obj_style_gen.h ****     lv_style_value_t v = lv_obj_get_style_prop(obj, part, LV_STYLE_PAD_RIGHT);
 163:Lib/lvgl/src/widgets/switch/../../core/lv_obj_style_gen.h ****     return (int32_t)v.num;
 164:Lib/lvgl/src/widgets/switch/../../core/lv_obj_style_gen.h **** }
 165:Lib/lvgl/src/widgets/switch/../../core/lv_obj_style_gen.h **** 
 166:Lib/lvgl/src/widgets/switch/../../core/lv_obj_style_gen.h **** static inline int32_t lv_obj_get_style_pad_row(const lv_obj_t * obj, uint32_t part)
 167:Lib/lvgl/src/widgets/switch/../../core/lv_obj_style_gen.h **** {
 168:Lib/lvgl/src/widgets/switch/../../core/lv_obj_style_gen.h ****     lv_style_value_t v = lv_obj_get_style_prop(obj, part, LV_STYLE_PAD_ROW);
 169:Lib/lvgl/src/widgets/switch/../../core/lv_obj_style_gen.h ****     return (int32_t)v.num;
 170:Lib/lvgl/src/widgets/switch/../../core/lv_obj_style_gen.h **** }
 171:Lib/lvgl/src/widgets/switch/../../core/lv_obj_style_gen.h **** 
 172:Lib/lvgl/src/widgets/switch/../../core/lv_obj_style_gen.h **** static inline int32_t lv_obj_get_style_pad_column(const lv_obj_t * obj, uint32_t part)
 173:Lib/lvgl/src/widgets/switch/../../core/lv_obj_style_gen.h **** {
 174:Lib/lvgl/src/widgets/switch/../../core/lv_obj_style_gen.h ****     lv_style_value_t v = lv_obj_get_style_prop(obj, part, LV_STYLE_PAD_COLUMN);
 175:Lib/lvgl/src/widgets/switch/../../core/lv_obj_style_gen.h ****     return (int32_t)v.num;
 176:Lib/lvgl/src/widgets/switch/../../core/lv_obj_style_gen.h **** }
 177:Lib/lvgl/src/widgets/switch/../../core/lv_obj_style_gen.h **** 
ARM GAS  C:\Users\Alex\AppData\Local\Temp\ccEKNduN.s 			page 11


 178:Lib/lvgl/src/widgets/switch/../../core/lv_obj_style_gen.h **** static inline int32_t lv_obj_get_style_margin_top(const lv_obj_t * obj, uint32_t part)
 179:Lib/lvgl/src/widgets/switch/../../core/lv_obj_style_gen.h **** {
 180:Lib/lvgl/src/widgets/switch/../../core/lv_obj_style_gen.h ****     lv_style_value_t v = lv_obj_get_style_prop(obj, part, LV_STYLE_MARGIN_TOP);
 181:Lib/lvgl/src/widgets/switch/../../core/lv_obj_style_gen.h ****     return (int32_t)v.num;
 182:Lib/lvgl/src/widgets/switch/../../core/lv_obj_style_gen.h **** }
 183:Lib/lvgl/src/widgets/switch/../../core/lv_obj_style_gen.h **** 
 184:Lib/lvgl/src/widgets/switch/../../core/lv_obj_style_gen.h **** static inline int32_t lv_obj_get_style_margin_bottom(const lv_obj_t * obj, uint32_t part)
 185:Lib/lvgl/src/widgets/switch/../../core/lv_obj_style_gen.h **** {
 186:Lib/lvgl/src/widgets/switch/../../core/lv_obj_style_gen.h ****     lv_style_value_t v = lv_obj_get_style_prop(obj, part, LV_STYLE_MARGIN_BOTTOM);
 187:Lib/lvgl/src/widgets/switch/../../core/lv_obj_style_gen.h ****     return (int32_t)v.num;
 188:Lib/lvgl/src/widgets/switch/../../core/lv_obj_style_gen.h **** }
 189:Lib/lvgl/src/widgets/switch/../../core/lv_obj_style_gen.h **** 
 190:Lib/lvgl/src/widgets/switch/../../core/lv_obj_style_gen.h **** static inline int32_t lv_obj_get_style_margin_left(const lv_obj_t * obj, uint32_t part)
 191:Lib/lvgl/src/widgets/switch/../../core/lv_obj_style_gen.h **** {
 192:Lib/lvgl/src/widgets/switch/../../core/lv_obj_style_gen.h ****     lv_style_value_t v = lv_obj_get_style_prop(obj, part, LV_STYLE_MARGIN_LEFT);
 193:Lib/lvgl/src/widgets/switch/../../core/lv_obj_style_gen.h ****     return (int32_t)v.num;
 194:Lib/lvgl/src/widgets/switch/../../core/lv_obj_style_gen.h **** }
 195:Lib/lvgl/src/widgets/switch/../../core/lv_obj_style_gen.h **** 
 196:Lib/lvgl/src/widgets/switch/../../core/lv_obj_style_gen.h **** static inline int32_t lv_obj_get_style_margin_right(const lv_obj_t * obj, uint32_t part)
 197:Lib/lvgl/src/widgets/switch/../../core/lv_obj_style_gen.h **** {
 198:Lib/lvgl/src/widgets/switch/../../core/lv_obj_style_gen.h ****     lv_style_value_t v = lv_obj_get_style_prop(obj, part, LV_STYLE_MARGIN_RIGHT);
 199:Lib/lvgl/src/widgets/switch/../../core/lv_obj_style_gen.h ****     return (int32_t)v.num;
 200:Lib/lvgl/src/widgets/switch/../../core/lv_obj_style_gen.h **** }
 201:Lib/lvgl/src/widgets/switch/../../core/lv_obj_style_gen.h **** 
 202:Lib/lvgl/src/widgets/switch/../../core/lv_obj_style_gen.h **** static inline lv_color_t lv_obj_get_style_bg_color(const lv_obj_t * obj, uint32_t part)
 203:Lib/lvgl/src/widgets/switch/../../core/lv_obj_style_gen.h **** {
 204:Lib/lvgl/src/widgets/switch/../../core/lv_obj_style_gen.h ****     lv_style_value_t v = lv_obj_get_style_prop(obj, part, LV_STYLE_BG_COLOR);
 205:Lib/lvgl/src/widgets/switch/../../core/lv_obj_style_gen.h ****     return v.color;
 206:Lib/lvgl/src/widgets/switch/../../core/lv_obj_style_gen.h **** }
 207:Lib/lvgl/src/widgets/switch/../../core/lv_obj_style_gen.h **** 
 208:Lib/lvgl/src/widgets/switch/../../core/lv_obj_style_gen.h **** static inline lv_color_t lv_obj_get_style_bg_color_filtered(const lv_obj_t * obj, uint32_t part)
 209:Lib/lvgl/src/widgets/switch/../../core/lv_obj_style_gen.h **** {
 210:Lib/lvgl/src/widgets/switch/../../core/lv_obj_style_gen.h ****     lv_style_value_t v = _lv_obj_style_apply_color_filter(obj, part, lv_obj_get_style_prop(obj, par
 211:Lib/lvgl/src/widgets/switch/../../core/lv_obj_style_gen.h ****     return v.color;
 212:Lib/lvgl/src/widgets/switch/../../core/lv_obj_style_gen.h **** }
 213:Lib/lvgl/src/widgets/switch/../../core/lv_obj_style_gen.h **** 
 214:Lib/lvgl/src/widgets/switch/../../core/lv_obj_style_gen.h **** static inline lv_opa_t lv_obj_get_style_bg_opa(const lv_obj_t * obj, uint32_t part)
 215:Lib/lvgl/src/widgets/switch/../../core/lv_obj_style_gen.h **** {
 216:Lib/lvgl/src/widgets/switch/../../core/lv_obj_style_gen.h ****     lv_style_value_t v = lv_obj_get_style_prop(obj, part, LV_STYLE_BG_OPA);
 217:Lib/lvgl/src/widgets/switch/../../core/lv_obj_style_gen.h ****     return (lv_opa_t)v.num;
 218:Lib/lvgl/src/widgets/switch/../../core/lv_obj_style_gen.h **** }
 219:Lib/lvgl/src/widgets/switch/../../core/lv_obj_style_gen.h **** 
 220:Lib/lvgl/src/widgets/switch/../../core/lv_obj_style_gen.h **** static inline lv_color_t lv_obj_get_style_bg_grad_color(const lv_obj_t * obj, uint32_t part)
 221:Lib/lvgl/src/widgets/switch/../../core/lv_obj_style_gen.h **** {
 222:Lib/lvgl/src/widgets/switch/../../core/lv_obj_style_gen.h ****     lv_style_value_t v = lv_obj_get_style_prop(obj, part, LV_STYLE_BG_GRAD_COLOR);
 223:Lib/lvgl/src/widgets/switch/../../core/lv_obj_style_gen.h ****     return v.color;
 224:Lib/lvgl/src/widgets/switch/../../core/lv_obj_style_gen.h **** }
 225:Lib/lvgl/src/widgets/switch/../../core/lv_obj_style_gen.h **** 
 226:Lib/lvgl/src/widgets/switch/../../core/lv_obj_style_gen.h **** static inline lv_color_t lv_obj_get_style_bg_grad_color_filtered(const lv_obj_t * obj, uint32_t par
 227:Lib/lvgl/src/widgets/switch/../../core/lv_obj_style_gen.h **** {
 228:Lib/lvgl/src/widgets/switch/../../core/lv_obj_style_gen.h ****     lv_style_value_t v = _lv_obj_style_apply_color_filter(obj, part, lv_obj_get_style_prop(obj, par
 229:Lib/lvgl/src/widgets/switch/../../core/lv_obj_style_gen.h ****                                                                                            LV_STYLE
 230:Lib/lvgl/src/widgets/switch/../../core/lv_obj_style_gen.h ****     return v.color;
 231:Lib/lvgl/src/widgets/switch/../../core/lv_obj_style_gen.h **** }
 232:Lib/lvgl/src/widgets/switch/../../core/lv_obj_style_gen.h **** 
 233:Lib/lvgl/src/widgets/switch/../../core/lv_obj_style_gen.h **** static inline lv_grad_dir_t lv_obj_get_style_bg_grad_dir(const lv_obj_t * obj, uint32_t part)
 234:Lib/lvgl/src/widgets/switch/../../core/lv_obj_style_gen.h **** {
ARM GAS  C:\Users\Alex\AppData\Local\Temp\ccEKNduN.s 			page 12


 235:Lib/lvgl/src/widgets/switch/../../core/lv_obj_style_gen.h ****     lv_style_value_t v = lv_obj_get_style_prop(obj, part, LV_STYLE_BG_GRAD_DIR);
 236:Lib/lvgl/src/widgets/switch/../../core/lv_obj_style_gen.h ****     return (lv_grad_dir_t)v.num;
 237:Lib/lvgl/src/widgets/switch/../../core/lv_obj_style_gen.h **** }
 238:Lib/lvgl/src/widgets/switch/../../core/lv_obj_style_gen.h **** 
 239:Lib/lvgl/src/widgets/switch/../../core/lv_obj_style_gen.h **** static inline int32_t lv_obj_get_style_bg_main_stop(const lv_obj_t * obj, uint32_t part)
 240:Lib/lvgl/src/widgets/switch/../../core/lv_obj_style_gen.h **** {
 241:Lib/lvgl/src/widgets/switch/../../core/lv_obj_style_gen.h ****     lv_style_value_t v = lv_obj_get_style_prop(obj, part, LV_STYLE_BG_MAIN_STOP);
 242:Lib/lvgl/src/widgets/switch/../../core/lv_obj_style_gen.h ****     return (int32_t)v.num;
 243:Lib/lvgl/src/widgets/switch/../../core/lv_obj_style_gen.h **** }
 244:Lib/lvgl/src/widgets/switch/../../core/lv_obj_style_gen.h **** 
 245:Lib/lvgl/src/widgets/switch/../../core/lv_obj_style_gen.h **** static inline int32_t lv_obj_get_style_bg_grad_stop(const lv_obj_t * obj, uint32_t part)
 246:Lib/lvgl/src/widgets/switch/../../core/lv_obj_style_gen.h **** {
 247:Lib/lvgl/src/widgets/switch/../../core/lv_obj_style_gen.h ****     lv_style_value_t v = lv_obj_get_style_prop(obj, part, LV_STYLE_BG_GRAD_STOP);
 248:Lib/lvgl/src/widgets/switch/../../core/lv_obj_style_gen.h ****     return (int32_t)v.num;
 249:Lib/lvgl/src/widgets/switch/../../core/lv_obj_style_gen.h **** }
 250:Lib/lvgl/src/widgets/switch/../../core/lv_obj_style_gen.h **** 
 251:Lib/lvgl/src/widgets/switch/../../core/lv_obj_style_gen.h **** static inline lv_opa_t lv_obj_get_style_bg_main_opa(const lv_obj_t * obj, uint32_t part)
 252:Lib/lvgl/src/widgets/switch/../../core/lv_obj_style_gen.h **** {
 253:Lib/lvgl/src/widgets/switch/../../core/lv_obj_style_gen.h ****     lv_style_value_t v = lv_obj_get_style_prop(obj, part, LV_STYLE_BG_MAIN_OPA);
 254:Lib/lvgl/src/widgets/switch/../../core/lv_obj_style_gen.h ****     return (lv_opa_t)v.num;
 255:Lib/lvgl/src/widgets/switch/../../core/lv_obj_style_gen.h **** }
 256:Lib/lvgl/src/widgets/switch/../../core/lv_obj_style_gen.h **** 
 257:Lib/lvgl/src/widgets/switch/../../core/lv_obj_style_gen.h **** static inline lv_opa_t lv_obj_get_style_bg_grad_opa(const lv_obj_t * obj, uint32_t part)
 258:Lib/lvgl/src/widgets/switch/../../core/lv_obj_style_gen.h **** {
 259:Lib/lvgl/src/widgets/switch/../../core/lv_obj_style_gen.h ****     lv_style_value_t v = lv_obj_get_style_prop(obj, part, LV_STYLE_BG_GRAD_OPA);
 260:Lib/lvgl/src/widgets/switch/../../core/lv_obj_style_gen.h ****     return (lv_opa_t)v.num;
 261:Lib/lvgl/src/widgets/switch/../../core/lv_obj_style_gen.h **** }
 262:Lib/lvgl/src/widgets/switch/../../core/lv_obj_style_gen.h **** 
 263:Lib/lvgl/src/widgets/switch/../../core/lv_obj_style_gen.h **** static inline const lv_grad_dsc_t * lv_obj_get_style_bg_grad(const lv_obj_t * obj, uint32_t part)
 264:Lib/lvgl/src/widgets/switch/../../core/lv_obj_style_gen.h **** {
 265:Lib/lvgl/src/widgets/switch/../../core/lv_obj_style_gen.h ****     lv_style_value_t v = lv_obj_get_style_prop(obj, part, LV_STYLE_BG_GRAD);
 266:Lib/lvgl/src/widgets/switch/../../core/lv_obj_style_gen.h ****     return (const lv_grad_dsc_t *)v.ptr;
 267:Lib/lvgl/src/widgets/switch/../../core/lv_obj_style_gen.h **** }
 268:Lib/lvgl/src/widgets/switch/../../core/lv_obj_style_gen.h **** 
 269:Lib/lvgl/src/widgets/switch/../../core/lv_obj_style_gen.h **** static inline const void * lv_obj_get_style_bg_image_src(const lv_obj_t * obj, uint32_t part)
 270:Lib/lvgl/src/widgets/switch/../../core/lv_obj_style_gen.h **** {
 271:Lib/lvgl/src/widgets/switch/../../core/lv_obj_style_gen.h ****     lv_style_value_t v = lv_obj_get_style_prop(obj, part, LV_STYLE_BG_IMAGE_SRC);
 272:Lib/lvgl/src/widgets/switch/../../core/lv_obj_style_gen.h ****     return (const void *)v.ptr;
 273:Lib/lvgl/src/widgets/switch/../../core/lv_obj_style_gen.h **** }
 274:Lib/lvgl/src/widgets/switch/../../core/lv_obj_style_gen.h **** 
 275:Lib/lvgl/src/widgets/switch/../../core/lv_obj_style_gen.h **** static inline lv_opa_t lv_obj_get_style_bg_image_opa(const lv_obj_t * obj, uint32_t part)
 276:Lib/lvgl/src/widgets/switch/../../core/lv_obj_style_gen.h **** {
 277:Lib/lvgl/src/widgets/switch/../../core/lv_obj_style_gen.h ****     lv_style_value_t v = lv_obj_get_style_prop(obj, part, LV_STYLE_BG_IMAGE_OPA);
 278:Lib/lvgl/src/widgets/switch/../../core/lv_obj_style_gen.h ****     return (lv_opa_t)v.num;
 279:Lib/lvgl/src/widgets/switch/../../core/lv_obj_style_gen.h **** }
 280:Lib/lvgl/src/widgets/switch/../../core/lv_obj_style_gen.h **** 
 281:Lib/lvgl/src/widgets/switch/../../core/lv_obj_style_gen.h **** static inline lv_color_t lv_obj_get_style_bg_image_recolor(const lv_obj_t * obj, uint32_t part)
 282:Lib/lvgl/src/widgets/switch/../../core/lv_obj_style_gen.h **** {
 283:Lib/lvgl/src/widgets/switch/../../core/lv_obj_style_gen.h ****     lv_style_value_t v = lv_obj_get_style_prop(obj, part, LV_STYLE_BG_IMAGE_RECOLOR);
 284:Lib/lvgl/src/widgets/switch/../../core/lv_obj_style_gen.h ****     return v.color;
 285:Lib/lvgl/src/widgets/switch/../../core/lv_obj_style_gen.h **** }
 286:Lib/lvgl/src/widgets/switch/../../core/lv_obj_style_gen.h **** 
 287:Lib/lvgl/src/widgets/switch/../../core/lv_obj_style_gen.h **** static inline lv_color_t lv_obj_get_style_bg_image_recolor_filtered(const lv_obj_t * obj, uint32_t 
 288:Lib/lvgl/src/widgets/switch/../../core/lv_obj_style_gen.h **** {
 289:Lib/lvgl/src/widgets/switch/../../core/lv_obj_style_gen.h ****     lv_style_value_t v = _lv_obj_style_apply_color_filter(obj, part, lv_obj_get_style_prop(obj, par
 290:Lib/lvgl/src/widgets/switch/../../core/lv_obj_style_gen.h ****                                                                                            LV_STYLE
 291:Lib/lvgl/src/widgets/switch/../../core/lv_obj_style_gen.h ****     return v.color;
ARM GAS  C:\Users\Alex\AppData\Local\Temp\ccEKNduN.s 			page 13


 292:Lib/lvgl/src/widgets/switch/../../core/lv_obj_style_gen.h **** }
 293:Lib/lvgl/src/widgets/switch/../../core/lv_obj_style_gen.h **** 
 294:Lib/lvgl/src/widgets/switch/../../core/lv_obj_style_gen.h **** static inline lv_opa_t lv_obj_get_style_bg_image_recolor_opa(const lv_obj_t * obj, uint32_t part)
 295:Lib/lvgl/src/widgets/switch/../../core/lv_obj_style_gen.h **** {
 296:Lib/lvgl/src/widgets/switch/../../core/lv_obj_style_gen.h ****     lv_style_value_t v = lv_obj_get_style_prop(obj, part, LV_STYLE_BG_IMAGE_RECOLOR_OPA);
 297:Lib/lvgl/src/widgets/switch/../../core/lv_obj_style_gen.h ****     return (lv_opa_t)v.num;
 298:Lib/lvgl/src/widgets/switch/../../core/lv_obj_style_gen.h **** }
 299:Lib/lvgl/src/widgets/switch/../../core/lv_obj_style_gen.h **** 
 300:Lib/lvgl/src/widgets/switch/../../core/lv_obj_style_gen.h **** static inline bool lv_obj_get_style_bg_image_tiled(const lv_obj_t * obj, uint32_t part)
 301:Lib/lvgl/src/widgets/switch/../../core/lv_obj_style_gen.h **** {
 302:Lib/lvgl/src/widgets/switch/../../core/lv_obj_style_gen.h ****     lv_style_value_t v = lv_obj_get_style_prop(obj, part, LV_STYLE_BG_IMAGE_TILED);
 303:Lib/lvgl/src/widgets/switch/../../core/lv_obj_style_gen.h ****     return (bool)v.num;
 304:Lib/lvgl/src/widgets/switch/../../core/lv_obj_style_gen.h **** }
 305:Lib/lvgl/src/widgets/switch/../../core/lv_obj_style_gen.h **** 
 306:Lib/lvgl/src/widgets/switch/../../core/lv_obj_style_gen.h **** static inline lv_color_t lv_obj_get_style_border_color(const lv_obj_t * obj, uint32_t part)
 307:Lib/lvgl/src/widgets/switch/../../core/lv_obj_style_gen.h **** {
 308:Lib/lvgl/src/widgets/switch/../../core/lv_obj_style_gen.h ****     lv_style_value_t v = lv_obj_get_style_prop(obj, part, LV_STYLE_BORDER_COLOR);
 309:Lib/lvgl/src/widgets/switch/../../core/lv_obj_style_gen.h ****     return v.color;
 310:Lib/lvgl/src/widgets/switch/../../core/lv_obj_style_gen.h **** }
 311:Lib/lvgl/src/widgets/switch/../../core/lv_obj_style_gen.h **** 
 312:Lib/lvgl/src/widgets/switch/../../core/lv_obj_style_gen.h **** static inline lv_color_t lv_obj_get_style_border_color_filtered(const lv_obj_t * obj, uint32_t part
 313:Lib/lvgl/src/widgets/switch/../../core/lv_obj_style_gen.h **** {
 314:Lib/lvgl/src/widgets/switch/../../core/lv_obj_style_gen.h ****     lv_style_value_t v = _lv_obj_style_apply_color_filter(obj, part, lv_obj_get_style_prop(obj, par
 315:Lib/lvgl/src/widgets/switch/../../core/lv_obj_style_gen.h ****                                                                                            LV_STYLE
 316:Lib/lvgl/src/widgets/switch/../../core/lv_obj_style_gen.h ****     return v.color;
 317:Lib/lvgl/src/widgets/switch/../../core/lv_obj_style_gen.h **** }
 318:Lib/lvgl/src/widgets/switch/../../core/lv_obj_style_gen.h **** 
 319:Lib/lvgl/src/widgets/switch/../../core/lv_obj_style_gen.h **** static inline lv_opa_t lv_obj_get_style_border_opa(const lv_obj_t * obj, uint32_t part)
 320:Lib/lvgl/src/widgets/switch/../../core/lv_obj_style_gen.h **** {
 321:Lib/lvgl/src/widgets/switch/../../core/lv_obj_style_gen.h ****     lv_style_value_t v = lv_obj_get_style_prop(obj, part, LV_STYLE_BORDER_OPA);
 322:Lib/lvgl/src/widgets/switch/../../core/lv_obj_style_gen.h ****     return (lv_opa_t)v.num;
 323:Lib/lvgl/src/widgets/switch/../../core/lv_obj_style_gen.h **** }
 324:Lib/lvgl/src/widgets/switch/../../core/lv_obj_style_gen.h **** 
 325:Lib/lvgl/src/widgets/switch/../../core/lv_obj_style_gen.h **** static inline int32_t lv_obj_get_style_border_width(const lv_obj_t * obj, uint32_t part)
 326:Lib/lvgl/src/widgets/switch/../../core/lv_obj_style_gen.h **** {
 327:Lib/lvgl/src/widgets/switch/../../core/lv_obj_style_gen.h ****     lv_style_value_t v = lv_obj_get_style_prop(obj, part, LV_STYLE_BORDER_WIDTH);
 328:Lib/lvgl/src/widgets/switch/../../core/lv_obj_style_gen.h ****     return (int32_t)v.num;
 329:Lib/lvgl/src/widgets/switch/../../core/lv_obj_style_gen.h **** }
 330:Lib/lvgl/src/widgets/switch/../../core/lv_obj_style_gen.h **** 
 331:Lib/lvgl/src/widgets/switch/../../core/lv_obj_style_gen.h **** static inline lv_border_side_t lv_obj_get_style_border_side(const lv_obj_t * obj, uint32_t part)
 332:Lib/lvgl/src/widgets/switch/../../core/lv_obj_style_gen.h **** {
 333:Lib/lvgl/src/widgets/switch/../../core/lv_obj_style_gen.h ****     lv_style_value_t v = lv_obj_get_style_prop(obj, part, LV_STYLE_BORDER_SIDE);
 334:Lib/lvgl/src/widgets/switch/../../core/lv_obj_style_gen.h ****     return (lv_border_side_t)v.num;
 335:Lib/lvgl/src/widgets/switch/../../core/lv_obj_style_gen.h **** }
 336:Lib/lvgl/src/widgets/switch/../../core/lv_obj_style_gen.h **** 
 337:Lib/lvgl/src/widgets/switch/../../core/lv_obj_style_gen.h **** static inline bool lv_obj_get_style_border_post(const lv_obj_t * obj, uint32_t part)
 338:Lib/lvgl/src/widgets/switch/../../core/lv_obj_style_gen.h **** {
 339:Lib/lvgl/src/widgets/switch/../../core/lv_obj_style_gen.h ****     lv_style_value_t v = lv_obj_get_style_prop(obj, part, LV_STYLE_BORDER_POST);
 340:Lib/lvgl/src/widgets/switch/../../core/lv_obj_style_gen.h ****     return (bool)v.num;
 341:Lib/lvgl/src/widgets/switch/../../core/lv_obj_style_gen.h **** }
 342:Lib/lvgl/src/widgets/switch/../../core/lv_obj_style_gen.h **** 
 343:Lib/lvgl/src/widgets/switch/../../core/lv_obj_style_gen.h **** static inline int32_t lv_obj_get_style_outline_width(const lv_obj_t * obj, uint32_t part)
 344:Lib/lvgl/src/widgets/switch/../../core/lv_obj_style_gen.h **** {
 345:Lib/lvgl/src/widgets/switch/../../core/lv_obj_style_gen.h ****     lv_style_value_t v = lv_obj_get_style_prop(obj, part, LV_STYLE_OUTLINE_WIDTH);
 346:Lib/lvgl/src/widgets/switch/../../core/lv_obj_style_gen.h ****     return (int32_t)v.num;
 347:Lib/lvgl/src/widgets/switch/../../core/lv_obj_style_gen.h **** }
 348:Lib/lvgl/src/widgets/switch/../../core/lv_obj_style_gen.h **** 
ARM GAS  C:\Users\Alex\AppData\Local\Temp\ccEKNduN.s 			page 14


 349:Lib/lvgl/src/widgets/switch/../../core/lv_obj_style_gen.h **** static inline lv_color_t lv_obj_get_style_outline_color(const lv_obj_t * obj, uint32_t part)
 350:Lib/lvgl/src/widgets/switch/../../core/lv_obj_style_gen.h **** {
 351:Lib/lvgl/src/widgets/switch/../../core/lv_obj_style_gen.h ****     lv_style_value_t v = lv_obj_get_style_prop(obj, part, LV_STYLE_OUTLINE_COLOR);
 352:Lib/lvgl/src/widgets/switch/../../core/lv_obj_style_gen.h ****     return v.color;
 353:Lib/lvgl/src/widgets/switch/../../core/lv_obj_style_gen.h **** }
 354:Lib/lvgl/src/widgets/switch/../../core/lv_obj_style_gen.h **** 
 355:Lib/lvgl/src/widgets/switch/../../core/lv_obj_style_gen.h **** static inline lv_color_t lv_obj_get_style_outline_color_filtered(const lv_obj_t * obj, uint32_t par
 356:Lib/lvgl/src/widgets/switch/../../core/lv_obj_style_gen.h **** {
 357:Lib/lvgl/src/widgets/switch/../../core/lv_obj_style_gen.h ****     lv_style_value_t v = _lv_obj_style_apply_color_filter(obj, part, lv_obj_get_style_prop(obj, par
 358:Lib/lvgl/src/widgets/switch/../../core/lv_obj_style_gen.h ****                                                                                            LV_STYLE
 359:Lib/lvgl/src/widgets/switch/../../core/lv_obj_style_gen.h ****     return v.color;
 360:Lib/lvgl/src/widgets/switch/../../core/lv_obj_style_gen.h **** }
 361:Lib/lvgl/src/widgets/switch/../../core/lv_obj_style_gen.h **** 
 362:Lib/lvgl/src/widgets/switch/../../core/lv_obj_style_gen.h **** static inline lv_opa_t lv_obj_get_style_outline_opa(const lv_obj_t * obj, uint32_t part)
 363:Lib/lvgl/src/widgets/switch/../../core/lv_obj_style_gen.h **** {
 364:Lib/lvgl/src/widgets/switch/../../core/lv_obj_style_gen.h ****     lv_style_value_t v = lv_obj_get_style_prop(obj, part, LV_STYLE_OUTLINE_OPA);
 365:Lib/lvgl/src/widgets/switch/../../core/lv_obj_style_gen.h ****     return (lv_opa_t)v.num;
 366:Lib/lvgl/src/widgets/switch/../../core/lv_obj_style_gen.h **** }
 367:Lib/lvgl/src/widgets/switch/../../core/lv_obj_style_gen.h **** 
 368:Lib/lvgl/src/widgets/switch/../../core/lv_obj_style_gen.h **** static inline int32_t lv_obj_get_style_outline_pad(const lv_obj_t * obj, uint32_t part)
 369:Lib/lvgl/src/widgets/switch/../../core/lv_obj_style_gen.h **** {
 370:Lib/lvgl/src/widgets/switch/../../core/lv_obj_style_gen.h ****     lv_style_value_t v = lv_obj_get_style_prop(obj, part, LV_STYLE_OUTLINE_PAD);
 371:Lib/lvgl/src/widgets/switch/../../core/lv_obj_style_gen.h ****     return (int32_t)v.num;
 372:Lib/lvgl/src/widgets/switch/../../core/lv_obj_style_gen.h **** }
 373:Lib/lvgl/src/widgets/switch/../../core/lv_obj_style_gen.h **** 
 374:Lib/lvgl/src/widgets/switch/../../core/lv_obj_style_gen.h **** static inline int32_t lv_obj_get_style_shadow_width(const lv_obj_t * obj, uint32_t part)
 375:Lib/lvgl/src/widgets/switch/../../core/lv_obj_style_gen.h **** {
 376:Lib/lvgl/src/widgets/switch/../../core/lv_obj_style_gen.h ****     lv_style_value_t v = lv_obj_get_style_prop(obj, part, LV_STYLE_SHADOW_WIDTH);
 377:Lib/lvgl/src/widgets/switch/../../core/lv_obj_style_gen.h ****     return (int32_t)v.num;
 378:Lib/lvgl/src/widgets/switch/../../core/lv_obj_style_gen.h **** }
 379:Lib/lvgl/src/widgets/switch/../../core/lv_obj_style_gen.h **** 
 380:Lib/lvgl/src/widgets/switch/../../core/lv_obj_style_gen.h **** static inline int32_t lv_obj_get_style_shadow_offset_x(const lv_obj_t * obj, uint32_t part)
 381:Lib/lvgl/src/widgets/switch/../../core/lv_obj_style_gen.h **** {
 382:Lib/lvgl/src/widgets/switch/../../core/lv_obj_style_gen.h ****     lv_style_value_t v = lv_obj_get_style_prop(obj, part, LV_STYLE_SHADOW_OFFSET_X);
 383:Lib/lvgl/src/widgets/switch/../../core/lv_obj_style_gen.h ****     return (int32_t)v.num;
 384:Lib/lvgl/src/widgets/switch/../../core/lv_obj_style_gen.h **** }
 385:Lib/lvgl/src/widgets/switch/../../core/lv_obj_style_gen.h **** 
 386:Lib/lvgl/src/widgets/switch/../../core/lv_obj_style_gen.h **** static inline int32_t lv_obj_get_style_shadow_offset_y(const lv_obj_t * obj, uint32_t part)
 387:Lib/lvgl/src/widgets/switch/../../core/lv_obj_style_gen.h **** {
 388:Lib/lvgl/src/widgets/switch/../../core/lv_obj_style_gen.h ****     lv_style_value_t v = lv_obj_get_style_prop(obj, part, LV_STYLE_SHADOW_OFFSET_Y);
 389:Lib/lvgl/src/widgets/switch/../../core/lv_obj_style_gen.h ****     return (int32_t)v.num;
 390:Lib/lvgl/src/widgets/switch/../../core/lv_obj_style_gen.h **** }
 391:Lib/lvgl/src/widgets/switch/../../core/lv_obj_style_gen.h **** 
 392:Lib/lvgl/src/widgets/switch/../../core/lv_obj_style_gen.h **** static inline int32_t lv_obj_get_style_shadow_spread(const lv_obj_t * obj, uint32_t part)
 393:Lib/lvgl/src/widgets/switch/../../core/lv_obj_style_gen.h **** {
 394:Lib/lvgl/src/widgets/switch/../../core/lv_obj_style_gen.h ****     lv_style_value_t v = lv_obj_get_style_prop(obj, part, LV_STYLE_SHADOW_SPREAD);
 395:Lib/lvgl/src/widgets/switch/../../core/lv_obj_style_gen.h ****     return (int32_t)v.num;
 396:Lib/lvgl/src/widgets/switch/../../core/lv_obj_style_gen.h **** }
 397:Lib/lvgl/src/widgets/switch/../../core/lv_obj_style_gen.h **** 
 398:Lib/lvgl/src/widgets/switch/../../core/lv_obj_style_gen.h **** static inline lv_color_t lv_obj_get_style_shadow_color(const lv_obj_t * obj, uint32_t part)
 399:Lib/lvgl/src/widgets/switch/../../core/lv_obj_style_gen.h **** {
 400:Lib/lvgl/src/widgets/switch/../../core/lv_obj_style_gen.h ****     lv_style_value_t v = lv_obj_get_style_prop(obj, part, LV_STYLE_SHADOW_COLOR);
 401:Lib/lvgl/src/widgets/switch/../../core/lv_obj_style_gen.h ****     return v.color;
 402:Lib/lvgl/src/widgets/switch/../../core/lv_obj_style_gen.h **** }
 403:Lib/lvgl/src/widgets/switch/../../core/lv_obj_style_gen.h **** 
 404:Lib/lvgl/src/widgets/switch/../../core/lv_obj_style_gen.h **** static inline lv_color_t lv_obj_get_style_shadow_color_filtered(const lv_obj_t * obj, uint32_t part
 405:Lib/lvgl/src/widgets/switch/../../core/lv_obj_style_gen.h **** {
ARM GAS  C:\Users\Alex\AppData\Local\Temp\ccEKNduN.s 			page 15


 406:Lib/lvgl/src/widgets/switch/../../core/lv_obj_style_gen.h ****     lv_style_value_t v = _lv_obj_style_apply_color_filter(obj, part, lv_obj_get_style_prop(obj, par
 407:Lib/lvgl/src/widgets/switch/../../core/lv_obj_style_gen.h ****                                                                                            LV_STYLE
 408:Lib/lvgl/src/widgets/switch/../../core/lv_obj_style_gen.h ****     return v.color;
 409:Lib/lvgl/src/widgets/switch/../../core/lv_obj_style_gen.h **** }
 410:Lib/lvgl/src/widgets/switch/../../core/lv_obj_style_gen.h **** 
 411:Lib/lvgl/src/widgets/switch/../../core/lv_obj_style_gen.h **** static inline lv_opa_t lv_obj_get_style_shadow_opa(const lv_obj_t * obj, uint32_t part)
 412:Lib/lvgl/src/widgets/switch/../../core/lv_obj_style_gen.h **** {
 413:Lib/lvgl/src/widgets/switch/../../core/lv_obj_style_gen.h ****     lv_style_value_t v = lv_obj_get_style_prop(obj, part, LV_STYLE_SHADOW_OPA);
 414:Lib/lvgl/src/widgets/switch/../../core/lv_obj_style_gen.h ****     return (lv_opa_t)v.num;
 415:Lib/lvgl/src/widgets/switch/../../core/lv_obj_style_gen.h **** }
 416:Lib/lvgl/src/widgets/switch/../../core/lv_obj_style_gen.h **** 
 417:Lib/lvgl/src/widgets/switch/../../core/lv_obj_style_gen.h **** static inline lv_opa_t lv_obj_get_style_image_opa(const lv_obj_t * obj, uint32_t part)
 418:Lib/lvgl/src/widgets/switch/../../core/lv_obj_style_gen.h **** {
 419:Lib/lvgl/src/widgets/switch/../../core/lv_obj_style_gen.h ****     lv_style_value_t v = lv_obj_get_style_prop(obj, part, LV_STYLE_IMAGE_OPA);
 420:Lib/lvgl/src/widgets/switch/../../core/lv_obj_style_gen.h ****     return (lv_opa_t)v.num;
 421:Lib/lvgl/src/widgets/switch/../../core/lv_obj_style_gen.h **** }
 422:Lib/lvgl/src/widgets/switch/../../core/lv_obj_style_gen.h **** 
 423:Lib/lvgl/src/widgets/switch/../../core/lv_obj_style_gen.h **** static inline lv_color_t lv_obj_get_style_image_recolor(const lv_obj_t * obj, uint32_t part)
 424:Lib/lvgl/src/widgets/switch/../../core/lv_obj_style_gen.h **** {
 425:Lib/lvgl/src/widgets/switch/../../core/lv_obj_style_gen.h ****     lv_style_value_t v = lv_obj_get_style_prop(obj, part, LV_STYLE_IMAGE_RECOLOR);
 426:Lib/lvgl/src/widgets/switch/../../core/lv_obj_style_gen.h ****     return v.color;
 427:Lib/lvgl/src/widgets/switch/../../core/lv_obj_style_gen.h **** }
 428:Lib/lvgl/src/widgets/switch/../../core/lv_obj_style_gen.h **** 
 429:Lib/lvgl/src/widgets/switch/../../core/lv_obj_style_gen.h **** static inline lv_color_t lv_obj_get_style_image_recolor_filtered(const lv_obj_t * obj, uint32_t par
 430:Lib/lvgl/src/widgets/switch/../../core/lv_obj_style_gen.h **** {
 431:Lib/lvgl/src/widgets/switch/../../core/lv_obj_style_gen.h ****     lv_style_value_t v = _lv_obj_style_apply_color_filter(obj, part, lv_obj_get_style_prop(obj, par
 432:Lib/lvgl/src/widgets/switch/../../core/lv_obj_style_gen.h ****                                                                                            LV_STYLE
 433:Lib/lvgl/src/widgets/switch/../../core/lv_obj_style_gen.h ****     return v.color;
 434:Lib/lvgl/src/widgets/switch/../../core/lv_obj_style_gen.h **** }
 435:Lib/lvgl/src/widgets/switch/../../core/lv_obj_style_gen.h **** 
 436:Lib/lvgl/src/widgets/switch/../../core/lv_obj_style_gen.h **** static inline lv_opa_t lv_obj_get_style_image_recolor_opa(const lv_obj_t * obj, uint32_t part)
 437:Lib/lvgl/src/widgets/switch/../../core/lv_obj_style_gen.h **** {
 438:Lib/lvgl/src/widgets/switch/../../core/lv_obj_style_gen.h ****     lv_style_value_t v = lv_obj_get_style_prop(obj, part, LV_STYLE_IMAGE_RECOLOR_OPA);
 439:Lib/lvgl/src/widgets/switch/../../core/lv_obj_style_gen.h ****     return (lv_opa_t)v.num;
 440:Lib/lvgl/src/widgets/switch/../../core/lv_obj_style_gen.h **** }
 441:Lib/lvgl/src/widgets/switch/../../core/lv_obj_style_gen.h **** 
 442:Lib/lvgl/src/widgets/switch/../../core/lv_obj_style_gen.h **** static inline int32_t lv_obj_get_style_line_width(const lv_obj_t * obj, uint32_t part)
 443:Lib/lvgl/src/widgets/switch/../../core/lv_obj_style_gen.h **** {
 444:Lib/lvgl/src/widgets/switch/../../core/lv_obj_style_gen.h ****     lv_style_value_t v = lv_obj_get_style_prop(obj, part, LV_STYLE_LINE_WIDTH);
 445:Lib/lvgl/src/widgets/switch/../../core/lv_obj_style_gen.h ****     return (int32_t)v.num;
 446:Lib/lvgl/src/widgets/switch/../../core/lv_obj_style_gen.h **** }
 447:Lib/lvgl/src/widgets/switch/../../core/lv_obj_style_gen.h **** 
 448:Lib/lvgl/src/widgets/switch/../../core/lv_obj_style_gen.h **** static inline int32_t lv_obj_get_style_line_dash_width(const lv_obj_t * obj, uint32_t part)
 449:Lib/lvgl/src/widgets/switch/../../core/lv_obj_style_gen.h **** {
 450:Lib/lvgl/src/widgets/switch/../../core/lv_obj_style_gen.h ****     lv_style_value_t v = lv_obj_get_style_prop(obj, part, LV_STYLE_LINE_DASH_WIDTH);
 451:Lib/lvgl/src/widgets/switch/../../core/lv_obj_style_gen.h ****     return (int32_t)v.num;
 452:Lib/lvgl/src/widgets/switch/../../core/lv_obj_style_gen.h **** }
 453:Lib/lvgl/src/widgets/switch/../../core/lv_obj_style_gen.h **** 
 454:Lib/lvgl/src/widgets/switch/../../core/lv_obj_style_gen.h **** static inline int32_t lv_obj_get_style_line_dash_gap(const lv_obj_t * obj, uint32_t part)
 455:Lib/lvgl/src/widgets/switch/../../core/lv_obj_style_gen.h **** {
 456:Lib/lvgl/src/widgets/switch/../../core/lv_obj_style_gen.h ****     lv_style_value_t v = lv_obj_get_style_prop(obj, part, LV_STYLE_LINE_DASH_GAP);
 457:Lib/lvgl/src/widgets/switch/../../core/lv_obj_style_gen.h ****     return (int32_t)v.num;
 458:Lib/lvgl/src/widgets/switch/../../core/lv_obj_style_gen.h **** }
 459:Lib/lvgl/src/widgets/switch/../../core/lv_obj_style_gen.h **** 
 460:Lib/lvgl/src/widgets/switch/../../core/lv_obj_style_gen.h **** static inline bool lv_obj_get_style_line_rounded(const lv_obj_t * obj, uint32_t part)
 461:Lib/lvgl/src/widgets/switch/../../core/lv_obj_style_gen.h **** {
 462:Lib/lvgl/src/widgets/switch/../../core/lv_obj_style_gen.h ****     lv_style_value_t v = lv_obj_get_style_prop(obj, part, LV_STYLE_LINE_ROUNDED);
ARM GAS  C:\Users\Alex\AppData\Local\Temp\ccEKNduN.s 			page 16


 463:Lib/lvgl/src/widgets/switch/../../core/lv_obj_style_gen.h ****     return (bool)v.num;
 464:Lib/lvgl/src/widgets/switch/../../core/lv_obj_style_gen.h **** }
 465:Lib/lvgl/src/widgets/switch/../../core/lv_obj_style_gen.h **** 
 466:Lib/lvgl/src/widgets/switch/../../core/lv_obj_style_gen.h **** static inline lv_color_t lv_obj_get_style_line_color(const lv_obj_t * obj, uint32_t part)
 467:Lib/lvgl/src/widgets/switch/../../core/lv_obj_style_gen.h **** {
 468:Lib/lvgl/src/widgets/switch/../../core/lv_obj_style_gen.h ****     lv_style_value_t v = lv_obj_get_style_prop(obj, part, LV_STYLE_LINE_COLOR);
 469:Lib/lvgl/src/widgets/switch/../../core/lv_obj_style_gen.h ****     return v.color;
 470:Lib/lvgl/src/widgets/switch/../../core/lv_obj_style_gen.h **** }
 471:Lib/lvgl/src/widgets/switch/../../core/lv_obj_style_gen.h **** 
 472:Lib/lvgl/src/widgets/switch/../../core/lv_obj_style_gen.h **** static inline lv_color_t lv_obj_get_style_line_color_filtered(const lv_obj_t * obj, uint32_t part)
 473:Lib/lvgl/src/widgets/switch/../../core/lv_obj_style_gen.h **** {
 474:Lib/lvgl/src/widgets/switch/../../core/lv_obj_style_gen.h ****     lv_style_value_t v = _lv_obj_style_apply_color_filter(obj, part, lv_obj_get_style_prop(obj, par
 475:Lib/lvgl/src/widgets/switch/../../core/lv_obj_style_gen.h ****     return v.color;
 476:Lib/lvgl/src/widgets/switch/../../core/lv_obj_style_gen.h **** }
 477:Lib/lvgl/src/widgets/switch/../../core/lv_obj_style_gen.h **** 
 478:Lib/lvgl/src/widgets/switch/../../core/lv_obj_style_gen.h **** static inline lv_opa_t lv_obj_get_style_line_opa(const lv_obj_t * obj, uint32_t part)
 479:Lib/lvgl/src/widgets/switch/../../core/lv_obj_style_gen.h **** {
 480:Lib/lvgl/src/widgets/switch/../../core/lv_obj_style_gen.h ****     lv_style_value_t v = lv_obj_get_style_prop(obj, part, LV_STYLE_LINE_OPA);
 481:Lib/lvgl/src/widgets/switch/../../core/lv_obj_style_gen.h ****     return (lv_opa_t)v.num;
 482:Lib/lvgl/src/widgets/switch/../../core/lv_obj_style_gen.h **** }
 483:Lib/lvgl/src/widgets/switch/../../core/lv_obj_style_gen.h **** 
 484:Lib/lvgl/src/widgets/switch/../../core/lv_obj_style_gen.h **** static inline int32_t lv_obj_get_style_arc_width(const lv_obj_t * obj, uint32_t part)
 485:Lib/lvgl/src/widgets/switch/../../core/lv_obj_style_gen.h **** {
 486:Lib/lvgl/src/widgets/switch/../../core/lv_obj_style_gen.h ****     lv_style_value_t v = lv_obj_get_style_prop(obj, part, LV_STYLE_ARC_WIDTH);
 487:Lib/lvgl/src/widgets/switch/../../core/lv_obj_style_gen.h ****     return (int32_t)v.num;
 488:Lib/lvgl/src/widgets/switch/../../core/lv_obj_style_gen.h **** }
 489:Lib/lvgl/src/widgets/switch/../../core/lv_obj_style_gen.h **** 
 490:Lib/lvgl/src/widgets/switch/../../core/lv_obj_style_gen.h **** static inline bool lv_obj_get_style_arc_rounded(const lv_obj_t * obj, uint32_t part)
 491:Lib/lvgl/src/widgets/switch/../../core/lv_obj_style_gen.h **** {
 492:Lib/lvgl/src/widgets/switch/../../core/lv_obj_style_gen.h ****     lv_style_value_t v = lv_obj_get_style_prop(obj, part, LV_STYLE_ARC_ROUNDED);
 493:Lib/lvgl/src/widgets/switch/../../core/lv_obj_style_gen.h ****     return (bool)v.num;
 494:Lib/lvgl/src/widgets/switch/../../core/lv_obj_style_gen.h **** }
 495:Lib/lvgl/src/widgets/switch/../../core/lv_obj_style_gen.h **** 
 496:Lib/lvgl/src/widgets/switch/../../core/lv_obj_style_gen.h **** static inline lv_color_t lv_obj_get_style_arc_color(const lv_obj_t * obj, uint32_t part)
 497:Lib/lvgl/src/widgets/switch/../../core/lv_obj_style_gen.h **** {
 498:Lib/lvgl/src/widgets/switch/../../core/lv_obj_style_gen.h ****     lv_style_value_t v = lv_obj_get_style_prop(obj, part, LV_STYLE_ARC_COLOR);
 499:Lib/lvgl/src/widgets/switch/../../core/lv_obj_style_gen.h ****     return v.color;
 500:Lib/lvgl/src/widgets/switch/../../core/lv_obj_style_gen.h **** }
 501:Lib/lvgl/src/widgets/switch/../../core/lv_obj_style_gen.h **** 
 502:Lib/lvgl/src/widgets/switch/../../core/lv_obj_style_gen.h **** static inline lv_color_t lv_obj_get_style_arc_color_filtered(const lv_obj_t * obj, uint32_t part)
 503:Lib/lvgl/src/widgets/switch/../../core/lv_obj_style_gen.h **** {
 504:Lib/lvgl/src/widgets/switch/../../core/lv_obj_style_gen.h ****     lv_style_value_t v = _lv_obj_style_apply_color_filter(obj, part, lv_obj_get_style_prop(obj, par
 505:Lib/lvgl/src/widgets/switch/../../core/lv_obj_style_gen.h ****     return v.color;
 506:Lib/lvgl/src/widgets/switch/../../core/lv_obj_style_gen.h **** }
 507:Lib/lvgl/src/widgets/switch/../../core/lv_obj_style_gen.h **** 
 508:Lib/lvgl/src/widgets/switch/../../core/lv_obj_style_gen.h **** static inline lv_opa_t lv_obj_get_style_arc_opa(const lv_obj_t * obj, uint32_t part)
 509:Lib/lvgl/src/widgets/switch/../../core/lv_obj_style_gen.h **** {
 510:Lib/lvgl/src/widgets/switch/../../core/lv_obj_style_gen.h ****     lv_style_value_t v = lv_obj_get_style_prop(obj, part, LV_STYLE_ARC_OPA);
 511:Lib/lvgl/src/widgets/switch/../../core/lv_obj_style_gen.h ****     return (lv_opa_t)v.num;
 512:Lib/lvgl/src/widgets/switch/../../core/lv_obj_style_gen.h **** }
 513:Lib/lvgl/src/widgets/switch/../../core/lv_obj_style_gen.h **** 
 514:Lib/lvgl/src/widgets/switch/../../core/lv_obj_style_gen.h **** static inline const void * lv_obj_get_style_arc_image_src(const lv_obj_t * obj, uint32_t part)
 515:Lib/lvgl/src/widgets/switch/../../core/lv_obj_style_gen.h **** {
 516:Lib/lvgl/src/widgets/switch/../../core/lv_obj_style_gen.h ****     lv_style_value_t v = lv_obj_get_style_prop(obj, part, LV_STYLE_ARC_IMAGE_SRC);
 517:Lib/lvgl/src/widgets/switch/../../core/lv_obj_style_gen.h ****     return (const void *)v.ptr;
 518:Lib/lvgl/src/widgets/switch/../../core/lv_obj_style_gen.h **** }
 519:Lib/lvgl/src/widgets/switch/../../core/lv_obj_style_gen.h **** 
ARM GAS  C:\Users\Alex\AppData\Local\Temp\ccEKNduN.s 			page 17


 520:Lib/lvgl/src/widgets/switch/../../core/lv_obj_style_gen.h **** static inline lv_color_t lv_obj_get_style_text_color(const lv_obj_t * obj, uint32_t part)
 521:Lib/lvgl/src/widgets/switch/../../core/lv_obj_style_gen.h **** {
 522:Lib/lvgl/src/widgets/switch/../../core/lv_obj_style_gen.h ****     lv_style_value_t v = lv_obj_get_style_prop(obj, part, LV_STYLE_TEXT_COLOR);
 523:Lib/lvgl/src/widgets/switch/../../core/lv_obj_style_gen.h ****     return v.color;
 524:Lib/lvgl/src/widgets/switch/../../core/lv_obj_style_gen.h **** }
 525:Lib/lvgl/src/widgets/switch/../../core/lv_obj_style_gen.h **** 
 526:Lib/lvgl/src/widgets/switch/../../core/lv_obj_style_gen.h **** static inline lv_color_t lv_obj_get_style_text_color_filtered(const lv_obj_t * obj, uint32_t part)
 527:Lib/lvgl/src/widgets/switch/../../core/lv_obj_style_gen.h **** {
 528:Lib/lvgl/src/widgets/switch/../../core/lv_obj_style_gen.h ****     lv_style_value_t v = _lv_obj_style_apply_color_filter(obj, part, lv_obj_get_style_prop(obj, par
 529:Lib/lvgl/src/widgets/switch/../../core/lv_obj_style_gen.h ****     return v.color;
 530:Lib/lvgl/src/widgets/switch/../../core/lv_obj_style_gen.h **** }
 531:Lib/lvgl/src/widgets/switch/../../core/lv_obj_style_gen.h **** 
 532:Lib/lvgl/src/widgets/switch/../../core/lv_obj_style_gen.h **** static inline lv_opa_t lv_obj_get_style_text_opa(const lv_obj_t * obj, uint32_t part)
 533:Lib/lvgl/src/widgets/switch/../../core/lv_obj_style_gen.h **** {
 534:Lib/lvgl/src/widgets/switch/../../core/lv_obj_style_gen.h ****     lv_style_value_t v = lv_obj_get_style_prop(obj, part, LV_STYLE_TEXT_OPA);
 535:Lib/lvgl/src/widgets/switch/../../core/lv_obj_style_gen.h ****     return (lv_opa_t)v.num;
 536:Lib/lvgl/src/widgets/switch/../../core/lv_obj_style_gen.h **** }
 537:Lib/lvgl/src/widgets/switch/../../core/lv_obj_style_gen.h **** 
 538:Lib/lvgl/src/widgets/switch/../../core/lv_obj_style_gen.h **** static inline const lv_font_t * lv_obj_get_style_text_font(const lv_obj_t * obj, uint32_t part)
 539:Lib/lvgl/src/widgets/switch/../../core/lv_obj_style_gen.h **** {
 540:Lib/lvgl/src/widgets/switch/../../core/lv_obj_style_gen.h ****     lv_style_value_t v = lv_obj_get_style_prop(obj, part, LV_STYLE_TEXT_FONT);
 541:Lib/lvgl/src/widgets/switch/../../core/lv_obj_style_gen.h ****     return (const lv_font_t *)v.ptr;
 542:Lib/lvgl/src/widgets/switch/../../core/lv_obj_style_gen.h **** }
 543:Lib/lvgl/src/widgets/switch/../../core/lv_obj_style_gen.h **** 
 544:Lib/lvgl/src/widgets/switch/../../core/lv_obj_style_gen.h **** static inline int32_t lv_obj_get_style_text_letter_space(const lv_obj_t * obj, uint32_t part)
 545:Lib/lvgl/src/widgets/switch/../../core/lv_obj_style_gen.h **** {
 546:Lib/lvgl/src/widgets/switch/../../core/lv_obj_style_gen.h ****     lv_style_value_t v = lv_obj_get_style_prop(obj, part, LV_STYLE_TEXT_LETTER_SPACE);
 547:Lib/lvgl/src/widgets/switch/../../core/lv_obj_style_gen.h ****     return (int32_t)v.num;
 548:Lib/lvgl/src/widgets/switch/../../core/lv_obj_style_gen.h **** }
 549:Lib/lvgl/src/widgets/switch/../../core/lv_obj_style_gen.h **** 
 550:Lib/lvgl/src/widgets/switch/../../core/lv_obj_style_gen.h **** static inline int32_t lv_obj_get_style_text_line_space(const lv_obj_t * obj, uint32_t part)
 551:Lib/lvgl/src/widgets/switch/../../core/lv_obj_style_gen.h **** {
 552:Lib/lvgl/src/widgets/switch/../../core/lv_obj_style_gen.h ****     lv_style_value_t v = lv_obj_get_style_prop(obj, part, LV_STYLE_TEXT_LINE_SPACE);
 553:Lib/lvgl/src/widgets/switch/../../core/lv_obj_style_gen.h ****     return (int32_t)v.num;
 554:Lib/lvgl/src/widgets/switch/../../core/lv_obj_style_gen.h **** }
 555:Lib/lvgl/src/widgets/switch/../../core/lv_obj_style_gen.h **** 
 556:Lib/lvgl/src/widgets/switch/../../core/lv_obj_style_gen.h **** static inline lv_text_decor_t lv_obj_get_style_text_decor(const lv_obj_t * obj, uint32_t part)
 557:Lib/lvgl/src/widgets/switch/../../core/lv_obj_style_gen.h **** {
 558:Lib/lvgl/src/widgets/switch/../../core/lv_obj_style_gen.h ****     lv_style_value_t v = lv_obj_get_style_prop(obj, part, LV_STYLE_TEXT_DECOR);
 559:Lib/lvgl/src/widgets/switch/../../core/lv_obj_style_gen.h ****     return (lv_text_decor_t)v.num;
 560:Lib/lvgl/src/widgets/switch/../../core/lv_obj_style_gen.h **** }
 561:Lib/lvgl/src/widgets/switch/../../core/lv_obj_style_gen.h **** 
 562:Lib/lvgl/src/widgets/switch/../../core/lv_obj_style_gen.h **** static inline lv_text_align_t lv_obj_get_style_text_align(const lv_obj_t * obj, uint32_t part)
 563:Lib/lvgl/src/widgets/switch/../../core/lv_obj_style_gen.h **** {
 564:Lib/lvgl/src/widgets/switch/../../core/lv_obj_style_gen.h ****     lv_style_value_t v = lv_obj_get_style_prop(obj, part, LV_STYLE_TEXT_ALIGN);
 565:Lib/lvgl/src/widgets/switch/../../core/lv_obj_style_gen.h ****     return (lv_text_align_t)v.num;
 566:Lib/lvgl/src/widgets/switch/../../core/lv_obj_style_gen.h **** }
 567:Lib/lvgl/src/widgets/switch/../../core/lv_obj_style_gen.h **** 
 568:Lib/lvgl/src/widgets/switch/../../core/lv_obj_style_gen.h **** static inline int32_t lv_obj_get_style_radius(const lv_obj_t * obj, uint32_t part)
 569:Lib/lvgl/src/widgets/switch/../../core/lv_obj_style_gen.h **** {
 570:Lib/lvgl/src/widgets/switch/../../core/lv_obj_style_gen.h ****     lv_style_value_t v = lv_obj_get_style_prop(obj, part, LV_STYLE_RADIUS);
 571:Lib/lvgl/src/widgets/switch/../../core/lv_obj_style_gen.h ****     return (int32_t)v.num;
 572:Lib/lvgl/src/widgets/switch/../../core/lv_obj_style_gen.h **** }
 573:Lib/lvgl/src/widgets/switch/../../core/lv_obj_style_gen.h **** 
 574:Lib/lvgl/src/widgets/switch/../../core/lv_obj_style_gen.h **** static inline bool lv_obj_get_style_clip_corner(const lv_obj_t * obj, uint32_t part)
 575:Lib/lvgl/src/widgets/switch/../../core/lv_obj_style_gen.h **** {
 576:Lib/lvgl/src/widgets/switch/../../core/lv_obj_style_gen.h ****     lv_style_value_t v = lv_obj_get_style_prop(obj, part, LV_STYLE_CLIP_CORNER);
ARM GAS  C:\Users\Alex\AppData\Local\Temp\ccEKNduN.s 			page 18


 577:Lib/lvgl/src/widgets/switch/../../core/lv_obj_style_gen.h ****     return (bool)v.num;
 578:Lib/lvgl/src/widgets/switch/../../core/lv_obj_style_gen.h **** }
 579:Lib/lvgl/src/widgets/switch/../../core/lv_obj_style_gen.h **** 
 580:Lib/lvgl/src/widgets/switch/../../core/lv_obj_style_gen.h **** static inline lv_opa_t lv_obj_get_style_opa(const lv_obj_t * obj, uint32_t part)
 581:Lib/lvgl/src/widgets/switch/../../core/lv_obj_style_gen.h **** {
 582:Lib/lvgl/src/widgets/switch/../../core/lv_obj_style_gen.h ****     lv_style_value_t v = lv_obj_get_style_prop(obj, part, LV_STYLE_OPA);
 583:Lib/lvgl/src/widgets/switch/../../core/lv_obj_style_gen.h ****     return (lv_opa_t)v.num;
 584:Lib/lvgl/src/widgets/switch/../../core/lv_obj_style_gen.h **** }
 585:Lib/lvgl/src/widgets/switch/../../core/lv_obj_style_gen.h **** 
 586:Lib/lvgl/src/widgets/switch/../../core/lv_obj_style_gen.h **** static inline lv_opa_t lv_obj_get_style_opa_layered(const lv_obj_t * obj, uint32_t part)
 587:Lib/lvgl/src/widgets/switch/../../core/lv_obj_style_gen.h **** {
 588:Lib/lvgl/src/widgets/switch/../../core/lv_obj_style_gen.h ****     lv_style_value_t v = lv_obj_get_style_prop(obj, part, LV_STYLE_OPA_LAYERED);
 589:Lib/lvgl/src/widgets/switch/../../core/lv_obj_style_gen.h ****     return (lv_opa_t)v.num;
 590:Lib/lvgl/src/widgets/switch/../../core/lv_obj_style_gen.h **** }
 591:Lib/lvgl/src/widgets/switch/../../core/lv_obj_style_gen.h **** 
 592:Lib/lvgl/src/widgets/switch/../../core/lv_obj_style_gen.h **** static inline const lv_color_filter_dsc_t * lv_obj_get_style_color_filter_dsc(const lv_obj_t * obj,
 593:Lib/lvgl/src/widgets/switch/../../core/lv_obj_style_gen.h **** {
 594:Lib/lvgl/src/widgets/switch/../../core/lv_obj_style_gen.h ****     lv_style_value_t v = lv_obj_get_style_prop(obj, part, LV_STYLE_COLOR_FILTER_DSC);
 595:Lib/lvgl/src/widgets/switch/../../core/lv_obj_style_gen.h ****     return (const lv_color_filter_dsc_t *)v.ptr;
 596:Lib/lvgl/src/widgets/switch/../../core/lv_obj_style_gen.h **** }
 597:Lib/lvgl/src/widgets/switch/../../core/lv_obj_style_gen.h **** 
 598:Lib/lvgl/src/widgets/switch/../../core/lv_obj_style_gen.h **** static inline lv_opa_t lv_obj_get_style_color_filter_opa(const lv_obj_t * obj, uint32_t part)
 599:Lib/lvgl/src/widgets/switch/../../core/lv_obj_style_gen.h **** {
 600:Lib/lvgl/src/widgets/switch/../../core/lv_obj_style_gen.h ****     lv_style_value_t v = lv_obj_get_style_prop(obj, part, LV_STYLE_COLOR_FILTER_OPA);
 601:Lib/lvgl/src/widgets/switch/../../core/lv_obj_style_gen.h ****     return (lv_opa_t)v.num;
 602:Lib/lvgl/src/widgets/switch/../../core/lv_obj_style_gen.h **** }
 603:Lib/lvgl/src/widgets/switch/../../core/lv_obj_style_gen.h **** 
 604:Lib/lvgl/src/widgets/switch/../../core/lv_obj_style_gen.h **** static inline const lv_anim_t * lv_obj_get_style_anim(const lv_obj_t * obj, uint32_t part)
 605:Lib/lvgl/src/widgets/switch/../../core/lv_obj_style_gen.h **** {
 606:Lib/lvgl/src/widgets/switch/../../core/lv_obj_style_gen.h ****     lv_style_value_t v = lv_obj_get_style_prop(obj, part, LV_STYLE_ANIM);
 607:Lib/lvgl/src/widgets/switch/../../core/lv_obj_style_gen.h ****     return (const lv_anim_t *)v.ptr;
 608:Lib/lvgl/src/widgets/switch/../../core/lv_obj_style_gen.h **** }
 609:Lib/lvgl/src/widgets/switch/../../core/lv_obj_style_gen.h **** 
 610:Lib/lvgl/src/widgets/switch/../../core/lv_obj_style_gen.h **** static inline uint32_t lv_obj_get_style_anim_duration(const lv_obj_t * obj, uint32_t part)
 156              		.loc 2 610 24 view .LVU29
 157              	.LBB40:
 611:Lib/lvgl/src/widgets/switch/../../core/lv_obj_style_gen.h **** {
 612:Lib/lvgl/src/widgets/switch/../../core/lv_obj_style_gen.h ****     lv_style_value_t v = lv_obj_get_style_prop(obj, part, LV_STYLE_ANIM_DURATION);
 158              		.loc 2 612 5 view .LVU30
 159              		.loc 2 612 26 is_stmt 0 view .LVU31
 160 0006 6422     		movs	r2, #100
 161 0008 0021     		movs	r1, #0
 162 000a FFF7FEFF 		bl	lv_obj_get_style_prop
 163              	.LVL12:
 164              		.loc 2 612 26 view .LVU32
 165 000e 0090     		str	r0, [sp]
 613:Lib/lvgl/src/widgets/switch/../../core/lv_obj_style_gen.h ****     return (uint32_t)v.num;
 166              		.loc 2 613 5 is_stmt 1 view .LVU33
 167              	.LVL13:
 168              		.loc 2 613 5 is_stmt 0 view .LVU34
 169              	.LBE40:
 170              	.LBE39:
 232:Lib/lvgl/src/widgets/switch/lv_switch.c **** 
 233:Lib/lvgl/src/widgets/switch/lv_switch.c ****     if(anim_dur_full > 0) {
 171              		.loc 1 233 5 is_stmt 1 view .LVU35
 172              		.loc 1 233 7 is_stmt 0 view .LVU36
 173 0010 08B9     		cbnz	r0, .L14
ARM GAS  C:\Users\Alex\AppData\Local\Temp\ccEKNduN.s 			page 19


 174              	.LVL14:
 175              	.L7:
 234:Lib/lvgl/src/widgets/switch/lv_switch.c ****         bool chk = lv_obj_get_state(obj) & LV_STATE_CHECKED;
 235:Lib/lvgl/src/widgets/switch/lv_switch.c ****         int32_t anim_start;
 236:Lib/lvgl/src/widgets/switch/lv_switch.c ****         int32_t anim_end;
 237:Lib/lvgl/src/widgets/switch/lv_switch.c ****         /*No animation in progress -> simply set the values*/
 238:Lib/lvgl/src/widgets/switch/lv_switch.c ****         if(sw->anim_state == LV_SWITCH_ANIM_STATE_INV) {
 239:Lib/lvgl/src/widgets/switch/lv_switch.c ****             anim_start = chk ? LV_SWITCH_ANIM_STATE_START : LV_SWITCH_ANIM_STATE_END;
 240:Lib/lvgl/src/widgets/switch/lv_switch.c ****             anim_end   = chk ? LV_SWITCH_ANIM_STATE_END : LV_SWITCH_ANIM_STATE_START;
 241:Lib/lvgl/src/widgets/switch/lv_switch.c ****         }
 242:Lib/lvgl/src/widgets/switch/lv_switch.c ****         /*Animation in progress. Start from the animation end value*/
 243:Lib/lvgl/src/widgets/switch/lv_switch.c ****         else {
 244:Lib/lvgl/src/widgets/switch/lv_switch.c ****             anim_start = sw->anim_state;
 245:Lib/lvgl/src/widgets/switch/lv_switch.c ****             anim_end   = chk ? LV_SWITCH_ANIM_STATE_END : LV_SWITCH_ANIM_STATE_START;
 246:Lib/lvgl/src/widgets/switch/lv_switch.c ****         }
 247:Lib/lvgl/src/widgets/switch/lv_switch.c ****         /*Calculate actual animation duration*/
 248:Lib/lvgl/src/widgets/switch/lv_switch.c ****         uint32_t anim_dur = (anim_dur_full * LV_ABS(anim_start - anim_end)) / LV_SWITCH_ANIM_STATE_
 249:Lib/lvgl/src/widgets/switch/lv_switch.c **** 
 250:Lib/lvgl/src/widgets/switch/lv_switch.c ****         /*Stop the previous animation if it exists*/
 251:Lib/lvgl/src/widgets/switch/lv_switch.c ****         lv_anim_delete(sw, NULL);
 252:Lib/lvgl/src/widgets/switch/lv_switch.c **** 
 253:Lib/lvgl/src/widgets/switch/lv_switch.c ****         lv_anim_t a;
 254:Lib/lvgl/src/widgets/switch/lv_switch.c ****         lv_anim_init(&a);
 255:Lib/lvgl/src/widgets/switch/lv_switch.c ****         lv_anim_set_var(&a, sw);
 256:Lib/lvgl/src/widgets/switch/lv_switch.c ****         lv_anim_set_exec_cb(&a, lv_switch_anim_exec_cb);
 257:Lib/lvgl/src/widgets/switch/lv_switch.c ****         lv_anim_set_values(&a, anim_start, anim_end);
 258:Lib/lvgl/src/widgets/switch/lv_switch.c ****         lv_anim_set_completed_cb(&a, lv_switch_anim_completed);
 259:Lib/lvgl/src/widgets/switch/lv_switch.c ****         lv_anim_set_duration(&a, anim_dur);
 260:Lib/lvgl/src/widgets/switch/lv_switch.c ****         lv_anim_start(&a);
 261:Lib/lvgl/src/widgets/switch/lv_switch.c ****     }
 262:Lib/lvgl/src/widgets/switch/lv_switch.c **** }
 176              		.loc 1 262 1 view .LVU37
 177 0012 17B0     		add	sp, sp, #92
 178              	.LCFI5:
 179              		.cfi_remember_state
 180              		.cfi_def_cfa_offset 20
 181              		@ sp needed
 182 0014 F0BD     		pop	{r4, r5, r6, r7, pc}
 183              	.LVL15:
 184              	.L14:
 185              	.LCFI6:
 186              		.cfi_restore_state
 187              		.loc 1 262 1 view .LVU38
 188 0016 0446     		mov	r4, r0
 189              	.LBB41:
 234:Lib/lvgl/src/widgets/switch/lv_switch.c ****         bool chk = lv_obj_get_state(obj) & LV_STATE_CHECKED;
 190              		.loc 1 234 9 is_stmt 1 view .LVU39
 234:Lib/lvgl/src/widgets/switch/lv_switch.c ****         bool chk = lv_obj_get_state(obj) & LV_STATE_CHECKED;
 191              		.loc 1 234 20 is_stmt 0 view .LVU40
 192 0018 2846     		mov	r0, r5
 193              	.LVL16:
 234:Lib/lvgl/src/widgets/switch/lv_switch.c ****         bool chk = lv_obj_get_state(obj) & LV_STATE_CHECKED;
 194              		.loc 1 234 20 view .LVU41
 195 001a FFF7FEFF 		bl	lv_obj_get_state
 196              	.LVL17:
 234:Lib/lvgl/src/widgets/switch/lv_switch.c ****         bool chk = lv_obj_get_state(obj) & LV_STATE_CHECKED;
 197              		.loc 1 234 20 view .LVU42
ARM GAS  C:\Users\Alex\AppData\Local\Temp\ccEKNduN.s 			page 20


 198 001e 00F00100 		and	r0, r0, #1
 199              	.LVL18:
 235:Lib/lvgl/src/widgets/switch/lv_switch.c ****         int32_t anim_end;
 200              		.loc 1 235 9 is_stmt 1 view .LVU43
 236:Lib/lvgl/src/widgets/switch/lv_switch.c ****         /*No animation in progress -> simply set the values*/
 201              		.loc 1 236 9 view .LVU44
 238:Lib/lvgl/src/widgets/switch/lv_switch.c ****             anim_start = chk ? LV_SWITCH_ANIM_STATE_START : LV_SWITCH_ANIM_STATE_END;
 202              		.loc 1 238 9 view .LVU45
 238:Lib/lvgl/src/widgets/switch/lv_switch.c ****             anim_start = chk ? LV_SWITCH_ANIM_STATE_START : LV_SWITCH_ANIM_STATE_END;
 203              		.loc 1 238 14 is_stmt 0 view .LVU46
 204 0022 EE6A     		ldr	r6, [r5, #44]
 238:Lib/lvgl/src/widgets/switch/lv_switch.c ****             anim_start = chk ? LV_SWITCH_ANIM_STATE_START : LV_SWITCH_ANIM_STATE_END;
 205              		.loc 1 238 11 view .LVU47
 206 0024 B6F1FF3F 		cmp	r6, #-1
 207 0028 1FD0     		beq	.L15
 244:Lib/lvgl/src/widgets/switch/lv_switch.c ****             anim_end   = chk ? LV_SWITCH_ANIM_STATE_END : LV_SWITCH_ANIM_STATE_START;
 208              		.loc 1 244 13 is_stmt 1 view .LVU48
 209              	.LVL19:
 245:Lib/lvgl/src/widgets/switch/lv_switch.c ****         }
 210              		.loc 1 245 13 view .LVU49
 245:Lib/lvgl/src/widgets/switch/lv_switch.c ****         }
 211              		.loc 1 245 57 is_stmt 0 view .LVU50
 212 002a 38B3     		cbz	r0, .L12
 213 002c 4FF48077 		mov	r7, #256
 214              	.LVL20:
 215              	.L10:
 248:Lib/lvgl/src/widgets/switch/lv_switch.c **** 
 216              		.loc 1 248 9 is_stmt 1 view .LVU51
 248:Lib/lvgl/src/widgets/switch/lv_switch.c **** 
 217              		.loc 1 248 46 is_stmt 0 view .LVU52
 218 0030 F31B     		subs	r3, r6, r7
 219 0032 002B     		cmp	r3, #0
 220 0034 B8BF     		it	lt
 221 0036 5B42     		rsblt	r3, r3, #0
 248:Lib/lvgl/src/widgets/switch/lv_switch.c **** 
 222              		.loc 1 248 44 view .LVU53
 223 0038 03FB04F4 		mul	r4, r3, r4
 224              	.LVL21:
 248:Lib/lvgl/src/widgets/switch/lv_switch.c **** 
 225              		.loc 1 248 18 view .LVU54
 226 003c 240A     		lsrs	r4, r4, #8
 227              	.LVL22:
 251:Lib/lvgl/src/widgets/switch/lv_switch.c **** 
 228              		.loc 1 251 9 is_stmt 1 view .LVU55
 229 003e 0021     		movs	r1, #0
 230 0040 2846     		mov	r0, r5
 231              	.LVL23:
 251:Lib/lvgl/src/widgets/switch/lv_switch.c **** 
 232              		.loc 1 251 9 is_stmt 0 view .LVU56
 233 0042 FFF7FEFF 		bl	lv_anim_delete
 234              	.LVL24:
 253:Lib/lvgl/src/widgets/switch/lv_switch.c ****         lv_anim_init(&a);
 235              		.loc 1 253 9 is_stmt 1 view .LVU57
 254:Lib/lvgl/src/widgets/switch/lv_switch.c ****         lv_anim_set_var(&a, sw);
 236              		.loc 1 254 9 view .LVU58
 237 0046 6846     		mov	r0, sp
 238 0048 FFF7FEFF 		bl	lv_anim_init
ARM GAS  C:\Users\Alex\AppData\Local\Temp\ccEKNduN.s 			page 21


 239              	.LVL25:
 255:Lib/lvgl/src/widgets/switch/lv_switch.c ****         lv_anim_set_exec_cb(&a, lv_switch_anim_exec_cb);
 240              		.loc 1 255 9 view .LVU59
 241              	.LBB42:
 242              	.LBI42:
 243              		.file 3 "Lib/lvgl/src/widgets/switch/../../core/../misc/lv_anim.h"
   1:Lib/lvgl/src/widgets/switch/../../core/../misc/lv_anim.h **** /**
   2:Lib/lvgl/src/widgets/switch/../../core/../misc/lv_anim.h ****  * @file lv_anim.h
   3:Lib/lvgl/src/widgets/switch/../../core/../misc/lv_anim.h ****  *
   4:Lib/lvgl/src/widgets/switch/../../core/../misc/lv_anim.h ****  */
   5:Lib/lvgl/src/widgets/switch/../../core/../misc/lv_anim.h **** 
   6:Lib/lvgl/src/widgets/switch/../../core/../misc/lv_anim.h **** #ifndef LV_ANIM_H
   7:Lib/lvgl/src/widgets/switch/../../core/../misc/lv_anim.h **** #define LV_ANIM_H
   8:Lib/lvgl/src/widgets/switch/../../core/../misc/lv_anim.h **** 
   9:Lib/lvgl/src/widgets/switch/../../core/../misc/lv_anim.h **** #ifdef __cplusplus
  10:Lib/lvgl/src/widgets/switch/../../core/../misc/lv_anim.h **** extern "C" {
  11:Lib/lvgl/src/widgets/switch/../../core/../misc/lv_anim.h **** #endif
  12:Lib/lvgl/src/widgets/switch/../../core/../misc/lv_anim.h **** 
  13:Lib/lvgl/src/widgets/switch/../../core/../misc/lv_anim.h **** /*********************
  14:Lib/lvgl/src/widgets/switch/../../core/../misc/lv_anim.h ****  *      INCLUDES
  15:Lib/lvgl/src/widgets/switch/../../core/../misc/lv_anim.h ****  *********************/
  16:Lib/lvgl/src/widgets/switch/../../core/../misc/lv_anim.h **** #include "../lv_conf_internal.h"
  17:Lib/lvgl/src/widgets/switch/../../core/../misc/lv_anim.h **** #include "lv_types.h"
  18:Lib/lvgl/src/widgets/switch/../../core/../misc/lv_anim.h **** #include "lv_math.h"
  19:Lib/lvgl/src/widgets/switch/../../core/../misc/lv_anim.h **** #include "lv_timer.h"
  20:Lib/lvgl/src/widgets/switch/../../core/../misc/lv_anim.h **** #include "lv_ll.h"
  21:Lib/lvgl/src/widgets/switch/../../core/../misc/lv_anim.h **** 
  22:Lib/lvgl/src/widgets/switch/../../core/../misc/lv_anim.h **** #include <stdint.h>
  23:Lib/lvgl/src/widgets/switch/../../core/../misc/lv_anim.h **** #include <stdbool.h>
  24:Lib/lvgl/src/widgets/switch/../../core/../misc/lv_anim.h **** #include <stddef.h>
  25:Lib/lvgl/src/widgets/switch/../../core/../misc/lv_anim.h **** 
  26:Lib/lvgl/src/widgets/switch/../../core/../misc/lv_anim.h **** /*********************
  27:Lib/lvgl/src/widgets/switch/../../core/../misc/lv_anim.h ****  *      DEFINES
  28:Lib/lvgl/src/widgets/switch/../../core/../misc/lv_anim.h ****  *********************/
  29:Lib/lvgl/src/widgets/switch/../../core/../misc/lv_anim.h **** 
  30:Lib/lvgl/src/widgets/switch/../../core/../misc/lv_anim.h **** #define LV_ANIM_REPEAT_INFINITE      0xFFFF
  31:Lib/lvgl/src/widgets/switch/../../core/../misc/lv_anim.h **** #define LV_ANIM_PLAYTIME_INFINITE    0xFFFFFFFF
  32:Lib/lvgl/src/widgets/switch/../../core/../misc/lv_anim.h **** 
  33:Lib/lvgl/src/widgets/switch/../../core/../misc/lv_anim.h **** /*
  34:Lib/lvgl/src/widgets/switch/../../core/../misc/lv_anim.h ****  * Macros used to set cubic-bezier anim parameter.
  35:Lib/lvgl/src/widgets/switch/../../core/../misc/lv_anim.h ****  * Parameters come from https://easings.net/
  36:Lib/lvgl/src/widgets/switch/../../core/../misc/lv_anim.h ****  *
  37:Lib/lvgl/src/widgets/switch/../../core/../misc/lv_anim.h ****  * Usage:
  38:Lib/lvgl/src/widgets/switch/../../core/../misc/lv_anim.h ****  *
  39:Lib/lvgl/src/widgets/switch/../../core/../misc/lv_anim.h ****  * lv_anim_t a;
  40:Lib/lvgl/src/widgets/switch/../../core/../misc/lv_anim.h ****  * lv_anim_init(&a);
  41:Lib/lvgl/src/widgets/switch/../../core/../misc/lv_anim.h ****  * ...
  42:Lib/lvgl/src/widgets/switch/../../core/../misc/lv_anim.h ****  * lv_anim_set_path_cb(&a, lv_anim_path_custom_bezier3);
  43:Lib/lvgl/src/widgets/switch/../../core/../misc/lv_anim.h ****  * LV_ANIM_SET_EASE_IN_SINE(&a); //Set cubic-bezier anim parameter to easeInSine
  44:Lib/lvgl/src/widgets/switch/../../core/../misc/lv_anim.h ****  * ...
  45:Lib/lvgl/src/widgets/switch/../../core/../misc/lv_anim.h ****  * lv_anim_start(&a);
  46:Lib/lvgl/src/widgets/switch/../../core/../misc/lv_anim.h ****  */
  47:Lib/lvgl/src/widgets/switch/../../core/../misc/lv_anim.h **** 
  48:Lib/lvgl/src/widgets/switch/../../core/../misc/lv_anim.h **** #define _PARA(a, x1, y1, x2, y2) ((a)->parameter.bezier3 =                                  \
  49:Lib/lvgl/src/widgets/switch/../../core/../misc/lv_anim.h **** (struct _lv_anim_bezier3_para_t) {                      \
  50:Lib/lvgl/src/widgets/switch/../../core/../misc/lv_anim.h ****     LV_BEZIER_VAL_FLOAT(x1), LV_BEZIER_VAL_FLOAT(y1),   \
  51:Lib/lvgl/src/widgets/switch/../../core/../misc/lv_anim.h ****     LV_BEZIER_VAL_FLOAT(x2), LV_BEZIER_VAL_FLOAT(y2) }  \
ARM GAS  C:\Users\Alex\AppData\Local\Temp\ccEKNduN.s 			page 22


  52:Lib/lvgl/src/widgets/switch/../../core/../misc/lv_anim.h ****                                  )
  53:Lib/lvgl/src/widgets/switch/../../core/../misc/lv_anim.h **** 
  54:Lib/lvgl/src/widgets/switch/../../core/../misc/lv_anim.h **** #define LV_ANIM_SET_EASE_IN_SINE(a) _PARA(a, 0.12, 0, 0.39, 0)
  55:Lib/lvgl/src/widgets/switch/../../core/../misc/lv_anim.h **** #define LV_ANIM_SET_EASE_OUT_SINE(a) _PARA(a, 0.61, 1, 0.88, 1)
  56:Lib/lvgl/src/widgets/switch/../../core/../misc/lv_anim.h **** #define LV_ANIM_SET_EASE_IN_OUT_SINE(a) _PARA(a, 0.37, 0, 0.63, 1)
  57:Lib/lvgl/src/widgets/switch/../../core/../misc/lv_anim.h **** #define LV_ANIM_SET_EASE_IN_QUAD(a) _PARA(a, 0.11, 0, 0.5, 0)
  58:Lib/lvgl/src/widgets/switch/../../core/../misc/lv_anim.h **** #define LV_ANIM_SET_EASE_OUT_QUAD(a) _PARA(a, 0.5, 1, 0.89, 1)
  59:Lib/lvgl/src/widgets/switch/../../core/../misc/lv_anim.h **** #define LV_ANIM_SET_EASE_IN_OUT_QUAD(a) _PARA(a, 0.45, 0, 0.55, 1)
  60:Lib/lvgl/src/widgets/switch/../../core/../misc/lv_anim.h **** #define LV_ANIM_SET_EASE_IN_CUBIC(a) _PARA(a, 0.32, 0, 0.67, 0)
  61:Lib/lvgl/src/widgets/switch/../../core/../misc/lv_anim.h **** #define LV_ANIM_SET_EASE_OUT_CUBIC(a) _PARA(a, 0.33, 1, 0.68, 1)
  62:Lib/lvgl/src/widgets/switch/../../core/../misc/lv_anim.h **** #define LV_ANIM_SET_EASE_IN_OUT_CUBIC(a) _PARA(a, 0.65, 0, 0.35, 1)
  63:Lib/lvgl/src/widgets/switch/../../core/../misc/lv_anim.h **** #define LV_ANIM_SET_EASE_IN_QUART(a) _PARA(a, 0.5, 0, 0.75, 0)
  64:Lib/lvgl/src/widgets/switch/../../core/../misc/lv_anim.h **** #define LV_ANIM_SET_EASE_OUT_QUART(a) _PARA(a, 0.25, 1, 0.5, 1)
  65:Lib/lvgl/src/widgets/switch/../../core/../misc/lv_anim.h **** #define LV_ANIM_SET_EASE_IN_OUT_QUART(a) _PARA(a, 0.76, 0, 0.24, 1)
  66:Lib/lvgl/src/widgets/switch/../../core/../misc/lv_anim.h **** #define LV_ANIM_SET_EASE_IN_QUINT(a) _PARA(a, 0.64, 0, 0.78, 0)
  67:Lib/lvgl/src/widgets/switch/../../core/../misc/lv_anim.h **** #define LV_ANIM_SET_EASE_OUT_QUINT(a) _PARA(a, 0.22, 1, 0.36, 1)
  68:Lib/lvgl/src/widgets/switch/../../core/../misc/lv_anim.h **** #define LV_ANIM_SET_EASE_IN_OUT_QUINT(a) _PARA(a, 0.83, 0, 0.17, 1)
  69:Lib/lvgl/src/widgets/switch/../../core/../misc/lv_anim.h **** #define LV_ANIM_SET_EASE_IN_EXPO(a) _PARA(a, 0.7, 0, 0.84, 0)
  70:Lib/lvgl/src/widgets/switch/../../core/../misc/lv_anim.h **** #define LV_ANIM_SET_EASE_OUT_EXPO(a) _PARA(a, 0.16, 1, 0.3, 1)
  71:Lib/lvgl/src/widgets/switch/../../core/../misc/lv_anim.h **** #define LV_ANIM_SET_EASE_IN_OUT_EXPO(a) _PARA(a, 0.87, 0, 0.13, 1)
  72:Lib/lvgl/src/widgets/switch/../../core/../misc/lv_anim.h **** #define LV_ANIM_SET_EASE_IN_CIRC(a) _PARA(a, 0.55, 0, 1, 0.45)
  73:Lib/lvgl/src/widgets/switch/../../core/../misc/lv_anim.h **** #define LV_ANIM_SET_EASE_OUT_CIRC(a) _PARA(a, 0, 0.55, 0.45, 1)
  74:Lib/lvgl/src/widgets/switch/../../core/../misc/lv_anim.h **** #define LV_ANIM_SET_EASE_IN_OUT_CIRC(a) _PARA(a, 0.85, 0, 0.15, 1)
  75:Lib/lvgl/src/widgets/switch/../../core/../misc/lv_anim.h **** #define LV_ANIM_SET_EASE_IN_BACK(a) _PARA(a, 0.36, 0, 0.66, -0.56)
  76:Lib/lvgl/src/widgets/switch/../../core/../misc/lv_anim.h **** #define LV_ANIM_SET_EASE_OUT_BACK(a) _PARA(a, 0.34, 1.56, 0.64, 1)
  77:Lib/lvgl/src/widgets/switch/../../core/../misc/lv_anim.h **** #define LV_ANIM_SET_EASE_IN_OUT_BACK(a) _PARA(a, 0.68, -0.6, 0.32, 1.6)
  78:Lib/lvgl/src/widgets/switch/../../core/../misc/lv_anim.h **** 
  79:Lib/lvgl/src/widgets/switch/../../core/../misc/lv_anim.h **** LV_EXPORT_CONST_INT(LV_ANIM_REPEAT_INFINITE);
  80:Lib/lvgl/src/widgets/switch/../../core/../misc/lv_anim.h **** LV_EXPORT_CONST_INT(LV_ANIM_PLAYTIME_INFINITE);
  81:Lib/lvgl/src/widgets/switch/../../core/../misc/lv_anim.h **** 
  82:Lib/lvgl/src/widgets/switch/../../core/../misc/lv_anim.h **** /**********************
  83:Lib/lvgl/src/widgets/switch/../../core/../misc/lv_anim.h ****  *      TYPEDEFS
  84:Lib/lvgl/src/widgets/switch/../../core/../misc/lv_anim.h ****  **********************/
  85:Lib/lvgl/src/widgets/switch/../../core/../misc/lv_anim.h **** 
  86:Lib/lvgl/src/widgets/switch/../../core/../misc/lv_anim.h **** /** Can be used to indicate if animations are enabled or disabled in a case*/
  87:Lib/lvgl/src/widgets/switch/../../core/../misc/lv_anim.h **** typedef enum {
  88:Lib/lvgl/src/widgets/switch/../../core/../misc/lv_anim.h ****     LV_ANIM_OFF,
  89:Lib/lvgl/src/widgets/switch/../../core/../misc/lv_anim.h ****     LV_ANIM_ON,
  90:Lib/lvgl/src/widgets/switch/../../core/../misc/lv_anim.h **** } lv_anim_enable_t;
  91:Lib/lvgl/src/widgets/switch/../../core/../misc/lv_anim.h **** 
  92:Lib/lvgl/src/widgets/switch/../../core/../misc/lv_anim.h **** typedef struct {
  93:Lib/lvgl/src/widgets/switch/../../core/../misc/lv_anim.h ****     bool anim_list_changed;
  94:Lib/lvgl/src/widgets/switch/../../core/../misc/lv_anim.h ****     bool anim_run_round;
  95:Lib/lvgl/src/widgets/switch/../../core/../misc/lv_anim.h ****     lv_timer_t * timer;
  96:Lib/lvgl/src/widgets/switch/../../core/../misc/lv_anim.h ****     lv_ll_t anim_ll;
  97:Lib/lvgl/src/widgets/switch/../../core/../misc/lv_anim.h **** } lv_anim_state_t;
  98:Lib/lvgl/src/widgets/switch/../../core/../misc/lv_anim.h **** 
  99:Lib/lvgl/src/widgets/switch/../../core/../misc/lv_anim.h **** /** Get the current value during an animation*/
 100:Lib/lvgl/src/widgets/switch/../../core/../misc/lv_anim.h **** typedef int32_t (*lv_anim_path_cb_t)(const lv_anim_t *);
 101:Lib/lvgl/src/widgets/switch/../../core/../misc/lv_anim.h **** 
 102:Lib/lvgl/src/widgets/switch/../../core/../misc/lv_anim.h **** /** Generic prototype of "animator" functions.
 103:Lib/lvgl/src/widgets/switch/../../core/../misc/lv_anim.h ****  * First parameter is the variable to animate.
 104:Lib/lvgl/src/widgets/switch/../../core/../misc/lv_anim.h ****  * Second parameter is the value to set.
 105:Lib/lvgl/src/widgets/switch/../../core/../misc/lv_anim.h ****  * Compatible with `lv_xxx_set_yyy(obj, value)` functions
 106:Lib/lvgl/src/widgets/switch/../../core/../misc/lv_anim.h ****  * The `x` in `_xcb_t` means it's not a fully generic prototype because
 107:Lib/lvgl/src/widgets/switch/../../core/../misc/lv_anim.h ****  * it doesn't receive `lv_anim_t *` as its first argument*/
 108:Lib/lvgl/src/widgets/switch/../../core/../misc/lv_anim.h **** typedef void (*lv_anim_exec_xcb_t)(void *, int32_t);
ARM GAS  C:\Users\Alex\AppData\Local\Temp\ccEKNduN.s 			page 23


 109:Lib/lvgl/src/widgets/switch/../../core/../misc/lv_anim.h **** 
 110:Lib/lvgl/src/widgets/switch/../../core/../misc/lv_anim.h **** /** Same as `lv_anim_exec_xcb_t` but receives `lv_anim_t *` as the first parameter.
 111:Lib/lvgl/src/widgets/switch/../../core/../misc/lv_anim.h ****  * It's more consistent but less convenient. Might be used by binding generator functions.*/
 112:Lib/lvgl/src/widgets/switch/../../core/../misc/lv_anim.h **** typedef void (*lv_anim_custom_exec_cb_t)(lv_anim_t *, int32_t);
 113:Lib/lvgl/src/widgets/switch/../../core/../misc/lv_anim.h **** 
 114:Lib/lvgl/src/widgets/switch/../../core/../misc/lv_anim.h **** /** Callback to call when the animation is ready*/
 115:Lib/lvgl/src/widgets/switch/../../core/../misc/lv_anim.h **** typedef void (*lv_anim_completed_cb_t)(lv_anim_t *);
 116:Lib/lvgl/src/widgets/switch/../../core/../misc/lv_anim.h **** 
 117:Lib/lvgl/src/widgets/switch/../../core/../misc/lv_anim.h **** /** Callback to call when the animation really stars (considering `delay`)*/
 118:Lib/lvgl/src/widgets/switch/../../core/../misc/lv_anim.h **** typedef void (*lv_anim_start_cb_t)(lv_anim_t *);
 119:Lib/lvgl/src/widgets/switch/../../core/../misc/lv_anim.h **** 
 120:Lib/lvgl/src/widgets/switch/../../core/../misc/lv_anim.h **** /** Callback used when the animation values are relative to get the current value*/
 121:Lib/lvgl/src/widgets/switch/../../core/../misc/lv_anim.h **** typedef int32_t (*lv_anim_get_value_cb_t)(lv_anim_t *);
 122:Lib/lvgl/src/widgets/switch/../../core/../misc/lv_anim.h **** 
 123:Lib/lvgl/src/widgets/switch/../../core/../misc/lv_anim.h **** /** Callback used when the animation is deleted*/
 124:Lib/lvgl/src/widgets/switch/../../core/../misc/lv_anim.h **** typedef void (*lv_anim_deleted_cb_t)(lv_anim_t *);
 125:Lib/lvgl/src/widgets/switch/../../core/../misc/lv_anim.h **** 
 126:Lib/lvgl/src/widgets/switch/../../core/../misc/lv_anim.h **** typedef struct _lv_anim_bezier3_para_t {
 127:Lib/lvgl/src/widgets/switch/../../core/../misc/lv_anim.h ****     int16_t x1;
 128:Lib/lvgl/src/widgets/switch/../../core/../misc/lv_anim.h ****     int16_t y1;
 129:Lib/lvgl/src/widgets/switch/../../core/../misc/lv_anim.h ****     int16_t x2;
 130:Lib/lvgl/src/widgets/switch/../../core/../misc/lv_anim.h ****     int16_t y2;
 131:Lib/lvgl/src/widgets/switch/../../core/../misc/lv_anim.h **** } lv_anim_bezier3_para_t; /**< Parameter used when path is custom_bezier*/
 132:Lib/lvgl/src/widgets/switch/../../core/../misc/lv_anim.h **** 
 133:Lib/lvgl/src/widgets/switch/../../core/../misc/lv_anim.h **** /** Describes an animation*/
 134:Lib/lvgl/src/widgets/switch/../../core/../misc/lv_anim.h **** struct _lv_anim_t {
 135:Lib/lvgl/src/widgets/switch/../../core/../misc/lv_anim.h ****     void * var;                                 /**<Variable to animate*/
 136:Lib/lvgl/src/widgets/switch/../../core/../misc/lv_anim.h ****     lv_anim_exec_xcb_t exec_cb;                 /**< Function to execute to animate*/
 137:Lib/lvgl/src/widgets/switch/../../core/../misc/lv_anim.h ****     lv_anim_custom_exec_cb_t custom_exec_cb;/**< Function to execute to animate,
 138:Lib/lvgl/src/widgets/switch/../../core/../misc/lv_anim.h ****                                                  same purpose as exec_cb but different parameters*/
 139:Lib/lvgl/src/widgets/switch/../../core/../misc/lv_anim.h ****     lv_anim_start_cb_t start_cb;         /**< Call it when the animation is starts (considering `de
 140:Lib/lvgl/src/widgets/switch/../../core/../misc/lv_anim.h ****     lv_anim_completed_cb_t completed_cb; /**< Call it when the animation is fully completed*/
 141:Lib/lvgl/src/widgets/switch/../../core/../misc/lv_anim.h ****     lv_anim_deleted_cb_t deleted_cb;     /**< Call it when the animation is deleted*/
 142:Lib/lvgl/src/widgets/switch/../../core/../misc/lv_anim.h ****     lv_anim_get_value_cb_t get_value_cb; /**< Get the current value in relative mode*/
 143:Lib/lvgl/src/widgets/switch/../../core/../misc/lv_anim.h ****     void * user_data;                    /**< Custom user data*/
 144:Lib/lvgl/src/widgets/switch/../../core/../misc/lv_anim.h ****     lv_anim_path_cb_t path_cb;         /**< Describe the path (curve) of animations*/
 145:Lib/lvgl/src/widgets/switch/../../core/../misc/lv_anim.h ****     int32_t start_value;               /**< Start value*/
 146:Lib/lvgl/src/widgets/switch/../../core/../misc/lv_anim.h ****     int32_t current_value;             /**< Current value*/
 147:Lib/lvgl/src/widgets/switch/../../core/../misc/lv_anim.h ****     int32_t end_value;                 /**< End value*/
 148:Lib/lvgl/src/widgets/switch/../../core/../misc/lv_anim.h ****     int32_t duration;                /**< Animation time in ms*/
 149:Lib/lvgl/src/widgets/switch/../../core/../misc/lv_anim.h ****     int32_t act_time;            /**< Current time in animation. Set to negative to make delay.*/
 150:Lib/lvgl/src/widgets/switch/../../core/../misc/lv_anim.h ****     uint32_t playback_delay;     /**< Wait before play back*/
 151:Lib/lvgl/src/widgets/switch/../../core/../misc/lv_anim.h ****     uint32_t playback_duration;      /**< Duration of playback animation*/
 152:Lib/lvgl/src/widgets/switch/../../core/../misc/lv_anim.h ****     uint32_t repeat_delay;       /**< Wait before repeat*/
 153:Lib/lvgl/src/widgets/switch/../../core/../misc/lv_anim.h ****     uint16_t repeat_cnt;         /**< Repeat count for the animation*/
 154:Lib/lvgl/src/widgets/switch/../../core/../misc/lv_anim.h ****     union _lv_anim_path_para_t {
 155:Lib/lvgl/src/widgets/switch/../../core/../misc/lv_anim.h ****         lv_anim_bezier3_para_t bezier3; /**< Parameter used when path is custom_bezier*/
 156:Lib/lvgl/src/widgets/switch/../../core/../misc/lv_anim.h ****     } parameter;
 157:Lib/lvgl/src/widgets/switch/../../core/../misc/lv_anim.h **** 
 158:Lib/lvgl/src/widgets/switch/../../core/../misc/lv_anim.h ****     uint8_t early_apply  : 1;    /**< 1: Apply start value immediately even is there is `delay`*/
 159:Lib/lvgl/src/widgets/switch/../../core/../misc/lv_anim.h **** 
 160:Lib/lvgl/src/widgets/switch/../../core/../misc/lv_anim.h ****     /*Animation system use these - user shouldn't set*/
 161:Lib/lvgl/src/widgets/switch/../../core/../misc/lv_anim.h ****     uint32_t last_timer_run;
 162:Lib/lvgl/src/widgets/switch/../../core/../misc/lv_anim.h ****     uint8_t playback_now : 1; /**< Play back is in progress*/
 163:Lib/lvgl/src/widgets/switch/../../core/../misc/lv_anim.h ****     uint8_t run_round : 1;    /**< Indicates the animation has run in this round*/
 164:Lib/lvgl/src/widgets/switch/../../core/../misc/lv_anim.h ****     uint8_t start_cb_called : 1;    /**< Indicates that the `start_cb` was already called*/
 165:Lib/lvgl/src/widgets/switch/../../core/../misc/lv_anim.h **** };
ARM GAS  C:\Users\Alex\AppData\Local\Temp\ccEKNduN.s 			page 24


 166:Lib/lvgl/src/widgets/switch/../../core/../misc/lv_anim.h **** 
 167:Lib/lvgl/src/widgets/switch/../../core/../misc/lv_anim.h **** /**********************
 168:Lib/lvgl/src/widgets/switch/../../core/../misc/lv_anim.h ****  * GLOBAL PROTOTYPES
 169:Lib/lvgl/src/widgets/switch/../../core/../misc/lv_anim.h ****  **********************/
 170:Lib/lvgl/src/widgets/switch/../../core/../misc/lv_anim.h **** 
 171:Lib/lvgl/src/widgets/switch/../../core/../misc/lv_anim.h **** /**
 172:Lib/lvgl/src/widgets/switch/../../core/../misc/lv_anim.h ****  * Init the animation module
 173:Lib/lvgl/src/widgets/switch/../../core/../misc/lv_anim.h ****  */
 174:Lib/lvgl/src/widgets/switch/../../core/../misc/lv_anim.h **** void _lv_anim_core_init(void);
 175:Lib/lvgl/src/widgets/switch/../../core/../misc/lv_anim.h **** 
 176:Lib/lvgl/src/widgets/switch/../../core/../misc/lv_anim.h **** /**
 177:Lib/lvgl/src/widgets/switch/../../core/../misc/lv_anim.h ****  * Deinit the animation module
 178:Lib/lvgl/src/widgets/switch/../../core/../misc/lv_anim.h ****  */
 179:Lib/lvgl/src/widgets/switch/../../core/../misc/lv_anim.h **** void _lv_anim_core_deinit(void);
 180:Lib/lvgl/src/widgets/switch/../../core/../misc/lv_anim.h **** 
 181:Lib/lvgl/src/widgets/switch/../../core/../misc/lv_anim.h **** /**
 182:Lib/lvgl/src/widgets/switch/../../core/../misc/lv_anim.h ****  * Initialize an animation variable.
 183:Lib/lvgl/src/widgets/switch/../../core/../misc/lv_anim.h ****  * E.g.:
 184:Lib/lvgl/src/widgets/switch/../../core/../misc/lv_anim.h ****  * lv_anim_t a;
 185:Lib/lvgl/src/widgets/switch/../../core/../misc/lv_anim.h ****  * lv_anim_init(&a);
 186:Lib/lvgl/src/widgets/switch/../../core/../misc/lv_anim.h ****  * lv_anim_set_...(&a);
 187:Lib/lvgl/src/widgets/switch/../../core/../misc/lv_anim.h ****  * lv_anim_start(&a);
 188:Lib/lvgl/src/widgets/switch/../../core/../misc/lv_anim.h ****  * @param a     pointer to an `lv_anim_t` variable to initialize
 189:Lib/lvgl/src/widgets/switch/../../core/../misc/lv_anim.h ****  */
 190:Lib/lvgl/src/widgets/switch/../../core/../misc/lv_anim.h **** void lv_anim_init(lv_anim_t * a);
 191:Lib/lvgl/src/widgets/switch/../../core/../misc/lv_anim.h **** 
 192:Lib/lvgl/src/widgets/switch/../../core/../misc/lv_anim.h **** /**
 193:Lib/lvgl/src/widgets/switch/../../core/../misc/lv_anim.h ****  * Set a variable to animate
 194:Lib/lvgl/src/widgets/switch/../../core/../misc/lv_anim.h ****  * @param a     pointer to an initialized `lv_anim_t` variable
 195:Lib/lvgl/src/widgets/switch/../../core/../misc/lv_anim.h ****  * @param var   pointer to a variable to animate
 196:Lib/lvgl/src/widgets/switch/../../core/../misc/lv_anim.h ****  */
 197:Lib/lvgl/src/widgets/switch/../../core/../misc/lv_anim.h **** static inline void lv_anim_set_var(lv_anim_t * a, void * var)
 244              		.loc 3 197 20 view .LVU60
 245              	.LBB43:
 198:Lib/lvgl/src/widgets/switch/../../core/../misc/lv_anim.h **** {
 199:Lib/lvgl/src/widgets/switch/../../core/../misc/lv_anim.h ****     a->var = var;
 246              		.loc 3 199 5 view .LVU61
 247              		.loc 3 199 12 is_stmt 0 view .LVU62
 248 004c 0095     		str	r5, [sp]
 249              	.LVL26:
 250              		.loc 3 199 12 view .LVU63
 251              	.LBE43:
 252              	.LBE42:
 256:Lib/lvgl/src/widgets/switch/lv_switch.c ****         lv_anim_set_values(&a, anim_start, anim_end);
 253              		.loc 1 256 9 is_stmt 1 view .LVU64
 254              	.LBB44:
 255              	.LBI44:
 200:Lib/lvgl/src/widgets/switch/../../core/../misc/lv_anim.h **** }
 201:Lib/lvgl/src/widgets/switch/../../core/../misc/lv_anim.h **** 
 202:Lib/lvgl/src/widgets/switch/../../core/../misc/lv_anim.h **** /**
 203:Lib/lvgl/src/widgets/switch/../../core/../misc/lv_anim.h ****  * Set a function to animate `var`
 204:Lib/lvgl/src/widgets/switch/../../core/../misc/lv_anim.h ****  * @param a         pointer to an initialized `lv_anim_t` variable
 205:Lib/lvgl/src/widgets/switch/../../core/../misc/lv_anim.h ****  * @param exec_cb   a function to execute during animation
 206:Lib/lvgl/src/widgets/switch/../../core/../misc/lv_anim.h ****  *                  LVGL's built-in functions can be used.
 207:Lib/lvgl/src/widgets/switch/../../core/../misc/lv_anim.h ****  *                  E.g. lv_obj_set_x
 208:Lib/lvgl/src/widgets/switch/../../core/../misc/lv_anim.h ****  */
 209:Lib/lvgl/src/widgets/switch/../../core/../misc/lv_anim.h **** static inline void lv_anim_set_exec_cb(lv_anim_t * a, lv_anim_exec_xcb_t exec_cb)
ARM GAS  C:\Users\Alex\AppData\Local\Temp\ccEKNduN.s 			page 25


 256              		.loc 3 209 20 view .LVU65
 257              	.LBB45:
 210:Lib/lvgl/src/widgets/switch/../../core/../misc/lv_anim.h **** {
 211:Lib/lvgl/src/widgets/switch/../../core/../misc/lv_anim.h ****     a->exec_cb = exec_cb;
 258              		.loc 3 211 5 view .LVU66
 259              		.loc 3 211 16 is_stmt 0 view .LVU67
 260 004e 0C4B     		ldr	r3, .L16
 261 0050 0193     		str	r3, [sp, #4]
 262              	.LVL27:
 263              		.loc 3 211 16 view .LVU68
 264              	.LBE45:
 265              	.LBE44:
 257:Lib/lvgl/src/widgets/switch/lv_switch.c ****         lv_anim_set_completed_cb(&a, lv_switch_anim_completed);
 266              		.loc 1 257 9 is_stmt 1 view .LVU69
 267              	.LBB46:
 268              	.LBI46:
 212:Lib/lvgl/src/widgets/switch/../../core/../misc/lv_anim.h **** }
 213:Lib/lvgl/src/widgets/switch/../../core/../misc/lv_anim.h **** 
 214:Lib/lvgl/src/widgets/switch/../../core/../misc/lv_anim.h **** /**
 215:Lib/lvgl/src/widgets/switch/../../core/../misc/lv_anim.h ****  * Set the duration of an animation
 216:Lib/lvgl/src/widgets/switch/../../core/../misc/lv_anim.h ****  * @param a         pointer to an initialized `lv_anim_t` variable
 217:Lib/lvgl/src/widgets/switch/../../core/../misc/lv_anim.h ****  * @param duration  duration of the animation in milliseconds
 218:Lib/lvgl/src/widgets/switch/../../core/../misc/lv_anim.h ****  */
 219:Lib/lvgl/src/widgets/switch/../../core/../misc/lv_anim.h **** static inline void lv_anim_set_duration(lv_anim_t * a, uint32_t duration)
 220:Lib/lvgl/src/widgets/switch/../../core/../misc/lv_anim.h **** {
 221:Lib/lvgl/src/widgets/switch/../../core/../misc/lv_anim.h ****     a->duration = duration;
 222:Lib/lvgl/src/widgets/switch/../../core/../misc/lv_anim.h **** }
 223:Lib/lvgl/src/widgets/switch/../../core/../misc/lv_anim.h **** 
 224:Lib/lvgl/src/widgets/switch/../../core/../misc/lv_anim.h **** /**
 225:Lib/lvgl/src/widgets/switch/../../core/../misc/lv_anim.h ****  * Legacy `lv_anim_set_time` API will be removed soon, use `lv_anim_set_duration` instead.
 226:Lib/lvgl/src/widgets/switch/../../core/../misc/lv_anim.h ****  */
 227:Lib/lvgl/src/widgets/switch/../../core/../misc/lv_anim.h **** static inline void lv_anim_set_time(lv_anim_t * a, uint32_t duration)
 228:Lib/lvgl/src/widgets/switch/../../core/../misc/lv_anim.h **** {
 229:Lib/lvgl/src/widgets/switch/../../core/../misc/lv_anim.h ****     lv_anim_set_duration(a, duration);
 230:Lib/lvgl/src/widgets/switch/../../core/../misc/lv_anim.h **** }
 231:Lib/lvgl/src/widgets/switch/../../core/../misc/lv_anim.h **** 
 232:Lib/lvgl/src/widgets/switch/../../core/../misc/lv_anim.h **** /**
 233:Lib/lvgl/src/widgets/switch/../../core/../misc/lv_anim.h ****  * Set a delay before starting the animation
 234:Lib/lvgl/src/widgets/switch/../../core/../misc/lv_anim.h ****  * @param a         pointer to an initialized `lv_anim_t` variable
 235:Lib/lvgl/src/widgets/switch/../../core/../misc/lv_anim.h ****  * @param delay     delay before the animation in milliseconds
 236:Lib/lvgl/src/widgets/switch/../../core/../misc/lv_anim.h ****  */
 237:Lib/lvgl/src/widgets/switch/../../core/../misc/lv_anim.h **** static inline void lv_anim_set_delay(lv_anim_t * a, uint32_t delay)
 238:Lib/lvgl/src/widgets/switch/../../core/../misc/lv_anim.h **** {
 239:Lib/lvgl/src/widgets/switch/../../core/../misc/lv_anim.h ****     a->act_time = -(int32_t)(delay);
 240:Lib/lvgl/src/widgets/switch/../../core/../misc/lv_anim.h **** }
 241:Lib/lvgl/src/widgets/switch/../../core/../misc/lv_anim.h **** 
 242:Lib/lvgl/src/widgets/switch/../../core/../misc/lv_anim.h **** /**
 243:Lib/lvgl/src/widgets/switch/../../core/../misc/lv_anim.h ****  * Set the start and end values of an animation
 244:Lib/lvgl/src/widgets/switch/../../core/../misc/lv_anim.h ****  * @param a         pointer to an initialized `lv_anim_t` variable
 245:Lib/lvgl/src/widgets/switch/../../core/../misc/lv_anim.h ****  * @param start     the start value
 246:Lib/lvgl/src/widgets/switch/../../core/../misc/lv_anim.h ****  * @param end       the end value
 247:Lib/lvgl/src/widgets/switch/../../core/../misc/lv_anim.h ****  */
 248:Lib/lvgl/src/widgets/switch/../../core/../misc/lv_anim.h **** static inline void lv_anim_set_values(lv_anim_t * a, int32_t start, int32_t end)
 269              		.loc 3 248 20 view .LVU70
 270              	.LBB47:
 249:Lib/lvgl/src/widgets/switch/../../core/../misc/lv_anim.h **** {
 250:Lib/lvgl/src/widgets/switch/../../core/../misc/lv_anim.h ****     a->start_value = start;
ARM GAS  C:\Users\Alex\AppData\Local\Temp\ccEKNduN.s 			page 26


 271              		.loc 3 250 5 view .LVU71
 272              		.loc 3 250 20 is_stmt 0 view .LVU72
 273 0052 0996     		str	r6, [sp, #36]
 251:Lib/lvgl/src/widgets/switch/../../core/../misc/lv_anim.h ****     a->current_value = INT32_MIN;
 274              		.loc 3 251 5 is_stmt 1 view .LVU73
 275              		.loc 3 251 22 is_stmt 0 view .LVU74
 276 0054 4FF00043 		mov	r3, #-2147483648
 277 0058 0A93     		str	r3, [sp, #40]
 252:Lib/lvgl/src/widgets/switch/../../core/../misc/lv_anim.h ****     a->end_value = end;
 278              		.loc 3 252 5 is_stmt 1 view .LVU75
 279              		.loc 3 252 18 is_stmt 0 view .LVU76
 280 005a 0B97     		str	r7, [sp, #44]
 281              	.LVL28:
 282              		.loc 3 252 18 view .LVU77
 283              	.LBE47:
 284              	.LBE46:
 258:Lib/lvgl/src/widgets/switch/lv_switch.c ****         lv_anim_set_duration(&a, anim_dur);
 285              		.loc 1 258 9 is_stmt 1 view .LVU78
 286              	.LBB48:
 287              	.LBI48:
 253:Lib/lvgl/src/widgets/switch/../../core/../misc/lv_anim.h **** }
 254:Lib/lvgl/src/widgets/switch/../../core/../misc/lv_anim.h **** 
 255:Lib/lvgl/src/widgets/switch/../../core/../misc/lv_anim.h **** /**
 256:Lib/lvgl/src/widgets/switch/../../core/../misc/lv_anim.h ****  * Similar to `lv_anim_set_exec_cb` but `lv_anim_custom_exec_cb_t` receives
 257:Lib/lvgl/src/widgets/switch/../../core/../misc/lv_anim.h ****  * `lv_anim_t * ` as its first parameter instead of `void *`.
 258:Lib/lvgl/src/widgets/switch/../../core/../misc/lv_anim.h ****  * This function might be used when LVGL is bound to other languages because
 259:Lib/lvgl/src/widgets/switch/../../core/../misc/lv_anim.h ****  * it's more consistent to have `lv_anim_t *` as first parameter.
 260:Lib/lvgl/src/widgets/switch/../../core/../misc/lv_anim.h ****  * @param a         pointer to an initialized `lv_anim_t` variable
 261:Lib/lvgl/src/widgets/switch/../../core/../misc/lv_anim.h ****  * @param exec_cb   a function to execute.
 262:Lib/lvgl/src/widgets/switch/../../core/../misc/lv_anim.h ****  */
 263:Lib/lvgl/src/widgets/switch/../../core/../misc/lv_anim.h **** static inline void lv_anim_set_custom_exec_cb(lv_anim_t * a, lv_anim_custom_exec_cb_t exec_cb)
 264:Lib/lvgl/src/widgets/switch/../../core/../misc/lv_anim.h **** {
 265:Lib/lvgl/src/widgets/switch/../../core/../misc/lv_anim.h ****     a->custom_exec_cb = exec_cb;
 266:Lib/lvgl/src/widgets/switch/../../core/../misc/lv_anim.h **** }
 267:Lib/lvgl/src/widgets/switch/../../core/../misc/lv_anim.h **** 
 268:Lib/lvgl/src/widgets/switch/../../core/../misc/lv_anim.h **** /**
 269:Lib/lvgl/src/widgets/switch/../../core/../misc/lv_anim.h ****  * Set the path (curve) of the animation.
 270:Lib/lvgl/src/widgets/switch/../../core/../misc/lv_anim.h ****  * @param a         pointer to an initialized `lv_anim_t` variable
 271:Lib/lvgl/src/widgets/switch/../../core/../misc/lv_anim.h ****  * @param path_cb a function to set the current value of the animation.
 272:Lib/lvgl/src/widgets/switch/../../core/../misc/lv_anim.h ****  */
 273:Lib/lvgl/src/widgets/switch/../../core/../misc/lv_anim.h **** static inline void lv_anim_set_path_cb(lv_anim_t * a, lv_anim_path_cb_t path_cb)
 274:Lib/lvgl/src/widgets/switch/../../core/../misc/lv_anim.h **** {
 275:Lib/lvgl/src/widgets/switch/../../core/../misc/lv_anim.h ****     a->path_cb = path_cb;
 276:Lib/lvgl/src/widgets/switch/../../core/../misc/lv_anim.h **** }
 277:Lib/lvgl/src/widgets/switch/../../core/../misc/lv_anim.h **** 
 278:Lib/lvgl/src/widgets/switch/../../core/../misc/lv_anim.h **** /**
 279:Lib/lvgl/src/widgets/switch/../../core/../misc/lv_anim.h ****  * Set a function call when the animation really starts (considering `delay`)
 280:Lib/lvgl/src/widgets/switch/../../core/../misc/lv_anim.h ****  * @param a         pointer to an initialized `lv_anim_t` variable
 281:Lib/lvgl/src/widgets/switch/../../core/../misc/lv_anim.h ****  * @param start_cb  a function call when the animation starts
 282:Lib/lvgl/src/widgets/switch/../../core/../misc/lv_anim.h ****  */
 283:Lib/lvgl/src/widgets/switch/../../core/../misc/lv_anim.h **** static inline void lv_anim_set_start_cb(lv_anim_t * a, lv_anim_start_cb_t start_cb)
 284:Lib/lvgl/src/widgets/switch/../../core/../misc/lv_anim.h **** {
 285:Lib/lvgl/src/widgets/switch/../../core/../misc/lv_anim.h ****     a->start_cb = start_cb;
 286:Lib/lvgl/src/widgets/switch/../../core/../misc/lv_anim.h **** }
 287:Lib/lvgl/src/widgets/switch/../../core/../misc/lv_anim.h **** 
 288:Lib/lvgl/src/widgets/switch/../../core/../misc/lv_anim.h **** /**
 289:Lib/lvgl/src/widgets/switch/../../core/../misc/lv_anim.h ****  * Set a function to use the current value of the variable and make start and end value
ARM GAS  C:\Users\Alex\AppData\Local\Temp\ccEKNduN.s 			page 27


 290:Lib/lvgl/src/widgets/switch/../../core/../misc/lv_anim.h ****  * relative to the returned current value.
 291:Lib/lvgl/src/widgets/switch/../../core/../misc/lv_anim.h ****  * @param a             pointer to an initialized `lv_anim_t` variable
 292:Lib/lvgl/src/widgets/switch/../../core/../misc/lv_anim.h ****  * @param get_value_cb  a function call when the animation starts
 293:Lib/lvgl/src/widgets/switch/../../core/../misc/lv_anim.h ****  */
 294:Lib/lvgl/src/widgets/switch/../../core/../misc/lv_anim.h **** static inline void lv_anim_set_get_value_cb(lv_anim_t * a, lv_anim_get_value_cb_t get_value_cb)
 295:Lib/lvgl/src/widgets/switch/../../core/../misc/lv_anim.h **** {
 296:Lib/lvgl/src/widgets/switch/../../core/../misc/lv_anim.h ****     a->get_value_cb = get_value_cb;
 297:Lib/lvgl/src/widgets/switch/../../core/../misc/lv_anim.h **** }
 298:Lib/lvgl/src/widgets/switch/../../core/../misc/lv_anim.h **** 
 299:Lib/lvgl/src/widgets/switch/../../core/../misc/lv_anim.h **** /**
 300:Lib/lvgl/src/widgets/switch/../../core/../misc/lv_anim.h ****  * Set a function call when the animation is completed
 301:Lib/lvgl/src/widgets/switch/../../core/../misc/lv_anim.h ****  * @param a             pointer to an initialized `lv_anim_t` variable
 302:Lib/lvgl/src/widgets/switch/../../core/../misc/lv_anim.h ****  * @param completed_cb  a function call when the animation is fully completed
 303:Lib/lvgl/src/widgets/switch/../../core/../misc/lv_anim.h ****  */
 304:Lib/lvgl/src/widgets/switch/../../core/../misc/lv_anim.h **** static inline void lv_anim_set_completed_cb(lv_anim_t * a, lv_anim_completed_cb_t completed_cb)
 288              		.loc 3 304 20 view .LVU79
 289              	.LBB49:
 305:Lib/lvgl/src/widgets/switch/../../core/../misc/lv_anim.h **** {
 306:Lib/lvgl/src/widgets/switch/../../core/../misc/lv_anim.h ****     a->completed_cb = completed_cb;
 290              		.loc 3 306 5 view .LVU80
 291              		.loc 3 306 21 is_stmt 0 view .LVU81
 292 005c 094B     		ldr	r3, .L16+4
 293 005e 0493     		str	r3, [sp, #16]
 294              	.LVL29:
 295              		.loc 3 306 21 view .LVU82
 296              	.LBE49:
 297              	.LBE48:
 259:Lib/lvgl/src/widgets/switch/lv_switch.c ****         lv_anim_start(&a);
 298              		.loc 1 259 9 is_stmt 1 view .LVU83
 299              	.LBB50:
 300              	.LBI50:
 219:Lib/lvgl/src/widgets/switch/../../core/../misc/lv_anim.h **** {
 301              		.loc 3 219 20 view .LVU84
 302              	.LBB51:
 221:Lib/lvgl/src/widgets/switch/../../core/../misc/lv_anim.h **** }
 303              		.loc 3 221 5 view .LVU85
 221:Lib/lvgl/src/widgets/switch/../../core/../misc/lv_anim.h **** }
 304              		.loc 3 221 17 is_stmt 0 view .LVU86
 305 0060 0C94     		str	r4, [sp, #48]
 306              	.LVL30:
 221:Lib/lvgl/src/widgets/switch/../../core/../misc/lv_anim.h **** }
 307              		.loc 3 221 17 view .LVU87
 308              	.LBE51:
 309              	.LBE50:
 260:Lib/lvgl/src/widgets/switch/lv_switch.c ****     }
 310              		.loc 1 260 9 is_stmt 1 view .LVU88
 311 0062 6846     		mov	r0, sp
 312 0064 FFF7FEFF 		bl	lv_anim_start
 313              	.LVL31:
 314              	.LBE41:
 315              		.loc 1 262 1 is_stmt 0 view .LVU89
 316 0068 D3E7     		b	.L7
 317              	.LVL32:
 318              	.L15:
 319              	.LBB52:
 239:Lib/lvgl/src/widgets/switch/lv_switch.c ****             anim_end   = chk ? LV_SWITCH_ANIM_STATE_END : LV_SWITCH_ANIM_STATE_START;
 320              		.loc 1 239 13 is_stmt 1 view .LVU90
ARM GAS  C:\Users\Alex\AppData\Local\Temp\ccEKNduN.s 			page 28


 239:Lib/lvgl/src/widgets/switch/lv_switch.c ****             anim_end   = chk ? LV_SWITCH_ANIM_STATE_END : LV_SWITCH_ANIM_STATE_START;
 321              		.loc 1 239 59 is_stmt 0 view .LVU91
 322 006a 18B1     		cbz	r0, .L11
 240:Lib/lvgl/src/widgets/switch/lv_switch.c ****         }
 323              		.loc 1 240 57 view .LVU92
 324 006c 4FF48077 		mov	r7, #256
 239:Lib/lvgl/src/widgets/switch/lv_switch.c ****             anim_end   = chk ? LV_SWITCH_ANIM_STATE_END : LV_SWITCH_ANIM_STATE_START;
 325              		.loc 1 239 59 view .LVU93
 326 0070 0026     		movs	r6, #0
 327 0072 DDE7     		b	.L10
 328              	.L11:
 240:Lib/lvgl/src/widgets/switch/lv_switch.c ****         }
 329              		.loc 1 240 57 view .LVU94
 330 0074 0027     		movs	r7, #0
 239:Lib/lvgl/src/widgets/switch/lv_switch.c ****             anim_end   = chk ? LV_SWITCH_ANIM_STATE_END : LV_SWITCH_ANIM_STATE_START;
 331              		.loc 1 239 59 view .LVU95
 332 0076 4FF48076 		mov	r6, #256
 333 007a D9E7     		b	.L10
 334              	.LVL33:
 335              	.L12:
 245:Lib/lvgl/src/widgets/switch/lv_switch.c ****         }
 336              		.loc 1 245 57 view .LVU96
 337 007c 0027     		movs	r7, #0
 338 007e D7E7     		b	.L10
 339              	.L17:
 340              		.align	2
 341              	.L16:
 342 0080 00000000 		.word	lv_switch_anim_exec_cb
 343 0084 00000000 		.word	lv_switch_anim_completed
 344              	.LBE52:
 345              		.cfi_endproc
 346              	.LFE240:
 348              		.section	.text.draw_main,"ax",%progbits
 349              		.align	1
 350              		.syntax unified
 351              		.thumb
 352              		.thumb_func
 354              	draw_main:
 355              	.LVL34:
 356              	.LFB237:
 147:Lib/lvgl/src/widgets/switch/lv_switch.c ****     lv_obj_t * obj = lv_event_get_current_target(e);
 357              		.loc 1 147 1 is_stmt 1 view -0
 358              		.cfi_startproc
 359              		@ args = 0, pretend = 0, frame = 264
 360              		@ frame_needed = 0, uses_anonymous_args = 0
 147:Lib/lvgl/src/widgets/switch/lv_switch.c ****     lv_obj_t * obj = lv_event_get_current_target(e);
 361              		.loc 1 147 1 is_stmt 0 view .LVU98
 362 0000 2DE9F041 		push	{r4, r5, r6, r7, r8, lr}
 363              	.LCFI7:
 364              		.cfi_def_cfa_offset 24
 365              		.cfi_offset 4, -24
 366              		.cfi_offset 5, -20
 367              		.cfi_offset 6, -16
 368              		.cfi_offset 7, -12
 369              		.cfi_offset 8, -8
 370              		.cfi_offset 14, -4
 371 0004 C2B0     		sub	sp, sp, #264
ARM GAS  C:\Users\Alex\AppData\Local\Temp\ccEKNduN.s 			page 29


 372              	.LCFI8:
 373              		.cfi_def_cfa_offset 288
 374 0006 0546     		mov	r5, r0
 148:Lib/lvgl/src/widgets/switch/lv_switch.c ****     lv_switch_t * sw = (lv_switch_t *)obj;
 375              		.loc 1 148 5 is_stmt 1 view .LVU99
 148:Lib/lvgl/src/widgets/switch/lv_switch.c ****     lv_switch_t * sw = (lv_switch_t *)obj;
 376              		.loc 1 148 22 is_stmt 0 view .LVU100
 377 0008 FFF7FEFF 		bl	lv_event_get_current_target
 378              	.LVL35:
 148:Lib/lvgl/src/widgets/switch/lv_switch.c ****     lv_switch_t * sw = (lv_switch_t *)obj;
 379              		.loc 1 148 22 view .LVU101
 380 000c 0446     		mov	r4, r0
 381              	.LVL36:
 149:Lib/lvgl/src/widgets/switch/lv_switch.c **** 
 382              		.loc 1 149 5 is_stmt 1 view .LVU102
 151:Lib/lvgl/src/widgets/switch/lv_switch.c **** 
 383              		.loc 1 151 5 view .LVU103
 151:Lib/lvgl/src/widgets/switch/lv_switch.c **** 
 384              		.loc 1 151 26 is_stmt 0 view .LVU104
 385 000e 2846     		mov	r0, r5
 386              	.LVL37:
 151:Lib/lvgl/src/widgets/switch/lv_switch.c **** 
 387              		.loc 1 151 26 view .LVU105
 388 0010 FFF7FEFF 		bl	lv_event_get_layer
 389              	.LVL38:
 390 0014 0646     		mov	r6, r0
 391              	.LVL39:
 154:Lib/lvgl/src/widgets/switch/lv_switch.c ****     /*Exclude background's padding*/
 392              		.loc 1 154 5 is_stmt 1 view .LVU106
 156:Lib/lvgl/src/widgets/switch/lv_switch.c **** 
 393              		.loc 1 156 5 view .LVU107
 394 0016 3EA9     		add	r1, sp, #248
 395 0018 2046     		mov	r0, r4
 396              	.LVL40:
 156:Lib/lvgl/src/widgets/switch/lv_switch.c **** 
 397              		.loc 1 156 5 is_stmt 0 view .LVU108
 398 001a FFF7FEFF 		bl	lv_obj_get_content_coords
 399              	.LVL41:
 158:Lib/lvgl/src/widgets/switch/lv_switch.c ****     lv_draw_rect_dsc_init(&draw_indic_dsc);
 400              		.loc 1 158 5 is_stmt 1 view .LVU109
 159:Lib/lvgl/src/widgets/switch/lv_switch.c ****     lv_obj_init_draw_rect_dsc(obj, LV_PART_INDICATOR, &draw_indic_dsc);
 401              		.loc 1 159 5 view .LVU110
 402 001e 22A8     		add	r0, sp, #136
 403 0020 FFF7FEFF 		bl	lv_draw_rect_dsc_init
 404              	.LVL42:
 160:Lib/lvgl/src/widgets/switch/lv_switch.c ****     lv_draw_rect(layer, &draw_indic_dsc, &indic_area);
 405              		.loc 1 160 5 view .LVU111
 406 0024 22AA     		add	r2, sp, #136
 407 0026 4FF40031 		mov	r1, #131072
 408 002a 2046     		mov	r0, r4
 409 002c FFF7FEFF 		bl	lv_obj_init_draw_rect_dsc
 410              	.LVL43:
 161:Lib/lvgl/src/widgets/switch/lv_switch.c **** 
 411              		.loc 1 161 5 view .LVU112
 412 0030 3EAA     		add	r2, sp, #248
 413 0032 22A9     		add	r1, sp, #136
 414 0034 3046     		mov	r0, r6
ARM GAS  C:\Users\Alex\AppData\Local\Temp\ccEKNduN.s 			page 30


 415 0036 FFF7FEFF 		bl	lv_draw_rect
 416              	.LVL44:
 164:Lib/lvgl/src/widgets/switch/lv_switch.c ****     int32_t knob_size = lv_obj_get_height(obj);
 417              		.loc 1 164 5 view .LVU113
 165:Lib/lvgl/src/widgets/switch/lv_switch.c ****     int32_t anim_length = lv_area_get_width(&obj->coords) - knob_size;
 418              		.loc 1 165 5 view .LVU114
 165:Lib/lvgl/src/widgets/switch/lv_switch.c ****     int32_t anim_length = lv_area_get_width(&obj->coords) - knob_size;
 419              		.loc 1 165 25 is_stmt 0 view .LVU115
 420 003a 2046     		mov	r0, r4
 421 003c FFF7FEFF 		bl	lv_obj_get_height
 422              	.LVL45:
 423 0040 0546     		mov	r5, r0
 424              	.LVL46:
 166:Lib/lvgl/src/widgets/switch/lv_switch.c **** 
 425              		.loc 1 166 5 is_stmt 1 view .LVU116
 426              	.LBB53:
 427              	.LBI53:
 428              		.file 4 "c:\\users\\alex\\eclipse-workspace\\lvgs_test\\lib\\lvgl\\src\\misc\\lv_area.h"
   1:c:\users\alex\eclipse-workspace\lvgs_test\lib\lvgl\src\misc\lv_area.h **** /**
   2:c:\users\alex\eclipse-workspace\lvgs_test\lib\lvgl\src\misc\lv_area.h ****  * @file lv_area.h
   3:c:\users\alex\eclipse-workspace\lvgs_test\lib\lvgl\src\misc\lv_area.h ****  *
   4:c:\users\alex\eclipse-workspace\lvgs_test\lib\lvgl\src\misc\lv_area.h ****  */
   5:c:\users\alex\eclipse-workspace\lvgs_test\lib\lvgl\src\misc\lv_area.h **** 
   6:c:\users\alex\eclipse-workspace\lvgs_test\lib\lvgl\src\misc\lv_area.h **** #ifndef LV_AREA_H
   7:c:\users\alex\eclipse-workspace\lvgs_test\lib\lvgl\src\misc\lv_area.h **** #define LV_AREA_H
   8:c:\users\alex\eclipse-workspace\lvgs_test\lib\lvgl\src\misc\lv_area.h **** 
   9:c:\users\alex\eclipse-workspace\lvgs_test\lib\lvgl\src\misc\lv_area.h **** #ifdef __cplusplus
  10:c:\users\alex\eclipse-workspace\lvgs_test\lib\lvgl\src\misc\lv_area.h **** extern "C" {
  11:c:\users\alex\eclipse-workspace\lvgs_test\lib\lvgl\src\misc\lv_area.h **** #endif
  12:c:\users\alex\eclipse-workspace\lvgs_test\lib\lvgl\src\misc\lv_area.h **** 
  13:c:\users\alex\eclipse-workspace\lvgs_test\lib\lvgl\src\misc\lv_area.h **** /*********************
  14:c:\users\alex\eclipse-workspace\lvgs_test\lib\lvgl\src\misc\lv_area.h ****  *      INCLUDES
  15:c:\users\alex\eclipse-workspace\lvgs_test\lib\lvgl\src\misc\lv_area.h ****  *********************/
  16:c:\users\alex\eclipse-workspace\lvgs_test\lib\lvgl\src\misc\lv_area.h **** #include "../lv_conf_internal.h"
  17:c:\users\alex\eclipse-workspace\lvgs_test\lib\lvgl\src\misc\lv_area.h **** #include "lv_types.h"
  18:c:\users\alex\eclipse-workspace\lvgs_test\lib\lvgl\src\misc\lv_area.h **** #include <stdbool.h>
  19:c:\users\alex\eclipse-workspace\lvgs_test\lib\lvgl\src\misc\lv_area.h **** #include <stdint.h>
  20:c:\users\alex\eclipse-workspace\lvgs_test\lib\lvgl\src\misc\lv_area.h **** 
  21:c:\users\alex\eclipse-workspace\lvgs_test\lib\lvgl\src\misc\lv_area.h **** /*********************
  22:c:\users\alex\eclipse-workspace\lvgs_test\lib\lvgl\src\misc\lv_area.h ****  *      DEFINES
  23:c:\users\alex\eclipse-workspace\lvgs_test\lib\lvgl\src\misc\lv_area.h ****  *********************/
  24:c:\users\alex\eclipse-workspace\lvgs_test\lib\lvgl\src\misc\lv_area.h **** 
  25:c:\users\alex\eclipse-workspace\lvgs_test\lib\lvgl\src\misc\lv_area.h **** /**********************
  26:c:\users\alex\eclipse-workspace\lvgs_test\lib\lvgl\src\misc\lv_area.h ****  *      TYPEDEFS
  27:c:\users\alex\eclipse-workspace\lvgs_test\lib\lvgl\src\misc\lv_area.h ****  **********************/
  28:c:\users\alex\eclipse-workspace\lvgs_test\lib\lvgl\src\misc\lv_area.h **** 
  29:c:\users\alex\eclipse-workspace\lvgs_test\lib\lvgl\src\misc\lv_area.h **** /**
  30:c:\users\alex\eclipse-workspace\lvgs_test\lib\lvgl\src\misc\lv_area.h ****  * Represents a point on the screen.
  31:c:\users\alex\eclipse-workspace\lvgs_test\lib\lvgl\src\misc\lv_area.h ****  */
  32:c:\users\alex\eclipse-workspace\lvgs_test\lib\lvgl\src\misc\lv_area.h **** typedef struct {
  33:c:\users\alex\eclipse-workspace\lvgs_test\lib\lvgl\src\misc\lv_area.h ****     int32_t x;
  34:c:\users\alex\eclipse-workspace\lvgs_test\lib\lvgl\src\misc\lv_area.h ****     int32_t y;
  35:c:\users\alex\eclipse-workspace\lvgs_test\lib\lvgl\src\misc\lv_area.h **** } lv_point_t;
  36:c:\users\alex\eclipse-workspace\lvgs_test\lib\lvgl\src\misc\lv_area.h **** 
  37:c:\users\alex\eclipse-workspace\lvgs_test\lib\lvgl\src\misc\lv_area.h **** typedef struct {
  38:c:\users\alex\eclipse-workspace\lvgs_test\lib\lvgl\src\misc\lv_area.h ****     lv_value_precise_t x;
  39:c:\users\alex\eclipse-workspace\lvgs_test\lib\lvgl\src\misc\lv_area.h ****     lv_value_precise_t y;
ARM GAS  C:\Users\Alex\AppData\Local\Temp\ccEKNduN.s 			page 31


  40:c:\users\alex\eclipse-workspace\lvgs_test\lib\lvgl\src\misc\lv_area.h **** } lv_point_precise_t;
  41:c:\users\alex\eclipse-workspace\lvgs_test\lib\lvgl\src\misc\lv_area.h **** 
  42:c:\users\alex\eclipse-workspace\lvgs_test\lib\lvgl\src\misc\lv_area.h **** /** Represents an area of the screen.*/
  43:c:\users\alex\eclipse-workspace\lvgs_test\lib\lvgl\src\misc\lv_area.h **** typedef struct {
  44:c:\users\alex\eclipse-workspace\lvgs_test\lib\lvgl\src\misc\lv_area.h ****     int32_t x1;
  45:c:\users\alex\eclipse-workspace\lvgs_test\lib\lvgl\src\misc\lv_area.h ****     int32_t y1;
  46:c:\users\alex\eclipse-workspace\lvgs_test\lib\lvgl\src\misc\lv_area.h ****     int32_t x2;
  47:c:\users\alex\eclipse-workspace\lvgs_test\lib\lvgl\src\misc\lv_area.h ****     int32_t y2;
  48:c:\users\alex\eclipse-workspace\lvgs_test\lib\lvgl\src\misc\lv_area.h **** } lv_area_t;
  49:c:\users\alex\eclipse-workspace\lvgs_test\lib\lvgl\src\misc\lv_area.h **** 
  50:c:\users\alex\eclipse-workspace\lvgs_test\lib\lvgl\src\misc\lv_area.h **** /** Alignments*/
  51:c:\users\alex\eclipse-workspace\lvgs_test\lib\lvgl\src\misc\lv_area.h **** 
  52:c:\users\alex\eclipse-workspace\lvgs_test\lib\lvgl\src\misc\lv_area.h **** enum _lv_align_t {
  53:c:\users\alex\eclipse-workspace\lvgs_test\lib\lvgl\src\misc\lv_area.h ****     LV_ALIGN_DEFAULT = 0,
  54:c:\users\alex\eclipse-workspace\lvgs_test\lib\lvgl\src\misc\lv_area.h ****     LV_ALIGN_TOP_LEFT,
  55:c:\users\alex\eclipse-workspace\lvgs_test\lib\lvgl\src\misc\lv_area.h ****     LV_ALIGN_TOP_MID,
  56:c:\users\alex\eclipse-workspace\lvgs_test\lib\lvgl\src\misc\lv_area.h ****     LV_ALIGN_TOP_RIGHT,
  57:c:\users\alex\eclipse-workspace\lvgs_test\lib\lvgl\src\misc\lv_area.h ****     LV_ALIGN_BOTTOM_LEFT,
  58:c:\users\alex\eclipse-workspace\lvgs_test\lib\lvgl\src\misc\lv_area.h ****     LV_ALIGN_BOTTOM_MID,
  59:c:\users\alex\eclipse-workspace\lvgs_test\lib\lvgl\src\misc\lv_area.h ****     LV_ALIGN_BOTTOM_RIGHT,
  60:c:\users\alex\eclipse-workspace\lvgs_test\lib\lvgl\src\misc\lv_area.h ****     LV_ALIGN_LEFT_MID,
  61:c:\users\alex\eclipse-workspace\lvgs_test\lib\lvgl\src\misc\lv_area.h ****     LV_ALIGN_RIGHT_MID,
  62:c:\users\alex\eclipse-workspace\lvgs_test\lib\lvgl\src\misc\lv_area.h ****     LV_ALIGN_CENTER,
  63:c:\users\alex\eclipse-workspace\lvgs_test\lib\lvgl\src\misc\lv_area.h **** 
  64:c:\users\alex\eclipse-workspace\lvgs_test\lib\lvgl\src\misc\lv_area.h ****     LV_ALIGN_OUT_TOP_LEFT,
  65:c:\users\alex\eclipse-workspace\lvgs_test\lib\lvgl\src\misc\lv_area.h ****     LV_ALIGN_OUT_TOP_MID,
  66:c:\users\alex\eclipse-workspace\lvgs_test\lib\lvgl\src\misc\lv_area.h ****     LV_ALIGN_OUT_TOP_RIGHT,
  67:c:\users\alex\eclipse-workspace\lvgs_test\lib\lvgl\src\misc\lv_area.h ****     LV_ALIGN_OUT_BOTTOM_LEFT,
  68:c:\users\alex\eclipse-workspace\lvgs_test\lib\lvgl\src\misc\lv_area.h ****     LV_ALIGN_OUT_BOTTOM_MID,
  69:c:\users\alex\eclipse-workspace\lvgs_test\lib\lvgl\src\misc\lv_area.h ****     LV_ALIGN_OUT_BOTTOM_RIGHT,
  70:c:\users\alex\eclipse-workspace\lvgs_test\lib\lvgl\src\misc\lv_area.h ****     LV_ALIGN_OUT_LEFT_TOP,
  71:c:\users\alex\eclipse-workspace\lvgs_test\lib\lvgl\src\misc\lv_area.h ****     LV_ALIGN_OUT_LEFT_MID,
  72:c:\users\alex\eclipse-workspace\lvgs_test\lib\lvgl\src\misc\lv_area.h ****     LV_ALIGN_OUT_LEFT_BOTTOM,
  73:c:\users\alex\eclipse-workspace\lvgs_test\lib\lvgl\src\misc\lv_area.h ****     LV_ALIGN_OUT_RIGHT_TOP,
  74:c:\users\alex\eclipse-workspace\lvgs_test\lib\lvgl\src\misc\lv_area.h ****     LV_ALIGN_OUT_RIGHT_MID,
  75:c:\users\alex\eclipse-workspace\lvgs_test\lib\lvgl\src\misc\lv_area.h ****     LV_ALIGN_OUT_RIGHT_BOTTOM,
  76:c:\users\alex\eclipse-workspace\lvgs_test\lib\lvgl\src\misc\lv_area.h **** };
  77:c:\users\alex\eclipse-workspace\lvgs_test\lib\lvgl\src\misc\lv_area.h **** 
  78:c:\users\alex\eclipse-workspace\lvgs_test\lib\lvgl\src\misc\lv_area.h **** #ifdef DOXYGEN
  79:c:\users\alex\eclipse-workspace\lvgs_test\lib\lvgl\src\misc\lv_area.h **** typedef _lv_align_t lv_align_t;
  80:c:\users\alex\eclipse-workspace\lvgs_test\lib\lvgl\src\misc\lv_area.h **** #else
  81:c:\users\alex\eclipse-workspace\lvgs_test\lib\lvgl\src\misc\lv_area.h **** typedef uint8_t lv_align_t;
  82:c:\users\alex\eclipse-workspace\lvgs_test\lib\lvgl\src\misc\lv_area.h **** #endif /*DOXYGEN*/
  83:c:\users\alex\eclipse-workspace\lvgs_test\lib\lvgl\src\misc\lv_area.h **** 
  84:c:\users\alex\eclipse-workspace\lvgs_test\lib\lvgl\src\misc\lv_area.h **** enum _lv_dir_t {
  85:c:\users\alex\eclipse-workspace\lvgs_test\lib\lvgl\src\misc\lv_area.h ****     LV_DIR_NONE     = 0x00,
  86:c:\users\alex\eclipse-workspace\lvgs_test\lib\lvgl\src\misc\lv_area.h ****     LV_DIR_LEFT     = (1 << 0),
  87:c:\users\alex\eclipse-workspace\lvgs_test\lib\lvgl\src\misc\lv_area.h ****     LV_DIR_RIGHT    = (1 << 1),
  88:c:\users\alex\eclipse-workspace\lvgs_test\lib\lvgl\src\misc\lv_area.h ****     LV_DIR_TOP      = (1 << 2),
  89:c:\users\alex\eclipse-workspace\lvgs_test\lib\lvgl\src\misc\lv_area.h ****     LV_DIR_BOTTOM   = (1 << 3),
  90:c:\users\alex\eclipse-workspace\lvgs_test\lib\lvgl\src\misc\lv_area.h ****     LV_DIR_HOR      = LV_DIR_LEFT | LV_DIR_RIGHT,
  91:c:\users\alex\eclipse-workspace\lvgs_test\lib\lvgl\src\misc\lv_area.h ****     LV_DIR_VER      = LV_DIR_TOP | LV_DIR_BOTTOM,
  92:c:\users\alex\eclipse-workspace\lvgs_test\lib\lvgl\src\misc\lv_area.h ****     LV_DIR_ALL      = LV_DIR_HOR | LV_DIR_VER,
  93:c:\users\alex\eclipse-workspace\lvgs_test\lib\lvgl\src\misc\lv_area.h **** };
  94:c:\users\alex\eclipse-workspace\lvgs_test\lib\lvgl\src\misc\lv_area.h **** 
  95:c:\users\alex\eclipse-workspace\lvgs_test\lib\lvgl\src\misc\lv_area.h **** #ifdef DOXYGEN
  96:c:\users\alex\eclipse-workspace\lvgs_test\lib\lvgl\src\misc\lv_area.h **** typedef _lv_dir_t lv_dir_t;
ARM GAS  C:\Users\Alex\AppData\Local\Temp\ccEKNduN.s 			page 32


  97:c:\users\alex\eclipse-workspace\lvgs_test\lib\lvgl\src\misc\lv_area.h **** #else
  98:c:\users\alex\eclipse-workspace\lvgs_test\lib\lvgl\src\misc\lv_area.h **** typedef uint8_t lv_dir_t;
  99:c:\users\alex\eclipse-workspace\lvgs_test\lib\lvgl\src\misc\lv_area.h **** #endif /*DOXYGEN*/
 100:c:\users\alex\eclipse-workspace\lvgs_test\lib\lvgl\src\misc\lv_area.h **** 
 101:c:\users\alex\eclipse-workspace\lvgs_test\lib\lvgl\src\misc\lv_area.h **** typedef struct  {
 102:c:\users\alex\eclipse-workspace\lvgs_test\lib\lvgl\src\misc\lv_area.h ****     int32_t angle_prev;
 103:c:\users\alex\eclipse-workspace\lvgs_test\lib\lvgl\src\misc\lv_area.h ****     int32_t sinma;
 104:c:\users\alex\eclipse-workspace\lvgs_test\lib\lvgl\src\misc\lv_area.h ****     int32_t cosma;
 105:c:\users\alex\eclipse-workspace\lvgs_test\lib\lvgl\src\misc\lv_area.h **** } lv_area_transform_cache_t;
 106:c:\users\alex\eclipse-workspace\lvgs_test\lib\lvgl\src\misc\lv_area.h **** 
 107:c:\users\alex\eclipse-workspace\lvgs_test\lib\lvgl\src\misc\lv_area.h **** /**********************
 108:c:\users\alex\eclipse-workspace\lvgs_test\lib\lvgl\src\misc\lv_area.h ****  * GLOBAL PROTOTYPES
 109:c:\users\alex\eclipse-workspace\lvgs_test\lib\lvgl\src\misc\lv_area.h ****  **********************/
 110:c:\users\alex\eclipse-workspace\lvgs_test\lib\lvgl\src\misc\lv_area.h **** 
 111:c:\users\alex\eclipse-workspace\lvgs_test\lib\lvgl\src\misc\lv_area.h **** /**
 112:c:\users\alex\eclipse-workspace\lvgs_test\lib\lvgl\src\misc\lv_area.h ****  * Initialize an area
 113:c:\users\alex\eclipse-workspace\lvgs_test\lib\lvgl\src\misc\lv_area.h ****  * @param area_p pointer to an area
 114:c:\users\alex\eclipse-workspace\lvgs_test\lib\lvgl\src\misc\lv_area.h ****  * @param x1 left coordinate of the area
 115:c:\users\alex\eclipse-workspace\lvgs_test\lib\lvgl\src\misc\lv_area.h ****  * @param y1 top coordinate of the area
 116:c:\users\alex\eclipse-workspace\lvgs_test\lib\lvgl\src\misc\lv_area.h ****  * @param x2 right coordinate of the area
 117:c:\users\alex\eclipse-workspace\lvgs_test\lib\lvgl\src\misc\lv_area.h ****  * @param y2 bottom coordinate of the area
 118:c:\users\alex\eclipse-workspace\lvgs_test\lib\lvgl\src\misc\lv_area.h ****  */
 119:c:\users\alex\eclipse-workspace\lvgs_test\lib\lvgl\src\misc\lv_area.h **** void lv_area_set(lv_area_t * area_p, int32_t x1, int32_t y1, int32_t x2, int32_t y2);
 120:c:\users\alex\eclipse-workspace\lvgs_test\lib\lvgl\src\misc\lv_area.h **** 
 121:c:\users\alex\eclipse-workspace\lvgs_test\lib\lvgl\src\misc\lv_area.h **** /**
 122:c:\users\alex\eclipse-workspace\lvgs_test\lib\lvgl\src\misc\lv_area.h ****  * Copy an area
 123:c:\users\alex\eclipse-workspace\lvgs_test\lib\lvgl\src\misc\lv_area.h ****  * @param dest pointer to the destination area
 124:c:\users\alex\eclipse-workspace\lvgs_test\lib\lvgl\src\misc\lv_area.h ****  * @param src pointer to the source area
 125:c:\users\alex\eclipse-workspace\lvgs_test\lib\lvgl\src\misc\lv_area.h ****  */
 126:c:\users\alex\eclipse-workspace\lvgs_test\lib\lvgl\src\misc\lv_area.h **** inline static void lv_area_copy(lv_area_t * dest, const lv_area_t * src)
 127:c:\users\alex\eclipse-workspace\lvgs_test\lib\lvgl\src\misc\lv_area.h **** {
 128:c:\users\alex\eclipse-workspace\lvgs_test\lib\lvgl\src\misc\lv_area.h ****     dest->x1 = src->x1;
 129:c:\users\alex\eclipse-workspace\lvgs_test\lib\lvgl\src\misc\lv_area.h ****     dest->y1 = src->y1;
 130:c:\users\alex\eclipse-workspace\lvgs_test\lib\lvgl\src\misc\lv_area.h ****     dest->x2 = src->x2;
 131:c:\users\alex\eclipse-workspace\lvgs_test\lib\lvgl\src\misc\lv_area.h ****     dest->y2 = src->y2;
 132:c:\users\alex\eclipse-workspace\lvgs_test\lib\lvgl\src\misc\lv_area.h **** }
 133:c:\users\alex\eclipse-workspace\lvgs_test\lib\lvgl\src\misc\lv_area.h **** 
 134:c:\users\alex\eclipse-workspace\lvgs_test\lib\lvgl\src\misc\lv_area.h **** /**
 135:c:\users\alex\eclipse-workspace\lvgs_test\lib\lvgl\src\misc\lv_area.h ****  * Get the width of an area
 136:c:\users\alex\eclipse-workspace\lvgs_test\lib\lvgl\src\misc\lv_area.h ****  * @param area_p pointer to an area
 137:c:\users\alex\eclipse-workspace\lvgs_test\lib\lvgl\src\misc\lv_area.h ****  * @return the width of the area (if x1 == x2 -> width = 1)
 138:c:\users\alex\eclipse-workspace\lvgs_test\lib\lvgl\src\misc\lv_area.h ****  */
 139:c:\users\alex\eclipse-workspace\lvgs_test\lib\lvgl\src\misc\lv_area.h **** static inline int32_t lv_area_get_width(const lv_area_t * area_p)
 429              		.loc 4 139 23 view .LVU117
 430              	.LBB54:
 140:c:\users\alex\eclipse-workspace\lvgs_test\lib\lvgl\src\misc\lv_area.h **** {
 141:c:\users\alex\eclipse-workspace\lvgs_test\lib\lvgl\src\misc\lv_area.h ****     return (int32_t)(area_p->x2 - area_p->x1 + 1);
 431              		.loc 4 141 5 view .LVU118
 432              		.loc 4 141 28 is_stmt 0 view .LVU119
 433 0042 E369     		ldr	r3, [r4, #28]
 434              		.loc 4 141 41 view .LVU120
 435 0044 6269     		ldr	r2, [r4, #20]
 436              		.loc 4 141 33 view .LVU121
 437 0046 9B1A     		subs	r3, r3, r2
 438              		.loc 4 141 12 view .LVU122
 439 0048 0133     		adds	r3, r3, #1
 440              	.LVL47:
ARM GAS  C:\Users\Alex\AppData\Local\Temp\ccEKNduN.s 			page 33


 441              		.loc 4 141 12 view .LVU123
 442              	.LBE54:
 443              	.LBE53:
 166:Lib/lvgl/src/widgets/switch/lv_switch.c **** 
 444              		.loc 1 166 13 view .LVU124
 445 004a 1F1A     		subs	r7, r3, r0
 446              	.LVL48:
 168:Lib/lvgl/src/widgets/switch/lv_switch.c ****         /* Use the animation's coordinate */
 447              		.loc 1 168 5 is_stmt 1 view .LVU125
 168:Lib/lvgl/src/widgets/switch/lv_switch.c ****         /* Use the animation's coordinate */
 448              		.loc 1 168 8 is_stmt 0 view .LVU126
 449 004c E36A     		ldr	r3, [r4, #44]
 168:Lib/lvgl/src/widgets/switch/lv_switch.c ****         /* Use the animation's coordinate */
 450              		.loc 1 168 7 view .LVU127
 451 004e B3F1FF3F 		cmp	r3, #-1
 452 0052 5DD0     		beq	.L19
 170:Lib/lvgl/src/widgets/switch/lv_switch.c ****     }
 453              		.loc 1 170 9 is_stmt 1 view .LVU128
 170:Lib/lvgl/src/widgets/switch/lv_switch.c ****     }
 454              		.loc 1 170 37 is_stmt 0 view .LVU129
 455 0054 07FB03F3 		mul	r3, r7, r3
 170:Lib/lvgl/src/widgets/switch/lv_switch.c ****     }
 456              		.loc 1 170 22 view .LVU130
 457 0058 002B     		cmp	r3, #0
 458 005a 57DB     		blt	.L25
 459              	.L20:
 460 005c 4FEA2328 		asr	r8, r3, #8
 461              	.LVL49:
 462              	.L21:
 178:Lib/lvgl/src/widgets/switch/lv_switch.c ****         anim_value_x = anim_length - anim_value_x;
 463              		.loc 1 178 5 is_stmt 1 view .LVU131
 464              	.LBB55:
 465              	.LBI55:
 614:Lib/lvgl/src/widgets/switch/../../core/lv_obj_style_gen.h **** }
 615:Lib/lvgl/src/widgets/switch/../../core/lv_obj_style_gen.h **** 
 616:Lib/lvgl/src/widgets/switch/../../core/lv_obj_style_gen.h **** static inline const lv_style_transition_dsc_t * lv_obj_get_style_transition(const lv_obj_t * obj, u
 617:Lib/lvgl/src/widgets/switch/../../core/lv_obj_style_gen.h **** {
 618:Lib/lvgl/src/widgets/switch/../../core/lv_obj_style_gen.h ****     lv_style_value_t v = lv_obj_get_style_prop(obj, part, LV_STYLE_TRANSITION);
 619:Lib/lvgl/src/widgets/switch/../../core/lv_obj_style_gen.h ****     return (const lv_style_transition_dsc_t *)v.ptr;
 620:Lib/lvgl/src/widgets/switch/../../core/lv_obj_style_gen.h **** }
 621:Lib/lvgl/src/widgets/switch/../../core/lv_obj_style_gen.h **** 
 622:Lib/lvgl/src/widgets/switch/../../core/lv_obj_style_gen.h **** static inline lv_blend_mode_t lv_obj_get_style_blend_mode(const lv_obj_t * obj, uint32_t part)
 623:Lib/lvgl/src/widgets/switch/../../core/lv_obj_style_gen.h **** {
 624:Lib/lvgl/src/widgets/switch/../../core/lv_obj_style_gen.h ****     lv_style_value_t v = lv_obj_get_style_prop(obj, part, LV_STYLE_BLEND_MODE);
 625:Lib/lvgl/src/widgets/switch/../../core/lv_obj_style_gen.h ****     return (lv_blend_mode_t)v.num;
 626:Lib/lvgl/src/widgets/switch/../../core/lv_obj_style_gen.h **** }
 627:Lib/lvgl/src/widgets/switch/../../core/lv_obj_style_gen.h **** 
 628:Lib/lvgl/src/widgets/switch/../../core/lv_obj_style_gen.h **** static inline uint16_t lv_obj_get_style_layout(const lv_obj_t * obj, uint32_t part)
 629:Lib/lvgl/src/widgets/switch/../../core/lv_obj_style_gen.h **** {
 630:Lib/lvgl/src/widgets/switch/../../core/lv_obj_style_gen.h ****     lv_style_value_t v = lv_obj_get_style_prop(obj, part, LV_STYLE_LAYOUT);
 631:Lib/lvgl/src/widgets/switch/../../core/lv_obj_style_gen.h ****     return (uint16_t)v.num;
 632:Lib/lvgl/src/widgets/switch/../../core/lv_obj_style_gen.h **** }
 633:Lib/lvgl/src/widgets/switch/../../core/lv_obj_style_gen.h **** 
 634:Lib/lvgl/src/widgets/switch/../../core/lv_obj_style_gen.h **** static inline lv_base_dir_t lv_obj_get_style_base_dir(const lv_obj_t * obj, uint32_t part)
 466              		.loc 2 634 29 view .LVU132
 467              	.LBB56:
 635:Lib/lvgl/src/widgets/switch/../../core/lv_obj_style_gen.h **** {
ARM GAS  C:\Users\Alex\AppData\Local\Temp\ccEKNduN.s 			page 34


 636:Lib/lvgl/src/widgets/switch/../../core/lv_obj_style_gen.h ****     lv_style_value_t v = lv_obj_get_style_prop(obj, part, LV_STYLE_BASE_DIR);
 468              		.loc 2 636 5 view .LVU133
 469              		.loc 2 636 26 is_stmt 0 view .LVU134
 470 0060 2722     		movs	r2, #39
 471 0062 0021     		movs	r1, #0
 472 0064 2046     		mov	r0, r4
 473 0066 FFF7FEFF 		bl	lv_obj_get_style_prop
 474              	.LVL50:
 475 006a 0190     		str	r0, [sp, #4]
 637:Lib/lvgl/src/widgets/switch/../../core/lv_obj_style_gen.h ****     return (lv_base_dir_t)v.num;
 476              		.loc 2 637 5 is_stmt 1 view .LVU135
 477              		.loc 2 637 12 is_stmt 0 view .LVU136
 478 006c C0B2     		uxtb	r0, r0
 479              	.LVL51:
 480              		.loc 2 637 12 view .LVU137
 481              	.LBE56:
 482              	.LBE55:
 178:Lib/lvgl/src/widgets/switch/lv_switch.c ****         anim_value_x = anim_length - anim_value_x;
 483              		.loc 1 178 7 view .LVU138
 484 006e 0128     		cmp	r0, #1
 485 0070 59D0     		beq	.L26
 486              	.L22:
 182:Lib/lvgl/src/widgets/switch/lv_switch.c ****     lv_area_copy(&knob_area, &obj->coords);
 487              		.loc 1 182 5 is_stmt 1 view .LVU139
 183:Lib/lvgl/src/widgets/switch/lv_switch.c ****     knob_area.x1 += anim_value_x;
 488              		.loc 1 183 5 view .LVU140
 489              	.LVL52:
 490              	.LBB57:
 491              	.LBI57:
 126:c:\users\alex\eclipse-workspace\lvgs_test\lib\lvgl\src\misc\lv_area.h **** {
 492              		.loc 4 126 20 view .LVU141
 493              	.LBB58:
 128:c:\users\alex\eclipse-workspace\lvgs_test\lib\lvgl\src\misc\lv_area.h ****     dest->y1 = src->y1;
 494              		.loc 4 128 5 view .LVU142
 128:c:\users\alex\eclipse-workspace\lvgs_test\lib\lvgl\src\misc\lv_area.h ****     dest->y1 = src->y1;
 495              		.loc 4 128 19 is_stmt 0 view .LVU143
 496 0072 6369     		ldr	r3, [r4, #20]
 128:c:\users\alex\eclipse-workspace\lvgs_test\lib\lvgl\src\misc\lv_area.h ****     dest->y1 = src->y1;
 497              		.loc 4 128 14 view .LVU144
 498 0074 1E93     		str	r3, [sp, #120]
 129:c:\users\alex\eclipse-workspace\lvgs_test\lib\lvgl\src\misc\lv_area.h ****     dest->x2 = src->x2;
 499              		.loc 4 129 5 is_stmt 1 view .LVU145
 129:c:\users\alex\eclipse-workspace\lvgs_test\lib\lvgl\src\misc\lv_area.h ****     dest->x2 = src->x2;
 500              		.loc 4 129 19 is_stmt 0 view .LVU146
 501 0076 A269     		ldr	r2, [r4, #24]
 129:c:\users\alex\eclipse-workspace\lvgs_test\lib\lvgl\src\misc\lv_area.h ****     dest->x2 = src->x2;
 502              		.loc 4 129 14 view .LVU147
 503 0078 1F92     		str	r2, [sp, #124]
 130:c:\users\alex\eclipse-workspace\lvgs_test\lib\lvgl\src\misc\lv_area.h ****     dest->y2 = src->y2;
 504              		.loc 4 130 5 is_stmt 1 view .LVU148
 130:c:\users\alex\eclipse-workspace\lvgs_test\lib\lvgl\src\misc\lv_area.h ****     dest->y2 = src->y2;
 505              		.loc 4 130 19 is_stmt 0 view .LVU149
 506 007a E269     		ldr	r2, [r4, #28]
 130:c:\users\alex\eclipse-workspace\lvgs_test\lib\lvgl\src\misc\lv_area.h ****     dest->y2 = src->y2;
 507              		.loc 4 130 14 view .LVU150
 508 007c 2092     		str	r2, [sp, #128]
 131:c:\users\alex\eclipse-workspace\lvgs_test\lib\lvgl\src\misc\lv_area.h **** }
ARM GAS  C:\Users\Alex\AppData\Local\Temp\ccEKNduN.s 			page 35


 509              		.loc 4 131 5 is_stmt 1 view .LVU151
 131:c:\users\alex\eclipse-workspace\lvgs_test\lib\lvgl\src\misc\lv_area.h **** }
 510              		.loc 4 131 19 is_stmt 0 view .LVU152
 511 007e 226A     		ldr	r2, [r4, #32]
 131:c:\users\alex\eclipse-workspace\lvgs_test\lib\lvgl\src\misc\lv_area.h **** }
 512              		.loc 4 131 14 view .LVU153
 513 0080 2192     		str	r2, [sp, #132]
 514              	.LVL53:
 131:c:\users\alex\eclipse-workspace\lvgs_test\lib\lvgl\src\misc\lv_area.h **** }
 515              		.loc 4 131 14 view .LVU154
 516              	.LBE58:
 517              	.LBE57:
 184:Lib/lvgl/src/widgets/switch/lv_switch.c ****     knob_area.x2 = knob_area.x1 + (knob_size > 0 ? knob_size - 1 : 0);
 518              		.loc 1 184 5 is_stmt 1 view .LVU155
 184:Lib/lvgl/src/widgets/switch/lv_switch.c ****     knob_area.x2 = knob_area.x1 + (knob_size > 0 ? knob_size - 1 : 0);
 519              		.loc 1 184 18 is_stmt 0 view .LVU156
 520 0082 4344     		add	r3, r3, r8
 521 0084 1E93     		str	r3, [sp, #120]
 185:Lib/lvgl/src/widgets/switch/lv_switch.c **** 
 522              		.loc 1 185 5 is_stmt 1 view .LVU157
 185:Lib/lvgl/src/widgets/switch/lv_switch.c **** 
 523              		.loc 1 185 66 is_stmt 0 view .LVU158
 524 0086 012D     		cmp	r5, #1
 525 0088 B8BF     		it	lt
 526 008a 0125     		movlt	r5, #1
 527              	.LVL54:
 185:Lib/lvgl/src/widgets/switch/lv_switch.c **** 
 528              		.loc 1 185 66 view .LVU159
 529 008c 013D     		subs	r5, r5, #1
 185:Lib/lvgl/src/widgets/switch/lv_switch.c **** 
 530              		.loc 1 185 33 view .LVU160
 531 008e 2B44     		add	r3, r3, r5
 185:Lib/lvgl/src/widgets/switch/lv_switch.c **** 
 532              		.loc 1 185 18 view .LVU161
 533 0090 2093     		str	r3, [sp, #128]
 187:Lib/lvgl/src/widgets/switch/lv_switch.c ****     int32_t knob_right = lv_obj_get_style_pad_right(obj, LV_PART_KNOB);
 534              		.loc 1 187 5 is_stmt 1 view .LVU162
 535              	.LVL55:
 536              	.LBB59:
 537              	.LBI59:
 154:Lib/lvgl/src/widgets/switch/../../core/lv_obj_style_gen.h **** {
 538              		.loc 2 154 23 view .LVU163
 539              	.LBB60:
 156:Lib/lvgl/src/widgets/switch/../../core/lv_obj_style_gen.h ****     return (int32_t)v.num;
 540              		.loc 2 156 5 view .LVU164
 156:Lib/lvgl/src/widgets/switch/../../core/lv_obj_style_gen.h ****     return (int32_t)v.num;
 541              		.loc 2 156 26 is_stmt 0 view .LVU165
 542 0092 1222     		movs	r2, #18
 543 0094 4FF44031 		mov	r1, #196608
 544 0098 2046     		mov	r0, r4
 545 009a FFF7FEFF 		bl	lv_obj_get_style_prop
 546              	.LVL56:
 547 009e 8046     		mov	r8, r0
 548              	.LVL57:
 156:Lib/lvgl/src/widgets/switch/../../core/lv_obj_style_gen.h ****     return (int32_t)v.num;
 549              		.loc 2 156 26 view .LVU166
 550 00a0 0190     		str	r0, [sp, #4]
ARM GAS  C:\Users\Alex\AppData\Local\Temp\ccEKNduN.s 			page 36


 157:Lib/lvgl/src/widgets/switch/../../core/lv_obj_style_gen.h **** }
 551              		.loc 2 157 5 is_stmt 1 view .LVU167
 552              	.LVL58:
 157:Lib/lvgl/src/widgets/switch/../../core/lv_obj_style_gen.h **** }
 553              		.loc 2 157 5 is_stmt 0 view .LVU168
 554              	.LBE60:
 555              	.LBE59:
 188:Lib/lvgl/src/widgets/switch/lv_switch.c ****     int32_t knob_top = lv_obj_get_style_pad_top(obj, LV_PART_KNOB);
 556              		.loc 1 188 5 is_stmt 1 view .LVU169
 557              	.LBB61:
 558              	.LBI61:
 160:Lib/lvgl/src/widgets/switch/../../core/lv_obj_style_gen.h **** {
 559              		.loc 2 160 23 view .LVU170
 560              	.LBB62:
 162:Lib/lvgl/src/widgets/switch/../../core/lv_obj_style_gen.h ****     return (int32_t)v.num;
 561              		.loc 2 162 5 view .LVU171
 162:Lib/lvgl/src/widgets/switch/../../core/lv_obj_style_gen.h ****     return (int32_t)v.num;
 562              		.loc 2 162 26 is_stmt 0 view .LVU172
 563 00a2 1322     		movs	r2, #19
 564 00a4 4FF44031 		mov	r1, #196608
 565 00a8 2046     		mov	r0, r4
 566              	.LVL59:
 162:Lib/lvgl/src/widgets/switch/../../core/lv_obj_style_gen.h ****     return (int32_t)v.num;
 567              		.loc 2 162 26 view .LVU173
 568 00aa FFF7FEFF 		bl	lv_obj_get_style_prop
 569              	.LVL60:
 570 00ae 0746     		mov	r7, r0
 571              	.LVL61:
 162:Lib/lvgl/src/widgets/switch/../../core/lv_obj_style_gen.h ****     return (int32_t)v.num;
 572              		.loc 2 162 26 view .LVU174
 573 00b0 0190     		str	r0, [sp, #4]
 163:Lib/lvgl/src/widgets/switch/../../core/lv_obj_style_gen.h **** }
 574              		.loc 2 163 5 is_stmt 1 view .LVU175
 575              	.LVL62:
 163:Lib/lvgl/src/widgets/switch/../../core/lv_obj_style_gen.h **** }
 576              		.loc 2 163 5 is_stmt 0 view .LVU176
 577              	.LBE62:
 578              	.LBE61:
 189:Lib/lvgl/src/widgets/switch/lv_switch.c ****     int32_t knob_bottom = lv_obj_get_style_pad_bottom(obj, LV_PART_KNOB);
 579              		.loc 1 189 5 is_stmt 1 view .LVU177
 580              	.LBB63:
 581              	.LBI63:
 142:Lib/lvgl/src/widgets/switch/../../core/lv_obj_style_gen.h **** {
 582              		.loc 2 142 23 view .LVU178
 583              	.LBB64:
 144:Lib/lvgl/src/widgets/switch/../../core/lv_obj_style_gen.h ****     return (int32_t)v.num;
 584              		.loc 2 144 5 view .LVU179
 144:Lib/lvgl/src/widgets/switch/../../core/lv_obj_style_gen.h ****     return (int32_t)v.num;
 585              		.loc 2 144 26 is_stmt 0 view .LVU180
 586 00b2 1022     		movs	r2, #16
 587 00b4 4FF44031 		mov	r1, #196608
 588 00b8 2046     		mov	r0, r4
 589              	.LVL63:
 144:Lib/lvgl/src/widgets/switch/../../core/lv_obj_style_gen.h ****     return (int32_t)v.num;
 590              		.loc 2 144 26 view .LVU181
 591 00ba FFF7FEFF 		bl	lv_obj_get_style_prop
 592              	.LVL64:
ARM GAS  C:\Users\Alex\AppData\Local\Temp\ccEKNduN.s 			page 37


 593 00be 0546     		mov	r5, r0
 594 00c0 0190     		str	r0, [sp, #4]
 145:Lib/lvgl/src/widgets/switch/../../core/lv_obj_style_gen.h **** }
 595              		.loc 2 145 5 is_stmt 1 view .LVU182
 596              	.LVL65:
 145:Lib/lvgl/src/widgets/switch/../../core/lv_obj_style_gen.h **** }
 597              		.loc 2 145 5 is_stmt 0 view .LVU183
 598              	.LBE64:
 599              	.LBE63:
 190:Lib/lvgl/src/widgets/switch/lv_switch.c **** 
 600              		.loc 1 190 5 is_stmt 1 view .LVU184
 601              	.LBB65:
 602              	.LBI65:
 148:Lib/lvgl/src/widgets/switch/../../core/lv_obj_style_gen.h **** {
 603              		.loc 2 148 23 view .LVU185
 604              	.LBB66:
 150:Lib/lvgl/src/widgets/switch/../../core/lv_obj_style_gen.h ****     return (int32_t)v.num;
 605              		.loc 2 150 5 view .LVU186
 150:Lib/lvgl/src/widgets/switch/../../core/lv_obj_style_gen.h ****     return (int32_t)v.num;
 606              		.loc 2 150 26 is_stmt 0 view .LVU187
 607 00c2 1122     		movs	r2, #17
 608 00c4 4FF44031 		mov	r1, #196608
 609 00c8 2046     		mov	r0, r4
 610              	.LVL66:
 150:Lib/lvgl/src/widgets/switch/../../core/lv_obj_style_gen.h ****     return (int32_t)v.num;
 611              		.loc 2 150 26 view .LVU188
 612 00ca FFF7FEFF 		bl	lv_obj_get_style_prop
 613              	.LVL67:
 614 00ce 0190     		str	r0, [sp, #4]
 151:Lib/lvgl/src/widgets/switch/../../core/lv_obj_style_gen.h **** }
 615              		.loc 2 151 5 is_stmt 1 view .LVU189
 616              	.LVL68:
 151:Lib/lvgl/src/widgets/switch/../../core/lv_obj_style_gen.h **** }
 617              		.loc 2 151 5 is_stmt 0 view .LVU190
 618              	.LBE66:
 619              	.LBE65:
 193:Lib/lvgl/src/widgets/switch/lv_switch.c ****     knob_area.x2 += knob_right;
 620              		.loc 1 193 5 is_stmt 1 view .LVU191
 193:Lib/lvgl/src/widgets/switch/lv_switch.c ****     knob_area.x2 += knob_right;
 621              		.loc 1 193 14 is_stmt 0 view .LVU192
 622 00d0 1E9A     		ldr	r2, [sp, #120]
 193:Lib/lvgl/src/widgets/switch/lv_switch.c ****     knob_area.x2 += knob_right;
 623              		.loc 1 193 18 view .LVU193
 624 00d2 A2EB0802 		sub	r2, r2, r8
 625 00d6 1E92     		str	r2, [sp, #120]
 194:Lib/lvgl/src/widgets/switch/lv_switch.c ****     knob_area.y1 -= knob_top;
 626              		.loc 1 194 5 is_stmt 1 view .LVU194
 194:Lib/lvgl/src/widgets/switch/lv_switch.c ****     knob_area.y1 -= knob_top;
 627              		.loc 1 194 14 is_stmt 0 view .LVU195
 628 00d8 209A     		ldr	r2, [sp, #128]
 194:Lib/lvgl/src/widgets/switch/lv_switch.c ****     knob_area.y1 -= knob_top;
 629              		.loc 1 194 18 view .LVU196
 630 00da 3A44     		add	r2, r2, r7
 631 00dc 2092     		str	r2, [sp, #128]
 195:Lib/lvgl/src/widgets/switch/lv_switch.c ****     knob_area.y2 += knob_bottom;
 632              		.loc 1 195 5 is_stmt 1 view .LVU197
 195:Lib/lvgl/src/widgets/switch/lv_switch.c ****     knob_area.y2 += knob_bottom;
ARM GAS  C:\Users\Alex\AppData\Local\Temp\ccEKNduN.s 			page 38


 633              		.loc 1 195 14 is_stmt 0 view .LVU198
 634 00de 1F9A     		ldr	r2, [sp, #124]
 195:Lib/lvgl/src/widgets/switch/lv_switch.c ****     knob_area.y2 += knob_bottom;
 635              		.loc 1 195 18 view .LVU199
 636 00e0 521B     		subs	r2, r2, r5
 637 00e2 1F92     		str	r2, [sp, #124]
 196:Lib/lvgl/src/widgets/switch/lv_switch.c **** 
 638              		.loc 1 196 5 is_stmt 1 view .LVU200
 196:Lib/lvgl/src/widgets/switch/lv_switch.c **** 
 639              		.loc 1 196 14 is_stmt 0 view .LVU201
 640 00e4 219A     		ldr	r2, [sp, #132]
 196:Lib/lvgl/src/widgets/switch/lv_switch.c **** 
 641              		.loc 1 196 18 view .LVU202
 642 00e6 0244     		add	r2, r2, r0
 643 00e8 2192     		str	r2, [sp, #132]
 198:Lib/lvgl/src/widgets/switch/lv_switch.c ****     lv_draw_rect_dsc_init(&knob_rect_dsc);
 644              		.loc 1 198 5 is_stmt 1 view .LVU203
 199:Lib/lvgl/src/widgets/switch/lv_switch.c ****     lv_obj_init_draw_rect_dsc(obj, LV_PART_KNOB, &knob_rect_dsc);
 645              		.loc 1 199 5 view .LVU204
 646 00ea 02A8     		add	r0, sp, #8
 647              	.LVL69:
 199:Lib/lvgl/src/widgets/switch/lv_switch.c ****     lv_obj_init_draw_rect_dsc(obj, LV_PART_KNOB, &knob_rect_dsc);
 648              		.loc 1 199 5 is_stmt 0 view .LVU205
 649 00ec FFF7FEFF 		bl	lv_draw_rect_dsc_init
 650              	.LVL70:
 200:Lib/lvgl/src/widgets/switch/lv_switch.c **** 
 651              		.loc 1 200 5 is_stmt 1 view .LVU206
 652 00f0 02AA     		add	r2, sp, #8
 653 00f2 4FF44031 		mov	r1, #196608
 654 00f6 2046     		mov	r0, r4
 655 00f8 FFF7FEFF 		bl	lv_obj_init_draw_rect_dsc
 656              	.LVL71:
 202:Lib/lvgl/src/widgets/switch/lv_switch.c **** }
 657              		.loc 1 202 5 view .LVU207
 658 00fc 1EAA     		add	r2, sp, #120
 659 00fe 02A9     		add	r1, sp, #8
 660 0100 3046     		mov	r0, r6
 661 0102 FFF7FEFF 		bl	lv_draw_rect
 662              	.LVL72:
 203:Lib/lvgl/src/widgets/switch/lv_switch.c **** 
 663              		.loc 1 203 1 is_stmt 0 view .LVU208
 664 0106 42B0     		add	sp, sp, #264
 665              	.LCFI9:
 666              		.cfi_remember_state
 667              		.cfi_def_cfa_offset 24
 668              		@ sp needed
 669 0108 BDE8F081 		pop	{r4, r5, r6, r7, r8, pc}
 670              	.LVL73:
 671              	.L25:
 672              	.LCFI10:
 673              		.cfi_restore_state
 170:Lib/lvgl/src/widgets/switch/lv_switch.c ****     }
 674              		.loc 1 170 22 view .LVU209
 675 010c FF33     		adds	r3, r3, #255
 676 010e A5E7     		b	.L20
 677              	.L19:
 678              	.LBB67:
ARM GAS  C:\Users\Alex\AppData\Local\Temp\ccEKNduN.s 			page 39


 174:Lib/lvgl/src/widgets/switch/lv_switch.c ****         anim_value_x = chk ? anim_length : 0;
 679              		.loc 1 174 9 is_stmt 1 view .LVU210
 174:Lib/lvgl/src/widgets/switch/lv_switch.c ****         anim_value_x = chk ? anim_length : 0;
 680              		.loc 1 174 20 is_stmt 0 view .LVU211
 681 0110 2046     		mov	r0, r4
 682              	.LVL74:
 174:Lib/lvgl/src/widgets/switch/lv_switch.c ****         anim_value_x = chk ? anim_length : 0;
 683              		.loc 1 174 20 view .LVU212
 684 0112 FFF7FEFF 		bl	lv_obj_get_state
 685              	.LVL75:
 175:Lib/lvgl/src/widgets/switch/lv_switch.c ****     }
 686              		.loc 1 175 9 is_stmt 1 view .LVU213
 175:Lib/lvgl/src/widgets/switch/lv_switch.c ****     }
 687              		.loc 1 175 42 is_stmt 0 view .LVU214
 688 0116 10F0010F 		tst	r0, #1
 689 011a 01D0     		beq	.L23
 690 011c B846     		mov	r8, r7
 691 011e 9FE7     		b	.L21
 692              	.L23:
 175:Lib/lvgl/src/widgets/switch/lv_switch.c ****     }
 693              		.loc 1 175 42 view .LVU215
 694 0120 4FF00008 		mov	r8, #0
 695 0124 9CE7     		b	.L21
 696              	.LVL76:
 697              	.L26:
 175:Lib/lvgl/src/widgets/switch/lv_switch.c ****     }
 698              		.loc 1 175 42 view .LVU216
 699              	.LBE67:
 179:Lib/lvgl/src/widgets/switch/lv_switch.c ****     }
 700              		.loc 1 179 9 is_stmt 1 view .LVU217
 179:Lib/lvgl/src/widgets/switch/lv_switch.c ****     }
 701              		.loc 1 179 22 is_stmt 0 view .LVU218
 702 0126 A7EB0808 		sub	r8, r7, r8
 703              	.LVL77:
 179:Lib/lvgl/src/widgets/switch/lv_switch.c ****     }
 704              		.loc 1 179 22 view .LVU219
 705 012a A2E7     		b	.L22
 706              		.cfi_endproc
 707              	.LFE237:
 709              		.section	.text.lv_switch_event,"ax",%progbits
 710              		.align	1
 711              		.syntax unified
 712              		.thumb
 713              		.thumb_func
 715              	lv_switch_event:
 716              	.LVL78:
 717              	.LFB236:
 110:Lib/lvgl/src/widgets/switch/lv_switch.c ****     LV_UNUSED(class_p);
 718              		.loc 1 110 1 is_stmt 1 view -0
 719              		.cfi_startproc
 720              		@ args = 0, pretend = 0, frame = 8
 721              		@ frame_needed = 0, uses_anonymous_args = 0
 110:Lib/lvgl/src/widgets/switch/lv_switch.c ****     LV_UNUSED(class_p);
 722              		.loc 1 110 1 is_stmt 0 view .LVU221
 723 0000 2DE9F041 		push	{r4, r5, r6, r7, r8, lr}
 724              	.LCFI11:
 725              		.cfi_def_cfa_offset 24
ARM GAS  C:\Users\Alex\AppData\Local\Temp\ccEKNduN.s 			page 40


 726              		.cfi_offset 4, -24
 727              		.cfi_offset 5, -20
 728              		.cfi_offset 6, -16
 729              		.cfi_offset 7, -12
 730              		.cfi_offset 8, -8
 731              		.cfi_offset 14, -4
 732 0004 82B0     		sub	sp, sp, #8
 733              	.LCFI12:
 734              		.cfi_def_cfa_offset 32
 735 0006 0C46     		mov	r4, r1
 111:Lib/lvgl/src/widgets/switch/lv_switch.c **** 
 736              		.loc 1 111 5 is_stmt 1 view .LVU222
 113:Lib/lvgl/src/widgets/switch/lv_switch.c **** 
 737              		.loc 1 113 5 view .LVU223
 116:Lib/lvgl/src/widgets/switch/lv_switch.c ****     if(res != LV_RESULT_OK) return;
 738              		.loc 1 116 5 view .LVU224
 116:Lib/lvgl/src/widgets/switch/lv_switch.c ****     if(res != LV_RESULT_OK) return;
 739              		.loc 1 116 11 is_stmt 0 view .LVU225
 740 0008 3348     		ldr	r0, .L37
 741              	.LVL79:
 116:Lib/lvgl/src/widgets/switch/lv_switch.c ****     if(res != LV_RESULT_OK) return;
 742              		.loc 1 116 11 view .LVU226
 743 000a FFF7FEFF 		bl	lv_obj_event_base
 744              	.LVL80:
 117:Lib/lvgl/src/widgets/switch/lv_switch.c **** 
 745              		.loc 1 117 5 is_stmt 1 view .LVU227
 117:Lib/lvgl/src/widgets/switch/lv_switch.c **** 
 746              		.loc 1 117 7 is_stmt 0 view .LVU228
 747 000e 0128     		cmp	r0, #1
 748 0010 02D0     		beq	.L34
 749              	.LVL81:
 750              	.L27:
 144:Lib/lvgl/src/widgets/switch/lv_switch.c **** 
 751              		.loc 1 144 1 view .LVU229
 752 0012 02B0     		add	sp, sp, #8
 753              	.LCFI13:
 754              		.cfi_remember_state
 755              		.cfi_def_cfa_offset 24
 756              		@ sp needed
 757 0014 BDE8F081 		pop	{r4, r5, r6, r7, r8, pc}
 758              	.LVL82:
 759              	.L34:
 760              	.LCFI14:
 761              		.cfi_restore_state
 119:Lib/lvgl/src/widgets/switch/lv_switch.c ****     lv_obj_t * obj = lv_event_get_current_target(e);
 762              		.loc 1 119 5 is_stmt 1 view .LVU230
 119:Lib/lvgl/src/widgets/switch/lv_switch.c ****     lv_obj_t * obj = lv_event_get_current_target(e);
 763              		.loc 1 119 28 is_stmt 0 view .LVU231
 764 0018 2046     		mov	r0, r4
 765              	.LVL83:
 119:Lib/lvgl/src/widgets/switch/lv_switch.c ****     lv_obj_t * obj = lv_event_get_current_target(e);
 766              		.loc 1 119 28 view .LVU232
 767 001a FFF7FEFF 		bl	lv_event_get_code
 768              	.LVL84:
 769 001e 0546     		mov	r5, r0
 770              	.LVL85:
 120:Lib/lvgl/src/widgets/switch/lv_switch.c **** 
ARM GAS  C:\Users\Alex\AppData\Local\Temp\ccEKNduN.s 			page 41


 771              		.loc 1 120 5 is_stmt 1 view .LVU233
 120:Lib/lvgl/src/widgets/switch/lv_switch.c **** 
 772              		.loc 1 120 22 is_stmt 0 view .LVU234
 773 0020 2046     		mov	r0, r4
 774 0022 FFF7FEFF 		bl	lv_event_get_current_target
 775              	.LVL86:
 776 0026 0646     		mov	r6, r0
 777              	.LVL87:
 122:Lib/lvgl/src/widgets/switch/lv_switch.c ****         int32_t knob_left = lv_obj_get_style_pad_left(obj,   LV_PART_KNOB);
 778              		.loc 1 122 5 is_stmt 1 view .LVU235
 122:Lib/lvgl/src/widgets/switch/lv_switch.c ****         int32_t knob_left = lv_obj_get_style_pad_left(obj,   LV_PART_KNOB);
 779              		.loc 1 122 7 is_stmt 0 view .LVU236
 780 0028 152D     		cmp	r5, #21
 781 002a 07D0     		beq	.L35
 137:Lib/lvgl/src/widgets/switch/lv_switch.c ****         lv_switch_trigger_anim(obj);
 782              		.loc 1 137 10 is_stmt 1 view .LVU237
 137:Lib/lvgl/src/widgets/switch/lv_switch.c ****         lv_switch_trigger_anim(obj);
 783              		.loc 1 137 12 is_stmt 0 view .LVU238
 784 002c 1D2D     		cmp	r5, #29
 785 002e 4CD0     		beq	.L36
 141:Lib/lvgl/src/widgets/switch/lv_switch.c ****         draw_main(e);
 786              		.loc 1 141 10 is_stmt 1 view .LVU239
 141:Lib/lvgl/src/widgets/switch/lv_switch.c ****         draw_main(e);
 787              		.loc 1 141 12 is_stmt 0 view .LVU240
 788 0030 172D     		cmp	r5, #23
 789 0032 EED1     		bne	.L27
 142:Lib/lvgl/src/widgets/switch/lv_switch.c ****     }
 790              		.loc 1 142 9 is_stmt 1 view .LVU241
 791 0034 2046     		mov	r0, r4
 792              	.LVL88:
 142:Lib/lvgl/src/widgets/switch/lv_switch.c ****     }
 793              		.loc 1 142 9 is_stmt 0 view .LVU242
 794 0036 FFF7FEFF 		bl	draw_main
 795              	.LVL89:
 796 003a EAE7     		b	.L27
 797              	.LVL90:
 798              	.L35:
 799              	.LBB68:
 123:Lib/lvgl/src/widgets/switch/lv_switch.c ****         int32_t knob_right = lv_obj_get_style_pad_right(obj,  LV_PART_KNOB);
 800              		.loc 1 123 9 is_stmt 1 view .LVU243
 801              	.LBB69:
 802              	.LBI69:
 154:Lib/lvgl/src/widgets/switch/../../core/lv_obj_style_gen.h **** {
 803              		.loc 2 154 23 view .LVU244
 804              	.LBB70:
 156:Lib/lvgl/src/widgets/switch/../../core/lv_obj_style_gen.h ****     return (int32_t)v.num;
 805              		.loc 2 156 5 view .LVU245
 156:Lib/lvgl/src/widgets/switch/../../core/lv_obj_style_gen.h ****     return (int32_t)v.num;
 806              		.loc 2 156 26 is_stmt 0 view .LVU246
 807 003c 1222     		movs	r2, #18
 808 003e 4FF44031 		mov	r1, #196608
 809 0042 FFF7FEFF 		bl	lv_obj_get_style_prop
 810              	.LVL91:
 156:Lib/lvgl/src/widgets/switch/../../core/lv_obj_style_gen.h ****     return (int32_t)v.num;
 811              		.loc 2 156 26 view .LVU247
 812 0046 8046     		mov	r8, r0
 813 0048 0190     		str	r0, [sp, #4]
ARM GAS  C:\Users\Alex\AppData\Local\Temp\ccEKNduN.s 			page 42


 157:Lib/lvgl/src/widgets/switch/../../core/lv_obj_style_gen.h **** }
 814              		.loc 2 157 5 is_stmt 1 view .LVU248
 815              	.LVL92:
 157:Lib/lvgl/src/widgets/switch/../../core/lv_obj_style_gen.h **** }
 816              		.loc 2 157 5 is_stmt 0 view .LVU249
 817              	.LBE70:
 818              	.LBE69:
 124:Lib/lvgl/src/widgets/switch/lv_switch.c ****         int32_t knob_top = lv_obj_get_style_pad_top(obj,    LV_PART_KNOB);
 819              		.loc 1 124 9 is_stmt 1 view .LVU250
 820              	.LBB71:
 821              	.LBI71:
 160:Lib/lvgl/src/widgets/switch/../../core/lv_obj_style_gen.h **** {
 822              		.loc 2 160 23 view .LVU251
 823              	.LBB72:
 162:Lib/lvgl/src/widgets/switch/../../core/lv_obj_style_gen.h ****     return (int32_t)v.num;
 824              		.loc 2 162 5 view .LVU252
 162:Lib/lvgl/src/widgets/switch/../../core/lv_obj_style_gen.h ****     return (int32_t)v.num;
 825              		.loc 2 162 26 is_stmt 0 view .LVU253
 826 004a 1322     		movs	r2, #19
 827 004c 4FF44031 		mov	r1, #196608
 828 0050 3046     		mov	r0, r6
 829              	.LVL93:
 162:Lib/lvgl/src/widgets/switch/../../core/lv_obj_style_gen.h ****     return (int32_t)v.num;
 830              		.loc 2 162 26 view .LVU254
 831 0052 FFF7FEFF 		bl	lv_obj_get_style_prop
 832              	.LVL94:
 833 0056 0746     		mov	r7, r0
 834 0058 0190     		str	r0, [sp, #4]
 163:Lib/lvgl/src/widgets/switch/../../core/lv_obj_style_gen.h **** }
 835              		.loc 2 163 5 is_stmt 1 view .LVU255
 836              	.LVL95:
 163:Lib/lvgl/src/widgets/switch/../../core/lv_obj_style_gen.h **** }
 837              		.loc 2 163 5 is_stmt 0 view .LVU256
 838              	.LBE72:
 839              	.LBE71:
 125:Lib/lvgl/src/widgets/switch/lv_switch.c ****         int32_t knob_bottom = lv_obj_get_style_pad_bottom(obj, LV_PART_KNOB);
 840              		.loc 1 125 9 is_stmt 1 view .LVU257
 841              	.LBB73:
 842              	.LBI73:
 142:Lib/lvgl/src/widgets/switch/../../core/lv_obj_style_gen.h **** {
 843              		.loc 2 142 23 view .LVU258
 844              	.LBB74:
 144:Lib/lvgl/src/widgets/switch/../../core/lv_obj_style_gen.h ****     return (int32_t)v.num;
 845              		.loc 2 144 5 view .LVU259
 144:Lib/lvgl/src/widgets/switch/../../core/lv_obj_style_gen.h ****     return (int32_t)v.num;
 846              		.loc 2 144 26 is_stmt 0 view .LVU260
 847 005a 1022     		movs	r2, #16
 848 005c 4FF44031 		mov	r1, #196608
 849 0060 3046     		mov	r0, r6
 850              	.LVL96:
 144:Lib/lvgl/src/widgets/switch/../../core/lv_obj_style_gen.h ****     return (int32_t)v.num;
 851              		.loc 2 144 26 view .LVU261
 852 0062 FFF7FEFF 		bl	lv_obj_get_style_prop
 853              	.LVL97:
 854 0066 0546     		mov	r5, r0
 855              	.LVL98:
 144:Lib/lvgl/src/widgets/switch/../../core/lv_obj_style_gen.h ****     return (int32_t)v.num;
ARM GAS  C:\Users\Alex\AppData\Local\Temp\ccEKNduN.s 			page 43


 856              		.loc 2 144 26 view .LVU262
 857 0068 0190     		str	r0, [sp, #4]
 145:Lib/lvgl/src/widgets/switch/../../core/lv_obj_style_gen.h **** }
 858              		.loc 2 145 5 is_stmt 1 view .LVU263
 859              	.LVL99:
 145:Lib/lvgl/src/widgets/switch/../../core/lv_obj_style_gen.h **** }
 860              		.loc 2 145 5 is_stmt 0 view .LVU264
 861              	.LBE74:
 862              	.LBE73:
 126:Lib/lvgl/src/widgets/switch/lv_switch.c **** 
 863              		.loc 1 126 9 is_stmt 1 view .LVU265
 864              	.LBB75:
 865              	.LBI75:
 148:Lib/lvgl/src/widgets/switch/../../core/lv_obj_style_gen.h **** {
 866              		.loc 2 148 23 view .LVU266
 867              	.LBB76:
 150:Lib/lvgl/src/widgets/switch/../../core/lv_obj_style_gen.h ****     return (int32_t)v.num;
 868              		.loc 2 150 5 view .LVU267
 150:Lib/lvgl/src/widgets/switch/../../core/lv_obj_style_gen.h ****     return (int32_t)v.num;
 869              		.loc 2 150 26 is_stmt 0 view .LVU268
 870 006a 1122     		movs	r2, #17
 871 006c 4FF44031 		mov	r1, #196608
 872 0070 3046     		mov	r0, r6
 873              	.LVL100:
 150:Lib/lvgl/src/widgets/switch/../../core/lv_obj_style_gen.h ****     return (int32_t)v.num;
 874              		.loc 2 150 26 view .LVU269
 875 0072 FFF7FEFF 		bl	lv_obj_get_style_prop
 876              	.LVL101:
 877 0076 0190     		str	r0, [sp, #4]
 151:Lib/lvgl/src/widgets/switch/../../core/lv_obj_style_gen.h **** }
 878              		.loc 2 151 5 is_stmt 1 view .LVU270
 879              	.LVL102:
 151:Lib/lvgl/src/widgets/switch/../../core/lv_obj_style_gen.h **** }
 880              		.loc 2 151 5 is_stmt 0 view .LVU271
 881              	.LBE76:
 882              	.LBE75:
 129:Lib/lvgl/src/widgets/switch/lv_switch.c ****         knob_size += _LV_SWITCH_KNOB_EXT_AREA_CORRECTION;
 883              		.loc 1 129 9 is_stmt 1 view .LVU272
 129:Lib/lvgl/src/widgets/switch/lv_switch.c ****         knob_size += _LV_SWITCH_KNOB_EXT_AREA_CORRECTION;
 884              		.loc 1 129 29 is_stmt 0 view .LVU273
 885 0078 8542     		cmp	r5, r0
 886 007a B8BF     		it	lt
 887 007c 0546     		movlt	r5, r0
 888              	.LVL103:
 129:Lib/lvgl/src/widgets/switch/lv_switch.c ****         knob_size += _LV_SWITCH_KNOB_EXT_AREA_CORRECTION;
 889              		.loc 1 129 29 view .LVU274
 890 007e 4745     		cmp	r7, r8
 891 0080 B8BF     		it	lt
 892 0082 4746     		movlt	r7, r8
 893              	.LVL104:
 129:Lib/lvgl/src/widgets/switch/lv_switch.c ****         knob_size += _LV_SWITCH_KNOB_EXT_AREA_CORRECTION;
 894              		.loc 1 129 17 view .LVU275
 895 0084 BD42     		cmp	r5, r7
 896 0086 B8BF     		it	lt
 897 0088 3D46     		movlt	r5, r7
 898              	.LVL105:
 130:Lib/lvgl/src/widgets/switch/lv_switch.c ****         knob_size += lv_obj_calculate_ext_draw_size(obj, LV_PART_KNOB);
ARM GAS  C:\Users\Alex\AppData\Local\Temp\ccEKNduN.s 			page 44


 899              		.loc 1 130 9 is_stmt 1 view .LVU276
 130:Lib/lvgl/src/widgets/switch/lv_switch.c ****         knob_size += lv_obj_calculate_ext_draw_size(obj, LV_PART_KNOB);
 900              		.loc 1 130 19 is_stmt 0 view .LVU277
 901 008a 0235     		adds	r5, r5, #2
 902              	.LVL106:
 131:Lib/lvgl/src/widgets/switch/lv_switch.c **** 
 903              		.loc 1 131 9 is_stmt 1 view .LVU278
 131:Lib/lvgl/src/widgets/switch/lv_switch.c **** 
 904              		.loc 1 131 22 is_stmt 0 view .LVU279
 905 008c 4FF44031 		mov	r1, #196608
 906 0090 3046     		mov	r0, r6
 907              	.LVL107:
 131:Lib/lvgl/src/widgets/switch/lv_switch.c **** 
 908              		.loc 1 131 22 view .LVU280
 909 0092 FFF7FEFF 		bl	lv_obj_calculate_ext_draw_size
 910              	.LVL108:
 131:Lib/lvgl/src/widgets/switch/lv_switch.c **** 
 911              		.loc 1 131 19 view .LVU281
 912 0096 0544     		add	r5, r5, r0
 913              	.LVL109:
 133:Lib/lvgl/src/widgets/switch/lv_switch.c ****         *s = LV_MAX(*s, knob_size);
 914              		.loc 1 133 9 is_stmt 1 view .LVU282
 133:Lib/lvgl/src/widgets/switch/lv_switch.c ****         *s = LV_MAX(*s, knob_size);
 915              		.loc 1 133 23 is_stmt 0 view .LVU283
 916 0098 2046     		mov	r0, r4
 917 009a FFF7FEFF 		bl	lv_event_get_param
 918              	.LVL110:
 919 009e 0746     		mov	r7, r0
 920              	.LVL111:
 134:Lib/lvgl/src/widgets/switch/lv_switch.c ****         *s = LV_MAX(*s, lv_obj_calculate_ext_draw_size(obj, LV_PART_INDICATOR));
 921              		.loc 1 134 9 is_stmt 1 view .LVU284
 134:Lib/lvgl/src/widgets/switch/lv_switch.c ****         *s = LV_MAX(*s, lv_obj_calculate_ext_draw_size(obj, LV_PART_INDICATOR));
 922              		.loc 1 134 14 is_stmt 0 view .LVU285
 923 00a0 0368     		ldr	r3, [r0]
 924 00a2 9D42     		cmp	r5, r3
 925 00a4 B8BF     		it	lt
 926 00a6 1D46     		movlt	r5, r3
 927              	.LVL112:
 134:Lib/lvgl/src/widgets/switch/lv_switch.c ****         *s = LV_MAX(*s, lv_obj_calculate_ext_draw_size(obj, LV_PART_INDICATOR));
 928              		.loc 1 134 12 view .LVU286
 929 00a8 0560     		str	r5, [r0]
 135:Lib/lvgl/src/widgets/switch/lv_switch.c ****     }
 930              		.loc 1 135 9 is_stmt 1 view .LVU287
 135:Lib/lvgl/src/widgets/switch/lv_switch.c ****     }
 931              		.loc 1 135 14 is_stmt 0 view .LVU288
 932 00aa 4FF40031 		mov	r1, #131072
 933 00ae 3046     		mov	r0, r6
 934              	.LVL113:
 135:Lib/lvgl/src/widgets/switch/lv_switch.c ****     }
 935              		.loc 1 135 14 view .LVU289
 936 00b0 FFF7FEFF 		bl	lv_obj_calculate_ext_draw_size
 937              	.LVL114:
 938 00b4 8542     		cmp	r5, r0
 939 00b6 02DD     		ble	.L30
 135:Lib/lvgl/src/widgets/switch/lv_switch.c ****     }
 940              		.loc 1 135 14 discriminator 1 view .LVU290
 941 00b8 3868     		ldr	r0, [r7]
ARM GAS  C:\Users\Alex\AppData\Local\Temp\ccEKNduN.s 			page 45


 942              	.L31:
 135:Lib/lvgl/src/widgets/switch/lv_switch.c ****     }
 943              		.loc 1 135 12 discriminator 4 view .LVU291
 944 00ba 3860     		str	r0, [r7]
 945              	.LBE68:
 946 00bc A9E7     		b	.L27
 947              	.L30:
 948              	.LBB77:
 135:Lib/lvgl/src/widgets/switch/lv_switch.c ****     }
 949              		.loc 1 135 14 discriminator 2 view .LVU292
 950 00be 4FF40031 		mov	r1, #131072
 951 00c2 3046     		mov	r0, r6
 952 00c4 FFF7FEFF 		bl	lv_obj_calculate_ext_draw_size
 953              	.LVL115:
 954 00c8 F7E7     		b	.L31
 955              	.LVL116:
 956              	.L36:
 135:Lib/lvgl/src/widgets/switch/lv_switch.c ****     }
 957              		.loc 1 135 14 discriminator 2 view .LVU293
 958              	.LBE77:
 138:Lib/lvgl/src/widgets/switch/lv_switch.c ****         lv_obj_invalidate(obj);
 959              		.loc 1 138 9 is_stmt 1 view .LVU294
 960 00ca FFF7FEFF 		bl	lv_switch_trigger_anim
 961              	.LVL117:
 139:Lib/lvgl/src/widgets/switch/lv_switch.c ****     }
 962              		.loc 1 139 9 view .LVU295
 963 00ce 3046     		mov	r0, r6
 964 00d0 FFF7FEFF 		bl	lv_obj_invalidate
 965              	.LVL118:
 966 00d4 9DE7     		b	.L27
 967              	.L38:
 968 00d6 00BF     		.align	2
 969              	.L37:
 970 00d8 00000000 		.word	lv_switch_class
 971              		.cfi_endproc
 972              	.LFE236:
 974              		.section	.text.lv_switch_constructor,"ax",%progbits
 975              		.align	1
 976              		.syntax unified
 977              		.thumb
 978              		.thumb_func
 980              	lv_switch_constructor:
 981              	.LVL119:
 982              	.LFB234:
  86:Lib/lvgl/src/widgets/switch/lv_switch.c ****     LV_UNUSED(class_p);
 983              		.loc 1 86 1 view -0
 984              		.cfi_startproc
 985              		@ args = 0, pretend = 0, frame = 0
 986              		@ frame_needed = 0, uses_anonymous_args = 0
  86:Lib/lvgl/src/widgets/switch/lv_switch.c ****     LV_UNUSED(class_p);
 987              		.loc 1 86 1 is_stmt 0 view .LVU297
 988 0000 10B5     		push	{r4, lr}
 989              	.LCFI15:
 990              		.cfi_def_cfa_offset 8
 991              		.cfi_offset 4, -8
 992              		.cfi_offset 14, -4
 993 0002 0C46     		mov	r4, r1
ARM GAS  C:\Users\Alex\AppData\Local\Temp\ccEKNduN.s 			page 46


  87:Lib/lvgl/src/widgets/switch/lv_switch.c ****     LV_TRACE_OBJ_CREATE("begin");
 994              		.loc 1 87 5 is_stmt 1 view .LVU298
  88:Lib/lvgl/src/widgets/switch/lv_switch.c **** 
 995              		.loc 1 88 33 view .LVU299
  90:Lib/lvgl/src/widgets/switch/lv_switch.c **** 
 996              		.loc 1 90 5 view .LVU300
 997              	.LVL120:
  92:Lib/lvgl/src/widgets/switch/lv_switch.c **** 
 998              		.loc 1 92 5 view .LVU301
  92:Lib/lvgl/src/widgets/switch/lv_switch.c **** 
 999              		.loc 1 92 20 is_stmt 0 view .LVU302
 1000 0004 4FF0FF33 		mov	r3, #-1
 1001 0008 CB62     		str	r3, [r1, #44]
  94:Lib/lvgl/src/widgets/switch/lv_switch.c ****     lv_obj_add_flag(obj, LV_OBJ_FLAG_CHECKABLE);
 1002              		.loc 1 94 5 is_stmt 1 view .LVU303
 1003 000a 1021     		movs	r1, #16
 1004              	.LVL121:
  94:Lib/lvgl/src/widgets/switch/lv_switch.c ****     lv_obj_add_flag(obj, LV_OBJ_FLAG_CHECKABLE);
 1005              		.loc 1 94 5 is_stmt 0 view .LVU304
 1006 000c 2046     		mov	r0, r4
 1007              	.LVL122:
  94:Lib/lvgl/src/widgets/switch/lv_switch.c ****     lv_obj_add_flag(obj, LV_OBJ_FLAG_CHECKABLE);
 1008              		.loc 1 94 5 view .LVU305
 1009 000e FFF7FEFF 		bl	lv_obj_remove_flag
 1010              	.LVL123:
  95:Lib/lvgl/src/widgets/switch/lv_switch.c ****     lv_obj_add_flag(obj, LV_OBJ_FLAG_SCROLL_ON_FOCUS);
 1011              		.loc 1 95 5 is_stmt 1 view .LVU306
 1012 0012 0821     		movs	r1, #8
 1013 0014 2046     		mov	r0, r4
 1014 0016 FFF7FEFF 		bl	lv_obj_add_flag
 1015              	.LVL124:
  96:Lib/lvgl/src/widgets/switch/lv_switch.c **** 
 1016              		.loc 1 96 5 view .LVU307
 1017 001a 4FF48061 		mov	r1, #1024
 1018 001e 2046     		mov	r0, r4
 1019 0020 FFF7FEFF 		bl	lv_obj_add_flag
 1020              	.LVL125:
  98:Lib/lvgl/src/widgets/switch/lv_switch.c **** }
 1021              		.loc 1 98 36 view .LVU308
  99:Lib/lvgl/src/widgets/switch/lv_switch.c **** 
 1022              		.loc 1 99 1 is_stmt 0 view .LVU309
 1023 0024 10BD     		pop	{r4, pc}
  99:Lib/lvgl/src/widgets/switch/lv_switch.c **** 
 1024              		.loc 1 99 1 view .LVU310
 1025              		.cfi_endproc
 1026              	.LFE234:
 1028              		.section	.text.lv_switch_create,"ax",%progbits
 1029              		.align	1
 1030              		.global	lv_switch_create
 1031              		.syntax unified
 1032              		.thumb
 1033              		.thumb_func
 1035              	lv_switch_create:
 1036              	.LVL126:
 1037              	.LFB233:
  74:Lib/lvgl/src/widgets/switch/lv_switch.c ****     LV_LOG_INFO("begin");
 1038              		.loc 1 74 1 is_stmt 1 view -0
ARM GAS  C:\Users\Alex\AppData\Local\Temp\ccEKNduN.s 			page 47


 1039              		.cfi_startproc
 1040              		@ args = 0, pretend = 0, frame = 0
 1041              		@ frame_needed = 0, uses_anonymous_args = 0
  74:Lib/lvgl/src/widgets/switch/lv_switch.c ****     LV_LOG_INFO("begin");
 1042              		.loc 1 74 1 is_stmt 0 view .LVU312
 1043 0000 10B5     		push	{r4, lr}
 1044              	.LCFI16:
 1045              		.cfi_def_cfa_offset 8
 1046              		.cfi_offset 4, -8
 1047              		.cfi_offset 14, -4
 1048 0002 0146     		mov	r1, r0
  75:Lib/lvgl/src/widgets/switch/lv_switch.c ****     lv_obj_t * obj = lv_obj_class_create_obj(MY_CLASS, parent);
 1049              		.loc 1 75 5 is_stmt 1 view .LVU313
  75:Lib/lvgl/src/widgets/switch/lv_switch.c ****     lv_obj_t * obj = lv_obj_class_create_obj(MY_CLASS, parent);
 1050              		.loc 1 75 5 view .LVU314
  75:Lib/lvgl/src/widgets/switch/lv_switch.c ****     lv_obj_t * obj = lv_obj_class_create_obj(MY_CLASS, parent);
 1051              		.loc 1 75 5 view .LVU315
  76:Lib/lvgl/src/widgets/switch/lv_switch.c ****     lv_obj_class_init_obj(obj);
 1052              		.loc 1 76 5 view .LVU316
  76:Lib/lvgl/src/widgets/switch/lv_switch.c ****     lv_obj_class_init_obj(obj);
 1053              		.loc 1 76 22 is_stmt 0 view .LVU317
 1054 0004 0348     		ldr	r0, .L43
 1055              	.LVL127:
  76:Lib/lvgl/src/widgets/switch/lv_switch.c ****     lv_obj_class_init_obj(obj);
 1056              		.loc 1 76 22 view .LVU318
 1057 0006 FFF7FEFF 		bl	lv_obj_class_create_obj
 1058              	.LVL128:
  76:Lib/lvgl/src/widgets/switch/lv_switch.c ****     lv_obj_class_init_obj(obj);
 1059              		.loc 1 76 22 view .LVU319
 1060 000a 0446     		mov	r4, r0
 1061              	.LVL129:
  77:Lib/lvgl/src/widgets/switch/lv_switch.c ****     return obj;
 1062              		.loc 1 77 5 is_stmt 1 view .LVU320
 1063 000c FFF7FEFF 		bl	lv_obj_class_init_obj
 1064              	.LVL130:
  78:Lib/lvgl/src/widgets/switch/lv_switch.c **** }
 1065              		.loc 1 78 5 view .LVU321
  79:Lib/lvgl/src/widgets/switch/lv_switch.c **** 
 1066              		.loc 1 79 1 is_stmt 0 view .LVU322
 1067 0010 2046     		mov	r0, r4
 1068 0012 10BD     		pop	{r4, pc}
 1069              	.LVL131:
 1070              	.L44:
  79:Lib/lvgl/src/widgets/switch/lv_switch.c **** 
 1071              		.loc 1 79 1 view .LVU323
 1072              		.align	2
 1073              	.L43:
 1074 0014 00000000 		.word	lv_switch_class
 1075              		.cfi_endproc
 1076              	.LFE233:
 1078              		.global	lv_switch_class
 1079              		.section	.rodata.str1.4,"aMS",%progbits,1
 1080              		.align	2
 1081              	.LC0:
 1082 0000 73776974 		.ascii	"switch\000"
 1082      636800
 1083              		.section	.rodata.lv_switch_class,"a"
ARM GAS  C:\Users\Alex\AppData\Local\Temp\ccEKNduN.s 			page 48


 1084              		.align	2
 1087              	lv_switch_class:
 1088 0000 00000000 		.word	lv_obj_class
 1089 0004 00000000 		.word	lv_switch_constructor
 1090 0008 00000000 		.word	lv_switch_destructor
 1091 000c 00000000 		.word	lv_switch_event
 1092 0010 00000000 		.space	4
 1093 0014 00000000 		.word	.LC0
 1094 0018 34000000 		.word	52
 1095 001c 1E000000 		.word	30
 1096 0020 04       		.byte	4
 1097 0021 03       		.byte	3
 1098 0022 00       		.byte	0
 1099 0023 00       		.space	1
 1100              		.text
 1101              	.Letext0:
 1102              		.file 5 "e:\\programms\\gnu_mcu_eclipse\\toolchain\\arm-gnu-toolchain-12.2.mpacbti-bet1-mingw-w64-
 1103              		.file 6 "e:\\programms\\gnu_mcu_eclipse\\toolchain\\arm-gnu-toolchain-12.2.mpacbti-bet1-mingw-w64-
 1104              		.file 7 "e:\\programms\\gnu_mcu_eclipse\\toolchain\\arm-gnu-toolchain-12.2.mpacbti-bet1-mingw-w64-
 1105              		.file 8 "Lib/lvgl/src/widgets/switch/../../core/../misc/lv_types.h"
 1106              		.file 9 "Lib/lvgl/src/widgets/switch/../../core/lv_obj.h"
 1107              		.file 10 "Lib/lvgl/src/widgets/switch/../../core/lv_obj_class.h"
 1108              		.file 11 "Lib/lvgl/src/widgets/switch/../../core/../indev/../core/lv_group.h"
 1109              		.file 12 "Lib/lvgl/src/widgets/switch/../../core/../display/../draw/lv_draw.h"
 1110              		.file 13 "Lib/lvgl/src/widgets/switch/../../core/../display/../misc/lv_event.h"
 1111              		.file 14 "c:\\users\\alex\\eclipse-workspace\\lvgs_test\\lib\\lvgl\\src\\misc\\lv_color.h"
 1112              		.file 15 "c:\\users\\alex\\eclipse-workspace\\lvgs_test\\lib\\lvgl\\src\\draw\\lv_image_buf.h"
 1113              		.file 16 "c:\\users\\alex\\eclipse-workspace\\lvgs_test\\lib\\lvgl\\src\\draw\\lv_draw_buf.h"
 1114              		.file 17 "Lib/lvgl/src/widgets/switch/../../core/../misc/lv_ll.h"
 1115              		.file 18 "Lib/lvgl/src/widgets/switch/../../core/../misc/lv_bidi.h"
 1116              		.file 19 "Lib/lvgl/src/widgets/switch/../../core/../misc/lv_style.h"
 1117              		.file 20 "Lib/lvgl/src/widgets/switch/../../core/../display/../misc/lv_array.h"
 1118              		.file 21 "Lib/lvgl/src/widgets/switch/../../core/../display/../draw/lv_draw_rect.h"
 1119              		.file 22 "Lib/lvgl/src/widgets/switch/../../core/lv_obj_style.h"
 1120              		.file 23 "Lib/lvgl/src/widgets/switch/lv_switch.h"
 1121              		.file 24 "Lib/lvgl/src/widgets/switch/../../core/lv_obj_pos.h"
 1122              		.file 25 "Lib/lvgl/src/widgets/switch/../../core/lv_obj_draw.h"
 1123              		.file 26 "Lib/lvgl/src/widgets/switch/../../core/lv_obj_event.h"
ARM GAS  C:\Users\Alex\AppData\Local\Temp\ccEKNduN.s 			page 49

