ARM GAS  C:\Users\Alex\AppData\Local\Temp\cc5XGeRL.s 			page 1


   1              		.cpu cortex-m4
   2              		.arch armv7e-m
   3              		.fpu fpv4-sp-d16
   4              		.eabi_attribute 27, 1
   5              		.eabi_attribute 28, 1
   6              		.eabi_attribute 20, 1
   7              		.eabi_attribute 21, 1
   8              		.eabi_attribute 23, 3
   9              		.eabi_attribute 24, 1
  10              		.eabi_attribute 25, 1
  11              		.eabi_attribute 26, 1
  12              		.eabi_attribute 30, 1
  13              		.eabi_attribute 34, 1
  14              		.eabi_attribute 18, 4
  15              		.file	"lv_slider.c"
  16              		.text
  17              	.Ltext0:
  18              		.cfi_sections	.debug_frame
  19              		.file 1 "Lib/lvgl/src/widgets/slider/lv_slider.c"
  20              		.section	.text.is_slider_horizontal,"ax",%progbits
  21              		.align	1
  22              		.syntax unified
  23              		.thumb
  24              		.thumb_func
  26              	is_slider_horizontal:
  27              	.LVL0:
  28              	.LFB250:
   1:Lib/lvgl/src/widgets/slider/lv_slider.c **** /**
   2:Lib/lvgl/src/widgets/slider/lv_slider.c ****  * @file lv_slider.c
   3:Lib/lvgl/src/widgets/slider/lv_slider.c ****  *
   4:Lib/lvgl/src/widgets/slider/lv_slider.c ****  */
   5:Lib/lvgl/src/widgets/slider/lv_slider.c **** 
   6:Lib/lvgl/src/widgets/slider/lv_slider.c **** /*********************
   7:Lib/lvgl/src/widgets/slider/lv_slider.c ****  *      INCLUDES
   8:Lib/lvgl/src/widgets/slider/lv_slider.c ****  *********************/
   9:Lib/lvgl/src/widgets/slider/lv_slider.c **** #include "lv_slider.h"
  10:Lib/lvgl/src/widgets/slider/lv_slider.c **** #if LV_USE_SLIDER != 0
  11:Lib/lvgl/src/widgets/slider/lv_slider.c **** 
  12:Lib/lvgl/src/widgets/slider/lv_slider.c **** #include "../../misc/lv_assert.h"
  13:Lib/lvgl/src/widgets/slider/lv_slider.c **** #include "../../core/lv_group.h"
  14:Lib/lvgl/src/widgets/slider/lv_slider.c **** #include "../../indev/lv_indev.h"
  15:Lib/lvgl/src/widgets/slider/lv_slider.c **** #include "../../indev/lv_indev_private.h"
  16:Lib/lvgl/src/widgets/slider/lv_slider.c **** #include "../../display/lv_display.h"
  17:Lib/lvgl/src/widgets/slider/lv_slider.c **** #include "../../draw/lv_draw.h"
  18:Lib/lvgl/src/widgets/slider/lv_slider.c **** #include "../../stdlib/lv_string.h"
  19:Lib/lvgl/src/widgets/slider/lv_slider.c **** #include "../../misc/lv_math.h"
  20:Lib/lvgl/src/widgets/slider/lv_slider.c **** #include "../image/lv_image.h"
  21:Lib/lvgl/src/widgets/slider/lv_slider.c **** 
  22:Lib/lvgl/src/widgets/slider/lv_slider.c **** /*********************
  23:Lib/lvgl/src/widgets/slider/lv_slider.c ****  *      DEFINES
  24:Lib/lvgl/src/widgets/slider/lv_slider.c ****  *********************/
  25:Lib/lvgl/src/widgets/slider/lv_slider.c **** #define MY_CLASS &lv_slider_class
  26:Lib/lvgl/src/widgets/slider/lv_slider.c **** 
  27:Lib/lvgl/src/widgets/slider/lv_slider.c **** #define LV_SLIDER_KNOB_COORD(is_reversed, area) (is_reversed ? area.x1 : area.x2)
  28:Lib/lvgl/src/widgets/slider/lv_slider.c **** #define LV_SLIDER_KNOB_COORD_VERTICAL(is_reversed, area) (is_reversed ? area.y2 : area.y1)
  29:Lib/lvgl/src/widgets/slider/lv_slider.c **** 
  30:Lib/lvgl/src/widgets/slider/lv_slider.c **** /**********************
ARM GAS  C:\Users\Alex\AppData\Local\Temp\cc5XGeRL.s 			page 2


  31:Lib/lvgl/src/widgets/slider/lv_slider.c ****  *      TYPEDEFS
  32:Lib/lvgl/src/widgets/slider/lv_slider.c ****  **********************/
  33:Lib/lvgl/src/widgets/slider/lv_slider.c **** 
  34:Lib/lvgl/src/widgets/slider/lv_slider.c **** /**********************
  35:Lib/lvgl/src/widgets/slider/lv_slider.c ****  *  STATIC PROTOTYPES
  36:Lib/lvgl/src/widgets/slider/lv_slider.c ****  **********************/
  37:Lib/lvgl/src/widgets/slider/lv_slider.c **** static void lv_slider_constructor(const lv_obj_class_t * class_p, lv_obj_t * obj);
  38:Lib/lvgl/src/widgets/slider/lv_slider.c **** static void lv_slider_event(const lv_obj_class_t * class_p, lv_event_t * e);
  39:Lib/lvgl/src/widgets/slider/lv_slider.c **** static void position_knob(lv_obj_t * obj, lv_area_t * knob_area, const int32_t knob_size, const boo
  40:Lib/lvgl/src/widgets/slider/lv_slider.c **** static void draw_knob(lv_event_t * e);
  41:Lib/lvgl/src/widgets/slider/lv_slider.c **** static bool is_slider_horizontal(lv_obj_t * obj);
  42:Lib/lvgl/src/widgets/slider/lv_slider.c **** static void drag_start(lv_obj_t * obj);
  43:Lib/lvgl/src/widgets/slider/lv_slider.c **** static void update_knob_pos(lv_obj_t * obj, bool check_drag);
  44:Lib/lvgl/src/widgets/slider/lv_slider.c **** 
  45:Lib/lvgl/src/widgets/slider/lv_slider.c **** /**********************
  46:Lib/lvgl/src/widgets/slider/lv_slider.c ****  *  STATIC VARIABLES
  47:Lib/lvgl/src/widgets/slider/lv_slider.c ****  **********************/
  48:Lib/lvgl/src/widgets/slider/lv_slider.c **** const lv_obj_class_t lv_slider_class = {
  49:Lib/lvgl/src/widgets/slider/lv_slider.c ****     .constructor_cb = lv_slider_constructor,
  50:Lib/lvgl/src/widgets/slider/lv_slider.c ****     .event_cb = lv_slider_event,
  51:Lib/lvgl/src/widgets/slider/lv_slider.c ****     .editable = LV_OBJ_CLASS_EDITABLE_TRUE,
  52:Lib/lvgl/src/widgets/slider/lv_slider.c ****     .group_def = LV_OBJ_CLASS_GROUP_DEF_TRUE,
  53:Lib/lvgl/src/widgets/slider/lv_slider.c ****     .instance_size = sizeof(lv_slider_t),
  54:Lib/lvgl/src/widgets/slider/lv_slider.c ****     .base_class = &lv_bar_class,
  55:Lib/lvgl/src/widgets/slider/lv_slider.c ****     .name = "slider",
  56:Lib/lvgl/src/widgets/slider/lv_slider.c **** };
  57:Lib/lvgl/src/widgets/slider/lv_slider.c **** 
  58:Lib/lvgl/src/widgets/slider/lv_slider.c **** /**********************
  59:Lib/lvgl/src/widgets/slider/lv_slider.c ****  *      MACROS
  60:Lib/lvgl/src/widgets/slider/lv_slider.c ****  **********************/
  61:Lib/lvgl/src/widgets/slider/lv_slider.c **** 
  62:Lib/lvgl/src/widgets/slider/lv_slider.c **** /**********************
  63:Lib/lvgl/src/widgets/slider/lv_slider.c ****  *   GLOBAL FUNCTIONS
  64:Lib/lvgl/src/widgets/slider/lv_slider.c ****  **********************/
  65:Lib/lvgl/src/widgets/slider/lv_slider.c **** 
  66:Lib/lvgl/src/widgets/slider/lv_slider.c **** lv_obj_t * lv_slider_create(lv_obj_t * parent)
  67:Lib/lvgl/src/widgets/slider/lv_slider.c **** {
  68:Lib/lvgl/src/widgets/slider/lv_slider.c ****     LV_LOG_INFO("begin");
  69:Lib/lvgl/src/widgets/slider/lv_slider.c ****     lv_obj_t * obj = lv_obj_class_create_obj(MY_CLASS, parent);
  70:Lib/lvgl/src/widgets/slider/lv_slider.c ****     lv_obj_class_init_obj(obj);
  71:Lib/lvgl/src/widgets/slider/lv_slider.c ****     return obj;
  72:Lib/lvgl/src/widgets/slider/lv_slider.c **** }
  73:Lib/lvgl/src/widgets/slider/lv_slider.c **** 
  74:Lib/lvgl/src/widgets/slider/lv_slider.c **** bool lv_slider_is_dragged(const lv_obj_t * obj)
  75:Lib/lvgl/src/widgets/slider/lv_slider.c **** {
  76:Lib/lvgl/src/widgets/slider/lv_slider.c ****     LV_ASSERT_OBJ(obj, MY_CLASS);
  77:Lib/lvgl/src/widgets/slider/lv_slider.c ****     lv_slider_t * slider = (lv_slider_t *)obj;
  78:Lib/lvgl/src/widgets/slider/lv_slider.c **** 
  79:Lib/lvgl/src/widgets/slider/lv_slider.c ****     return slider->dragging;
  80:Lib/lvgl/src/widgets/slider/lv_slider.c **** }
  81:Lib/lvgl/src/widgets/slider/lv_slider.c **** 
  82:Lib/lvgl/src/widgets/slider/lv_slider.c **** /**********************
  83:Lib/lvgl/src/widgets/slider/lv_slider.c ****  *   STATIC FUNCTIONS
  84:Lib/lvgl/src/widgets/slider/lv_slider.c ****  **********************/
  85:Lib/lvgl/src/widgets/slider/lv_slider.c **** 
  86:Lib/lvgl/src/widgets/slider/lv_slider.c **** static void lv_slider_constructor(const lv_obj_class_t * class_p, lv_obj_t * obj)
  87:Lib/lvgl/src/widgets/slider/lv_slider.c **** {
ARM GAS  C:\Users\Alex\AppData\Local\Temp\cc5XGeRL.s 			page 3


  88:Lib/lvgl/src/widgets/slider/lv_slider.c ****     LV_UNUSED(class_p);
  89:Lib/lvgl/src/widgets/slider/lv_slider.c ****     lv_slider_t * slider = (lv_slider_t *)obj;
  90:Lib/lvgl/src/widgets/slider/lv_slider.c **** 
  91:Lib/lvgl/src/widgets/slider/lv_slider.c ****     /*Initialize the allocated 'slider'*/
  92:Lib/lvgl/src/widgets/slider/lv_slider.c ****     slider->value_to_set = NULL;
  93:Lib/lvgl/src/widgets/slider/lv_slider.c ****     slider->dragging = 0U;
  94:Lib/lvgl/src/widgets/slider/lv_slider.c ****     slider->left_knob_focus = 0U;
  95:Lib/lvgl/src/widgets/slider/lv_slider.c **** 
  96:Lib/lvgl/src/widgets/slider/lv_slider.c ****     lv_obj_remove_flag(obj, LV_OBJ_FLAG_SCROLL_CHAIN_HOR);
  97:Lib/lvgl/src/widgets/slider/lv_slider.c ****     lv_obj_remove_flag(obj, LV_OBJ_FLAG_SCROLLABLE);
  98:Lib/lvgl/src/widgets/slider/lv_slider.c ****     lv_obj_add_flag(obj, LV_OBJ_FLAG_SCROLL_ON_FOCUS);
  99:Lib/lvgl/src/widgets/slider/lv_slider.c ****     lv_obj_set_ext_click_area(obj, LV_DPX(8));
 100:Lib/lvgl/src/widgets/slider/lv_slider.c **** }
 101:Lib/lvgl/src/widgets/slider/lv_slider.c **** 
 102:Lib/lvgl/src/widgets/slider/lv_slider.c **** static void lv_slider_event(const lv_obj_class_t * class_p, lv_event_t * e)
 103:Lib/lvgl/src/widgets/slider/lv_slider.c **** {
 104:Lib/lvgl/src/widgets/slider/lv_slider.c ****     LV_UNUSED(class_p);
 105:Lib/lvgl/src/widgets/slider/lv_slider.c **** 
 106:Lib/lvgl/src/widgets/slider/lv_slider.c ****     lv_result_t res;
 107:Lib/lvgl/src/widgets/slider/lv_slider.c **** 
 108:Lib/lvgl/src/widgets/slider/lv_slider.c ****     /*Call the ancestor's event handler*/
 109:Lib/lvgl/src/widgets/slider/lv_slider.c ****     res = lv_obj_event_base(MY_CLASS, e);
 110:Lib/lvgl/src/widgets/slider/lv_slider.c ****     if(res != LV_RESULT_OK) return;
 111:Lib/lvgl/src/widgets/slider/lv_slider.c **** 
 112:Lib/lvgl/src/widgets/slider/lv_slider.c ****     lv_event_code_t code = lv_event_get_code(e);
 113:Lib/lvgl/src/widgets/slider/lv_slider.c ****     lv_obj_t * obj = lv_event_get_current_target(e);
 114:Lib/lvgl/src/widgets/slider/lv_slider.c ****     lv_slider_t * slider = (lv_slider_t *)obj;
 115:Lib/lvgl/src/widgets/slider/lv_slider.c ****     lv_slider_mode_t type = lv_slider_get_mode(obj);
 116:Lib/lvgl/src/widgets/slider/lv_slider.c **** 
 117:Lib/lvgl/src/widgets/slider/lv_slider.c ****     /*Advanced hit testing: react only on dragging the knob(s)*/
 118:Lib/lvgl/src/widgets/slider/lv_slider.c ****     if(code == LV_EVENT_HIT_TEST) {
 119:Lib/lvgl/src/widgets/slider/lv_slider.c ****         lv_hit_test_info_t * info = lv_event_get_param(e);
 120:Lib/lvgl/src/widgets/slider/lv_slider.c ****         int32_t ext_click_area = obj->spec_attr ? obj->spec_attr->ext_click_pad : 0;
 121:Lib/lvgl/src/widgets/slider/lv_slider.c **** 
 122:Lib/lvgl/src/widgets/slider/lv_slider.c ****         /*Ordinary slider: was the knob area hit?*/
 123:Lib/lvgl/src/widgets/slider/lv_slider.c ****         lv_area_t a;
 124:Lib/lvgl/src/widgets/slider/lv_slider.c ****         lv_area_copy(&a, &slider->right_knob_area);
 125:Lib/lvgl/src/widgets/slider/lv_slider.c ****         lv_area_increase(&a, ext_click_area, ext_click_area);
 126:Lib/lvgl/src/widgets/slider/lv_slider.c ****         info->res = _lv_area_is_point_on(&a, info->point, 0);
 127:Lib/lvgl/src/widgets/slider/lv_slider.c **** 
 128:Lib/lvgl/src/widgets/slider/lv_slider.c ****         /*There's still a chance that there is a hit if there is another knob*/
 129:Lib/lvgl/src/widgets/slider/lv_slider.c ****         if((info->res == false) && (type == LV_SLIDER_MODE_RANGE)) {
 130:Lib/lvgl/src/widgets/slider/lv_slider.c ****             lv_area_copy(&a, &slider->left_knob_area);
 131:Lib/lvgl/src/widgets/slider/lv_slider.c ****             lv_area_increase(&a, ext_click_area, ext_click_area);
 132:Lib/lvgl/src/widgets/slider/lv_slider.c ****             info->res = _lv_area_is_point_on(&a, info->point, 0);
 133:Lib/lvgl/src/widgets/slider/lv_slider.c ****         }
 134:Lib/lvgl/src/widgets/slider/lv_slider.c ****     }
 135:Lib/lvgl/src/widgets/slider/lv_slider.c ****     else if(code == LV_EVENT_PRESSED) {
 136:Lib/lvgl/src/widgets/slider/lv_slider.c ****         /*Save the pressed coordinates*/
 137:Lib/lvgl/src/widgets/slider/lv_slider.c ****         lv_indev_get_point(lv_indev_active(), &slider->pressed_point);
 138:Lib/lvgl/src/widgets/slider/lv_slider.c ****         lv_obj_transform_point(obj, &slider->pressed_point, true, true);
 139:Lib/lvgl/src/widgets/slider/lv_slider.c ****     }
 140:Lib/lvgl/src/widgets/slider/lv_slider.c ****     else if(code == LV_EVENT_PRESSING) {
 141:Lib/lvgl/src/widgets/slider/lv_slider.c ****         update_knob_pos(obj, true);
 142:Lib/lvgl/src/widgets/slider/lv_slider.c ****     }
 143:Lib/lvgl/src/widgets/slider/lv_slider.c ****     else if(code == LV_EVENT_RELEASED || code == LV_EVENT_PRESS_LOST) {
 144:Lib/lvgl/src/widgets/slider/lv_slider.c ****         update_knob_pos(obj, false);
ARM GAS  C:\Users\Alex\AppData\Local\Temp\cc5XGeRL.s 			page 4


 145:Lib/lvgl/src/widgets/slider/lv_slider.c ****         slider->dragging = false;
 146:Lib/lvgl/src/widgets/slider/lv_slider.c ****         slider->value_to_set = NULL;
 147:Lib/lvgl/src/widgets/slider/lv_slider.c **** 
 148:Lib/lvgl/src/widgets/slider/lv_slider.c ****         lv_obj_invalidate(obj);
 149:Lib/lvgl/src/widgets/slider/lv_slider.c **** 
 150:Lib/lvgl/src/widgets/slider/lv_slider.c ****         /*Leave edit mode if released. (No need to wait for LONG_PRESS)*/
 151:Lib/lvgl/src/widgets/slider/lv_slider.c ****         lv_group_t * g   = lv_obj_get_group(obj);
 152:Lib/lvgl/src/widgets/slider/lv_slider.c ****         bool editing     = lv_group_get_editing(g);
 153:Lib/lvgl/src/widgets/slider/lv_slider.c ****         lv_indev_type_t indev_type = lv_indev_get_type(lv_indev_active());
 154:Lib/lvgl/src/widgets/slider/lv_slider.c ****         if(indev_type == LV_INDEV_TYPE_ENCODER) {
 155:Lib/lvgl/src/widgets/slider/lv_slider.c ****             if(editing) {
 156:Lib/lvgl/src/widgets/slider/lv_slider.c ****                 if(lv_slider_get_mode(obj) == LV_SLIDER_MODE_RANGE) {
 157:Lib/lvgl/src/widgets/slider/lv_slider.c ****                     if(slider->left_knob_focus == 0) slider->left_knob_focus = 1;
 158:Lib/lvgl/src/widgets/slider/lv_slider.c ****                     else {
 159:Lib/lvgl/src/widgets/slider/lv_slider.c ****                         slider->left_knob_focus = 0;
 160:Lib/lvgl/src/widgets/slider/lv_slider.c ****                         lv_group_set_editing(g, false);
 161:Lib/lvgl/src/widgets/slider/lv_slider.c ****                     }
 162:Lib/lvgl/src/widgets/slider/lv_slider.c ****                 }
 163:Lib/lvgl/src/widgets/slider/lv_slider.c ****                 else {
 164:Lib/lvgl/src/widgets/slider/lv_slider.c ****                     lv_group_set_editing(g, false);
 165:Lib/lvgl/src/widgets/slider/lv_slider.c ****                 }
 166:Lib/lvgl/src/widgets/slider/lv_slider.c ****             }
 167:Lib/lvgl/src/widgets/slider/lv_slider.c ****         }
 168:Lib/lvgl/src/widgets/slider/lv_slider.c ****         else if(indev_type == LV_INDEV_TYPE_POINTER) {
 169:Lib/lvgl/src/widgets/slider/lv_slider.c ****             if(is_slider_horizontal(obj)) lv_obj_add_flag(obj, LV_OBJ_FLAG_SCROLL_CHAIN_VER);
 170:Lib/lvgl/src/widgets/slider/lv_slider.c ****             else  lv_obj_add_flag(obj, LV_OBJ_FLAG_SCROLL_CHAIN_HOR);
 171:Lib/lvgl/src/widgets/slider/lv_slider.c ****         }
 172:Lib/lvgl/src/widgets/slider/lv_slider.c ****     }
 173:Lib/lvgl/src/widgets/slider/lv_slider.c ****     else if(code == LV_EVENT_FOCUSED) {
 174:Lib/lvgl/src/widgets/slider/lv_slider.c ****         lv_indev_type_t indev_type = lv_indev_get_type(lv_indev_active());
 175:Lib/lvgl/src/widgets/slider/lv_slider.c ****         if(indev_type == LV_INDEV_TYPE_ENCODER || indev_type == LV_INDEV_TYPE_KEYPAD) {
 176:Lib/lvgl/src/widgets/slider/lv_slider.c ****             slider->left_knob_focus = 0;
 177:Lib/lvgl/src/widgets/slider/lv_slider.c ****         }
 178:Lib/lvgl/src/widgets/slider/lv_slider.c ****     }
 179:Lib/lvgl/src/widgets/slider/lv_slider.c ****     else if(code == LV_EVENT_SIZE_CHANGED) {
 180:Lib/lvgl/src/widgets/slider/lv_slider.c ****         if(is_slider_horizontal(obj)) {
 181:Lib/lvgl/src/widgets/slider/lv_slider.c ****             lv_obj_add_flag(obj, LV_OBJ_FLAG_SCROLL_CHAIN_VER);
 182:Lib/lvgl/src/widgets/slider/lv_slider.c ****             lv_obj_remove_flag(obj, LV_OBJ_FLAG_SCROLL_CHAIN_HOR);
 183:Lib/lvgl/src/widgets/slider/lv_slider.c ****         }
 184:Lib/lvgl/src/widgets/slider/lv_slider.c ****         else {
 185:Lib/lvgl/src/widgets/slider/lv_slider.c ****             lv_obj_add_flag(obj, LV_OBJ_FLAG_SCROLL_CHAIN_HOR);
 186:Lib/lvgl/src/widgets/slider/lv_slider.c ****             lv_obj_remove_flag(obj, LV_OBJ_FLAG_SCROLL_CHAIN_VER);
 187:Lib/lvgl/src/widgets/slider/lv_slider.c ****         }
 188:Lib/lvgl/src/widgets/slider/lv_slider.c ****         lv_obj_refresh_ext_draw_size(obj);
 189:Lib/lvgl/src/widgets/slider/lv_slider.c ****     }
 190:Lib/lvgl/src/widgets/slider/lv_slider.c ****     else if(code == LV_EVENT_REFR_EXT_DRAW_SIZE) {
 191:Lib/lvgl/src/widgets/slider/lv_slider.c ****         int32_t knob_left = lv_obj_get_style_pad_left(obj, LV_PART_KNOB);
 192:Lib/lvgl/src/widgets/slider/lv_slider.c ****         int32_t knob_right = lv_obj_get_style_pad_right(obj, LV_PART_KNOB);
 193:Lib/lvgl/src/widgets/slider/lv_slider.c ****         int32_t knob_top = lv_obj_get_style_pad_top(obj, LV_PART_KNOB);
 194:Lib/lvgl/src/widgets/slider/lv_slider.c ****         int32_t knob_bottom = lv_obj_get_style_pad_bottom(obj, LV_PART_KNOB);
 195:Lib/lvgl/src/widgets/slider/lv_slider.c **** 
 196:Lib/lvgl/src/widgets/slider/lv_slider.c ****         /*The smaller size is the knob diameter*/
 197:Lib/lvgl/src/widgets/slider/lv_slider.c ****         int32_t trans_w = lv_obj_get_style_transform_width(obj, LV_PART_KNOB);
 198:Lib/lvgl/src/widgets/slider/lv_slider.c ****         int32_t trans_h = lv_obj_get_style_transform_height(obj, LV_PART_KNOB);
 199:Lib/lvgl/src/widgets/slider/lv_slider.c ****         int32_t knob_size = LV_MIN(lv_obj_get_width(obj) + 2 * trans_w, lv_obj_get_height(obj) + 2 
 200:Lib/lvgl/src/widgets/slider/lv_slider.c ****         knob_size += LV_MAX(LV_MAX(knob_left, knob_right), LV_MAX(knob_bottom, knob_top));
 201:Lib/lvgl/src/widgets/slider/lv_slider.c ****         knob_size += 2;         /*For rounding error*/
ARM GAS  C:\Users\Alex\AppData\Local\Temp\cc5XGeRL.s 			page 5


 202:Lib/lvgl/src/widgets/slider/lv_slider.c ****         knob_size += lv_obj_calculate_ext_draw_size(obj, LV_PART_KNOB);
 203:Lib/lvgl/src/widgets/slider/lv_slider.c **** 
 204:Lib/lvgl/src/widgets/slider/lv_slider.c ****         /*Indic. size is handled by bar*/
 205:Lib/lvgl/src/widgets/slider/lv_slider.c ****         int32_t * s = lv_event_get_param(e);
 206:Lib/lvgl/src/widgets/slider/lv_slider.c ****         *s  = LV_MAX(*s, knob_size);
 207:Lib/lvgl/src/widgets/slider/lv_slider.c **** 
 208:Lib/lvgl/src/widgets/slider/lv_slider.c ****     }
 209:Lib/lvgl/src/widgets/slider/lv_slider.c ****     else if(code == LV_EVENT_KEY) {
 210:Lib/lvgl/src/widgets/slider/lv_slider.c ****         uint32_t c = lv_event_get_key(e);
 211:Lib/lvgl/src/widgets/slider/lv_slider.c **** 
 212:Lib/lvgl/src/widgets/slider/lv_slider.c ****         if(c == LV_KEY_RIGHT || c == LV_KEY_UP) {
 213:Lib/lvgl/src/widgets/slider/lv_slider.c ****             if(!slider->left_knob_focus) lv_slider_set_value(obj, lv_slider_get_value(obj) + 1, LV_
 214:Lib/lvgl/src/widgets/slider/lv_slider.c ****             else lv_slider_set_left_value(obj, lv_slider_get_left_value(obj) + 1, LV_ANIM_ON);
 215:Lib/lvgl/src/widgets/slider/lv_slider.c ****         }
 216:Lib/lvgl/src/widgets/slider/lv_slider.c ****         else if(c == LV_KEY_LEFT || c == LV_KEY_DOWN) {
 217:Lib/lvgl/src/widgets/slider/lv_slider.c ****             if(!slider->left_knob_focus) lv_slider_set_value(obj, lv_slider_get_value(obj) - 1, LV_
 218:Lib/lvgl/src/widgets/slider/lv_slider.c ****             else lv_slider_set_left_value(obj, lv_slider_get_left_value(obj) - 1, LV_ANIM_ON);
 219:Lib/lvgl/src/widgets/slider/lv_slider.c ****         }
 220:Lib/lvgl/src/widgets/slider/lv_slider.c ****         else {
 221:Lib/lvgl/src/widgets/slider/lv_slider.c ****             return;
 222:Lib/lvgl/src/widgets/slider/lv_slider.c ****         }
 223:Lib/lvgl/src/widgets/slider/lv_slider.c **** 
 224:Lib/lvgl/src/widgets/slider/lv_slider.c ****         res = lv_obj_send_event(obj, LV_EVENT_VALUE_CHANGED, NULL);
 225:Lib/lvgl/src/widgets/slider/lv_slider.c ****         if(res != LV_RESULT_OK) return;
 226:Lib/lvgl/src/widgets/slider/lv_slider.c ****     }
 227:Lib/lvgl/src/widgets/slider/lv_slider.c ****     else if(code == LV_EVENT_DRAW_MAIN) {
 228:Lib/lvgl/src/widgets/slider/lv_slider.c ****         draw_knob(e);
 229:Lib/lvgl/src/widgets/slider/lv_slider.c ****     }
 230:Lib/lvgl/src/widgets/slider/lv_slider.c **** }
 231:Lib/lvgl/src/widgets/slider/lv_slider.c **** 
 232:Lib/lvgl/src/widgets/slider/lv_slider.c **** static void draw_knob(lv_event_t * e)
 233:Lib/lvgl/src/widgets/slider/lv_slider.c **** {
 234:Lib/lvgl/src/widgets/slider/lv_slider.c ****     lv_obj_t * obj = lv_event_get_current_target(e);
 235:Lib/lvgl/src/widgets/slider/lv_slider.c ****     lv_slider_t * slider = (lv_slider_t *)obj;
 236:Lib/lvgl/src/widgets/slider/lv_slider.c ****     lv_layer_t * layer = lv_event_get_layer(e);
 237:Lib/lvgl/src/widgets/slider/lv_slider.c **** 
 238:Lib/lvgl/src/widgets/slider/lv_slider.c ****     const bool is_rtl = LV_BASE_DIR_RTL == lv_obj_get_style_base_dir(obj, LV_PART_MAIN);
 239:Lib/lvgl/src/widgets/slider/lv_slider.c ****     const bool is_horizontal = is_slider_horizontal(obj);
 240:Lib/lvgl/src/widgets/slider/lv_slider.c ****     const bool is_reversed = slider->bar.val_reversed ^ (is_rtl && is_horizontal);
 241:Lib/lvgl/src/widgets/slider/lv_slider.c **** 
 242:Lib/lvgl/src/widgets/slider/lv_slider.c ****     lv_area_t knob_area;
 243:Lib/lvgl/src/widgets/slider/lv_slider.c ****     int32_t knob_size;
 244:Lib/lvgl/src/widgets/slider/lv_slider.c ****     bool is_symmetrical = lv_slider_is_symmetrical(obj);
 245:Lib/lvgl/src/widgets/slider/lv_slider.c **** 
 246:Lib/lvgl/src/widgets/slider/lv_slider.c ****     if(is_horizontal) {
 247:Lib/lvgl/src/widgets/slider/lv_slider.c ****         knob_size = lv_obj_get_height(obj);
 248:Lib/lvgl/src/widgets/slider/lv_slider.c ****         if(is_symmetrical &&
 249:Lib/lvgl/src/widgets/slider/lv_slider.c ****            slider->bar.cur_value < 0) knob_area.x1 = LV_SLIDER_KNOB_COORD(!is_reversed, slider->bar
 250:Lib/lvgl/src/widgets/slider/lv_slider.c ****         else knob_area.x1 = LV_SLIDER_KNOB_COORD(is_reversed, slider->bar.indic_area);
 251:Lib/lvgl/src/widgets/slider/lv_slider.c ****     }
 252:Lib/lvgl/src/widgets/slider/lv_slider.c ****     else {
 253:Lib/lvgl/src/widgets/slider/lv_slider.c ****         knob_size = lv_obj_get_width(obj);
 254:Lib/lvgl/src/widgets/slider/lv_slider.c ****         if(is_symmetrical &&
 255:Lib/lvgl/src/widgets/slider/lv_slider.c ****            slider->bar.cur_value < 0) knob_area.y1 =  LV_SLIDER_KNOB_COORD_VERTICAL(!is_reversed, s
 256:Lib/lvgl/src/widgets/slider/lv_slider.c ****         else knob_area.y1 = LV_SLIDER_KNOB_COORD_VERTICAL(is_reversed, slider->bar.indic_area);
 257:Lib/lvgl/src/widgets/slider/lv_slider.c ****     }
 258:Lib/lvgl/src/widgets/slider/lv_slider.c ****     lv_draw_rect_dsc_t knob_rect_dsc;
ARM GAS  C:\Users\Alex\AppData\Local\Temp\cc5XGeRL.s 			page 6


 259:Lib/lvgl/src/widgets/slider/lv_slider.c ****     lv_draw_rect_dsc_init(&knob_rect_dsc);
 260:Lib/lvgl/src/widgets/slider/lv_slider.c ****     lv_obj_init_draw_rect_dsc(obj, LV_PART_KNOB, &knob_rect_dsc);
 261:Lib/lvgl/src/widgets/slider/lv_slider.c ****     /* Update knob area with knob style */
 262:Lib/lvgl/src/widgets/slider/lv_slider.c ****     position_knob(obj, &knob_area, knob_size, is_horizontal);
 263:Lib/lvgl/src/widgets/slider/lv_slider.c ****     /* Update right knob area with calculated knob area */
 264:Lib/lvgl/src/widgets/slider/lv_slider.c ****     lv_area_copy(&slider->right_knob_area, &knob_area);
 265:Lib/lvgl/src/widgets/slider/lv_slider.c **** 
 266:Lib/lvgl/src/widgets/slider/lv_slider.c ****     if(lv_slider_get_mode(obj) != LV_SLIDER_MODE_RANGE) {
 267:Lib/lvgl/src/widgets/slider/lv_slider.c ****         lv_draw_rect(layer, &knob_rect_dsc, &slider->right_knob_area);
 268:Lib/lvgl/src/widgets/slider/lv_slider.c ****     }
 269:Lib/lvgl/src/widgets/slider/lv_slider.c ****     else {
 270:Lib/lvgl/src/widgets/slider/lv_slider.c ****         /*Save the draw part_draw_dsc. because it can be modified in the event*/
 271:Lib/lvgl/src/widgets/slider/lv_slider.c ****         lv_draw_rect_dsc_t knob_rect_dsc_tmp;
 272:Lib/lvgl/src/widgets/slider/lv_slider.c ****         lv_memcpy(&knob_rect_dsc_tmp, &knob_rect_dsc, sizeof(lv_draw_rect_dsc_t));
 273:Lib/lvgl/src/widgets/slider/lv_slider.c ****         /* Draw the right knob */
 274:Lib/lvgl/src/widgets/slider/lv_slider.c ****         lv_draw_rect(layer, &knob_rect_dsc, &slider->right_knob_area);
 275:Lib/lvgl/src/widgets/slider/lv_slider.c **** 
 276:Lib/lvgl/src/widgets/slider/lv_slider.c ****         /*Calculate the second knob area*/
 277:Lib/lvgl/src/widgets/slider/lv_slider.c ****         if(is_horizontal) {
 278:Lib/lvgl/src/widgets/slider/lv_slider.c ****             /*use !is_reversed to get the other knob*/
 279:Lib/lvgl/src/widgets/slider/lv_slider.c ****             knob_area.x1 = LV_SLIDER_KNOB_COORD(!is_reversed, slider->bar.indic_area);
 280:Lib/lvgl/src/widgets/slider/lv_slider.c ****         }
 281:Lib/lvgl/src/widgets/slider/lv_slider.c ****         else {
 282:Lib/lvgl/src/widgets/slider/lv_slider.c ****             knob_area.y1 = LV_SLIDER_KNOB_COORD_VERTICAL(!is_reversed, slider->bar.indic_area);
 283:Lib/lvgl/src/widgets/slider/lv_slider.c ****         }
 284:Lib/lvgl/src/widgets/slider/lv_slider.c ****         position_knob(obj, &knob_area, knob_size, is_horizontal);
 285:Lib/lvgl/src/widgets/slider/lv_slider.c ****         lv_area_copy(&slider->left_knob_area, &knob_area);
 286:Lib/lvgl/src/widgets/slider/lv_slider.c **** 
 287:Lib/lvgl/src/widgets/slider/lv_slider.c ****         lv_memcpy(&knob_rect_dsc, &knob_rect_dsc_tmp, sizeof(lv_draw_rect_dsc_t));
 288:Lib/lvgl/src/widgets/slider/lv_slider.c **** 
 289:Lib/lvgl/src/widgets/slider/lv_slider.c ****         lv_draw_rect(layer, &knob_rect_dsc, &slider->left_knob_area);
 290:Lib/lvgl/src/widgets/slider/lv_slider.c ****     }
 291:Lib/lvgl/src/widgets/slider/lv_slider.c **** }
 292:Lib/lvgl/src/widgets/slider/lv_slider.c **** 
 293:Lib/lvgl/src/widgets/slider/lv_slider.c **** static void position_knob(lv_obj_t * obj, lv_area_t * knob_area, const int32_t knob_size, const boo
 294:Lib/lvgl/src/widgets/slider/lv_slider.c **** {
 295:Lib/lvgl/src/widgets/slider/lv_slider.c ****     if(hor) {
 296:Lib/lvgl/src/widgets/slider/lv_slider.c ****         knob_area->x1 -= (knob_size >> 1);
 297:Lib/lvgl/src/widgets/slider/lv_slider.c ****         knob_area->x2 = knob_area->x1 + knob_size - 1;
 298:Lib/lvgl/src/widgets/slider/lv_slider.c ****         knob_area->y1 = obj->coords.y1;
 299:Lib/lvgl/src/widgets/slider/lv_slider.c ****         knob_area->y2 = obj->coords.y2;
 300:Lib/lvgl/src/widgets/slider/lv_slider.c ****     }
 301:Lib/lvgl/src/widgets/slider/lv_slider.c ****     else {
 302:Lib/lvgl/src/widgets/slider/lv_slider.c ****         knob_area->y1 -= (knob_size >> 1);
 303:Lib/lvgl/src/widgets/slider/lv_slider.c ****         knob_area->y2 = knob_area->y1 + knob_size - 1;
 304:Lib/lvgl/src/widgets/slider/lv_slider.c ****         knob_area->x1 = obj->coords.x1;
 305:Lib/lvgl/src/widgets/slider/lv_slider.c ****         knob_area->x2 = obj->coords.x2;
 306:Lib/lvgl/src/widgets/slider/lv_slider.c ****     }
 307:Lib/lvgl/src/widgets/slider/lv_slider.c **** 
 308:Lib/lvgl/src/widgets/slider/lv_slider.c ****     int32_t knob_left = lv_obj_get_style_pad_left(obj, LV_PART_KNOB);
 309:Lib/lvgl/src/widgets/slider/lv_slider.c ****     int32_t knob_right = lv_obj_get_style_pad_right(obj, LV_PART_KNOB);
 310:Lib/lvgl/src/widgets/slider/lv_slider.c ****     int32_t knob_top = lv_obj_get_style_pad_top(obj, LV_PART_KNOB);
 311:Lib/lvgl/src/widgets/slider/lv_slider.c ****     int32_t knob_bottom = lv_obj_get_style_pad_bottom(obj, LV_PART_KNOB);
 312:Lib/lvgl/src/widgets/slider/lv_slider.c **** 
 313:Lib/lvgl/src/widgets/slider/lv_slider.c ****     int32_t transf_w = lv_obj_get_style_transform_width(obj, LV_PART_KNOB);
 314:Lib/lvgl/src/widgets/slider/lv_slider.c ****     int32_t transf_h = lv_obj_get_style_transform_height(obj, LV_PART_KNOB);
 315:Lib/lvgl/src/widgets/slider/lv_slider.c **** 
ARM GAS  C:\Users\Alex\AppData\Local\Temp\cc5XGeRL.s 			page 7


 316:Lib/lvgl/src/widgets/slider/lv_slider.c ****     /*Apply the paddings on the knob area*/
 317:Lib/lvgl/src/widgets/slider/lv_slider.c ****     knob_area->x1 -= knob_left + transf_w;
 318:Lib/lvgl/src/widgets/slider/lv_slider.c ****     knob_area->x2 += knob_right + transf_w;
 319:Lib/lvgl/src/widgets/slider/lv_slider.c ****     knob_area->y1 -= knob_top + transf_h;
 320:Lib/lvgl/src/widgets/slider/lv_slider.c ****     knob_area->y2 += knob_bottom + transf_h;
 321:Lib/lvgl/src/widgets/slider/lv_slider.c **** }
 322:Lib/lvgl/src/widgets/slider/lv_slider.c **** 
 323:Lib/lvgl/src/widgets/slider/lv_slider.c **** static bool is_slider_horizontal(lv_obj_t * obj)
 324:Lib/lvgl/src/widgets/slider/lv_slider.c **** {
  29              		.loc 1 324 1 view -0
  30              		.cfi_startproc
  31              		@ args = 0, pretend = 0, frame = 0
  32              		@ frame_needed = 0, uses_anonymous_args = 0
  33              		.loc 1 324 1 is_stmt 0 view .LVU1
  34 0000 38B5     		push	{r3, r4, r5, lr}
  35              	.LCFI0:
  36              		.cfi_def_cfa_offset 16
  37              		.cfi_offset 3, -16
  38              		.cfi_offset 4, -12
  39              		.cfi_offset 5, -8
  40              		.cfi_offset 14, -4
  41 0002 0546     		mov	r5, r0
 325:Lib/lvgl/src/widgets/slider/lv_slider.c ****     return lv_obj_get_width(obj) >= lv_obj_get_height(obj);
  42              		.loc 1 325 5 is_stmt 1 view .LVU2
  43              		.loc 1 325 12 is_stmt 0 view .LVU3
  44 0004 FFF7FEFF 		bl	lv_obj_get_width
  45              	.LVL1:
  46              		.loc 1 325 12 view .LVU4
  47 0008 0446     		mov	r4, r0
  48              		.loc 1 325 37 view .LVU5
  49 000a 2846     		mov	r0, r5
  50 000c FFF7FEFF 		bl	lv_obj_get_height
  51              	.LVL2:
 326:Lib/lvgl/src/widgets/slider/lv_slider.c **** }
  52              		.loc 1 326 1 view .LVU6
  53 0010 8442     		cmp	r4, r0
  54 0012 B4BF     		ite	lt
  55 0014 0020     		movlt	r0, #0
  56 0016 0120     		movge	r0, #1
  57 0018 38BD     		pop	{r3, r4, r5, pc}
  58              		.loc 1 326 1 view .LVU7
  59              		.cfi_endproc
  60              	.LFE250:
  62              		.section	.text.position_knob,"ax",%progbits
  63              		.align	1
  64              		.syntax unified
  65              		.thumb
  66              		.thumb_func
  68              	position_knob:
  69              	.LVL3:
  70              	.LFB249:
 294:Lib/lvgl/src/widgets/slider/lv_slider.c ****     if(hor) {
  71              		.loc 1 294 1 is_stmt 1 view -0
  72              		.cfi_startproc
  73              		@ args = 0, pretend = 0, frame = 8
  74              		@ frame_needed = 0, uses_anonymous_args = 0
 294:Lib/lvgl/src/widgets/slider/lv_slider.c ****     if(hor) {
ARM GAS  C:\Users\Alex\AppData\Local\Temp\cc5XGeRL.s 			page 8


  75              		.loc 1 294 1 is_stmt 0 view .LVU9
  76 0000 2DE9F047 		push	{r4, r5, r6, r7, r8, r9, r10, lr}
  77              	.LCFI1:
  78              		.cfi_def_cfa_offset 32
  79              		.cfi_offset 4, -32
  80              		.cfi_offset 5, -28
  81              		.cfi_offset 6, -24
  82              		.cfi_offset 7, -20
  83              		.cfi_offset 8, -16
  84              		.cfi_offset 9, -12
  85              		.cfi_offset 10, -8
  86              		.cfi_offset 14, -4
  87 0004 82B0     		sub	sp, sp, #8
  88              	.LCFI2:
  89              		.cfi_def_cfa_offset 40
  90 0006 0546     		mov	r5, r0
  91 0008 0C46     		mov	r4, r1
 295:Lib/lvgl/src/widgets/slider/lv_slider.c ****         knob_area->x1 -= (knob_size >> 1);
  92              		.loc 1 295 5 is_stmt 1 view .LVU10
 295:Lib/lvgl/src/widgets/slider/lv_slider.c ****         knob_area->x1 -= (knob_size >> 1);
  93              		.loc 1 295 7 is_stmt 0 view .LVU11
  94 000a 002B     		cmp	r3, #0
  95 000c 4ED0     		beq	.L4
 296:Lib/lvgl/src/widgets/slider/lv_slider.c ****         knob_area->x2 = knob_area->x1 + knob_size - 1;
  96              		.loc 1 296 9 is_stmt 1 view .LVU12
 296:Lib/lvgl/src/widgets/slider/lv_slider.c ****         knob_area->x2 = knob_area->x1 + knob_size - 1;
  97              		.loc 1 296 18 is_stmt 0 view .LVU13
  98 000e 0B68     		ldr	r3, [r1]
  99              	.LVL4:
 296:Lib/lvgl/src/widgets/slider/lv_slider.c ****         knob_area->x2 = knob_area->x1 + knob_size - 1;
 100              		.loc 1 296 23 view .LVU14
 101 0010 A3EB6203 		sub	r3, r3, r2, asr #1
 102 0014 0B60     		str	r3, [r1]
 297:Lib/lvgl/src/widgets/slider/lv_slider.c ****         knob_area->y1 = obj->coords.y1;
 103              		.loc 1 297 9 is_stmt 1 view .LVU15
 297:Lib/lvgl/src/widgets/slider/lv_slider.c ****         knob_area->y1 = obj->coords.y1;
 104              		.loc 1 297 39 is_stmt 0 view .LVU16
 105 0016 1344     		add	r3, r3, r2
 297:Lib/lvgl/src/widgets/slider/lv_slider.c ****         knob_area->y1 = obj->coords.y1;
 106              		.loc 1 297 51 view .LVU17
 107 0018 013B     		subs	r3, r3, #1
 297:Lib/lvgl/src/widgets/slider/lv_slider.c ****         knob_area->y1 = obj->coords.y1;
 108              		.loc 1 297 23 view .LVU18
 109 001a 8B60     		str	r3, [r1, #8]
 298:Lib/lvgl/src/widgets/slider/lv_slider.c ****         knob_area->y2 = obj->coords.y2;
 110              		.loc 1 298 9 is_stmt 1 view .LVU19
 298:Lib/lvgl/src/widgets/slider/lv_slider.c ****         knob_area->y2 = obj->coords.y2;
 111              		.loc 1 298 36 is_stmt 0 view .LVU20
 112 001c 8369     		ldr	r3, [r0, #24]
 298:Lib/lvgl/src/widgets/slider/lv_slider.c ****         knob_area->y2 = obj->coords.y2;
 113              		.loc 1 298 23 view .LVU21
 114 001e 4B60     		str	r3, [r1, #4]
 299:Lib/lvgl/src/widgets/slider/lv_slider.c ****     }
 115              		.loc 1 299 9 is_stmt 1 view .LVU22
 299:Lib/lvgl/src/widgets/slider/lv_slider.c ****     }
 116              		.loc 1 299 36 is_stmt 0 view .LVU23
 117 0020 036A     		ldr	r3, [r0, #32]
ARM GAS  C:\Users\Alex\AppData\Local\Temp\cc5XGeRL.s 			page 9


 299:Lib/lvgl/src/widgets/slider/lv_slider.c ****     }
 118              		.loc 1 299 23 view .LVU24
 119 0022 CB60     		str	r3, [r1, #12]
 120              	.L5:
 308:Lib/lvgl/src/widgets/slider/lv_slider.c ****     int32_t knob_right = lv_obj_get_style_pad_right(obj, LV_PART_KNOB);
 121              		.loc 1 308 5 is_stmt 1 view .LVU25
 122              	.LVL5:
 123              	.LBB77:
 124              	.LBI77:
 125              		.file 2 "Lib/lvgl/src/widgets/slider/../bar/../../core/lv_obj_style_gen.h"
   1:Lib/lvgl/src/widgets/slider/../bar/../../core/lv_obj_style_gen.h **** 
   2:Lib/lvgl/src/widgets/slider/../bar/../../core/lv_obj_style_gen.h **** /*
   3:Lib/lvgl/src/widgets/slider/../bar/../../core/lv_obj_style_gen.h ****  **********************************************************************
   4:Lib/lvgl/src/widgets/slider/../bar/../../core/lv_obj_style_gen.h ****  *                            DO NOT EDIT
   5:Lib/lvgl/src/widgets/slider/../bar/../../core/lv_obj_style_gen.h ****  * This file is automatically generated by "style_api_gen.py"
   6:Lib/lvgl/src/widgets/slider/../bar/../../core/lv_obj_style_gen.h ****  **********************************************************************
   7:Lib/lvgl/src/widgets/slider/../bar/../../core/lv_obj_style_gen.h ****  */
   8:Lib/lvgl/src/widgets/slider/../bar/../../core/lv_obj_style_gen.h **** 
   9:Lib/lvgl/src/widgets/slider/../bar/../../core/lv_obj_style_gen.h **** #ifndef LV_OBJ_STYLE_GEN_H
  10:Lib/lvgl/src/widgets/slider/../bar/../../core/lv_obj_style_gen.h **** #define LV_OBJ_STYLE_GEN_H
  11:Lib/lvgl/src/widgets/slider/../bar/../../core/lv_obj_style_gen.h **** 
  12:Lib/lvgl/src/widgets/slider/../bar/../../core/lv_obj_style_gen.h **** #include "../misc/lv_area.h"
  13:Lib/lvgl/src/widgets/slider/../bar/../../core/lv_obj_style_gen.h **** #include "../misc/lv_style.h"
  14:Lib/lvgl/src/widgets/slider/../bar/../../core/lv_obj_style_gen.h **** #include "../core/lv_obj_style.h"
  15:Lib/lvgl/src/widgets/slider/../bar/../../core/lv_obj_style_gen.h **** 
  16:Lib/lvgl/src/widgets/slider/../bar/../../core/lv_obj_style_gen.h **** static inline int32_t lv_obj_get_style_width(const lv_obj_t * obj, uint32_t part)
  17:Lib/lvgl/src/widgets/slider/../bar/../../core/lv_obj_style_gen.h **** {
  18:Lib/lvgl/src/widgets/slider/../bar/../../core/lv_obj_style_gen.h ****     lv_style_value_t v = lv_obj_get_style_prop(obj, part, LV_STYLE_WIDTH);
  19:Lib/lvgl/src/widgets/slider/../bar/../../core/lv_obj_style_gen.h ****     return (int32_t)v.num;
  20:Lib/lvgl/src/widgets/slider/../bar/../../core/lv_obj_style_gen.h **** }
  21:Lib/lvgl/src/widgets/slider/../bar/../../core/lv_obj_style_gen.h **** 
  22:Lib/lvgl/src/widgets/slider/../bar/../../core/lv_obj_style_gen.h **** static inline int32_t lv_obj_get_style_min_width(const lv_obj_t * obj, uint32_t part)
  23:Lib/lvgl/src/widgets/slider/../bar/../../core/lv_obj_style_gen.h **** {
  24:Lib/lvgl/src/widgets/slider/../bar/../../core/lv_obj_style_gen.h ****     lv_style_value_t v = lv_obj_get_style_prop(obj, part, LV_STYLE_MIN_WIDTH);
  25:Lib/lvgl/src/widgets/slider/../bar/../../core/lv_obj_style_gen.h ****     return (int32_t)v.num;
  26:Lib/lvgl/src/widgets/slider/../bar/../../core/lv_obj_style_gen.h **** }
  27:Lib/lvgl/src/widgets/slider/../bar/../../core/lv_obj_style_gen.h **** 
  28:Lib/lvgl/src/widgets/slider/../bar/../../core/lv_obj_style_gen.h **** static inline int32_t lv_obj_get_style_max_width(const lv_obj_t * obj, uint32_t part)
  29:Lib/lvgl/src/widgets/slider/../bar/../../core/lv_obj_style_gen.h **** {
  30:Lib/lvgl/src/widgets/slider/../bar/../../core/lv_obj_style_gen.h ****     lv_style_value_t v = lv_obj_get_style_prop(obj, part, LV_STYLE_MAX_WIDTH);
  31:Lib/lvgl/src/widgets/slider/../bar/../../core/lv_obj_style_gen.h ****     return (int32_t)v.num;
  32:Lib/lvgl/src/widgets/slider/../bar/../../core/lv_obj_style_gen.h **** }
  33:Lib/lvgl/src/widgets/slider/../bar/../../core/lv_obj_style_gen.h **** 
  34:Lib/lvgl/src/widgets/slider/../bar/../../core/lv_obj_style_gen.h **** static inline int32_t lv_obj_get_style_height(const lv_obj_t * obj, uint32_t part)
  35:Lib/lvgl/src/widgets/slider/../bar/../../core/lv_obj_style_gen.h **** {
  36:Lib/lvgl/src/widgets/slider/../bar/../../core/lv_obj_style_gen.h ****     lv_style_value_t v = lv_obj_get_style_prop(obj, part, LV_STYLE_HEIGHT);
  37:Lib/lvgl/src/widgets/slider/../bar/../../core/lv_obj_style_gen.h ****     return (int32_t)v.num;
  38:Lib/lvgl/src/widgets/slider/../bar/../../core/lv_obj_style_gen.h **** }
  39:Lib/lvgl/src/widgets/slider/../bar/../../core/lv_obj_style_gen.h **** 
  40:Lib/lvgl/src/widgets/slider/../bar/../../core/lv_obj_style_gen.h **** static inline int32_t lv_obj_get_style_min_height(const lv_obj_t * obj, uint32_t part)
  41:Lib/lvgl/src/widgets/slider/../bar/../../core/lv_obj_style_gen.h **** {
  42:Lib/lvgl/src/widgets/slider/../bar/../../core/lv_obj_style_gen.h ****     lv_style_value_t v = lv_obj_get_style_prop(obj, part, LV_STYLE_MIN_HEIGHT);
  43:Lib/lvgl/src/widgets/slider/../bar/../../core/lv_obj_style_gen.h ****     return (int32_t)v.num;
  44:Lib/lvgl/src/widgets/slider/../bar/../../core/lv_obj_style_gen.h **** }
  45:Lib/lvgl/src/widgets/slider/../bar/../../core/lv_obj_style_gen.h **** 
  46:Lib/lvgl/src/widgets/slider/../bar/../../core/lv_obj_style_gen.h **** static inline int32_t lv_obj_get_style_max_height(const lv_obj_t * obj, uint32_t part)
  47:Lib/lvgl/src/widgets/slider/../bar/../../core/lv_obj_style_gen.h **** {
ARM GAS  C:\Users\Alex\AppData\Local\Temp\cc5XGeRL.s 			page 10


  48:Lib/lvgl/src/widgets/slider/../bar/../../core/lv_obj_style_gen.h ****     lv_style_value_t v = lv_obj_get_style_prop(obj, part, LV_STYLE_MAX_HEIGHT);
  49:Lib/lvgl/src/widgets/slider/../bar/../../core/lv_obj_style_gen.h ****     return (int32_t)v.num;
  50:Lib/lvgl/src/widgets/slider/../bar/../../core/lv_obj_style_gen.h **** }
  51:Lib/lvgl/src/widgets/slider/../bar/../../core/lv_obj_style_gen.h **** 
  52:Lib/lvgl/src/widgets/slider/../bar/../../core/lv_obj_style_gen.h **** static inline int32_t lv_obj_get_style_length(const lv_obj_t * obj, uint32_t part)
  53:Lib/lvgl/src/widgets/slider/../bar/../../core/lv_obj_style_gen.h **** {
  54:Lib/lvgl/src/widgets/slider/../bar/../../core/lv_obj_style_gen.h ****     lv_style_value_t v = lv_obj_get_style_prop(obj, part, LV_STYLE_LENGTH);
  55:Lib/lvgl/src/widgets/slider/../bar/../../core/lv_obj_style_gen.h ****     return (int32_t)v.num;
  56:Lib/lvgl/src/widgets/slider/../bar/../../core/lv_obj_style_gen.h **** }
  57:Lib/lvgl/src/widgets/slider/../bar/../../core/lv_obj_style_gen.h **** 
  58:Lib/lvgl/src/widgets/slider/../bar/../../core/lv_obj_style_gen.h **** static inline int32_t lv_obj_get_style_x(const lv_obj_t * obj, uint32_t part)
  59:Lib/lvgl/src/widgets/slider/../bar/../../core/lv_obj_style_gen.h **** {
  60:Lib/lvgl/src/widgets/slider/../bar/../../core/lv_obj_style_gen.h ****     lv_style_value_t v = lv_obj_get_style_prop(obj, part, LV_STYLE_X);
  61:Lib/lvgl/src/widgets/slider/../bar/../../core/lv_obj_style_gen.h ****     return (int32_t)v.num;
  62:Lib/lvgl/src/widgets/slider/../bar/../../core/lv_obj_style_gen.h **** }
  63:Lib/lvgl/src/widgets/slider/../bar/../../core/lv_obj_style_gen.h **** 
  64:Lib/lvgl/src/widgets/slider/../bar/../../core/lv_obj_style_gen.h **** static inline int32_t lv_obj_get_style_y(const lv_obj_t * obj, uint32_t part)
  65:Lib/lvgl/src/widgets/slider/../bar/../../core/lv_obj_style_gen.h **** {
  66:Lib/lvgl/src/widgets/slider/../bar/../../core/lv_obj_style_gen.h ****     lv_style_value_t v = lv_obj_get_style_prop(obj, part, LV_STYLE_Y);
  67:Lib/lvgl/src/widgets/slider/../bar/../../core/lv_obj_style_gen.h ****     return (int32_t)v.num;
  68:Lib/lvgl/src/widgets/slider/../bar/../../core/lv_obj_style_gen.h **** }
  69:Lib/lvgl/src/widgets/slider/../bar/../../core/lv_obj_style_gen.h **** 
  70:Lib/lvgl/src/widgets/slider/../bar/../../core/lv_obj_style_gen.h **** static inline lv_align_t lv_obj_get_style_align(const lv_obj_t * obj, uint32_t part)
  71:Lib/lvgl/src/widgets/slider/../bar/../../core/lv_obj_style_gen.h **** {
  72:Lib/lvgl/src/widgets/slider/../bar/../../core/lv_obj_style_gen.h ****     lv_style_value_t v = lv_obj_get_style_prop(obj, part, LV_STYLE_ALIGN);
  73:Lib/lvgl/src/widgets/slider/../bar/../../core/lv_obj_style_gen.h ****     return (lv_align_t)v.num;
  74:Lib/lvgl/src/widgets/slider/../bar/../../core/lv_obj_style_gen.h **** }
  75:Lib/lvgl/src/widgets/slider/../bar/../../core/lv_obj_style_gen.h **** 
  76:Lib/lvgl/src/widgets/slider/../bar/../../core/lv_obj_style_gen.h **** static inline int32_t lv_obj_get_style_transform_width(const lv_obj_t * obj, uint32_t part)
  77:Lib/lvgl/src/widgets/slider/../bar/../../core/lv_obj_style_gen.h **** {
  78:Lib/lvgl/src/widgets/slider/../bar/../../core/lv_obj_style_gen.h ****     lv_style_value_t v = lv_obj_get_style_prop(obj, part, LV_STYLE_TRANSFORM_WIDTH);
  79:Lib/lvgl/src/widgets/slider/../bar/../../core/lv_obj_style_gen.h ****     return (int32_t)v.num;
  80:Lib/lvgl/src/widgets/slider/../bar/../../core/lv_obj_style_gen.h **** }
  81:Lib/lvgl/src/widgets/slider/../bar/../../core/lv_obj_style_gen.h **** 
  82:Lib/lvgl/src/widgets/slider/../bar/../../core/lv_obj_style_gen.h **** static inline int32_t lv_obj_get_style_transform_height(const lv_obj_t * obj, uint32_t part)
  83:Lib/lvgl/src/widgets/slider/../bar/../../core/lv_obj_style_gen.h **** {
  84:Lib/lvgl/src/widgets/slider/../bar/../../core/lv_obj_style_gen.h ****     lv_style_value_t v = lv_obj_get_style_prop(obj, part, LV_STYLE_TRANSFORM_HEIGHT);
  85:Lib/lvgl/src/widgets/slider/../bar/../../core/lv_obj_style_gen.h ****     return (int32_t)v.num;
  86:Lib/lvgl/src/widgets/slider/../bar/../../core/lv_obj_style_gen.h **** }
  87:Lib/lvgl/src/widgets/slider/../bar/../../core/lv_obj_style_gen.h **** 
  88:Lib/lvgl/src/widgets/slider/../bar/../../core/lv_obj_style_gen.h **** static inline int32_t lv_obj_get_style_translate_x(const lv_obj_t * obj, uint32_t part)
  89:Lib/lvgl/src/widgets/slider/../bar/../../core/lv_obj_style_gen.h **** {
  90:Lib/lvgl/src/widgets/slider/../bar/../../core/lv_obj_style_gen.h ****     lv_style_value_t v = lv_obj_get_style_prop(obj, part, LV_STYLE_TRANSLATE_X);
  91:Lib/lvgl/src/widgets/slider/../bar/../../core/lv_obj_style_gen.h ****     return (int32_t)v.num;
  92:Lib/lvgl/src/widgets/slider/../bar/../../core/lv_obj_style_gen.h **** }
  93:Lib/lvgl/src/widgets/slider/../bar/../../core/lv_obj_style_gen.h **** 
  94:Lib/lvgl/src/widgets/slider/../bar/../../core/lv_obj_style_gen.h **** static inline int32_t lv_obj_get_style_translate_y(const lv_obj_t * obj, uint32_t part)
  95:Lib/lvgl/src/widgets/slider/../bar/../../core/lv_obj_style_gen.h **** {
  96:Lib/lvgl/src/widgets/slider/../bar/../../core/lv_obj_style_gen.h ****     lv_style_value_t v = lv_obj_get_style_prop(obj, part, LV_STYLE_TRANSLATE_Y);
  97:Lib/lvgl/src/widgets/slider/../bar/../../core/lv_obj_style_gen.h ****     return (int32_t)v.num;
  98:Lib/lvgl/src/widgets/slider/../bar/../../core/lv_obj_style_gen.h **** }
  99:Lib/lvgl/src/widgets/slider/../bar/../../core/lv_obj_style_gen.h **** 
 100:Lib/lvgl/src/widgets/slider/../bar/../../core/lv_obj_style_gen.h **** static inline int32_t lv_obj_get_style_transform_scale_x(const lv_obj_t * obj, uint32_t part)
 101:Lib/lvgl/src/widgets/slider/../bar/../../core/lv_obj_style_gen.h **** {
 102:Lib/lvgl/src/widgets/slider/../bar/../../core/lv_obj_style_gen.h ****     lv_style_value_t v = lv_obj_get_style_prop(obj, part, LV_STYLE_TRANSFORM_SCALE_X);
 103:Lib/lvgl/src/widgets/slider/../bar/../../core/lv_obj_style_gen.h ****     return (int32_t)v.num;
 104:Lib/lvgl/src/widgets/slider/../bar/../../core/lv_obj_style_gen.h **** }
ARM GAS  C:\Users\Alex\AppData\Local\Temp\cc5XGeRL.s 			page 11


 105:Lib/lvgl/src/widgets/slider/../bar/../../core/lv_obj_style_gen.h **** 
 106:Lib/lvgl/src/widgets/slider/../bar/../../core/lv_obj_style_gen.h **** static inline int32_t lv_obj_get_style_transform_scale_y(const lv_obj_t * obj, uint32_t part)
 107:Lib/lvgl/src/widgets/slider/../bar/../../core/lv_obj_style_gen.h **** {
 108:Lib/lvgl/src/widgets/slider/../bar/../../core/lv_obj_style_gen.h ****     lv_style_value_t v = lv_obj_get_style_prop(obj, part, LV_STYLE_TRANSFORM_SCALE_Y);
 109:Lib/lvgl/src/widgets/slider/../bar/../../core/lv_obj_style_gen.h ****     return (int32_t)v.num;
 110:Lib/lvgl/src/widgets/slider/../bar/../../core/lv_obj_style_gen.h **** }
 111:Lib/lvgl/src/widgets/slider/../bar/../../core/lv_obj_style_gen.h **** 
 112:Lib/lvgl/src/widgets/slider/../bar/../../core/lv_obj_style_gen.h **** static inline int32_t lv_obj_get_style_transform_rotation(const lv_obj_t * obj, uint32_t part)
 113:Lib/lvgl/src/widgets/slider/../bar/../../core/lv_obj_style_gen.h **** {
 114:Lib/lvgl/src/widgets/slider/../bar/../../core/lv_obj_style_gen.h ****     lv_style_value_t v = lv_obj_get_style_prop(obj, part, LV_STYLE_TRANSFORM_ROTATION);
 115:Lib/lvgl/src/widgets/slider/../bar/../../core/lv_obj_style_gen.h ****     return (int32_t)v.num;
 116:Lib/lvgl/src/widgets/slider/../bar/../../core/lv_obj_style_gen.h **** }
 117:Lib/lvgl/src/widgets/slider/../bar/../../core/lv_obj_style_gen.h **** 
 118:Lib/lvgl/src/widgets/slider/../bar/../../core/lv_obj_style_gen.h **** static inline int32_t lv_obj_get_style_transform_pivot_x(const lv_obj_t * obj, uint32_t part)
 119:Lib/lvgl/src/widgets/slider/../bar/../../core/lv_obj_style_gen.h **** {
 120:Lib/lvgl/src/widgets/slider/../bar/../../core/lv_obj_style_gen.h ****     lv_style_value_t v = lv_obj_get_style_prop(obj, part, LV_STYLE_TRANSFORM_PIVOT_X);
 121:Lib/lvgl/src/widgets/slider/../bar/../../core/lv_obj_style_gen.h ****     return (int32_t)v.num;
 122:Lib/lvgl/src/widgets/slider/../bar/../../core/lv_obj_style_gen.h **** }
 123:Lib/lvgl/src/widgets/slider/../bar/../../core/lv_obj_style_gen.h **** 
 124:Lib/lvgl/src/widgets/slider/../bar/../../core/lv_obj_style_gen.h **** static inline int32_t lv_obj_get_style_transform_pivot_y(const lv_obj_t * obj, uint32_t part)
 125:Lib/lvgl/src/widgets/slider/../bar/../../core/lv_obj_style_gen.h **** {
 126:Lib/lvgl/src/widgets/slider/../bar/../../core/lv_obj_style_gen.h ****     lv_style_value_t v = lv_obj_get_style_prop(obj, part, LV_STYLE_TRANSFORM_PIVOT_Y);
 127:Lib/lvgl/src/widgets/slider/../bar/../../core/lv_obj_style_gen.h ****     return (int32_t)v.num;
 128:Lib/lvgl/src/widgets/slider/../bar/../../core/lv_obj_style_gen.h **** }
 129:Lib/lvgl/src/widgets/slider/../bar/../../core/lv_obj_style_gen.h **** 
 130:Lib/lvgl/src/widgets/slider/../bar/../../core/lv_obj_style_gen.h **** static inline int32_t lv_obj_get_style_transform_skew_x(const lv_obj_t * obj, uint32_t part)
 131:Lib/lvgl/src/widgets/slider/../bar/../../core/lv_obj_style_gen.h **** {
 132:Lib/lvgl/src/widgets/slider/../bar/../../core/lv_obj_style_gen.h ****     lv_style_value_t v = lv_obj_get_style_prop(obj, part, LV_STYLE_TRANSFORM_SKEW_X);
 133:Lib/lvgl/src/widgets/slider/../bar/../../core/lv_obj_style_gen.h ****     return (int32_t)v.num;
 134:Lib/lvgl/src/widgets/slider/../bar/../../core/lv_obj_style_gen.h **** }
 135:Lib/lvgl/src/widgets/slider/../bar/../../core/lv_obj_style_gen.h **** 
 136:Lib/lvgl/src/widgets/slider/../bar/../../core/lv_obj_style_gen.h **** static inline int32_t lv_obj_get_style_transform_skew_y(const lv_obj_t * obj, uint32_t part)
 137:Lib/lvgl/src/widgets/slider/../bar/../../core/lv_obj_style_gen.h **** {
 138:Lib/lvgl/src/widgets/slider/../bar/../../core/lv_obj_style_gen.h ****     lv_style_value_t v = lv_obj_get_style_prop(obj, part, LV_STYLE_TRANSFORM_SKEW_Y);
 139:Lib/lvgl/src/widgets/slider/../bar/../../core/lv_obj_style_gen.h ****     return (int32_t)v.num;
 140:Lib/lvgl/src/widgets/slider/../bar/../../core/lv_obj_style_gen.h **** }
 141:Lib/lvgl/src/widgets/slider/../bar/../../core/lv_obj_style_gen.h **** 
 142:Lib/lvgl/src/widgets/slider/../bar/../../core/lv_obj_style_gen.h **** static inline int32_t lv_obj_get_style_pad_top(const lv_obj_t * obj, uint32_t part)
 143:Lib/lvgl/src/widgets/slider/../bar/../../core/lv_obj_style_gen.h **** {
 144:Lib/lvgl/src/widgets/slider/../bar/../../core/lv_obj_style_gen.h ****     lv_style_value_t v = lv_obj_get_style_prop(obj, part, LV_STYLE_PAD_TOP);
 145:Lib/lvgl/src/widgets/slider/../bar/../../core/lv_obj_style_gen.h ****     return (int32_t)v.num;
 146:Lib/lvgl/src/widgets/slider/../bar/../../core/lv_obj_style_gen.h **** }
 147:Lib/lvgl/src/widgets/slider/../bar/../../core/lv_obj_style_gen.h **** 
 148:Lib/lvgl/src/widgets/slider/../bar/../../core/lv_obj_style_gen.h **** static inline int32_t lv_obj_get_style_pad_bottom(const lv_obj_t * obj, uint32_t part)
 149:Lib/lvgl/src/widgets/slider/../bar/../../core/lv_obj_style_gen.h **** {
 150:Lib/lvgl/src/widgets/slider/../bar/../../core/lv_obj_style_gen.h ****     lv_style_value_t v = lv_obj_get_style_prop(obj, part, LV_STYLE_PAD_BOTTOM);
 151:Lib/lvgl/src/widgets/slider/../bar/../../core/lv_obj_style_gen.h ****     return (int32_t)v.num;
 152:Lib/lvgl/src/widgets/slider/../bar/../../core/lv_obj_style_gen.h **** }
 153:Lib/lvgl/src/widgets/slider/../bar/../../core/lv_obj_style_gen.h **** 
 154:Lib/lvgl/src/widgets/slider/../bar/../../core/lv_obj_style_gen.h **** static inline int32_t lv_obj_get_style_pad_left(const lv_obj_t * obj, uint32_t part)
 126              		.loc 2 154 23 view .LVU26
 127              	.LBB78:
 155:Lib/lvgl/src/widgets/slider/../bar/../../core/lv_obj_style_gen.h **** {
 156:Lib/lvgl/src/widgets/slider/../bar/../../core/lv_obj_style_gen.h ****     lv_style_value_t v = lv_obj_get_style_prop(obj, part, LV_STYLE_PAD_LEFT);
 128              		.loc 2 156 5 view .LVU27
 129              		.loc 2 156 26 is_stmt 0 view .LVU28
 130 0024 1222     		movs	r2, #18
ARM GAS  C:\Users\Alex\AppData\Local\Temp\cc5XGeRL.s 			page 12


 131              	.LVL6:
 132              		.loc 2 156 26 view .LVU29
 133 0026 4FF44031 		mov	r1, #196608
 134              	.LVL7:
 135              		.loc 2 156 26 view .LVU30
 136 002a 2846     		mov	r0, r5
 137              	.LVL8:
 138              		.loc 2 156 26 view .LVU31
 139 002c FFF7FEFF 		bl	lv_obj_get_style_prop
 140              	.LVL9:
 141              		.loc 2 156 26 view .LVU32
 142 0030 0646     		mov	r6, r0
 143 0032 0190     		str	r0, [sp, #4]
 157:Lib/lvgl/src/widgets/slider/../bar/../../core/lv_obj_style_gen.h ****     return (int32_t)v.num;
 144              		.loc 2 157 5 is_stmt 1 view .LVU33
 145              	.LVL10:
 146              		.loc 2 157 5 is_stmt 0 view .LVU34
 147              	.LBE78:
 148              	.LBE77:
 309:Lib/lvgl/src/widgets/slider/lv_slider.c ****     int32_t knob_top = lv_obj_get_style_pad_top(obj, LV_PART_KNOB);
 149              		.loc 1 309 5 is_stmt 1 view .LVU35
 150              	.LBB79:
 151              	.LBI79:
 158:Lib/lvgl/src/widgets/slider/../bar/../../core/lv_obj_style_gen.h **** }
 159:Lib/lvgl/src/widgets/slider/../bar/../../core/lv_obj_style_gen.h **** 
 160:Lib/lvgl/src/widgets/slider/../bar/../../core/lv_obj_style_gen.h **** static inline int32_t lv_obj_get_style_pad_right(const lv_obj_t * obj, uint32_t part)
 152              		.loc 2 160 23 view .LVU36
 153              	.LBB80:
 161:Lib/lvgl/src/widgets/slider/../bar/../../core/lv_obj_style_gen.h **** {
 162:Lib/lvgl/src/widgets/slider/../bar/../../core/lv_obj_style_gen.h ****     lv_style_value_t v = lv_obj_get_style_prop(obj, part, LV_STYLE_PAD_RIGHT);
 154              		.loc 2 162 5 view .LVU37
 155              		.loc 2 162 26 is_stmt 0 view .LVU38
 156 0034 1322     		movs	r2, #19
 157 0036 4FF44031 		mov	r1, #196608
 158 003a 2846     		mov	r0, r5
 159              	.LVL11:
 160              		.loc 2 162 26 view .LVU39
 161 003c FFF7FEFF 		bl	lv_obj_get_style_prop
 162              	.LVL12:
 163 0040 8246     		mov	r10, r0
 164 0042 0190     		str	r0, [sp, #4]
 163:Lib/lvgl/src/widgets/slider/../bar/../../core/lv_obj_style_gen.h ****     return (int32_t)v.num;
 165              		.loc 2 163 5 is_stmt 1 view .LVU40
 166              	.LVL13:
 167              		.loc 2 163 5 is_stmt 0 view .LVU41
 168              	.LBE80:
 169              	.LBE79:
 310:Lib/lvgl/src/widgets/slider/lv_slider.c ****     int32_t knob_bottom = lv_obj_get_style_pad_bottom(obj, LV_PART_KNOB);
 170              		.loc 1 310 5 is_stmt 1 view .LVU42
 171              	.LBB81:
 172              	.LBI81:
 142:Lib/lvgl/src/widgets/slider/../bar/../../core/lv_obj_style_gen.h **** {
 173              		.loc 2 142 23 view .LVU43
 174              	.LBB82:
 144:Lib/lvgl/src/widgets/slider/../bar/../../core/lv_obj_style_gen.h ****     return (int32_t)v.num;
 175              		.loc 2 144 5 view .LVU44
 144:Lib/lvgl/src/widgets/slider/../bar/../../core/lv_obj_style_gen.h ****     return (int32_t)v.num;
ARM GAS  C:\Users\Alex\AppData\Local\Temp\cc5XGeRL.s 			page 13


 176              		.loc 2 144 26 is_stmt 0 view .LVU45
 177 0044 1022     		movs	r2, #16
 178 0046 4FF44031 		mov	r1, #196608
 179 004a 2846     		mov	r0, r5
 180              	.LVL14:
 144:Lib/lvgl/src/widgets/slider/../bar/../../core/lv_obj_style_gen.h ****     return (int32_t)v.num;
 181              		.loc 2 144 26 view .LVU46
 182 004c FFF7FEFF 		bl	lv_obj_get_style_prop
 183              	.LVL15:
 184 0050 8046     		mov	r8, r0
 185 0052 0190     		str	r0, [sp, #4]
 145:Lib/lvgl/src/widgets/slider/../bar/../../core/lv_obj_style_gen.h **** }
 186              		.loc 2 145 5 is_stmt 1 view .LVU47
 187              	.LVL16:
 145:Lib/lvgl/src/widgets/slider/../bar/../../core/lv_obj_style_gen.h **** }
 188              		.loc 2 145 5 is_stmt 0 view .LVU48
 189              	.LBE82:
 190              	.LBE81:
 311:Lib/lvgl/src/widgets/slider/lv_slider.c **** 
 191              		.loc 1 311 5 is_stmt 1 view .LVU49
 192              	.LBB83:
 193              	.LBI83:
 148:Lib/lvgl/src/widgets/slider/../bar/../../core/lv_obj_style_gen.h **** {
 194              		.loc 2 148 23 view .LVU50
 195              	.LBB84:
 150:Lib/lvgl/src/widgets/slider/../bar/../../core/lv_obj_style_gen.h ****     return (int32_t)v.num;
 196              		.loc 2 150 5 view .LVU51
 150:Lib/lvgl/src/widgets/slider/../bar/../../core/lv_obj_style_gen.h ****     return (int32_t)v.num;
 197              		.loc 2 150 26 is_stmt 0 view .LVU52
 198 0054 1122     		movs	r2, #17
 199 0056 4FF44031 		mov	r1, #196608
 200 005a 2846     		mov	r0, r5
 201              	.LVL17:
 150:Lib/lvgl/src/widgets/slider/../bar/../../core/lv_obj_style_gen.h ****     return (int32_t)v.num;
 202              		.loc 2 150 26 view .LVU53
 203 005c FFF7FEFF 		bl	lv_obj_get_style_prop
 204              	.LVL18:
 205 0060 8146     		mov	r9, r0
 206 0062 0190     		str	r0, [sp, #4]
 151:Lib/lvgl/src/widgets/slider/../bar/../../core/lv_obj_style_gen.h **** }
 207              		.loc 2 151 5 is_stmt 1 view .LVU54
 208              	.LVL19:
 151:Lib/lvgl/src/widgets/slider/../bar/../../core/lv_obj_style_gen.h **** }
 209              		.loc 2 151 5 is_stmt 0 view .LVU55
 210              	.LBE84:
 211              	.LBE83:
 313:Lib/lvgl/src/widgets/slider/lv_slider.c ****     int32_t transf_h = lv_obj_get_style_transform_height(obj, LV_PART_KNOB);
 212              		.loc 1 313 5 is_stmt 1 view .LVU56
 213              	.LBB85:
 214              	.LBI85:
  76:Lib/lvgl/src/widgets/slider/../bar/../../core/lv_obj_style_gen.h **** {
 215              		.loc 2 76 23 view .LVU57
 216              	.LBB86:
  78:Lib/lvgl/src/widgets/slider/../bar/../../core/lv_obj_style_gen.h ****     return (int32_t)v.num;
 217              		.loc 2 78 5 view .LVU58
  78:Lib/lvgl/src/widgets/slider/../bar/../../core/lv_obj_style_gen.h ****     return (int32_t)v.num;
 218              		.loc 2 78 26 is_stmt 0 view .LVU59
ARM GAS  C:\Users\Alex\AppData\Local\Temp\cc5XGeRL.s 			page 14


 219 0064 6822     		movs	r2, #104
 220 0066 4FF44031 		mov	r1, #196608
 221 006a 2846     		mov	r0, r5
 222              	.LVL20:
  78:Lib/lvgl/src/widgets/slider/../bar/../../core/lv_obj_style_gen.h ****     return (int32_t)v.num;
 223              		.loc 2 78 26 view .LVU60
 224 006c FFF7FEFF 		bl	lv_obj_get_style_prop
 225              	.LVL21:
 226 0070 0746     		mov	r7, r0
 227 0072 0190     		str	r0, [sp, #4]
  79:Lib/lvgl/src/widgets/slider/../bar/../../core/lv_obj_style_gen.h **** }
 228              		.loc 2 79 5 is_stmt 1 view .LVU61
 229              	.LVL22:
  79:Lib/lvgl/src/widgets/slider/../bar/../../core/lv_obj_style_gen.h **** }
 230              		.loc 2 79 5 is_stmt 0 view .LVU62
 231              	.LBE86:
 232              	.LBE85:
 314:Lib/lvgl/src/widgets/slider/lv_slider.c **** 
 233              		.loc 1 314 5 is_stmt 1 view .LVU63
 234              	.LBB87:
 235              	.LBI87:
  82:Lib/lvgl/src/widgets/slider/../bar/../../core/lv_obj_style_gen.h **** {
 236              		.loc 2 82 23 view .LVU64
 237              	.LBB88:
  84:Lib/lvgl/src/widgets/slider/../bar/../../core/lv_obj_style_gen.h ****     return (int32_t)v.num;
 238              		.loc 2 84 5 view .LVU65
  84:Lib/lvgl/src/widgets/slider/../bar/../../core/lv_obj_style_gen.h ****     return (int32_t)v.num;
 239              		.loc 2 84 26 is_stmt 0 view .LVU66
 240 0074 6922     		movs	r2, #105
 241 0076 4FF44031 		mov	r1, #196608
 242 007a 2846     		mov	r0, r5
 243              	.LVL23:
  84:Lib/lvgl/src/widgets/slider/../bar/../../core/lv_obj_style_gen.h ****     return (int32_t)v.num;
 244              		.loc 2 84 26 view .LVU67
 245 007c FFF7FEFF 		bl	lv_obj_get_style_prop
 246              	.LVL24:
 247 0080 0190     		str	r0, [sp, #4]
  85:Lib/lvgl/src/widgets/slider/../bar/../../core/lv_obj_style_gen.h **** }
 248              		.loc 2 85 5 is_stmt 1 view .LVU68
 249              	.LVL25:
  85:Lib/lvgl/src/widgets/slider/../bar/../../core/lv_obj_style_gen.h **** }
 250              		.loc 2 85 5 is_stmt 0 view .LVU69
 251              	.LBE88:
 252              	.LBE87:
 317:Lib/lvgl/src/widgets/slider/lv_slider.c ****     knob_area->x2 += knob_right + transf_w;
 253              		.loc 1 317 5 is_stmt 1 view .LVU70
 317:Lib/lvgl/src/widgets/slider/lv_slider.c ****     knob_area->x2 += knob_right + transf_w;
 254              		.loc 1 317 14 is_stmt 0 view .LVU71
 255 0082 2268     		ldr	r2, [r4]
 317:Lib/lvgl/src/widgets/slider/lv_slider.c ****     knob_area->x2 += knob_right + transf_w;
 256              		.loc 1 317 32 view .LVU72
 257 0084 3E44     		add	r6, r6, r7
 258              	.LVL26:
 317:Lib/lvgl/src/widgets/slider/lv_slider.c ****     knob_area->x2 += knob_right + transf_w;
 259              		.loc 1 317 19 view .LVU73
 260 0086 921B     		subs	r2, r2, r6
 261 0088 2260     		str	r2, [r4]
ARM GAS  C:\Users\Alex\AppData\Local\Temp\cc5XGeRL.s 			page 15


 318:Lib/lvgl/src/widgets/slider/lv_slider.c ****     knob_area->y1 -= knob_top + transf_h;
 262              		.loc 1 318 5 is_stmt 1 view .LVU74
 318:Lib/lvgl/src/widgets/slider/lv_slider.c ****     knob_area->y1 -= knob_top + transf_h;
 263              		.loc 1 318 14 is_stmt 0 view .LVU75
 264 008a A268     		ldr	r2, [r4, #8]
 318:Lib/lvgl/src/widgets/slider/lv_slider.c ****     knob_area->y1 -= knob_top + transf_h;
 265              		.loc 1 318 33 view .LVU76
 266 008c 5744     		add	r7, r7, r10
 267              	.LVL27:
 318:Lib/lvgl/src/widgets/slider/lv_slider.c ****     knob_area->y1 -= knob_top + transf_h;
 268              		.loc 1 318 19 view .LVU77
 269 008e 3A44     		add	r2, r2, r7
 270 0090 A260     		str	r2, [r4, #8]
 319:Lib/lvgl/src/widgets/slider/lv_slider.c ****     knob_area->y2 += knob_bottom + transf_h;
 271              		.loc 1 319 5 is_stmt 1 view .LVU78
 319:Lib/lvgl/src/widgets/slider/lv_slider.c ****     knob_area->y2 += knob_bottom + transf_h;
 272              		.loc 1 319 14 is_stmt 0 view .LVU79
 273 0092 6268     		ldr	r2, [r4, #4]
 319:Lib/lvgl/src/widgets/slider/lv_slider.c ****     knob_area->y2 += knob_bottom + transf_h;
 274              		.loc 1 319 31 view .LVU80
 275 0094 8044     		add	r8, r8, r0
 276              	.LVL28:
 319:Lib/lvgl/src/widgets/slider/lv_slider.c ****     knob_area->y2 += knob_bottom + transf_h;
 277              		.loc 1 319 19 view .LVU81
 278 0096 A2EB0802 		sub	r2, r2, r8
 279 009a 6260     		str	r2, [r4, #4]
 320:Lib/lvgl/src/widgets/slider/lv_slider.c **** }
 280              		.loc 1 320 5 is_stmt 1 view .LVU82
 320:Lib/lvgl/src/widgets/slider/lv_slider.c **** }
 281              		.loc 1 320 14 is_stmt 0 view .LVU83
 282 009c E268     		ldr	r2, [r4, #12]
 320:Lib/lvgl/src/widgets/slider/lv_slider.c **** }
 283              		.loc 1 320 34 view .LVU84
 284 009e 00EB0903 		add	r3, r0, r9
 320:Lib/lvgl/src/widgets/slider/lv_slider.c **** }
 285              		.loc 1 320 19 view .LVU85
 286 00a2 1A44     		add	r2, r2, r3
 287 00a4 E260     		str	r2, [r4, #12]
 321:Lib/lvgl/src/widgets/slider/lv_slider.c **** 
 288              		.loc 1 321 1 view .LVU86
 289 00a6 02B0     		add	sp, sp, #8
 290              	.LCFI3:
 291              		.cfi_remember_state
 292              		.cfi_def_cfa_offset 32
 293              		@ sp needed
 294 00a8 BDE8F087 		pop	{r4, r5, r6, r7, r8, r9, r10, pc}
 295              	.LVL29:
 296              	.L4:
 297              	.LCFI4:
 298              		.cfi_restore_state
 302:Lib/lvgl/src/widgets/slider/lv_slider.c ****         knob_area->y2 = knob_area->y1 + knob_size - 1;
 299              		.loc 1 302 9 is_stmt 1 view .LVU87
 302:Lib/lvgl/src/widgets/slider/lv_slider.c ****         knob_area->y2 = knob_area->y1 + knob_size - 1;
 300              		.loc 1 302 18 is_stmt 0 view .LVU88
 301 00ac 4B68     		ldr	r3, [r1, #4]
 302              	.LVL30:
 302:Lib/lvgl/src/widgets/slider/lv_slider.c ****         knob_area->y2 = knob_area->y1 + knob_size - 1;
ARM GAS  C:\Users\Alex\AppData\Local\Temp\cc5XGeRL.s 			page 16


 303              		.loc 1 302 23 view .LVU89
 304 00ae A3EB6203 		sub	r3, r3, r2, asr #1
 305 00b2 4B60     		str	r3, [r1, #4]
 303:Lib/lvgl/src/widgets/slider/lv_slider.c ****         knob_area->x1 = obj->coords.x1;
 306              		.loc 1 303 9 is_stmt 1 view .LVU90
 303:Lib/lvgl/src/widgets/slider/lv_slider.c ****         knob_area->x1 = obj->coords.x1;
 307              		.loc 1 303 39 is_stmt 0 view .LVU91
 308 00b4 1344     		add	r3, r3, r2
 303:Lib/lvgl/src/widgets/slider/lv_slider.c ****         knob_area->x1 = obj->coords.x1;
 309              		.loc 1 303 51 view .LVU92
 310 00b6 013B     		subs	r3, r3, #1
 303:Lib/lvgl/src/widgets/slider/lv_slider.c ****         knob_area->x1 = obj->coords.x1;
 311              		.loc 1 303 23 view .LVU93
 312 00b8 CB60     		str	r3, [r1, #12]
 304:Lib/lvgl/src/widgets/slider/lv_slider.c ****         knob_area->x2 = obj->coords.x2;
 313              		.loc 1 304 9 is_stmt 1 view .LVU94
 304:Lib/lvgl/src/widgets/slider/lv_slider.c ****         knob_area->x2 = obj->coords.x2;
 314              		.loc 1 304 36 is_stmt 0 view .LVU95
 315 00ba 4369     		ldr	r3, [r0, #20]
 304:Lib/lvgl/src/widgets/slider/lv_slider.c ****         knob_area->x2 = obj->coords.x2;
 316              		.loc 1 304 23 view .LVU96
 317 00bc 0B60     		str	r3, [r1]
 305:Lib/lvgl/src/widgets/slider/lv_slider.c ****     }
 318              		.loc 1 305 9 is_stmt 1 view .LVU97
 305:Lib/lvgl/src/widgets/slider/lv_slider.c ****     }
 319              		.loc 1 305 36 is_stmt 0 view .LVU98
 320 00be C369     		ldr	r3, [r0, #28]
 305:Lib/lvgl/src/widgets/slider/lv_slider.c ****     }
 321              		.loc 1 305 23 view .LVU99
 322 00c0 8B60     		str	r3, [r1, #8]
 323 00c2 AFE7     		b	.L5
 324              		.cfi_endproc
 325              	.LFE249:
 327              		.section	.text.lv_slider_get_mode,"ax",%progbits
 328              		.align	1
 329              		.syntax unified
 330              		.thumb
 331              		.thumb_func
 333              	lv_slider_get_mode:
 334              	.LVL31:
 335              	.LFB241:
 336              		.file 3 "Lib/lvgl/src/widgets/slider/lv_slider.h"
   1:Lib/lvgl/src/widgets/slider/lv_slider.h **** /**
   2:Lib/lvgl/src/widgets/slider/lv_slider.h ****  * @file lv_slider.h
   3:Lib/lvgl/src/widgets/slider/lv_slider.h ****  *
   4:Lib/lvgl/src/widgets/slider/lv_slider.h ****  */
   5:Lib/lvgl/src/widgets/slider/lv_slider.h **** 
   6:Lib/lvgl/src/widgets/slider/lv_slider.h **** #ifndef LV_SLIDER_H
   7:Lib/lvgl/src/widgets/slider/lv_slider.h **** #define LV_SLIDER_H
   8:Lib/lvgl/src/widgets/slider/lv_slider.h **** 
   9:Lib/lvgl/src/widgets/slider/lv_slider.h **** #ifdef __cplusplus
  10:Lib/lvgl/src/widgets/slider/lv_slider.h **** extern "C" {
  11:Lib/lvgl/src/widgets/slider/lv_slider.h **** #endif
  12:Lib/lvgl/src/widgets/slider/lv_slider.h **** 
  13:Lib/lvgl/src/widgets/slider/lv_slider.h **** /*********************
  14:Lib/lvgl/src/widgets/slider/lv_slider.h ****  *      INCLUDES
  15:Lib/lvgl/src/widgets/slider/lv_slider.h ****  *********************/
ARM GAS  C:\Users\Alex\AppData\Local\Temp\cc5XGeRL.s 			page 17


  16:Lib/lvgl/src/widgets/slider/lv_slider.h **** #include "../bar/lv_bar.h"
  17:Lib/lvgl/src/widgets/slider/lv_slider.h **** 
  18:Lib/lvgl/src/widgets/slider/lv_slider.h **** #if LV_USE_SLIDER != 0
  19:Lib/lvgl/src/widgets/slider/lv_slider.h **** 
  20:Lib/lvgl/src/widgets/slider/lv_slider.h **** /*Testing of dependencies*/
  21:Lib/lvgl/src/widgets/slider/lv_slider.h **** #if LV_USE_BAR == 0
  22:Lib/lvgl/src/widgets/slider/lv_slider.h **** #error "lv_slider: lv_bar is required. Enable it in lv_conf.h (LV_USE_BAR 1)"
  23:Lib/lvgl/src/widgets/slider/lv_slider.h **** #endif
  24:Lib/lvgl/src/widgets/slider/lv_slider.h **** 
  25:Lib/lvgl/src/widgets/slider/lv_slider.h **** /*********************
  26:Lib/lvgl/src/widgets/slider/lv_slider.h ****  *      DEFINES
  27:Lib/lvgl/src/widgets/slider/lv_slider.h ****  *********************/
  28:Lib/lvgl/src/widgets/slider/lv_slider.h **** 
  29:Lib/lvgl/src/widgets/slider/lv_slider.h **** /**********************
  30:Lib/lvgl/src/widgets/slider/lv_slider.h ****  *      TYPEDEFS
  31:Lib/lvgl/src/widgets/slider/lv_slider.h ****  **********************/
  32:Lib/lvgl/src/widgets/slider/lv_slider.h **** enum _lv_slider_mode_t {
  33:Lib/lvgl/src/widgets/slider/lv_slider.h ****     LV_SLIDER_MODE_NORMAL = LV_BAR_MODE_NORMAL,
  34:Lib/lvgl/src/widgets/slider/lv_slider.h ****     LV_SLIDER_MODE_SYMMETRICAL = LV_BAR_MODE_SYMMETRICAL,
  35:Lib/lvgl/src/widgets/slider/lv_slider.h ****     LV_SLIDER_MODE_RANGE = LV_BAR_MODE_RANGE
  36:Lib/lvgl/src/widgets/slider/lv_slider.h **** };
  37:Lib/lvgl/src/widgets/slider/lv_slider.h **** 
  38:Lib/lvgl/src/widgets/slider/lv_slider.h **** #ifdef DOXYGEN
  39:Lib/lvgl/src/widgets/slider/lv_slider.h **** typedef _lv_slider_mode_t lv_slider_mode_t;
  40:Lib/lvgl/src/widgets/slider/lv_slider.h **** #else
  41:Lib/lvgl/src/widgets/slider/lv_slider.h **** typedef uint8_t lv_slider_mode_t;
  42:Lib/lvgl/src/widgets/slider/lv_slider.h **** #endif /*DOXYGEN*/
  43:Lib/lvgl/src/widgets/slider/lv_slider.h **** 
  44:Lib/lvgl/src/widgets/slider/lv_slider.h **** typedef struct {
  45:Lib/lvgl/src/widgets/slider/lv_slider.h ****     lv_bar_t bar;       /*Add the ancestor's type first*/
  46:Lib/lvgl/src/widgets/slider/lv_slider.h ****     lv_area_t left_knob_area;
  47:Lib/lvgl/src/widgets/slider/lv_slider.h ****     lv_area_t right_knob_area;
  48:Lib/lvgl/src/widgets/slider/lv_slider.h ****     lv_point_t pressed_point;
  49:Lib/lvgl/src/widgets/slider/lv_slider.h ****     int32_t * value_to_set; /*Which bar value to set*/
  50:Lib/lvgl/src/widgets/slider/lv_slider.h ****     uint8_t dragging : 1;       /*1: the slider is being dragged*/
  51:Lib/lvgl/src/widgets/slider/lv_slider.h ****     uint8_t left_knob_focus : 1; /*1: with encoder now the right knob can be adjusted*/
  52:Lib/lvgl/src/widgets/slider/lv_slider.h **** } lv_slider_t;
  53:Lib/lvgl/src/widgets/slider/lv_slider.h **** 
  54:Lib/lvgl/src/widgets/slider/lv_slider.h **** LV_ATTRIBUTE_EXTERN_DATA extern const lv_obj_class_t lv_slider_class;
  55:Lib/lvgl/src/widgets/slider/lv_slider.h **** 
  56:Lib/lvgl/src/widgets/slider/lv_slider.h **** /**********************
  57:Lib/lvgl/src/widgets/slider/lv_slider.h ****  * GLOBAL PROTOTYPES
  58:Lib/lvgl/src/widgets/slider/lv_slider.h ****  **********************/
  59:Lib/lvgl/src/widgets/slider/lv_slider.h **** 
  60:Lib/lvgl/src/widgets/slider/lv_slider.h **** /**
  61:Lib/lvgl/src/widgets/slider/lv_slider.h ****  * Create a slider object
  62:Lib/lvgl/src/widgets/slider/lv_slider.h ****  * @param parent    pointer to an object, it will be the parent of the new slider.
  63:Lib/lvgl/src/widgets/slider/lv_slider.h ****  * @return          pointer to the created slider
  64:Lib/lvgl/src/widgets/slider/lv_slider.h ****  */
  65:Lib/lvgl/src/widgets/slider/lv_slider.h **** lv_obj_t * lv_slider_create(lv_obj_t * parent);
  66:Lib/lvgl/src/widgets/slider/lv_slider.h **** 
  67:Lib/lvgl/src/widgets/slider/lv_slider.h **** /*=====================
  68:Lib/lvgl/src/widgets/slider/lv_slider.h ****  * Setter functions
  69:Lib/lvgl/src/widgets/slider/lv_slider.h ****  *====================*/
  70:Lib/lvgl/src/widgets/slider/lv_slider.h **** 
  71:Lib/lvgl/src/widgets/slider/lv_slider.h **** /**
  72:Lib/lvgl/src/widgets/slider/lv_slider.h ****  * Set a new value on the slider
ARM GAS  C:\Users\Alex\AppData\Local\Temp\cc5XGeRL.s 			page 18


  73:Lib/lvgl/src/widgets/slider/lv_slider.h ****  * @param obj       pointer to a slider object
  74:Lib/lvgl/src/widgets/slider/lv_slider.h ****  * @param value     the new value
  75:Lib/lvgl/src/widgets/slider/lv_slider.h ****  * @param anim      LV_ANIM_ON: set the value with an animation; LV_ANIM_OFF: change the value imme
  76:Lib/lvgl/src/widgets/slider/lv_slider.h ****  */
  77:Lib/lvgl/src/widgets/slider/lv_slider.h **** static inline void lv_slider_set_value(lv_obj_t * obj, int32_t value, lv_anim_enable_t anim)
  78:Lib/lvgl/src/widgets/slider/lv_slider.h **** {
  79:Lib/lvgl/src/widgets/slider/lv_slider.h ****     lv_bar_set_value(obj, value, anim);
  80:Lib/lvgl/src/widgets/slider/lv_slider.h **** }
  81:Lib/lvgl/src/widgets/slider/lv_slider.h **** 
  82:Lib/lvgl/src/widgets/slider/lv_slider.h **** /**
  83:Lib/lvgl/src/widgets/slider/lv_slider.h ****  * Set a new value for the left knob of a slider
  84:Lib/lvgl/src/widgets/slider/lv_slider.h ****  * @param obj       pointer to a slider object
  85:Lib/lvgl/src/widgets/slider/lv_slider.h ****  * @param value     new value
  86:Lib/lvgl/src/widgets/slider/lv_slider.h ****  * @param anim      LV_ANIM_ON: set the value with an animation; LV_ANIM_OFF: change the value imme
  87:Lib/lvgl/src/widgets/slider/lv_slider.h ****  */
  88:Lib/lvgl/src/widgets/slider/lv_slider.h **** static inline void lv_slider_set_left_value(lv_obj_t * obj, int32_t value, lv_anim_enable_t anim)
  89:Lib/lvgl/src/widgets/slider/lv_slider.h **** {
  90:Lib/lvgl/src/widgets/slider/lv_slider.h ****     lv_bar_set_start_value(obj, value, anim);
  91:Lib/lvgl/src/widgets/slider/lv_slider.h **** }
  92:Lib/lvgl/src/widgets/slider/lv_slider.h **** 
  93:Lib/lvgl/src/widgets/slider/lv_slider.h **** /**
  94:Lib/lvgl/src/widgets/slider/lv_slider.h ****  * Set minimum and the maximum values of a bar
  95:Lib/lvgl/src/widgets/slider/lv_slider.h ****  * @param obj       pointer to the slider object
  96:Lib/lvgl/src/widgets/slider/lv_slider.h ****  * @param min       minimum value
  97:Lib/lvgl/src/widgets/slider/lv_slider.h ****  * @param max       maximum value
  98:Lib/lvgl/src/widgets/slider/lv_slider.h ****  */
  99:Lib/lvgl/src/widgets/slider/lv_slider.h **** static inline void lv_slider_set_range(lv_obj_t * obj, int32_t min, int32_t max)
 100:Lib/lvgl/src/widgets/slider/lv_slider.h **** {
 101:Lib/lvgl/src/widgets/slider/lv_slider.h ****     lv_bar_set_range(obj, min, max);
 102:Lib/lvgl/src/widgets/slider/lv_slider.h **** }
 103:Lib/lvgl/src/widgets/slider/lv_slider.h **** 
 104:Lib/lvgl/src/widgets/slider/lv_slider.h **** /**
 105:Lib/lvgl/src/widgets/slider/lv_slider.h ****  * Set the mode of slider.
 106:Lib/lvgl/src/widgets/slider/lv_slider.h ****  * @param obj       pointer to a slider object
 107:Lib/lvgl/src/widgets/slider/lv_slider.h ****  * @param mode      the mode of the slider. See ::lv_slider_mode_t
 108:Lib/lvgl/src/widgets/slider/lv_slider.h ****  */
 109:Lib/lvgl/src/widgets/slider/lv_slider.h **** static inline void lv_slider_set_mode(lv_obj_t * obj, lv_slider_mode_t mode)
 110:Lib/lvgl/src/widgets/slider/lv_slider.h **** {
 111:Lib/lvgl/src/widgets/slider/lv_slider.h ****     lv_bar_set_mode(obj, (lv_bar_mode_t)mode);
 112:Lib/lvgl/src/widgets/slider/lv_slider.h **** }
 113:Lib/lvgl/src/widgets/slider/lv_slider.h **** 
 114:Lib/lvgl/src/widgets/slider/lv_slider.h **** /*=====================
 115:Lib/lvgl/src/widgets/slider/lv_slider.h ****  * Getter functions
 116:Lib/lvgl/src/widgets/slider/lv_slider.h ****  *====================*/
 117:Lib/lvgl/src/widgets/slider/lv_slider.h **** 
 118:Lib/lvgl/src/widgets/slider/lv_slider.h **** /**
 119:Lib/lvgl/src/widgets/slider/lv_slider.h ****  * Get the value of the main knob of a slider
 120:Lib/lvgl/src/widgets/slider/lv_slider.h ****  * @param obj       pointer to a slider object
 121:Lib/lvgl/src/widgets/slider/lv_slider.h ****  * @return          the value of the main knob of the slider
 122:Lib/lvgl/src/widgets/slider/lv_slider.h ****  */
 123:Lib/lvgl/src/widgets/slider/lv_slider.h **** static inline int32_t lv_slider_get_value(const lv_obj_t * obj)
 124:Lib/lvgl/src/widgets/slider/lv_slider.h **** {
 125:Lib/lvgl/src/widgets/slider/lv_slider.h ****     return lv_bar_get_value(obj);
 126:Lib/lvgl/src/widgets/slider/lv_slider.h **** }
 127:Lib/lvgl/src/widgets/slider/lv_slider.h **** 
 128:Lib/lvgl/src/widgets/slider/lv_slider.h **** /**
 129:Lib/lvgl/src/widgets/slider/lv_slider.h ****  * Get the value of the left knob of a slider
ARM GAS  C:\Users\Alex\AppData\Local\Temp\cc5XGeRL.s 			page 19


 130:Lib/lvgl/src/widgets/slider/lv_slider.h ****  * @param obj       pointer to a slider object
 131:Lib/lvgl/src/widgets/slider/lv_slider.h ****  * @return          the value of the left knob of the slider
 132:Lib/lvgl/src/widgets/slider/lv_slider.h ****  */
 133:Lib/lvgl/src/widgets/slider/lv_slider.h **** static inline int32_t lv_slider_get_left_value(const lv_obj_t * obj)
 134:Lib/lvgl/src/widgets/slider/lv_slider.h **** {
 135:Lib/lvgl/src/widgets/slider/lv_slider.h ****     return lv_bar_get_start_value(obj);
 136:Lib/lvgl/src/widgets/slider/lv_slider.h **** }
 137:Lib/lvgl/src/widgets/slider/lv_slider.h **** 
 138:Lib/lvgl/src/widgets/slider/lv_slider.h **** /**
 139:Lib/lvgl/src/widgets/slider/lv_slider.h ****  * Get the minimum value of a slider
 140:Lib/lvgl/src/widgets/slider/lv_slider.h ****  * @param obj       pointer to a slider object
 141:Lib/lvgl/src/widgets/slider/lv_slider.h ****  * @return          the minimum value of the slider
 142:Lib/lvgl/src/widgets/slider/lv_slider.h ****  */
 143:Lib/lvgl/src/widgets/slider/lv_slider.h **** static inline int32_t lv_slider_get_min_value(const lv_obj_t * obj)
 144:Lib/lvgl/src/widgets/slider/lv_slider.h **** {
 145:Lib/lvgl/src/widgets/slider/lv_slider.h ****     return lv_bar_get_min_value(obj);
 146:Lib/lvgl/src/widgets/slider/lv_slider.h **** }
 147:Lib/lvgl/src/widgets/slider/lv_slider.h **** 
 148:Lib/lvgl/src/widgets/slider/lv_slider.h **** /**
 149:Lib/lvgl/src/widgets/slider/lv_slider.h ****  * Get the maximum value of a slider
 150:Lib/lvgl/src/widgets/slider/lv_slider.h ****  * @param obj       pointer to a slider object
 151:Lib/lvgl/src/widgets/slider/lv_slider.h ****  * @return          the maximum value of the slider
 152:Lib/lvgl/src/widgets/slider/lv_slider.h ****  */
 153:Lib/lvgl/src/widgets/slider/lv_slider.h **** static inline int32_t lv_slider_get_max_value(const lv_obj_t * obj)
 154:Lib/lvgl/src/widgets/slider/lv_slider.h **** {
 155:Lib/lvgl/src/widgets/slider/lv_slider.h ****     return lv_bar_get_max_value(obj);
 156:Lib/lvgl/src/widgets/slider/lv_slider.h **** }
 157:Lib/lvgl/src/widgets/slider/lv_slider.h **** 
 158:Lib/lvgl/src/widgets/slider/lv_slider.h **** /**
 159:Lib/lvgl/src/widgets/slider/lv_slider.h ****  * Give the slider is being dragged or not
 160:Lib/lvgl/src/widgets/slider/lv_slider.h ****  * @param obj       pointer to a slider object
 161:Lib/lvgl/src/widgets/slider/lv_slider.h ****  * @return          true: drag in progress false: not dragged
 162:Lib/lvgl/src/widgets/slider/lv_slider.h ****  */
 163:Lib/lvgl/src/widgets/slider/lv_slider.h **** bool lv_slider_is_dragged(const lv_obj_t * obj);
 164:Lib/lvgl/src/widgets/slider/lv_slider.h **** 
 165:Lib/lvgl/src/widgets/slider/lv_slider.h **** /**
 166:Lib/lvgl/src/widgets/slider/lv_slider.h ****  * Get the mode of the slider.
 167:Lib/lvgl/src/widgets/slider/lv_slider.h ****  * @param slider       pointer to a slider object
 168:Lib/lvgl/src/widgets/slider/lv_slider.h ****  * @return          see ::lv_slider_mode_t
 169:Lib/lvgl/src/widgets/slider/lv_slider.h ****  */
 170:Lib/lvgl/src/widgets/slider/lv_slider.h **** static inline lv_slider_mode_t lv_slider_get_mode(lv_obj_t * slider)
 171:Lib/lvgl/src/widgets/slider/lv_slider.h **** {
 337              		.loc 3 171 1 is_stmt 1 view -0
 338              		.cfi_startproc
 339              		@ args = 0, pretend = 0, frame = 0
 340              		@ frame_needed = 0, uses_anonymous_args = 0
 341              		.loc 3 171 1 is_stmt 0 view .LVU101
 342 0000 08B5     		push	{r3, lr}
 343              	.LCFI5:
 344              		.cfi_def_cfa_offset 8
 345              		.cfi_offset 3, -8
 346              		.cfi_offset 14, -4
 172:Lib/lvgl/src/widgets/slider/lv_slider.h ****     lv_bar_mode_t mode = lv_bar_get_mode(slider);
 347              		.loc 3 172 5 is_stmt 1 view .LVU102
 348              		.loc 3 172 26 is_stmt 0 view .LVU103
 349 0002 FFF7FEFF 		bl	lv_bar_get_mode
 350              	.LVL32:
ARM GAS  C:\Users\Alex\AppData\Local\Temp\cc5XGeRL.s 			page 20


 173:Lib/lvgl/src/widgets/slider/lv_slider.h ****     if(mode == LV_BAR_MODE_SYMMETRICAL) return LV_SLIDER_MODE_SYMMETRICAL;
 351              		.loc 3 173 5 is_stmt 1 view .LVU104
 352              		.loc 3 173 7 is_stmt 0 view .LVU105
 353 0006 0128     		cmp	r0, #1
 354 0008 02D0     		beq	.L8
 174:Lib/lvgl/src/widgets/slider/lv_slider.h ****     else if(mode == LV_BAR_MODE_RANGE) return LV_SLIDER_MODE_RANGE;
 355              		.loc 3 174 10 is_stmt 1 view .LVU106
 356              		.loc 3 174 12 is_stmt 0 view .LVU107
 357 000a 0228     		cmp	r0, #2
 358 000c 00D0     		beq	.L8
 175:Lib/lvgl/src/widgets/slider/lv_slider.h ****     else return LV_SLIDER_MODE_NORMAL;
 359              		.loc 3 175 17 view .LVU108
 360 000e 0020     		movs	r0, #0
 361              	.LVL33:
 362              	.L8:
 176:Lib/lvgl/src/widgets/slider/lv_slider.h **** }
 363              		.loc 3 176 1 view .LVU109
 364 0010 08BD     		pop	{r3, pc}
 365              		.cfi_endproc
 366              	.LFE241:
 368              		.section	.text.drag_start,"ax",%progbits
 369              		.align	1
 370              		.syntax unified
 371              		.thumb
 372              		.thumb_func
 374              	drag_start:
 375              	.LVL34:
 376              	.LFB251:
 327:Lib/lvgl/src/widgets/slider/lv_slider.c **** 
 328:Lib/lvgl/src/widgets/slider/lv_slider.c **** static void drag_start(lv_obj_t * obj)
 329:Lib/lvgl/src/widgets/slider/lv_slider.c **** {
 377              		.loc 1 329 1 is_stmt 1 view -0
 378              		.cfi_startproc
 379              		@ args = 0, pretend = 0, frame = 16
 380              		@ frame_needed = 0, uses_anonymous_args = 0
 381              		.loc 1 329 1 is_stmt 0 view .LVU111
 382 0000 30B5     		push	{r4, r5, lr}
 383              	.LCFI6:
 384              		.cfi_def_cfa_offset 12
 385              		.cfi_offset 4, -12
 386              		.cfi_offset 5, -8
 387              		.cfi_offset 14, -4
 388 0002 85B0     		sub	sp, sp, #20
 389              	.LCFI7:
 390              		.cfi_def_cfa_offset 32
 391 0004 0446     		mov	r4, r0
 330:Lib/lvgl/src/widgets/slider/lv_slider.c ****     lv_slider_t * slider = (lv_slider_t *)obj;
 392              		.loc 1 330 5 is_stmt 1 view .LVU112
 393              	.LVL35:
 331:Lib/lvgl/src/widgets/slider/lv_slider.c ****     lv_slider_mode_t mode = lv_slider_get_mode(obj);
 394              		.loc 1 331 5 view .LVU113
 395              		.loc 1 331 29 is_stmt 0 view .LVU114
 396 0006 FFF7FEFF 		bl	lv_slider_get_mode
 397              	.LVL36:
 332:Lib/lvgl/src/widgets/slider/lv_slider.c ****     lv_point_t p;
 398              		.loc 1 332 5 is_stmt 1 view .LVU115
 333:Lib/lvgl/src/widgets/slider/lv_slider.c ****     slider->dragging = true;
ARM GAS  C:\Users\Alex\AppData\Local\Temp\cc5XGeRL.s 			page 21


 399              		.loc 1 333 5 view .LVU116
 400              		.loc 1 333 22 is_stmt 0 view .LVU117
 401 000a 94F8A030 		ldrb	r3, [r4, #160]	@ zero_extendqisi2
 402 000e 43F00103 		orr	r3, r3, #1
 403 0012 84F8A030 		strb	r3, [r4, #160]
 334:Lib/lvgl/src/widgets/slider/lv_slider.c ****     if(mode == LV_SLIDER_MODE_NORMAL || mode == LV_SLIDER_MODE_SYMMETRICAL) {
 404              		.loc 1 334 5 is_stmt 1 view .LVU118
 405              		.loc 1 334 7 is_stmt 0 view .LVU119
 406 0016 0128     		cmp	r0, #1
 407 0018 03D9     		bls	.L33
 335:Lib/lvgl/src/widgets/slider/lv_slider.c ****         slider->value_to_set = &slider->bar.cur_value;
 336:Lib/lvgl/src/widgets/slider/lv_slider.c ****     }
 337:Lib/lvgl/src/widgets/slider/lv_slider.c ****     else if(mode == LV_SLIDER_MODE_RANGE) {
 408              		.loc 1 337 10 is_stmt 1 view .LVU120
 409              		.loc 1 337 12 is_stmt 0 view .LVU121
 410 001a 0228     		cmp	r0, #2
 411 001c 06D0     		beq	.L34
 412              	.LVL37:
 413              	.L11:
 338:Lib/lvgl/src/widgets/slider/lv_slider.c ****         lv_indev_get_point(lv_indev_active(), &p);
 339:Lib/lvgl/src/widgets/slider/lv_slider.c ****         lv_obj_transform_point(obj, &p, true, true);
 340:Lib/lvgl/src/widgets/slider/lv_slider.c ****         const bool is_rtl = LV_BASE_DIR_RTL == lv_obj_get_style_base_dir(obj, LV_PART_MAIN);
 341:Lib/lvgl/src/widgets/slider/lv_slider.c ****         const bool is_horizontal = is_slider_horizontal(obj);
 342:Lib/lvgl/src/widgets/slider/lv_slider.c ****         const bool is_reversed = slider->bar.val_reversed ^ (is_rtl && is_horizontal);
 343:Lib/lvgl/src/widgets/slider/lv_slider.c ****         int32_t dist_left, dist_right;
 344:Lib/lvgl/src/widgets/slider/lv_slider.c ****         if(is_horizontal) {
 345:Lib/lvgl/src/widgets/slider/lv_slider.c ****             if((!is_reversed && p.x > slider->right_knob_area.x2) || (is_reversed && p.x < slider->
 346:Lib/lvgl/src/widgets/slider/lv_slider.c ****                 slider->value_to_set = &slider->bar.cur_value;
 347:Lib/lvgl/src/widgets/slider/lv_slider.c ****             }
 348:Lib/lvgl/src/widgets/slider/lv_slider.c ****             else if((!is_reversed && p.x < slider->left_knob_area.x1) || (is_reversed && p.x > slid
 349:Lib/lvgl/src/widgets/slider/lv_slider.c ****                 slider->value_to_set = &slider->bar.start_value;
 350:Lib/lvgl/src/widgets/slider/lv_slider.c ****             }
 351:Lib/lvgl/src/widgets/slider/lv_slider.c ****             else {
 352:Lib/lvgl/src/widgets/slider/lv_slider.c ****                 /*Calculate the distance from each knob*/
 353:Lib/lvgl/src/widgets/slider/lv_slider.c ****                 dist_left = LV_ABS((slider->left_knob_area.x1 + (slider->left_knob_area.x2 - slider
 354:Lib/lvgl/src/widgets/slider/lv_slider.c ****                 dist_right = LV_ABS((slider->right_knob_area.x1 + (slider->right_knob_area.x2 - sli
 355:Lib/lvgl/src/widgets/slider/lv_slider.c ****                 /*Use whichever one is closer*/
 356:Lib/lvgl/src/widgets/slider/lv_slider.c ****                 if(dist_right < dist_left) {
 357:Lib/lvgl/src/widgets/slider/lv_slider.c ****                     slider->value_to_set = &slider->bar.cur_value;
 358:Lib/lvgl/src/widgets/slider/lv_slider.c ****                     slider->left_knob_focus = 0;
 359:Lib/lvgl/src/widgets/slider/lv_slider.c ****                 }
 360:Lib/lvgl/src/widgets/slider/lv_slider.c ****                 else {
 361:Lib/lvgl/src/widgets/slider/lv_slider.c ****                     slider->value_to_set = &slider->bar.start_value;
 362:Lib/lvgl/src/widgets/slider/lv_slider.c ****                     slider->left_knob_focus = 1;
 363:Lib/lvgl/src/widgets/slider/lv_slider.c ****                 }
 364:Lib/lvgl/src/widgets/slider/lv_slider.c ****             }
 365:Lib/lvgl/src/widgets/slider/lv_slider.c ****         }
 366:Lib/lvgl/src/widgets/slider/lv_slider.c ****         else {
 367:Lib/lvgl/src/widgets/slider/lv_slider.c ****             if((!is_reversed && p.y < slider->right_knob_area.y1) || (is_reversed && p.y > slider->
 368:Lib/lvgl/src/widgets/slider/lv_slider.c ****                 slider->value_to_set = &slider->bar.cur_value;
 369:Lib/lvgl/src/widgets/slider/lv_slider.c ****             }
 370:Lib/lvgl/src/widgets/slider/lv_slider.c ****             else if((!is_reversed && p.y > slider->left_knob_area.y2) || (is_reversed && p.y < slid
 371:Lib/lvgl/src/widgets/slider/lv_slider.c ****                 slider->value_to_set = &slider->bar.start_value;
 372:Lib/lvgl/src/widgets/slider/lv_slider.c ****             }
 373:Lib/lvgl/src/widgets/slider/lv_slider.c ****             else {
 374:Lib/lvgl/src/widgets/slider/lv_slider.c ****                 /*Calculate the distance from each knob*/
 375:Lib/lvgl/src/widgets/slider/lv_slider.c ****                 dist_left = LV_ABS((slider->left_knob_area.y1 + (slider->left_knob_area.y2 - slider
ARM GAS  C:\Users\Alex\AppData\Local\Temp\cc5XGeRL.s 			page 22


 376:Lib/lvgl/src/widgets/slider/lv_slider.c ****                 dist_right = LV_ABS((slider->right_knob_area.y1 + (slider->right_knob_area.y2 - sli
 377:Lib/lvgl/src/widgets/slider/lv_slider.c **** 
 378:Lib/lvgl/src/widgets/slider/lv_slider.c ****                 /*Use whichever one is closer*/
 379:Lib/lvgl/src/widgets/slider/lv_slider.c ****                 if(dist_right < dist_left) {
 380:Lib/lvgl/src/widgets/slider/lv_slider.c ****                     slider->value_to_set = &slider->bar.cur_value;
 381:Lib/lvgl/src/widgets/slider/lv_slider.c ****                     slider->left_knob_focus = 0;
 382:Lib/lvgl/src/widgets/slider/lv_slider.c ****                 }
 383:Lib/lvgl/src/widgets/slider/lv_slider.c ****                 else {
 384:Lib/lvgl/src/widgets/slider/lv_slider.c ****                     slider->value_to_set = &slider->bar.start_value;
 385:Lib/lvgl/src/widgets/slider/lv_slider.c ****                     slider->left_knob_focus = 1;
 386:Lib/lvgl/src/widgets/slider/lv_slider.c ****                 }
 387:Lib/lvgl/src/widgets/slider/lv_slider.c ****             }
 388:Lib/lvgl/src/widgets/slider/lv_slider.c ****         }
 389:Lib/lvgl/src/widgets/slider/lv_slider.c ****     }
 390:Lib/lvgl/src/widgets/slider/lv_slider.c **** }
 414              		.loc 1 390 1 view .LVU122
 415 001e 05B0     		add	sp, sp, #20
 416              	.LCFI8:
 417              		.cfi_remember_state
 418              		.cfi_def_cfa_offset 12
 419              		@ sp needed
 420 0020 30BD     		pop	{r4, r5, pc}
 421              	.LVL38:
 422              	.L33:
 423              	.LCFI9:
 424              		.cfi_restore_state
 335:Lib/lvgl/src/widgets/slider/lv_slider.c ****         slider->value_to_set = &slider->bar.cur_value;
 425              		.loc 1 335 9 is_stmt 1 view .LVU123
 335:Lib/lvgl/src/widgets/slider/lv_slider.c ****         slider->value_to_set = &slider->bar.cur_value;
 426              		.loc 1 335 32 is_stmt 0 view .LVU124
 427 0022 04F12C03 		add	r3, r4, #44
 335:Lib/lvgl/src/widgets/slider/lv_slider.c ****         slider->value_to_set = &slider->bar.cur_value;
 428              		.loc 1 335 30 view .LVU125
 429 0026 C4F89C30 		str	r3, [r4, #156]
 430 002a F8E7     		b	.L11
 431              	.L34:
 432              	.LBB89:
 338:Lib/lvgl/src/widgets/slider/lv_slider.c ****         lv_indev_get_point(lv_indev_active(), &p);
 433              		.loc 1 338 9 is_stmt 1 view .LVU126
 338:Lib/lvgl/src/widgets/slider/lv_slider.c ****         lv_indev_get_point(lv_indev_active(), &p);
 434              		.loc 1 338 28 is_stmt 0 view .LVU127
 435 002c FFF7FEFF 		bl	lv_indev_active
 436              	.LVL39:
 338:Lib/lvgl/src/widgets/slider/lv_slider.c ****         lv_indev_get_point(lv_indev_active(), &p);
 437              		.loc 1 338 9 view .LVU128
 438 0030 02A9     		add	r1, sp, #8
 439 0032 FFF7FEFF 		bl	lv_indev_get_point
 440              	.LVL40:
 339:Lib/lvgl/src/widgets/slider/lv_slider.c ****         const bool is_rtl = LV_BASE_DIR_RTL == lv_obj_get_style_base_dir(obj, LV_PART_MAIN);
 441              		.loc 1 339 9 is_stmt 1 view .LVU129
 442 0036 0123     		movs	r3, #1
 443 0038 1A46     		mov	r2, r3
 444 003a 02A9     		add	r1, sp, #8
 445 003c 2046     		mov	r0, r4
 446 003e FFF7FEFF 		bl	lv_obj_transform_point
 447              	.LVL41:
 340:Lib/lvgl/src/widgets/slider/lv_slider.c ****         const bool is_horizontal = is_slider_horizontal(obj);
ARM GAS  C:\Users\Alex\AppData\Local\Temp\cc5XGeRL.s 			page 23


 448              		.loc 1 340 9 view .LVU130
 449              	.LBB90:
 450              	.LBI90:
 164:Lib/lvgl/src/widgets/slider/../bar/../../core/lv_obj_style_gen.h **** }
 165:Lib/lvgl/src/widgets/slider/../bar/../../core/lv_obj_style_gen.h **** 
 166:Lib/lvgl/src/widgets/slider/../bar/../../core/lv_obj_style_gen.h **** static inline int32_t lv_obj_get_style_pad_row(const lv_obj_t * obj, uint32_t part)
 167:Lib/lvgl/src/widgets/slider/../bar/../../core/lv_obj_style_gen.h **** {
 168:Lib/lvgl/src/widgets/slider/../bar/../../core/lv_obj_style_gen.h ****     lv_style_value_t v = lv_obj_get_style_prop(obj, part, LV_STYLE_PAD_ROW);
 169:Lib/lvgl/src/widgets/slider/../bar/../../core/lv_obj_style_gen.h ****     return (int32_t)v.num;
 170:Lib/lvgl/src/widgets/slider/../bar/../../core/lv_obj_style_gen.h **** }
 171:Lib/lvgl/src/widgets/slider/../bar/../../core/lv_obj_style_gen.h **** 
 172:Lib/lvgl/src/widgets/slider/../bar/../../core/lv_obj_style_gen.h **** static inline int32_t lv_obj_get_style_pad_column(const lv_obj_t * obj, uint32_t part)
 173:Lib/lvgl/src/widgets/slider/../bar/../../core/lv_obj_style_gen.h **** {
 174:Lib/lvgl/src/widgets/slider/../bar/../../core/lv_obj_style_gen.h ****     lv_style_value_t v = lv_obj_get_style_prop(obj, part, LV_STYLE_PAD_COLUMN);
 175:Lib/lvgl/src/widgets/slider/../bar/../../core/lv_obj_style_gen.h ****     return (int32_t)v.num;
 176:Lib/lvgl/src/widgets/slider/../bar/../../core/lv_obj_style_gen.h **** }
 177:Lib/lvgl/src/widgets/slider/../bar/../../core/lv_obj_style_gen.h **** 
 178:Lib/lvgl/src/widgets/slider/../bar/../../core/lv_obj_style_gen.h **** static inline int32_t lv_obj_get_style_margin_top(const lv_obj_t * obj, uint32_t part)
 179:Lib/lvgl/src/widgets/slider/../bar/../../core/lv_obj_style_gen.h **** {
 180:Lib/lvgl/src/widgets/slider/../bar/../../core/lv_obj_style_gen.h ****     lv_style_value_t v = lv_obj_get_style_prop(obj, part, LV_STYLE_MARGIN_TOP);
 181:Lib/lvgl/src/widgets/slider/../bar/../../core/lv_obj_style_gen.h ****     return (int32_t)v.num;
 182:Lib/lvgl/src/widgets/slider/../bar/../../core/lv_obj_style_gen.h **** }
 183:Lib/lvgl/src/widgets/slider/../bar/../../core/lv_obj_style_gen.h **** 
 184:Lib/lvgl/src/widgets/slider/../bar/../../core/lv_obj_style_gen.h **** static inline int32_t lv_obj_get_style_margin_bottom(const lv_obj_t * obj, uint32_t part)
 185:Lib/lvgl/src/widgets/slider/../bar/../../core/lv_obj_style_gen.h **** {
 186:Lib/lvgl/src/widgets/slider/../bar/../../core/lv_obj_style_gen.h ****     lv_style_value_t v = lv_obj_get_style_prop(obj, part, LV_STYLE_MARGIN_BOTTOM);
 187:Lib/lvgl/src/widgets/slider/../bar/../../core/lv_obj_style_gen.h ****     return (int32_t)v.num;
 188:Lib/lvgl/src/widgets/slider/../bar/../../core/lv_obj_style_gen.h **** }
 189:Lib/lvgl/src/widgets/slider/../bar/../../core/lv_obj_style_gen.h **** 
 190:Lib/lvgl/src/widgets/slider/../bar/../../core/lv_obj_style_gen.h **** static inline int32_t lv_obj_get_style_margin_left(const lv_obj_t * obj, uint32_t part)
 191:Lib/lvgl/src/widgets/slider/../bar/../../core/lv_obj_style_gen.h **** {
 192:Lib/lvgl/src/widgets/slider/../bar/../../core/lv_obj_style_gen.h ****     lv_style_value_t v = lv_obj_get_style_prop(obj, part, LV_STYLE_MARGIN_LEFT);
 193:Lib/lvgl/src/widgets/slider/../bar/../../core/lv_obj_style_gen.h ****     return (int32_t)v.num;
 194:Lib/lvgl/src/widgets/slider/../bar/../../core/lv_obj_style_gen.h **** }
 195:Lib/lvgl/src/widgets/slider/../bar/../../core/lv_obj_style_gen.h **** 
 196:Lib/lvgl/src/widgets/slider/../bar/../../core/lv_obj_style_gen.h **** static inline int32_t lv_obj_get_style_margin_right(const lv_obj_t * obj, uint32_t part)
 197:Lib/lvgl/src/widgets/slider/../bar/../../core/lv_obj_style_gen.h **** {
 198:Lib/lvgl/src/widgets/slider/../bar/../../core/lv_obj_style_gen.h ****     lv_style_value_t v = lv_obj_get_style_prop(obj, part, LV_STYLE_MARGIN_RIGHT);
 199:Lib/lvgl/src/widgets/slider/../bar/../../core/lv_obj_style_gen.h ****     return (int32_t)v.num;
 200:Lib/lvgl/src/widgets/slider/../bar/../../core/lv_obj_style_gen.h **** }
 201:Lib/lvgl/src/widgets/slider/../bar/../../core/lv_obj_style_gen.h **** 
 202:Lib/lvgl/src/widgets/slider/../bar/../../core/lv_obj_style_gen.h **** static inline lv_color_t lv_obj_get_style_bg_color(const lv_obj_t * obj, uint32_t part)
 203:Lib/lvgl/src/widgets/slider/../bar/../../core/lv_obj_style_gen.h **** {
 204:Lib/lvgl/src/widgets/slider/../bar/../../core/lv_obj_style_gen.h ****     lv_style_value_t v = lv_obj_get_style_prop(obj, part, LV_STYLE_BG_COLOR);
 205:Lib/lvgl/src/widgets/slider/../bar/../../core/lv_obj_style_gen.h ****     return v.color;
 206:Lib/lvgl/src/widgets/slider/../bar/../../core/lv_obj_style_gen.h **** }
 207:Lib/lvgl/src/widgets/slider/../bar/../../core/lv_obj_style_gen.h **** 
 208:Lib/lvgl/src/widgets/slider/../bar/../../core/lv_obj_style_gen.h **** static inline lv_color_t lv_obj_get_style_bg_color_filtered(const lv_obj_t * obj, uint32_t part)
 209:Lib/lvgl/src/widgets/slider/../bar/../../core/lv_obj_style_gen.h **** {
 210:Lib/lvgl/src/widgets/slider/../bar/../../core/lv_obj_style_gen.h ****     lv_style_value_t v = _lv_obj_style_apply_color_filter(obj, part, lv_obj_get_style_prop(obj, par
 211:Lib/lvgl/src/widgets/slider/../bar/../../core/lv_obj_style_gen.h ****     return v.color;
 212:Lib/lvgl/src/widgets/slider/../bar/../../core/lv_obj_style_gen.h **** }
 213:Lib/lvgl/src/widgets/slider/../bar/../../core/lv_obj_style_gen.h **** 
 214:Lib/lvgl/src/widgets/slider/../bar/../../core/lv_obj_style_gen.h **** static inline lv_opa_t lv_obj_get_style_bg_opa(const lv_obj_t * obj, uint32_t part)
 215:Lib/lvgl/src/widgets/slider/../bar/../../core/lv_obj_style_gen.h **** {
 216:Lib/lvgl/src/widgets/slider/../bar/../../core/lv_obj_style_gen.h ****     lv_style_value_t v = lv_obj_get_style_prop(obj, part, LV_STYLE_BG_OPA);
 217:Lib/lvgl/src/widgets/slider/../bar/../../core/lv_obj_style_gen.h ****     return (lv_opa_t)v.num;
ARM GAS  C:\Users\Alex\AppData\Local\Temp\cc5XGeRL.s 			page 24


 218:Lib/lvgl/src/widgets/slider/../bar/../../core/lv_obj_style_gen.h **** }
 219:Lib/lvgl/src/widgets/slider/../bar/../../core/lv_obj_style_gen.h **** 
 220:Lib/lvgl/src/widgets/slider/../bar/../../core/lv_obj_style_gen.h **** static inline lv_color_t lv_obj_get_style_bg_grad_color(const lv_obj_t * obj, uint32_t part)
 221:Lib/lvgl/src/widgets/slider/../bar/../../core/lv_obj_style_gen.h **** {
 222:Lib/lvgl/src/widgets/slider/../bar/../../core/lv_obj_style_gen.h ****     lv_style_value_t v = lv_obj_get_style_prop(obj, part, LV_STYLE_BG_GRAD_COLOR);
 223:Lib/lvgl/src/widgets/slider/../bar/../../core/lv_obj_style_gen.h ****     return v.color;
 224:Lib/lvgl/src/widgets/slider/../bar/../../core/lv_obj_style_gen.h **** }
 225:Lib/lvgl/src/widgets/slider/../bar/../../core/lv_obj_style_gen.h **** 
 226:Lib/lvgl/src/widgets/slider/../bar/../../core/lv_obj_style_gen.h **** static inline lv_color_t lv_obj_get_style_bg_grad_color_filtered(const lv_obj_t * obj, uint32_t par
 227:Lib/lvgl/src/widgets/slider/../bar/../../core/lv_obj_style_gen.h **** {
 228:Lib/lvgl/src/widgets/slider/../bar/../../core/lv_obj_style_gen.h ****     lv_style_value_t v = _lv_obj_style_apply_color_filter(obj, part, lv_obj_get_style_prop(obj, par
 229:Lib/lvgl/src/widgets/slider/../bar/../../core/lv_obj_style_gen.h ****                                                                                            LV_STYLE
 230:Lib/lvgl/src/widgets/slider/../bar/../../core/lv_obj_style_gen.h ****     return v.color;
 231:Lib/lvgl/src/widgets/slider/../bar/../../core/lv_obj_style_gen.h **** }
 232:Lib/lvgl/src/widgets/slider/../bar/../../core/lv_obj_style_gen.h **** 
 233:Lib/lvgl/src/widgets/slider/../bar/../../core/lv_obj_style_gen.h **** static inline lv_grad_dir_t lv_obj_get_style_bg_grad_dir(const lv_obj_t * obj, uint32_t part)
 234:Lib/lvgl/src/widgets/slider/../bar/../../core/lv_obj_style_gen.h **** {
 235:Lib/lvgl/src/widgets/slider/../bar/../../core/lv_obj_style_gen.h ****     lv_style_value_t v = lv_obj_get_style_prop(obj, part, LV_STYLE_BG_GRAD_DIR);
 236:Lib/lvgl/src/widgets/slider/../bar/../../core/lv_obj_style_gen.h ****     return (lv_grad_dir_t)v.num;
 237:Lib/lvgl/src/widgets/slider/../bar/../../core/lv_obj_style_gen.h **** }
 238:Lib/lvgl/src/widgets/slider/../bar/../../core/lv_obj_style_gen.h **** 
 239:Lib/lvgl/src/widgets/slider/../bar/../../core/lv_obj_style_gen.h **** static inline int32_t lv_obj_get_style_bg_main_stop(const lv_obj_t * obj, uint32_t part)
 240:Lib/lvgl/src/widgets/slider/../bar/../../core/lv_obj_style_gen.h **** {
 241:Lib/lvgl/src/widgets/slider/../bar/../../core/lv_obj_style_gen.h ****     lv_style_value_t v = lv_obj_get_style_prop(obj, part, LV_STYLE_BG_MAIN_STOP);
 242:Lib/lvgl/src/widgets/slider/../bar/../../core/lv_obj_style_gen.h ****     return (int32_t)v.num;
 243:Lib/lvgl/src/widgets/slider/../bar/../../core/lv_obj_style_gen.h **** }
 244:Lib/lvgl/src/widgets/slider/../bar/../../core/lv_obj_style_gen.h **** 
 245:Lib/lvgl/src/widgets/slider/../bar/../../core/lv_obj_style_gen.h **** static inline int32_t lv_obj_get_style_bg_grad_stop(const lv_obj_t * obj, uint32_t part)
 246:Lib/lvgl/src/widgets/slider/../bar/../../core/lv_obj_style_gen.h **** {
 247:Lib/lvgl/src/widgets/slider/../bar/../../core/lv_obj_style_gen.h ****     lv_style_value_t v = lv_obj_get_style_prop(obj, part, LV_STYLE_BG_GRAD_STOP);
 248:Lib/lvgl/src/widgets/slider/../bar/../../core/lv_obj_style_gen.h ****     return (int32_t)v.num;
 249:Lib/lvgl/src/widgets/slider/../bar/../../core/lv_obj_style_gen.h **** }
 250:Lib/lvgl/src/widgets/slider/../bar/../../core/lv_obj_style_gen.h **** 
 251:Lib/lvgl/src/widgets/slider/../bar/../../core/lv_obj_style_gen.h **** static inline lv_opa_t lv_obj_get_style_bg_main_opa(const lv_obj_t * obj, uint32_t part)
 252:Lib/lvgl/src/widgets/slider/../bar/../../core/lv_obj_style_gen.h **** {
 253:Lib/lvgl/src/widgets/slider/../bar/../../core/lv_obj_style_gen.h ****     lv_style_value_t v = lv_obj_get_style_prop(obj, part, LV_STYLE_BG_MAIN_OPA);
 254:Lib/lvgl/src/widgets/slider/../bar/../../core/lv_obj_style_gen.h ****     return (lv_opa_t)v.num;
 255:Lib/lvgl/src/widgets/slider/../bar/../../core/lv_obj_style_gen.h **** }
 256:Lib/lvgl/src/widgets/slider/../bar/../../core/lv_obj_style_gen.h **** 
 257:Lib/lvgl/src/widgets/slider/../bar/../../core/lv_obj_style_gen.h **** static inline lv_opa_t lv_obj_get_style_bg_grad_opa(const lv_obj_t * obj, uint32_t part)
 258:Lib/lvgl/src/widgets/slider/../bar/../../core/lv_obj_style_gen.h **** {
 259:Lib/lvgl/src/widgets/slider/../bar/../../core/lv_obj_style_gen.h ****     lv_style_value_t v = lv_obj_get_style_prop(obj, part, LV_STYLE_BG_GRAD_OPA);
 260:Lib/lvgl/src/widgets/slider/../bar/../../core/lv_obj_style_gen.h ****     return (lv_opa_t)v.num;
 261:Lib/lvgl/src/widgets/slider/../bar/../../core/lv_obj_style_gen.h **** }
 262:Lib/lvgl/src/widgets/slider/../bar/../../core/lv_obj_style_gen.h **** 
 263:Lib/lvgl/src/widgets/slider/../bar/../../core/lv_obj_style_gen.h **** static inline const lv_grad_dsc_t * lv_obj_get_style_bg_grad(const lv_obj_t * obj, uint32_t part)
 264:Lib/lvgl/src/widgets/slider/../bar/../../core/lv_obj_style_gen.h **** {
 265:Lib/lvgl/src/widgets/slider/../bar/../../core/lv_obj_style_gen.h ****     lv_style_value_t v = lv_obj_get_style_prop(obj, part, LV_STYLE_BG_GRAD);
 266:Lib/lvgl/src/widgets/slider/../bar/../../core/lv_obj_style_gen.h ****     return (const lv_grad_dsc_t *)v.ptr;
 267:Lib/lvgl/src/widgets/slider/../bar/../../core/lv_obj_style_gen.h **** }
 268:Lib/lvgl/src/widgets/slider/../bar/../../core/lv_obj_style_gen.h **** 
 269:Lib/lvgl/src/widgets/slider/../bar/../../core/lv_obj_style_gen.h **** static inline const void * lv_obj_get_style_bg_image_src(const lv_obj_t * obj, uint32_t part)
 270:Lib/lvgl/src/widgets/slider/../bar/../../core/lv_obj_style_gen.h **** {
 271:Lib/lvgl/src/widgets/slider/../bar/../../core/lv_obj_style_gen.h ****     lv_style_value_t v = lv_obj_get_style_prop(obj, part, LV_STYLE_BG_IMAGE_SRC);
 272:Lib/lvgl/src/widgets/slider/../bar/../../core/lv_obj_style_gen.h ****     return (const void *)v.ptr;
 273:Lib/lvgl/src/widgets/slider/../bar/../../core/lv_obj_style_gen.h **** }
 274:Lib/lvgl/src/widgets/slider/../bar/../../core/lv_obj_style_gen.h **** 
ARM GAS  C:\Users\Alex\AppData\Local\Temp\cc5XGeRL.s 			page 25


 275:Lib/lvgl/src/widgets/slider/../bar/../../core/lv_obj_style_gen.h **** static inline lv_opa_t lv_obj_get_style_bg_image_opa(const lv_obj_t * obj, uint32_t part)
 276:Lib/lvgl/src/widgets/slider/../bar/../../core/lv_obj_style_gen.h **** {
 277:Lib/lvgl/src/widgets/slider/../bar/../../core/lv_obj_style_gen.h ****     lv_style_value_t v = lv_obj_get_style_prop(obj, part, LV_STYLE_BG_IMAGE_OPA);
 278:Lib/lvgl/src/widgets/slider/../bar/../../core/lv_obj_style_gen.h ****     return (lv_opa_t)v.num;
 279:Lib/lvgl/src/widgets/slider/../bar/../../core/lv_obj_style_gen.h **** }
 280:Lib/lvgl/src/widgets/slider/../bar/../../core/lv_obj_style_gen.h **** 
 281:Lib/lvgl/src/widgets/slider/../bar/../../core/lv_obj_style_gen.h **** static inline lv_color_t lv_obj_get_style_bg_image_recolor(const lv_obj_t * obj, uint32_t part)
 282:Lib/lvgl/src/widgets/slider/../bar/../../core/lv_obj_style_gen.h **** {
 283:Lib/lvgl/src/widgets/slider/../bar/../../core/lv_obj_style_gen.h ****     lv_style_value_t v = lv_obj_get_style_prop(obj, part, LV_STYLE_BG_IMAGE_RECOLOR);
 284:Lib/lvgl/src/widgets/slider/../bar/../../core/lv_obj_style_gen.h ****     return v.color;
 285:Lib/lvgl/src/widgets/slider/../bar/../../core/lv_obj_style_gen.h **** }
 286:Lib/lvgl/src/widgets/slider/../bar/../../core/lv_obj_style_gen.h **** 
 287:Lib/lvgl/src/widgets/slider/../bar/../../core/lv_obj_style_gen.h **** static inline lv_color_t lv_obj_get_style_bg_image_recolor_filtered(const lv_obj_t * obj, uint32_t 
 288:Lib/lvgl/src/widgets/slider/../bar/../../core/lv_obj_style_gen.h **** {
 289:Lib/lvgl/src/widgets/slider/../bar/../../core/lv_obj_style_gen.h ****     lv_style_value_t v = _lv_obj_style_apply_color_filter(obj, part, lv_obj_get_style_prop(obj, par
 290:Lib/lvgl/src/widgets/slider/../bar/../../core/lv_obj_style_gen.h ****                                                                                            LV_STYLE
 291:Lib/lvgl/src/widgets/slider/../bar/../../core/lv_obj_style_gen.h ****     return v.color;
 292:Lib/lvgl/src/widgets/slider/../bar/../../core/lv_obj_style_gen.h **** }
 293:Lib/lvgl/src/widgets/slider/../bar/../../core/lv_obj_style_gen.h **** 
 294:Lib/lvgl/src/widgets/slider/../bar/../../core/lv_obj_style_gen.h **** static inline lv_opa_t lv_obj_get_style_bg_image_recolor_opa(const lv_obj_t * obj, uint32_t part)
 295:Lib/lvgl/src/widgets/slider/../bar/../../core/lv_obj_style_gen.h **** {
 296:Lib/lvgl/src/widgets/slider/../bar/../../core/lv_obj_style_gen.h ****     lv_style_value_t v = lv_obj_get_style_prop(obj, part, LV_STYLE_BG_IMAGE_RECOLOR_OPA);
 297:Lib/lvgl/src/widgets/slider/../bar/../../core/lv_obj_style_gen.h ****     return (lv_opa_t)v.num;
 298:Lib/lvgl/src/widgets/slider/../bar/../../core/lv_obj_style_gen.h **** }
 299:Lib/lvgl/src/widgets/slider/../bar/../../core/lv_obj_style_gen.h **** 
 300:Lib/lvgl/src/widgets/slider/../bar/../../core/lv_obj_style_gen.h **** static inline bool lv_obj_get_style_bg_image_tiled(const lv_obj_t * obj, uint32_t part)
 301:Lib/lvgl/src/widgets/slider/../bar/../../core/lv_obj_style_gen.h **** {
 302:Lib/lvgl/src/widgets/slider/../bar/../../core/lv_obj_style_gen.h ****     lv_style_value_t v = lv_obj_get_style_prop(obj, part, LV_STYLE_BG_IMAGE_TILED);
 303:Lib/lvgl/src/widgets/slider/../bar/../../core/lv_obj_style_gen.h ****     return (bool)v.num;
 304:Lib/lvgl/src/widgets/slider/../bar/../../core/lv_obj_style_gen.h **** }
 305:Lib/lvgl/src/widgets/slider/../bar/../../core/lv_obj_style_gen.h **** 
 306:Lib/lvgl/src/widgets/slider/../bar/../../core/lv_obj_style_gen.h **** static inline lv_color_t lv_obj_get_style_border_color(const lv_obj_t * obj, uint32_t part)
 307:Lib/lvgl/src/widgets/slider/../bar/../../core/lv_obj_style_gen.h **** {
 308:Lib/lvgl/src/widgets/slider/../bar/../../core/lv_obj_style_gen.h ****     lv_style_value_t v = lv_obj_get_style_prop(obj, part, LV_STYLE_BORDER_COLOR);
 309:Lib/lvgl/src/widgets/slider/../bar/../../core/lv_obj_style_gen.h ****     return v.color;
 310:Lib/lvgl/src/widgets/slider/../bar/../../core/lv_obj_style_gen.h **** }
 311:Lib/lvgl/src/widgets/slider/../bar/../../core/lv_obj_style_gen.h **** 
 312:Lib/lvgl/src/widgets/slider/../bar/../../core/lv_obj_style_gen.h **** static inline lv_color_t lv_obj_get_style_border_color_filtered(const lv_obj_t * obj, uint32_t part
 313:Lib/lvgl/src/widgets/slider/../bar/../../core/lv_obj_style_gen.h **** {
 314:Lib/lvgl/src/widgets/slider/../bar/../../core/lv_obj_style_gen.h ****     lv_style_value_t v = _lv_obj_style_apply_color_filter(obj, part, lv_obj_get_style_prop(obj, par
 315:Lib/lvgl/src/widgets/slider/../bar/../../core/lv_obj_style_gen.h ****                                                                                            LV_STYLE
 316:Lib/lvgl/src/widgets/slider/../bar/../../core/lv_obj_style_gen.h ****     return v.color;
 317:Lib/lvgl/src/widgets/slider/../bar/../../core/lv_obj_style_gen.h **** }
 318:Lib/lvgl/src/widgets/slider/../bar/../../core/lv_obj_style_gen.h **** 
 319:Lib/lvgl/src/widgets/slider/../bar/../../core/lv_obj_style_gen.h **** static inline lv_opa_t lv_obj_get_style_border_opa(const lv_obj_t * obj, uint32_t part)
 320:Lib/lvgl/src/widgets/slider/../bar/../../core/lv_obj_style_gen.h **** {
 321:Lib/lvgl/src/widgets/slider/../bar/../../core/lv_obj_style_gen.h ****     lv_style_value_t v = lv_obj_get_style_prop(obj, part, LV_STYLE_BORDER_OPA);
 322:Lib/lvgl/src/widgets/slider/../bar/../../core/lv_obj_style_gen.h ****     return (lv_opa_t)v.num;
 323:Lib/lvgl/src/widgets/slider/../bar/../../core/lv_obj_style_gen.h **** }
 324:Lib/lvgl/src/widgets/slider/../bar/../../core/lv_obj_style_gen.h **** 
 325:Lib/lvgl/src/widgets/slider/../bar/../../core/lv_obj_style_gen.h **** static inline int32_t lv_obj_get_style_border_width(const lv_obj_t * obj, uint32_t part)
 326:Lib/lvgl/src/widgets/slider/../bar/../../core/lv_obj_style_gen.h **** {
 327:Lib/lvgl/src/widgets/slider/../bar/../../core/lv_obj_style_gen.h ****     lv_style_value_t v = lv_obj_get_style_prop(obj, part, LV_STYLE_BORDER_WIDTH);
 328:Lib/lvgl/src/widgets/slider/../bar/../../core/lv_obj_style_gen.h ****     return (int32_t)v.num;
 329:Lib/lvgl/src/widgets/slider/../bar/../../core/lv_obj_style_gen.h **** }
 330:Lib/lvgl/src/widgets/slider/../bar/../../core/lv_obj_style_gen.h **** 
 331:Lib/lvgl/src/widgets/slider/../bar/../../core/lv_obj_style_gen.h **** static inline lv_border_side_t lv_obj_get_style_border_side(const lv_obj_t * obj, uint32_t part)
ARM GAS  C:\Users\Alex\AppData\Local\Temp\cc5XGeRL.s 			page 26


 332:Lib/lvgl/src/widgets/slider/../bar/../../core/lv_obj_style_gen.h **** {
 333:Lib/lvgl/src/widgets/slider/../bar/../../core/lv_obj_style_gen.h ****     lv_style_value_t v = lv_obj_get_style_prop(obj, part, LV_STYLE_BORDER_SIDE);
 334:Lib/lvgl/src/widgets/slider/../bar/../../core/lv_obj_style_gen.h ****     return (lv_border_side_t)v.num;
 335:Lib/lvgl/src/widgets/slider/../bar/../../core/lv_obj_style_gen.h **** }
 336:Lib/lvgl/src/widgets/slider/../bar/../../core/lv_obj_style_gen.h **** 
 337:Lib/lvgl/src/widgets/slider/../bar/../../core/lv_obj_style_gen.h **** static inline bool lv_obj_get_style_border_post(const lv_obj_t * obj, uint32_t part)
 338:Lib/lvgl/src/widgets/slider/../bar/../../core/lv_obj_style_gen.h **** {
 339:Lib/lvgl/src/widgets/slider/../bar/../../core/lv_obj_style_gen.h ****     lv_style_value_t v = lv_obj_get_style_prop(obj, part, LV_STYLE_BORDER_POST);
 340:Lib/lvgl/src/widgets/slider/../bar/../../core/lv_obj_style_gen.h ****     return (bool)v.num;
 341:Lib/lvgl/src/widgets/slider/../bar/../../core/lv_obj_style_gen.h **** }
 342:Lib/lvgl/src/widgets/slider/../bar/../../core/lv_obj_style_gen.h **** 
 343:Lib/lvgl/src/widgets/slider/../bar/../../core/lv_obj_style_gen.h **** static inline int32_t lv_obj_get_style_outline_width(const lv_obj_t * obj, uint32_t part)
 344:Lib/lvgl/src/widgets/slider/../bar/../../core/lv_obj_style_gen.h **** {
 345:Lib/lvgl/src/widgets/slider/../bar/../../core/lv_obj_style_gen.h ****     lv_style_value_t v = lv_obj_get_style_prop(obj, part, LV_STYLE_OUTLINE_WIDTH);
 346:Lib/lvgl/src/widgets/slider/../bar/../../core/lv_obj_style_gen.h ****     return (int32_t)v.num;
 347:Lib/lvgl/src/widgets/slider/../bar/../../core/lv_obj_style_gen.h **** }
 348:Lib/lvgl/src/widgets/slider/../bar/../../core/lv_obj_style_gen.h **** 
 349:Lib/lvgl/src/widgets/slider/../bar/../../core/lv_obj_style_gen.h **** static inline lv_color_t lv_obj_get_style_outline_color(const lv_obj_t * obj, uint32_t part)
 350:Lib/lvgl/src/widgets/slider/../bar/../../core/lv_obj_style_gen.h **** {
 351:Lib/lvgl/src/widgets/slider/../bar/../../core/lv_obj_style_gen.h ****     lv_style_value_t v = lv_obj_get_style_prop(obj, part, LV_STYLE_OUTLINE_COLOR);
 352:Lib/lvgl/src/widgets/slider/../bar/../../core/lv_obj_style_gen.h ****     return v.color;
 353:Lib/lvgl/src/widgets/slider/../bar/../../core/lv_obj_style_gen.h **** }
 354:Lib/lvgl/src/widgets/slider/../bar/../../core/lv_obj_style_gen.h **** 
 355:Lib/lvgl/src/widgets/slider/../bar/../../core/lv_obj_style_gen.h **** static inline lv_color_t lv_obj_get_style_outline_color_filtered(const lv_obj_t * obj, uint32_t par
 356:Lib/lvgl/src/widgets/slider/../bar/../../core/lv_obj_style_gen.h **** {
 357:Lib/lvgl/src/widgets/slider/../bar/../../core/lv_obj_style_gen.h ****     lv_style_value_t v = _lv_obj_style_apply_color_filter(obj, part, lv_obj_get_style_prop(obj, par
 358:Lib/lvgl/src/widgets/slider/../bar/../../core/lv_obj_style_gen.h ****                                                                                            LV_STYLE
 359:Lib/lvgl/src/widgets/slider/../bar/../../core/lv_obj_style_gen.h ****     return v.color;
 360:Lib/lvgl/src/widgets/slider/../bar/../../core/lv_obj_style_gen.h **** }
 361:Lib/lvgl/src/widgets/slider/../bar/../../core/lv_obj_style_gen.h **** 
 362:Lib/lvgl/src/widgets/slider/../bar/../../core/lv_obj_style_gen.h **** static inline lv_opa_t lv_obj_get_style_outline_opa(const lv_obj_t * obj, uint32_t part)
 363:Lib/lvgl/src/widgets/slider/../bar/../../core/lv_obj_style_gen.h **** {
 364:Lib/lvgl/src/widgets/slider/../bar/../../core/lv_obj_style_gen.h ****     lv_style_value_t v = lv_obj_get_style_prop(obj, part, LV_STYLE_OUTLINE_OPA);
 365:Lib/lvgl/src/widgets/slider/../bar/../../core/lv_obj_style_gen.h ****     return (lv_opa_t)v.num;
 366:Lib/lvgl/src/widgets/slider/../bar/../../core/lv_obj_style_gen.h **** }
 367:Lib/lvgl/src/widgets/slider/../bar/../../core/lv_obj_style_gen.h **** 
 368:Lib/lvgl/src/widgets/slider/../bar/../../core/lv_obj_style_gen.h **** static inline int32_t lv_obj_get_style_outline_pad(const lv_obj_t * obj, uint32_t part)
 369:Lib/lvgl/src/widgets/slider/../bar/../../core/lv_obj_style_gen.h **** {
 370:Lib/lvgl/src/widgets/slider/../bar/../../core/lv_obj_style_gen.h ****     lv_style_value_t v = lv_obj_get_style_prop(obj, part, LV_STYLE_OUTLINE_PAD);
 371:Lib/lvgl/src/widgets/slider/../bar/../../core/lv_obj_style_gen.h ****     return (int32_t)v.num;
 372:Lib/lvgl/src/widgets/slider/../bar/../../core/lv_obj_style_gen.h **** }
 373:Lib/lvgl/src/widgets/slider/../bar/../../core/lv_obj_style_gen.h **** 
 374:Lib/lvgl/src/widgets/slider/../bar/../../core/lv_obj_style_gen.h **** static inline int32_t lv_obj_get_style_shadow_width(const lv_obj_t * obj, uint32_t part)
 375:Lib/lvgl/src/widgets/slider/../bar/../../core/lv_obj_style_gen.h **** {
 376:Lib/lvgl/src/widgets/slider/../bar/../../core/lv_obj_style_gen.h ****     lv_style_value_t v = lv_obj_get_style_prop(obj, part, LV_STYLE_SHADOW_WIDTH);
 377:Lib/lvgl/src/widgets/slider/../bar/../../core/lv_obj_style_gen.h ****     return (int32_t)v.num;
 378:Lib/lvgl/src/widgets/slider/../bar/../../core/lv_obj_style_gen.h **** }
 379:Lib/lvgl/src/widgets/slider/../bar/../../core/lv_obj_style_gen.h **** 
 380:Lib/lvgl/src/widgets/slider/../bar/../../core/lv_obj_style_gen.h **** static inline int32_t lv_obj_get_style_shadow_offset_x(const lv_obj_t * obj, uint32_t part)
 381:Lib/lvgl/src/widgets/slider/../bar/../../core/lv_obj_style_gen.h **** {
 382:Lib/lvgl/src/widgets/slider/../bar/../../core/lv_obj_style_gen.h ****     lv_style_value_t v = lv_obj_get_style_prop(obj, part, LV_STYLE_SHADOW_OFFSET_X);
 383:Lib/lvgl/src/widgets/slider/../bar/../../core/lv_obj_style_gen.h ****     return (int32_t)v.num;
 384:Lib/lvgl/src/widgets/slider/../bar/../../core/lv_obj_style_gen.h **** }
 385:Lib/lvgl/src/widgets/slider/../bar/../../core/lv_obj_style_gen.h **** 
 386:Lib/lvgl/src/widgets/slider/../bar/../../core/lv_obj_style_gen.h **** static inline int32_t lv_obj_get_style_shadow_offset_y(const lv_obj_t * obj, uint32_t part)
 387:Lib/lvgl/src/widgets/slider/../bar/../../core/lv_obj_style_gen.h **** {
 388:Lib/lvgl/src/widgets/slider/../bar/../../core/lv_obj_style_gen.h ****     lv_style_value_t v = lv_obj_get_style_prop(obj, part, LV_STYLE_SHADOW_OFFSET_Y);
ARM GAS  C:\Users\Alex\AppData\Local\Temp\cc5XGeRL.s 			page 27


 389:Lib/lvgl/src/widgets/slider/../bar/../../core/lv_obj_style_gen.h ****     return (int32_t)v.num;
 390:Lib/lvgl/src/widgets/slider/../bar/../../core/lv_obj_style_gen.h **** }
 391:Lib/lvgl/src/widgets/slider/../bar/../../core/lv_obj_style_gen.h **** 
 392:Lib/lvgl/src/widgets/slider/../bar/../../core/lv_obj_style_gen.h **** static inline int32_t lv_obj_get_style_shadow_spread(const lv_obj_t * obj, uint32_t part)
 393:Lib/lvgl/src/widgets/slider/../bar/../../core/lv_obj_style_gen.h **** {
 394:Lib/lvgl/src/widgets/slider/../bar/../../core/lv_obj_style_gen.h ****     lv_style_value_t v = lv_obj_get_style_prop(obj, part, LV_STYLE_SHADOW_SPREAD);
 395:Lib/lvgl/src/widgets/slider/../bar/../../core/lv_obj_style_gen.h ****     return (int32_t)v.num;
 396:Lib/lvgl/src/widgets/slider/../bar/../../core/lv_obj_style_gen.h **** }
 397:Lib/lvgl/src/widgets/slider/../bar/../../core/lv_obj_style_gen.h **** 
 398:Lib/lvgl/src/widgets/slider/../bar/../../core/lv_obj_style_gen.h **** static inline lv_color_t lv_obj_get_style_shadow_color(const lv_obj_t * obj, uint32_t part)
 399:Lib/lvgl/src/widgets/slider/../bar/../../core/lv_obj_style_gen.h **** {
 400:Lib/lvgl/src/widgets/slider/../bar/../../core/lv_obj_style_gen.h ****     lv_style_value_t v = lv_obj_get_style_prop(obj, part, LV_STYLE_SHADOW_COLOR);
 401:Lib/lvgl/src/widgets/slider/../bar/../../core/lv_obj_style_gen.h ****     return v.color;
 402:Lib/lvgl/src/widgets/slider/../bar/../../core/lv_obj_style_gen.h **** }
 403:Lib/lvgl/src/widgets/slider/../bar/../../core/lv_obj_style_gen.h **** 
 404:Lib/lvgl/src/widgets/slider/../bar/../../core/lv_obj_style_gen.h **** static inline lv_color_t lv_obj_get_style_shadow_color_filtered(const lv_obj_t * obj, uint32_t part
 405:Lib/lvgl/src/widgets/slider/../bar/../../core/lv_obj_style_gen.h **** {
 406:Lib/lvgl/src/widgets/slider/../bar/../../core/lv_obj_style_gen.h ****     lv_style_value_t v = _lv_obj_style_apply_color_filter(obj, part, lv_obj_get_style_prop(obj, par
 407:Lib/lvgl/src/widgets/slider/../bar/../../core/lv_obj_style_gen.h ****                                                                                            LV_STYLE
 408:Lib/lvgl/src/widgets/slider/../bar/../../core/lv_obj_style_gen.h ****     return v.color;
 409:Lib/lvgl/src/widgets/slider/../bar/../../core/lv_obj_style_gen.h **** }
 410:Lib/lvgl/src/widgets/slider/../bar/../../core/lv_obj_style_gen.h **** 
 411:Lib/lvgl/src/widgets/slider/../bar/../../core/lv_obj_style_gen.h **** static inline lv_opa_t lv_obj_get_style_shadow_opa(const lv_obj_t * obj, uint32_t part)
 412:Lib/lvgl/src/widgets/slider/../bar/../../core/lv_obj_style_gen.h **** {
 413:Lib/lvgl/src/widgets/slider/../bar/../../core/lv_obj_style_gen.h ****     lv_style_value_t v = lv_obj_get_style_prop(obj, part, LV_STYLE_SHADOW_OPA);
 414:Lib/lvgl/src/widgets/slider/../bar/../../core/lv_obj_style_gen.h ****     return (lv_opa_t)v.num;
 415:Lib/lvgl/src/widgets/slider/../bar/../../core/lv_obj_style_gen.h **** }
 416:Lib/lvgl/src/widgets/slider/../bar/../../core/lv_obj_style_gen.h **** 
 417:Lib/lvgl/src/widgets/slider/../bar/../../core/lv_obj_style_gen.h **** static inline lv_opa_t lv_obj_get_style_image_opa(const lv_obj_t * obj, uint32_t part)
 418:Lib/lvgl/src/widgets/slider/../bar/../../core/lv_obj_style_gen.h **** {
 419:Lib/lvgl/src/widgets/slider/../bar/../../core/lv_obj_style_gen.h ****     lv_style_value_t v = lv_obj_get_style_prop(obj, part, LV_STYLE_IMAGE_OPA);
 420:Lib/lvgl/src/widgets/slider/../bar/../../core/lv_obj_style_gen.h ****     return (lv_opa_t)v.num;
 421:Lib/lvgl/src/widgets/slider/../bar/../../core/lv_obj_style_gen.h **** }
 422:Lib/lvgl/src/widgets/slider/../bar/../../core/lv_obj_style_gen.h **** 
 423:Lib/lvgl/src/widgets/slider/../bar/../../core/lv_obj_style_gen.h **** static inline lv_color_t lv_obj_get_style_image_recolor(const lv_obj_t * obj, uint32_t part)
 424:Lib/lvgl/src/widgets/slider/../bar/../../core/lv_obj_style_gen.h **** {
 425:Lib/lvgl/src/widgets/slider/../bar/../../core/lv_obj_style_gen.h ****     lv_style_value_t v = lv_obj_get_style_prop(obj, part, LV_STYLE_IMAGE_RECOLOR);
 426:Lib/lvgl/src/widgets/slider/../bar/../../core/lv_obj_style_gen.h ****     return v.color;
 427:Lib/lvgl/src/widgets/slider/../bar/../../core/lv_obj_style_gen.h **** }
 428:Lib/lvgl/src/widgets/slider/../bar/../../core/lv_obj_style_gen.h **** 
 429:Lib/lvgl/src/widgets/slider/../bar/../../core/lv_obj_style_gen.h **** static inline lv_color_t lv_obj_get_style_image_recolor_filtered(const lv_obj_t * obj, uint32_t par
 430:Lib/lvgl/src/widgets/slider/../bar/../../core/lv_obj_style_gen.h **** {
 431:Lib/lvgl/src/widgets/slider/../bar/../../core/lv_obj_style_gen.h ****     lv_style_value_t v = _lv_obj_style_apply_color_filter(obj, part, lv_obj_get_style_prop(obj, par
 432:Lib/lvgl/src/widgets/slider/../bar/../../core/lv_obj_style_gen.h ****                                                                                            LV_STYLE
 433:Lib/lvgl/src/widgets/slider/../bar/../../core/lv_obj_style_gen.h ****     return v.color;
 434:Lib/lvgl/src/widgets/slider/../bar/../../core/lv_obj_style_gen.h **** }
 435:Lib/lvgl/src/widgets/slider/../bar/../../core/lv_obj_style_gen.h **** 
 436:Lib/lvgl/src/widgets/slider/../bar/../../core/lv_obj_style_gen.h **** static inline lv_opa_t lv_obj_get_style_image_recolor_opa(const lv_obj_t * obj, uint32_t part)
 437:Lib/lvgl/src/widgets/slider/../bar/../../core/lv_obj_style_gen.h **** {
 438:Lib/lvgl/src/widgets/slider/../bar/../../core/lv_obj_style_gen.h ****     lv_style_value_t v = lv_obj_get_style_prop(obj, part, LV_STYLE_IMAGE_RECOLOR_OPA);
 439:Lib/lvgl/src/widgets/slider/../bar/../../core/lv_obj_style_gen.h ****     return (lv_opa_t)v.num;
 440:Lib/lvgl/src/widgets/slider/../bar/../../core/lv_obj_style_gen.h **** }
 441:Lib/lvgl/src/widgets/slider/../bar/../../core/lv_obj_style_gen.h **** 
 442:Lib/lvgl/src/widgets/slider/../bar/../../core/lv_obj_style_gen.h **** static inline int32_t lv_obj_get_style_line_width(const lv_obj_t * obj, uint32_t part)
 443:Lib/lvgl/src/widgets/slider/../bar/../../core/lv_obj_style_gen.h **** {
 444:Lib/lvgl/src/widgets/slider/../bar/../../core/lv_obj_style_gen.h ****     lv_style_value_t v = lv_obj_get_style_prop(obj, part, LV_STYLE_LINE_WIDTH);
 445:Lib/lvgl/src/widgets/slider/../bar/../../core/lv_obj_style_gen.h ****     return (int32_t)v.num;
ARM GAS  C:\Users\Alex\AppData\Local\Temp\cc5XGeRL.s 			page 28


 446:Lib/lvgl/src/widgets/slider/../bar/../../core/lv_obj_style_gen.h **** }
 447:Lib/lvgl/src/widgets/slider/../bar/../../core/lv_obj_style_gen.h **** 
 448:Lib/lvgl/src/widgets/slider/../bar/../../core/lv_obj_style_gen.h **** static inline int32_t lv_obj_get_style_line_dash_width(const lv_obj_t * obj, uint32_t part)
 449:Lib/lvgl/src/widgets/slider/../bar/../../core/lv_obj_style_gen.h **** {
 450:Lib/lvgl/src/widgets/slider/../bar/../../core/lv_obj_style_gen.h ****     lv_style_value_t v = lv_obj_get_style_prop(obj, part, LV_STYLE_LINE_DASH_WIDTH);
 451:Lib/lvgl/src/widgets/slider/../bar/../../core/lv_obj_style_gen.h ****     return (int32_t)v.num;
 452:Lib/lvgl/src/widgets/slider/../bar/../../core/lv_obj_style_gen.h **** }
 453:Lib/lvgl/src/widgets/slider/../bar/../../core/lv_obj_style_gen.h **** 
 454:Lib/lvgl/src/widgets/slider/../bar/../../core/lv_obj_style_gen.h **** static inline int32_t lv_obj_get_style_line_dash_gap(const lv_obj_t * obj, uint32_t part)
 455:Lib/lvgl/src/widgets/slider/../bar/../../core/lv_obj_style_gen.h **** {
 456:Lib/lvgl/src/widgets/slider/../bar/../../core/lv_obj_style_gen.h ****     lv_style_value_t v = lv_obj_get_style_prop(obj, part, LV_STYLE_LINE_DASH_GAP);
 457:Lib/lvgl/src/widgets/slider/../bar/../../core/lv_obj_style_gen.h ****     return (int32_t)v.num;
 458:Lib/lvgl/src/widgets/slider/../bar/../../core/lv_obj_style_gen.h **** }
 459:Lib/lvgl/src/widgets/slider/../bar/../../core/lv_obj_style_gen.h **** 
 460:Lib/lvgl/src/widgets/slider/../bar/../../core/lv_obj_style_gen.h **** static inline bool lv_obj_get_style_line_rounded(const lv_obj_t * obj, uint32_t part)
 461:Lib/lvgl/src/widgets/slider/../bar/../../core/lv_obj_style_gen.h **** {
 462:Lib/lvgl/src/widgets/slider/../bar/../../core/lv_obj_style_gen.h ****     lv_style_value_t v = lv_obj_get_style_prop(obj, part, LV_STYLE_LINE_ROUNDED);
 463:Lib/lvgl/src/widgets/slider/../bar/../../core/lv_obj_style_gen.h ****     return (bool)v.num;
 464:Lib/lvgl/src/widgets/slider/../bar/../../core/lv_obj_style_gen.h **** }
 465:Lib/lvgl/src/widgets/slider/../bar/../../core/lv_obj_style_gen.h **** 
 466:Lib/lvgl/src/widgets/slider/../bar/../../core/lv_obj_style_gen.h **** static inline lv_color_t lv_obj_get_style_line_color(const lv_obj_t * obj, uint32_t part)
 467:Lib/lvgl/src/widgets/slider/../bar/../../core/lv_obj_style_gen.h **** {
 468:Lib/lvgl/src/widgets/slider/../bar/../../core/lv_obj_style_gen.h ****     lv_style_value_t v = lv_obj_get_style_prop(obj, part, LV_STYLE_LINE_COLOR);
 469:Lib/lvgl/src/widgets/slider/../bar/../../core/lv_obj_style_gen.h ****     return v.color;
 470:Lib/lvgl/src/widgets/slider/../bar/../../core/lv_obj_style_gen.h **** }
 471:Lib/lvgl/src/widgets/slider/../bar/../../core/lv_obj_style_gen.h **** 
 472:Lib/lvgl/src/widgets/slider/../bar/../../core/lv_obj_style_gen.h **** static inline lv_color_t lv_obj_get_style_line_color_filtered(const lv_obj_t * obj, uint32_t part)
 473:Lib/lvgl/src/widgets/slider/../bar/../../core/lv_obj_style_gen.h **** {
 474:Lib/lvgl/src/widgets/slider/../bar/../../core/lv_obj_style_gen.h ****     lv_style_value_t v = _lv_obj_style_apply_color_filter(obj, part, lv_obj_get_style_prop(obj, par
 475:Lib/lvgl/src/widgets/slider/../bar/../../core/lv_obj_style_gen.h ****     return v.color;
 476:Lib/lvgl/src/widgets/slider/../bar/../../core/lv_obj_style_gen.h **** }
 477:Lib/lvgl/src/widgets/slider/../bar/../../core/lv_obj_style_gen.h **** 
 478:Lib/lvgl/src/widgets/slider/../bar/../../core/lv_obj_style_gen.h **** static inline lv_opa_t lv_obj_get_style_line_opa(const lv_obj_t * obj, uint32_t part)
 479:Lib/lvgl/src/widgets/slider/../bar/../../core/lv_obj_style_gen.h **** {
 480:Lib/lvgl/src/widgets/slider/../bar/../../core/lv_obj_style_gen.h ****     lv_style_value_t v = lv_obj_get_style_prop(obj, part, LV_STYLE_LINE_OPA);
 481:Lib/lvgl/src/widgets/slider/../bar/../../core/lv_obj_style_gen.h ****     return (lv_opa_t)v.num;
 482:Lib/lvgl/src/widgets/slider/../bar/../../core/lv_obj_style_gen.h **** }
 483:Lib/lvgl/src/widgets/slider/../bar/../../core/lv_obj_style_gen.h **** 
 484:Lib/lvgl/src/widgets/slider/../bar/../../core/lv_obj_style_gen.h **** static inline int32_t lv_obj_get_style_arc_width(const lv_obj_t * obj, uint32_t part)
 485:Lib/lvgl/src/widgets/slider/../bar/../../core/lv_obj_style_gen.h **** {
 486:Lib/lvgl/src/widgets/slider/../bar/../../core/lv_obj_style_gen.h ****     lv_style_value_t v = lv_obj_get_style_prop(obj, part, LV_STYLE_ARC_WIDTH);
 487:Lib/lvgl/src/widgets/slider/../bar/../../core/lv_obj_style_gen.h ****     return (int32_t)v.num;
 488:Lib/lvgl/src/widgets/slider/../bar/../../core/lv_obj_style_gen.h **** }
 489:Lib/lvgl/src/widgets/slider/../bar/../../core/lv_obj_style_gen.h **** 
 490:Lib/lvgl/src/widgets/slider/../bar/../../core/lv_obj_style_gen.h **** static inline bool lv_obj_get_style_arc_rounded(const lv_obj_t * obj, uint32_t part)
 491:Lib/lvgl/src/widgets/slider/../bar/../../core/lv_obj_style_gen.h **** {
 492:Lib/lvgl/src/widgets/slider/../bar/../../core/lv_obj_style_gen.h ****     lv_style_value_t v = lv_obj_get_style_prop(obj, part, LV_STYLE_ARC_ROUNDED);
 493:Lib/lvgl/src/widgets/slider/../bar/../../core/lv_obj_style_gen.h ****     return (bool)v.num;
 494:Lib/lvgl/src/widgets/slider/../bar/../../core/lv_obj_style_gen.h **** }
 495:Lib/lvgl/src/widgets/slider/../bar/../../core/lv_obj_style_gen.h **** 
 496:Lib/lvgl/src/widgets/slider/../bar/../../core/lv_obj_style_gen.h **** static inline lv_color_t lv_obj_get_style_arc_color(const lv_obj_t * obj, uint32_t part)
 497:Lib/lvgl/src/widgets/slider/../bar/../../core/lv_obj_style_gen.h **** {
 498:Lib/lvgl/src/widgets/slider/../bar/../../core/lv_obj_style_gen.h ****     lv_style_value_t v = lv_obj_get_style_prop(obj, part, LV_STYLE_ARC_COLOR);
 499:Lib/lvgl/src/widgets/slider/../bar/../../core/lv_obj_style_gen.h ****     return v.color;
 500:Lib/lvgl/src/widgets/slider/../bar/../../core/lv_obj_style_gen.h **** }
 501:Lib/lvgl/src/widgets/slider/../bar/../../core/lv_obj_style_gen.h **** 
 502:Lib/lvgl/src/widgets/slider/../bar/../../core/lv_obj_style_gen.h **** static inline lv_color_t lv_obj_get_style_arc_color_filtered(const lv_obj_t * obj, uint32_t part)
ARM GAS  C:\Users\Alex\AppData\Local\Temp\cc5XGeRL.s 			page 29


 503:Lib/lvgl/src/widgets/slider/../bar/../../core/lv_obj_style_gen.h **** {
 504:Lib/lvgl/src/widgets/slider/../bar/../../core/lv_obj_style_gen.h ****     lv_style_value_t v = _lv_obj_style_apply_color_filter(obj, part, lv_obj_get_style_prop(obj, par
 505:Lib/lvgl/src/widgets/slider/../bar/../../core/lv_obj_style_gen.h ****     return v.color;
 506:Lib/lvgl/src/widgets/slider/../bar/../../core/lv_obj_style_gen.h **** }
 507:Lib/lvgl/src/widgets/slider/../bar/../../core/lv_obj_style_gen.h **** 
 508:Lib/lvgl/src/widgets/slider/../bar/../../core/lv_obj_style_gen.h **** static inline lv_opa_t lv_obj_get_style_arc_opa(const lv_obj_t * obj, uint32_t part)
 509:Lib/lvgl/src/widgets/slider/../bar/../../core/lv_obj_style_gen.h **** {
 510:Lib/lvgl/src/widgets/slider/../bar/../../core/lv_obj_style_gen.h ****     lv_style_value_t v = lv_obj_get_style_prop(obj, part, LV_STYLE_ARC_OPA);
 511:Lib/lvgl/src/widgets/slider/../bar/../../core/lv_obj_style_gen.h ****     return (lv_opa_t)v.num;
 512:Lib/lvgl/src/widgets/slider/../bar/../../core/lv_obj_style_gen.h **** }
 513:Lib/lvgl/src/widgets/slider/../bar/../../core/lv_obj_style_gen.h **** 
 514:Lib/lvgl/src/widgets/slider/../bar/../../core/lv_obj_style_gen.h **** static inline const void * lv_obj_get_style_arc_image_src(const lv_obj_t * obj, uint32_t part)
 515:Lib/lvgl/src/widgets/slider/../bar/../../core/lv_obj_style_gen.h **** {
 516:Lib/lvgl/src/widgets/slider/../bar/../../core/lv_obj_style_gen.h ****     lv_style_value_t v = lv_obj_get_style_prop(obj, part, LV_STYLE_ARC_IMAGE_SRC);
 517:Lib/lvgl/src/widgets/slider/../bar/../../core/lv_obj_style_gen.h ****     return (const void *)v.ptr;
 518:Lib/lvgl/src/widgets/slider/../bar/../../core/lv_obj_style_gen.h **** }
 519:Lib/lvgl/src/widgets/slider/../bar/../../core/lv_obj_style_gen.h **** 
 520:Lib/lvgl/src/widgets/slider/../bar/../../core/lv_obj_style_gen.h **** static inline lv_color_t lv_obj_get_style_text_color(const lv_obj_t * obj, uint32_t part)
 521:Lib/lvgl/src/widgets/slider/../bar/../../core/lv_obj_style_gen.h **** {
 522:Lib/lvgl/src/widgets/slider/../bar/../../core/lv_obj_style_gen.h ****     lv_style_value_t v = lv_obj_get_style_prop(obj, part, LV_STYLE_TEXT_COLOR);
 523:Lib/lvgl/src/widgets/slider/../bar/../../core/lv_obj_style_gen.h ****     return v.color;
 524:Lib/lvgl/src/widgets/slider/../bar/../../core/lv_obj_style_gen.h **** }
 525:Lib/lvgl/src/widgets/slider/../bar/../../core/lv_obj_style_gen.h **** 
 526:Lib/lvgl/src/widgets/slider/../bar/../../core/lv_obj_style_gen.h **** static inline lv_color_t lv_obj_get_style_text_color_filtered(const lv_obj_t * obj, uint32_t part)
 527:Lib/lvgl/src/widgets/slider/../bar/../../core/lv_obj_style_gen.h **** {
 528:Lib/lvgl/src/widgets/slider/../bar/../../core/lv_obj_style_gen.h ****     lv_style_value_t v = _lv_obj_style_apply_color_filter(obj, part, lv_obj_get_style_prop(obj, par
 529:Lib/lvgl/src/widgets/slider/../bar/../../core/lv_obj_style_gen.h ****     return v.color;
 530:Lib/lvgl/src/widgets/slider/../bar/../../core/lv_obj_style_gen.h **** }
 531:Lib/lvgl/src/widgets/slider/../bar/../../core/lv_obj_style_gen.h **** 
 532:Lib/lvgl/src/widgets/slider/../bar/../../core/lv_obj_style_gen.h **** static inline lv_opa_t lv_obj_get_style_text_opa(const lv_obj_t * obj, uint32_t part)
 533:Lib/lvgl/src/widgets/slider/../bar/../../core/lv_obj_style_gen.h **** {
 534:Lib/lvgl/src/widgets/slider/../bar/../../core/lv_obj_style_gen.h ****     lv_style_value_t v = lv_obj_get_style_prop(obj, part, LV_STYLE_TEXT_OPA);
 535:Lib/lvgl/src/widgets/slider/../bar/../../core/lv_obj_style_gen.h ****     return (lv_opa_t)v.num;
 536:Lib/lvgl/src/widgets/slider/../bar/../../core/lv_obj_style_gen.h **** }
 537:Lib/lvgl/src/widgets/slider/../bar/../../core/lv_obj_style_gen.h **** 
 538:Lib/lvgl/src/widgets/slider/../bar/../../core/lv_obj_style_gen.h **** static inline const lv_font_t * lv_obj_get_style_text_font(const lv_obj_t * obj, uint32_t part)
 539:Lib/lvgl/src/widgets/slider/../bar/../../core/lv_obj_style_gen.h **** {
 540:Lib/lvgl/src/widgets/slider/../bar/../../core/lv_obj_style_gen.h ****     lv_style_value_t v = lv_obj_get_style_prop(obj, part, LV_STYLE_TEXT_FONT);
 541:Lib/lvgl/src/widgets/slider/../bar/../../core/lv_obj_style_gen.h ****     return (const lv_font_t *)v.ptr;
 542:Lib/lvgl/src/widgets/slider/../bar/../../core/lv_obj_style_gen.h **** }
 543:Lib/lvgl/src/widgets/slider/../bar/../../core/lv_obj_style_gen.h **** 
 544:Lib/lvgl/src/widgets/slider/../bar/../../core/lv_obj_style_gen.h **** static inline int32_t lv_obj_get_style_text_letter_space(const lv_obj_t * obj, uint32_t part)
 545:Lib/lvgl/src/widgets/slider/../bar/../../core/lv_obj_style_gen.h **** {
 546:Lib/lvgl/src/widgets/slider/../bar/../../core/lv_obj_style_gen.h ****     lv_style_value_t v = lv_obj_get_style_prop(obj, part, LV_STYLE_TEXT_LETTER_SPACE);
 547:Lib/lvgl/src/widgets/slider/../bar/../../core/lv_obj_style_gen.h ****     return (int32_t)v.num;
 548:Lib/lvgl/src/widgets/slider/../bar/../../core/lv_obj_style_gen.h **** }
 549:Lib/lvgl/src/widgets/slider/../bar/../../core/lv_obj_style_gen.h **** 
 550:Lib/lvgl/src/widgets/slider/../bar/../../core/lv_obj_style_gen.h **** static inline int32_t lv_obj_get_style_text_line_space(const lv_obj_t * obj, uint32_t part)
 551:Lib/lvgl/src/widgets/slider/../bar/../../core/lv_obj_style_gen.h **** {
 552:Lib/lvgl/src/widgets/slider/../bar/../../core/lv_obj_style_gen.h ****     lv_style_value_t v = lv_obj_get_style_prop(obj, part, LV_STYLE_TEXT_LINE_SPACE);
 553:Lib/lvgl/src/widgets/slider/../bar/../../core/lv_obj_style_gen.h ****     return (int32_t)v.num;
 554:Lib/lvgl/src/widgets/slider/../bar/../../core/lv_obj_style_gen.h **** }
 555:Lib/lvgl/src/widgets/slider/../bar/../../core/lv_obj_style_gen.h **** 
 556:Lib/lvgl/src/widgets/slider/../bar/../../core/lv_obj_style_gen.h **** static inline lv_text_decor_t lv_obj_get_style_text_decor(const lv_obj_t * obj, uint32_t part)
 557:Lib/lvgl/src/widgets/slider/../bar/../../core/lv_obj_style_gen.h **** {
 558:Lib/lvgl/src/widgets/slider/../bar/../../core/lv_obj_style_gen.h ****     lv_style_value_t v = lv_obj_get_style_prop(obj, part, LV_STYLE_TEXT_DECOR);
 559:Lib/lvgl/src/widgets/slider/../bar/../../core/lv_obj_style_gen.h ****     return (lv_text_decor_t)v.num;
ARM GAS  C:\Users\Alex\AppData\Local\Temp\cc5XGeRL.s 			page 30


 560:Lib/lvgl/src/widgets/slider/../bar/../../core/lv_obj_style_gen.h **** }
 561:Lib/lvgl/src/widgets/slider/../bar/../../core/lv_obj_style_gen.h **** 
 562:Lib/lvgl/src/widgets/slider/../bar/../../core/lv_obj_style_gen.h **** static inline lv_text_align_t lv_obj_get_style_text_align(const lv_obj_t * obj, uint32_t part)
 563:Lib/lvgl/src/widgets/slider/../bar/../../core/lv_obj_style_gen.h **** {
 564:Lib/lvgl/src/widgets/slider/../bar/../../core/lv_obj_style_gen.h ****     lv_style_value_t v = lv_obj_get_style_prop(obj, part, LV_STYLE_TEXT_ALIGN);
 565:Lib/lvgl/src/widgets/slider/../bar/../../core/lv_obj_style_gen.h ****     return (lv_text_align_t)v.num;
 566:Lib/lvgl/src/widgets/slider/../bar/../../core/lv_obj_style_gen.h **** }
 567:Lib/lvgl/src/widgets/slider/../bar/../../core/lv_obj_style_gen.h **** 
 568:Lib/lvgl/src/widgets/slider/../bar/../../core/lv_obj_style_gen.h **** static inline int32_t lv_obj_get_style_radius(const lv_obj_t * obj, uint32_t part)
 569:Lib/lvgl/src/widgets/slider/../bar/../../core/lv_obj_style_gen.h **** {
 570:Lib/lvgl/src/widgets/slider/../bar/../../core/lv_obj_style_gen.h ****     lv_style_value_t v = lv_obj_get_style_prop(obj, part, LV_STYLE_RADIUS);
 571:Lib/lvgl/src/widgets/slider/../bar/../../core/lv_obj_style_gen.h ****     return (int32_t)v.num;
 572:Lib/lvgl/src/widgets/slider/../bar/../../core/lv_obj_style_gen.h **** }
 573:Lib/lvgl/src/widgets/slider/../bar/../../core/lv_obj_style_gen.h **** 
 574:Lib/lvgl/src/widgets/slider/../bar/../../core/lv_obj_style_gen.h **** static inline bool lv_obj_get_style_clip_corner(const lv_obj_t * obj, uint32_t part)
 575:Lib/lvgl/src/widgets/slider/../bar/../../core/lv_obj_style_gen.h **** {
 576:Lib/lvgl/src/widgets/slider/../bar/../../core/lv_obj_style_gen.h ****     lv_style_value_t v = lv_obj_get_style_prop(obj, part, LV_STYLE_CLIP_CORNER);
 577:Lib/lvgl/src/widgets/slider/../bar/../../core/lv_obj_style_gen.h ****     return (bool)v.num;
 578:Lib/lvgl/src/widgets/slider/../bar/../../core/lv_obj_style_gen.h **** }
 579:Lib/lvgl/src/widgets/slider/../bar/../../core/lv_obj_style_gen.h **** 
 580:Lib/lvgl/src/widgets/slider/../bar/../../core/lv_obj_style_gen.h **** static inline lv_opa_t lv_obj_get_style_opa(const lv_obj_t * obj, uint32_t part)
 581:Lib/lvgl/src/widgets/slider/../bar/../../core/lv_obj_style_gen.h **** {
 582:Lib/lvgl/src/widgets/slider/../bar/../../core/lv_obj_style_gen.h ****     lv_style_value_t v = lv_obj_get_style_prop(obj, part, LV_STYLE_OPA);
 583:Lib/lvgl/src/widgets/slider/../bar/../../core/lv_obj_style_gen.h ****     return (lv_opa_t)v.num;
 584:Lib/lvgl/src/widgets/slider/../bar/../../core/lv_obj_style_gen.h **** }
 585:Lib/lvgl/src/widgets/slider/../bar/../../core/lv_obj_style_gen.h **** 
 586:Lib/lvgl/src/widgets/slider/../bar/../../core/lv_obj_style_gen.h **** static inline lv_opa_t lv_obj_get_style_opa_layered(const lv_obj_t * obj, uint32_t part)
 587:Lib/lvgl/src/widgets/slider/../bar/../../core/lv_obj_style_gen.h **** {
 588:Lib/lvgl/src/widgets/slider/../bar/../../core/lv_obj_style_gen.h ****     lv_style_value_t v = lv_obj_get_style_prop(obj, part, LV_STYLE_OPA_LAYERED);
 589:Lib/lvgl/src/widgets/slider/../bar/../../core/lv_obj_style_gen.h ****     return (lv_opa_t)v.num;
 590:Lib/lvgl/src/widgets/slider/../bar/../../core/lv_obj_style_gen.h **** }
 591:Lib/lvgl/src/widgets/slider/../bar/../../core/lv_obj_style_gen.h **** 
 592:Lib/lvgl/src/widgets/slider/../bar/../../core/lv_obj_style_gen.h **** static inline const lv_color_filter_dsc_t * lv_obj_get_style_color_filter_dsc(const lv_obj_t * obj,
 593:Lib/lvgl/src/widgets/slider/../bar/../../core/lv_obj_style_gen.h **** {
 594:Lib/lvgl/src/widgets/slider/../bar/../../core/lv_obj_style_gen.h ****     lv_style_value_t v = lv_obj_get_style_prop(obj, part, LV_STYLE_COLOR_FILTER_DSC);
 595:Lib/lvgl/src/widgets/slider/../bar/../../core/lv_obj_style_gen.h ****     return (const lv_color_filter_dsc_t *)v.ptr;
 596:Lib/lvgl/src/widgets/slider/../bar/../../core/lv_obj_style_gen.h **** }
 597:Lib/lvgl/src/widgets/slider/../bar/../../core/lv_obj_style_gen.h **** 
 598:Lib/lvgl/src/widgets/slider/../bar/../../core/lv_obj_style_gen.h **** static inline lv_opa_t lv_obj_get_style_color_filter_opa(const lv_obj_t * obj, uint32_t part)
 599:Lib/lvgl/src/widgets/slider/../bar/../../core/lv_obj_style_gen.h **** {
 600:Lib/lvgl/src/widgets/slider/../bar/../../core/lv_obj_style_gen.h ****     lv_style_value_t v = lv_obj_get_style_prop(obj, part, LV_STYLE_COLOR_FILTER_OPA);
 601:Lib/lvgl/src/widgets/slider/../bar/../../core/lv_obj_style_gen.h ****     return (lv_opa_t)v.num;
 602:Lib/lvgl/src/widgets/slider/../bar/../../core/lv_obj_style_gen.h **** }
 603:Lib/lvgl/src/widgets/slider/../bar/../../core/lv_obj_style_gen.h **** 
 604:Lib/lvgl/src/widgets/slider/../bar/../../core/lv_obj_style_gen.h **** static inline const lv_anim_t * lv_obj_get_style_anim(const lv_obj_t * obj, uint32_t part)
 605:Lib/lvgl/src/widgets/slider/../bar/../../core/lv_obj_style_gen.h **** {
 606:Lib/lvgl/src/widgets/slider/../bar/../../core/lv_obj_style_gen.h ****     lv_style_value_t v = lv_obj_get_style_prop(obj, part, LV_STYLE_ANIM);
 607:Lib/lvgl/src/widgets/slider/../bar/../../core/lv_obj_style_gen.h ****     return (const lv_anim_t *)v.ptr;
 608:Lib/lvgl/src/widgets/slider/../bar/../../core/lv_obj_style_gen.h **** }
 609:Lib/lvgl/src/widgets/slider/../bar/../../core/lv_obj_style_gen.h **** 
 610:Lib/lvgl/src/widgets/slider/../bar/../../core/lv_obj_style_gen.h **** static inline uint32_t lv_obj_get_style_anim_duration(const lv_obj_t * obj, uint32_t part)
 611:Lib/lvgl/src/widgets/slider/../bar/../../core/lv_obj_style_gen.h **** {
 612:Lib/lvgl/src/widgets/slider/../bar/../../core/lv_obj_style_gen.h ****     lv_style_value_t v = lv_obj_get_style_prop(obj, part, LV_STYLE_ANIM_DURATION);
 613:Lib/lvgl/src/widgets/slider/../bar/../../core/lv_obj_style_gen.h ****     return (uint32_t)v.num;
 614:Lib/lvgl/src/widgets/slider/../bar/../../core/lv_obj_style_gen.h **** }
 615:Lib/lvgl/src/widgets/slider/../bar/../../core/lv_obj_style_gen.h **** 
 616:Lib/lvgl/src/widgets/slider/../bar/../../core/lv_obj_style_gen.h **** static inline const lv_style_transition_dsc_t * lv_obj_get_style_transition(const lv_obj_t * obj, u
ARM GAS  C:\Users\Alex\AppData\Local\Temp\cc5XGeRL.s 			page 31


 617:Lib/lvgl/src/widgets/slider/../bar/../../core/lv_obj_style_gen.h **** {
 618:Lib/lvgl/src/widgets/slider/../bar/../../core/lv_obj_style_gen.h ****     lv_style_value_t v = lv_obj_get_style_prop(obj, part, LV_STYLE_TRANSITION);
 619:Lib/lvgl/src/widgets/slider/../bar/../../core/lv_obj_style_gen.h ****     return (const lv_style_transition_dsc_t *)v.ptr;
 620:Lib/lvgl/src/widgets/slider/../bar/../../core/lv_obj_style_gen.h **** }
 621:Lib/lvgl/src/widgets/slider/../bar/../../core/lv_obj_style_gen.h **** 
 622:Lib/lvgl/src/widgets/slider/../bar/../../core/lv_obj_style_gen.h **** static inline lv_blend_mode_t lv_obj_get_style_blend_mode(const lv_obj_t * obj, uint32_t part)
 623:Lib/lvgl/src/widgets/slider/../bar/../../core/lv_obj_style_gen.h **** {
 624:Lib/lvgl/src/widgets/slider/../bar/../../core/lv_obj_style_gen.h ****     lv_style_value_t v = lv_obj_get_style_prop(obj, part, LV_STYLE_BLEND_MODE);
 625:Lib/lvgl/src/widgets/slider/../bar/../../core/lv_obj_style_gen.h ****     return (lv_blend_mode_t)v.num;
 626:Lib/lvgl/src/widgets/slider/../bar/../../core/lv_obj_style_gen.h **** }
 627:Lib/lvgl/src/widgets/slider/../bar/../../core/lv_obj_style_gen.h **** 
 628:Lib/lvgl/src/widgets/slider/../bar/../../core/lv_obj_style_gen.h **** static inline uint16_t lv_obj_get_style_layout(const lv_obj_t * obj, uint32_t part)
 629:Lib/lvgl/src/widgets/slider/../bar/../../core/lv_obj_style_gen.h **** {
 630:Lib/lvgl/src/widgets/slider/../bar/../../core/lv_obj_style_gen.h ****     lv_style_value_t v = lv_obj_get_style_prop(obj, part, LV_STYLE_LAYOUT);
 631:Lib/lvgl/src/widgets/slider/../bar/../../core/lv_obj_style_gen.h ****     return (uint16_t)v.num;
 632:Lib/lvgl/src/widgets/slider/../bar/../../core/lv_obj_style_gen.h **** }
 633:Lib/lvgl/src/widgets/slider/../bar/../../core/lv_obj_style_gen.h **** 
 634:Lib/lvgl/src/widgets/slider/../bar/../../core/lv_obj_style_gen.h **** static inline lv_base_dir_t lv_obj_get_style_base_dir(const lv_obj_t * obj, uint32_t part)
 451              		.loc 2 634 29 view .LVU131
 452              	.LBB91:
 635:Lib/lvgl/src/widgets/slider/../bar/../../core/lv_obj_style_gen.h **** {
 636:Lib/lvgl/src/widgets/slider/../bar/../../core/lv_obj_style_gen.h ****     lv_style_value_t v = lv_obj_get_style_prop(obj, part, LV_STYLE_BASE_DIR);
 453              		.loc 2 636 5 view .LVU132
 454              		.loc 2 636 26 is_stmt 0 view .LVU133
 455 0042 2722     		movs	r2, #39
 456 0044 0021     		movs	r1, #0
 457 0046 2046     		mov	r0, r4
 458 0048 FFF7FEFF 		bl	lv_obj_get_style_prop
 459              	.LVL42:
 460 004c 0190     		str	r0, [sp, #4]
 637:Lib/lvgl/src/widgets/slider/../bar/../../core/lv_obj_style_gen.h ****     return (lv_base_dir_t)v.num;
 461              		.loc 2 637 5 is_stmt 1 view .LVU134
 462              		.loc 2 637 12 is_stmt 0 view .LVU135
 463 004e C5B2     		uxtb	r5, r0
 464              	.LVL43:
 465              		.loc 2 637 12 view .LVU136
 466              	.LBE91:
 467              	.LBE90:
 341:Lib/lvgl/src/widgets/slider/lv_slider.c ****         const bool is_reversed = slider->bar.val_reversed ^ (is_rtl && is_horizontal);
 468              		.loc 1 341 9 is_stmt 1 view .LVU137
 341:Lib/lvgl/src/widgets/slider/lv_slider.c ****         const bool is_reversed = slider->bar.val_reversed ^ (is_rtl && is_horizontal);
 469              		.loc 1 341 36 is_stmt 0 view .LVU138
 470 0050 2046     		mov	r0, r4
 471 0052 FFF7FEFF 		bl	is_slider_horizontal
 472              	.LVL44:
 342:Lib/lvgl/src/widgets/slider/lv_slider.c ****         int32_t dist_left, dist_right;
 473              		.loc 1 342 9 is_stmt 1 view .LVU139
 342:Lib/lvgl/src/widgets/slider/lv_slider.c ****         int32_t dist_left, dist_right;
 474              		.loc 1 342 45 is_stmt 0 view .LVU140
 475 0056 94F84C30 		ldrb	r3, [r4, #76]	@ zero_extendqisi2
 342:Lib/lvgl/src/widgets/slider/lv_slider.c ****         int32_t dist_left, dist_right;
 476              		.loc 1 342 69 view .LVU141
 477 005a 012D     		cmp	r5, #1
 478 005c 10D0     		beq	.L35
 479 005e 0022     		movs	r2, #0
 480              	.L14:
 481              	.LVL45:
ARM GAS  C:\Users\Alex\AppData\Local\Temp\cc5XGeRL.s 			page 32


 343:Lib/lvgl/src/widgets/slider/lv_slider.c ****         if(is_horizontal) {
 482              		.loc 1 343 9 is_stmt 1 discriminator 6 view .LVU142
 344:Lib/lvgl/src/widgets/slider/lv_slider.c ****             if((!is_reversed && p.x > slider->right_knob_area.x2) || (is_reversed && p.x < slider->
 483              		.loc 1 344 9 discriminator 6 view .LVU143
 344:Lib/lvgl/src/widgets/slider/lv_slider.c ****             if((!is_reversed && p.x > slider->right_knob_area.x2) || (is_reversed && p.x < slider->
 484              		.loc 1 344 11 is_stmt 0 discriminator 6 view .LVU144
 485 0060 0028     		cmp	r0, #0
 486 0062 5BD0     		beq	.L15
 345:Lib/lvgl/src/widgets/slider/lv_slider.c ****                 slider->value_to_set = &slider->bar.cur_value;
 487              		.loc 1 345 13 is_stmt 1 view .LVU145
 345:Lib/lvgl/src/widgets/slider/lv_slider.c ****                 slider->value_to_set = &slider->bar.cur_value;
 488              		.loc 1 345 15 is_stmt 0 view .LVU146
 489 0064 9342     		cmp	r3, r2
 490 0066 10D0     		beq	.L36
 491              	.LVL46:
 492              	.L16:
 345:Lib/lvgl/src/widgets/slider/lv_slider.c ****                 slider->value_to_set = &slider->bar.cur_value;
 493              		.loc 1 345 67 discriminator 3 view .LVU147
 494 0068 9342     		cmp	r3, r2
 495 006a 14D0     		beq	.L18
 345:Lib/lvgl/src/widgets/slider/lv_slider.c ****                 slider->value_to_set = &slider->bar.cur_value;
 496              		.loc 1 345 115 discriminator 4 view .LVU148
 497 006c D4F88410 		ldr	r1, [r4, #132]
 345:Lib/lvgl/src/widgets/slider/lv_slider.c ****                 slider->value_to_set = &slider->bar.cur_value;
 498              		.loc 1 345 83 discriminator 4 view .LVU149
 499 0070 0298     		ldr	r0, [sp, #8]
 500 0072 8842     		cmp	r0, r1
 501 0074 0FDA     		bge	.L18
 502              	.L17:
 346:Lib/lvgl/src/widgets/slider/lv_slider.c ****             }
 503              		.loc 1 346 17 is_stmt 1 view .LVU150
 346:Lib/lvgl/src/widgets/slider/lv_slider.c ****             }
 504              		.loc 1 346 40 is_stmt 0 view .LVU151
 505 0076 04F12C03 		add	r3, r4, #44
 506              	.LVL47:
 346:Lib/lvgl/src/widgets/slider/lv_slider.c ****             }
 507              		.loc 1 346 38 view .LVU152
 508 007a C4F89C30 		str	r3, [r4, #156]
 509 007e CEE7     		b	.L11
 510              	.LVL48:
 511              	.L35:
 342:Lib/lvgl/src/widgets/slider/lv_slider.c ****         int32_t dist_left, dist_right;
 512              		.loc 1 342 69 discriminator 1 view .LVU153
 513 0080 08B9     		cbnz	r0, .L31
 342:Lib/lvgl/src/widgets/slider/lv_slider.c ****         int32_t dist_left, dist_right;
 514              		.loc 1 342 69 view .LVU154
 515 0082 0022     		movs	r2, #0
 516 0084 ECE7     		b	.L14
 517              	.L31:
 518 0086 0122     		movs	r2, #1
 519 0088 EAE7     		b	.L14
 520              	.LVL49:
 521              	.L36:
 345:Lib/lvgl/src/widgets/slider/lv_slider.c ****                 slider->value_to_set = &slider->bar.cur_value;
 522              		.loc 1 345 62 discriminator 1 view .LVU155
 523 008a D4F88C10 		ldr	r1, [r4, #140]
 345:Lib/lvgl/src/widgets/slider/lv_slider.c ****                 slider->value_to_set = &slider->bar.cur_value;
ARM GAS  C:\Users\Alex\AppData\Local\Temp\cc5XGeRL.s 			page 33


 524              		.loc 1 345 30 discriminator 1 view .LVU156
 525 008e 0298     		ldr	r0, [sp, #8]
 526              	.LVL50:
 345:Lib/lvgl/src/widgets/slider/lv_slider.c ****                 slider->value_to_set = &slider->bar.cur_value;
 527              		.loc 1 345 30 discriminator 1 view .LVU157
 528 0090 8842     		cmp	r0, r1
 529 0092 F0DC     		bgt	.L17
 530 0094 E8E7     		b	.L16
 531              	.L18:
 348:Lib/lvgl/src/widgets/slider/lv_slider.c ****                 slider->value_to_set = &slider->bar.start_value;
 532              		.loc 1 348 18 is_stmt 1 view .LVU158
 348:Lib/lvgl/src/widgets/slider/lv_slider.c ****                 slider->value_to_set = &slider->bar.start_value;
 533              		.loc 1 348 20 is_stmt 0 view .LVU159
 534 0096 9342     		cmp	r3, r2
 535 0098 0AD0     		beq	.L37
 536              	.L19:
 348:Lib/lvgl/src/widgets/slider/lv_slider.c ****                 slider->value_to_set = &slider->bar.start_value;
 537              		.loc 1 348 71 discriminator 3 view .LVU160
 538 009a 9342     		cmp	r3, r2
 539 009c 0DD0     		beq	.L21
 348:Lib/lvgl/src/widgets/slider/lv_slider.c ****                 slider->value_to_set = &slider->bar.start_value;
 540              		.loc 1 348 118 discriminator 4 view .LVU161
 541 009e E36F     		ldr	r3, [r4, #124]
 542              	.LVL51:
 348:Lib/lvgl/src/widgets/slider/lv_slider.c ****                 slider->value_to_set = &slider->bar.start_value;
 543              		.loc 1 348 87 discriminator 4 view .LVU162
 544 00a0 029A     		ldr	r2, [sp, #8]
 545              	.LVL52:
 348:Lib/lvgl/src/widgets/slider/lv_slider.c ****                 slider->value_to_set = &slider->bar.start_value;
 546              		.loc 1 348 87 discriminator 4 view .LVU163
 547 00a2 9A42     		cmp	r2, r3
 548 00a4 09DD     		ble	.L21
 549              	.L20:
 349:Lib/lvgl/src/widgets/slider/lv_slider.c ****             }
 550              		.loc 1 349 17 is_stmt 1 view .LVU164
 349:Lib/lvgl/src/widgets/slider/lv_slider.c ****             }
 551              		.loc 1 349 40 is_stmt 0 view .LVU165
 552 00a6 04F13803 		add	r3, r4, #56
 349:Lib/lvgl/src/widgets/slider/lv_slider.c ****             }
 553              		.loc 1 349 38 view .LVU166
 554 00aa C4F89C30 		str	r3, [r4, #156]
 555 00ae B6E7     		b	.L11
 556              	.LVL53:
 557              	.L37:
 348:Lib/lvgl/src/widgets/slider/lv_slider.c ****                 slider->value_to_set = &slider->bar.start_value;
 558              		.loc 1 348 66 discriminator 1 view .LVU167
 559 00b0 616F     		ldr	r1, [r4, #116]
 348:Lib/lvgl/src/widgets/slider/lv_slider.c ****                 slider->value_to_set = &slider->bar.start_value;
 560              		.loc 1 348 35 discriminator 1 view .LVU168
 561 00b2 0298     		ldr	r0, [sp, #8]
 562 00b4 8842     		cmp	r0, r1
 563 00b6 F6DB     		blt	.L20
 564 00b8 EFE7     		b	.L19
 565              	.LVL54:
 566              	.L21:
 353:Lib/lvgl/src/widgets/slider/lv_slider.c ****                 dist_right = LV_ABS((slider->right_knob_area.x1 + (slider->right_knob_area.x2 - sli
 567              		.loc 1 353 17 is_stmt 1 view .LVU169
ARM GAS  C:\Users\Alex\AppData\Local\Temp\cc5XGeRL.s 			page 34


 353:Lib/lvgl/src/widgets/slider/lv_slider.c ****                 dist_right = LV_ABS((slider->right_knob_area.x1 + (slider->right_knob_area.x2 - sli
 568              		.loc 1 353 29 is_stmt 0 view .LVU170
 569 00ba 636F     		ldr	r3, [r4, #116]
 570 00bc E26F     		ldr	r2, [r4, #124]
 571 00be D21A     		subs	r2, r2, r3
 572 00c0 02EBD272 		add	r2, r2, r2, lsr #31
 573 00c4 03EB6202 		add	r2, r3, r2, asr #1
 574 00c8 0298     		ldr	r0, [sp, #8]
 575 00ca 121A     		subs	r2, r2, r0
 353:Lib/lvgl/src/widgets/slider/lv_slider.c ****                 dist_right = LV_ABS((slider->right_knob_area.x1 + (slider->right_knob_area.x2 - sli
 576              		.loc 1 353 27 view .LVU171
 577 00cc 002A     		cmp	r2, #0
 578 00ce B8BF     		it	lt
 579 00d0 5242     		rsblt	r2, r2, #0
 580              	.LVL55:
 354:Lib/lvgl/src/widgets/slider/lv_slider.c ****                 /*Use whichever one is closer*/
 581              		.loc 1 354 17 is_stmt 1 view .LVU172
 354:Lib/lvgl/src/widgets/slider/lv_slider.c ****                 /*Use whichever one is closer*/
 582              		.loc 1 354 30 is_stmt 0 view .LVU173
 583 00d2 D4F88430 		ldr	r3, [r4, #132]
 584 00d6 D4F88C10 		ldr	r1, [r4, #140]
 585 00da C91A     		subs	r1, r1, r3
 586 00dc 01EBD171 		add	r1, r1, r1, lsr #31
 587 00e0 03EB6103 		add	r3, r3, r1, asr #1
 588 00e4 1B1A     		subs	r3, r3, r0
 354:Lib/lvgl/src/widgets/slider/lv_slider.c ****                 /*Use whichever one is closer*/
 589              		.loc 1 354 28 view .LVU174
 590 00e6 002B     		cmp	r3, #0
 591 00e8 B8BF     		it	lt
 592 00ea 5B42     		rsblt	r3, r3, #0
 593              	.LVL56:
 356:Lib/lvgl/src/widgets/slider/lv_slider.c ****                     slider->value_to_set = &slider->bar.cur_value;
 594              		.loc 1 356 17 is_stmt 1 view .LVU175
 356:Lib/lvgl/src/widgets/slider/lv_slider.c ****                     slider->value_to_set = &slider->bar.cur_value;
 595              		.loc 1 356 19 is_stmt 0 view .LVU176
 596 00ec 9A42     		cmp	r2, r3
 597 00ee 0ADD     		ble	.L22
 357:Lib/lvgl/src/widgets/slider/lv_slider.c ****                     slider->left_knob_focus = 0;
 598              		.loc 1 357 21 is_stmt 1 view .LVU177
 357:Lib/lvgl/src/widgets/slider/lv_slider.c ****                     slider->left_knob_focus = 0;
 599              		.loc 1 357 44 is_stmt 0 view .LVU178
 600 00f0 04F12C03 		add	r3, r4, #44
 601              	.LVL57:
 357:Lib/lvgl/src/widgets/slider/lv_slider.c ****                     slider->left_knob_focus = 0;
 602              		.loc 1 357 42 view .LVU179
 603 00f4 C4F89C30 		str	r3, [r4, #156]
 358:Lib/lvgl/src/widgets/slider/lv_slider.c ****                 }
 604              		.loc 1 358 21 is_stmt 1 view .LVU180
 358:Lib/lvgl/src/widgets/slider/lv_slider.c ****                 }
 605              		.loc 1 358 45 is_stmt 0 view .LVU181
 606 00f8 94F8A030 		ldrb	r3, [r4, #160]	@ zero_extendqisi2
 607 00fc 6FF34103 		bfc	r3, #1, #1
 608 0100 84F8A030 		strb	r3, [r4, #160]
 609 0104 8BE7     		b	.L11
 610              	.LVL58:
 611              	.L22:
 361:Lib/lvgl/src/widgets/slider/lv_slider.c ****                     slider->left_knob_focus = 1;
ARM GAS  C:\Users\Alex\AppData\Local\Temp\cc5XGeRL.s 			page 35


 612              		.loc 1 361 21 is_stmt 1 view .LVU182
 361:Lib/lvgl/src/widgets/slider/lv_slider.c ****                     slider->left_knob_focus = 1;
 613              		.loc 1 361 44 is_stmt 0 view .LVU183
 614 0106 04F13803 		add	r3, r4, #56
 615              	.LVL59:
 361:Lib/lvgl/src/widgets/slider/lv_slider.c ****                     slider->left_knob_focus = 1;
 616              		.loc 1 361 42 view .LVU184
 617 010a C4F89C30 		str	r3, [r4, #156]
 362:Lib/lvgl/src/widgets/slider/lv_slider.c ****                 }
 618              		.loc 1 362 21 is_stmt 1 view .LVU185
 362:Lib/lvgl/src/widgets/slider/lv_slider.c ****                 }
 619              		.loc 1 362 45 is_stmt 0 view .LVU186
 620 010e 94F8A030 		ldrb	r3, [r4, #160]	@ zero_extendqisi2
 621 0112 43F00203 		orr	r3, r3, #2
 622 0116 84F8A030 		strb	r3, [r4, #160]
 623 011a 80E7     		b	.L11
 624              	.LVL60:
 625              	.L15:
 367:Lib/lvgl/src/widgets/slider/lv_slider.c ****                 slider->value_to_set = &slider->bar.cur_value;
 626              		.loc 1 367 13 is_stmt 1 view .LVU187
 367:Lib/lvgl/src/widgets/slider/lv_slider.c ****                 slider->value_to_set = &slider->bar.cur_value;
 627              		.loc 1 367 15 is_stmt 0 view .LVU188
 628 011c 9342     		cmp	r3, r2
 629 011e 0BD0     		beq	.L38
 630              	.LVL61:
 631              	.L23:
 367:Lib/lvgl/src/widgets/slider/lv_slider.c ****                 slider->value_to_set = &slider->bar.cur_value;
 632              		.loc 1 367 67 discriminator 3 view .LVU189
 633 0120 9342     		cmp	r3, r2
 634 0122 0FD0     		beq	.L25
 367:Lib/lvgl/src/widgets/slider/lv_slider.c ****                 slider->value_to_set = &slider->bar.cur_value;
 635              		.loc 1 367 115 discriminator 4 view .LVU190
 636 0124 D4F89010 		ldr	r1, [r4, #144]
 367:Lib/lvgl/src/widgets/slider/lv_slider.c ****                 slider->value_to_set = &slider->bar.cur_value;
 637              		.loc 1 367 83 discriminator 4 view .LVU191
 638 0128 0398     		ldr	r0, [sp, #12]
 639 012a 8842     		cmp	r0, r1
 640 012c 0ADD     		ble	.L25
 641              	.L24:
 368:Lib/lvgl/src/widgets/slider/lv_slider.c ****             }
 642              		.loc 1 368 17 is_stmt 1 view .LVU192
 368:Lib/lvgl/src/widgets/slider/lv_slider.c ****             }
 643              		.loc 1 368 40 is_stmt 0 view .LVU193
 644 012e 04F12C03 		add	r3, r4, #44
 645              	.LVL62:
 368:Lib/lvgl/src/widgets/slider/lv_slider.c ****             }
 646              		.loc 1 368 38 view .LVU194
 647 0132 C4F89C30 		str	r3, [r4, #156]
 648 0136 72E7     		b	.L11
 649              	.LVL63:
 650              	.L38:
 367:Lib/lvgl/src/widgets/slider/lv_slider.c ****                 slider->value_to_set = &slider->bar.cur_value;
 651              		.loc 1 367 62 discriminator 1 view .LVU195
 652 0138 D4F88810 		ldr	r1, [r4, #136]
 367:Lib/lvgl/src/widgets/slider/lv_slider.c ****                 slider->value_to_set = &slider->bar.cur_value;
 653              		.loc 1 367 30 discriminator 1 view .LVU196
 654 013c 0398     		ldr	r0, [sp, #12]
ARM GAS  C:\Users\Alex\AppData\Local\Temp\cc5XGeRL.s 			page 36


 655              	.LVL64:
 367:Lib/lvgl/src/widgets/slider/lv_slider.c ****                 slider->value_to_set = &slider->bar.cur_value;
 656              		.loc 1 367 30 discriminator 1 view .LVU197
 657 013e 8842     		cmp	r0, r1
 658 0140 F5DB     		blt	.L24
 659 0142 EDE7     		b	.L23
 660              	.L25:
 370:Lib/lvgl/src/widgets/slider/lv_slider.c ****                 slider->value_to_set = &slider->bar.start_value;
 661              		.loc 1 370 18 is_stmt 1 view .LVU198
 370:Lib/lvgl/src/widgets/slider/lv_slider.c ****                 slider->value_to_set = &slider->bar.start_value;
 662              		.loc 1 370 20 is_stmt 0 view .LVU199
 663 0144 9342     		cmp	r3, r2
 664 0146 0AD0     		beq	.L39
 665              	.L26:
 370:Lib/lvgl/src/widgets/slider/lv_slider.c ****                 slider->value_to_set = &slider->bar.start_value;
 666              		.loc 1 370 71 discriminator 3 view .LVU200
 667 0148 9342     		cmp	r3, r2
 668 014a 0ED0     		beq	.L28
 370:Lib/lvgl/src/widgets/slider/lv_slider.c ****                 slider->value_to_set = &slider->bar.start_value;
 669              		.loc 1 370 118 discriminator 4 view .LVU201
 670 014c A36F     		ldr	r3, [r4, #120]
 671              	.LVL65:
 370:Lib/lvgl/src/widgets/slider/lv_slider.c ****                 slider->value_to_set = &slider->bar.start_value;
 672              		.loc 1 370 87 discriminator 4 view .LVU202
 673 014e 039A     		ldr	r2, [sp, #12]
 674              	.LVL66:
 370:Lib/lvgl/src/widgets/slider/lv_slider.c ****                 slider->value_to_set = &slider->bar.start_value;
 675              		.loc 1 370 87 discriminator 4 view .LVU203
 676 0150 9A42     		cmp	r2, r3
 677 0152 0ADA     		bge	.L28
 678              	.L27:
 371:Lib/lvgl/src/widgets/slider/lv_slider.c ****             }
 679              		.loc 1 371 17 is_stmt 1 view .LVU204
 371:Lib/lvgl/src/widgets/slider/lv_slider.c ****             }
 680              		.loc 1 371 40 is_stmt 0 view .LVU205
 681 0154 04F13803 		add	r3, r4, #56
 371:Lib/lvgl/src/widgets/slider/lv_slider.c ****             }
 682              		.loc 1 371 38 view .LVU206
 683 0158 C4F89C30 		str	r3, [r4, #156]
 684 015c 5FE7     		b	.L11
 685              	.LVL67:
 686              	.L39:
 370:Lib/lvgl/src/widgets/slider/lv_slider.c ****                 slider->value_to_set = &slider->bar.start_value;
 687              		.loc 1 370 66 discriminator 1 view .LVU207
 688 015e D4F88010 		ldr	r1, [r4, #128]
 370:Lib/lvgl/src/widgets/slider/lv_slider.c ****                 slider->value_to_set = &slider->bar.start_value;
 689              		.loc 1 370 35 discriminator 1 view .LVU208
 690 0162 0398     		ldr	r0, [sp, #12]
 691 0164 8842     		cmp	r0, r1
 692 0166 F5DC     		bgt	.L27
 693 0168 EEE7     		b	.L26
 694              	.LVL68:
 695              	.L28:
 375:Lib/lvgl/src/widgets/slider/lv_slider.c ****                 dist_right = LV_ABS((slider->right_knob_area.y1 + (slider->right_knob_area.y2 - sli
 696              		.loc 1 375 17 is_stmt 1 view .LVU209
 375:Lib/lvgl/src/widgets/slider/lv_slider.c ****                 dist_right = LV_ABS((slider->right_knob_area.y1 + (slider->right_knob_area.y2 - sli
 697              		.loc 1 375 29 is_stmt 0 view .LVU210
ARM GAS  C:\Users\Alex\AppData\Local\Temp\cc5XGeRL.s 			page 37


 698 016a A36F     		ldr	r3, [r4, #120]
 699 016c D4F88020 		ldr	r2, [r4, #128]
 700 0170 D21A     		subs	r2, r2, r3
 701 0172 02EBD272 		add	r2, r2, r2, lsr #31
 702 0176 03EB6202 		add	r2, r3, r2, asr #1
 703 017a 0398     		ldr	r0, [sp, #12]
 704 017c 121A     		subs	r2, r2, r0
 375:Lib/lvgl/src/widgets/slider/lv_slider.c ****                 dist_right = LV_ABS((slider->right_knob_area.y1 + (slider->right_knob_area.y2 - sli
 705              		.loc 1 375 27 view .LVU211
 706 017e 002A     		cmp	r2, #0
 707 0180 B8BF     		it	lt
 708 0182 5242     		rsblt	r2, r2, #0
 709              	.LVL69:
 376:Lib/lvgl/src/widgets/slider/lv_slider.c **** 
 710              		.loc 1 376 17 is_stmt 1 view .LVU212
 376:Lib/lvgl/src/widgets/slider/lv_slider.c **** 
 711              		.loc 1 376 30 is_stmt 0 view .LVU213
 712 0184 D4F88830 		ldr	r3, [r4, #136]
 713 0188 D4F89010 		ldr	r1, [r4, #144]
 714 018c C91A     		subs	r1, r1, r3
 715 018e 01EBD171 		add	r1, r1, r1, lsr #31
 716 0192 03EB6103 		add	r3, r3, r1, asr #1
 717 0196 1B1A     		subs	r3, r3, r0
 376:Lib/lvgl/src/widgets/slider/lv_slider.c **** 
 718              		.loc 1 376 28 view .LVU214
 719 0198 002B     		cmp	r3, #0
 720 019a B8BF     		it	lt
 721 019c 5B42     		rsblt	r3, r3, #0
 722              	.LVL70:
 379:Lib/lvgl/src/widgets/slider/lv_slider.c ****                     slider->value_to_set = &slider->bar.cur_value;
 723              		.loc 1 379 17 is_stmt 1 view .LVU215
 379:Lib/lvgl/src/widgets/slider/lv_slider.c ****                     slider->value_to_set = &slider->bar.cur_value;
 724              		.loc 1 379 19 is_stmt 0 view .LVU216
 725 019e 9A42     		cmp	r2, r3
 726 01a0 0ADD     		ble	.L29
 380:Lib/lvgl/src/widgets/slider/lv_slider.c ****                     slider->left_knob_focus = 0;
 727              		.loc 1 380 21 is_stmt 1 view .LVU217
 380:Lib/lvgl/src/widgets/slider/lv_slider.c ****                     slider->left_knob_focus = 0;
 728              		.loc 1 380 44 is_stmt 0 view .LVU218
 729 01a2 04F12C03 		add	r3, r4, #44
 730              	.LVL71:
 380:Lib/lvgl/src/widgets/slider/lv_slider.c ****                     slider->left_knob_focus = 0;
 731              		.loc 1 380 42 view .LVU219
 732 01a6 C4F89C30 		str	r3, [r4, #156]
 381:Lib/lvgl/src/widgets/slider/lv_slider.c ****                 }
 733              		.loc 1 381 21 is_stmt 1 view .LVU220
 381:Lib/lvgl/src/widgets/slider/lv_slider.c ****                 }
 734              		.loc 1 381 45 is_stmt 0 view .LVU221
 735 01aa 94F8A030 		ldrb	r3, [r4, #160]	@ zero_extendqisi2
 736 01ae 6FF34103 		bfc	r3, #1, #1
 737 01b2 84F8A030 		strb	r3, [r4, #160]
 738 01b6 32E7     		b	.L11
 739              	.LVL72:
 740              	.L29:
 384:Lib/lvgl/src/widgets/slider/lv_slider.c ****                     slider->left_knob_focus = 1;
 741              		.loc 1 384 21 is_stmt 1 view .LVU222
 384:Lib/lvgl/src/widgets/slider/lv_slider.c ****                     slider->left_knob_focus = 1;
ARM GAS  C:\Users\Alex\AppData\Local\Temp\cc5XGeRL.s 			page 38


 742              		.loc 1 384 44 is_stmt 0 view .LVU223
 743 01b8 04F13803 		add	r3, r4, #56
 744              	.LVL73:
 384:Lib/lvgl/src/widgets/slider/lv_slider.c ****                     slider->left_knob_focus = 1;
 745              		.loc 1 384 42 view .LVU224
 746 01bc C4F89C30 		str	r3, [r4, #156]
 385:Lib/lvgl/src/widgets/slider/lv_slider.c ****                 }
 747              		.loc 1 385 21 is_stmt 1 view .LVU225
 385:Lib/lvgl/src/widgets/slider/lv_slider.c ****                 }
 748              		.loc 1 385 45 is_stmt 0 view .LVU226
 749 01c0 94F8A030 		ldrb	r3, [r4, #160]	@ zero_extendqisi2
 750 01c4 43F00203 		orr	r3, r3, #2
 751 01c8 84F8A030 		strb	r3, [r4, #160]
 752              	.LBE89:
 753              		.loc 1 390 1 view .LVU227
 754 01cc 27E7     		b	.L11
 755              		.cfi_endproc
 756              	.LFE251:
 758              		.section	.text.update_knob_pos,"ax",%progbits
 759              		.align	1
 760              		.syntax unified
 761              		.thumb
 762              		.thumb_func
 764              	update_knob_pos:
 765              	.LVL74:
 766              	.LFB252:
 391:Lib/lvgl/src/widgets/slider/lv_slider.c **** 
 392:Lib/lvgl/src/widgets/slider/lv_slider.c **** static void update_knob_pos(lv_obj_t * obj, bool check_drag)
 393:Lib/lvgl/src/widgets/slider/lv_slider.c **** {
 767              		.loc 1 393 1 is_stmt 1 view -0
 768              		.cfi_startproc
 769              		@ args = 0, pretend = 0, frame = 16
 770              		@ frame_needed = 0, uses_anonymous_args = 0
 771              		.loc 1 393 1 is_stmt 0 view .LVU229
 772 0000 2DE9F047 		push	{r4, r5, r6, r7, r8, r9, r10, lr}
 773              	.LCFI10:
 774              		.cfi_def_cfa_offset 32
 775              		.cfi_offset 4, -32
 776              		.cfi_offset 5, -28
 777              		.cfi_offset 6, -24
 778              		.cfi_offset 7, -20
 779              		.cfi_offset 8, -16
 780              		.cfi_offset 9, -12
 781              		.cfi_offset 10, -8
 782              		.cfi_offset 14, -4
 783 0004 84B0     		sub	sp, sp, #16
 784              	.LCFI11:
 785              		.cfi_def_cfa_offset 48
 786 0006 0446     		mov	r4, r0
 787 0008 0D46     		mov	r5, r1
 394:Lib/lvgl/src/widgets/slider/lv_slider.c ****     lv_slider_t * slider = (lv_slider_t *)obj;
 788              		.loc 1 394 5 is_stmt 1 view .LVU230
 789              	.LVL75:
 395:Lib/lvgl/src/widgets/slider/lv_slider.c ****     lv_indev_t * indev = lv_indev_active();
 790              		.loc 1 395 5 view .LVU231
 791              		.loc 1 395 26 is_stmt 0 view .LVU232
 792 000a FFF7FEFF 		bl	lv_indev_active
ARM GAS  C:\Users\Alex\AppData\Local\Temp\cc5XGeRL.s 			page 39


 793              	.LVL76:
 794              		.loc 1 395 26 view .LVU233
 795 000e 0646     		mov	r6, r0
 796              	.LVL77:
 396:Lib/lvgl/src/widgets/slider/lv_slider.c ****     if(lv_indev_get_type(indev) != LV_INDEV_TYPE_POINTER)
 797              		.loc 1 396 5 is_stmt 1 view .LVU234
 798              		.loc 1 396 8 is_stmt 0 view .LVU235
 799 0010 FFF7FEFF 		bl	lv_indev_get_type
 800              	.LVL78:
 801              		.loc 1 396 7 view .LVU236
 802 0014 0128     		cmp	r0, #1
 803 0016 02D0     		beq	.L62
 804              	.LVL79:
 805              	.L40:
 397:Lib/lvgl/src/widgets/slider/lv_slider.c ****         return;
 398:Lib/lvgl/src/widgets/slider/lv_slider.c ****     if(lv_indev_get_scroll_obj(indev) != NULL)
 399:Lib/lvgl/src/widgets/slider/lv_slider.c ****         return;
 400:Lib/lvgl/src/widgets/slider/lv_slider.c **** 
 401:Lib/lvgl/src/widgets/slider/lv_slider.c ****     lv_point_t p;
 402:Lib/lvgl/src/widgets/slider/lv_slider.c ****     lv_indev_get_point(indev, &p);
 403:Lib/lvgl/src/widgets/slider/lv_slider.c ****     lv_obj_transform_point(obj, &p, true, true);
 404:Lib/lvgl/src/widgets/slider/lv_slider.c **** 
 405:Lib/lvgl/src/widgets/slider/lv_slider.c ****     bool is_hor = is_slider_horizontal(obj);
 406:Lib/lvgl/src/widgets/slider/lv_slider.c **** 
 407:Lib/lvgl/src/widgets/slider/lv_slider.c ****     if(check_drag && !slider->dragging) {
 408:Lib/lvgl/src/widgets/slider/lv_slider.c ****         int32_t ofs = is_hor ? (p.x - slider->pressed_point.x) : (p.y - slider->pressed_point.y);
 409:Lib/lvgl/src/widgets/slider/lv_slider.c **** 
 410:Lib/lvgl/src/widgets/slider/lv_slider.c ****         /*Stop processing when offset is below scroll_limit*/
 411:Lib/lvgl/src/widgets/slider/lv_slider.c ****         if(LV_ABS(ofs) < indev->scroll_limit) {
 412:Lib/lvgl/src/widgets/slider/lv_slider.c ****             return;
 413:Lib/lvgl/src/widgets/slider/lv_slider.c ****         }
 414:Lib/lvgl/src/widgets/slider/lv_slider.c ****     }
 415:Lib/lvgl/src/widgets/slider/lv_slider.c **** 
 416:Lib/lvgl/src/widgets/slider/lv_slider.c ****     if(!slider->value_to_set) {
 417:Lib/lvgl/src/widgets/slider/lv_slider.c ****         /*Ready to start drag*/
 418:Lib/lvgl/src/widgets/slider/lv_slider.c ****         drag_start(obj);
 419:Lib/lvgl/src/widgets/slider/lv_slider.c ****     }
 420:Lib/lvgl/src/widgets/slider/lv_slider.c **** 
 421:Lib/lvgl/src/widgets/slider/lv_slider.c ****     int32_t new_value = 0;
 422:Lib/lvgl/src/widgets/slider/lv_slider.c ****     const int32_t range = slider->bar.max_value - slider->bar.min_value;
 423:Lib/lvgl/src/widgets/slider/lv_slider.c ****     const bool is_rtl = LV_BASE_DIR_RTL == lv_obj_get_style_base_dir(obj, LV_PART_MAIN);
 424:Lib/lvgl/src/widgets/slider/lv_slider.c ****     const bool is_horizontal = is_slider_horizontal(obj);
 425:Lib/lvgl/src/widgets/slider/lv_slider.c ****     const bool is_reversed = slider->bar.val_reversed ^ (is_rtl && is_horizontal);
 426:Lib/lvgl/src/widgets/slider/lv_slider.c **** 
 427:Lib/lvgl/src/widgets/slider/lv_slider.c ****     if(is_hor) {
 428:Lib/lvgl/src/widgets/slider/lv_slider.c ****         const int32_t bg_left = lv_obj_get_style_pad_left(obj, LV_PART_MAIN);
 429:Lib/lvgl/src/widgets/slider/lv_slider.c ****         const int32_t bg_right = lv_obj_get_style_pad_right(obj, LV_PART_MAIN);
 430:Lib/lvgl/src/widgets/slider/lv_slider.c ****         const int32_t w = lv_obj_get_width(obj);
 431:Lib/lvgl/src/widgets/slider/lv_slider.c ****         const int32_t indic_w = w - bg_left - bg_right;
 432:Lib/lvgl/src/widgets/slider/lv_slider.c **** 
 433:Lib/lvgl/src/widgets/slider/lv_slider.c ****         if(is_reversed) {
 434:Lib/lvgl/src/widgets/slider/lv_slider.c ****             /*Make the point relative to the indicator*/
 435:Lib/lvgl/src/widgets/slider/lv_slider.c ****             new_value = (obj->coords.x2 - bg_right) - p.x;
 436:Lib/lvgl/src/widgets/slider/lv_slider.c ****         }
 437:Lib/lvgl/src/widgets/slider/lv_slider.c ****         else {
 438:Lib/lvgl/src/widgets/slider/lv_slider.c ****             /*Make the point relative to the indicator*/
 439:Lib/lvgl/src/widgets/slider/lv_slider.c ****             new_value = p.x - (obj->coords.x1 + bg_left);
ARM GAS  C:\Users\Alex\AppData\Local\Temp\cc5XGeRL.s 			page 40


 440:Lib/lvgl/src/widgets/slider/lv_slider.c ****         }
 441:Lib/lvgl/src/widgets/slider/lv_slider.c ****         if(indic_w) {
 442:Lib/lvgl/src/widgets/slider/lv_slider.c ****             new_value = (new_value * range + indic_w / 2) / indic_w;
 443:Lib/lvgl/src/widgets/slider/lv_slider.c ****             new_value += slider->bar.min_value;
 444:Lib/lvgl/src/widgets/slider/lv_slider.c ****         }
 445:Lib/lvgl/src/widgets/slider/lv_slider.c ****     }
 446:Lib/lvgl/src/widgets/slider/lv_slider.c ****     else {
 447:Lib/lvgl/src/widgets/slider/lv_slider.c ****         const int32_t bg_top = lv_obj_get_style_pad_top(obj, LV_PART_MAIN);
 448:Lib/lvgl/src/widgets/slider/lv_slider.c ****         const int32_t bg_bottom = lv_obj_get_style_pad_bottom(obj, LV_PART_MAIN);
 449:Lib/lvgl/src/widgets/slider/lv_slider.c ****         const int32_t h = lv_obj_get_height(obj);
 450:Lib/lvgl/src/widgets/slider/lv_slider.c ****         const int32_t indic_h = h - bg_bottom - bg_top;
 451:Lib/lvgl/src/widgets/slider/lv_slider.c **** 
 452:Lib/lvgl/src/widgets/slider/lv_slider.c ****         if(is_reversed) {
 453:Lib/lvgl/src/widgets/slider/lv_slider.c ****             /*Make the point relative to the indicator*/
 454:Lib/lvgl/src/widgets/slider/lv_slider.c ****             new_value = p.y - (obj->coords.y1 + bg_top);
 455:Lib/lvgl/src/widgets/slider/lv_slider.c ****         }
 456:Lib/lvgl/src/widgets/slider/lv_slider.c ****         else {
 457:Lib/lvgl/src/widgets/slider/lv_slider.c ****             /*Make the point relative to the indicator*/
 458:Lib/lvgl/src/widgets/slider/lv_slider.c ****             new_value = p.y - (obj->coords.y2 + bg_bottom);
 459:Lib/lvgl/src/widgets/slider/lv_slider.c ****             new_value = -new_value;
 460:Lib/lvgl/src/widgets/slider/lv_slider.c ****         }
 461:Lib/lvgl/src/widgets/slider/lv_slider.c ****         new_value = (new_value * range + indic_h / 2) / indic_h;
 462:Lib/lvgl/src/widgets/slider/lv_slider.c ****         new_value += slider->bar.min_value;
 463:Lib/lvgl/src/widgets/slider/lv_slider.c ****     }
 464:Lib/lvgl/src/widgets/slider/lv_slider.c **** 
 465:Lib/lvgl/src/widgets/slider/lv_slider.c ****     int32_t real_max_value = slider->bar.max_value;
 466:Lib/lvgl/src/widgets/slider/lv_slider.c ****     int32_t real_min_value = slider->bar.min_value;
 467:Lib/lvgl/src/widgets/slider/lv_slider.c ****     /*Figure out the min. and max. for this mode*/
 468:Lib/lvgl/src/widgets/slider/lv_slider.c ****     if(slider->value_to_set == &slider->bar.start_value) {
 469:Lib/lvgl/src/widgets/slider/lv_slider.c ****         real_max_value = slider->bar.cur_value;
 470:Lib/lvgl/src/widgets/slider/lv_slider.c ****     }
 471:Lib/lvgl/src/widgets/slider/lv_slider.c ****     else {
 472:Lib/lvgl/src/widgets/slider/lv_slider.c ****         real_min_value = slider->bar.start_value;
 473:Lib/lvgl/src/widgets/slider/lv_slider.c ****     }
 474:Lib/lvgl/src/widgets/slider/lv_slider.c **** 
 475:Lib/lvgl/src/widgets/slider/lv_slider.c ****     new_value = LV_CLAMP(real_min_value, new_value, real_max_value);
 476:Lib/lvgl/src/widgets/slider/lv_slider.c ****     if(*slider->value_to_set != new_value) {
 477:Lib/lvgl/src/widgets/slider/lv_slider.c ****         *slider->value_to_set = new_value;
 478:Lib/lvgl/src/widgets/slider/lv_slider.c ****         if(is_hor)
 479:Lib/lvgl/src/widgets/slider/lv_slider.c ****             lv_obj_remove_flag(obj, LV_OBJ_FLAG_SCROLL_CHAIN_VER);
 480:Lib/lvgl/src/widgets/slider/lv_slider.c ****         else
 481:Lib/lvgl/src/widgets/slider/lv_slider.c ****             lv_obj_remove_flag(obj, LV_OBJ_FLAG_SCROLL_CHAIN_HOR);
 482:Lib/lvgl/src/widgets/slider/lv_slider.c **** 
 483:Lib/lvgl/src/widgets/slider/lv_slider.c ****         lv_obj_invalidate(obj);
 484:Lib/lvgl/src/widgets/slider/lv_slider.c ****         lv_result_t res = lv_obj_send_event(obj, LV_EVENT_VALUE_CHANGED, NULL);
 485:Lib/lvgl/src/widgets/slider/lv_slider.c ****         if(res != LV_RESULT_OK)
 486:Lib/lvgl/src/widgets/slider/lv_slider.c ****             return;
 487:Lib/lvgl/src/widgets/slider/lv_slider.c ****     }
 488:Lib/lvgl/src/widgets/slider/lv_slider.c **** }
 806              		.loc 1 488 1 view .LVU237
 807 0018 04B0     		add	sp, sp, #16
 808              	.LCFI12:
 809              		.cfi_remember_state
 810              		.cfi_def_cfa_offset 32
 811              		@ sp needed
 812 001a BDE8F087 		pop	{r4, r5, r6, r7, r8, r9, r10, pc}
 813              	.LVL80:
ARM GAS  C:\Users\Alex\AppData\Local\Temp\cc5XGeRL.s 			page 41


 814              	.L62:
 815              	.LCFI13:
 816              		.cfi_restore_state
 398:Lib/lvgl/src/widgets/slider/lv_slider.c ****         return;
 817              		.loc 1 398 5 is_stmt 1 view .LVU238
 398:Lib/lvgl/src/widgets/slider/lv_slider.c ****         return;
 818              		.loc 1 398 8 is_stmt 0 view .LVU239
 819 001e 3046     		mov	r0, r6
 820 0020 FFF7FEFF 		bl	lv_indev_get_scroll_obj
 821              	.LVL81:
 398:Lib/lvgl/src/widgets/slider/lv_slider.c ****         return;
 822              		.loc 1 398 7 view .LVU240
 823 0024 0028     		cmp	r0, #0
 824 0026 F7D1     		bne	.L40
 401:Lib/lvgl/src/widgets/slider/lv_slider.c ****     lv_indev_get_point(indev, &p);
 825              		.loc 1 401 5 is_stmt 1 view .LVU241
 402:Lib/lvgl/src/widgets/slider/lv_slider.c ****     lv_obj_transform_point(obj, &p, true, true);
 826              		.loc 1 402 5 view .LVU242
 827 0028 02A9     		add	r1, sp, #8
 828 002a 3046     		mov	r0, r6
 829 002c FFF7FEFF 		bl	lv_indev_get_point
 830              	.LVL82:
 403:Lib/lvgl/src/widgets/slider/lv_slider.c **** 
 831              		.loc 1 403 5 view .LVU243
 832 0030 0123     		movs	r3, #1
 833 0032 1A46     		mov	r2, r3
 834 0034 02A9     		add	r1, sp, #8
 835 0036 2046     		mov	r0, r4
 836 0038 FFF7FEFF 		bl	lv_obj_transform_point
 837              	.LVL83:
 405:Lib/lvgl/src/widgets/slider/lv_slider.c **** 
 838              		.loc 1 405 5 view .LVU244
 405:Lib/lvgl/src/widgets/slider/lv_slider.c **** 
 839              		.loc 1 405 19 is_stmt 0 view .LVU245
 840 003c 2046     		mov	r0, r4
 841 003e FFF7FEFF 		bl	is_slider_horizontal
 842              	.LVL84:
 843 0042 0746     		mov	r7, r0
 844              	.LVL85:
 407:Lib/lvgl/src/widgets/slider/lv_slider.c ****         int32_t ofs = is_hor ? (p.x - slider->pressed_point.x) : (p.y - slider->pressed_point.y);
 845              		.loc 1 407 5 is_stmt 1 view .LVU246
 407:Lib/lvgl/src/widgets/slider/lv_slider.c ****         int32_t ofs = is_hor ? (p.x - slider->pressed_point.x) : (p.y - slider->pressed_point.y);
 846              		.loc 1 407 7 is_stmt 0 view .LVU247
 847 0044 8DB1     		cbz	r5, .L42
 407:Lib/lvgl/src/widgets/slider/lv_slider.c ****         int32_t ofs = is_hor ? (p.x - slider->pressed_point.x) : (p.y - slider->pressed_point.y);
 848              		.loc 1 407 22 discriminator 1 view .LVU248
 849 0046 94F8A030 		ldrb	r3, [r4, #160]	@ zero_extendqisi2
 407:Lib/lvgl/src/widgets/slider/lv_slider.c ****         int32_t ofs = is_hor ? (p.x - slider->pressed_point.x) : (p.y - slider->pressed_point.y);
 850              		.loc 1 407 19 discriminator 1 view .LVU249
 851 004a 13F0010F 		tst	r3, #1
 852 004e 0CD1     		bne	.L42
 853              	.LBB92:
 408:Lib/lvgl/src/widgets/slider/lv_slider.c **** 
 854              		.loc 1 408 9 is_stmt 1 view .LVU250
 408:Lib/lvgl/src/widgets/slider/lv_slider.c **** 
 855              		.loc 1 408 64 is_stmt 0 view .LVU251
 856 0050 0028     		cmp	r0, #0
ARM GAS  C:\Users\Alex\AppData\Local\Temp\cc5XGeRL.s 			page 42


 857 0052 49D0     		beq	.L43
 408:Lib/lvgl/src/widgets/slider/lv_slider.c **** 
 858              		.loc 1 408 60 discriminator 1 view .LVU252
 859 0054 D4F89420 		ldr	r2, [r4, #148]
 408:Lib/lvgl/src/widgets/slider/lv_slider.c **** 
 860              		.loc 1 408 64 discriminator 1 view .LVU253
 861 0058 029B     		ldr	r3, [sp, #8]
 862 005a 9B1A     		subs	r3, r3, r2
 863              	.L44:
 864              	.LVL86:
 411:Lib/lvgl/src/widgets/slider/lv_slider.c ****             return;
 865              		.loc 1 411 9 is_stmt 1 discriminator 4 view .LVU254
 411:Lib/lvgl/src/widgets/slider/lv_slider.c ****             return;
 866              		.loc 1 411 12 is_stmt 0 discriminator 4 view .LVU255
 867 005c 002B     		cmp	r3, #0
 868 005e B8BF     		it	lt
 869 0060 5B42     		rsblt	r3, r3, #0
 870              	.LVL87:
 411:Lib/lvgl/src/widgets/slider/lv_slider.c ****             return;
 871              		.loc 1 411 31 discriminator 4 view .LVU256
 872 0062 96F82420 		ldrb	r2, [r6, #36]	@ zero_extendqisi2
 411:Lib/lvgl/src/widgets/slider/lv_slider.c ****             return;
 873              		.loc 1 411 11 discriminator 4 view .LVU257
 874 0066 9342     		cmp	r3, r2
 875 0068 D6DB     		blt	.L40
 876              	.LVL88:
 877              	.L42:
 411:Lib/lvgl/src/widgets/slider/lv_slider.c ****             return;
 878              		.loc 1 411 11 discriminator 4 view .LVU258
 879              	.LBE92:
 416:Lib/lvgl/src/widgets/slider/lv_slider.c ****         /*Ready to start drag*/
 880              		.loc 1 416 5 is_stmt 1 view .LVU259
 416:Lib/lvgl/src/widgets/slider/lv_slider.c ****         /*Ready to start drag*/
 881              		.loc 1 416 15 is_stmt 0 view .LVU260
 882 006a D4F89C30 		ldr	r3, [r4, #156]
 416:Lib/lvgl/src/widgets/slider/lv_slider.c ****         /*Ready to start drag*/
 883              		.loc 1 416 7 view .LVU261
 884 006e 002B     		cmp	r3, #0
 885 0070 3FD0     		beq	.L63
 886              	.LVL89:
 887              	.L45:
 421:Lib/lvgl/src/widgets/slider/lv_slider.c ****     const int32_t range = slider->bar.max_value - slider->bar.min_value;
 888              		.loc 1 421 5 is_stmt 1 view .LVU262
 422:Lib/lvgl/src/widgets/slider/lv_slider.c ****     const bool is_rtl = LV_BASE_DIR_RTL == lv_obj_get_style_base_dir(obj, LV_PART_MAIN);
 889              		.loc 1 422 5 view .LVU263
 422:Lib/lvgl/src/widgets/slider/lv_slider.c ****     const bool is_rtl = LV_BASE_DIR_RTL == lv_obj_get_style_base_dir(obj, LV_PART_MAIN);
 890              		.loc 1 422 38 is_stmt 0 view .LVU264
 891 0072 656B     		ldr	r5, [r4, #52]
 422:Lib/lvgl/src/widgets/slider/lv_slider.c ****     const bool is_rtl = LV_BASE_DIR_RTL == lv_obj_get_style_base_dir(obj, LV_PART_MAIN);
 892              		.loc 1 422 62 view .LVU265
 893 0074 236B     		ldr	r3, [r4, #48]
 422:Lib/lvgl/src/widgets/slider/lv_slider.c ****     const bool is_rtl = LV_BASE_DIR_RTL == lv_obj_get_style_base_dir(obj, LV_PART_MAIN);
 894              		.loc 1 422 19 view .LVU266
 895 0076 ED1A     		subs	r5, r5, r3
 896              	.LVL90:
 423:Lib/lvgl/src/widgets/slider/lv_slider.c ****     const bool is_horizontal = is_slider_horizontal(obj);
 897              		.loc 1 423 5 is_stmt 1 view .LVU267
ARM GAS  C:\Users\Alex\AppData\Local\Temp\cc5XGeRL.s 			page 43


 898              	.LBB93:
 899              	.LBI93:
 634:Lib/lvgl/src/widgets/slider/../bar/../../core/lv_obj_style_gen.h **** {
 900              		.loc 2 634 29 view .LVU268
 901              	.LBB94:
 636:Lib/lvgl/src/widgets/slider/../bar/../../core/lv_obj_style_gen.h ****     return (lv_base_dir_t)v.num;
 902              		.loc 2 636 5 view .LVU269
 636:Lib/lvgl/src/widgets/slider/../bar/../../core/lv_obj_style_gen.h ****     return (lv_base_dir_t)v.num;
 903              		.loc 2 636 26 is_stmt 0 view .LVU270
 904 0078 2722     		movs	r2, #39
 905 007a 0021     		movs	r1, #0
 906 007c 2046     		mov	r0, r4
 907 007e FFF7FEFF 		bl	lv_obj_get_style_prop
 908              	.LVL91:
 909 0082 0190     		str	r0, [sp, #4]
 910              		.loc 2 637 5 is_stmt 1 view .LVU271
 911              		.loc 2 637 12 is_stmt 0 view .LVU272
 912 0084 C6B2     		uxtb	r6, r0
 913              	.LVL92:
 914              		.loc 2 637 12 view .LVU273
 915              	.LBE94:
 916              	.LBE93:
 424:Lib/lvgl/src/widgets/slider/lv_slider.c ****     const bool is_reversed = slider->bar.val_reversed ^ (is_rtl && is_horizontal);
 917              		.loc 1 424 5 is_stmt 1 view .LVU274
 424:Lib/lvgl/src/widgets/slider/lv_slider.c ****     const bool is_reversed = slider->bar.val_reversed ^ (is_rtl && is_horizontal);
 918              		.loc 1 424 32 is_stmt 0 view .LVU275
 919 0086 2046     		mov	r0, r4
 920 0088 FFF7FEFF 		bl	is_slider_horizontal
 921              	.LVL93:
 425:Lib/lvgl/src/widgets/slider/lv_slider.c **** 
 922              		.loc 1 425 5 is_stmt 1 view .LVU276
 425:Lib/lvgl/src/widgets/slider/lv_slider.c **** 
 923              		.loc 1 425 41 is_stmt 0 view .LVU277
 924 008c 94F84C80 		ldrb	r8, [r4, #76]	@ zero_extendqisi2
 425:Lib/lvgl/src/widgets/slider/lv_slider.c **** 
 925              		.loc 1 425 65 view .LVU278
 926 0090 012E     		cmp	r6, #1
 927 0092 32D0     		beq	.L64
 928 0094 4FF00009 		mov	r9, #0
 929              	.L46:
 930              	.LVL94:
 427:Lib/lvgl/src/widgets/slider/lv_slider.c ****         const int32_t bg_left = lv_obj_get_style_pad_left(obj, LV_PART_MAIN);
 931              		.loc 1 427 5 is_stmt 1 discriminator 6 view .LVU279
 427:Lib/lvgl/src/widgets/slider/lv_slider.c ****         const int32_t bg_left = lv_obj_get_style_pad_left(obj, LV_PART_MAIN);
 932              		.loc 1 427 7 is_stmt 0 discriminator 6 view .LVU280
 933 0098 002F     		cmp	r7, #0
 934 009a 3BD0     		beq	.L47
 935              	.LBB95:
 428:Lib/lvgl/src/widgets/slider/lv_slider.c ****         const int32_t bg_right = lv_obj_get_style_pad_right(obj, LV_PART_MAIN);
 936              		.loc 1 428 9 is_stmt 1 view .LVU281
 937              	.LVL95:
 938              	.LBB96:
 939              	.LBI96:
 154:Lib/lvgl/src/widgets/slider/../bar/../../core/lv_obj_style_gen.h **** {
 940              		.loc 2 154 23 view .LVU282
 941              	.LBB97:
 156:Lib/lvgl/src/widgets/slider/../bar/../../core/lv_obj_style_gen.h ****     return (int32_t)v.num;
ARM GAS  C:\Users\Alex\AppData\Local\Temp\cc5XGeRL.s 			page 44


 942              		.loc 2 156 5 view .LVU283
 156:Lib/lvgl/src/widgets/slider/../bar/../../core/lv_obj_style_gen.h ****     return (int32_t)v.num;
 943              		.loc 2 156 26 is_stmt 0 view .LVU284
 944 009c 1222     		movs	r2, #18
 945 009e 0021     		movs	r1, #0
 946 00a0 2046     		mov	r0, r4
 947              	.LVL96:
 156:Lib/lvgl/src/widgets/slider/../bar/../../core/lv_obj_style_gen.h ****     return (int32_t)v.num;
 948              		.loc 2 156 26 view .LVU285
 949 00a2 FFF7FEFF 		bl	lv_obj_get_style_prop
 950              	.LVL97:
 951 00a6 8246     		mov	r10, r0
 952 00a8 0190     		str	r0, [sp, #4]
 157:Lib/lvgl/src/widgets/slider/../bar/../../core/lv_obj_style_gen.h **** }
 953              		.loc 2 157 5 is_stmt 1 view .LVU286
 954              	.LVL98:
 157:Lib/lvgl/src/widgets/slider/../bar/../../core/lv_obj_style_gen.h **** }
 955              		.loc 2 157 5 is_stmt 0 view .LVU287
 956              	.LBE97:
 957              	.LBE96:
 429:Lib/lvgl/src/widgets/slider/lv_slider.c ****         const int32_t w = lv_obj_get_width(obj);
 958              		.loc 1 429 9 is_stmt 1 view .LVU288
 959              	.LBB98:
 960              	.LBI98:
 160:Lib/lvgl/src/widgets/slider/../bar/../../core/lv_obj_style_gen.h **** {
 961              		.loc 2 160 23 view .LVU289
 962              	.LBB99:
 162:Lib/lvgl/src/widgets/slider/../bar/../../core/lv_obj_style_gen.h ****     return (int32_t)v.num;
 963              		.loc 2 162 5 view .LVU290
 162:Lib/lvgl/src/widgets/slider/../bar/../../core/lv_obj_style_gen.h ****     return (int32_t)v.num;
 964              		.loc 2 162 26 is_stmt 0 view .LVU291
 965 00aa 1322     		movs	r2, #19
 966 00ac 0021     		movs	r1, #0
 967 00ae 2046     		mov	r0, r4
 968              	.LVL99:
 162:Lib/lvgl/src/widgets/slider/../bar/../../core/lv_obj_style_gen.h ****     return (int32_t)v.num;
 969              		.loc 2 162 26 view .LVU292
 970 00b0 FFF7FEFF 		bl	lv_obj_get_style_prop
 971              	.LVL100:
 972 00b4 0646     		mov	r6, r0
 973              	.LVL101:
 162:Lib/lvgl/src/widgets/slider/../bar/../../core/lv_obj_style_gen.h ****     return (int32_t)v.num;
 974              		.loc 2 162 26 view .LVU293
 975 00b6 0190     		str	r0, [sp, #4]
 163:Lib/lvgl/src/widgets/slider/../bar/../../core/lv_obj_style_gen.h **** }
 976              		.loc 2 163 5 is_stmt 1 view .LVU294
 977              	.LVL102:
 163:Lib/lvgl/src/widgets/slider/../bar/../../core/lv_obj_style_gen.h **** }
 978              		.loc 2 163 5 is_stmt 0 view .LVU295
 979              	.LBE99:
 980              	.LBE98:
 430:Lib/lvgl/src/widgets/slider/lv_slider.c ****         const int32_t indic_w = w - bg_left - bg_right;
 981              		.loc 1 430 9 is_stmt 1 view .LVU296
 430:Lib/lvgl/src/widgets/slider/lv_slider.c ****         const int32_t indic_w = w - bg_left - bg_right;
 982              		.loc 1 430 27 is_stmt 0 view .LVU297
 983 00b8 2046     		mov	r0, r4
 984              	.LVL103:
ARM GAS  C:\Users\Alex\AppData\Local\Temp\cc5XGeRL.s 			page 45


 430:Lib/lvgl/src/widgets/slider/lv_slider.c ****         const int32_t indic_w = w - bg_left - bg_right;
 985              		.loc 1 430 27 view .LVU298
 986 00ba FFF7FEFF 		bl	lv_obj_get_width
 987              	.LVL104:
 431:Lib/lvgl/src/widgets/slider/lv_slider.c **** 
 988              		.loc 1 431 9 is_stmt 1 view .LVU299
 431:Lib/lvgl/src/widgets/slider/lv_slider.c **** 
 989              		.loc 1 431 35 is_stmt 0 view .LVU300
 990 00be A0EB0A02 		sub	r2, r0, r10
 431:Lib/lvgl/src/widgets/slider/lv_slider.c **** 
 991              		.loc 1 431 23 view .LVU301
 992 00c2 921B     		subs	r2, r2, r6
 993              	.LVL105:
 433:Lib/lvgl/src/widgets/slider/lv_slider.c ****             /*Make the point relative to the indicator*/
 994              		.loc 1 433 9 is_stmt 1 view .LVU302
 433:Lib/lvgl/src/widgets/slider/lv_slider.c ****             /*Make the point relative to the indicator*/
 995              		.loc 1 433 11 is_stmt 0 view .LVU303
 996 00c4 C845     		cmp	r8, r9
 997 00c6 1FD0     		beq	.L48
 435:Lib/lvgl/src/widgets/slider/lv_slider.c ****         }
 998              		.loc 1 435 13 is_stmt 1 view .LVU304
 435:Lib/lvgl/src/widgets/slider/lv_slider.c ****         }
 999              		.loc 1 435 37 is_stmt 0 view .LVU305
 1000 00c8 E369     		ldr	r3, [r4, #28]
 435:Lib/lvgl/src/widgets/slider/lv_slider.c ****         }
 1001              		.loc 1 435 41 view .LVU306
 1002 00ca 9B1B     		subs	r3, r3, r6
 435:Lib/lvgl/src/widgets/slider/lv_slider.c ****         }
 1003              		.loc 1 435 56 view .LVU307
 1004 00cc 0299     		ldr	r1, [sp, #8]
 435:Lib/lvgl/src/widgets/slider/lv_slider.c ****         }
 1005              		.loc 1 435 23 view .LVU308
 1006 00ce 5B1A     		subs	r3, r3, r1
 1007              	.LVL106:
 1008              	.L49:
 441:Lib/lvgl/src/widgets/slider/lv_slider.c ****             new_value = (new_value * range + indic_w / 2) / indic_w;
 1009              		.loc 1 441 9 is_stmt 1 view .LVU309
 441:Lib/lvgl/src/widgets/slider/lv_slider.c ****             new_value = (new_value * range + indic_w / 2) / indic_w;
 1010              		.loc 1 441 11 is_stmt 0 view .LVU310
 1011 00d0 002A     		cmp	r2, #0
 1012 00d2 42D0     		beq	.L50
 442:Lib/lvgl/src/widgets/slider/lv_slider.c ****             new_value += slider->bar.min_value;
 1013              		.loc 1 442 13 is_stmt 1 view .LVU311
 442:Lib/lvgl/src/widgets/slider/lv_slider.c ****             new_value += slider->bar.min_value;
 1014              		.loc 1 442 54 is_stmt 0 view .LVU312
 1015 00d4 02EBD271 		add	r1, r2, r2, lsr #31
 1016 00d8 4910     		asrs	r1, r1, #1
 442:Lib/lvgl/src/widgets/slider/lv_slider.c ****             new_value += slider->bar.min_value;
 1017              		.loc 1 442 44 view .LVU313
 1018 00da 05FB0313 		mla	r3, r5, r3, r1
 1019              	.LVL107:
 442:Lib/lvgl/src/widgets/slider/lv_slider.c ****             new_value += slider->bar.min_value;
 1020              		.loc 1 442 23 view .LVU314
 1021 00de 93FBF2F2 		sdiv	r2, r3, r2
 1022              	.LVL108:
 443:Lib/lvgl/src/widgets/slider/lv_slider.c ****         }
 1023              		.loc 1 443 13 is_stmt 1 view .LVU315
ARM GAS  C:\Users\Alex\AppData\Local\Temp\cc5XGeRL.s 			page 46


 443:Lib/lvgl/src/widgets/slider/lv_slider.c ****         }
 1024              		.loc 1 443 37 is_stmt 0 view .LVU316
 1025 00e2 236B     		ldr	r3, [r4, #48]
 443:Lib/lvgl/src/widgets/slider/lv_slider.c ****         }
 1026              		.loc 1 443 23 view .LVU317
 1027 00e4 1344     		add	r3, r3, r2
 1028              	.LVL109:
 443:Lib/lvgl/src/widgets/slider/lv_slider.c ****         }
 1029              		.loc 1 443 23 view .LVU318
 1030 00e6 38E0     		b	.L50
 1031              	.LVL110:
 1032              	.L43:
 443:Lib/lvgl/src/widgets/slider/lv_slider.c ****         }
 1033              		.loc 1 443 23 view .LVU319
 1034              	.LBE95:
 1035              	.LBB100:
 408:Lib/lvgl/src/widgets/slider/lv_slider.c **** 
 1036              		.loc 1 408 94 discriminator 2 view .LVU320
 1037 00e8 D4F89820 		ldr	r2, [r4, #152]
 408:Lib/lvgl/src/widgets/slider/lv_slider.c **** 
 1038              		.loc 1 408 64 discriminator 2 view .LVU321
 1039 00ec 039B     		ldr	r3, [sp, #12]
 1040 00ee 9B1A     		subs	r3, r3, r2
 1041 00f0 B4E7     		b	.L44
 1042              	.L63:
 408:Lib/lvgl/src/widgets/slider/lv_slider.c **** 
 1043              		.loc 1 408 64 discriminator 2 view .LVU322
 1044              	.LBE100:
 418:Lib/lvgl/src/widgets/slider/lv_slider.c ****     }
 1045              		.loc 1 418 9 is_stmt 1 view .LVU323
 1046 00f2 2046     		mov	r0, r4
 1047              	.LVL111:
 418:Lib/lvgl/src/widgets/slider/lv_slider.c ****     }
 1048              		.loc 1 418 9 is_stmt 0 view .LVU324
 1049 00f4 FFF7FEFF 		bl	drag_start
 1050              	.LVL112:
 1051 00f8 BBE7     		b	.L45
 1052              	.LVL113:
 1053              	.L64:
 425:Lib/lvgl/src/widgets/slider/lv_slider.c **** 
 1054              		.loc 1 425 65 discriminator 1 view .LVU325
 1055 00fa 10B9     		cbnz	r0, .L60
 425:Lib/lvgl/src/widgets/slider/lv_slider.c **** 
 1056              		.loc 1 425 65 view .LVU326
 1057 00fc 4FF00009 		mov	r9, #0
 1058 0100 CAE7     		b	.L46
 1059              	.L60:
 1060 0102 4FF00109 		mov	r9, #1
 1061 0106 C7E7     		b	.L46
 1062              	.LVL114:
 1063              	.L48:
 1064              	.LBB101:
 439:Lib/lvgl/src/widgets/slider/lv_slider.c ****         }
 1065              		.loc 1 439 13 is_stmt 1 view .LVU327
 439:Lib/lvgl/src/widgets/slider/lv_slider.c ****         }
 1066              		.loc 1 439 43 is_stmt 0 view .LVU328
 1067 0108 6369     		ldr	r3, [r4, #20]
ARM GAS  C:\Users\Alex\AppData\Local\Temp\cc5XGeRL.s 			page 47


 439:Lib/lvgl/src/widgets/slider/lv_slider.c ****         }
 1068              		.loc 1 439 47 view .LVU329
 1069 010a 03EB0A01 		add	r1, r3, r10
 439:Lib/lvgl/src/widgets/slider/lv_slider.c ****         }
 1070              		.loc 1 439 23 view .LVU330
 1071 010e 029B     		ldr	r3, [sp, #8]
 1072 0110 5B1A     		subs	r3, r3, r1
 1073              	.LVL115:
 439:Lib/lvgl/src/widgets/slider/lv_slider.c ****         }
 1074              		.loc 1 439 23 view .LVU331
 1075 0112 DDE7     		b	.L49
 1076              	.LVL116:
 1077              	.L47:
 439:Lib/lvgl/src/widgets/slider/lv_slider.c ****         }
 1078              		.loc 1 439 23 view .LVU332
 1079              	.LBE101:
 1080              	.LBB102:
 447:Lib/lvgl/src/widgets/slider/lv_slider.c ****         const int32_t bg_bottom = lv_obj_get_style_pad_bottom(obj, LV_PART_MAIN);
 1081              		.loc 1 447 9 is_stmt 1 view .LVU333
 1082              	.LBB103:
 1083              	.LBI103:
 142:Lib/lvgl/src/widgets/slider/../bar/../../core/lv_obj_style_gen.h **** {
 1084              		.loc 2 142 23 view .LVU334
 1085              	.LBB104:
 144:Lib/lvgl/src/widgets/slider/../bar/../../core/lv_obj_style_gen.h ****     return (int32_t)v.num;
 1086              		.loc 2 144 5 view .LVU335
 144:Lib/lvgl/src/widgets/slider/../bar/../../core/lv_obj_style_gen.h ****     return (int32_t)v.num;
 1087              		.loc 2 144 26 is_stmt 0 view .LVU336
 1088 0114 1022     		movs	r2, #16
 1089 0116 0021     		movs	r1, #0
 1090 0118 2046     		mov	r0, r4
 1091              	.LVL117:
 144:Lib/lvgl/src/widgets/slider/../bar/../../core/lv_obj_style_gen.h ****     return (int32_t)v.num;
 1092              		.loc 2 144 26 view .LVU337
 1093 011a FFF7FEFF 		bl	lv_obj_get_style_prop
 1094              	.LVL118:
 1095 011e 0646     		mov	r6, r0
 1096              	.LVL119:
 144:Lib/lvgl/src/widgets/slider/../bar/../../core/lv_obj_style_gen.h ****     return (int32_t)v.num;
 1097              		.loc 2 144 26 view .LVU338
 1098 0120 0190     		str	r0, [sp, #4]
 145:Lib/lvgl/src/widgets/slider/../bar/../../core/lv_obj_style_gen.h **** }
 1099              		.loc 2 145 5 is_stmt 1 view .LVU339
 1100              	.LVL120:
 145:Lib/lvgl/src/widgets/slider/../bar/../../core/lv_obj_style_gen.h **** }
 1101              		.loc 2 145 5 is_stmt 0 view .LVU340
 1102              	.LBE104:
 1103              	.LBE103:
 448:Lib/lvgl/src/widgets/slider/lv_slider.c ****         const int32_t h = lv_obj_get_height(obj);
 1104              		.loc 1 448 9 is_stmt 1 view .LVU341
 1105              	.LBB105:
 1106              	.LBI105:
 148:Lib/lvgl/src/widgets/slider/../bar/../../core/lv_obj_style_gen.h **** {
 1107              		.loc 2 148 23 view .LVU342
 1108              	.LBB106:
 150:Lib/lvgl/src/widgets/slider/../bar/../../core/lv_obj_style_gen.h ****     return (int32_t)v.num;
 1109              		.loc 2 150 5 view .LVU343
ARM GAS  C:\Users\Alex\AppData\Local\Temp\cc5XGeRL.s 			page 48


 150:Lib/lvgl/src/widgets/slider/../bar/../../core/lv_obj_style_gen.h ****     return (int32_t)v.num;
 1110              		.loc 2 150 26 is_stmt 0 view .LVU344
 1111 0122 1122     		movs	r2, #17
 1112 0124 0021     		movs	r1, #0
 1113 0126 2046     		mov	r0, r4
 1114              	.LVL121:
 150:Lib/lvgl/src/widgets/slider/../bar/../../core/lv_obj_style_gen.h ****     return (int32_t)v.num;
 1115              		.loc 2 150 26 view .LVU345
 1116 0128 FFF7FEFF 		bl	lv_obj_get_style_prop
 1117              	.LVL122:
 1118 012c 8246     		mov	r10, r0
 1119 012e 0190     		str	r0, [sp, #4]
 151:Lib/lvgl/src/widgets/slider/../bar/../../core/lv_obj_style_gen.h **** }
 1120              		.loc 2 151 5 is_stmt 1 view .LVU346
 1121              	.LVL123:
 151:Lib/lvgl/src/widgets/slider/../bar/../../core/lv_obj_style_gen.h **** }
 1122              		.loc 2 151 5 is_stmt 0 view .LVU347
 1123              	.LBE106:
 1124              	.LBE105:
 449:Lib/lvgl/src/widgets/slider/lv_slider.c ****         const int32_t indic_h = h - bg_bottom - bg_top;
 1125              		.loc 1 449 9 is_stmt 1 view .LVU348
 449:Lib/lvgl/src/widgets/slider/lv_slider.c ****         const int32_t indic_h = h - bg_bottom - bg_top;
 1126              		.loc 1 449 27 is_stmt 0 view .LVU349
 1127 0130 2046     		mov	r0, r4
 1128              	.LVL124:
 449:Lib/lvgl/src/widgets/slider/lv_slider.c ****         const int32_t indic_h = h - bg_bottom - bg_top;
 1129              		.loc 1 449 27 view .LVU350
 1130 0132 FFF7FEFF 		bl	lv_obj_get_height
 1131              	.LVL125:
 450:Lib/lvgl/src/widgets/slider/lv_slider.c **** 
 1132              		.loc 1 450 9 is_stmt 1 view .LVU351
 450:Lib/lvgl/src/widgets/slider/lv_slider.c **** 
 1133              		.loc 1 450 35 is_stmt 0 view .LVU352
 1134 0136 A0EB0A03 		sub	r3, r0, r10
 450:Lib/lvgl/src/widgets/slider/lv_slider.c **** 
 1135              		.loc 1 450 23 view .LVU353
 1136 013a 9B1B     		subs	r3, r3, r6
 1137              	.LVL126:
 452:Lib/lvgl/src/widgets/slider/lv_slider.c ****             /*Make the point relative to the indicator*/
 1138              		.loc 1 452 9 is_stmt 1 view .LVU354
 452:Lib/lvgl/src/widgets/slider/lv_slider.c ****             /*Make the point relative to the indicator*/
 1139              		.loc 1 452 11 is_stmt 0 view .LVU355
 1140 013c C845     		cmp	r8, r9
 1141 013e 2FD0     		beq	.L51
 454:Lib/lvgl/src/widgets/slider/lv_slider.c ****         }
 1142              		.loc 1 454 13 is_stmt 1 view .LVU356
 454:Lib/lvgl/src/widgets/slider/lv_slider.c ****         }
 1143              		.loc 1 454 43 is_stmt 0 view .LVU357
 1144 0140 A269     		ldr	r2, [r4, #24]
 454:Lib/lvgl/src/widgets/slider/lv_slider.c ****         }
 1145              		.loc 1 454 47 view .LVU358
 1146 0142 3244     		add	r2, r2, r6
 454:Lib/lvgl/src/widgets/slider/lv_slider.c ****         }
 1147              		.loc 1 454 23 view .LVU359
 1148 0144 0399     		ldr	r1, [sp, #12]
 1149 0146 891A     		subs	r1, r1, r2
 1150              	.LVL127:
ARM GAS  C:\Users\Alex\AppData\Local\Temp\cc5XGeRL.s 			page 49


 1151              	.L52:
 461:Lib/lvgl/src/widgets/slider/lv_slider.c ****         new_value += slider->bar.min_value;
 1152              		.loc 1 461 9 is_stmt 1 view .LVU360
 461:Lib/lvgl/src/widgets/slider/lv_slider.c ****         new_value += slider->bar.min_value;
 1153              		.loc 1 461 50 is_stmt 0 view .LVU361
 1154 0148 03EBD372 		add	r2, r3, r3, lsr #31
 1155 014c 5210     		asrs	r2, r2, #1
 461:Lib/lvgl/src/widgets/slider/lv_slider.c ****         new_value += slider->bar.min_value;
 1156              		.loc 1 461 40 view .LVU362
 1157 014e 05FB0122 		mla	r2, r5, r1, r2
 461:Lib/lvgl/src/widgets/slider/lv_slider.c ****         new_value += slider->bar.min_value;
 1158              		.loc 1 461 19 view .LVU363
 1159 0152 92FBF3F2 		sdiv	r2, r2, r3
 1160              	.LVL128:
 462:Lib/lvgl/src/widgets/slider/lv_slider.c ****     }
 1161              		.loc 1 462 9 is_stmt 1 view .LVU364
 462:Lib/lvgl/src/widgets/slider/lv_slider.c ****     }
 1162              		.loc 1 462 33 is_stmt 0 view .LVU365
 1163 0156 236B     		ldr	r3, [r4, #48]
 1164              	.LVL129:
 462:Lib/lvgl/src/widgets/slider/lv_slider.c ****     }
 1165              		.loc 1 462 19 view .LVU366
 1166 0158 1344     		add	r3, r3, r2
 1167              	.LVL130:
 1168              	.L50:
 462:Lib/lvgl/src/widgets/slider/lv_slider.c ****     }
 1169              		.loc 1 462 19 view .LVU367
 1170              	.LBE102:
 465:Lib/lvgl/src/widgets/slider/lv_slider.c ****     int32_t real_min_value = slider->bar.min_value;
 1171              		.loc 1 465 5 is_stmt 1 view .LVU368
 465:Lib/lvgl/src/widgets/slider/lv_slider.c ****     int32_t real_min_value = slider->bar.min_value;
 1172              		.loc 1 465 13 is_stmt 0 view .LVU369
 1173 015a 606B     		ldr	r0, [r4, #52]
 1174              	.LVL131:
 466:Lib/lvgl/src/widgets/slider/lv_slider.c ****     /*Figure out the min. and max. for this mode*/
 1175              		.loc 1 466 5 is_stmt 1 view .LVU370
 466:Lib/lvgl/src/widgets/slider/lv_slider.c ****     /*Figure out the min. and max. for this mode*/
 1176              		.loc 1 466 13 is_stmt 0 view .LVU371
 1177 015c 216B     		ldr	r1, [r4, #48]
 1178              	.LVL132:
 468:Lib/lvgl/src/widgets/slider/lv_slider.c ****         real_max_value = slider->bar.cur_value;
 1179              		.loc 1 468 5 is_stmt 1 view .LVU372
 468:Lib/lvgl/src/widgets/slider/lv_slider.c ****         real_max_value = slider->bar.cur_value;
 1180              		.loc 1 468 14 is_stmt 0 view .LVU373
 1181 015e D4F89C20 		ldr	r2, [r4, #156]
 468:Lib/lvgl/src/widgets/slider/lv_slider.c ****         real_max_value = slider->bar.cur_value;
 1182              		.loc 1 468 32 view .LVU374
 1183 0162 04F13805 		add	r5, r4, #56
 1184              	.LVL133:
 468:Lib/lvgl/src/widgets/slider/lv_slider.c ****         real_max_value = slider->bar.cur_value;
 1185              		.loc 1 468 7 view .LVU375
 1186 0166 AA42     		cmp	r2, r5
 1187 0168 1FD0     		beq	.L65
 472:Lib/lvgl/src/widgets/slider/lv_slider.c ****     }
 1188              		.loc 1 472 9 is_stmt 1 view .LVU376
 472:Lib/lvgl/src/widgets/slider/lv_slider.c ****     }
 1189              		.loc 1 472 24 is_stmt 0 view .LVU377
ARM GAS  C:\Users\Alex\AppData\Local\Temp\cc5XGeRL.s 			page 50


 1190 016a A16B     		ldr	r1, [r4, #56]
 1191              	.LVL134:
 1192              	.L54:
 475:Lib/lvgl/src/widgets/slider/lv_slider.c ****     if(*slider->value_to_set != new_value) {
 1193              		.loc 1 475 5 is_stmt 1 view .LVU378
 475:Lib/lvgl/src/widgets/slider/lv_slider.c ****     if(*slider->value_to_set != new_value) {
 1194              		.loc 1 475 17 is_stmt 0 view .LVU379
 1195 016c 8342     		cmp	r3, r0
 1196 016e A8BF     		it	ge
 1197 0170 0346     		movge	r3, r0
 1198              	.LVL135:
 475:Lib/lvgl/src/widgets/slider/lv_slider.c ****     if(*slider->value_to_set != new_value) {
 1199              		.loc 1 475 15 view .LVU380
 1200 0172 8B42     		cmp	r3, r1
 1201 0174 B8BF     		it	lt
 1202 0176 0B46     		movlt	r3, r1
 1203              	.LVL136:
 476:Lib/lvgl/src/widgets/slider/lv_slider.c ****         *slider->value_to_set = new_value;
 1204              		.loc 1 476 5 is_stmt 1 view .LVU381
 476:Lib/lvgl/src/widgets/slider/lv_slider.c ****         *slider->value_to_set = new_value;
 1205              		.loc 1 476 8 is_stmt 0 view .LVU382
 1206 0178 1168     		ldr	r1, [r2]
 1207              	.LVL137:
 476:Lib/lvgl/src/widgets/slider/lv_slider.c ****         *slider->value_to_set = new_value;
 1208              		.loc 1 476 7 view .LVU383
 1209 017a 9942     		cmp	r1, r3
 1210 017c 3FF44CAF 		beq	.L40
 1211              	.LBB107:
 477:Lib/lvgl/src/widgets/slider/lv_slider.c ****         if(is_hor)
 1212              		.loc 1 477 9 is_stmt 1 view .LVU384
 477:Lib/lvgl/src/widgets/slider/lv_slider.c ****         if(is_hor)
 1213              		.loc 1 477 31 is_stmt 0 view .LVU385
 1214 0180 1360     		str	r3, [r2]
 478:Lib/lvgl/src/widgets/slider/lv_slider.c ****             lv_obj_remove_flag(obj, LV_OBJ_FLAG_SCROLL_CHAIN_VER);
 1215              		.loc 1 478 9 is_stmt 1 view .LVU386
 478:Lib/lvgl/src/widgets/slider/lv_slider.c ****             lv_obj_remove_flag(obj, LV_OBJ_FLAG_SCROLL_CHAIN_VER);
 1216              		.loc 1 478 11 is_stmt 0 view .LVU387
 1217 0182 A7B1     		cbz	r7, .L56
 479:Lib/lvgl/src/widgets/slider/lv_slider.c ****         else
 1218              		.loc 1 479 13 is_stmt 1 view .LVU388
 1219 0184 4FF40071 		mov	r1, #512
 1220 0188 2046     		mov	r0, r4
 1221              	.LVL138:
 479:Lib/lvgl/src/widgets/slider/lv_slider.c ****         else
 1222              		.loc 1 479 13 is_stmt 0 view .LVU389
 1223 018a FFF7FEFF 		bl	lv_obj_remove_flag
 1224              	.LVL139:
 1225              	.L57:
 483:Lib/lvgl/src/widgets/slider/lv_slider.c ****         lv_result_t res = lv_obj_send_event(obj, LV_EVENT_VALUE_CHANGED, NULL);
 1226              		.loc 1 483 9 is_stmt 1 view .LVU390
 1227 018e 2046     		mov	r0, r4
 1228 0190 FFF7FEFF 		bl	lv_obj_invalidate
 1229              	.LVL140:
 484:Lib/lvgl/src/widgets/slider/lv_slider.c ****         if(res != LV_RESULT_OK)
 1230              		.loc 1 484 9 view .LVU391
 484:Lib/lvgl/src/widgets/slider/lv_slider.c ****         if(res != LV_RESULT_OK)
 1231              		.loc 1 484 27 is_stmt 0 view .LVU392
ARM GAS  C:\Users\Alex\AppData\Local\Temp\cc5XGeRL.s 			page 51


 1232 0194 0022     		movs	r2, #0
 1233 0196 1D21     		movs	r1, #29
 1234 0198 2046     		mov	r0, r4
 1235 019a FFF7FEFF 		bl	lv_obj_send_event
 1236              	.LVL141:
 485:Lib/lvgl/src/widgets/slider/lv_slider.c ****             return;
 1237              		.loc 1 485 9 is_stmt 1 view .LVU393
 1238 019e 3BE7     		b	.L40
 1239              	.LVL142:
 1240              	.L51:
 485:Lib/lvgl/src/widgets/slider/lv_slider.c ****             return;
 1241              		.loc 1 485 9 is_stmt 0 view .LVU394
 1242              	.LBE107:
 1243              	.LBB108:
 458:Lib/lvgl/src/widgets/slider/lv_slider.c ****             new_value = -new_value;
 1244              		.loc 1 458 13 is_stmt 1 view .LVU395
 458:Lib/lvgl/src/widgets/slider/lv_slider.c ****             new_value = -new_value;
 1245              		.loc 1 458 43 is_stmt 0 view .LVU396
 1246 01a0 226A     		ldr	r2, [r4, #32]
 458:Lib/lvgl/src/widgets/slider/lv_slider.c ****             new_value = -new_value;
 1247              		.loc 1 458 47 view .LVU397
 1248 01a2 5244     		add	r2, r2, r10
 1249              	.LVL143:
 459:Lib/lvgl/src/widgets/slider/lv_slider.c ****         }
 1250              		.loc 1 459 13 is_stmt 1 view .LVU398
 459:Lib/lvgl/src/widgets/slider/lv_slider.c ****         }
 1251              		.loc 1 459 23 is_stmt 0 view .LVU399
 1252 01a4 0399     		ldr	r1, [sp, #12]
 1253 01a6 511A     		subs	r1, r2, r1
 1254              	.LVL144:
 459:Lib/lvgl/src/widgets/slider/lv_slider.c ****         }
 1255              		.loc 1 459 23 view .LVU400
 1256 01a8 CEE7     		b	.L52
 1257              	.LVL145:
 1258              	.L65:
 459:Lib/lvgl/src/widgets/slider/lv_slider.c ****         }
 1259              		.loc 1 459 23 view .LVU401
 1260              	.LBE108:
 469:Lib/lvgl/src/widgets/slider/lv_slider.c ****     }
 1261              		.loc 1 469 9 is_stmt 1 view .LVU402
 469:Lib/lvgl/src/widgets/slider/lv_slider.c ****     }
 1262              		.loc 1 469 24 is_stmt 0 view .LVU403
 1263 01aa E06A     		ldr	r0, [r4, #44]
 1264              	.LVL146:
 469:Lib/lvgl/src/widgets/slider/lv_slider.c ****     }
 1265              		.loc 1 469 24 view .LVU404
 1266 01ac DEE7     		b	.L54
 1267              	.LVL147:
 1268              	.L56:
 1269              	.LBB109:
 481:Lib/lvgl/src/widgets/slider/lv_slider.c **** 
 1270              		.loc 1 481 13 is_stmt 1 view .LVU405
 1271 01ae 4FF48071 		mov	r1, #256
 1272 01b2 2046     		mov	r0, r4
 1273              	.LVL148:
 481:Lib/lvgl/src/widgets/slider/lv_slider.c **** 
 1274              		.loc 1 481 13 is_stmt 0 view .LVU406
ARM GAS  C:\Users\Alex\AppData\Local\Temp\cc5XGeRL.s 			page 52


 1275 01b4 FFF7FEFF 		bl	lv_obj_remove_flag
 1276              	.LVL149:
 481:Lib/lvgl/src/widgets/slider/lv_slider.c **** 
 1277              		.loc 1 481 13 view .LVU407
 1278 01b8 E9E7     		b	.L57
 1279              	.LBE109:
 1280              		.cfi_endproc
 1281              	.LFE252:
 1283              		.section	.text.draw_knob,"ax",%progbits
 1284              		.align	1
 1285              		.syntax unified
 1286              		.thumb
 1287              		.thumb_func
 1289              	draw_knob:
 1290              	.LVL150:
 1291              	.LFB248:
 233:Lib/lvgl/src/widgets/slider/lv_slider.c ****     lv_obj_t * obj = lv_event_get_current_target(e);
 1292              		.loc 1 233 1 is_stmt 1 view -0
 1293              		.cfi_startproc
 1294              		@ args = 0, pretend = 0, frame = 240
 1295              		@ frame_needed = 0, uses_anonymous_args = 0
 233:Lib/lvgl/src/widgets/slider/lv_slider.c ****     lv_obj_t * obj = lv_event_get_current_target(e);
 1296              		.loc 1 233 1 is_stmt 0 view .LVU409
 1297 0000 2DE9F047 		push	{r4, r5, r6, r7, r8, r9, r10, lr}
 1298              	.LCFI14:
 1299              		.cfi_def_cfa_offset 32
 1300              		.cfi_offset 4, -32
 1301              		.cfi_offset 5, -28
 1302              		.cfi_offset 6, -24
 1303              		.cfi_offset 7, -20
 1304              		.cfi_offset 8, -16
 1305              		.cfi_offset 9, -12
 1306              		.cfi_offset 10, -8
 1307              		.cfi_offset 14, -4
 1308 0004 BCB0     		sub	sp, sp, #240
 1309              	.LCFI15:
 1310              		.cfi_def_cfa_offset 272
 1311 0006 0546     		mov	r5, r0
 234:Lib/lvgl/src/widgets/slider/lv_slider.c ****     lv_slider_t * slider = (lv_slider_t *)obj;
 1312              		.loc 1 234 5 is_stmt 1 view .LVU410
 234:Lib/lvgl/src/widgets/slider/lv_slider.c ****     lv_slider_t * slider = (lv_slider_t *)obj;
 1313              		.loc 1 234 22 is_stmt 0 view .LVU411
 1314 0008 FFF7FEFF 		bl	lv_event_get_current_target
 1315              	.LVL151:
 234:Lib/lvgl/src/widgets/slider/lv_slider.c ****     lv_slider_t * slider = (lv_slider_t *)obj;
 1316              		.loc 1 234 22 view .LVU412
 1317 000c 0446     		mov	r4, r0
 1318              	.LVL152:
 235:Lib/lvgl/src/widgets/slider/lv_slider.c ****     lv_layer_t * layer = lv_event_get_layer(e);
 1319              		.loc 1 235 5 is_stmt 1 view .LVU413
 236:Lib/lvgl/src/widgets/slider/lv_slider.c **** 
 1320              		.loc 1 236 5 view .LVU414
 236:Lib/lvgl/src/widgets/slider/lv_slider.c **** 
 1321              		.loc 1 236 26 is_stmt 0 view .LVU415
 1322 000e 2846     		mov	r0, r5
 1323              	.LVL153:
 236:Lib/lvgl/src/widgets/slider/lv_slider.c **** 
ARM GAS  C:\Users\Alex\AppData\Local\Temp\cc5XGeRL.s 			page 53


 1324              		.loc 1 236 26 view .LVU416
 1325 0010 FFF7FEFF 		bl	lv_event_get_layer
 1326              	.LVL154:
 1327 0014 0746     		mov	r7, r0
 1328              	.LVL155:
 238:Lib/lvgl/src/widgets/slider/lv_slider.c ****     const bool is_horizontal = is_slider_horizontal(obj);
 1329              		.loc 1 238 5 is_stmt 1 view .LVU417
 1330              	.LBB110:
 1331              	.LBI110:
 634:Lib/lvgl/src/widgets/slider/../bar/../../core/lv_obj_style_gen.h **** {
 1332              		.loc 2 634 29 view .LVU418
 1333              	.LBB111:
 636:Lib/lvgl/src/widgets/slider/../bar/../../core/lv_obj_style_gen.h ****     return (lv_base_dir_t)v.num;
 1334              		.loc 2 636 5 view .LVU419
 636:Lib/lvgl/src/widgets/slider/../bar/../../core/lv_obj_style_gen.h ****     return (lv_base_dir_t)v.num;
 1335              		.loc 2 636 26 is_stmt 0 view .LVU420
 1336 0016 2722     		movs	r2, #39
 1337 0018 0021     		movs	r1, #0
 1338 001a 2046     		mov	r0, r4
 1339              	.LVL156:
 636:Lib/lvgl/src/widgets/slider/../bar/../../core/lv_obj_style_gen.h ****     return (lv_base_dir_t)v.num;
 1340              		.loc 2 636 26 view .LVU421
 1341 001c FFF7FEFF 		bl	lv_obj_get_style_prop
 1342              	.LVL157:
 1343 0020 0090     		str	r0, [sp]
 1344              		.loc 2 637 5 is_stmt 1 view .LVU422
 1345              		.loc 2 637 12 is_stmt 0 view .LVU423
 1346 0022 C5B2     		uxtb	r5, r0
 1347              	.LVL158:
 1348              		.loc 2 637 12 view .LVU424
 1349              	.LBE111:
 1350              	.LBE110:
 239:Lib/lvgl/src/widgets/slider/lv_slider.c ****     const bool is_reversed = slider->bar.val_reversed ^ (is_rtl && is_horizontal);
 1351              		.loc 1 239 5 is_stmt 1 view .LVU425
 239:Lib/lvgl/src/widgets/slider/lv_slider.c ****     const bool is_reversed = slider->bar.val_reversed ^ (is_rtl && is_horizontal);
 1352              		.loc 1 239 32 is_stmt 0 view .LVU426
 1353 0024 2046     		mov	r0, r4
 1354 0026 FFF7FEFF 		bl	is_slider_horizontal
 1355              	.LVL159:
 1356 002a 0646     		mov	r6, r0
 1357              	.LVL160:
 240:Lib/lvgl/src/widgets/slider/lv_slider.c **** 
 1358              		.loc 1 240 5 is_stmt 1 view .LVU427
 240:Lib/lvgl/src/widgets/slider/lv_slider.c **** 
 1359              		.loc 1 240 41 is_stmt 0 view .LVU428
 1360 002c 94F84CA0 		ldrb	r10, [r4, #76]	@ zero_extendqisi2
 240:Lib/lvgl/src/widgets/slider/lv_slider.c **** 
 1361              		.loc 1 240 65 view .LVU429
 1362 0030 012D     		cmp	r5, #1
 1363 0032 3FD0     		beq	.L91
 1364 0034 4FF00009 		mov	r9, #0
 1365              	.L67:
 1366              	.LVL161:
 242:Lib/lvgl/src/widgets/slider/lv_slider.c ****     int32_t knob_size;
 1367              		.loc 1 242 5 is_stmt 1 discriminator 6 view .LVU430
 243:Lib/lvgl/src/widgets/slider/lv_slider.c ****     bool is_symmetrical = lv_slider_is_symmetrical(obj);
 1368              		.loc 1 243 5 discriminator 6 view .LVU431
ARM GAS  C:\Users\Alex\AppData\Local\Temp\cc5XGeRL.s 			page 54


 244:Lib/lvgl/src/widgets/slider/lv_slider.c **** 
 1369              		.loc 1 244 5 discriminator 6 view .LVU432
 1370              	.LBB112:
 1371              	.LBI112:
 177:Lib/lvgl/src/widgets/slider/lv_slider.h **** 
 178:Lib/lvgl/src/widgets/slider/lv_slider.h **** /**
 179:Lib/lvgl/src/widgets/slider/lv_slider.h ****  * Give the slider is in symmetrical mode or not
 180:Lib/lvgl/src/widgets/slider/lv_slider.h ****  * @param obj       pointer to slider object
 181:Lib/lvgl/src/widgets/slider/lv_slider.h ****  * @return          true: in symmetrical mode false : not in
 182:Lib/lvgl/src/widgets/slider/lv_slider.h **** */
 183:Lib/lvgl/src/widgets/slider/lv_slider.h **** static inline bool lv_slider_is_symmetrical(lv_obj_t * obj)
 1372              		.loc 3 183 20 discriminator 6 view .LVU433
 1373              	.LBB113:
 184:Lib/lvgl/src/widgets/slider/lv_slider.h **** {
 185:Lib/lvgl/src/widgets/slider/lv_slider.h ****     return lv_bar_is_symmetrical(obj);
 1374              		.loc 3 185 5 discriminator 6 view .LVU434
 1375              		.loc 3 185 12 is_stmt 0 discriminator 6 view .LVU435
 1376 0038 2046     		mov	r0, r4
 1377              	.LVL162:
 1378              		.loc 3 185 12 discriminator 6 view .LVU436
 1379 003a FFF7FEFF 		bl	lv_bar_is_symmetrical
 1380              	.LVL163:
 1381 003e 8046     		mov	r8, r0
 1382              	.LVL164:
 1383              		.loc 3 185 12 discriminator 6 view .LVU437
 1384              	.LBE113:
 1385              	.LBE112:
 246:Lib/lvgl/src/widgets/slider/lv_slider.c ****         knob_size = lv_obj_get_height(obj);
 1386              		.loc 1 246 5 is_stmt 1 discriminator 6 view .LVU438
 246:Lib/lvgl/src/widgets/slider/lv_slider.c ****         knob_size = lv_obj_get_height(obj);
 1387              		.loc 1 246 7 is_stmt 0 discriminator 6 view .LVU439
 1388 0040 002E     		cmp	r6, #0
 1389 0042 47D0     		beq	.L68
 247:Lib/lvgl/src/widgets/slider/lv_slider.c ****         if(is_symmetrical &&
 1390              		.loc 1 247 9 is_stmt 1 view .LVU440
 247:Lib/lvgl/src/widgets/slider/lv_slider.c ****         if(is_symmetrical &&
 1391              		.loc 1 247 21 is_stmt 0 view .LVU441
 1392 0044 2046     		mov	r0, r4
 1393 0046 FFF7FEFF 		bl	lv_obj_get_height
 1394              	.LVL165:
 1395 004a 0546     		mov	r5, r0
 1396              	.LVL166:
 248:Lib/lvgl/src/widgets/slider/lv_slider.c ****            slider->bar.cur_value < 0) knob_area.x1 = LV_SLIDER_KNOB_COORD(!is_reversed, slider->bar
 1397              		.loc 1 248 9 is_stmt 1 view .LVU442
 248:Lib/lvgl/src/widgets/slider/lv_slider.c ****            slider->bar.cur_value < 0) knob_area.x1 = LV_SLIDER_KNOB_COORD(!is_reversed, slider->bar
 1398              		.loc 1 248 11 is_stmt 0 view .LVU443
 1399 004c B8F1000F 		cmp	r8, #0
 1400 0050 02D0     		beq	.L69
 249:Lib/lvgl/src/widgets/slider/lv_slider.c ****         else knob_area.x1 = LV_SLIDER_KNOB_COORD(is_reversed, slider->bar.indic_area);
 1401              		.loc 1 249 23 discriminator 1 view .LVU444
 1402 0052 E36A     		ldr	r3, [r4, #44]
 248:Lib/lvgl/src/widgets/slider/lv_slider.c ****            slider->bar.cur_value < 0) knob_area.x1 = LV_SLIDER_KNOB_COORD(!is_reversed, slider->bar
 1403              		.loc 1 248 27 discriminator 1 view .LVU445
 1404 0054 002B     		cmp	r3, #0
 1405 0056 34DB     		blt	.L92
 1406              	.L69:
 250:Lib/lvgl/src/widgets/slider/lv_slider.c ****     }
ARM GAS  C:\Users\Alex\AppData\Local\Temp\cc5XGeRL.s 			page 55


 1407              		.loc 1 250 14 is_stmt 1 view .LVU446
 250:Lib/lvgl/src/widgets/slider/lv_slider.c ****     }
 1408              		.loc 1 250 29 is_stmt 0 view .LVU447
 1409 0058 CA45     		cmp	r10, r9
 1410 005a 39D0     		beq	.L73
 250:Lib/lvgl/src/widgets/slider/lv_slider.c ****     }
 1411              		.loc 1 250 29 discriminator 1 view .LVU448
 1412 005c E36B     		ldr	r3, [r4, #60]
 1413              	.L74:
 250:Lib/lvgl/src/widgets/slider/lv_slider.c ****     }
 1414              		.loc 1 250 27 discriminator 4 view .LVU449
 1415 005e 3893     		str	r3, [sp, #224]
 1416              	.L72:
 258:Lib/lvgl/src/widgets/slider/lv_slider.c ****     lv_draw_rect_dsc_init(&knob_rect_dsc);
 1417              		.loc 1 258 5 is_stmt 1 view .LVU450
 259:Lib/lvgl/src/widgets/slider/lv_slider.c ****     lv_obj_init_draw_rect_dsc(obj, LV_PART_KNOB, &knob_rect_dsc);
 1418              		.loc 1 259 5 view .LVU451
 1419 0060 1CA8     		add	r0, sp, #112
 1420              	.LVL167:
 259:Lib/lvgl/src/widgets/slider/lv_slider.c ****     lv_obj_init_draw_rect_dsc(obj, LV_PART_KNOB, &knob_rect_dsc);
 1421              		.loc 1 259 5 is_stmt 0 view .LVU452
 1422 0062 FFF7FEFF 		bl	lv_draw_rect_dsc_init
 1423              	.LVL168:
 260:Lib/lvgl/src/widgets/slider/lv_slider.c ****     /* Update knob area with knob style */
 1424              		.loc 1 260 5 is_stmt 1 view .LVU453
 1425 0066 1CAA     		add	r2, sp, #112
 1426 0068 4FF44031 		mov	r1, #196608
 1427 006c 2046     		mov	r0, r4
 1428 006e FFF7FEFF 		bl	lv_obj_init_draw_rect_dsc
 1429              	.LVL169:
 262:Lib/lvgl/src/widgets/slider/lv_slider.c ****     /* Update right knob area with calculated knob area */
 1430              		.loc 1 262 5 view .LVU454
 1431 0072 3346     		mov	r3, r6
 1432 0074 2A46     		mov	r2, r5
 1433 0076 38A9     		add	r1, sp, #224
 1434 0078 2046     		mov	r0, r4
 1435 007a FFF7FEFF 		bl	position_knob
 1436              	.LVL170:
 264:Lib/lvgl/src/widgets/slider/lv_slider.c **** 
 1437              		.loc 1 264 5 view .LVU455
 1438 007e 04F18408 		add	r8, r4, #132
 1439              	.LVL171:
 1440              	.LBB114:
 1441              	.LBI114:
 1442              		.file 4 "c:\\users\\alex\\eclipse-workspace\\lvgs_test\\lib\\lvgl\\src\\misc\\lv_area.h"
   1:c:\users\alex\eclipse-workspace\lvgs_test\lib\lvgl\src\misc\lv_area.h **** /**
   2:c:\users\alex\eclipse-workspace\lvgs_test\lib\lvgl\src\misc\lv_area.h ****  * @file lv_area.h
   3:c:\users\alex\eclipse-workspace\lvgs_test\lib\lvgl\src\misc\lv_area.h ****  *
   4:c:\users\alex\eclipse-workspace\lvgs_test\lib\lvgl\src\misc\lv_area.h ****  */
   5:c:\users\alex\eclipse-workspace\lvgs_test\lib\lvgl\src\misc\lv_area.h **** 
   6:c:\users\alex\eclipse-workspace\lvgs_test\lib\lvgl\src\misc\lv_area.h **** #ifndef LV_AREA_H
   7:c:\users\alex\eclipse-workspace\lvgs_test\lib\lvgl\src\misc\lv_area.h **** #define LV_AREA_H
   8:c:\users\alex\eclipse-workspace\lvgs_test\lib\lvgl\src\misc\lv_area.h **** 
   9:c:\users\alex\eclipse-workspace\lvgs_test\lib\lvgl\src\misc\lv_area.h **** #ifdef __cplusplus
  10:c:\users\alex\eclipse-workspace\lvgs_test\lib\lvgl\src\misc\lv_area.h **** extern "C" {
  11:c:\users\alex\eclipse-workspace\lvgs_test\lib\lvgl\src\misc\lv_area.h **** #endif
  12:c:\users\alex\eclipse-workspace\lvgs_test\lib\lvgl\src\misc\lv_area.h **** 
ARM GAS  C:\Users\Alex\AppData\Local\Temp\cc5XGeRL.s 			page 56


  13:c:\users\alex\eclipse-workspace\lvgs_test\lib\lvgl\src\misc\lv_area.h **** /*********************
  14:c:\users\alex\eclipse-workspace\lvgs_test\lib\lvgl\src\misc\lv_area.h ****  *      INCLUDES
  15:c:\users\alex\eclipse-workspace\lvgs_test\lib\lvgl\src\misc\lv_area.h ****  *********************/
  16:c:\users\alex\eclipse-workspace\lvgs_test\lib\lvgl\src\misc\lv_area.h **** #include "../lv_conf_internal.h"
  17:c:\users\alex\eclipse-workspace\lvgs_test\lib\lvgl\src\misc\lv_area.h **** #include "lv_types.h"
  18:c:\users\alex\eclipse-workspace\lvgs_test\lib\lvgl\src\misc\lv_area.h **** #include <stdbool.h>
  19:c:\users\alex\eclipse-workspace\lvgs_test\lib\lvgl\src\misc\lv_area.h **** #include <stdint.h>
  20:c:\users\alex\eclipse-workspace\lvgs_test\lib\lvgl\src\misc\lv_area.h **** 
  21:c:\users\alex\eclipse-workspace\lvgs_test\lib\lvgl\src\misc\lv_area.h **** /*********************
  22:c:\users\alex\eclipse-workspace\lvgs_test\lib\lvgl\src\misc\lv_area.h ****  *      DEFINES
  23:c:\users\alex\eclipse-workspace\lvgs_test\lib\lvgl\src\misc\lv_area.h ****  *********************/
  24:c:\users\alex\eclipse-workspace\lvgs_test\lib\lvgl\src\misc\lv_area.h **** 
  25:c:\users\alex\eclipse-workspace\lvgs_test\lib\lvgl\src\misc\lv_area.h **** /**********************
  26:c:\users\alex\eclipse-workspace\lvgs_test\lib\lvgl\src\misc\lv_area.h ****  *      TYPEDEFS
  27:c:\users\alex\eclipse-workspace\lvgs_test\lib\lvgl\src\misc\lv_area.h ****  **********************/
  28:c:\users\alex\eclipse-workspace\lvgs_test\lib\lvgl\src\misc\lv_area.h **** 
  29:c:\users\alex\eclipse-workspace\lvgs_test\lib\lvgl\src\misc\lv_area.h **** /**
  30:c:\users\alex\eclipse-workspace\lvgs_test\lib\lvgl\src\misc\lv_area.h ****  * Represents a point on the screen.
  31:c:\users\alex\eclipse-workspace\lvgs_test\lib\lvgl\src\misc\lv_area.h ****  */
  32:c:\users\alex\eclipse-workspace\lvgs_test\lib\lvgl\src\misc\lv_area.h **** typedef struct {
  33:c:\users\alex\eclipse-workspace\lvgs_test\lib\lvgl\src\misc\lv_area.h ****     int32_t x;
  34:c:\users\alex\eclipse-workspace\lvgs_test\lib\lvgl\src\misc\lv_area.h ****     int32_t y;
  35:c:\users\alex\eclipse-workspace\lvgs_test\lib\lvgl\src\misc\lv_area.h **** } lv_point_t;
  36:c:\users\alex\eclipse-workspace\lvgs_test\lib\lvgl\src\misc\lv_area.h **** 
  37:c:\users\alex\eclipse-workspace\lvgs_test\lib\lvgl\src\misc\lv_area.h **** typedef struct {
  38:c:\users\alex\eclipse-workspace\lvgs_test\lib\lvgl\src\misc\lv_area.h ****     lv_value_precise_t x;
  39:c:\users\alex\eclipse-workspace\lvgs_test\lib\lvgl\src\misc\lv_area.h ****     lv_value_precise_t y;
  40:c:\users\alex\eclipse-workspace\lvgs_test\lib\lvgl\src\misc\lv_area.h **** } lv_point_precise_t;
  41:c:\users\alex\eclipse-workspace\lvgs_test\lib\lvgl\src\misc\lv_area.h **** 
  42:c:\users\alex\eclipse-workspace\lvgs_test\lib\lvgl\src\misc\lv_area.h **** /** Represents an area of the screen.*/
  43:c:\users\alex\eclipse-workspace\lvgs_test\lib\lvgl\src\misc\lv_area.h **** typedef struct {
  44:c:\users\alex\eclipse-workspace\lvgs_test\lib\lvgl\src\misc\lv_area.h ****     int32_t x1;
  45:c:\users\alex\eclipse-workspace\lvgs_test\lib\lvgl\src\misc\lv_area.h ****     int32_t y1;
  46:c:\users\alex\eclipse-workspace\lvgs_test\lib\lvgl\src\misc\lv_area.h ****     int32_t x2;
  47:c:\users\alex\eclipse-workspace\lvgs_test\lib\lvgl\src\misc\lv_area.h ****     int32_t y2;
  48:c:\users\alex\eclipse-workspace\lvgs_test\lib\lvgl\src\misc\lv_area.h **** } lv_area_t;
  49:c:\users\alex\eclipse-workspace\lvgs_test\lib\lvgl\src\misc\lv_area.h **** 
  50:c:\users\alex\eclipse-workspace\lvgs_test\lib\lvgl\src\misc\lv_area.h **** /** Alignments*/
  51:c:\users\alex\eclipse-workspace\lvgs_test\lib\lvgl\src\misc\lv_area.h **** 
  52:c:\users\alex\eclipse-workspace\lvgs_test\lib\lvgl\src\misc\lv_area.h **** enum _lv_align_t {
  53:c:\users\alex\eclipse-workspace\lvgs_test\lib\lvgl\src\misc\lv_area.h ****     LV_ALIGN_DEFAULT = 0,
  54:c:\users\alex\eclipse-workspace\lvgs_test\lib\lvgl\src\misc\lv_area.h ****     LV_ALIGN_TOP_LEFT,
  55:c:\users\alex\eclipse-workspace\lvgs_test\lib\lvgl\src\misc\lv_area.h ****     LV_ALIGN_TOP_MID,
  56:c:\users\alex\eclipse-workspace\lvgs_test\lib\lvgl\src\misc\lv_area.h ****     LV_ALIGN_TOP_RIGHT,
  57:c:\users\alex\eclipse-workspace\lvgs_test\lib\lvgl\src\misc\lv_area.h ****     LV_ALIGN_BOTTOM_LEFT,
  58:c:\users\alex\eclipse-workspace\lvgs_test\lib\lvgl\src\misc\lv_area.h ****     LV_ALIGN_BOTTOM_MID,
  59:c:\users\alex\eclipse-workspace\lvgs_test\lib\lvgl\src\misc\lv_area.h ****     LV_ALIGN_BOTTOM_RIGHT,
  60:c:\users\alex\eclipse-workspace\lvgs_test\lib\lvgl\src\misc\lv_area.h ****     LV_ALIGN_LEFT_MID,
  61:c:\users\alex\eclipse-workspace\lvgs_test\lib\lvgl\src\misc\lv_area.h ****     LV_ALIGN_RIGHT_MID,
  62:c:\users\alex\eclipse-workspace\lvgs_test\lib\lvgl\src\misc\lv_area.h ****     LV_ALIGN_CENTER,
  63:c:\users\alex\eclipse-workspace\lvgs_test\lib\lvgl\src\misc\lv_area.h **** 
  64:c:\users\alex\eclipse-workspace\lvgs_test\lib\lvgl\src\misc\lv_area.h ****     LV_ALIGN_OUT_TOP_LEFT,
  65:c:\users\alex\eclipse-workspace\lvgs_test\lib\lvgl\src\misc\lv_area.h ****     LV_ALIGN_OUT_TOP_MID,
  66:c:\users\alex\eclipse-workspace\lvgs_test\lib\lvgl\src\misc\lv_area.h ****     LV_ALIGN_OUT_TOP_RIGHT,
  67:c:\users\alex\eclipse-workspace\lvgs_test\lib\lvgl\src\misc\lv_area.h ****     LV_ALIGN_OUT_BOTTOM_LEFT,
  68:c:\users\alex\eclipse-workspace\lvgs_test\lib\lvgl\src\misc\lv_area.h ****     LV_ALIGN_OUT_BOTTOM_MID,
  69:c:\users\alex\eclipse-workspace\lvgs_test\lib\lvgl\src\misc\lv_area.h ****     LV_ALIGN_OUT_BOTTOM_RIGHT,
ARM GAS  C:\Users\Alex\AppData\Local\Temp\cc5XGeRL.s 			page 57


  70:c:\users\alex\eclipse-workspace\lvgs_test\lib\lvgl\src\misc\lv_area.h ****     LV_ALIGN_OUT_LEFT_TOP,
  71:c:\users\alex\eclipse-workspace\lvgs_test\lib\lvgl\src\misc\lv_area.h ****     LV_ALIGN_OUT_LEFT_MID,
  72:c:\users\alex\eclipse-workspace\lvgs_test\lib\lvgl\src\misc\lv_area.h ****     LV_ALIGN_OUT_LEFT_BOTTOM,
  73:c:\users\alex\eclipse-workspace\lvgs_test\lib\lvgl\src\misc\lv_area.h ****     LV_ALIGN_OUT_RIGHT_TOP,
  74:c:\users\alex\eclipse-workspace\lvgs_test\lib\lvgl\src\misc\lv_area.h ****     LV_ALIGN_OUT_RIGHT_MID,
  75:c:\users\alex\eclipse-workspace\lvgs_test\lib\lvgl\src\misc\lv_area.h ****     LV_ALIGN_OUT_RIGHT_BOTTOM,
  76:c:\users\alex\eclipse-workspace\lvgs_test\lib\lvgl\src\misc\lv_area.h **** };
  77:c:\users\alex\eclipse-workspace\lvgs_test\lib\lvgl\src\misc\lv_area.h **** 
  78:c:\users\alex\eclipse-workspace\lvgs_test\lib\lvgl\src\misc\lv_area.h **** #ifdef DOXYGEN
  79:c:\users\alex\eclipse-workspace\lvgs_test\lib\lvgl\src\misc\lv_area.h **** typedef _lv_align_t lv_align_t;
  80:c:\users\alex\eclipse-workspace\lvgs_test\lib\lvgl\src\misc\lv_area.h **** #else
  81:c:\users\alex\eclipse-workspace\lvgs_test\lib\lvgl\src\misc\lv_area.h **** typedef uint8_t lv_align_t;
  82:c:\users\alex\eclipse-workspace\lvgs_test\lib\lvgl\src\misc\lv_area.h **** #endif /*DOXYGEN*/
  83:c:\users\alex\eclipse-workspace\lvgs_test\lib\lvgl\src\misc\lv_area.h **** 
  84:c:\users\alex\eclipse-workspace\lvgs_test\lib\lvgl\src\misc\lv_area.h **** enum _lv_dir_t {
  85:c:\users\alex\eclipse-workspace\lvgs_test\lib\lvgl\src\misc\lv_area.h ****     LV_DIR_NONE     = 0x00,
  86:c:\users\alex\eclipse-workspace\lvgs_test\lib\lvgl\src\misc\lv_area.h ****     LV_DIR_LEFT     = (1 << 0),
  87:c:\users\alex\eclipse-workspace\lvgs_test\lib\lvgl\src\misc\lv_area.h ****     LV_DIR_RIGHT    = (1 << 1),
  88:c:\users\alex\eclipse-workspace\lvgs_test\lib\lvgl\src\misc\lv_area.h ****     LV_DIR_TOP      = (1 << 2),
  89:c:\users\alex\eclipse-workspace\lvgs_test\lib\lvgl\src\misc\lv_area.h ****     LV_DIR_BOTTOM   = (1 << 3),
  90:c:\users\alex\eclipse-workspace\lvgs_test\lib\lvgl\src\misc\lv_area.h ****     LV_DIR_HOR      = LV_DIR_LEFT | LV_DIR_RIGHT,
  91:c:\users\alex\eclipse-workspace\lvgs_test\lib\lvgl\src\misc\lv_area.h ****     LV_DIR_VER      = LV_DIR_TOP | LV_DIR_BOTTOM,
  92:c:\users\alex\eclipse-workspace\lvgs_test\lib\lvgl\src\misc\lv_area.h ****     LV_DIR_ALL      = LV_DIR_HOR | LV_DIR_VER,
  93:c:\users\alex\eclipse-workspace\lvgs_test\lib\lvgl\src\misc\lv_area.h **** };
  94:c:\users\alex\eclipse-workspace\lvgs_test\lib\lvgl\src\misc\lv_area.h **** 
  95:c:\users\alex\eclipse-workspace\lvgs_test\lib\lvgl\src\misc\lv_area.h **** #ifdef DOXYGEN
  96:c:\users\alex\eclipse-workspace\lvgs_test\lib\lvgl\src\misc\lv_area.h **** typedef _lv_dir_t lv_dir_t;
  97:c:\users\alex\eclipse-workspace\lvgs_test\lib\lvgl\src\misc\lv_area.h **** #else
  98:c:\users\alex\eclipse-workspace\lvgs_test\lib\lvgl\src\misc\lv_area.h **** typedef uint8_t lv_dir_t;
  99:c:\users\alex\eclipse-workspace\lvgs_test\lib\lvgl\src\misc\lv_area.h **** #endif /*DOXYGEN*/
 100:c:\users\alex\eclipse-workspace\lvgs_test\lib\lvgl\src\misc\lv_area.h **** 
 101:c:\users\alex\eclipse-workspace\lvgs_test\lib\lvgl\src\misc\lv_area.h **** typedef struct  {
 102:c:\users\alex\eclipse-workspace\lvgs_test\lib\lvgl\src\misc\lv_area.h ****     int32_t angle_prev;
 103:c:\users\alex\eclipse-workspace\lvgs_test\lib\lvgl\src\misc\lv_area.h ****     int32_t sinma;
 104:c:\users\alex\eclipse-workspace\lvgs_test\lib\lvgl\src\misc\lv_area.h ****     int32_t cosma;
 105:c:\users\alex\eclipse-workspace\lvgs_test\lib\lvgl\src\misc\lv_area.h **** } lv_area_transform_cache_t;
 106:c:\users\alex\eclipse-workspace\lvgs_test\lib\lvgl\src\misc\lv_area.h **** 
 107:c:\users\alex\eclipse-workspace\lvgs_test\lib\lvgl\src\misc\lv_area.h **** /**********************
 108:c:\users\alex\eclipse-workspace\lvgs_test\lib\lvgl\src\misc\lv_area.h ****  * GLOBAL PROTOTYPES
 109:c:\users\alex\eclipse-workspace\lvgs_test\lib\lvgl\src\misc\lv_area.h ****  **********************/
 110:c:\users\alex\eclipse-workspace\lvgs_test\lib\lvgl\src\misc\lv_area.h **** 
 111:c:\users\alex\eclipse-workspace\lvgs_test\lib\lvgl\src\misc\lv_area.h **** /**
 112:c:\users\alex\eclipse-workspace\lvgs_test\lib\lvgl\src\misc\lv_area.h ****  * Initialize an area
 113:c:\users\alex\eclipse-workspace\lvgs_test\lib\lvgl\src\misc\lv_area.h ****  * @param area_p pointer to an area
 114:c:\users\alex\eclipse-workspace\lvgs_test\lib\lvgl\src\misc\lv_area.h ****  * @param x1 left coordinate of the area
 115:c:\users\alex\eclipse-workspace\lvgs_test\lib\lvgl\src\misc\lv_area.h ****  * @param y1 top coordinate of the area
 116:c:\users\alex\eclipse-workspace\lvgs_test\lib\lvgl\src\misc\lv_area.h ****  * @param x2 right coordinate of the area
 117:c:\users\alex\eclipse-workspace\lvgs_test\lib\lvgl\src\misc\lv_area.h ****  * @param y2 bottom coordinate of the area
 118:c:\users\alex\eclipse-workspace\lvgs_test\lib\lvgl\src\misc\lv_area.h ****  */
 119:c:\users\alex\eclipse-workspace\lvgs_test\lib\lvgl\src\misc\lv_area.h **** void lv_area_set(lv_area_t * area_p, int32_t x1, int32_t y1, int32_t x2, int32_t y2);
 120:c:\users\alex\eclipse-workspace\lvgs_test\lib\lvgl\src\misc\lv_area.h **** 
 121:c:\users\alex\eclipse-workspace\lvgs_test\lib\lvgl\src\misc\lv_area.h **** /**
 122:c:\users\alex\eclipse-workspace\lvgs_test\lib\lvgl\src\misc\lv_area.h ****  * Copy an area
 123:c:\users\alex\eclipse-workspace\lvgs_test\lib\lvgl\src\misc\lv_area.h ****  * @param dest pointer to the destination area
 124:c:\users\alex\eclipse-workspace\lvgs_test\lib\lvgl\src\misc\lv_area.h ****  * @param src pointer to the source area
 125:c:\users\alex\eclipse-workspace\lvgs_test\lib\lvgl\src\misc\lv_area.h ****  */
 126:c:\users\alex\eclipse-workspace\lvgs_test\lib\lvgl\src\misc\lv_area.h **** inline static void lv_area_copy(lv_area_t * dest, const lv_area_t * src)
ARM GAS  C:\Users\Alex\AppData\Local\Temp\cc5XGeRL.s 			page 58


 1443              		.loc 4 126 20 view .LVU456
 1444              	.LBB115:
 127:c:\users\alex\eclipse-workspace\lvgs_test\lib\lvgl\src\misc\lv_area.h **** {
 128:c:\users\alex\eclipse-workspace\lvgs_test\lib\lvgl\src\misc\lv_area.h ****     dest->x1 = src->x1;
 1445              		.loc 4 128 5 view .LVU457
 1446              		.loc 4 128 19 is_stmt 0 view .LVU458
 1447 0082 389B     		ldr	r3, [sp, #224]
 1448              		.loc 4 128 14 view .LVU459
 1449 0084 C4F88430 		str	r3, [r4, #132]
 129:c:\users\alex\eclipse-workspace\lvgs_test\lib\lvgl\src\misc\lv_area.h ****     dest->y1 = src->y1;
 1450              		.loc 4 129 5 is_stmt 1 view .LVU460
 1451              		.loc 4 129 19 is_stmt 0 view .LVU461
 1452 0088 399B     		ldr	r3, [sp, #228]
 1453              		.loc 4 129 14 view .LVU462
 1454 008a C4F88830 		str	r3, [r4, #136]
 130:c:\users\alex\eclipse-workspace\lvgs_test\lib\lvgl\src\misc\lv_area.h ****     dest->x2 = src->x2;
 1455              		.loc 4 130 5 is_stmt 1 view .LVU463
 1456              		.loc 4 130 19 is_stmt 0 view .LVU464
 1457 008e 3A9B     		ldr	r3, [sp, #232]
 1458              		.loc 4 130 14 view .LVU465
 1459 0090 C4F88C30 		str	r3, [r4, #140]
 131:c:\users\alex\eclipse-workspace\lvgs_test\lib\lvgl\src\misc\lv_area.h ****     dest->y2 = src->y2;
 1460              		.loc 4 131 5 is_stmt 1 view .LVU466
 1461              		.loc 4 131 19 is_stmt 0 view .LVU467
 1462 0094 3B9B     		ldr	r3, [sp, #236]
 1463              		.loc 4 131 14 view .LVU468
 1464 0096 C4F89030 		str	r3, [r4, #144]
 1465              	.LVL172:
 1466              		.loc 4 131 14 view .LVU469
 1467              	.LBE115:
 1468              	.LBE114:
 266:Lib/lvgl/src/widgets/slider/lv_slider.c ****         lv_draw_rect(layer, &knob_rect_dsc, &slider->right_knob_area);
 1469              		.loc 1 266 5 is_stmt 1 view .LVU470
 266:Lib/lvgl/src/widgets/slider/lv_slider.c ****         lv_draw_rect(layer, &knob_rect_dsc, &slider->right_knob_area);
 1470              		.loc 1 266 8 is_stmt 0 view .LVU471
 1471 009a 2046     		mov	r0, r4
 1472 009c FFF7FEFF 		bl	lv_slider_get_mode
 1473              	.LVL173:
 266:Lib/lvgl/src/widgets/slider/lv_slider.c ****         lv_draw_rect(layer, &knob_rect_dsc, &slider->right_knob_area);
 1474              		.loc 1 266 7 view .LVU472
 1475 00a0 0228     		cmp	r0, #2
 1476 00a2 2FD0     		beq	.L80
 267:Lib/lvgl/src/widgets/slider/lv_slider.c ****     }
 1477              		.loc 1 267 9 is_stmt 1 view .LVU473
 1478 00a4 4246     		mov	r2, r8
 1479 00a6 1CA9     		add	r1, sp, #112
 1480 00a8 3846     		mov	r0, r7
 1481 00aa FFF7FEFF 		bl	lv_draw_rect
 1482              	.LVL174:
 1483              	.L66:
 291:Lib/lvgl/src/widgets/slider/lv_slider.c **** 
 1484              		.loc 1 291 1 is_stmt 0 view .LVU474
 1485 00ae 3CB0     		add	sp, sp, #240
 1486              	.LCFI16:
 1487              		.cfi_remember_state
 1488              		.cfi_def_cfa_offset 32
 1489              		@ sp needed
ARM GAS  C:\Users\Alex\AppData\Local\Temp\cc5XGeRL.s 			page 59


 1490 00b0 BDE8F087 		pop	{r4, r5, r6, r7, r8, r9, r10, pc}
 1491              	.LVL175:
 1492              	.L91:
 1493              	.LCFI17:
 1494              		.cfi_restore_state
 240:Lib/lvgl/src/widgets/slider/lv_slider.c **** 
 1495              		.loc 1 240 65 discriminator 1 view .LVU475
 1496 00b4 10B9     		cbnz	r0, .L89
 240:Lib/lvgl/src/widgets/slider/lv_slider.c **** 
 1497              		.loc 1 240 65 view .LVU476
 1498 00b6 4FF00009 		mov	r9, #0
 1499 00ba BDE7     		b	.L67
 1500              	.L89:
 1501 00bc 4FF00109 		mov	r9, #1
 1502 00c0 BAE7     		b	.L67
 1503              	.LVL176:
 1504              	.L92:
 249:Lib/lvgl/src/widgets/slider/lv_slider.c ****         else knob_area.x1 = LV_SLIDER_KNOB_COORD(is_reversed, slider->bar.indic_area);
 1505              		.loc 1 249 39 is_stmt 1 view .LVU477
 249:Lib/lvgl/src/widgets/slider/lv_slider.c ****         else knob_area.x1 = LV_SLIDER_KNOB_COORD(is_reversed, slider->bar.indic_area);
 1506              		.loc 1 249 54 is_stmt 0 view .LVU478
 1507 00c2 CA45     		cmp	r10, r9
 1508 00c4 02D0     		beq	.L93
 249:Lib/lvgl/src/widgets/slider/lv_slider.c ****         else knob_area.x1 = LV_SLIDER_KNOB_COORD(is_reversed, slider->bar.indic_area);
 1509              		.loc 1 249 54 discriminator 2 view .LVU479
 1510 00c6 636C     		ldr	r3, [r4, #68]
 1511              	.L71:
 249:Lib/lvgl/src/widgets/slider/lv_slider.c ****         else knob_area.x1 = LV_SLIDER_KNOB_COORD(is_reversed, slider->bar.indic_area);
 1512              		.loc 1 249 52 discriminator 4 view .LVU480
 1513 00c8 3893     		str	r3, [sp, #224]
 1514 00ca C9E7     		b	.L72
 1515              	.L93:
 249:Lib/lvgl/src/widgets/slider/lv_slider.c ****         else knob_area.x1 = LV_SLIDER_KNOB_COORD(is_reversed, slider->bar.indic_area);
 1516              		.loc 1 249 54 discriminator 1 view .LVU481
 1517 00cc E36B     		ldr	r3, [r4, #60]
 1518 00ce FBE7     		b	.L71
 1519              	.L73:
 250:Lib/lvgl/src/widgets/slider/lv_slider.c ****     }
 1520              		.loc 1 250 29 discriminator 2 view .LVU482
 1521 00d0 636C     		ldr	r3, [r4, #68]
 1522 00d2 C4E7     		b	.L74
 1523              	.LVL177:
 1524              	.L68:
 253:Lib/lvgl/src/widgets/slider/lv_slider.c ****         if(is_symmetrical &&
 1525              		.loc 1 253 9 is_stmt 1 view .LVU483
 253:Lib/lvgl/src/widgets/slider/lv_slider.c ****         if(is_symmetrical &&
 1526              		.loc 1 253 21 is_stmt 0 view .LVU484
 1527 00d4 2046     		mov	r0, r4
 1528 00d6 FFF7FEFF 		bl	lv_obj_get_width
 1529              	.LVL178:
 1530 00da 0546     		mov	r5, r0
 1531              	.LVL179:
 254:Lib/lvgl/src/widgets/slider/lv_slider.c ****            slider->bar.cur_value < 0) knob_area.y1 =  LV_SLIDER_KNOB_COORD_VERTICAL(!is_reversed, s
 1532              		.loc 1 254 9 is_stmt 1 view .LVU485
 254:Lib/lvgl/src/widgets/slider/lv_slider.c ****            slider->bar.cur_value < 0) knob_area.y1 =  LV_SLIDER_KNOB_COORD_VERTICAL(!is_reversed, s
 1533              		.loc 1 254 11 is_stmt 0 view .LVU486
 1534 00dc B8F1000F 		cmp	r8, #0
ARM GAS  C:\Users\Alex\AppData\Local\Temp\cc5XGeRL.s 			page 60


 1535 00e0 02D0     		beq	.L75
 255:Lib/lvgl/src/widgets/slider/lv_slider.c ****         else knob_area.y1 = LV_SLIDER_KNOB_COORD_VERTICAL(is_reversed, slider->bar.indic_area);
 1536              		.loc 1 255 23 discriminator 1 view .LVU487
 1537 00e2 E36A     		ldr	r3, [r4, #44]
 254:Lib/lvgl/src/widgets/slider/lv_slider.c ****            slider->bar.cur_value < 0) knob_area.y1 =  LV_SLIDER_KNOB_COORD_VERTICAL(!is_reversed, s
 1538              		.loc 1 254 27 discriminator 1 view .LVU488
 1539 00e4 002B     		cmp	r3, #0
 1540 00e6 04DB     		blt	.L94
 1541              	.L75:
 256:Lib/lvgl/src/widgets/slider/lv_slider.c ****     }
 1542              		.loc 1 256 14 is_stmt 1 view .LVU489
 256:Lib/lvgl/src/widgets/slider/lv_slider.c ****     }
 1543              		.loc 1 256 29 is_stmt 0 view .LVU490
 1544 00e8 CA45     		cmp	r10, r9
 1545 00ea 09D0     		beq	.L78
 256:Lib/lvgl/src/widgets/slider/lv_slider.c ****     }
 1546              		.loc 1 256 29 discriminator 1 view .LVU491
 1547 00ec A36C     		ldr	r3, [r4, #72]
 1548              	.L79:
 256:Lib/lvgl/src/widgets/slider/lv_slider.c ****     }
 1549              		.loc 1 256 27 discriminator 4 view .LVU492
 1550 00ee 3993     		str	r3, [sp, #228]
 1551 00f0 B6E7     		b	.L72
 1552              	.L94:
 255:Lib/lvgl/src/widgets/slider/lv_slider.c ****         else knob_area.y1 = LV_SLIDER_KNOB_COORD_VERTICAL(is_reversed, slider->bar.indic_area);
 1553              		.loc 1 255 39 is_stmt 1 view .LVU493
 255:Lib/lvgl/src/widgets/slider/lv_slider.c ****         else knob_area.y1 = LV_SLIDER_KNOB_COORD_VERTICAL(is_reversed, slider->bar.indic_area);
 1554              		.loc 1 255 55 is_stmt 0 view .LVU494
 1555 00f2 CA45     		cmp	r10, r9
 1556 00f4 02D0     		beq	.L95
 255:Lib/lvgl/src/widgets/slider/lv_slider.c ****         else knob_area.y1 = LV_SLIDER_KNOB_COORD_VERTICAL(is_reversed, slider->bar.indic_area);
 1557              		.loc 1 255 55 discriminator 2 view .LVU495
 1558 00f6 236C     		ldr	r3, [r4, #64]
 1559              	.L77:
 255:Lib/lvgl/src/widgets/slider/lv_slider.c ****         else knob_area.y1 = LV_SLIDER_KNOB_COORD_VERTICAL(is_reversed, slider->bar.indic_area);
 1560              		.loc 1 255 52 discriminator 4 view .LVU496
 1561 00f8 3993     		str	r3, [sp, #228]
 1562 00fa B1E7     		b	.L72
 1563              	.L95:
 255:Lib/lvgl/src/widgets/slider/lv_slider.c ****         else knob_area.y1 = LV_SLIDER_KNOB_COORD_VERTICAL(is_reversed, slider->bar.indic_area);
 1564              		.loc 1 255 55 discriminator 1 view .LVU497
 1565 00fc A36C     		ldr	r3, [r4, #72]
 1566 00fe FBE7     		b	.L77
 1567              	.L78:
 256:Lib/lvgl/src/widgets/slider/lv_slider.c ****     }
 1568              		.loc 1 256 29 discriminator 2 view .LVU498
 1569 0100 236C     		ldr	r3, [r4, #64]
 1570 0102 F4E7     		b	.L79
 1571              	.LVL180:
 1572              	.L80:
 1573              	.LBB116:
 271:Lib/lvgl/src/widgets/slider/lv_slider.c ****         lv_memcpy(&knob_rect_dsc_tmp, &knob_rect_dsc, sizeof(lv_draw_rect_dsc_t));
 1574              		.loc 1 271 9 is_stmt 1 view .LVU499
 272:Lib/lvgl/src/widgets/slider/lv_slider.c ****         /* Draw the right knob */
 1575              		.loc 1 272 9 view .LVU500
 1576 0104 7022     		movs	r2, #112
 1577 0106 0DEB0201 		add	r1, sp, r2
ARM GAS  C:\Users\Alex\AppData\Local\Temp\cc5XGeRL.s 			page 61


 1578 010a 6846     		mov	r0, sp
 1579 010c FFF7FEFF 		bl	lv_memcpy
 1580              	.LVL181:
 274:Lib/lvgl/src/widgets/slider/lv_slider.c **** 
 1581              		.loc 1 274 9 view .LVU501
 1582 0110 4246     		mov	r2, r8
 1583 0112 1CA9     		add	r1, sp, #112
 1584 0114 3846     		mov	r0, r7
 1585 0116 FFF7FEFF 		bl	lv_draw_rect
 1586              	.LVL182:
 277:Lib/lvgl/src/widgets/slider/lv_slider.c ****             /*use !is_reversed to get the other knob*/
 1587              		.loc 1 277 9 view .LVU502
 277:Lib/lvgl/src/widgets/slider/lv_slider.c ****             /*use !is_reversed to get the other knob*/
 1588              		.loc 1 277 11 is_stmt 0 view .LVU503
 1589 011a 16B3     		cbz	r6, .L82
 279:Lib/lvgl/src/widgets/slider/lv_slider.c ****         }
 1590              		.loc 1 279 13 is_stmt 1 view .LVU504
 279:Lib/lvgl/src/widgets/slider/lv_slider.c ****         }
 1591              		.loc 1 279 28 is_stmt 0 view .LVU505
 1592 011c CA45     		cmp	r10, r9
 1593 011e 1ED0     		beq	.L96
 279:Lib/lvgl/src/widgets/slider/lv_slider.c ****         }
 1594              		.loc 1 279 28 discriminator 2 view .LVU506
 1595 0120 636C     		ldr	r3, [r4, #68]
 1596              	.L84:
 279:Lib/lvgl/src/widgets/slider/lv_slider.c ****         }
 1597              		.loc 1 279 26 discriminator 4 view .LVU507
 1598 0122 3893     		str	r3, [sp, #224]
 1599              	.L85:
 284:Lib/lvgl/src/widgets/slider/lv_slider.c ****         lv_area_copy(&slider->left_knob_area, &knob_area);
 1600              		.loc 1 284 9 is_stmt 1 view .LVU508
 1601 0124 3346     		mov	r3, r6
 1602 0126 2A46     		mov	r2, r5
 1603 0128 38A9     		add	r1, sp, #224
 1604 012a 2046     		mov	r0, r4
 1605 012c FFF7FEFF 		bl	position_knob
 1606              	.LVL183:
 285:Lib/lvgl/src/widgets/slider/lv_slider.c **** 
 1607              		.loc 1 285 9 view .LVU509
 1608 0130 04F17405 		add	r5, r4, #116
 1609              	.LVL184:
 1610              	.LBB117:
 1611              	.LBI117:
 126:c:\users\alex\eclipse-workspace\lvgs_test\lib\lvgl\src\misc\lv_area.h **** {
 1612              		.loc 4 126 20 view .LVU510
 1613              	.LBB118:
 128:c:\users\alex\eclipse-workspace\lvgs_test\lib\lvgl\src\misc\lv_area.h ****     dest->y1 = src->y1;
 1614              		.loc 4 128 5 view .LVU511
 128:c:\users\alex\eclipse-workspace\lvgs_test\lib\lvgl\src\misc\lv_area.h ****     dest->y1 = src->y1;
 1615              		.loc 4 128 19 is_stmt 0 view .LVU512
 1616 0134 389B     		ldr	r3, [sp, #224]
 128:c:\users\alex\eclipse-workspace\lvgs_test\lib\lvgl\src\misc\lv_area.h ****     dest->y1 = src->y1;
 1617              		.loc 4 128 14 view .LVU513
 1618 0136 6367     		str	r3, [r4, #116]
 129:c:\users\alex\eclipse-workspace\lvgs_test\lib\lvgl\src\misc\lv_area.h ****     dest->x2 = src->x2;
 1619              		.loc 4 129 5 is_stmt 1 view .LVU514
 129:c:\users\alex\eclipse-workspace\lvgs_test\lib\lvgl\src\misc\lv_area.h ****     dest->x2 = src->x2;
ARM GAS  C:\Users\Alex\AppData\Local\Temp\cc5XGeRL.s 			page 62


 1620              		.loc 4 129 19 is_stmt 0 view .LVU515
 1621 0138 399B     		ldr	r3, [sp, #228]
 129:c:\users\alex\eclipse-workspace\lvgs_test\lib\lvgl\src\misc\lv_area.h ****     dest->x2 = src->x2;
 1622              		.loc 4 129 14 view .LVU516
 1623 013a A367     		str	r3, [r4, #120]
 130:c:\users\alex\eclipse-workspace\lvgs_test\lib\lvgl\src\misc\lv_area.h ****     dest->y2 = src->y2;
 1624              		.loc 4 130 5 is_stmt 1 view .LVU517
 130:c:\users\alex\eclipse-workspace\lvgs_test\lib\lvgl\src\misc\lv_area.h ****     dest->y2 = src->y2;
 1625              		.loc 4 130 19 is_stmt 0 view .LVU518
 1626 013c 3A9B     		ldr	r3, [sp, #232]
 130:c:\users\alex\eclipse-workspace\lvgs_test\lib\lvgl\src\misc\lv_area.h ****     dest->y2 = src->y2;
 1627              		.loc 4 130 14 view .LVU519
 1628 013e E367     		str	r3, [r4, #124]
 1629              		.loc 4 131 5 is_stmt 1 view .LVU520
 1630              		.loc 4 131 19 is_stmt 0 view .LVU521
 1631 0140 3B9B     		ldr	r3, [sp, #236]
 1632              		.loc 4 131 14 view .LVU522
 1633 0142 C4F88030 		str	r3, [r4, #128]
 1634              	.LVL185:
 1635              		.loc 4 131 14 view .LVU523
 1636              	.LBE118:
 1637              	.LBE117:
 287:Lib/lvgl/src/widgets/slider/lv_slider.c **** 
 1638              		.loc 1 287 9 is_stmt 1 view .LVU524
 1639 0146 7022     		movs	r2, #112
 1640 0148 6946     		mov	r1, sp
 1641 014a 0DEB0200 		add	r0, sp, r2
 1642 014e FFF7FEFF 		bl	lv_memcpy
 1643              	.LVL186:
 289:Lib/lvgl/src/widgets/slider/lv_slider.c ****     }
 1644              		.loc 1 289 9 view .LVU525
 1645 0152 2A46     		mov	r2, r5
 1646 0154 1CA9     		add	r1, sp, #112
 1647 0156 3846     		mov	r0, r7
 1648 0158 FFF7FEFF 		bl	lv_draw_rect
 1649              	.LVL187:
 1650              	.LBE116:
 291:Lib/lvgl/src/widgets/slider/lv_slider.c **** 
 1651              		.loc 1 291 1 is_stmt 0 view .LVU526
 1652 015c A7E7     		b	.L66
 1653              	.LVL188:
 1654              	.L96:
 1655              	.LBB119:
 279:Lib/lvgl/src/widgets/slider/lv_slider.c ****         }
 1656              		.loc 1 279 28 discriminator 1 view .LVU527
 1657 015e E36B     		ldr	r3, [r4, #60]
 1658 0160 DFE7     		b	.L84
 1659              	.L82:
 282:Lib/lvgl/src/widgets/slider/lv_slider.c ****         }
 1660              		.loc 1 282 13 is_stmt 1 view .LVU528
 282:Lib/lvgl/src/widgets/slider/lv_slider.c ****         }
 1661              		.loc 1 282 28 is_stmt 0 view .LVU529
 1662 0162 CA45     		cmp	r10, r9
 1663 0164 02D0     		beq	.L97
 282:Lib/lvgl/src/widgets/slider/lv_slider.c ****         }
 1664              		.loc 1 282 28 discriminator 2 view .LVU530
 1665 0166 236C     		ldr	r3, [r4, #64]
ARM GAS  C:\Users\Alex\AppData\Local\Temp\cc5XGeRL.s 			page 63


 1666              	.L87:
 282:Lib/lvgl/src/widgets/slider/lv_slider.c ****         }
 1667              		.loc 1 282 26 discriminator 4 view .LVU531
 1668 0168 3993     		str	r3, [sp, #228]
 1669 016a DBE7     		b	.L85
 1670              	.L97:
 282:Lib/lvgl/src/widgets/slider/lv_slider.c ****         }
 1671              		.loc 1 282 28 discriminator 1 view .LVU532
 1672 016c A36C     		ldr	r3, [r4, #72]
 1673 016e FBE7     		b	.L87
 1674              	.LBE119:
 1675              		.cfi_endproc
 1676              	.LFE248:
 1678              		.section	.text.lv_slider_event,"ax",%progbits
 1679              		.align	1
 1680              		.syntax unified
 1681              		.thumb
 1682              		.thumb_func
 1684              	lv_slider_event:
 1685              	.LVL189:
 1686              	.LFB247:
 103:Lib/lvgl/src/widgets/slider/lv_slider.c ****     LV_UNUSED(class_p);
 1687              		.loc 1 103 1 is_stmt 1 view -0
 1688              		.cfi_startproc
 1689              		@ args = 0, pretend = 0, frame = 24
 1690              		@ frame_needed = 0, uses_anonymous_args = 0
 103:Lib/lvgl/src/widgets/slider/lv_slider.c ****     LV_UNUSED(class_p);
 1691              		.loc 1 103 1 is_stmt 0 view .LVU534
 1692 0000 2DE9F04F 		push	{r4, r5, r6, r7, r8, r9, r10, fp, lr}
 1693              	.LCFI18:
 1694              		.cfi_def_cfa_offset 36
 1695              		.cfi_offset 4, -36
 1696              		.cfi_offset 5, -32
 1697              		.cfi_offset 6, -28
 1698              		.cfi_offset 7, -24
 1699              		.cfi_offset 8, -20
 1700              		.cfi_offset 9, -16
 1701              		.cfi_offset 10, -12
 1702              		.cfi_offset 11, -8
 1703              		.cfi_offset 14, -4
 1704 0004 87B0     		sub	sp, sp, #28
 1705              	.LCFI19:
 1706              		.cfi_def_cfa_offset 64
 1707 0006 0C46     		mov	r4, r1
 104:Lib/lvgl/src/widgets/slider/lv_slider.c **** 
 1708              		.loc 1 104 5 is_stmt 1 view .LVU535
 106:Lib/lvgl/src/widgets/slider/lv_slider.c **** 
 1709              		.loc 1 106 5 view .LVU536
 109:Lib/lvgl/src/widgets/slider/lv_slider.c ****     if(res != LV_RESULT_OK) return;
 1710              		.loc 1 109 5 view .LVU537
 109:Lib/lvgl/src/widgets/slider/lv_slider.c ****     if(res != LV_RESULT_OK) return;
 1711              		.loc 1 109 11 is_stmt 0 view .LVU538
 1712 0008 D448     		ldr	r0, .L133
 1713              	.LVL190:
 109:Lib/lvgl/src/widgets/slider/lv_slider.c ****     if(res != LV_RESULT_OK) return;
 1714              		.loc 1 109 11 view .LVU539
 1715 000a FFF7FEFF 		bl	lv_obj_event_base
ARM GAS  C:\Users\Alex\AppData\Local\Temp\cc5XGeRL.s 			page 64


 1716              	.LVL191:
 110:Lib/lvgl/src/widgets/slider/lv_slider.c **** 
 1717              		.loc 1 110 5 is_stmt 1 view .LVU540
 110:Lib/lvgl/src/widgets/slider/lv_slider.c **** 
 1718              		.loc 1 110 7 is_stmt 0 view .LVU541
 1719 000e 0128     		cmp	r0, #1
 1720 0010 02D0     		beq	.L130
 1721              	.LVL192:
 1722              	.L98:
 230:Lib/lvgl/src/widgets/slider/lv_slider.c **** 
 1723              		.loc 1 230 1 view .LVU542
 1724 0012 07B0     		add	sp, sp, #28
 1725              	.LCFI20:
 1726              		.cfi_remember_state
 1727              		.cfi_def_cfa_offset 36
 1728              		@ sp needed
 1729 0014 BDE8F08F 		pop	{r4, r5, r6, r7, r8, r9, r10, fp, pc}
 1730              	.LVL193:
 1731              	.L130:
 1732              	.LCFI21:
 1733              		.cfi_restore_state
 112:Lib/lvgl/src/widgets/slider/lv_slider.c ****     lv_obj_t * obj = lv_event_get_current_target(e);
 1734              		.loc 1 112 5 is_stmt 1 view .LVU543
 112:Lib/lvgl/src/widgets/slider/lv_slider.c ****     lv_obj_t * obj = lv_event_get_current_target(e);
 1735              		.loc 1 112 28 is_stmt 0 view .LVU544
 1736 0018 2046     		mov	r0, r4
 1737              	.LVL194:
 112:Lib/lvgl/src/widgets/slider/lv_slider.c ****     lv_obj_t * obj = lv_event_get_current_target(e);
 1738              		.loc 1 112 28 view .LVU545
 1739 001a FFF7FEFF 		bl	lv_event_get_code
 1740              	.LVL195:
 1741 001e 0646     		mov	r6, r0
 1742              	.LVL196:
 113:Lib/lvgl/src/widgets/slider/lv_slider.c ****     lv_slider_t * slider = (lv_slider_t *)obj;
 1743              		.loc 1 113 5 is_stmt 1 view .LVU546
 113:Lib/lvgl/src/widgets/slider/lv_slider.c ****     lv_slider_t * slider = (lv_slider_t *)obj;
 1744              		.loc 1 113 22 is_stmt 0 view .LVU547
 1745 0020 2046     		mov	r0, r4
 1746 0022 FFF7FEFF 		bl	lv_event_get_current_target
 1747              	.LVL197:
 1748 0026 0546     		mov	r5, r0
 1749              	.LVL198:
 114:Lib/lvgl/src/widgets/slider/lv_slider.c ****     lv_slider_mode_t type = lv_slider_get_mode(obj);
 1750              		.loc 1 114 5 is_stmt 1 view .LVU548
 115:Lib/lvgl/src/widgets/slider/lv_slider.c **** 
 1751              		.loc 1 115 5 view .LVU549
 115:Lib/lvgl/src/widgets/slider/lv_slider.c **** 
 1752              		.loc 1 115 29 is_stmt 0 view .LVU550
 1753 0028 FFF7FEFF 		bl	lv_slider_get_mode
 1754              	.LVL199:
 115:Lib/lvgl/src/widgets/slider/lv_slider.c **** 
 1755              		.loc 1 115 29 view .LVU551
 1756 002c 0746     		mov	r7, r0
 1757              	.LVL200:
 118:Lib/lvgl/src/widgets/slider/lv_slider.c ****         lv_hit_test_info_t * info = lv_event_get_param(e);
 1758              		.loc 1 118 5 is_stmt 1 view .LVU552
 118:Lib/lvgl/src/widgets/slider/lv_slider.c ****         lv_hit_test_info_t * info = lv_event_get_param(e);
ARM GAS  C:\Users\Alex\AppData\Local\Temp\cc5XGeRL.s 			page 65


 1759              		.loc 1 118 7 is_stmt 0 view .LVU553
 1760 002e 122E     		cmp	r6, #18
 1761 0030 5CD0     		beq	.L131
 135:Lib/lvgl/src/widgets/slider/lv_slider.c ****         /*Save the pressed coordinates*/
 1762              		.loc 1 135 10 is_stmt 1 view .LVU554
 1763 0032 013E     		subs	r6, r6, #1
 1764              	.LVL201:
 135:Lib/lvgl/src/widgets/slider/lv_slider.c ****         /*Save the pressed coordinates*/
 1765              		.loc 1 135 10 is_stmt 0 view .LVU555
 1766 0034 2A2E     		cmp	r6, #42
 1767 0036 ECD8     		bhi	.L98
 1768 0038 01A3     		adr	r3, .L104
 1769 003a 53F826F0 		ldr	pc, [r3, r6, lsl #2]
 1770 003e 00BF     		.p2align 2
 1771              	.L104:
 1772 0040 65010000 		.word	.L111+1
 1773 0044 81010000 		.word	.L110+1
 1774 0048 8B010000 		.word	.L109+1
 1775 004c 13000000 		.word	.L98+1
 1776 0050 13000000 		.word	.L98+1
 1777 0054 13000000 		.word	.L98+1
 1778 0058 13000000 		.word	.L98+1
 1779 005c 8B010000 		.word	.L109+1
 1780 0060 13000000 		.word	.L98+1
 1781 0064 13000000 		.word	.L98+1
 1782 0068 13000000 		.word	.L98+1
 1783 006c 13000000 		.word	.L98+1
 1784 0070 13000000 		.word	.L98+1
 1785 0074 61030000 		.word	.L108+1
 1786 0078 2F020000 		.word	.L107+1
 1787 007c 13000000 		.word	.L98+1
 1788 0080 13000000 		.word	.L98+1
 1789 0084 13000000 		.word	.L98+1
 1790 0088 13000000 		.word	.L98+1
 1791 008c 13000000 		.word	.L98+1
 1792 0090 89020000 		.word	.L106+1
 1793 0094 13000000 		.word	.L98+1
 1794 0098 DF030000 		.word	.L105+1
 1795 009c 13000000 		.word	.L98+1
 1796 00a0 13000000 		.word	.L98+1
 1797 00a4 13000000 		.word	.L98+1
 1798 00a8 13000000 		.word	.L98+1
 1799 00ac 13000000 		.word	.L98+1
 1800 00b0 13000000 		.word	.L98+1
 1801 00b4 13000000 		.word	.L98+1
 1802 00b8 13000000 		.word	.L98+1
 1803 00bc 13000000 		.word	.L98+1
 1804 00c0 13000000 		.word	.L98+1
 1805 00c4 13000000 		.word	.L98+1
 1806 00c8 13000000 		.word	.L98+1
 1807 00cc 13000000 		.word	.L98+1
 1808 00d0 13000000 		.word	.L98+1
 1809 00d4 13000000 		.word	.L98+1
 1810 00d8 13000000 		.word	.L98+1
 1811 00dc 13000000 		.word	.L98+1
 1812 00e0 13000000 		.word	.L98+1
 1813 00e4 13000000 		.word	.L98+1
ARM GAS  C:\Users\Alex\AppData\Local\Temp\cc5XGeRL.s 			page 66


 1814 00e8 4F020000 		.word	.L103+1
 1815              	.LVL202:
 1816              		.p2align 1
 1817              	.L131:
 1818              	.LBB120:
 119:Lib/lvgl/src/widgets/slider/lv_slider.c ****         int32_t ext_click_area = obj->spec_attr ? obj->spec_attr->ext_click_pad : 0;
 1819              		.loc 1 119 9 is_stmt 1 view .LVU556
 119:Lib/lvgl/src/widgets/slider/lv_slider.c ****         int32_t ext_click_area = obj->spec_attr ? obj->spec_attr->ext_click_pad : 0;
 1820              		.loc 1 119 37 is_stmt 0 view .LVU557
 1821 00ec 2046     		mov	r0, r4
 1822 00ee FFF7FEFF 		bl	lv_event_get_param
 1823              	.LVL203:
 1824 00f2 0446     		mov	r4, r0
 1825              	.LVL204:
 120:Lib/lvgl/src/widgets/slider/lv_slider.c **** 
 1826              		.loc 1 120 9 is_stmt 1 view .LVU558
 120:Lib/lvgl/src/widgets/slider/lv_slider.c **** 
 1827              		.loc 1 120 37 is_stmt 0 view .LVU559
 1828 00f4 AB68     		ldr	r3, [r5, #8]
 120:Lib/lvgl/src/widgets/slider/lv_slider.c **** 
 1829              		.loc 1 120 81 view .LVU560
 1830 00f6 002B     		cmp	r3, #0
 1831 00f8 32D0     		beq	.L127
 120:Lib/lvgl/src/widgets/slider/lv_slider.c **** 
 1832              		.loc 1 120 81 discriminator 1 view .LVU561
 1833 00fa 1E6A     		ldr	r6, [r3, #32]
 1834              	.LVL205:
 1835              	.L101:
 123:Lib/lvgl/src/widgets/slider/lv_slider.c ****         lv_area_copy(&a, &slider->right_knob_area);
 1836              		.loc 1 123 9 is_stmt 1 discriminator 4 view .LVU562
 124:Lib/lvgl/src/widgets/slider/lv_slider.c ****         lv_area_increase(&a, ext_click_area, ext_click_area);
 1837              		.loc 1 124 9 discriminator 4 view .LVU563
 1838              	.LBB121:
 1839              	.LBI121:
 126:c:\users\alex\eclipse-workspace\lvgs_test\lib\lvgl\src\misc\lv_area.h **** {
 1840              		.loc 4 126 20 discriminator 4 view .LVU564
 1841              	.LBB122:
 128:c:\users\alex\eclipse-workspace\lvgs_test\lib\lvgl\src\misc\lv_area.h ****     dest->y1 = src->y1;
 1842              		.loc 4 128 5 discriminator 4 view .LVU565
 128:c:\users\alex\eclipse-workspace\lvgs_test\lib\lvgl\src\misc\lv_area.h ****     dest->y1 = src->y1;
 1843              		.loc 4 128 19 is_stmt 0 discriminator 4 view .LVU566
 1844 00fc D5F88430 		ldr	r3, [r5, #132]
 128:c:\users\alex\eclipse-workspace\lvgs_test\lib\lvgl\src\misc\lv_area.h ****     dest->y1 = src->y1;
 1845              		.loc 4 128 14 discriminator 4 view .LVU567
 1846 0100 0293     		str	r3, [sp, #8]
 129:c:\users\alex\eclipse-workspace\lvgs_test\lib\lvgl\src\misc\lv_area.h ****     dest->x2 = src->x2;
 1847              		.loc 4 129 5 is_stmt 1 discriminator 4 view .LVU568
 129:c:\users\alex\eclipse-workspace\lvgs_test\lib\lvgl\src\misc\lv_area.h ****     dest->x2 = src->x2;
 1848              		.loc 4 129 19 is_stmt 0 discriminator 4 view .LVU569
 1849 0102 D5F88830 		ldr	r3, [r5, #136]
 129:c:\users\alex\eclipse-workspace\lvgs_test\lib\lvgl\src\misc\lv_area.h ****     dest->x2 = src->x2;
 1850              		.loc 4 129 14 discriminator 4 view .LVU570
 1851 0106 0393     		str	r3, [sp, #12]
 130:c:\users\alex\eclipse-workspace\lvgs_test\lib\lvgl\src\misc\lv_area.h ****     dest->y2 = src->y2;
 1852              		.loc 4 130 5 is_stmt 1 discriminator 4 view .LVU571
 130:c:\users\alex\eclipse-workspace\lvgs_test\lib\lvgl\src\misc\lv_area.h ****     dest->y2 = src->y2;
 1853              		.loc 4 130 19 is_stmt 0 discriminator 4 view .LVU572
ARM GAS  C:\Users\Alex\AppData\Local\Temp\cc5XGeRL.s 			page 67


 1854 0108 D5F88C30 		ldr	r3, [r5, #140]
 130:c:\users\alex\eclipse-workspace\lvgs_test\lib\lvgl\src\misc\lv_area.h ****     dest->y2 = src->y2;
 1855              		.loc 4 130 14 discriminator 4 view .LVU573
 1856 010c 0493     		str	r3, [sp, #16]
 1857              		.loc 4 131 5 is_stmt 1 discriminator 4 view .LVU574
 1858              		.loc 4 131 19 is_stmt 0 discriminator 4 view .LVU575
 1859 010e D5F89030 		ldr	r3, [r5, #144]
 1860              		.loc 4 131 14 discriminator 4 view .LVU576
 1861 0112 0593     		str	r3, [sp, #20]
 1862              	.LVL206:
 1863              		.loc 4 131 14 discriminator 4 view .LVU577
 1864              	.LBE122:
 1865              	.LBE121:
 125:Lib/lvgl/src/widgets/slider/lv_slider.c ****         info->res = _lv_area_is_point_on(&a, info->point, 0);
 1866              		.loc 1 125 9 is_stmt 1 discriminator 4 view .LVU578
 1867 0114 3246     		mov	r2, r6
 1868 0116 3146     		mov	r1, r6
 1869 0118 02A8     		add	r0, sp, #8
 1870              	.LVL207:
 125:Lib/lvgl/src/widgets/slider/lv_slider.c ****         info->res = _lv_area_is_point_on(&a, info->point, 0);
 1871              		.loc 1 125 9 is_stmt 0 discriminator 4 view .LVU579
 1872 011a FFF7FEFF 		bl	lv_area_increase
 1873              	.LVL208:
 126:Lib/lvgl/src/widgets/slider/lv_slider.c **** 
 1874              		.loc 1 126 9 is_stmt 1 discriminator 4 view .LVU580
 126:Lib/lvgl/src/widgets/slider/lv_slider.c **** 
 1875              		.loc 1 126 21 is_stmt 0 discriminator 4 view .LVU581
 1876 011e 0022     		movs	r2, #0
 1877 0120 2168     		ldr	r1, [r4]
 1878 0122 02A8     		add	r0, sp, #8
 1879 0124 FFF7FEFF 		bl	_lv_area_is_point_on
 1880              	.LVL209:
 126:Lib/lvgl/src/widgets/slider/lv_slider.c **** 
 1881              		.loc 1 126 19 discriminator 4 view .LVU582
 1882 0128 2071     		strb	r0, [r4, #4]
 129:Lib/lvgl/src/widgets/slider/lv_slider.c ****             lv_area_copy(&a, &slider->left_knob_area);
 1883              		.loc 1 129 9 is_stmt 1 discriminator 4 view .LVU583
 129:Lib/lvgl/src/widgets/slider/lv_slider.c ****             lv_area_copy(&a, &slider->left_knob_area);
 1884              		.loc 1 129 11 is_stmt 0 discriminator 4 view .LVU584
 1885 012a 0028     		cmp	r0, #0
 1886 012c 7FF471AF 		bne	.L98
 129:Lib/lvgl/src/widgets/slider/lv_slider.c ****             lv_area_copy(&a, &slider->left_knob_area);
 1887              		.loc 1 129 33 discriminator 1 view .LVU585
 1888 0130 022F     		cmp	r7, #2
 1889 0132 7FF46EAF 		bne	.L98
 130:Lib/lvgl/src/widgets/slider/lv_slider.c ****             lv_area_increase(&a, ext_click_area, ext_click_area);
 1890              		.loc 1 130 13 is_stmt 1 view .LVU586
 1891              	.LVL210:
 1892              	.LBB123:
 1893              	.LBI123:
 126:c:\users\alex\eclipse-workspace\lvgs_test\lib\lvgl\src\misc\lv_area.h **** {
 1894              		.loc 4 126 20 view .LVU587
 1895              	.LBB124:
 128:c:\users\alex\eclipse-workspace\lvgs_test\lib\lvgl\src\misc\lv_area.h ****     dest->y1 = src->y1;
 1896              		.loc 4 128 5 view .LVU588
 128:c:\users\alex\eclipse-workspace\lvgs_test\lib\lvgl\src\misc\lv_area.h ****     dest->y1 = src->y1;
 1897              		.loc 4 128 19 is_stmt 0 view .LVU589
ARM GAS  C:\Users\Alex\AppData\Local\Temp\cc5XGeRL.s 			page 68


 1898 0136 6B6F     		ldr	r3, [r5, #116]
 128:c:\users\alex\eclipse-workspace\lvgs_test\lib\lvgl\src\misc\lv_area.h ****     dest->y1 = src->y1;
 1899              		.loc 4 128 14 view .LVU590
 1900 0138 0293     		str	r3, [sp, #8]
 129:c:\users\alex\eclipse-workspace\lvgs_test\lib\lvgl\src\misc\lv_area.h ****     dest->x2 = src->x2;
 1901              		.loc 4 129 5 is_stmt 1 view .LVU591
 129:c:\users\alex\eclipse-workspace\lvgs_test\lib\lvgl\src\misc\lv_area.h ****     dest->x2 = src->x2;
 1902              		.loc 4 129 19 is_stmt 0 view .LVU592
 1903 013a AB6F     		ldr	r3, [r5, #120]
 129:c:\users\alex\eclipse-workspace\lvgs_test\lib\lvgl\src\misc\lv_area.h ****     dest->x2 = src->x2;
 1904              		.loc 4 129 14 view .LVU593
 1905 013c 0393     		str	r3, [sp, #12]
 130:c:\users\alex\eclipse-workspace\lvgs_test\lib\lvgl\src\misc\lv_area.h ****     dest->y2 = src->y2;
 1906              		.loc 4 130 5 is_stmt 1 view .LVU594
 130:c:\users\alex\eclipse-workspace\lvgs_test\lib\lvgl\src\misc\lv_area.h ****     dest->y2 = src->y2;
 1907              		.loc 4 130 19 is_stmt 0 view .LVU595
 1908 013e EB6F     		ldr	r3, [r5, #124]
 130:c:\users\alex\eclipse-workspace\lvgs_test\lib\lvgl\src\misc\lv_area.h ****     dest->y2 = src->y2;
 1909              		.loc 4 130 14 view .LVU596
 1910 0140 0493     		str	r3, [sp, #16]
 1911              		.loc 4 131 5 is_stmt 1 view .LVU597
 1912              		.loc 4 131 19 is_stmt 0 view .LVU598
 1913 0142 D5F88030 		ldr	r3, [r5, #128]
 1914              		.loc 4 131 14 view .LVU599
 1915 0146 0593     		str	r3, [sp, #20]
 1916              	.LVL211:
 1917              		.loc 4 131 14 view .LVU600
 1918              	.LBE124:
 1919              	.LBE123:
 131:Lib/lvgl/src/widgets/slider/lv_slider.c ****             info->res = _lv_area_is_point_on(&a, info->point, 0);
 1920              		.loc 1 131 13 is_stmt 1 view .LVU601
 1921 0148 3246     		mov	r2, r6
 1922 014a 3146     		mov	r1, r6
 1923 014c 02A8     		add	r0, sp, #8
 1924 014e FFF7FEFF 		bl	lv_area_increase
 1925              	.LVL212:
 132:Lib/lvgl/src/widgets/slider/lv_slider.c ****         }
 1926              		.loc 1 132 13 view .LVU602
 132:Lib/lvgl/src/widgets/slider/lv_slider.c ****         }
 1927              		.loc 1 132 25 is_stmt 0 view .LVU603
 1928 0152 0022     		movs	r2, #0
 1929 0154 2168     		ldr	r1, [r4]
 1930 0156 02A8     		add	r0, sp, #8
 1931 0158 FFF7FEFF 		bl	_lv_area_is_point_on
 1932              	.LVL213:
 132:Lib/lvgl/src/widgets/slider/lv_slider.c ****         }
 1933              		.loc 1 132 23 view .LVU604
 1934 015c 2071     		strb	r0, [r4, #4]
 1935 015e 58E7     		b	.L98
 1936              	.LVL214:
 1937              	.L127:
 120:Lib/lvgl/src/widgets/slider/lv_slider.c **** 
 1938              		.loc 1 120 81 view .LVU605
 1939 0160 0026     		movs	r6, #0
 1940              	.LVL215:
 120:Lib/lvgl/src/widgets/slider/lv_slider.c **** 
 1941              		.loc 1 120 81 view .LVU606
ARM GAS  C:\Users\Alex\AppData\Local\Temp\cc5XGeRL.s 			page 69


 1942 0162 CBE7     		b	.L101
 1943              	.LVL216:
 1944              	.L111:
 120:Lib/lvgl/src/widgets/slider/lv_slider.c **** 
 1945              		.loc 1 120 81 view .LVU607
 1946              	.LBE120:
 137:Lib/lvgl/src/widgets/slider/lv_slider.c ****         lv_obj_transform_point(obj, &slider->pressed_point, true, true);
 1947              		.loc 1 137 9 is_stmt 1 view .LVU608
 137:Lib/lvgl/src/widgets/slider/lv_slider.c ****         lv_obj_transform_point(obj, &slider->pressed_point, true, true);
 1948              		.loc 1 137 28 is_stmt 0 view .LVU609
 1949 0164 FFF7FEFF 		bl	lv_indev_active
 1950              	.LVL217:
 137:Lib/lvgl/src/widgets/slider/lv_slider.c ****         lv_obj_transform_point(obj, &slider->pressed_point, true, true);
 1951              		.loc 1 137 9 view .LVU610
 1952 0168 05F19404 		add	r4, r5, #148
 1953              	.LVL218:
 137:Lib/lvgl/src/widgets/slider/lv_slider.c ****         lv_obj_transform_point(obj, &slider->pressed_point, true, true);
 1954              		.loc 1 137 9 view .LVU611
 1955 016c 2146     		mov	r1, r4
 1956 016e FFF7FEFF 		bl	lv_indev_get_point
 1957              	.LVL219:
 138:Lib/lvgl/src/widgets/slider/lv_slider.c ****     }
 1958              		.loc 1 138 9 is_stmt 1 view .LVU612
 1959 0172 0123     		movs	r3, #1
 1960 0174 1A46     		mov	r2, r3
 1961 0176 2146     		mov	r1, r4
 1962 0178 2846     		mov	r0, r5
 1963 017a FFF7FEFF 		bl	lv_obj_transform_point
 1964              	.LVL220:
 1965 017e 48E7     		b	.L98
 1966              	.LVL221:
 1967              	.L110:
 141:Lib/lvgl/src/widgets/slider/lv_slider.c ****     }
 1968              		.loc 1 141 9 view .LVU613
 1969 0180 0121     		movs	r1, #1
 1970 0182 2846     		mov	r0, r5
 1971 0184 FFF7FEFF 		bl	update_knob_pos
 1972              	.LVL222:
 1973 0188 43E7     		b	.L98
 1974              	.L109:
 1975              	.LBB125:
 144:Lib/lvgl/src/widgets/slider/lv_slider.c ****         slider->dragging = false;
 1976              		.loc 1 144 9 view .LVU614
 1977 018a 0021     		movs	r1, #0
 1978 018c 2846     		mov	r0, r5
 1979 018e FFF7FEFF 		bl	update_knob_pos
 1980              	.LVL223:
 145:Lib/lvgl/src/widgets/slider/lv_slider.c ****         slider->value_to_set = NULL;
 1981              		.loc 1 145 9 view .LVU615
 145:Lib/lvgl/src/widgets/slider/lv_slider.c ****         slider->value_to_set = NULL;
 1982              		.loc 1 145 26 is_stmt 0 view .LVU616
 1983 0192 95F8A030 		ldrb	r3, [r5, #160]	@ zero_extendqisi2
 1984 0196 6FF30003 		bfc	r3, #0, #1
 1985 019a 85F8A030 		strb	r3, [r5, #160]
 146:Lib/lvgl/src/widgets/slider/lv_slider.c **** 
 1986              		.loc 1 146 9 is_stmt 1 view .LVU617
 146:Lib/lvgl/src/widgets/slider/lv_slider.c **** 
ARM GAS  C:\Users\Alex\AppData\Local\Temp\cc5XGeRL.s 			page 70


 1987              		.loc 1 146 30 is_stmt 0 view .LVU618
 1988 019e 0023     		movs	r3, #0
 1989 01a0 C5F89C30 		str	r3, [r5, #156]
 148:Lib/lvgl/src/widgets/slider/lv_slider.c **** 
 1990              		.loc 1 148 9 is_stmt 1 view .LVU619
 1991 01a4 2846     		mov	r0, r5
 1992 01a6 FFF7FEFF 		bl	lv_obj_invalidate
 1993              	.LVL224:
 151:Lib/lvgl/src/widgets/slider/lv_slider.c ****         bool editing     = lv_group_get_editing(g);
 1994              		.loc 1 151 9 view .LVU620
 151:Lib/lvgl/src/widgets/slider/lv_slider.c ****         bool editing     = lv_group_get_editing(g);
 1995              		.loc 1 151 28 is_stmt 0 view .LVU621
 1996 01aa 2846     		mov	r0, r5
 1997 01ac FFF7FEFF 		bl	lv_obj_get_group
 1998              	.LVL225:
 1999 01b0 0646     		mov	r6, r0
 2000              	.LVL226:
 152:Lib/lvgl/src/widgets/slider/lv_slider.c ****         lv_indev_type_t indev_type = lv_indev_get_type(lv_indev_active());
 2001              		.loc 1 152 9 is_stmt 1 view .LVU622
 152:Lib/lvgl/src/widgets/slider/lv_slider.c ****         lv_indev_type_t indev_type = lv_indev_get_type(lv_indev_active());
 2002              		.loc 1 152 28 is_stmt 0 view .LVU623
 2003 01b2 FFF7FEFF 		bl	lv_group_get_editing
 2004              	.LVL227:
 152:Lib/lvgl/src/widgets/slider/lv_slider.c ****         lv_indev_type_t indev_type = lv_indev_get_type(lv_indev_active());
 2005              		.loc 1 152 28 view .LVU624
 2006 01b6 0446     		mov	r4, r0
 2007              	.LVL228:
 153:Lib/lvgl/src/widgets/slider/lv_slider.c ****         if(indev_type == LV_INDEV_TYPE_ENCODER) {
 2008              		.loc 1 153 9 is_stmt 1 view .LVU625
 153:Lib/lvgl/src/widgets/slider/lv_slider.c ****         if(indev_type == LV_INDEV_TYPE_ENCODER) {
 2009              		.loc 1 153 56 is_stmt 0 view .LVU626
 2010 01b8 FFF7FEFF 		bl	lv_indev_active
 2011              	.LVL229:
 153:Lib/lvgl/src/widgets/slider/lv_slider.c ****         if(indev_type == LV_INDEV_TYPE_ENCODER) {
 2012              		.loc 1 153 38 view .LVU627
 2013 01bc FFF7FEFF 		bl	lv_indev_get_type
 2014              	.LVL230:
 154:Lib/lvgl/src/widgets/slider/lv_slider.c ****             if(editing) {
 2015              		.loc 1 154 9 is_stmt 1 view .LVU628
 154:Lib/lvgl/src/widgets/slider/lv_slider.c ****             if(editing) {
 2016              		.loc 1 154 11 is_stmt 0 view .LVU629
 2017 01c0 0428     		cmp	r0, #4
 2018 01c2 0CD0     		beq	.L132
 168:Lib/lvgl/src/widgets/slider/lv_slider.c ****             if(is_slider_horizontal(obj)) lv_obj_add_flag(obj, LV_OBJ_FLAG_SCROLL_CHAIN_VER);
 2019              		.loc 1 168 14 is_stmt 1 view .LVU630
 168:Lib/lvgl/src/widgets/slider/lv_slider.c ****             if(is_slider_horizontal(obj)) lv_obj_add_flag(obj, LV_OBJ_FLAG_SCROLL_CHAIN_VER);
 2020              		.loc 1 168 16 is_stmt 0 view .LVU631
 2021 01c4 0128     		cmp	r0, #1
 2022 01c6 7FF424AF 		bne	.L98
 169:Lib/lvgl/src/widgets/slider/lv_slider.c ****             else  lv_obj_add_flag(obj, LV_OBJ_FLAG_SCROLL_CHAIN_HOR);
 2023              		.loc 1 169 13 is_stmt 1 view .LVU632
 169:Lib/lvgl/src/widgets/slider/lv_slider.c ****             else  lv_obj_add_flag(obj, LV_OBJ_FLAG_SCROLL_CHAIN_HOR);
 2024              		.loc 1 169 16 is_stmt 0 view .LVU633
 2025 01ca 2846     		mov	r0, r5
 2026              	.LVL231:
 169:Lib/lvgl/src/widgets/slider/lv_slider.c ****             else  lv_obj_add_flag(obj, LV_OBJ_FLAG_SCROLL_CHAIN_HOR);
 2027              		.loc 1 169 16 view .LVU634
ARM GAS  C:\Users\Alex\AppData\Local\Temp\cc5XGeRL.s 			page 71


 2028 01cc FFF7FEFF 		bl	is_slider_horizontal
 2029              	.LVL232:
 169:Lib/lvgl/src/widgets/slider/lv_slider.c ****             else  lv_obj_add_flag(obj, LV_OBJ_FLAG_SCROLL_CHAIN_HOR);
 2030              		.loc 1 169 15 view .LVU635
 2031 01d0 38B3     		cbz	r0, .L115
 169:Lib/lvgl/src/widgets/slider/lv_slider.c ****             else  lv_obj_add_flag(obj, LV_OBJ_FLAG_SCROLL_CHAIN_HOR);
 2032              		.loc 1 169 43 is_stmt 1 discriminator 1 view .LVU636
 2033 01d2 4FF40071 		mov	r1, #512
 2034 01d6 2846     		mov	r0, r5
 2035 01d8 FFF7FEFF 		bl	lv_obj_add_flag
 2036              	.LVL233:
 2037 01dc 19E7     		b	.L98
 2038              	.LVL234:
 2039              	.L132:
 155:Lib/lvgl/src/widgets/slider/lv_slider.c ****                 if(lv_slider_get_mode(obj) == LV_SLIDER_MODE_RANGE) {
 2040              		.loc 1 155 13 view .LVU637
 155:Lib/lvgl/src/widgets/slider/lv_slider.c ****                 if(lv_slider_get_mode(obj) == LV_SLIDER_MODE_RANGE) {
 2041              		.loc 1 155 15 is_stmt 0 view .LVU638
 2042 01de 002C     		cmp	r4, #0
 2043 01e0 3FF417AF 		beq	.L98
 156:Lib/lvgl/src/widgets/slider/lv_slider.c ****                     if(slider->left_knob_focus == 0) slider->left_knob_focus = 1;
 2044              		.loc 1 156 17 is_stmt 1 view .LVU639
 156:Lib/lvgl/src/widgets/slider/lv_slider.c ****                     if(slider->left_knob_focus == 0) slider->left_knob_focus = 1;
 2045              		.loc 1 156 20 is_stmt 0 view .LVU640
 2046 01e4 2846     		mov	r0, r5
 2047              	.LVL235:
 156:Lib/lvgl/src/widgets/slider/lv_slider.c ****                     if(slider->left_knob_focus == 0) slider->left_knob_focus = 1;
 2048              		.loc 1 156 20 view .LVU641
 2049 01e6 FFF7FEFF 		bl	lv_slider_get_mode
 2050              	.LVL236:
 156:Lib/lvgl/src/widgets/slider/lv_slider.c ****                     if(slider->left_knob_focus == 0) slider->left_knob_focus = 1;
 2051              		.loc 1 156 19 view .LVU642
 2052 01ea 0228     		cmp	r0, #2
 2053 01ec 14D1     		bne	.L113
 157:Lib/lvgl/src/widgets/slider/lv_slider.c ****                     else {
 2054              		.loc 1 157 21 is_stmt 1 view .LVU643
 157:Lib/lvgl/src/widgets/slider/lv_slider.c ****                     else {
 2055              		.loc 1 157 48 is_stmt 0 view .LVU644
 2056 01ee 95F8A030 		ldrb	r3, [r5, #160]	@ zero_extendqisi2
 157:Lib/lvgl/src/widgets/slider/lv_slider.c ****                     else {
 2057              		.loc 1 157 23 view .LVU645
 2058 01f2 13F0020F 		tst	r3, #2
 2059 01f6 04D1     		bne	.L114
 157:Lib/lvgl/src/widgets/slider/lv_slider.c ****                     else {
 2060              		.loc 1 157 54 is_stmt 1 discriminator 1 view .LVU646
 157:Lib/lvgl/src/widgets/slider/lv_slider.c ****                     else {
 2061              		.loc 1 157 78 is_stmt 0 discriminator 1 view .LVU647
 2062 01f8 43F00203 		orr	r3, r3, #2
 2063 01fc 85F8A030 		strb	r3, [r5, #160]
 2064 0200 07E7     		b	.L98
 2065              	.L114:
 159:Lib/lvgl/src/widgets/slider/lv_slider.c ****                         lv_group_set_editing(g, false);
 2066              		.loc 1 159 25 is_stmt 1 view .LVU648
 159:Lib/lvgl/src/widgets/slider/lv_slider.c ****                         lv_group_set_editing(g, false);
 2067              		.loc 1 159 49 is_stmt 0 view .LVU649
 2068 0202 95F8A030 		ldrb	r3, [r5, #160]	@ zero_extendqisi2
 2069 0206 6FF34103 		bfc	r3, #1, #1
ARM GAS  C:\Users\Alex\AppData\Local\Temp\cc5XGeRL.s 			page 72


 2070 020a 85F8A030 		strb	r3, [r5, #160]
 160:Lib/lvgl/src/widgets/slider/lv_slider.c ****                     }
 2071              		.loc 1 160 25 is_stmt 1 view .LVU650
 2072 020e 0021     		movs	r1, #0
 2073 0210 3046     		mov	r0, r6
 2074 0212 FFF7FEFF 		bl	lv_group_set_editing
 2075              	.LVL237:
 2076 0216 FCE6     		b	.L98
 2077              	.L113:
 164:Lib/lvgl/src/widgets/slider/lv_slider.c ****                 }
 2078              		.loc 1 164 21 view .LVU651
 2079 0218 0021     		movs	r1, #0
 2080 021a 3046     		mov	r0, r6
 2081 021c FFF7FEFF 		bl	lv_group_set_editing
 2082              	.LVL238:
 2083 0220 F7E6     		b	.L98
 2084              	.L115:
 170:Lib/lvgl/src/widgets/slider/lv_slider.c ****         }
 2085              		.loc 1 170 19 view .LVU652
 2086 0222 4FF48071 		mov	r1, #256
 2087 0226 2846     		mov	r0, r5
 2088 0228 FFF7FEFF 		bl	lv_obj_add_flag
 2089              	.LVL239:
 2090 022c F1E6     		b	.L98
 2091              	.LVL240:
 2092              	.L107:
 170:Lib/lvgl/src/widgets/slider/lv_slider.c ****         }
 2093              		.loc 1 170 19 is_stmt 0 view .LVU653
 2094              	.LBE125:
 2095              	.LBB126:
 174:Lib/lvgl/src/widgets/slider/lv_slider.c ****         if(indev_type == LV_INDEV_TYPE_ENCODER || indev_type == LV_INDEV_TYPE_KEYPAD) {
 2096              		.loc 1 174 9 is_stmt 1 view .LVU654
 174:Lib/lvgl/src/widgets/slider/lv_slider.c ****         if(indev_type == LV_INDEV_TYPE_ENCODER || indev_type == LV_INDEV_TYPE_KEYPAD) {
 2097              		.loc 1 174 56 is_stmt 0 view .LVU655
 2098 022e FFF7FEFF 		bl	lv_indev_active
 2099              	.LVL241:
 174:Lib/lvgl/src/widgets/slider/lv_slider.c ****         if(indev_type == LV_INDEV_TYPE_ENCODER || indev_type == LV_INDEV_TYPE_KEYPAD) {
 2100              		.loc 1 174 38 view .LVU656
 2101 0232 FFF7FEFF 		bl	lv_indev_get_type
 2102              	.LVL242:
 175:Lib/lvgl/src/widgets/slider/lv_slider.c ****             slider->left_knob_focus = 0;
 2103              		.loc 1 175 9 is_stmt 1 view .LVU657
 175:Lib/lvgl/src/widgets/slider/lv_slider.c ****             slider->left_knob_focus = 0;
 2104              		.loc 1 175 11 is_stmt 0 view .LVU658
 2105 0236 0428     		cmp	r0, #4
 2106 0238 02D0     		beq	.L116
 175:Lib/lvgl/src/widgets/slider/lv_slider.c ****             slider->left_knob_focus = 0;
 2107              		.loc 1 175 48 discriminator 1 view .LVU659
 2108 023a 0228     		cmp	r0, #2
 2109 023c 7FF4E9AE 		bne	.L98
 2110              	.L116:
 176:Lib/lvgl/src/widgets/slider/lv_slider.c ****         }
 2111              		.loc 1 176 13 is_stmt 1 view .LVU660
 176:Lib/lvgl/src/widgets/slider/lv_slider.c ****         }
 2112              		.loc 1 176 37 is_stmt 0 view .LVU661
 2113 0240 95F8A030 		ldrb	r3, [r5, #160]	@ zero_extendqisi2
 2114 0244 6FF34103 		bfc	r3, #1, #1
ARM GAS  C:\Users\Alex\AppData\Local\Temp\cc5XGeRL.s 			page 73


 2115 0248 85F8A030 		strb	r3, [r5, #160]
 2116 024c E1E6     		b	.L98
 2117              	.LVL243:
 2118              	.L103:
 176:Lib/lvgl/src/widgets/slider/lv_slider.c ****         }
 2119              		.loc 1 176 37 view .LVU662
 2120              	.LBE126:
 180:Lib/lvgl/src/widgets/slider/lv_slider.c ****             lv_obj_add_flag(obj, LV_OBJ_FLAG_SCROLL_CHAIN_VER);
 2121              		.loc 1 180 9 is_stmt 1 view .LVU663
 180:Lib/lvgl/src/widgets/slider/lv_slider.c ****             lv_obj_add_flag(obj, LV_OBJ_FLAG_SCROLL_CHAIN_VER);
 2122              		.loc 1 180 12 is_stmt 0 view .LVU664
 2123 024e 2846     		mov	r0, r5
 2124 0250 FFF7FEFF 		bl	is_slider_horizontal
 2125              	.LVL244:
 180:Lib/lvgl/src/widgets/slider/lv_slider.c ****             lv_obj_add_flag(obj, LV_OBJ_FLAG_SCROLL_CHAIN_VER);
 2126              		.loc 1 180 11 view .LVU665
 2127 0254 68B1     		cbz	r0, .L117
 181:Lib/lvgl/src/widgets/slider/lv_slider.c ****             lv_obj_remove_flag(obj, LV_OBJ_FLAG_SCROLL_CHAIN_HOR);
 2128              		.loc 1 181 13 is_stmt 1 view .LVU666
 2129 0256 4FF40071 		mov	r1, #512
 2130 025a 2846     		mov	r0, r5
 2131 025c FFF7FEFF 		bl	lv_obj_add_flag
 2132              	.LVL245:
 182:Lib/lvgl/src/widgets/slider/lv_slider.c ****         }
 2133              		.loc 1 182 13 view .LVU667
 2134 0260 4FF48071 		mov	r1, #256
 2135 0264 2846     		mov	r0, r5
 2136 0266 FFF7FEFF 		bl	lv_obj_remove_flag
 2137              	.LVL246:
 2138              	.L118:
 188:Lib/lvgl/src/widgets/slider/lv_slider.c ****     }
 2139              		.loc 1 188 9 view .LVU668
 2140 026a 2846     		mov	r0, r5
 2141 026c FFF7FEFF 		bl	lv_obj_refresh_ext_draw_size
 2142              	.LVL247:
 2143 0270 CFE6     		b	.L98
 2144              	.L117:
 185:Lib/lvgl/src/widgets/slider/lv_slider.c ****             lv_obj_remove_flag(obj, LV_OBJ_FLAG_SCROLL_CHAIN_VER);
 2145              		.loc 1 185 13 view .LVU669
 2146 0272 4FF48071 		mov	r1, #256
 2147 0276 2846     		mov	r0, r5
 2148 0278 FFF7FEFF 		bl	lv_obj_add_flag
 2149              	.LVL248:
 186:Lib/lvgl/src/widgets/slider/lv_slider.c ****         }
 2150              		.loc 1 186 13 view .LVU670
 2151 027c 4FF40071 		mov	r1, #512
 2152 0280 2846     		mov	r0, r5
 2153 0282 FFF7FEFF 		bl	lv_obj_remove_flag
 2154              	.LVL249:
 2155 0286 F0E7     		b	.L118
 2156              	.L106:
 2157              	.LBB127:
 191:Lib/lvgl/src/widgets/slider/lv_slider.c ****         int32_t knob_right = lv_obj_get_style_pad_right(obj, LV_PART_KNOB);
 2158              		.loc 1 191 9 view .LVU671
 2159              	.LVL250:
 2160              	.LBB128:
 2161              	.LBI128:
ARM GAS  C:\Users\Alex\AppData\Local\Temp\cc5XGeRL.s 			page 74


 154:Lib/lvgl/src/widgets/slider/../bar/../../core/lv_obj_style_gen.h **** {
 2162              		.loc 2 154 23 view .LVU672
 2163              	.LBB129:
 156:Lib/lvgl/src/widgets/slider/../bar/../../core/lv_obj_style_gen.h ****     return (int32_t)v.num;
 2164              		.loc 2 156 5 view .LVU673
 156:Lib/lvgl/src/widgets/slider/../bar/../../core/lv_obj_style_gen.h ****     return (int32_t)v.num;
 2165              		.loc 2 156 26 is_stmt 0 view .LVU674
 2166 0288 1222     		movs	r2, #18
 2167 028a 4FF44031 		mov	r1, #196608
 2168 028e 2846     		mov	r0, r5
 2169 0290 FFF7FEFF 		bl	lv_obj_get_style_prop
 2170              	.LVL251:
 2171 0294 8246     		mov	r10, r0
 2172 0296 0290     		str	r0, [sp, #8]
 157:Lib/lvgl/src/widgets/slider/../bar/../../core/lv_obj_style_gen.h **** }
 2173              		.loc 2 157 5 is_stmt 1 view .LVU675
 2174              	.LVL252:
 157:Lib/lvgl/src/widgets/slider/../bar/../../core/lv_obj_style_gen.h **** }
 2175              		.loc 2 157 5 is_stmt 0 view .LVU676
 2176              	.LBE129:
 2177              	.LBE128:
 192:Lib/lvgl/src/widgets/slider/lv_slider.c ****         int32_t knob_top = lv_obj_get_style_pad_top(obj, LV_PART_KNOB);
 2178              		.loc 1 192 9 is_stmt 1 view .LVU677
 2179              	.LBB130:
 2180              	.LBI130:
 160:Lib/lvgl/src/widgets/slider/../bar/../../core/lv_obj_style_gen.h **** {
 2181              		.loc 2 160 23 view .LVU678
 2182              	.LBB131:
 162:Lib/lvgl/src/widgets/slider/../bar/../../core/lv_obj_style_gen.h ****     return (int32_t)v.num;
 2183              		.loc 2 162 5 view .LVU679
 162:Lib/lvgl/src/widgets/slider/../bar/../../core/lv_obj_style_gen.h ****     return (int32_t)v.num;
 2184              		.loc 2 162 26 is_stmt 0 view .LVU680
 2185 0298 1322     		movs	r2, #19
 2186 029a 4FF44031 		mov	r1, #196608
 2187 029e 2846     		mov	r0, r5
 2188              	.LVL253:
 162:Lib/lvgl/src/widgets/slider/../bar/../../core/lv_obj_style_gen.h ****     return (int32_t)v.num;
 2189              		.loc 2 162 26 view .LVU681
 2190 02a0 FFF7FEFF 		bl	lv_obj_get_style_prop
 2191              	.LVL254:
 2192 02a4 0646     		mov	r6, r0
 2193 02a6 0290     		str	r0, [sp, #8]
 163:Lib/lvgl/src/widgets/slider/../bar/../../core/lv_obj_style_gen.h **** }
 2194              		.loc 2 163 5 is_stmt 1 view .LVU682
 2195              	.LVL255:
 163:Lib/lvgl/src/widgets/slider/../bar/../../core/lv_obj_style_gen.h **** }
 2196              		.loc 2 163 5 is_stmt 0 view .LVU683
 2197              	.LBE131:
 2198              	.LBE130:
 193:Lib/lvgl/src/widgets/slider/lv_slider.c ****         int32_t knob_bottom = lv_obj_get_style_pad_bottom(obj, LV_PART_KNOB);
 2199              		.loc 1 193 9 is_stmt 1 view .LVU684
 2200              	.LBB132:
 2201              	.LBI132:
 142:Lib/lvgl/src/widgets/slider/../bar/../../core/lv_obj_style_gen.h **** {
 2202              		.loc 2 142 23 view .LVU685
 2203              	.LBB133:
 144:Lib/lvgl/src/widgets/slider/../bar/../../core/lv_obj_style_gen.h ****     return (int32_t)v.num;
ARM GAS  C:\Users\Alex\AppData\Local\Temp\cc5XGeRL.s 			page 75


 2204              		.loc 2 144 5 view .LVU686
 144:Lib/lvgl/src/widgets/slider/../bar/../../core/lv_obj_style_gen.h ****     return (int32_t)v.num;
 2205              		.loc 2 144 26 is_stmt 0 view .LVU687
 2206 02a8 1022     		movs	r2, #16
 2207 02aa 4FF44031 		mov	r1, #196608
 2208 02ae 2846     		mov	r0, r5
 2209              	.LVL256:
 144:Lib/lvgl/src/widgets/slider/../bar/../../core/lv_obj_style_gen.h ****     return (int32_t)v.num;
 2210              		.loc 2 144 26 view .LVU688
 2211 02b0 FFF7FEFF 		bl	lv_obj_get_style_prop
 2212              	.LVL257:
 2213 02b4 8346     		mov	fp, r0
 2214 02b6 0290     		str	r0, [sp, #8]
 145:Lib/lvgl/src/widgets/slider/../bar/../../core/lv_obj_style_gen.h **** }
 2215              		.loc 2 145 5 is_stmt 1 view .LVU689
 2216              	.LVL258:
 145:Lib/lvgl/src/widgets/slider/../bar/../../core/lv_obj_style_gen.h **** }
 2217              		.loc 2 145 5 is_stmt 0 view .LVU690
 2218              	.LBE133:
 2219              	.LBE132:
 194:Lib/lvgl/src/widgets/slider/lv_slider.c **** 
 2220              		.loc 1 194 9 is_stmt 1 view .LVU691
 2221              	.LBB134:
 2222              	.LBI134:
 148:Lib/lvgl/src/widgets/slider/../bar/../../core/lv_obj_style_gen.h **** {
 2223              		.loc 2 148 23 view .LVU692
 2224              	.LBB135:
 150:Lib/lvgl/src/widgets/slider/../bar/../../core/lv_obj_style_gen.h ****     return (int32_t)v.num;
 2225              		.loc 2 150 5 view .LVU693
 150:Lib/lvgl/src/widgets/slider/../bar/../../core/lv_obj_style_gen.h ****     return (int32_t)v.num;
 2226              		.loc 2 150 26 is_stmt 0 view .LVU694
 2227 02b8 1122     		movs	r2, #17
 2228 02ba 4FF44031 		mov	r1, #196608
 2229 02be 2846     		mov	r0, r5
 2230              	.LVL259:
 150:Lib/lvgl/src/widgets/slider/../bar/../../core/lv_obj_style_gen.h ****     return (int32_t)v.num;
 2231              		.loc 2 150 26 view .LVU695
 2232 02c0 FFF7FEFF 		bl	lv_obj_get_style_prop
 2233              	.LVL260:
 2234 02c4 0746     		mov	r7, r0
 2235              	.LVL261:
 150:Lib/lvgl/src/widgets/slider/../bar/../../core/lv_obj_style_gen.h ****     return (int32_t)v.num;
 2236              		.loc 2 150 26 view .LVU696
 2237 02c6 0290     		str	r0, [sp, #8]
 151:Lib/lvgl/src/widgets/slider/../bar/../../core/lv_obj_style_gen.h **** }
 2238              		.loc 2 151 5 is_stmt 1 view .LVU697
 2239              	.LVL262:
 151:Lib/lvgl/src/widgets/slider/../bar/../../core/lv_obj_style_gen.h **** }
 2240              		.loc 2 151 5 is_stmt 0 view .LVU698
 2241              	.LBE135:
 2242              	.LBE134:
 197:Lib/lvgl/src/widgets/slider/lv_slider.c ****         int32_t trans_h = lv_obj_get_style_transform_height(obj, LV_PART_KNOB);
 2243              		.loc 1 197 9 is_stmt 1 view .LVU699
 2244              	.LBB136:
 2245              	.LBI136:
  76:Lib/lvgl/src/widgets/slider/../bar/../../core/lv_obj_style_gen.h **** {
 2246              		.loc 2 76 23 view .LVU700
ARM GAS  C:\Users\Alex\AppData\Local\Temp\cc5XGeRL.s 			page 76


 2247              	.LBB137:
  78:Lib/lvgl/src/widgets/slider/../bar/../../core/lv_obj_style_gen.h ****     return (int32_t)v.num;
 2248              		.loc 2 78 5 view .LVU701
  78:Lib/lvgl/src/widgets/slider/../bar/../../core/lv_obj_style_gen.h ****     return (int32_t)v.num;
 2249              		.loc 2 78 26 is_stmt 0 view .LVU702
 2250 02c8 6822     		movs	r2, #104
 2251 02ca 4FF44031 		mov	r1, #196608
 2252 02ce 2846     		mov	r0, r5
 2253              	.LVL263:
  78:Lib/lvgl/src/widgets/slider/../bar/../../core/lv_obj_style_gen.h ****     return (int32_t)v.num;
 2254              		.loc 2 78 26 view .LVU703
 2255 02d0 FFF7FEFF 		bl	lv_obj_get_style_prop
 2256              	.LVL264:
 2257 02d4 8146     		mov	r9, r0
 2258 02d6 0290     		str	r0, [sp, #8]
  79:Lib/lvgl/src/widgets/slider/../bar/../../core/lv_obj_style_gen.h **** }
 2259              		.loc 2 79 5 is_stmt 1 view .LVU704
 2260              	.LVL265:
  79:Lib/lvgl/src/widgets/slider/../bar/../../core/lv_obj_style_gen.h **** }
 2261              		.loc 2 79 5 is_stmt 0 view .LVU705
 2262              	.LBE137:
 2263              	.LBE136:
 198:Lib/lvgl/src/widgets/slider/lv_slider.c ****         int32_t knob_size = LV_MIN(lv_obj_get_width(obj) + 2 * trans_w, lv_obj_get_height(obj) + 2 
 2264              		.loc 1 198 9 is_stmt 1 view .LVU706
 2265              	.LBB138:
 2266              	.LBI138:
  82:Lib/lvgl/src/widgets/slider/../bar/../../core/lv_obj_style_gen.h **** {
 2267              		.loc 2 82 23 view .LVU707
 2268              	.LBB139:
  84:Lib/lvgl/src/widgets/slider/../bar/../../core/lv_obj_style_gen.h ****     return (int32_t)v.num;
 2269              		.loc 2 84 5 view .LVU708
  84:Lib/lvgl/src/widgets/slider/../bar/../../core/lv_obj_style_gen.h ****     return (int32_t)v.num;
 2270              		.loc 2 84 26 is_stmt 0 view .LVU709
 2271 02d8 6922     		movs	r2, #105
 2272 02da 4FF44031 		mov	r1, #196608
 2273 02de 2846     		mov	r0, r5
 2274              	.LVL266:
  84:Lib/lvgl/src/widgets/slider/../bar/../../core/lv_obj_style_gen.h ****     return (int32_t)v.num;
 2275              		.loc 2 84 26 view .LVU710
 2276 02e0 FFF7FEFF 		bl	lv_obj_get_style_prop
 2277              	.LVL267:
 2278 02e4 8046     		mov	r8, r0
 2279 02e6 0290     		str	r0, [sp, #8]
  85:Lib/lvgl/src/widgets/slider/../bar/../../core/lv_obj_style_gen.h **** }
 2280              		.loc 2 85 5 is_stmt 1 view .LVU711
 2281              	.LVL268:
  85:Lib/lvgl/src/widgets/slider/../bar/../../core/lv_obj_style_gen.h **** }
 2282              		.loc 2 85 5 is_stmt 0 view .LVU712
 2283              	.LBE139:
 2284              	.LBE138:
 199:Lib/lvgl/src/widgets/slider/lv_slider.c ****         knob_size += LV_MAX(LV_MAX(knob_left, knob_right), LV_MAX(knob_bottom, knob_top));
 2285              		.loc 1 199 9 is_stmt 1 view .LVU713
 199:Lib/lvgl/src/widgets/slider/lv_slider.c ****         knob_size += LV_MAX(LV_MAX(knob_left, knob_right), LV_MAX(knob_bottom, knob_top));
 2286              		.loc 1 199 29 is_stmt 0 view .LVU714
 2287 02e8 2846     		mov	r0, r5
 2288              	.LVL269:
 199:Lib/lvgl/src/widgets/slider/lv_slider.c ****         knob_size += LV_MAX(LV_MAX(knob_left, knob_right), LV_MAX(knob_bottom, knob_top));
ARM GAS  C:\Users\Alex\AppData\Local\Temp\cc5XGeRL.s 			page 77


 2289              		.loc 1 199 29 view .LVU715
 2290 02ea FFF7FEFF 		bl	lv_obj_get_width
 2291              	.LVL270:
 2292 02ee 4FEA4903 		lsl	r3, r9, #1
 2293 02f2 0093     		str	r3, [sp]
 2294 02f4 00EB4909 		add	r9, r0, r9, lsl #1
 2295              	.LVL271:
 199:Lib/lvgl/src/widgets/slider/lv_slider.c ****         knob_size += LV_MAX(LV_MAX(knob_left, knob_right), LV_MAX(knob_bottom, knob_top));
 2296              		.loc 1 199 29 view .LVU716
 2297 02f8 2846     		mov	r0, r5
 2298 02fa FFF7FEFF 		bl	lv_obj_get_height
 2299              	.LVL272:
 2300 02fe 4FEA4802 		lsl	r2, r8, #1
 2301 0302 0192     		str	r2, [sp, #4]
 2302 0304 00EB4800 		add	r0, r0, r8, lsl #1
 199:Lib/lvgl/src/widgets/slider/lv_slider.c ****         knob_size += LV_MAX(LV_MAX(knob_left, knob_right), LV_MAX(knob_bottom, knob_top));
 2303              		.loc 1 199 111 view .LVU717
 2304 0308 8145     		cmp	r9, r0
 2305 030a 20DA     		bge	.L119
 199:Lib/lvgl/src/widgets/slider/lv_slider.c ****         knob_size += LV_MAX(LV_MAX(knob_left, knob_right), LV_MAX(knob_bottom, knob_top));
 2306              		.loc 1 199 29 discriminator 1 view .LVU718
 2307 030c 2846     		mov	r0, r5
 2308 030e FFF7FEFF 		bl	lv_obj_get_width
 2309              	.LVL273:
 2310 0312 009B     		ldr	r3, [sp]
 2311 0314 0344     		add	r3, r3, r0
 199:Lib/lvgl/src/widgets/slider/lv_slider.c ****         knob_size += LV_MAX(LV_MAX(knob_left, knob_right), LV_MAX(knob_bottom, knob_top));
 2312              		.loc 1 199 111 discriminator 1 view .LVU719
 2313 0316 5B10     		asrs	r3, r3, #1
 2314              	.L120:
 2315              	.LVL274:
 200:Lib/lvgl/src/widgets/slider/lv_slider.c ****         knob_size += 2;         /*For rounding error*/
 2316              		.loc 1 200 9 is_stmt 1 discriminator 4 view .LVU720
 200:Lib/lvgl/src/widgets/slider/lv_slider.c ****         knob_size += 2;         /*For rounding error*/
 2317              		.loc 1 200 22 is_stmt 0 discriminator 4 view .LVU721
 2318 0318 5F45     		cmp	r7, fp
 2319 031a B8BF     		it	lt
 2320 031c 5F46     		movlt	r7, fp
 2321              	.LVL275:
 200:Lib/lvgl/src/widgets/slider/lv_slider.c ****         knob_size += 2;         /*For rounding error*/
 2322              		.loc 1 200 22 discriminator 4 view .LVU722
 2323 031e 3246     		mov	r2, r6
 2324 0320 5645     		cmp	r6, r10
 2325 0322 B8BF     		it	lt
 2326 0324 5246     		movlt	r2, r10
 200:Lib/lvgl/src/widgets/slider/lv_slider.c ****         knob_size += 2;         /*For rounding error*/
 2327              		.loc 1 200 19 discriminator 4 view .LVU723
 2328 0326 9742     		cmp	r7, r2
 2329 0328 ACBF     		ite	ge
 2330 032a DE19     		addge	r6, r3, r7
 2331 032c 9E18     		addlt	r6, r3, r2
 2332              	.LVL276:
 201:Lib/lvgl/src/widgets/slider/lv_slider.c ****         knob_size += lv_obj_calculate_ext_draw_size(obj, LV_PART_KNOB);
 2333              		.loc 1 201 9 is_stmt 1 discriminator 4 view .LVU724
 201:Lib/lvgl/src/widgets/slider/lv_slider.c ****         knob_size += lv_obj_calculate_ext_draw_size(obj, LV_PART_KNOB);
 2334              		.loc 1 201 19 is_stmt 0 discriminator 4 view .LVU725
 2335 032e 0236     		adds	r6, r6, #2
ARM GAS  C:\Users\Alex\AppData\Local\Temp\cc5XGeRL.s 			page 78


 2336              	.LVL277:
 202:Lib/lvgl/src/widgets/slider/lv_slider.c **** 
 2337              		.loc 1 202 9 is_stmt 1 discriminator 4 view .LVU726
 202:Lib/lvgl/src/widgets/slider/lv_slider.c **** 
 2338              		.loc 1 202 22 is_stmt 0 discriminator 4 view .LVU727
 2339 0330 4FF44031 		mov	r1, #196608
 2340 0334 2846     		mov	r0, r5
 2341 0336 FFF7FEFF 		bl	lv_obj_calculate_ext_draw_size
 2342              	.LVL278:
 202:Lib/lvgl/src/widgets/slider/lv_slider.c **** 
 2343              		.loc 1 202 19 discriminator 4 view .LVU728
 2344 033a 3518     		adds	r5, r6, r0
 2345              	.LVL279:
 205:Lib/lvgl/src/widgets/slider/lv_slider.c ****         *s  = LV_MAX(*s, knob_size);
 2346              		.loc 1 205 9 is_stmt 1 discriminator 4 view .LVU729
 205:Lib/lvgl/src/widgets/slider/lv_slider.c ****         *s  = LV_MAX(*s, knob_size);
 2347              		.loc 1 205 23 is_stmt 0 discriminator 4 view .LVU730
 2348 033c 2046     		mov	r0, r4
 2349 033e FFF7FEFF 		bl	lv_event_get_param
 2350              	.LVL280:
 206:Lib/lvgl/src/widgets/slider/lv_slider.c **** 
 2351              		.loc 1 206 9 is_stmt 1 discriminator 4 view .LVU731
 206:Lib/lvgl/src/widgets/slider/lv_slider.c **** 
 2352              		.loc 1 206 15 is_stmt 0 discriminator 4 view .LVU732
 2353 0342 0368     		ldr	r3, [r0]
 2354 0344 9D42     		cmp	r5, r3
 2355 0346 B8BF     		it	lt
 2356 0348 1D46     		movlt	r5, r3
 2357              	.LVL281:
 206:Lib/lvgl/src/widgets/slider/lv_slider.c **** 
 2358              		.loc 1 206 13 discriminator 4 view .LVU733
 2359 034a 0560     		str	r5, [r0]
 2360              	.LBE127:
 2361 034c 61E6     		b	.L98
 2362              	.LVL282:
 2363              	.L119:
 2364              	.LBB140:
 199:Lib/lvgl/src/widgets/slider/lv_slider.c ****         knob_size += LV_MAX(LV_MAX(knob_left, knob_right), LV_MAX(knob_bottom, knob_top));
 2365              		.loc 1 199 29 discriminator 2 view .LVU734
 2366 034e 2846     		mov	r0, r5
 2367 0350 FFF7FEFF 		bl	lv_obj_get_height
 2368              	.LVL283:
 2369 0354 019B     		ldr	r3, [sp, #4]
 2370 0356 0344     		add	r3, r3, r0
 199:Lib/lvgl/src/widgets/slider/lv_slider.c ****         knob_size += LV_MAX(LV_MAX(knob_left, knob_right), LV_MAX(knob_bottom, knob_top));
 2371              		.loc 1 199 111 discriminator 2 view .LVU735
 2372 0358 5B10     		asrs	r3, r3, #1
 2373 035a DDE7     		b	.L120
 2374              	.L134:
 2375              		.align	2
 2376              	.L133:
 2377 035c 00000000 		.word	lv_slider_class
 2378              	.LVL284:
 2379              	.L108:
 199:Lib/lvgl/src/widgets/slider/lv_slider.c ****         knob_size += LV_MAX(LV_MAX(knob_left, knob_right), LV_MAX(knob_bottom, knob_top));
 2380              		.loc 1 199 111 discriminator 2 view .LVU736
 2381              	.LBE140:
ARM GAS  C:\Users\Alex\AppData\Local\Temp\cc5XGeRL.s 			page 79


 2382              	.LBB141:
 210:Lib/lvgl/src/widgets/slider/lv_slider.c **** 
 2383              		.loc 1 210 9 is_stmt 1 view .LVU737
 210:Lib/lvgl/src/widgets/slider/lv_slider.c **** 
 2384              		.loc 1 210 22 is_stmt 0 view .LVU738
 2385 0360 2046     		mov	r0, r4
 2386 0362 FFF7FEFF 		bl	lv_event_get_key
 2387              	.LVL285:
 212:Lib/lvgl/src/widgets/slider/lv_slider.c ****             if(!slider->left_knob_focus) lv_slider_set_value(obj, lv_slider_get_value(obj) + 1, LV_
 2388              		.loc 1 212 9 is_stmt 1 view .LVU739
 212:Lib/lvgl/src/widgets/slider/lv_slider.c ****             if(!slider->left_knob_focus) lv_slider_set_value(obj, lv_slider_get_value(obj) + 1, LV_
 2389              		.loc 1 212 11 is_stmt 0 view .LVU740
 2390 0366 1328     		cmp	r0, #19
 2391 0368 14D0     		beq	.L121
 212:Lib/lvgl/src/widgets/slider/lv_slider.c ****             if(!slider->left_knob_focus) lv_slider_set_value(obj, lv_slider_get_value(obj) + 1, LV_
 2392              		.loc 1 212 30 discriminator 1 view .LVU741
 2393 036a 1128     		cmp	r0, #17
 2394 036c 12D0     		beq	.L121
 216:Lib/lvgl/src/widgets/slider/lv_slider.c ****             if(!slider->left_knob_focus) lv_slider_set_value(obj, lv_slider_get_value(obj) - 1, LV_
 2395              		.loc 1 216 14 is_stmt 1 view .LVU742
 216:Lib/lvgl/src/widgets/slider/lv_slider.c ****             if(!slider->left_knob_focus) lv_slider_set_value(obj, lv_slider_get_value(obj) - 1, LV_
 2396              		.loc 1 216 16 is_stmt 0 view .LVU743
 2397 036e 1428     		cmp	r0, #20
 2398 0370 02D0     		beq	.L125
 216:Lib/lvgl/src/widgets/slider/lv_slider.c ****             if(!slider->left_knob_focus) lv_slider_set_value(obj, lv_slider_get_value(obj) - 1, LV_
 2399              		.loc 1 216 34 discriminator 1 view .LVU744
 2400 0372 1228     		cmp	r0, #18
 2401 0374 7FF44DAE 		bne	.L98
 2402              	.L125:
 217:Lib/lvgl/src/widgets/slider/lv_slider.c ****             else lv_slider_set_left_value(obj, lv_slider_get_left_value(obj) - 1, LV_ANIM_ON);
 2403              		.loc 1 217 13 is_stmt 1 view .LVU745
 217:Lib/lvgl/src/widgets/slider/lv_slider.c ****             else lv_slider_set_left_value(obj, lv_slider_get_left_value(obj) - 1, LV_ANIM_ON);
 2404              		.loc 1 217 16 is_stmt 0 view .LVU746
 2405 0378 95F8A030 		ldrb	r3, [r5, #160]	@ zero_extendqisi2
 217:Lib/lvgl/src/widgets/slider/lv_slider.c ****             else lv_slider_set_left_value(obj, lv_slider_get_left_value(obj) - 1, LV_ANIM_ON);
 2406              		.loc 1 217 15 view .LVU747
 2407 037c 13F0020F 		tst	r3, #2
 2408 0380 24D1     		bne	.L126
 217:Lib/lvgl/src/widgets/slider/lv_slider.c ****             else lv_slider_set_left_value(obj, lv_slider_get_left_value(obj) - 1, LV_ANIM_ON);
 2409              		.loc 1 217 42 is_stmt 1 view .LVU748
 2410              	.LVL286:
 2411              	.LBB142:
 2412              	.LBI142:
 123:Lib/lvgl/src/widgets/slider/lv_slider.h **** {
 2413              		.loc 3 123 23 view .LVU749
 2414              	.LBB143:
 125:Lib/lvgl/src/widgets/slider/lv_slider.h **** }
 2415              		.loc 3 125 5 view .LVU750
 125:Lib/lvgl/src/widgets/slider/lv_slider.h **** }
 2416              		.loc 3 125 12 is_stmt 0 view .LVU751
 2417 0382 2846     		mov	r0, r5
 2418              	.LVL287:
 125:Lib/lvgl/src/widgets/slider/lv_slider.h **** }
 2419              		.loc 3 125 12 view .LVU752
 2420 0384 FFF7FEFF 		bl	lv_bar_get_value
 2421              	.LVL288:
 125:Lib/lvgl/src/widgets/slider/lv_slider.h **** }
ARM GAS  C:\Users\Alex\AppData\Local\Temp\cc5XGeRL.s 			page 80


 2422              		.loc 3 125 12 view .LVU753
 2423              	.LBE143:
 2424              	.LBE142:
 2425              	.LBB144:
 2426              	.LBI144:
  77:Lib/lvgl/src/widgets/slider/lv_slider.h **** {
 2427              		.loc 3 77 20 is_stmt 1 view .LVU754
 2428              	.LBB145:
  79:Lib/lvgl/src/widgets/slider/lv_slider.h **** }
 2429              		.loc 3 79 5 view .LVU755
 2430 0388 0122     		movs	r2, #1
 2431 038a 411E     		subs	r1, r0, #1
 2432              	.LVL289:
  79:Lib/lvgl/src/widgets/slider/lv_slider.h **** }
 2433              		.loc 3 79 5 is_stmt 0 view .LVU756
 2434 038c 2846     		mov	r0, r5
 2435 038e FFF7FEFF 		bl	lv_bar_set_value
 2436              	.LVL290:
  80:Lib/lvgl/src/widgets/slider/lv_slider.h **** 
 2437              		.loc 3 80 1 view .LVU757
 2438 0392 0CE0     		b	.L124
 2439              	.LVL291:
 2440              	.L121:
  80:Lib/lvgl/src/widgets/slider/lv_slider.h **** 
 2441              		.loc 3 80 1 view .LVU758
 2442              	.LBE145:
 2443              	.LBE144:
 213:Lib/lvgl/src/widgets/slider/lv_slider.c ****             else lv_slider_set_left_value(obj, lv_slider_get_left_value(obj) + 1, LV_ANIM_ON);
 2444              		.loc 1 213 13 is_stmt 1 view .LVU759
 213:Lib/lvgl/src/widgets/slider/lv_slider.c ****             else lv_slider_set_left_value(obj, lv_slider_get_left_value(obj) + 1, LV_ANIM_ON);
 2445              		.loc 1 213 16 is_stmt 0 view .LVU760
 2446 0394 95F8A030 		ldrb	r3, [r5, #160]	@ zero_extendqisi2
 213:Lib/lvgl/src/widgets/slider/lv_slider.c ****             else lv_slider_set_left_value(obj, lv_slider_get_left_value(obj) + 1, LV_ANIM_ON);
 2447              		.loc 1 213 15 view .LVU761
 2448 0398 13F0020F 		tst	r3, #2
 2449 039c 0DD1     		bne	.L123
 213:Lib/lvgl/src/widgets/slider/lv_slider.c ****             else lv_slider_set_left_value(obj, lv_slider_get_left_value(obj) + 1, LV_ANIM_ON);
 2450              		.loc 1 213 42 is_stmt 1 view .LVU762
 2451              	.LVL292:
 2452              	.LBB146:
 2453              	.LBI146:
 123:Lib/lvgl/src/widgets/slider/lv_slider.h **** {
 2454              		.loc 3 123 23 view .LVU763
 2455              	.LBB147:
 125:Lib/lvgl/src/widgets/slider/lv_slider.h **** }
 2456              		.loc 3 125 5 view .LVU764
 125:Lib/lvgl/src/widgets/slider/lv_slider.h **** }
 2457              		.loc 3 125 12 is_stmt 0 view .LVU765
 2458 039e 2846     		mov	r0, r5
 2459              	.LVL293:
 125:Lib/lvgl/src/widgets/slider/lv_slider.h **** }
 2460              		.loc 3 125 12 view .LVU766
 2461 03a0 FFF7FEFF 		bl	lv_bar_get_value
 2462              	.LVL294:
 125:Lib/lvgl/src/widgets/slider/lv_slider.h **** }
 2463              		.loc 3 125 12 view .LVU767
 2464              	.LBE147:
ARM GAS  C:\Users\Alex\AppData\Local\Temp\cc5XGeRL.s 			page 81


 2465              	.LBE146:
 2466              	.LBB148:
 2467              	.LBI148:
  77:Lib/lvgl/src/widgets/slider/lv_slider.h **** {
 2468              		.loc 3 77 20 is_stmt 1 view .LVU768
 2469              	.LBB149:
  79:Lib/lvgl/src/widgets/slider/lv_slider.h **** }
 2470              		.loc 3 79 5 view .LVU769
 2471 03a4 0122     		movs	r2, #1
 2472 03a6 8118     		adds	r1, r0, r2
 2473              	.LVL295:
  79:Lib/lvgl/src/widgets/slider/lv_slider.h **** }
 2474              		.loc 3 79 5 is_stmt 0 view .LVU770
 2475 03a8 2846     		mov	r0, r5
 2476 03aa FFF7FEFF 		bl	lv_bar_set_value
 2477              	.LVL296:
 2478              	.L124:
  79:Lib/lvgl/src/widgets/slider/lv_slider.h **** }
 2479              		.loc 3 79 5 view .LVU771
 2480              	.LBE149:
 2481              	.LBE148:
 224:Lib/lvgl/src/widgets/slider/lv_slider.c ****         if(res != LV_RESULT_OK) return;
 2482              		.loc 1 224 9 is_stmt 1 view .LVU772
 224:Lib/lvgl/src/widgets/slider/lv_slider.c ****         if(res != LV_RESULT_OK) return;
 2483              		.loc 1 224 15 is_stmt 0 view .LVU773
 2484 03ae 0022     		movs	r2, #0
 2485 03b0 1D21     		movs	r1, #29
 2486 03b2 2846     		mov	r0, r5
 2487 03b4 FFF7FEFF 		bl	lv_obj_send_event
 2488              	.LVL297:
 225:Lib/lvgl/src/widgets/slider/lv_slider.c ****     }
 2489              		.loc 1 225 9 is_stmt 1 view .LVU774
 2490 03b8 2BE6     		b	.L98
 2491              	.LVL298:
 2492              	.L123:
 214:Lib/lvgl/src/widgets/slider/lv_slider.c ****         }
 2493              		.loc 1 214 18 view .LVU775
 2494              	.LBB150:
 2495              	.LBI150:
 133:Lib/lvgl/src/widgets/slider/lv_slider.h **** {
 2496              		.loc 3 133 23 view .LVU776
 2497              	.LBB151:
 135:Lib/lvgl/src/widgets/slider/lv_slider.h **** }
 2498              		.loc 3 135 5 view .LVU777
 135:Lib/lvgl/src/widgets/slider/lv_slider.h **** }
 2499              		.loc 3 135 12 is_stmt 0 view .LVU778
 2500 03ba 2846     		mov	r0, r5
 2501              	.LVL299:
 135:Lib/lvgl/src/widgets/slider/lv_slider.h **** }
 2502              		.loc 3 135 12 view .LVU779
 2503 03bc FFF7FEFF 		bl	lv_bar_get_start_value
 2504              	.LVL300:
 135:Lib/lvgl/src/widgets/slider/lv_slider.h **** }
 2505              		.loc 3 135 12 view .LVU780
 2506              	.LBE151:
 2507              	.LBE150:
 2508              	.LBB152:
ARM GAS  C:\Users\Alex\AppData\Local\Temp\cc5XGeRL.s 			page 82


 2509              	.LBI152:
  88:Lib/lvgl/src/widgets/slider/lv_slider.h **** {
 2510              		.loc 3 88 20 is_stmt 1 view .LVU781
 2511              	.LBB153:
  90:Lib/lvgl/src/widgets/slider/lv_slider.h **** }
 2512              		.loc 3 90 5 view .LVU782
 2513 03c0 0122     		movs	r2, #1
 2514 03c2 8118     		adds	r1, r0, r2
 2515              	.LVL301:
  90:Lib/lvgl/src/widgets/slider/lv_slider.h **** }
 2516              		.loc 3 90 5 is_stmt 0 view .LVU783
 2517 03c4 2846     		mov	r0, r5
 2518 03c6 FFF7FEFF 		bl	lv_bar_set_start_value
 2519              	.LVL302:
  91:Lib/lvgl/src/widgets/slider/lv_slider.h **** 
 2520              		.loc 3 91 1 view .LVU784
 2521 03ca F0E7     		b	.L124
 2522              	.LVL303:
 2523              	.L126:
  91:Lib/lvgl/src/widgets/slider/lv_slider.h **** 
 2524              		.loc 3 91 1 view .LVU785
 2525              	.LBE153:
 2526              	.LBE152:
 218:Lib/lvgl/src/widgets/slider/lv_slider.c ****         }
 2527              		.loc 1 218 18 is_stmt 1 view .LVU786
 2528              	.LBB154:
 2529              	.LBI154:
 133:Lib/lvgl/src/widgets/slider/lv_slider.h **** {
 2530              		.loc 3 133 23 view .LVU787
 2531              	.LBB155:
 135:Lib/lvgl/src/widgets/slider/lv_slider.h **** }
 2532              		.loc 3 135 5 view .LVU788
 135:Lib/lvgl/src/widgets/slider/lv_slider.h **** }
 2533              		.loc 3 135 12 is_stmt 0 view .LVU789
 2534 03cc 2846     		mov	r0, r5
 2535              	.LVL304:
 135:Lib/lvgl/src/widgets/slider/lv_slider.h **** }
 2536              		.loc 3 135 12 view .LVU790
 2537 03ce FFF7FEFF 		bl	lv_bar_get_start_value
 2538              	.LVL305:
 135:Lib/lvgl/src/widgets/slider/lv_slider.h **** }
 2539              		.loc 3 135 12 view .LVU791
 2540              	.LBE155:
 2541              	.LBE154:
 2542              	.LBB156:
 2543              	.LBI156:
  88:Lib/lvgl/src/widgets/slider/lv_slider.h **** {
 2544              		.loc 3 88 20 is_stmt 1 view .LVU792
 2545              	.LBB157:
  90:Lib/lvgl/src/widgets/slider/lv_slider.h **** }
 2546              		.loc 3 90 5 view .LVU793
 2547 03d2 0122     		movs	r2, #1
 2548 03d4 411E     		subs	r1, r0, #1
 2549              	.LVL306:
  90:Lib/lvgl/src/widgets/slider/lv_slider.h **** }
 2550              		.loc 3 90 5 is_stmt 0 view .LVU794
 2551 03d6 2846     		mov	r0, r5
ARM GAS  C:\Users\Alex\AppData\Local\Temp\cc5XGeRL.s 			page 83


 2552 03d8 FFF7FEFF 		bl	lv_bar_set_start_value
 2553              	.LVL307:
  91:Lib/lvgl/src/widgets/slider/lv_slider.h **** 
 2554              		.loc 3 91 1 view .LVU795
 2555 03dc E7E7     		b	.L124
 2556              	.LVL308:
 2557              	.L105:
  91:Lib/lvgl/src/widgets/slider/lv_slider.h **** 
 2558              		.loc 3 91 1 view .LVU796
 2559              	.LBE157:
 2560              	.LBE156:
 2561              	.LBE141:
 228:Lib/lvgl/src/widgets/slider/lv_slider.c ****     }
 2562              		.loc 1 228 9 is_stmt 1 view .LVU797
 2563 03de 2046     		mov	r0, r4
 2564 03e0 FFF7FEFF 		bl	draw_knob
 2565              	.LVL309:
 2566 03e4 15E6     		b	.L98
 2567              		.cfi_endproc
 2568              	.LFE247:
 2570 03e6 00BF     		.section	.text.lv_slider_constructor,"ax",%progbits
 2571              		.align	1
 2572              		.syntax unified
 2573              		.thumb
 2574              		.thumb_func
 2576              	lv_slider_constructor:
 2577              	.LVL310:
 2578              	.LFB246:
  87:Lib/lvgl/src/widgets/slider/lv_slider.c ****     LV_UNUSED(class_p);
 2579              		.loc 1 87 1 view -0
 2580              		.cfi_startproc
 2581              		@ args = 0, pretend = 0, frame = 0
 2582              		@ frame_needed = 0, uses_anonymous_args = 0
  87:Lib/lvgl/src/widgets/slider/lv_slider.c ****     LV_UNUSED(class_p);
 2583              		.loc 1 87 1 is_stmt 0 view .LVU799
 2584 0000 38B5     		push	{r3, r4, r5, lr}
 2585              	.LCFI22:
 2586              		.cfi_def_cfa_offset 16
 2587              		.cfi_offset 3, -16
 2588              		.cfi_offset 4, -12
 2589              		.cfi_offset 5, -8
 2590              		.cfi_offset 14, -4
 2591 0002 0C46     		mov	r4, r1
  88:Lib/lvgl/src/widgets/slider/lv_slider.c ****     lv_slider_t * slider = (lv_slider_t *)obj;
 2592              		.loc 1 88 5 is_stmt 1 view .LVU800
  89:Lib/lvgl/src/widgets/slider/lv_slider.c **** 
 2593              		.loc 1 89 5 view .LVU801
 2594              	.LVL311:
  92:Lib/lvgl/src/widgets/slider/lv_slider.c ****     slider->dragging = 0U;
 2595              		.loc 1 92 5 view .LVU802
  92:Lib/lvgl/src/widgets/slider/lv_slider.c ****     slider->dragging = 0U;
 2596              		.loc 1 92 26 is_stmt 0 view .LVU803
 2597 0004 0025     		movs	r5, #0
 2598 0006 C1F89C50 		str	r5, [r1, #156]
  93:Lib/lvgl/src/widgets/slider/lv_slider.c ****     slider->left_knob_focus = 0U;
 2599              		.loc 1 93 5 is_stmt 1 view .LVU804
  93:Lib/lvgl/src/widgets/slider/lv_slider.c ****     slider->left_knob_focus = 0U;
ARM GAS  C:\Users\Alex\AppData\Local\Temp\cc5XGeRL.s 			page 84


 2600              		.loc 1 93 22 is_stmt 0 view .LVU805
 2601 000a 91F8A030 		ldrb	r3, [r1, #160]	@ zero_extendqisi2
 2602 000e 65F30003 		bfi	r3, r5, #0, #1
 2603 0012 81F8A030 		strb	r3, [r1, #160]
  94:Lib/lvgl/src/widgets/slider/lv_slider.c **** 
 2604              		.loc 1 94 5 is_stmt 1 view .LVU806
  94:Lib/lvgl/src/widgets/slider/lv_slider.c **** 
 2605              		.loc 1 94 29 is_stmt 0 view .LVU807
 2606 0016 DBB2     		uxtb	r3, r3
 2607 0018 65F34103 		bfi	r3, r5, #1, #1
 2608 001c 81F8A030 		strb	r3, [r1, #160]
  96:Lib/lvgl/src/widgets/slider/lv_slider.c ****     lv_obj_remove_flag(obj, LV_OBJ_FLAG_SCROLLABLE);
 2609              		.loc 1 96 5 is_stmt 1 view .LVU808
 2610 0020 4FF48071 		mov	r1, #256
 2611              	.LVL312:
  96:Lib/lvgl/src/widgets/slider/lv_slider.c ****     lv_obj_remove_flag(obj, LV_OBJ_FLAG_SCROLLABLE);
 2612              		.loc 1 96 5 is_stmt 0 view .LVU809
 2613 0024 2046     		mov	r0, r4
 2614              	.LVL313:
  96:Lib/lvgl/src/widgets/slider/lv_slider.c ****     lv_obj_remove_flag(obj, LV_OBJ_FLAG_SCROLLABLE);
 2615              		.loc 1 96 5 view .LVU810
 2616 0026 FFF7FEFF 		bl	lv_obj_remove_flag
 2617              	.LVL314:
  97:Lib/lvgl/src/widgets/slider/lv_slider.c ****     lv_obj_add_flag(obj, LV_OBJ_FLAG_SCROLL_ON_FOCUS);
 2618              		.loc 1 97 5 is_stmt 1 view .LVU811
 2619 002a 1021     		movs	r1, #16
 2620 002c 2046     		mov	r0, r4
 2621 002e FFF7FEFF 		bl	lv_obj_remove_flag
 2622              	.LVL315:
  98:Lib/lvgl/src/widgets/slider/lv_slider.c ****     lv_obj_set_ext_click_area(obj, LV_DPX(8));
 2623              		.loc 1 98 5 view .LVU812
 2624 0032 4FF48061 		mov	r1, #1024
 2625 0036 2046     		mov	r0, r4
 2626 0038 FFF7FEFF 		bl	lv_obj_add_flag
 2627              	.LVL316:
  99:Lib/lvgl/src/widgets/slider/lv_slider.c **** }
 2628              		.loc 1 99 5 view .LVU813
  99:Lib/lvgl/src/widgets/slider/lv_slider.c **** }
 2629              		.loc 1 99 36 is_stmt 0 view .LVU814
 2630 003c 2846     		mov	r0, r5
 2631 003e FFF7FEFF 		bl	lv_display_get_dpi
 2632              	.LVL317:
  99:Lib/lvgl/src/widgets/slider/lv_slider.c **** }
 2633              		.loc 1 99 5 view .LVU815
 2634 0042 1D28     		cmp	r0, #29
 2635 0044 04DC     		bgt	.L139
 2636 0046 0121     		movs	r1, #1
 2637              	.L136:
  99:Lib/lvgl/src/widgets/slider/lv_slider.c **** }
 2638              		.loc 1 99 5 discriminator 4 view .LVU816
 2639 0048 2046     		mov	r0, r4
 2640 004a FFF7FEFF 		bl	lv_obj_set_ext_click_area
 2641              	.LVL318:
 100:Lib/lvgl/src/widgets/slider/lv_slider.c **** 
 2642              		.loc 1 100 1 discriminator 4 view .LVU817
 2643 004e 38BD     		pop	{r3, r4, r5, pc}
 2644              	.LVL319:
ARM GAS  C:\Users\Alex\AppData\Local\Temp\cc5XGeRL.s 			page 85


 2645              	.L139:
  99:Lib/lvgl/src/widgets/slider/lv_slider.c **** }
 2646              		.loc 1 99 36 discriminator 1 view .LVU818
 2647 0050 2846     		mov	r0, r5
 2648 0052 FFF7FEFF 		bl	lv_display_get_dpi
 2649              	.LVL320:
 2650 0056 0A30     		adds	r0, r0, #10
  99:Lib/lvgl/src/widgets/slider/lv_slider.c **** }
 2651              		.loc 1 99 5 discriminator 1 view .LVU819
 2652 0058 034B     		ldr	r3, .L140
 2653 005a 83FB0023 		smull	r2, r3, r3, r0
 2654 005e C117     		asrs	r1, r0, #31
 2655 0060 C1EBE301 		rsb	r1, r1, r3, asr #3
 2656 0064 F0E7     		b	.L136
 2657              	.L141:
 2658 0066 00BF     		.align	2
 2659              	.L140:
 2660 0068 67666666 		.word	1717986919
 2661              		.cfi_endproc
 2662              	.LFE246:
 2664              		.section	.text.lv_slider_create,"ax",%progbits
 2665              		.align	1
 2666              		.global	lv_slider_create
 2667              		.syntax unified
 2668              		.thumb
 2669              		.thumb_func
 2671              	lv_slider_create:
 2672              	.LVL321:
 2673              	.LFB244:
  67:Lib/lvgl/src/widgets/slider/lv_slider.c ****     LV_LOG_INFO("begin");
 2674              		.loc 1 67 1 is_stmt 1 view -0
 2675              		.cfi_startproc
 2676              		@ args = 0, pretend = 0, frame = 0
 2677              		@ frame_needed = 0, uses_anonymous_args = 0
  67:Lib/lvgl/src/widgets/slider/lv_slider.c ****     LV_LOG_INFO("begin");
 2678              		.loc 1 67 1 is_stmt 0 view .LVU821
 2679 0000 10B5     		push	{r4, lr}
 2680              	.LCFI23:
 2681              		.cfi_def_cfa_offset 8
 2682              		.cfi_offset 4, -8
 2683              		.cfi_offset 14, -4
 2684 0002 0146     		mov	r1, r0
  68:Lib/lvgl/src/widgets/slider/lv_slider.c ****     lv_obj_t * obj = lv_obj_class_create_obj(MY_CLASS, parent);
 2685              		.loc 1 68 5 is_stmt 1 view .LVU822
  68:Lib/lvgl/src/widgets/slider/lv_slider.c ****     lv_obj_t * obj = lv_obj_class_create_obj(MY_CLASS, parent);
 2686              		.loc 1 68 5 view .LVU823
  68:Lib/lvgl/src/widgets/slider/lv_slider.c ****     lv_obj_t * obj = lv_obj_class_create_obj(MY_CLASS, parent);
 2687              		.loc 1 68 5 view .LVU824
  69:Lib/lvgl/src/widgets/slider/lv_slider.c ****     lv_obj_class_init_obj(obj);
 2688              		.loc 1 69 5 view .LVU825
  69:Lib/lvgl/src/widgets/slider/lv_slider.c ****     lv_obj_class_init_obj(obj);
 2689              		.loc 1 69 22 is_stmt 0 view .LVU826
 2690 0004 0348     		ldr	r0, .L144
 2691              	.LVL322:
  69:Lib/lvgl/src/widgets/slider/lv_slider.c ****     lv_obj_class_init_obj(obj);
 2692              		.loc 1 69 22 view .LVU827
 2693 0006 FFF7FEFF 		bl	lv_obj_class_create_obj
ARM GAS  C:\Users\Alex\AppData\Local\Temp\cc5XGeRL.s 			page 86


 2694              	.LVL323:
  69:Lib/lvgl/src/widgets/slider/lv_slider.c ****     lv_obj_class_init_obj(obj);
 2695              		.loc 1 69 22 view .LVU828
 2696 000a 0446     		mov	r4, r0
 2697              	.LVL324:
  70:Lib/lvgl/src/widgets/slider/lv_slider.c ****     return obj;
 2698              		.loc 1 70 5 is_stmt 1 view .LVU829
 2699 000c FFF7FEFF 		bl	lv_obj_class_init_obj
 2700              	.LVL325:
  71:Lib/lvgl/src/widgets/slider/lv_slider.c **** }
 2701              		.loc 1 71 5 view .LVU830
  72:Lib/lvgl/src/widgets/slider/lv_slider.c **** 
 2702              		.loc 1 72 1 is_stmt 0 view .LVU831
 2703 0010 2046     		mov	r0, r4
 2704 0012 10BD     		pop	{r4, pc}
 2705              	.LVL326:
 2706              	.L145:
  72:Lib/lvgl/src/widgets/slider/lv_slider.c **** 
 2707              		.loc 1 72 1 view .LVU832
 2708              		.align	2
 2709              	.L144:
 2710 0014 00000000 		.word	lv_slider_class
 2711              		.cfi_endproc
 2712              	.LFE244:
 2714              		.section	.text.lv_slider_is_dragged,"ax",%progbits
 2715              		.align	1
 2716              		.global	lv_slider_is_dragged
 2717              		.syntax unified
 2718              		.thumb
 2719              		.thumb_func
 2721              	lv_slider_is_dragged:
 2722              	.LVL327:
 2723              	.LFB245:
  75:Lib/lvgl/src/widgets/slider/lv_slider.c ****     LV_ASSERT_OBJ(obj, MY_CLASS);
 2724              		.loc 1 75 1 is_stmt 1 view -0
 2725              		.cfi_startproc
 2726              		@ args = 0, pretend = 0, frame = 0
 2727              		@ frame_needed = 0, uses_anonymous_args = 0
 2728              		@ link register save eliminated.
  76:Lib/lvgl/src/widgets/slider/lv_slider.c ****     lv_slider_t * slider = (lv_slider_t *)obj;
 2729              		.loc 1 76 5 view .LVU834
  76:Lib/lvgl/src/widgets/slider/lv_slider.c ****     lv_slider_t * slider = (lv_slider_t *)obj;
 2730              		.loc 1 76 5 view .LVU835
  76:Lib/lvgl/src/widgets/slider/lv_slider.c ****     lv_slider_t * slider = (lv_slider_t *)obj;
 2731              		.loc 1 76 5 view .LVU836
  77:Lib/lvgl/src/widgets/slider/lv_slider.c **** 
 2732              		.loc 1 77 5 view .LVU837
  79:Lib/lvgl/src/widgets/slider/lv_slider.c **** }
 2733              		.loc 1 79 5 view .LVU838
  79:Lib/lvgl/src/widgets/slider/lv_slider.c **** }
 2734              		.loc 1 79 18 is_stmt 0 view .LVU839
 2735 0000 90F8A000 		ldrb	r0, [r0, #160]	@ zero_extendqisi2
 2736              	.LVL328:
  80:Lib/lvgl/src/widgets/slider/lv_slider.c **** 
 2737              		.loc 1 80 1 view .LVU840
 2738 0004 00F00100 		and	r0, r0, #1
 2739 0008 7047     		bx	lr
ARM GAS  C:\Users\Alex\AppData\Local\Temp\cc5XGeRL.s 			page 87


 2740              		.cfi_endproc
 2741              	.LFE245:
 2743              		.global	lv_slider_class
 2744              		.section	.rodata.str1.4,"aMS",%progbits,1
 2745              		.align	2
 2746              	.LC0:
 2747 0000 736C6964 		.ascii	"slider\000"
 2747      657200
 2748              		.section	.rodata.lv_slider_class,"a"
 2749              		.align	2
 2752              	lv_slider_class:
 2753 0000 00000000 		.word	lv_bar_class
 2754 0004 00000000 		.word	lv_slider_constructor
 2755 0008 00000000 		.space	4
 2756 000c 00000000 		.word	lv_slider_event
 2757 0010 00000000 		.space	4
 2758 0014 00000000 		.word	.LC0
 2759 0018 00000000 		.space	8
 2759      00000000 
 2760 0020 45       		.byte	69
 2761 0021 0A       		.byte	10
 2762 0022 00       		.byte	0
 2763 0023 00       		.space	1
 2764              		.text
 2765              	.Letext0:
 2766              		.file 5 "e:\\programms\\gnu_mcu_eclipse\\toolchain\\arm-gnu-toolchain-12.2.mpacbti-bet1-mingw-w64-
 2767              		.file 6 "e:\\programms\\gnu_mcu_eclipse\\toolchain\\arm-gnu-toolchain-12.2.mpacbti-bet1-mingw-w64-
 2768              		.file 7 "e:\\programms\\gnu_mcu_eclipse\\toolchain\\arm-gnu-toolchain-12.2.mpacbti-bet1-mingw-w64-
 2769              		.file 8 "Lib/lvgl/src/widgets/slider/../bar/../../core/../misc/lv_types.h"
 2770              		.file 9 "Lib/lvgl/src/widgets/slider/../bar/../../core/lv_obj.h"
 2771              		.file 10 "Lib/lvgl/src/widgets/slider/../bar/../../core/lv_obj_class.h"
 2772              		.file 11 "c:\\users\\alex\\eclipse-workspace\\lvgs_test\\lib\\lvgl\\src\\core\\lv_group.h"
 2773              		.file 12 "c:\\users\\alex\\eclipse-workspace\\lvgs_test\\lib\\lvgl\\src\\draw\\lv_draw.h"
 2774              		.file 13 "Lib/lvgl/src/widgets/slider/../../indev/lv_indev_private.h"
 2775              		.file 14 "c:\\users\\alex\\eclipse-workspace\\lvgs_test\\lib\\lvgl\\src\\misc\\lv_event.h"
 2776              		.file 15 "Lib/lvgl/src/widgets/slider/../bar/../../core/../misc/lv_timer.h"
 2777              		.file 16 "Lib/lvgl/src/widgets/slider/../bar/../../core/../misc/lv_anim.h"
 2778              		.file 17 "c:\\users\\alex\\eclipse-workspace\\lvgs_test\\lib\\lvgl\\src\\misc\\lv_color.h"
 2779              		.file 18 "c:\\users\\alex\\eclipse-workspace\\lvgs_test\\lib\\lvgl\\src\\draw\\lv_image_buf.h"
 2780              		.file 19 "c:\\users\\alex\\eclipse-workspace\\lvgs_test\\lib\\lvgl\\src\\draw\\lv_draw_buf.h"
 2781              		.file 20 "Lib/lvgl/src/widgets/slider/../bar/../../core/../misc/lv_ll.h"
 2782              		.file 21 "Lib/lvgl/src/widgets/slider/../bar/../../core/../misc/lv_bidi.h"
 2783              		.file 22 "Lib/lvgl/src/widgets/slider/../bar/../../core/../misc/lv_style.h"
 2784              		.file 23 "c:\\users\\alex\\eclipse-workspace\\lvgs_test\\lib\\lvgl\\src\\misc\\lv_array.h"
 2785              		.file 24 "c:\\users\\alex\\eclipse-workspace\\lvgs_test\\lib\\lvgl\\src\\draw\\lv_draw_rect.h"
 2786              		.file 25 "Lib/lvgl/src/widgets/slider/../bar/../../core/lv_obj_style.h"
 2787              		.file 26 "Lib/lvgl/src/widgets/slider/../bar/../../core/../indev/lv_indev.h"
 2788              		.file 27 "Lib/lvgl/src/widgets/slider/../bar/../../core/lv_obj_event.h"
 2789              		.file 28 "Lib/lvgl/src/widgets/slider/../bar/lv_bar.h"
 2790              		.file 29 "Lib/lvgl/src/widgets/slider/../bar/../../core/lv_obj_pos.h"
 2791              		.file 30 "Lib/lvgl/src/widgets/slider/../bar/../../core/../display/lv_display.h"
 2792              		.file 31 "c:\\users\\alex\\eclipse-workspace\\lvgs_test\\lib\\lvgl\\src\\stdlib\\lv_string.h"
 2793              		.file 32 "Lib/lvgl/src/widgets/slider/../bar/../../core/lv_obj_draw.h"
ARM GAS  C:\Users\Alex\AppData\Local\Temp\cc5XGeRL.s 			page 88


DEFINED SYMBOLS
                            *ABS*:00000000 lv_slider.c
C:\Users\Alex\AppData\Local\Temp\cc5XGeRL.s:21     .text.is_slider_horizontal:00000000 $t
C:\Users\Alex\AppData\Local\Temp\cc5XGeRL.s:26     .text.is_slider_horizontal:00000000 is_slider_horizontal
C:\Users\Alex\AppData\Local\Temp\cc5XGeRL.s:63     .text.position_knob:00000000 $t
C:\Users\Alex\AppData\Local\Temp\cc5XGeRL.s:68     .text.position_knob:00000000 position_knob
C:\Users\Alex\AppData\Local\Temp\cc5XGeRL.s:328    .text.lv_slider_get_mode:00000000 $t
C:\Users\Alex\AppData\Local\Temp\cc5XGeRL.s:333    .text.lv_slider_get_mode:00000000 lv_slider_get_mode
C:\Users\Alex\AppData\Local\Temp\cc5XGeRL.s:369    .text.drag_start:00000000 $t
C:\Users\Alex\AppData\Local\Temp\cc5XGeRL.s:374    .text.drag_start:00000000 drag_start
C:\Users\Alex\AppData\Local\Temp\cc5XGeRL.s:759    .text.update_knob_pos:00000000 $t
C:\Users\Alex\AppData\Local\Temp\cc5XGeRL.s:764    .text.update_knob_pos:00000000 update_knob_pos
C:\Users\Alex\AppData\Local\Temp\cc5XGeRL.s:1284   .text.draw_knob:00000000 $t
C:\Users\Alex\AppData\Local\Temp\cc5XGeRL.s:1289   .text.draw_knob:00000000 draw_knob
C:\Users\Alex\AppData\Local\Temp\cc5XGeRL.s:1679   .text.lv_slider_event:00000000 $t
C:\Users\Alex\AppData\Local\Temp\cc5XGeRL.s:1684   .text.lv_slider_event:00000000 lv_slider_event
C:\Users\Alex\AppData\Local\Temp\cc5XGeRL.s:1772   .text.lv_slider_event:00000040 $d
C:\Users\Alex\AppData\Local\Temp\cc5XGeRL.s:1816   .text.lv_slider_event:000000ec $t
C:\Users\Alex\AppData\Local\Temp\cc5XGeRL.s:2377   .text.lv_slider_event:0000035c $d
C:\Users\Alex\AppData\Local\Temp\cc5XGeRL.s:2752   .rodata.lv_slider_class:00000000 lv_slider_class
C:\Users\Alex\AppData\Local\Temp\cc5XGeRL.s:2385   .text.lv_slider_event:00000360 $t
C:\Users\Alex\AppData\Local\Temp\cc5XGeRL.s:2571   .text.lv_slider_constructor:00000000 $t
C:\Users\Alex\AppData\Local\Temp\cc5XGeRL.s:2576   .text.lv_slider_constructor:00000000 lv_slider_constructor
C:\Users\Alex\AppData\Local\Temp\cc5XGeRL.s:2660   .text.lv_slider_constructor:00000068 $d
C:\Users\Alex\AppData\Local\Temp\cc5XGeRL.s:2665   .text.lv_slider_create:00000000 $t
C:\Users\Alex\AppData\Local\Temp\cc5XGeRL.s:2671   .text.lv_slider_create:00000000 lv_slider_create
C:\Users\Alex\AppData\Local\Temp\cc5XGeRL.s:2710   .text.lv_slider_create:00000014 $d
C:\Users\Alex\AppData\Local\Temp\cc5XGeRL.s:2715   .text.lv_slider_is_dragged:00000000 $t
C:\Users\Alex\AppData\Local\Temp\cc5XGeRL.s:2721   .text.lv_slider_is_dragged:00000000 lv_slider_is_dragged
C:\Users\Alex\AppData\Local\Temp\cc5XGeRL.s:2745   .rodata.str1.4:00000000 $d
C:\Users\Alex\AppData\Local\Temp\cc5XGeRL.s:2749   .rodata.lv_slider_class:00000000 $d

UNDEFINED SYMBOLS
lv_obj_get_width
lv_obj_get_height
lv_obj_get_style_prop
lv_bar_get_mode
lv_indev_active
lv_indev_get_point
lv_obj_transform_point
lv_indev_get_type
lv_indev_get_scroll_obj
lv_obj_remove_flag
lv_obj_invalidate
lv_obj_send_event
lv_event_get_current_target
lv_event_get_layer
lv_bar_is_symmetrical
lv_draw_rect_dsc_init
lv_obj_init_draw_rect_dsc
lv_draw_rect
lv_memcpy
lv_obj_event_base
lv_event_get_code
lv_event_get_param
lv_area_increase
_lv_area_is_point_on
ARM GAS  C:\Users\Alex\AppData\Local\Temp\cc5XGeRL.s 			page 89


lv_obj_get_group
lv_group_get_editing
lv_obj_add_flag
lv_group_set_editing
lv_obj_refresh_ext_draw_size
lv_obj_calculate_ext_draw_size
lv_event_get_key
lv_bar_get_value
lv_bar_set_value
lv_bar_get_start_value
lv_bar_set_start_value
lv_display_get_dpi
lv_obj_set_ext_click_area
lv_obj_class_create_obj
lv_obj_class_init_obj
lv_bar_class
