ARM GAS  C:\Users\Alex\AppData\Local\Temp\ccR26jun.s 			page 1


   1              		.cpu cortex-m4
   2              		.arch armv7e-m
   3              		.fpu fpv4-sp-d16
   4              		.eabi_attribute 27, 1
   5              		.eabi_attribute 28, 1
   6              		.eabi_attribute 20, 1
   7              		.eabi_attribute 21, 1
   8              		.eabi_attribute 23, 3
   9              		.eabi_attribute 24, 1
  10              		.eabi_attribute 25, 1
  11              		.eabi_attribute 26, 1
  12              		.eabi_attribute 30, 1
  13              		.eabi_attribute 34, 1
  14              		.eabi_attribute 18, 4
  15              		.file	"lv_theme_default.c"
  16              		.text
  17              	.Ltext0:
  18              		.cfi_sections	.debug_frame
  19              		.file 1 "Lib/lvgl/src/themes/default/lv_theme_default.c"
  20              		.section	.text.lv_color_eq,"ax",%progbits
  21              		.align	1
  22              		.syntax unified
  23              		.thumb
  24              		.thumb_func
  26              	lv_color_eq:
  27              	.LFB53:
  28              		.file 2 "c:\\users\\alex\\eclipse-workspace\\lvgs_test\\lib\\lvgl\\src\\misc\\lv_color.h"
   1:c:\users\alex\eclipse-workspace\lvgs_test\lib\lvgl\src\misc\lv_color.h **** /**
   2:c:\users\alex\eclipse-workspace\lvgs_test\lib\lvgl\src\misc\lv_color.h ****  * @file lv_color.h
   3:c:\users\alex\eclipse-workspace\lvgs_test\lib\lvgl\src\misc\lv_color.h ****  *
   4:c:\users\alex\eclipse-workspace\lvgs_test\lib\lvgl\src\misc\lv_color.h ****  */
   5:c:\users\alex\eclipse-workspace\lvgs_test\lib\lvgl\src\misc\lv_color.h **** 
   6:c:\users\alex\eclipse-workspace\lvgs_test\lib\lvgl\src\misc\lv_color.h **** #ifndef LV_COLOR_H
   7:c:\users\alex\eclipse-workspace\lvgs_test\lib\lvgl\src\misc\lv_color.h **** #define LV_COLOR_H
   8:c:\users\alex\eclipse-workspace\lvgs_test\lib\lvgl\src\misc\lv_color.h **** 
   9:c:\users\alex\eclipse-workspace\lvgs_test\lib\lvgl\src\misc\lv_color.h **** #ifdef __cplusplus
  10:c:\users\alex\eclipse-workspace\lvgs_test\lib\lvgl\src\misc\lv_color.h **** extern "C" {
  11:c:\users\alex\eclipse-workspace\lvgs_test\lib\lvgl\src\misc\lv_color.h **** #endif
  12:c:\users\alex\eclipse-workspace\lvgs_test\lib\lvgl\src\misc\lv_color.h **** 
  13:c:\users\alex\eclipse-workspace\lvgs_test\lib\lvgl\src\misc\lv_color.h **** /*********************
  14:c:\users\alex\eclipse-workspace\lvgs_test\lib\lvgl\src\misc\lv_color.h ****  *      INCLUDES
  15:c:\users\alex\eclipse-workspace\lvgs_test\lib\lvgl\src\misc\lv_color.h ****  *********************/
  16:c:\users\alex\eclipse-workspace\lvgs_test\lib\lvgl\src\misc\lv_color.h **** #include "../lv_conf_internal.h"
  17:c:\users\alex\eclipse-workspace\lvgs_test\lib\lvgl\src\misc\lv_color.h **** #include "lv_assert.h"
  18:c:\users\alex\eclipse-workspace\lvgs_test\lib\lvgl\src\misc\lv_color.h **** #include "lv_math.h"
  19:c:\users\alex\eclipse-workspace\lvgs_test\lib\lvgl\src\misc\lv_color.h **** #include "lv_types.h"
  20:c:\users\alex\eclipse-workspace\lvgs_test\lib\lvgl\src\misc\lv_color.h **** #include <stdint.h>
  21:c:\users\alex\eclipse-workspace\lvgs_test\lib\lvgl\src\misc\lv_color.h **** #include <stdbool.h>
  22:c:\users\alex\eclipse-workspace\lvgs_test\lib\lvgl\src\misc\lv_color.h **** 
  23:c:\users\alex\eclipse-workspace\lvgs_test\lib\lvgl\src\misc\lv_color.h **** /*********************
  24:c:\users\alex\eclipse-workspace\lvgs_test\lib\lvgl\src\misc\lv_color.h ****  *      DEFINES
  25:c:\users\alex\eclipse-workspace\lvgs_test\lib\lvgl\src\misc\lv_color.h ****  *********************/
  26:c:\users\alex\eclipse-workspace\lvgs_test\lib\lvgl\src\misc\lv_color.h **** LV_EXPORT_CONST_INT(LV_COLOR_DEPTH);
  27:c:\users\alex\eclipse-workspace\lvgs_test\lib\lvgl\src\misc\lv_color.h **** 
  28:c:\users\alex\eclipse-workspace\lvgs_test\lib\lvgl\src\misc\lv_color.h **** #if LV_COLOR_DEPTH == 8
  29:c:\users\alex\eclipse-workspace\lvgs_test\lib\lvgl\src\misc\lv_color.h **** #define _LV_COLOR_NATIVE_WITH_ALPHA_SIZE 2
  30:c:\users\alex\eclipse-workspace\lvgs_test\lib\lvgl\src\misc\lv_color.h **** #elif LV_COLOR_DEPTH == 16
ARM GAS  C:\Users\Alex\AppData\Local\Temp\ccR26jun.s 			page 2


  31:c:\users\alex\eclipse-workspace\lvgs_test\lib\lvgl\src\misc\lv_color.h **** #define _LV_COLOR_NATIVE_WITH_ALPHA_SIZE 3
  32:c:\users\alex\eclipse-workspace\lvgs_test\lib\lvgl\src\misc\lv_color.h **** #elif LV_COLOR_DEPTH == 24
  33:c:\users\alex\eclipse-workspace\lvgs_test\lib\lvgl\src\misc\lv_color.h **** #define _LV_COLOR_NATIVE_WITH_ALPHA_SIZE 4
  34:c:\users\alex\eclipse-workspace\lvgs_test\lib\lvgl\src\misc\lv_color.h **** #elif LV_COLOR_DEPTH == 32
  35:c:\users\alex\eclipse-workspace\lvgs_test\lib\lvgl\src\misc\lv_color.h **** #define _LV_COLOR_NATIVE_WITH_ALPHA_SIZE 4
  36:c:\users\alex\eclipse-workspace\lvgs_test\lib\lvgl\src\misc\lv_color.h **** #endif
  37:c:\users\alex\eclipse-workspace\lvgs_test\lib\lvgl\src\misc\lv_color.h **** 
  38:c:\users\alex\eclipse-workspace\lvgs_test\lib\lvgl\src\misc\lv_color.h **** /**
  39:c:\users\alex\eclipse-workspace\lvgs_test\lib\lvgl\src\misc\lv_color.h ****  * Opacity percentages.
  40:c:\users\alex\eclipse-workspace\lvgs_test\lib\lvgl\src\misc\lv_color.h ****  */
  41:c:\users\alex\eclipse-workspace\lvgs_test\lib\lvgl\src\misc\lv_color.h **** 
  42:c:\users\alex\eclipse-workspace\lvgs_test\lib\lvgl\src\misc\lv_color.h **** enum _lv_opa_t {
  43:c:\users\alex\eclipse-workspace\lvgs_test\lib\lvgl\src\misc\lv_color.h ****     LV_OPA_TRANSP = 0,
  44:c:\users\alex\eclipse-workspace\lvgs_test\lib\lvgl\src\misc\lv_color.h ****     LV_OPA_0      = 0,
  45:c:\users\alex\eclipse-workspace\lvgs_test\lib\lvgl\src\misc\lv_color.h ****     LV_OPA_10     = 25,
  46:c:\users\alex\eclipse-workspace\lvgs_test\lib\lvgl\src\misc\lv_color.h ****     LV_OPA_20     = 51,
  47:c:\users\alex\eclipse-workspace\lvgs_test\lib\lvgl\src\misc\lv_color.h ****     LV_OPA_30     = 76,
  48:c:\users\alex\eclipse-workspace\lvgs_test\lib\lvgl\src\misc\lv_color.h ****     LV_OPA_40     = 102,
  49:c:\users\alex\eclipse-workspace\lvgs_test\lib\lvgl\src\misc\lv_color.h ****     LV_OPA_50     = 127,
  50:c:\users\alex\eclipse-workspace\lvgs_test\lib\lvgl\src\misc\lv_color.h ****     LV_OPA_60     = 153,
  51:c:\users\alex\eclipse-workspace\lvgs_test\lib\lvgl\src\misc\lv_color.h ****     LV_OPA_70     = 178,
  52:c:\users\alex\eclipse-workspace\lvgs_test\lib\lvgl\src\misc\lv_color.h ****     LV_OPA_80     = 204,
  53:c:\users\alex\eclipse-workspace\lvgs_test\lib\lvgl\src\misc\lv_color.h ****     LV_OPA_90     = 229,
  54:c:\users\alex\eclipse-workspace\lvgs_test\lib\lvgl\src\misc\lv_color.h ****     LV_OPA_100    = 255,
  55:c:\users\alex\eclipse-workspace\lvgs_test\lib\lvgl\src\misc\lv_color.h ****     LV_OPA_COVER  = 255,
  56:c:\users\alex\eclipse-workspace\lvgs_test\lib\lvgl\src\misc\lv_color.h **** };
  57:c:\users\alex\eclipse-workspace\lvgs_test\lib\lvgl\src\misc\lv_color.h **** 
  58:c:\users\alex\eclipse-workspace\lvgs_test\lib\lvgl\src\misc\lv_color.h **** #ifdef DOXYGEN
  59:c:\users\alex\eclipse-workspace\lvgs_test\lib\lvgl\src\misc\lv_color.h **** typedef _lv_opa_t lv_opa_t;
  60:c:\users\alex\eclipse-workspace\lvgs_test\lib\lvgl\src\misc\lv_color.h **** #else
  61:c:\users\alex\eclipse-workspace\lvgs_test\lib\lvgl\src\misc\lv_color.h **** typedef uint8_t lv_opa_t;
  62:c:\users\alex\eclipse-workspace\lvgs_test\lib\lvgl\src\misc\lv_color.h **** #endif /*DOXYGEN*/
  63:c:\users\alex\eclipse-workspace\lvgs_test\lib\lvgl\src\misc\lv_color.h **** 
  64:c:\users\alex\eclipse-workspace\lvgs_test\lib\lvgl\src\misc\lv_color.h **** #define LV_OPA_MIN 2    /*Opacities below this will be transparent*/
  65:c:\users\alex\eclipse-workspace\lvgs_test\lib\lvgl\src\misc\lv_color.h **** #define LV_OPA_MAX 253  /*Opacities above this will fully cover*/
  66:c:\users\alex\eclipse-workspace\lvgs_test\lib\lvgl\src\misc\lv_color.h **** 
  67:c:\users\alex\eclipse-workspace\lvgs_test\lib\lvgl\src\misc\lv_color.h **** #define LV_COLOR_FORMAT_GET_BPP(cf) (       \
  68:c:\users\alex\eclipse-workspace\lvgs_test\lib\lvgl\src\misc\lv_color.h ****                                             (cf) == LV_COLOR_FORMAT_I1 ? 1 :        \
  69:c:\users\alex\eclipse-workspace\lvgs_test\lib\lvgl\src\misc\lv_color.h ****                                             (cf) == LV_COLOR_FORMAT_A1 ? 1 :        \
  70:c:\users\alex\eclipse-workspace\lvgs_test\lib\lvgl\src\misc\lv_color.h ****                                             (cf) == LV_COLOR_FORMAT_I2 ? 2 :        \
  71:c:\users\alex\eclipse-workspace\lvgs_test\lib\lvgl\src\misc\lv_color.h ****                                             (cf) == LV_COLOR_FORMAT_A2 ? 2 :        \
  72:c:\users\alex\eclipse-workspace\lvgs_test\lib\lvgl\src\misc\lv_color.h ****                                             (cf) == LV_COLOR_FORMAT_I4 ? 4 :        \
  73:c:\users\alex\eclipse-workspace\lvgs_test\lib\lvgl\src\misc\lv_color.h ****                                             (cf) == LV_COLOR_FORMAT_A4 ? 4 :        \
  74:c:\users\alex\eclipse-workspace\lvgs_test\lib\lvgl\src\misc\lv_color.h ****                                             (cf) == LV_COLOR_FORMAT_L8 ? 8 :        \
  75:c:\users\alex\eclipse-workspace\lvgs_test\lib\lvgl\src\misc\lv_color.h ****                                             (cf) == LV_COLOR_FORMAT_A8 ? 8 :        \
  76:c:\users\alex\eclipse-workspace\lvgs_test\lib\lvgl\src\misc\lv_color.h ****                                             (cf) == LV_COLOR_FORMAT_I8 ? 8 :        \
  77:c:\users\alex\eclipse-workspace\lvgs_test\lib\lvgl\src\misc\lv_color.h ****                                             (cf) == LV_COLOR_FORMAT_RGB565 ? 16 :   \
  78:c:\users\alex\eclipse-workspace\lvgs_test\lib\lvgl\src\misc\lv_color.h ****                                             (cf) == LV_COLOR_FORMAT_RGB565A8 ? 24 : \
  79:c:\users\alex\eclipse-workspace\lvgs_test\lib\lvgl\src\misc\lv_color.h ****                                             (cf) == LV_COLOR_FORMAT_RGB888 ? 24 :   \
  80:c:\users\alex\eclipse-workspace\lvgs_test\lib\lvgl\src\misc\lv_color.h ****                                             (cf) == LV_COLOR_FORMAT_ARGB8888 ? 32 : \
  81:c:\users\alex\eclipse-workspace\lvgs_test\lib\lvgl\src\misc\lv_color.h ****                                             (cf) == LV_COLOR_FORMAT_XRGB8888 ? 32 : \
  82:c:\users\alex\eclipse-workspace\lvgs_test\lib\lvgl\src\misc\lv_color.h ****                                             0                                       \
  83:c:\users\alex\eclipse-workspace\lvgs_test\lib\lvgl\src\misc\lv_color.h ****                                     )
  84:c:\users\alex\eclipse-workspace\lvgs_test\lib\lvgl\src\misc\lv_color.h **** 
  85:c:\users\alex\eclipse-workspace\lvgs_test\lib\lvgl\src\misc\lv_color.h **** /**********************
  86:c:\users\alex\eclipse-workspace\lvgs_test\lib\lvgl\src\misc\lv_color.h ****  *      TYPEDEFS
  87:c:\users\alex\eclipse-workspace\lvgs_test\lib\lvgl\src\misc\lv_color.h ****  **********************/
ARM GAS  C:\Users\Alex\AppData\Local\Temp\ccR26jun.s 			page 3


  88:c:\users\alex\eclipse-workspace\lvgs_test\lib\lvgl\src\misc\lv_color.h **** 
  89:c:\users\alex\eclipse-workspace\lvgs_test\lib\lvgl\src\misc\lv_color.h **** typedef struct {
  90:c:\users\alex\eclipse-workspace\lvgs_test\lib\lvgl\src\misc\lv_color.h ****     uint8_t blue;
  91:c:\users\alex\eclipse-workspace\lvgs_test\lib\lvgl\src\misc\lv_color.h ****     uint8_t green;
  92:c:\users\alex\eclipse-workspace\lvgs_test\lib\lvgl\src\misc\lv_color.h ****     uint8_t red;
  93:c:\users\alex\eclipse-workspace\lvgs_test\lib\lvgl\src\misc\lv_color.h **** } lv_color_t;
  94:c:\users\alex\eclipse-workspace\lvgs_test\lib\lvgl\src\misc\lv_color.h **** 
  95:c:\users\alex\eclipse-workspace\lvgs_test\lib\lvgl\src\misc\lv_color.h **** typedef struct {
  96:c:\users\alex\eclipse-workspace\lvgs_test\lib\lvgl\src\misc\lv_color.h ****     uint16_t blue : 5;
  97:c:\users\alex\eclipse-workspace\lvgs_test\lib\lvgl\src\misc\lv_color.h ****     uint16_t green : 6;
  98:c:\users\alex\eclipse-workspace\lvgs_test\lib\lvgl\src\misc\lv_color.h ****     uint16_t red : 5;
  99:c:\users\alex\eclipse-workspace\lvgs_test\lib\lvgl\src\misc\lv_color.h **** } lv_color16_t;
 100:c:\users\alex\eclipse-workspace\lvgs_test\lib\lvgl\src\misc\lv_color.h **** 
 101:c:\users\alex\eclipse-workspace\lvgs_test\lib\lvgl\src\misc\lv_color.h **** typedef struct {
 102:c:\users\alex\eclipse-workspace\lvgs_test\lib\lvgl\src\misc\lv_color.h ****     uint8_t blue;
 103:c:\users\alex\eclipse-workspace\lvgs_test\lib\lvgl\src\misc\lv_color.h ****     uint8_t green;
 104:c:\users\alex\eclipse-workspace\lvgs_test\lib\lvgl\src\misc\lv_color.h ****     uint8_t red;
 105:c:\users\alex\eclipse-workspace\lvgs_test\lib\lvgl\src\misc\lv_color.h ****     uint8_t alpha;
 106:c:\users\alex\eclipse-workspace\lvgs_test\lib\lvgl\src\misc\lv_color.h **** } lv_color32_t;
 107:c:\users\alex\eclipse-workspace\lvgs_test\lib\lvgl\src\misc\lv_color.h **** 
 108:c:\users\alex\eclipse-workspace\lvgs_test\lib\lvgl\src\misc\lv_color.h **** typedef struct {
 109:c:\users\alex\eclipse-workspace\lvgs_test\lib\lvgl\src\misc\lv_color.h ****     uint16_t h;
 110:c:\users\alex\eclipse-workspace\lvgs_test\lib\lvgl\src\misc\lv_color.h ****     uint8_t s;
 111:c:\users\alex\eclipse-workspace\lvgs_test\lib\lvgl\src\misc\lv_color.h ****     uint8_t v;
 112:c:\users\alex\eclipse-workspace\lvgs_test\lib\lvgl\src\misc\lv_color.h **** } lv_color_hsv_t;
 113:c:\users\alex\eclipse-workspace\lvgs_test\lib\lvgl\src\misc\lv_color.h **** 
 114:c:\users\alex\eclipse-workspace\lvgs_test\lib\lvgl\src\misc\lv_color.h **** enum _lv_color_format_t {
 115:c:\users\alex\eclipse-workspace\lvgs_test\lib\lvgl\src\misc\lv_color.h ****     LV_COLOR_FORMAT_UNKNOWN           = 0,
 116:c:\users\alex\eclipse-workspace\lvgs_test\lib\lvgl\src\misc\lv_color.h **** 
 117:c:\users\alex\eclipse-workspace\lvgs_test\lib\lvgl\src\misc\lv_color.h ****     LV_COLOR_FORMAT_RAW               = 0x01,
 118:c:\users\alex\eclipse-workspace\lvgs_test\lib\lvgl\src\misc\lv_color.h ****     LV_COLOR_FORMAT_RAW_ALPHA         = 0x02,
 119:c:\users\alex\eclipse-workspace\lvgs_test\lib\lvgl\src\misc\lv_color.h **** 
 120:c:\users\alex\eclipse-workspace\lvgs_test\lib\lvgl\src\misc\lv_color.h ****     /*<=1 byte (+alpha) formats*/
 121:c:\users\alex\eclipse-workspace\lvgs_test\lib\lvgl\src\misc\lv_color.h ****     LV_COLOR_FORMAT_L8                = 0x06,
 122:c:\users\alex\eclipse-workspace\lvgs_test\lib\lvgl\src\misc\lv_color.h ****     LV_COLOR_FORMAT_I1                = 0x07,
 123:c:\users\alex\eclipse-workspace\lvgs_test\lib\lvgl\src\misc\lv_color.h ****     LV_COLOR_FORMAT_I2                = 0x08,
 124:c:\users\alex\eclipse-workspace\lvgs_test\lib\lvgl\src\misc\lv_color.h ****     LV_COLOR_FORMAT_I4                = 0x09,
 125:c:\users\alex\eclipse-workspace\lvgs_test\lib\lvgl\src\misc\lv_color.h ****     LV_COLOR_FORMAT_I8                = 0x0A,
 126:c:\users\alex\eclipse-workspace\lvgs_test\lib\lvgl\src\misc\lv_color.h ****     LV_COLOR_FORMAT_A8                = 0x0E,
 127:c:\users\alex\eclipse-workspace\lvgs_test\lib\lvgl\src\misc\lv_color.h **** 
 128:c:\users\alex\eclipse-workspace\lvgs_test\lib\lvgl\src\misc\lv_color.h ****     /*2 byte (+alpha) formats*/
 129:c:\users\alex\eclipse-workspace\lvgs_test\lib\lvgl\src\misc\lv_color.h ****     LV_COLOR_FORMAT_RGB565            = 0x12,
 130:c:\users\alex\eclipse-workspace\lvgs_test\lib\lvgl\src\misc\lv_color.h ****     LV_COLOR_FORMAT_RGB565A8          = 0x14    /**< Color array followed by Alpha array*/,
 131:c:\users\alex\eclipse-workspace\lvgs_test\lib\lvgl\src\misc\lv_color.h **** 
 132:c:\users\alex\eclipse-workspace\lvgs_test\lib\lvgl\src\misc\lv_color.h ****     /*3 byte (+alpha) formats*/
 133:c:\users\alex\eclipse-workspace\lvgs_test\lib\lvgl\src\misc\lv_color.h ****     LV_COLOR_FORMAT_RGB888            = 0x0F,
 134:c:\users\alex\eclipse-workspace\lvgs_test\lib\lvgl\src\misc\lv_color.h ****     LV_COLOR_FORMAT_ARGB8888          = 0x10,
 135:c:\users\alex\eclipse-workspace\lvgs_test\lib\lvgl\src\misc\lv_color.h ****     LV_COLOR_FORMAT_XRGB8888          = 0x11,
 136:c:\users\alex\eclipse-workspace\lvgs_test\lib\lvgl\src\misc\lv_color.h **** 
 137:c:\users\alex\eclipse-workspace\lvgs_test\lib\lvgl\src\misc\lv_color.h ****     /*Formats not supported by software renderer but kept here so GPU can use it*/
 138:c:\users\alex\eclipse-workspace\lvgs_test\lib\lvgl\src\misc\lv_color.h ****     LV_COLOR_FORMAT_A1                = 0x0B,
 139:c:\users\alex\eclipse-workspace\lvgs_test\lib\lvgl\src\misc\lv_color.h ****     LV_COLOR_FORMAT_A2                = 0x0C,
 140:c:\users\alex\eclipse-workspace\lvgs_test\lib\lvgl\src\misc\lv_color.h ****     LV_COLOR_FORMAT_A4                = 0x0D,
 141:c:\users\alex\eclipse-workspace\lvgs_test\lib\lvgl\src\misc\lv_color.h **** 
 142:c:\users\alex\eclipse-workspace\lvgs_test\lib\lvgl\src\misc\lv_color.h ****     /* reference to https://wiki.videolan.org/YUV/ */
 143:c:\users\alex\eclipse-workspace\lvgs_test\lib\lvgl\src\misc\lv_color.h ****     /*YUV planar formats*/
 144:c:\users\alex\eclipse-workspace\lvgs_test\lib\lvgl\src\misc\lv_color.h ****     LV_COLOR_FORMAT_YUV_START         = 0x20,
ARM GAS  C:\Users\Alex\AppData\Local\Temp\ccR26jun.s 			page 4


 145:c:\users\alex\eclipse-workspace\lvgs_test\lib\lvgl\src\misc\lv_color.h ****     LV_COLOR_FORMAT_I420              = LV_COLOR_FORMAT_YUV_START,  /*YUV420 planar(3 plane)*/
 146:c:\users\alex\eclipse-workspace\lvgs_test\lib\lvgl\src\misc\lv_color.h ****     LV_COLOR_FORMAT_I422              = 0x21,  /*YUV422 planar(3 plane)*/
 147:c:\users\alex\eclipse-workspace\lvgs_test\lib\lvgl\src\misc\lv_color.h ****     LV_COLOR_FORMAT_I444              = 0x22,  /*YUV444 planar(3 plane)*/
 148:c:\users\alex\eclipse-workspace\lvgs_test\lib\lvgl\src\misc\lv_color.h ****     LV_COLOR_FORMAT_I400              = 0x23,  /*YUV400 no chroma channel*/
 149:c:\users\alex\eclipse-workspace\lvgs_test\lib\lvgl\src\misc\lv_color.h ****     LV_COLOR_FORMAT_NV21              = 0x24,  /*YUV420 planar(2 plane), UV plane in 'V, U, V, U'*/
 150:c:\users\alex\eclipse-workspace\lvgs_test\lib\lvgl\src\misc\lv_color.h ****     LV_COLOR_FORMAT_NV12              = 0x25,  /*YUV420 planar(2 plane), UV plane in 'U, V, U, V'*/
 151:c:\users\alex\eclipse-workspace\lvgs_test\lib\lvgl\src\misc\lv_color.h **** 
 152:c:\users\alex\eclipse-workspace\lvgs_test\lib\lvgl\src\misc\lv_color.h ****     /*YUV packed formats*/
 153:c:\users\alex\eclipse-workspace\lvgs_test\lib\lvgl\src\misc\lv_color.h ****     LV_COLOR_FORMAT_YUY2              = 0x26,  /*YUV422 packed like 'Y U Y V'*/
 154:c:\users\alex\eclipse-workspace\lvgs_test\lib\lvgl\src\misc\lv_color.h ****     LV_COLOR_FORMAT_UYVY              = 0x27,  /*YUV422 packed like 'U Y V Y'*/
 155:c:\users\alex\eclipse-workspace\lvgs_test\lib\lvgl\src\misc\lv_color.h **** 
 156:c:\users\alex\eclipse-workspace\lvgs_test\lib\lvgl\src\misc\lv_color.h ****     LV_COLOR_FORMAT_YUV_END           = LV_COLOR_FORMAT_UYVY,
 157:c:\users\alex\eclipse-workspace\lvgs_test\lib\lvgl\src\misc\lv_color.h **** 
 158:c:\users\alex\eclipse-workspace\lvgs_test\lib\lvgl\src\misc\lv_color.h ****     /*Color formats in which LVGL can render*/
 159:c:\users\alex\eclipse-workspace\lvgs_test\lib\lvgl\src\misc\lv_color.h **** #if LV_COLOR_DEPTH == 8
 160:c:\users\alex\eclipse-workspace\lvgs_test\lib\lvgl\src\misc\lv_color.h ****     LV_COLOR_FORMAT_NATIVE            = LV_COLOR_FORMAT_L8,
 161:c:\users\alex\eclipse-workspace\lvgs_test\lib\lvgl\src\misc\lv_color.h **** #elif LV_COLOR_DEPTH == 16
 162:c:\users\alex\eclipse-workspace\lvgs_test\lib\lvgl\src\misc\lv_color.h ****     LV_COLOR_FORMAT_NATIVE            = LV_COLOR_FORMAT_RGB565,
 163:c:\users\alex\eclipse-workspace\lvgs_test\lib\lvgl\src\misc\lv_color.h ****     LV_COLOR_FORMAT_NATIVE_WITH_ALPHA = LV_COLOR_FORMAT_RGB565A8,
 164:c:\users\alex\eclipse-workspace\lvgs_test\lib\lvgl\src\misc\lv_color.h **** #elif LV_COLOR_DEPTH == 24
 165:c:\users\alex\eclipse-workspace\lvgs_test\lib\lvgl\src\misc\lv_color.h ****     LV_COLOR_FORMAT_NATIVE            = LV_COLOR_FORMAT_RGB888,
 166:c:\users\alex\eclipse-workspace\lvgs_test\lib\lvgl\src\misc\lv_color.h ****     LV_COLOR_FORMAT_NATIVE_WITH_ALPHA = LV_COLOR_FORMAT_ARGB8888,
 167:c:\users\alex\eclipse-workspace\lvgs_test\lib\lvgl\src\misc\lv_color.h **** #elif LV_COLOR_DEPTH == 32
 168:c:\users\alex\eclipse-workspace\lvgs_test\lib\lvgl\src\misc\lv_color.h ****     LV_COLOR_FORMAT_NATIVE            = LV_COLOR_FORMAT_XRGB8888,
 169:c:\users\alex\eclipse-workspace\lvgs_test\lib\lvgl\src\misc\lv_color.h ****     LV_COLOR_FORMAT_NATIVE_WITH_ALPHA = LV_COLOR_FORMAT_ARGB8888,
 170:c:\users\alex\eclipse-workspace\lvgs_test\lib\lvgl\src\misc\lv_color.h **** #endif
 171:c:\users\alex\eclipse-workspace\lvgs_test\lib\lvgl\src\misc\lv_color.h **** };
 172:c:\users\alex\eclipse-workspace\lvgs_test\lib\lvgl\src\misc\lv_color.h **** 
 173:c:\users\alex\eclipse-workspace\lvgs_test\lib\lvgl\src\misc\lv_color.h **** #ifdef DOXYGEN
 174:c:\users\alex\eclipse-workspace\lvgs_test\lib\lvgl\src\misc\lv_color.h **** typedef _lv_color_format_t lv_color_format_t;
 175:c:\users\alex\eclipse-workspace\lvgs_test\lib\lvgl\src\misc\lv_color.h **** #else
 176:c:\users\alex\eclipse-workspace\lvgs_test\lib\lvgl\src\misc\lv_color.h **** typedef uint8_t lv_color_format_t;
 177:c:\users\alex\eclipse-workspace\lvgs_test\lib\lvgl\src\misc\lv_color.h **** #endif /*DOXYGEN*/
 178:c:\users\alex\eclipse-workspace\lvgs_test\lib\lvgl\src\misc\lv_color.h **** 
 179:c:\users\alex\eclipse-workspace\lvgs_test\lib\lvgl\src\misc\lv_color.h **** #define LV_COLOR_FORMAT_IS_ALPHA_ONLY(cf) ((cf) >= LV_COLOR_FORMAT_A1 && (cf) <= LV_COLOR_FORMAT_A8
 180:c:\users\alex\eclipse-workspace\lvgs_test\lib\lvgl\src\misc\lv_color.h **** #define LV_COLOR_FORMAT_IS_INDEXED(cf) ((cf) >= LV_COLOR_FORMAT_I1 && (cf) <= LV_COLOR_FORMAT_I8)
 181:c:\users\alex\eclipse-workspace\lvgs_test\lib\lvgl\src\misc\lv_color.h **** #define LV_COLOR_FORMAT_IS_YUV(cf)  ((cf) >= LV_COLOR_FORMAT_YUV_START && (cf) <= LV_COLOR_FORMAT_Y
 182:c:\users\alex\eclipse-workspace\lvgs_test\lib\lvgl\src\misc\lv_color.h **** #define LV_COLOR_INDEXED_PALETTE_SIZE(cf) ((cf) == LV_COLOR_FORMAT_I1 ? 2 :\
 183:c:\users\alex\eclipse-workspace\lvgs_test\lib\lvgl\src\misc\lv_color.h ****                                            (cf) == LV_COLOR_FORMAT_I2 ? 4 :\
 184:c:\users\alex\eclipse-workspace\lvgs_test\lib\lvgl\src\misc\lv_color.h ****                                            (cf) == LV_COLOR_FORMAT_I4 ? 16 :\
 185:c:\users\alex\eclipse-workspace\lvgs_test\lib\lvgl\src\misc\lv_color.h ****                                            (cf) == LV_COLOR_FORMAT_I8 ? 256 : 0)
 186:c:\users\alex\eclipse-workspace\lvgs_test\lib\lvgl\src\misc\lv_color.h **** 
 187:c:\users\alex\eclipse-workspace\lvgs_test\lib\lvgl\src\misc\lv_color.h **** /**********************
 188:c:\users\alex\eclipse-workspace\lvgs_test\lib\lvgl\src\misc\lv_color.h ****  * MACROS
 189:c:\users\alex\eclipse-workspace\lvgs_test\lib\lvgl\src\misc\lv_color.h ****  **********************/
 190:c:\users\alex\eclipse-workspace\lvgs_test\lib\lvgl\src\misc\lv_color.h **** 
 191:c:\users\alex\eclipse-workspace\lvgs_test\lib\lvgl\src\misc\lv_color.h **** #define LV_COLOR_MAKE(r8, g8, b8) {b8, g8, r8}
 192:c:\users\alex\eclipse-workspace\lvgs_test\lib\lvgl\src\misc\lv_color.h **** 
 193:c:\users\alex\eclipse-workspace\lvgs_test\lib\lvgl\src\misc\lv_color.h **** #define LV_OPA_MIX2(a1, a2) (((int32_t)(a1) * (a2)) >> 8)
 194:c:\users\alex\eclipse-workspace\lvgs_test\lib\lvgl\src\misc\lv_color.h **** #define LV_OPA_MIX3(a1, a2, a3) (((int32_t)(a1) * (a2) * (a3)) >> 16)
 195:c:\users\alex\eclipse-workspace\lvgs_test\lib\lvgl\src\misc\lv_color.h **** 
 196:c:\users\alex\eclipse-workspace\lvgs_test\lib\lvgl\src\misc\lv_color.h **** /**********************
 197:c:\users\alex\eclipse-workspace\lvgs_test\lib\lvgl\src\misc\lv_color.h ****  * GLOBAL PROTOTYPES
 198:c:\users\alex\eclipse-workspace\lvgs_test\lib\lvgl\src\misc\lv_color.h ****  **********************/
 199:c:\users\alex\eclipse-workspace\lvgs_test\lib\lvgl\src\misc\lv_color.h **** 
 200:c:\users\alex\eclipse-workspace\lvgs_test\lib\lvgl\src\misc\lv_color.h **** /**
 201:c:\users\alex\eclipse-workspace\lvgs_test\lib\lvgl\src\misc\lv_color.h ****  * Get the pixel size of a color format in bits, bpp
ARM GAS  C:\Users\Alex\AppData\Local\Temp\ccR26jun.s 			page 5


 202:c:\users\alex\eclipse-workspace\lvgs_test\lib\lvgl\src\misc\lv_color.h ****  * @param src_cf    a color format (`LV_COLOR_FORMAT_...`)
 203:c:\users\alex\eclipse-workspace\lvgs_test\lib\lvgl\src\misc\lv_color.h ****  * @return          the pixel size in bits
 204:c:\users\alex\eclipse-workspace\lvgs_test\lib\lvgl\src\misc\lv_color.h ****  */
 205:c:\users\alex\eclipse-workspace\lvgs_test\lib\lvgl\src\misc\lv_color.h **** uint8_t lv_color_format_get_bpp(lv_color_format_t cf);
 206:c:\users\alex\eclipse-workspace\lvgs_test\lib\lvgl\src\misc\lv_color.h **** 
 207:c:\users\alex\eclipse-workspace\lvgs_test\lib\lvgl\src\misc\lv_color.h **** /**
 208:c:\users\alex\eclipse-workspace\lvgs_test\lib\lvgl\src\misc\lv_color.h ****  * Get the pixel size of a color format in bytes
 209:c:\users\alex\eclipse-workspace\lvgs_test\lib\lvgl\src\misc\lv_color.h ****  * @param src_cf    a color format (`LV_COLOR_FORMAT_...`)
 210:c:\users\alex\eclipse-workspace\lvgs_test\lib\lvgl\src\misc\lv_color.h ****  * @return          the pixel size in bytes
 211:c:\users\alex\eclipse-workspace\lvgs_test\lib\lvgl\src\misc\lv_color.h ****  */
 212:c:\users\alex\eclipse-workspace\lvgs_test\lib\lvgl\src\misc\lv_color.h **** static inline uint8_t lv_color_format_get_size(lv_color_format_t cf)
 213:c:\users\alex\eclipse-workspace\lvgs_test\lib\lvgl\src\misc\lv_color.h **** {
 214:c:\users\alex\eclipse-workspace\lvgs_test\lib\lvgl\src\misc\lv_color.h ****     return (lv_color_format_get_bpp(cf) + 7) >> 3;
 215:c:\users\alex\eclipse-workspace\lvgs_test\lib\lvgl\src\misc\lv_color.h **** }
 216:c:\users\alex\eclipse-workspace\lvgs_test\lib\lvgl\src\misc\lv_color.h **** 
 217:c:\users\alex\eclipse-workspace\lvgs_test\lib\lvgl\src\misc\lv_color.h **** /**
 218:c:\users\alex\eclipse-workspace\lvgs_test\lib\lvgl\src\misc\lv_color.h ****  * Check if a color format has alpha channel or not
 219:c:\users\alex\eclipse-workspace\lvgs_test\lib\lvgl\src\misc\lv_color.h ****  * @param src_cf    a color format (`LV_COLOR_FORMAT_...`)
 220:c:\users\alex\eclipse-workspace\lvgs_test\lib\lvgl\src\misc\lv_color.h ****  * @return          true: has alpha channel; false: doesn't have alpha channel
 221:c:\users\alex\eclipse-workspace\lvgs_test\lib\lvgl\src\misc\lv_color.h ****  */
 222:c:\users\alex\eclipse-workspace\lvgs_test\lib\lvgl\src\misc\lv_color.h **** bool lv_color_format_has_alpha(lv_color_format_t src_cf);
 223:c:\users\alex\eclipse-workspace\lvgs_test\lib\lvgl\src\misc\lv_color.h **** 
 224:c:\users\alex\eclipse-workspace\lvgs_test\lib\lvgl\src\misc\lv_color.h **** /**
 225:c:\users\alex\eclipse-workspace\lvgs_test\lib\lvgl\src\misc\lv_color.h ****  * Create an ARGB8888 color from RGB888 + alpha
 226:c:\users\alex\eclipse-workspace\lvgs_test\lib\lvgl\src\misc\lv_color.h ****  * @param color     an RGB888 color
 227:c:\users\alex\eclipse-workspace\lvgs_test\lib\lvgl\src\misc\lv_color.h ****  * @param opa       the alpha value
 228:c:\users\alex\eclipse-workspace\lvgs_test\lib\lvgl\src\misc\lv_color.h ****  * @return          the ARGB8888 color
 229:c:\users\alex\eclipse-workspace\lvgs_test\lib\lvgl\src\misc\lv_color.h ****  */
 230:c:\users\alex\eclipse-workspace\lvgs_test\lib\lvgl\src\misc\lv_color.h **** lv_color32_t lv_color_to_32(lv_color_t color, lv_opa_t opa);
 231:c:\users\alex\eclipse-workspace\lvgs_test\lib\lvgl\src\misc\lv_color.h **** 
 232:c:\users\alex\eclipse-workspace\lvgs_test\lib\lvgl\src\misc\lv_color.h **** /**
 233:c:\users\alex\eclipse-workspace\lvgs_test\lib\lvgl\src\misc\lv_color.h ****  * Convert an RGB888 color to an integer
 234:c:\users\alex\eclipse-workspace\lvgs_test\lib\lvgl\src\misc\lv_color.h ****  * @param c     an RGB888 color
 235:c:\users\alex\eclipse-workspace\lvgs_test\lib\lvgl\src\misc\lv_color.h ****  * @return      `c` as an integer
 236:c:\users\alex\eclipse-workspace\lvgs_test\lib\lvgl\src\misc\lv_color.h ****  */
 237:c:\users\alex\eclipse-workspace\lvgs_test\lib\lvgl\src\misc\lv_color.h **** static inline uint32_t lv_color_to_int(lv_color_t c)
 238:c:\users\alex\eclipse-workspace\lvgs_test\lib\lvgl\src\misc\lv_color.h **** {
 239:c:\users\alex\eclipse-workspace\lvgs_test\lib\lvgl\src\misc\lv_color.h ****     uint8_t * tmp = (uint8_t *) &c;
 240:c:\users\alex\eclipse-workspace\lvgs_test\lib\lvgl\src\misc\lv_color.h ****     return tmp[0] + (tmp[1] << 8) + (tmp[2] << 16);
 241:c:\users\alex\eclipse-workspace\lvgs_test\lib\lvgl\src\misc\lv_color.h **** }
 242:c:\users\alex\eclipse-workspace\lvgs_test\lib\lvgl\src\misc\lv_color.h **** 
 243:c:\users\alex\eclipse-workspace\lvgs_test\lib\lvgl\src\misc\lv_color.h **** /**
 244:c:\users\alex\eclipse-workspace\lvgs_test\lib\lvgl\src\misc\lv_color.h ****  * Check if two RGB888 color are equal
 245:c:\users\alex\eclipse-workspace\lvgs_test\lib\lvgl\src\misc\lv_color.h ****  * @param c1    the first color
 246:c:\users\alex\eclipse-workspace\lvgs_test\lib\lvgl\src\misc\lv_color.h ****  * @param c2    the second color
 247:c:\users\alex\eclipse-workspace\lvgs_test\lib\lvgl\src\misc\lv_color.h ****  * @return      true: equal
 248:c:\users\alex\eclipse-workspace\lvgs_test\lib\lvgl\src\misc\lv_color.h ****  */
 249:c:\users\alex\eclipse-workspace\lvgs_test\lib\lvgl\src\misc\lv_color.h **** static inline bool lv_color_eq(lv_color_t c1, lv_color_t c2)
 250:c:\users\alex\eclipse-workspace\lvgs_test\lib\lvgl\src\misc\lv_color.h **** {
  29              		.loc 2 250 1 view -0
  30              		.cfi_startproc
  31              		@ args = 0, pretend = 0, frame = 16
  32              		@ frame_needed = 0, uses_anonymous_args = 0
  33              		@ link register save eliminated.
  34 0000 84B0     		sub	sp, sp, #16
  35              	.LCFI0:
  36              		.cfi_def_cfa_offset 16
ARM GAS  C:\Users\Alex\AppData\Local\Temp\ccR26jun.s 			page 6


  37 0002 0190     		str	r0, [sp, #4]
  38 0004 0091     		str	r1, [sp]
 251:c:\users\alex\eclipse-workspace\lvgs_test\lib\lvgl\src\misc\lv_color.h ****     return lv_color_to_int(c1) == lv_color_to_int(c2);
  39              		.loc 2 251 5 view .LVU1
  40 0006 ADF80C00 		strh	r0, [sp, #12]	@ movhi
  41 000a 030C     		lsrs	r3, r0, #16
  42 000c 8DF80E30 		strb	r3, [sp, #14]
  43              	.LBB50:
  44              	.LBI50:
 237:c:\users\alex\eclipse-workspace\lvgs_test\lib\lvgl\src\misc\lv_color.h **** {
  45              		.loc 2 237 24 view .LVU2
  46              	.LBB51:
 239:c:\users\alex\eclipse-workspace\lvgs_test\lib\lvgl\src\misc\lv_color.h ****     return tmp[0] + (tmp[1] << 8) + (tmp[2] << 16);
  47              		.loc 2 239 5 view .LVU3
  48              	.LVL0:
 240:c:\users\alex\eclipse-workspace\lvgs_test\lib\lvgl\src\misc\lv_color.h **** }
  49              		.loc 2 240 5 view .LVU4
 240:c:\users\alex\eclipse-workspace\lvgs_test\lib\lvgl\src\misc\lv_color.h **** }
  50              		.loc 2 240 15 is_stmt 0 view .LVU5
  51 0010 9DF80C30 		ldrb	r3, [sp, #12]	@ zero_extendqisi2
 240:c:\users\alex\eclipse-workspace\lvgs_test\lib\lvgl\src\misc\lv_color.h **** }
  52              		.loc 2 240 25 view .LVU6
  53 0014 9DF80D20 		ldrb	r2, [sp, #13]	@ zero_extendqisi2
 240:c:\users\alex\eclipse-workspace\lvgs_test\lib\lvgl\src\misc\lv_color.h **** }
  54              		.loc 2 240 19 view .LVU7
  55 0018 03EB0223 		add	r3, r3, r2, lsl #8
 240:c:\users\alex\eclipse-workspace\lvgs_test\lib\lvgl\src\misc\lv_color.h **** }
  56              		.loc 2 240 41 view .LVU8
  57 001c 9DF80E20 		ldrb	r2, [sp, #14]	@ zero_extendqisi2
 240:c:\users\alex\eclipse-workspace\lvgs_test\lib\lvgl\src\misc\lv_color.h **** }
  58              		.loc 2 240 35 view .LVU9
  59 0020 03EB0243 		add	r3, r3, r2, lsl #16
  60 0024 ADF80C10 		strh	r1, [sp, #12]	@ movhi
  61 0028 0A0C     		lsrs	r2, r1, #16
  62 002a 8DF80E20 		strb	r2, [sp, #14]
  63              	.LBE51:
  64              	.LBE50:
  65              	.LBB52:
  66              	.LBI52:
 237:c:\users\alex\eclipse-workspace\lvgs_test\lib\lvgl\src\misc\lv_color.h **** {
  67              		.loc 2 237 24 is_stmt 1 view .LVU10
  68              	.LBB53:
 239:c:\users\alex\eclipse-workspace\lvgs_test\lib\lvgl\src\misc\lv_color.h ****     return tmp[0] + (tmp[1] << 8) + (tmp[2] << 16);
  69              		.loc 2 239 5 view .LVU11
  70              	.LVL1:
 240:c:\users\alex\eclipse-workspace\lvgs_test\lib\lvgl\src\misc\lv_color.h **** }
  71              		.loc 2 240 5 view .LVU12
 240:c:\users\alex\eclipse-workspace\lvgs_test\lib\lvgl\src\misc\lv_color.h **** }
  72              		.loc 2 240 15 is_stmt 0 view .LVU13
  73 002e 9DF80C00 		ldrb	r0, [sp, #12]	@ zero_extendqisi2
 240:c:\users\alex\eclipse-workspace\lvgs_test\lib\lvgl\src\misc\lv_color.h **** }
  74              		.loc 2 240 25 view .LVU14
  75 0032 9DF80D20 		ldrb	r2, [sp, #13]	@ zero_extendqisi2
 240:c:\users\alex\eclipse-workspace\lvgs_test\lib\lvgl\src\misc\lv_color.h **** }
  76              		.loc 2 240 19 view .LVU15
  77 0036 00EB0220 		add	r0, r0, r2, lsl #8
 240:c:\users\alex\eclipse-workspace\lvgs_test\lib\lvgl\src\misc\lv_color.h **** }
ARM GAS  C:\Users\Alex\AppData\Local\Temp\ccR26jun.s 			page 7


  78              		.loc 2 240 41 view .LVU16
  79 003a 9DF80E20 		ldrb	r2, [sp, #14]	@ zero_extendqisi2
 240:c:\users\alex\eclipse-workspace\lvgs_test\lib\lvgl\src\misc\lv_color.h **** }
  80              		.loc 2 240 35 view .LVU17
  81 003e 00EB0240 		add	r0, r0, r2, lsl #16
  82              	.LBE53:
  83              	.LBE52:
 252:c:\users\alex\eclipse-workspace\lvgs_test\lib\lvgl\src\misc\lv_color.h **** }
  84              		.loc 2 252 1 view .LVU18
  85 0042 9842     		cmp	r0, r3
  86 0044 14BF     		ite	ne
  87 0046 0020     		movne	r0, #0
  88 0048 0120     		moveq	r0, #1
  89 004a 04B0     		add	sp, sp, #16
  90              	.LCFI1:
  91              		.cfi_def_cfa_offset 0
  92              	.LVL2:
  93              		.loc 2 252 1 view .LVU19
  94              		@ sp needed
  95 004c 7047     		bx	lr
  96              		.cfi_endproc
  97              	.LFE53:
  99              		.section	.text.lv_color_mix,"ax",%progbits
 100              		.align	1
 101              		.syntax unified
 102              		.thumb
 103              		.thumb_func
 105              	lv_color_mix:
 106              	.LVL3:
 107              	.LFB64:
 108              		.file 3 "c:\\users\\alex\\eclipse-workspace\\lvgs_test\\lib\\lvgl\\src\\misc\\lv_color_op.h"
   1:c:\users\alex\eclipse-workspace\lvgs_test\lib\lvgl\src\misc\lv_color_op.h **** /**
   2:c:\users\alex\eclipse-workspace\lvgs_test\lib\lvgl\src\misc\lv_color_op.h ****  * @file lv_color_op.h
   3:c:\users\alex\eclipse-workspace\lvgs_test\lib\lvgl\src\misc\lv_color_op.h ****  *
   4:c:\users\alex\eclipse-workspace\lvgs_test\lib\lvgl\src\misc\lv_color_op.h ****  */
   5:c:\users\alex\eclipse-workspace\lvgs_test\lib\lvgl\src\misc\lv_color_op.h **** 
   6:c:\users\alex\eclipse-workspace\lvgs_test\lib\lvgl\src\misc\lv_color_op.h **** #ifndef LV_COLOR_OP_H
   7:c:\users\alex\eclipse-workspace\lvgs_test\lib\lvgl\src\misc\lv_color_op.h **** #define LV_COLOR_OP_H
   8:c:\users\alex\eclipse-workspace\lvgs_test\lib\lvgl\src\misc\lv_color_op.h **** 
   9:c:\users\alex\eclipse-workspace\lvgs_test\lib\lvgl\src\misc\lv_color_op.h **** #ifdef __cplusplus
  10:c:\users\alex\eclipse-workspace\lvgs_test\lib\lvgl\src\misc\lv_color_op.h **** extern "C" {
  11:c:\users\alex\eclipse-workspace\lvgs_test\lib\lvgl\src\misc\lv_color_op.h **** #endif
  12:c:\users\alex\eclipse-workspace\lvgs_test\lib\lvgl\src\misc\lv_color_op.h **** 
  13:c:\users\alex\eclipse-workspace\lvgs_test\lib\lvgl\src\misc\lv_color_op.h **** /*********************
  14:c:\users\alex\eclipse-workspace\lvgs_test\lib\lvgl\src\misc\lv_color_op.h ****  *      INCLUDES
  15:c:\users\alex\eclipse-workspace\lvgs_test\lib\lvgl\src\misc\lv_color_op.h ****  *********************/
  16:c:\users\alex\eclipse-workspace\lvgs_test\lib\lvgl\src\misc\lv_color_op.h **** #include "lv_assert.h"
  17:c:\users\alex\eclipse-workspace\lvgs_test\lib\lvgl\src\misc\lv_color_op.h **** #include "lv_math.h"
  18:c:\users\alex\eclipse-workspace\lvgs_test\lib\lvgl\src\misc\lv_color_op.h **** #include "lv_color.h"
  19:c:\users\alex\eclipse-workspace\lvgs_test\lib\lvgl\src\misc\lv_color_op.h **** #include <stdint.h>
  20:c:\users\alex\eclipse-workspace\lvgs_test\lib\lvgl\src\misc\lv_color_op.h **** 
  21:c:\users\alex\eclipse-workspace\lvgs_test\lib\lvgl\src\misc\lv_color_op.h **** /*********************
  22:c:\users\alex\eclipse-workspace\lvgs_test\lib\lvgl\src\misc\lv_color_op.h ****  *      DEFINES
  23:c:\users\alex\eclipse-workspace\lvgs_test\lib\lvgl\src\misc\lv_color_op.h ****  *********************/
  24:c:\users\alex\eclipse-workspace\lvgs_test\lib\lvgl\src\misc\lv_color_op.h **** 
  25:c:\users\alex\eclipse-workspace\lvgs_test\lib\lvgl\src\misc\lv_color_op.h **** /**********************
  26:c:\users\alex\eclipse-workspace\lvgs_test\lib\lvgl\src\misc\lv_color_op.h ****  *      TYPEDEFS
ARM GAS  C:\Users\Alex\AppData\Local\Temp\ccR26jun.s 			page 8


  27:c:\users\alex\eclipse-workspace\lvgs_test\lib\lvgl\src\misc\lv_color_op.h ****  **********************/
  28:c:\users\alex\eclipse-workspace\lvgs_test\lib\lvgl\src\misc\lv_color_op.h **** 
  29:c:\users\alex\eclipse-workspace\lvgs_test\lib\lvgl\src\misc\lv_color_op.h **** struct _lv_color_filter_dsc_t;
  30:c:\users\alex\eclipse-workspace\lvgs_test\lib\lvgl\src\misc\lv_color_op.h **** 
  31:c:\users\alex\eclipse-workspace\lvgs_test\lib\lvgl\src\misc\lv_color_op.h **** typedef lv_color_t (*lv_color_filter_cb_t)(const struct _lv_color_filter_dsc_t *, lv_color_t, lv_op
  32:c:\users\alex\eclipse-workspace\lvgs_test\lib\lvgl\src\misc\lv_color_op.h **** 
  33:c:\users\alex\eclipse-workspace\lvgs_test\lib\lvgl\src\misc\lv_color_op.h **** typedef struct _lv_color_filter_dsc_t {
  34:c:\users\alex\eclipse-workspace\lvgs_test\lib\lvgl\src\misc\lv_color_op.h ****     lv_color_filter_cb_t filter_cb;
  35:c:\users\alex\eclipse-workspace\lvgs_test\lib\lvgl\src\misc\lv_color_op.h ****     void * user_data;
  36:c:\users\alex\eclipse-workspace\lvgs_test\lib\lvgl\src\misc\lv_color_op.h **** } lv_color_filter_dsc_t;
  37:c:\users\alex\eclipse-workspace\lvgs_test\lib\lvgl\src\misc\lv_color_op.h **** 
  38:c:\users\alex\eclipse-workspace\lvgs_test\lib\lvgl\src\misc\lv_color_op.h **** /**********************
  39:c:\users\alex\eclipse-workspace\lvgs_test\lib\lvgl\src\misc\lv_color_op.h ****  * GLOBAL PROTOTYPES
  40:c:\users\alex\eclipse-workspace\lvgs_test\lib\lvgl\src\misc\lv_color_op.h ****  **********************/
  41:c:\users\alex\eclipse-workspace\lvgs_test\lib\lvgl\src\misc\lv_color_op.h **** 
  42:c:\users\alex\eclipse-workspace\lvgs_test\lib\lvgl\src\misc\lv_color_op.h **** /**
  43:c:\users\alex\eclipse-workspace\lvgs_test\lib\lvgl\src\misc\lv_color_op.h ****  * Mix two colors with a given ratio.
  44:c:\users\alex\eclipse-workspace\lvgs_test\lib\lvgl\src\misc\lv_color_op.h ****  * @param c1 the first color to mix (usually the foreground)
  45:c:\users\alex\eclipse-workspace\lvgs_test\lib\lvgl\src\misc\lv_color_op.h ****  * @param c2 the second color to mix (usually the background)
  46:c:\users\alex\eclipse-workspace\lvgs_test\lib\lvgl\src\misc\lv_color_op.h ****  * @param mix The ratio of the colors. 0: full `c2`, 255: full `c1`, 127: half `c1` and half`c2`
  47:c:\users\alex\eclipse-workspace\lvgs_test\lib\lvgl\src\misc\lv_color_op.h ****  * @return the mixed color
  48:c:\users\alex\eclipse-workspace\lvgs_test\lib\lvgl\src\misc\lv_color_op.h ****  */
  49:c:\users\alex\eclipse-workspace\lvgs_test\lib\lvgl\src\misc\lv_color_op.h **** LV_ATTRIBUTE_FAST_MEM static inline lv_color_t lv_color_mix(lv_color_t c1, lv_color_t c2, uint8_t m
  50:c:\users\alex\eclipse-workspace\lvgs_test\lib\lvgl\src\misc\lv_color_op.h **** {
 109              		.loc 3 50 1 is_stmt 1 view -0
 110              		.cfi_startproc
 111              		@ args = 0, pretend = 0, frame = 16
 112              		@ frame_needed = 0, uses_anonymous_args = 0
 113              		@ link register save eliminated.
 114              		.loc 3 50 1 is_stmt 0 view .LVU21
 115 0000 84B0     		sub	sp, sp, #16
 116              	.LCFI2:
 117              		.cfi_def_cfa_offset 16
 118 0002 0190     		str	r0, [sp, #4]
 119 0004 0091     		str	r1, [sp]
  51:c:\users\alex\eclipse-workspace\lvgs_test\lib\lvgl\src\misc\lv_color_op.h ****     lv_color_t ret;
 120              		.loc 3 51 5 is_stmt 1 view .LVU22
  52:c:\users\alex\eclipse-workspace\lvgs_test\lib\lvgl\src\misc\lv_color_op.h **** 
  53:c:\users\alex\eclipse-workspace\lvgs_test\lib\lvgl\src\misc\lv_color_op.h ****     ret.red = LV_UDIV255((uint16_t)c1.red * mix + c2.red * (255 - mix) + LV_COLOR_MIX_ROUND_OFS);
 121              		.loc 3 53 5 view .LVU23
 122              		.loc 3 53 15 is_stmt 0 view .LVU24
 123 0006 9DF80600 		ldrb	r0, [sp, #6]	@ zero_extendqisi2
 124 000a 9DF80210 		ldrb	r1, [sp, #2]	@ zero_extendqisi2
 125 000e C2F1FF03 		rsb	r3, r2, #255
 126 0012 03FB01F1 		mul	r1, r3, r1
 127 0016 02FB0011 		mla	r1, r2, r0, r1
 128 001a 01EB0120 		add	r0, r1, r1, lsl #8
 129 001e 01EBC011 		add	r1, r1, r0, lsl #7
 130 0022 C90D     		lsrs	r1, r1, #23
 131              		.loc 3 53 13 view .LVU25
 132 0024 8DF80A10 		strb	r1, [sp, #10]
  54:c:\users\alex\eclipse-workspace\lvgs_test\lib\lvgl\src\misc\lv_color_op.h ****     ret.green = LV_UDIV255((uint16_t)c1.green * mix + c2.green * (255 - mix) + LV_COLOR_MIX_ROUND_O
 133              		.loc 3 54 5 is_stmt 1 view .LVU26
 134              		.loc 3 54 17 is_stmt 0 view .LVU27
 135 0028 9DF80500 		ldrb	r0, [sp, #5]	@ zero_extendqisi2
 136 002c 9DF80110 		ldrb	r1, [sp, #1]	@ zero_extendqisi2
 137 0030 03FB01F1 		mul	r1, r3, r1
ARM GAS  C:\Users\Alex\AppData\Local\Temp\ccR26jun.s 			page 9


 138 0034 00FB0211 		mla	r1, r0, r2, r1
 139 0038 01EB0120 		add	r0, r1, r1, lsl #8
 140 003c 01EBC011 		add	r1, r1, r0, lsl #7
 141 0040 C90D     		lsrs	r1, r1, #23
 142              		.loc 3 54 15 view .LVU28
 143 0042 8DF80910 		strb	r1, [sp, #9]
  55:c:\users\alex\eclipse-workspace\lvgs_test\lib\lvgl\src\misc\lv_color_op.h ****     ret.blue = LV_UDIV255((uint16_t)c1.blue * mix + c2.blue * (255 - mix) + LV_COLOR_MIX_ROUND_OFS)
 144              		.loc 3 55 5 is_stmt 1 view .LVU29
 145              		.loc 3 55 16 is_stmt 0 view .LVU30
 146 0046 9DF80410 		ldrb	r1, [sp, #4]	@ zero_extendqisi2
 147 004a 9DF80000 		ldrb	r0, [sp]	@ zero_extendqisi2
 148 004e 00FB03F3 		mul	r3, r0, r3
 149 0052 01FB0232 		mla	r2, r1, r2, r3
 150              	.LVL4:
 151              		.loc 3 55 16 view .LVU31
 152 0056 02EB0223 		add	r3, r2, r2, lsl #8
 153 005a 02EBC312 		add	r2, r2, r3, lsl #7
 154 005e D20D     		lsrs	r2, r2, #23
 155              		.loc 3 55 14 view .LVU32
 156 0060 8DF80820 		strb	r2, [sp, #8]
  56:c:\users\alex\eclipse-workspace\lvgs_test\lib\lvgl\src\misc\lv_color_op.h ****     return ret;
 157              		.loc 3 56 5 is_stmt 1 view .LVU33
 158              		.loc 3 56 12 is_stmt 0 view .LVU34
 159 0064 029B     		ldr	r3, [sp, #8]
 160 0066 ADF80C30 		strh	r3, [sp, #12]	@ movhi
 161 006a 1B0C     		lsrs	r3, r3, #16
 162 006c 8DF80E30 		strb	r3, [sp, #14]
 163 0070 0020     		movs	r0, #0
 164 0072 9DF80C30 		ldrb	r3, [sp, #12]	@ zero_extendqisi2
 165 0076 63F30700 		bfi	r0, r3, #0, #8
 166 007a 9DF80D30 		ldrb	r3, [sp, #13]	@ zero_extendqisi2
 167 007e 63F30F20 		bfi	r0, r3, #8, #8
 168 0082 9DF80E30 		ldrb	r3, [sp, #14]	@ zero_extendqisi2
 169 0086 63F31740 		bfi	r0, r3, #16, #8
  57:c:\users\alex\eclipse-workspace\lvgs_test\lib\lvgl\src\misc\lv_color_op.h **** }
 170              		.loc 3 57 1 view .LVU35
 171 008a 04B0     		add	sp, sp, #16
 172              	.LCFI3:
 173              		.cfi_def_cfa_offset 0
 174              		@ sp needed
 175 008c 7047     		bx	lr
 176              		.cfi_endproc
 177              	.LFE64:
 179              		.section	.text.theme_apply,"ax",%progbits
 180              		.align	1
 181              		.syntax unified
 182              		.thumb
 183              		.thumb_func
 185              	theme_apply:
 186              	.LVL5:
 187              	.LFB263:
   1:Lib/lvgl/src/themes/default/lv_theme_default.c **** /**
   2:Lib/lvgl/src/themes/default/lv_theme_default.c ****  * @file lv_theme_default.c
   3:Lib/lvgl/src/themes/default/lv_theme_default.c ****  *
   4:Lib/lvgl/src/themes/default/lv_theme_default.c ****  */
   5:Lib/lvgl/src/themes/default/lv_theme_default.c **** 
   6:Lib/lvgl/src/themes/default/lv_theme_default.c **** /*********************
ARM GAS  C:\Users\Alex\AppData\Local\Temp\ccR26jun.s 			page 10


   7:Lib/lvgl/src/themes/default/lv_theme_default.c ****  *      INCLUDES
   8:Lib/lvgl/src/themes/default/lv_theme_default.c ****  *********************/
   9:Lib/lvgl/src/themes/default/lv_theme_default.c **** #include "../../../lvgl.h" /*To see all the widgets*/
  10:Lib/lvgl/src/themes/default/lv_theme_default.c **** 
  11:Lib/lvgl/src/themes/default/lv_theme_default.c **** #if LV_USE_THEME_DEFAULT
  12:Lib/lvgl/src/themes/default/lv_theme_default.c **** 
  13:Lib/lvgl/src/themes/default/lv_theme_default.c **** #include "../lv_theme.h"
  14:Lib/lvgl/src/themes/default/lv_theme_default.c **** #include "../../misc/lv_color.h"
  15:Lib/lvgl/src/themes/default/lv_theme_default.c **** #include "../../core/lv_global.h"
  16:Lib/lvgl/src/themes/default/lv_theme_default.c **** 
  17:Lib/lvgl/src/themes/default/lv_theme_default.c **** /*********************
  18:Lib/lvgl/src/themes/default/lv_theme_default.c ****  *      DEFINES
  19:Lib/lvgl/src/themes/default/lv_theme_default.c ****  *********************/
  20:Lib/lvgl/src/themes/default/lv_theme_default.c **** 
  21:Lib/lvgl/src/themes/default/lv_theme_default.c **** struct _my_theme_t;
  22:Lib/lvgl/src/themes/default/lv_theme_default.c **** typedef struct _my_theme_t my_theme_t;
  23:Lib/lvgl/src/themes/default/lv_theme_default.c **** 
  24:Lib/lvgl/src/themes/default/lv_theme_default.c **** #define theme_def (*(my_theme_t **)(&LV_GLOBAL_DEFAULT()->theme_default))
  25:Lib/lvgl/src/themes/default/lv_theme_default.c **** 
  26:Lib/lvgl/src/themes/default/lv_theme_default.c **** #define MODE_DARK 1
  27:Lib/lvgl/src/themes/default/lv_theme_default.c **** #define RADIUS_DEFAULT _LV_DPX_CALC(theme->disp_dpi, theme->disp_size == DISP_LARGE ? 12 : 8)
  28:Lib/lvgl/src/themes/default/lv_theme_default.c **** 
  29:Lib/lvgl/src/themes/default/lv_theme_default.c **** /*SCREEN*/
  30:Lib/lvgl/src/themes/default/lv_theme_default.c **** #define LIGHT_COLOR_SCR        lv_palette_lighten(LV_PALETTE_GREY, 4)
  31:Lib/lvgl/src/themes/default/lv_theme_default.c **** #define LIGHT_COLOR_CARD       lv_color_white()
  32:Lib/lvgl/src/themes/default/lv_theme_default.c **** #define LIGHT_COLOR_TEXT       lv_palette_darken(LV_PALETTE_GREY, 4)
  33:Lib/lvgl/src/themes/default/lv_theme_default.c **** #define LIGHT_COLOR_GREY       lv_palette_lighten(LV_PALETTE_GREY, 2)
  34:Lib/lvgl/src/themes/default/lv_theme_default.c **** #define DARK_COLOR_SCR         lv_color_hex(0x15171A)
  35:Lib/lvgl/src/themes/default/lv_theme_default.c **** #define DARK_COLOR_CARD        lv_color_hex(0x282b30)
  36:Lib/lvgl/src/themes/default/lv_theme_default.c **** #define DARK_COLOR_TEXT        lv_palette_lighten(LV_PALETTE_GREY, 5)
  37:Lib/lvgl/src/themes/default/lv_theme_default.c **** #define DARK_COLOR_GREY        lv_color_hex(0x2f3237)
  38:Lib/lvgl/src/themes/default/lv_theme_default.c **** 
  39:Lib/lvgl/src/themes/default/lv_theme_default.c **** #define TRANSITION_TIME         LV_THEME_DEFAULT_TRANSITION_TIME
  40:Lib/lvgl/src/themes/default/lv_theme_default.c **** #define BORDER_WIDTH            _LV_DPX_CALC(theme->disp_dpi, 2)
  41:Lib/lvgl/src/themes/default/lv_theme_default.c **** #define OUTLINE_WIDTH           _LV_DPX_CALC(theme->disp_dpi, 3)
  42:Lib/lvgl/src/themes/default/lv_theme_default.c **** 
  43:Lib/lvgl/src/themes/default/lv_theme_default.c **** #define PAD_DEF     _LV_DPX_CALC(theme->disp_dpi, theme->disp_size == DISP_LARGE ? 24 : theme->disp
  44:Lib/lvgl/src/themes/default/lv_theme_default.c **** #define PAD_SMALL   _LV_DPX_CALC(theme->disp_dpi, theme->disp_size == DISP_LARGE ? 14 : theme->disp
  45:Lib/lvgl/src/themes/default/lv_theme_default.c **** #define PAD_TINY    _LV_DPX_CALC(theme->disp_dpi, theme->disp_size == DISP_LARGE ? 8 : theme->disp_
  46:Lib/lvgl/src/themes/default/lv_theme_default.c **** 
  47:Lib/lvgl/src/themes/default/lv_theme_default.c **** /**********************
  48:Lib/lvgl/src/themes/default/lv_theme_default.c ****  *      TYPEDEFS
  49:Lib/lvgl/src/themes/default/lv_theme_default.c ****  **********************/
  50:Lib/lvgl/src/themes/default/lv_theme_default.c **** typedef struct {
  51:Lib/lvgl/src/themes/default/lv_theme_default.c ****     lv_style_t scr;
  52:Lib/lvgl/src/themes/default/lv_theme_default.c ****     lv_style_t scrollbar;
  53:Lib/lvgl/src/themes/default/lv_theme_default.c ****     lv_style_t scrollbar_scrolled;
  54:Lib/lvgl/src/themes/default/lv_theme_default.c ****     lv_style_t card;
  55:Lib/lvgl/src/themes/default/lv_theme_default.c ****     lv_style_t btn;
  56:Lib/lvgl/src/themes/default/lv_theme_default.c **** 
  57:Lib/lvgl/src/themes/default/lv_theme_default.c ****     /*Utility*/
  58:Lib/lvgl/src/themes/default/lv_theme_default.c ****     lv_style_t bg_color_primary;
  59:Lib/lvgl/src/themes/default/lv_theme_default.c ****     lv_style_t bg_color_primary_muted;
  60:Lib/lvgl/src/themes/default/lv_theme_default.c ****     lv_style_t bg_color_secondary;
  61:Lib/lvgl/src/themes/default/lv_theme_default.c ****     lv_style_t bg_color_secondary_muted;
  62:Lib/lvgl/src/themes/default/lv_theme_default.c ****     lv_style_t bg_color_grey;
  63:Lib/lvgl/src/themes/default/lv_theme_default.c ****     lv_style_t bg_color_white;
ARM GAS  C:\Users\Alex\AppData\Local\Temp\ccR26jun.s 			page 11


  64:Lib/lvgl/src/themes/default/lv_theme_default.c ****     lv_style_t pressed;
  65:Lib/lvgl/src/themes/default/lv_theme_default.c ****     lv_style_t disabled;
  66:Lib/lvgl/src/themes/default/lv_theme_default.c ****     lv_style_t pad_zero;
  67:Lib/lvgl/src/themes/default/lv_theme_default.c ****     lv_style_t pad_tiny;
  68:Lib/lvgl/src/themes/default/lv_theme_default.c ****     lv_style_t pad_small;
  69:Lib/lvgl/src/themes/default/lv_theme_default.c ****     lv_style_t pad_normal;
  70:Lib/lvgl/src/themes/default/lv_theme_default.c ****     lv_style_t pad_gap;
  71:Lib/lvgl/src/themes/default/lv_theme_default.c ****     lv_style_t line_space_large;
  72:Lib/lvgl/src/themes/default/lv_theme_default.c ****     lv_style_t text_align_center;
  73:Lib/lvgl/src/themes/default/lv_theme_default.c ****     lv_style_t outline_primary;
  74:Lib/lvgl/src/themes/default/lv_theme_default.c ****     lv_style_t outline_secondary;
  75:Lib/lvgl/src/themes/default/lv_theme_default.c ****     lv_style_t circle;
  76:Lib/lvgl/src/themes/default/lv_theme_default.c ****     lv_style_t no_radius;
  77:Lib/lvgl/src/themes/default/lv_theme_default.c ****     lv_style_t clip_corner;
  78:Lib/lvgl/src/themes/default/lv_theme_default.c **** #if LV_THEME_DEFAULT_GROW
  79:Lib/lvgl/src/themes/default/lv_theme_default.c ****     lv_style_t grow;
  80:Lib/lvgl/src/themes/default/lv_theme_default.c **** #endif
  81:Lib/lvgl/src/themes/default/lv_theme_default.c ****     lv_style_t transition_delayed;
  82:Lib/lvgl/src/themes/default/lv_theme_default.c ****     lv_style_t transition_normal;
  83:Lib/lvgl/src/themes/default/lv_theme_default.c ****     lv_style_t anim;
  84:Lib/lvgl/src/themes/default/lv_theme_default.c ****     lv_style_t anim_fast;
  85:Lib/lvgl/src/themes/default/lv_theme_default.c **** 
  86:Lib/lvgl/src/themes/default/lv_theme_default.c ****     /*Parts*/
  87:Lib/lvgl/src/themes/default/lv_theme_default.c ****     lv_style_t knob;
  88:Lib/lvgl/src/themes/default/lv_theme_default.c **** 
  89:Lib/lvgl/src/themes/default/lv_theme_default.c **** #if LV_USE_ARC
  90:Lib/lvgl/src/themes/default/lv_theme_default.c ****     lv_style_t arc_indic;
  91:Lib/lvgl/src/themes/default/lv_theme_default.c ****     lv_style_t arc_indic_primary;
  92:Lib/lvgl/src/themes/default/lv_theme_default.c **** #endif
  93:Lib/lvgl/src/themes/default/lv_theme_default.c **** 
  94:Lib/lvgl/src/themes/default/lv_theme_default.c **** #if LV_USE_CHART
  95:Lib/lvgl/src/themes/default/lv_theme_default.c ****     lv_style_t chart_series, chart_indic, chart_bg;
  96:Lib/lvgl/src/themes/default/lv_theme_default.c **** #endif
  97:Lib/lvgl/src/themes/default/lv_theme_default.c **** 
  98:Lib/lvgl/src/themes/default/lv_theme_default.c **** #if LV_USE_DROPDOWN
  99:Lib/lvgl/src/themes/default/lv_theme_default.c ****     lv_style_t dropdown_list;
 100:Lib/lvgl/src/themes/default/lv_theme_default.c **** #endif
 101:Lib/lvgl/src/themes/default/lv_theme_default.c **** 
 102:Lib/lvgl/src/themes/default/lv_theme_default.c **** #if LV_USE_CHECKBOX
 103:Lib/lvgl/src/themes/default/lv_theme_default.c ****     lv_style_t cb_marker, cb_marker_checked;
 104:Lib/lvgl/src/themes/default/lv_theme_default.c **** #endif
 105:Lib/lvgl/src/themes/default/lv_theme_default.c **** 
 106:Lib/lvgl/src/themes/default/lv_theme_default.c **** #if LV_USE_SWITCH
 107:Lib/lvgl/src/themes/default/lv_theme_default.c ****     lv_style_t switch_knob;
 108:Lib/lvgl/src/themes/default/lv_theme_default.c **** #endif
 109:Lib/lvgl/src/themes/default/lv_theme_default.c **** 
 110:Lib/lvgl/src/themes/default/lv_theme_default.c **** #if LV_USE_LINE
 111:Lib/lvgl/src/themes/default/lv_theme_default.c ****     lv_style_t line;
 112:Lib/lvgl/src/themes/default/lv_theme_default.c **** #endif
 113:Lib/lvgl/src/themes/default/lv_theme_default.c **** 
 114:Lib/lvgl/src/themes/default/lv_theme_default.c **** #if LV_USE_TABLE
 115:Lib/lvgl/src/themes/default/lv_theme_default.c ****     lv_style_t table_cell;
 116:Lib/lvgl/src/themes/default/lv_theme_default.c **** #endif
 117:Lib/lvgl/src/themes/default/lv_theme_default.c **** 
 118:Lib/lvgl/src/themes/default/lv_theme_default.c **** #if LV_USE_TEXTAREA
 119:Lib/lvgl/src/themes/default/lv_theme_default.c ****     lv_style_t ta_cursor, ta_placeholder;
 120:Lib/lvgl/src/themes/default/lv_theme_default.c **** #endif
ARM GAS  C:\Users\Alex\AppData\Local\Temp\ccR26jun.s 			page 12


 121:Lib/lvgl/src/themes/default/lv_theme_default.c **** 
 122:Lib/lvgl/src/themes/default/lv_theme_default.c **** #if LV_USE_CALENDAR
 123:Lib/lvgl/src/themes/default/lv_theme_default.c ****     lv_style_t calendar_btnm_bg, calendar_btnm_day, calendar_header;
 124:Lib/lvgl/src/themes/default/lv_theme_default.c **** #endif
 125:Lib/lvgl/src/themes/default/lv_theme_default.c **** 
 126:Lib/lvgl/src/themes/default/lv_theme_default.c **** #if LV_USE_MENU
 127:Lib/lvgl/src/themes/default/lv_theme_default.c ****     lv_style_t menu_bg, menu_cont, menu_sidebar_cont, menu_main_cont, menu_page, menu_header_cont, 
 128:Lib/lvgl/src/themes/default/lv_theme_default.c ****                menu_section, menu_pressed, menu_separator;
 129:Lib/lvgl/src/themes/default/lv_theme_default.c **** #endif
 130:Lib/lvgl/src/themes/default/lv_theme_default.c **** 
 131:Lib/lvgl/src/themes/default/lv_theme_default.c **** #if LV_USE_MSGBOX
 132:Lib/lvgl/src/themes/default/lv_theme_default.c ****     lv_style_t msgbox_backdrop_bg;
 133:Lib/lvgl/src/themes/default/lv_theme_default.c **** #endif
 134:Lib/lvgl/src/themes/default/lv_theme_default.c **** 
 135:Lib/lvgl/src/themes/default/lv_theme_default.c **** #if LV_USE_KEYBOARD
 136:Lib/lvgl/src/themes/default/lv_theme_default.c ****     lv_style_t keyboard_button_bg;
 137:Lib/lvgl/src/themes/default/lv_theme_default.c **** #endif
 138:Lib/lvgl/src/themes/default/lv_theme_default.c **** 
 139:Lib/lvgl/src/themes/default/lv_theme_default.c **** #if LV_USE_LIST
 140:Lib/lvgl/src/themes/default/lv_theme_default.c ****     lv_style_t list_bg, list_btn, list_item_grow;
 141:Lib/lvgl/src/themes/default/lv_theme_default.c **** #endif
 142:Lib/lvgl/src/themes/default/lv_theme_default.c **** 
 143:Lib/lvgl/src/themes/default/lv_theme_default.c **** #if LV_USE_TABVIEW
 144:Lib/lvgl/src/themes/default/lv_theme_default.c ****     lv_style_t tab_bg_focus, tab_btn;
 145:Lib/lvgl/src/themes/default/lv_theme_default.c **** #endif
 146:Lib/lvgl/src/themes/default/lv_theme_default.c **** #if LV_USE_LED
 147:Lib/lvgl/src/themes/default/lv_theme_default.c ****     lv_style_t led;
 148:Lib/lvgl/src/themes/default/lv_theme_default.c **** #endif
 149:Lib/lvgl/src/themes/default/lv_theme_default.c **** 
 150:Lib/lvgl/src/themes/default/lv_theme_default.c **** #if LV_USE_SCALE
 151:Lib/lvgl/src/themes/default/lv_theme_default.c ****     lv_style_t scale;
 152:Lib/lvgl/src/themes/default/lv_theme_default.c **** #endif
 153:Lib/lvgl/src/themes/default/lv_theme_default.c **** } my_theme_styles_t;
 154:Lib/lvgl/src/themes/default/lv_theme_default.c **** 
 155:Lib/lvgl/src/themes/default/lv_theme_default.c **** typedef enum {
 156:Lib/lvgl/src/themes/default/lv_theme_default.c ****     DISP_SMALL = 3,
 157:Lib/lvgl/src/themes/default/lv_theme_default.c ****     DISP_MEDIUM = 2,
 158:Lib/lvgl/src/themes/default/lv_theme_default.c ****     DISP_LARGE = 1,
 159:Lib/lvgl/src/themes/default/lv_theme_default.c **** } disp_size_t;
 160:Lib/lvgl/src/themes/default/lv_theme_default.c **** 
 161:Lib/lvgl/src/themes/default/lv_theme_default.c **** struct _my_theme_t {
 162:Lib/lvgl/src/themes/default/lv_theme_default.c ****     lv_theme_t base;
 163:Lib/lvgl/src/themes/default/lv_theme_default.c ****     disp_size_t disp_size;
 164:Lib/lvgl/src/themes/default/lv_theme_default.c ****     int32_t disp_dpi;
 165:Lib/lvgl/src/themes/default/lv_theme_default.c ****     lv_color_t color_scr;
 166:Lib/lvgl/src/themes/default/lv_theme_default.c ****     lv_color_t color_text;
 167:Lib/lvgl/src/themes/default/lv_theme_default.c ****     lv_color_t color_card;
 168:Lib/lvgl/src/themes/default/lv_theme_default.c ****     lv_color_t color_grey;
 169:Lib/lvgl/src/themes/default/lv_theme_default.c ****     bool inited;
 170:Lib/lvgl/src/themes/default/lv_theme_default.c ****     my_theme_styles_t styles;
 171:Lib/lvgl/src/themes/default/lv_theme_default.c **** 
 172:Lib/lvgl/src/themes/default/lv_theme_default.c ****     lv_color_filter_dsc_t dark_filter;
 173:Lib/lvgl/src/themes/default/lv_theme_default.c ****     lv_color_filter_dsc_t grey_filter;
 174:Lib/lvgl/src/themes/default/lv_theme_default.c **** 
 175:Lib/lvgl/src/themes/default/lv_theme_default.c **** #if LV_THEME_DEFAULT_TRANSITION_TIME
 176:Lib/lvgl/src/themes/default/lv_theme_default.c ****     lv_style_transition_dsc_t trans_delayed;
 177:Lib/lvgl/src/themes/default/lv_theme_default.c ****     lv_style_transition_dsc_t trans_normal;
ARM GAS  C:\Users\Alex\AppData\Local\Temp\ccR26jun.s 			page 13


 178:Lib/lvgl/src/themes/default/lv_theme_default.c **** #endif
 179:Lib/lvgl/src/themes/default/lv_theme_default.c **** };
 180:Lib/lvgl/src/themes/default/lv_theme_default.c **** 
 181:Lib/lvgl/src/themes/default/lv_theme_default.c **** /**********************
 182:Lib/lvgl/src/themes/default/lv_theme_default.c ****  *  STATIC PROTOTYPES
 183:Lib/lvgl/src/themes/default/lv_theme_default.c ****  **********************/
 184:Lib/lvgl/src/themes/default/lv_theme_default.c **** static void theme_apply(lv_theme_t * th, lv_obj_t * obj);
 185:Lib/lvgl/src/themes/default/lv_theme_default.c **** static void style_init_reset(lv_style_t * style);
 186:Lib/lvgl/src/themes/default/lv_theme_default.c **** 
 187:Lib/lvgl/src/themes/default/lv_theme_default.c **** /**********************
 188:Lib/lvgl/src/themes/default/lv_theme_default.c ****  *  STATIC VARIABLES
 189:Lib/lvgl/src/themes/default/lv_theme_default.c ****  **********************/
 190:Lib/lvgl/src/themes/default/lv_theme_default.c **** 
 191:Lib/lvgl/src/themes/default/lv_theme_default.c **** /**********************
 192:Lib/lvgl/src/themes/default/lv_theme_default.c ****  *      MACROS
 193:Lib/lvgl/src/themes/default/lv_theme_default.c ****  **********************/
 194:Lib/lvgl/src/themes/default/lv_theme_default.c **** 
 195:Lib/lvgl/src/themes/default/lv_theme_default.c **** /**********************
 196:Lib/lvgl/src/themes/default/lv_theme_default.c ****  *   STATIC FUNCTIONS
 197:Lib/lvgl/src/themes/default/lv_theme_default.c ****  **********************/
 198:Lib/lvgl/src/themes/default/lv_theme_default.c **** 
 199:Lib/lvgl/src/themes/default/lv_theme_default.c **** static lv_color_t dark_color_filter_cb(const lv_color_filter_dsc_t * f, lv_color_t c, lv_opa_t opa)
 200:Lib/lvgl/src/themes/default/lv_theme_default.c **** {
 201:Lib/lvgl/src/themes/default/lv_theme_default.c ****     LV_UNUSED(f);
 202:Lib/lvgl/src/themes/default/lv_theme_default.c ****     return lv_color_darken(c, opa);
 203:Lib/lvgl/src/themes/default/lv_theme_default.c **** }
 204:Lib/lvgl/src/themes/default/lv_theme_default.c **** 
 205:Lib/lvgl/src/themes/default/lv_theme_default.c **** static lv_color_t grey_filter_cb(const lv_color_filter_dsc_t * f, lv_color_t color, lv_opa_t opa)
 206:Lib/lvgl/src/themes/default/lv_theme_default.c **** {
 207:Lib/lvgl/src/themes/default/lv_theme_default.c ****     LV_UNUSED(f);
 208:Lib/lvgl/src/themes/default/lv_theme_default.c ****     if(theme_def->base.flags & MODE_DARK) return lv_color_mix(lv_palette_darken(LV_PALETTE_GREY, 2)
 209:Lib/lvgl/src/themes/default/lv_theme_default.c ****     else return lv_color_mix(lv_palette_lighten(LV_PALETTE_GREY, 2), color, opa);
 210:Lib/lvgl/src/themes/default/lv_theme_default.c **** }
 211:Lib/lvgl/src/themes/default/lv_theme_default.c **** 
 212:Lib/lvgl/src/themes/default/lv_theme_default.c **** static void style_init(my_theme_t * theme)
 213:Lib/lvgl/src/themes/default/lv_theme_default.c **** {
 214:Lib/lvgl/src/themes/default/lv_theme_default.c **** #if TRANSITION_TIME
 215:Lib/lvgl/src/themes/default/lv_theme_default.c ****     static const lv_style_prop_t trans_props[] = {
 216:Lib/lvgl/src/themes/default/lv_theme_default.c ****         LV_STYLE_BG_OPA, LV_STYLE_BG_COLOR,
 217:Lib/lvgl/src/themes/default/lv_theme_default.c ****         LV_STYLE_TRANSFORM_WIDTH, LV_STYLE_TRANSFORM_HEIGHT,
 218:Lib/lvgl/src/themes/default/lv_theme_default.c ****         LV_STYLE_TRANSLATE_Y, LV_STYLE_TRANSLATE_X,
 219:Lib/lvgl/src/themes/default/lv_theme_default.c ****         LV_STYLE_TRANSFORM_ROTATION,
 220:Lib/lvgl/src/themes/default/lv_theme_default.c ****         LV_STYLE_TRANSFORM_SCALE_X, LV_STYLE_TRANSFORM_SCALE_Y,
 221:Lib/lvgl/src/themes/default/lv_theme_default.c ****         LV_STYLE_COLOR_FILTER_OPA, LV_STYLE_COLOR_FILTER_DSC,
 222:Lib/lvgl/src/themes/default/lv_theme_default.c ****         0
 223:Lib/lvgl/src/themes/default/lv_theme_default.c ****     };
 224:Lib/lvgl/src/themes/default/lv_theme_default.c **** #endif
 225:Lib/lvgl/src/themes/default/lv_theme_default.c **** 
 226:Lib/lvgl/src/themes/default/lv_theme_default.c ****     theme->color_scr = theme->base.flags & MODE_DARK ? DARK_COLOR_SCR : LIGHT_COLOR_SCR;
 227:Lib/lvgl/src/themes/default/lv_theme_default.c ****     theme->color_text = theme->base.flags & MODE_DARK ? DARK_COLOR_TEXT : LIGHT_COLOR_TEXT;
 228:Lib/lvgl/src/themes/default/lv_theme_default.c ****     theme->color_card = theme->base.flags & MODE_DARK ? DARK_COLOR_CARD : LIGHT_COLOR_CARD;
 229:Lib/lvgl/src/themes/default/lv_theme_default.c ****     theme->color_grey = theme->base.flags & MODE_DARK ? DARK_COLOR_GREY : LIGHT_COLOR_GREY;
 230:Lib/lvgl/src/themes/default/lv_theme_default.c **** 
 231:Lib/lvgl/src/themes/default/lv_theme_default.c ****     style_init_reset(&theme->styles.transition_delayed);
 232:Lib/lvgl/src/themes/default/lv_theme_default.c ****     style_init_reset(&theme->styles.transition_normal);
 233:Lib/lvgl/src/themes/default/lv_theme_default.c **** #if TRANSITION_TIME
 234:Lib/lvgl/src/themes/default/lv_theme_default.c ****     lv_style_transition_dsc_init(&theme->trans_delayed, trans_props, lv_anim_path_linear, TRANSITIO
ARM GAS  C:\Users\Alex\AppData\Local\Temp\ccR26jun.s 			page 14


 235:Lib/lvgl/src/themes/default/lv_theme_default.c ****     lv_style_transition_dsc_init(&theme->trans_normal, trans_props, lv_anim_path_linear, TRANSITION
 236:Lib/lvgl/src/themes/default/lv_theme_default.c **** 
 237:Lib/lvgl/src/themes/default/lv_theme_default.c ****     lv_style_set_transition(&theme->styles.transition_delayed,
 238:Lib/lvgl/src/themes/default/lv_theme_default.c ****                             &theme->trans_delayed); /*Go back to default state with delay*/
 239:Lib/lvgl/src/themes/default/lv_theme_default.c **** 
 240:Lib/lvgl/src/themes/default/lv_theme_default.c ****     lv_style_set_transition(&theme->styles.transition_normal, &theme->trans_normal); /*Go back to d
 241:Lib/lvgl/src/themes/default/lv_theme_default.c **** #endif
 242:Lib/lvgl/src/themes/default/lv_theme_default.c **** 
 243:Lib/lvgl/src/themes/default/lv_theme_default.c ****     style_init_reset(&theme->styles.scrollbar);
 244:Lib/lvgl/src/themes/default/lv_theme_default.c ****     lv_color_t sb_color = (theme->base.flags & MODE_DARK) ? lv_palette_darken(LV_PALETTE_GREY,
 245:Lib/lvgl/src/themes/default/lv_theme_default.c ****                                                                               2) : lv_palette_main(
 246:Lib/lvgl/src/themes/default/lv_theme_default.c ****     lv_style_set_bg_color(&theme->styles.scrollbar, sb_color);
 247:Lib/lvgl/src/themes/default/lv_theme_default.c **** 
 248:Lib/lvgl/src/themes/default/lv_theme_default.c ****     lv_style_set_radius(&theme->styles.scrollbar, LV_RADIUS_CIRCLE);
 249:Lib/lvgl/src/themes/default/lv_theme_default.c ****     lv_style_set_pad_all(&theme->styles.scrollbar, _LV_DPX_CALC(theme->disp_dpi, 7));
 250:Lib/lvgl/src/themes/default/lv_theme_default.c ****     lv_style_set_width(&theme->styles.scrollbar,  _LV_DPX_CALC(theme->disp_dpi, 5));
 251:Lib/lvgl/src/themes/default/lv_theme_default.c ****     lv_style_set_bg_opa(&theme->styles.scrollbar,  LV_OPA_40);
 252:Lib/lvgl/src/themes/default/lv_theme_default.c **** #if TRANSITION_TIME
 253:Lib/lvgl/src/themes/default/lv_theme_default.c ****     lv_style_set_transition(&theme->styles.scrollbar, &theme->trans_normal);
 254:Lib/lvgl/src/themes/default/lv_theme_default.c **** #endif
 255:Lib/lvgl/src/themes/default/lv_theme_default.c **** 
 256:Lib/lvgl/src/themes/default/lv_theme_default.c ****     style_init_reset(&theme->styles.scrollbar_scrolled);
 257:Lib/lvgl/src/themes/default/lv_theme_default.c ****     lv_style_set_bg_opa(&theme->styles.scrollbar_scrolled,  LV_OPA_COVER);
 258:Lib/lvgl/src/themes/default/lv_theme_default.c **** 
 259:Lib/lvgl/src/themes/default/lv_theme_default.c ****     style_init_reset(&theme->styles.scr);
 260:Lib/lvgl/src/themes/default/lv_theme_default.c ****     lv_style_set_bg_opa(&theme->styles.scr, LV_OPA_COVER);
 261:Lib/lvgl/src/themes/default/lv_theme_default.c ****     lv_style_set_bg_color(&theme->styles.scr, theme->color_scr);
 262:Lib/lvgl/src/themes/default/lv_theme_default.c ****     lv_style_set_text_color(&theme->styles.scr, theme->color_text);
 263:Lib/lvgl/src/themes/default/lv_theme_default.c ****     lv_style_set_text_font(&theme->styles.scr, theme->base.font_normal);
 264:Lib/lvgl/src/themes/default/lv_theme_default.c ****     lv_style_set_pad_row(&theme->styles.scr, PAD_SMALL);
 265:Lib/lvgl/src/themes/default/lv_theme_default.c ****     lv_style_set_pad_column(&theme->styles.scr, PAD_SMALL);
 266:Lib/lvgl/src/themes/default/lv_theme_default.c **** 
 267:Lib/lvgl/src/themes/default/lv_theme_default.c ****     style_init_reset(&theme->styles.card);
 268:Lib/lvgl/src/themes/default/lv_theme_default.c ****     lv_style_set_radius(&theme->styles.card, RADIUS_DEFAULT);
 269:Lib/lvgl/src/themes/default/lv_theme_default.c ****     lv_style_set_bg_opa(&theme->styles.card, LV_OPA_COVER);
 270:Lib/lvgl/src/themes/default/lv_theme_default.c ****     lv_style_set_bg_color(&theme->styles.card, theme->color_card);
 271:Lib/lvgl/src/themes/default/lv_theme_default.c ****     lv_style_set_border_color(&theme->styles.card, theme->color_grey);
 272:Lib/lvgl/src/themes/default/lv_theme_default.c ****     lv_style_set_border_width(&theme->styles.card, BORDER_WIDTH);
 273:Lib/lvgl/src/themes/default/lv_theme_default.c ****     lv_style_set_border_post(&theme->styles.card, true);
 274:Lib/lvgl/src/themes/default/lv_theme_default.c ****     lv_style_set_text_color(&theme->styles.card, theme->color_text);
 275:Lib/lvgl/src/themes/default/lv_theme_default.c ****     lv_style_set_pad_all(&theme->styles.card, PAD_DEF);
 276:Lib/lvgl/src/themes/default/lv_theme_default.c ****     lv_style_set_pad_row(&theme->styles.card, PAD_SMALL);
 277:Lib/lvgl/src/themes/default/lv_theme_default.c ****     lv_style_set_pad_column(&theme->styles.card, PAD_SMALL);
 278:Lib/lvgl/src/themes/default/lv_theme_default.c ****     lv_style_set_line_color(&theme->styles.card, lv_palette_main(LV_PALETTE_GREY));
 279:Lib/lvgl/src/themes/default/lv_theme_default.c ****     lv_style_set_line_width(&theme->styles.card, _LV_DPX_CALC(theme->disp_dpi, 1));
 280:Lib/lvgl/src/themes/default/lv_theme_default.c **** 
 281:Lib/lvgl/src/themes/default/lv_theme_default.c ****     style_init_reset(&theme->styles.outline_primary);
 282:Lib/lvgl/src/themes/default/lv_theme_default.c ****     lv_style_set_outline_color(&theme->styles.outline_primary, theme->base.color_primary);
 283:Lib/lvgl/src/themes/default/lv_theme_default.c ****     lv_style_set_outline_width(&theme->styles.outline_primary, OUTLINE_WIDTH);
 284:Lib/lvgl/src/themes/default/lv_theme_default.c ****     lv_style_set_outline_pad(&theme->styles.outline_primary, OUTLINE_WIDTH);
 285:Lib/lvgl/src/themes/default/lv_theme_default.c ****     lv_style_set_outline_opa(&theme->styles.outline_primary, LV_OPA_50);
 286:Lib/lvgl/src/themes/default/lv_theme_default.c **** 
 287:Lib/lvgl/src/themes/default/lv_theme_default.c ****     style_init_reset(&theme->styles.outline_secondary);
 288:Lib/lvgl/src/themes/default/lv_theme_default.c ****     lv_style_set_outline_color(&theme->styles.outline_secondary, theme->base.color_secondary);
 289:Lib/lvgl/src/themes/default/lv_theme_default.c ****     lv_style_set_outline_width(&theme->styles.outline_secondary, OUTLINE_WIDTH);
 290:Lib/lvgl/src/themes/default/lv_theme_default.c ****     lv_style_set_outline_opa(&theme->styles.outline_secondary, LV_OPA_50);
 291:Lib/lvgl/src/themes/default/lv_theme_default.c **** 
ARM GAS  C:\Users\Alex\AppData\Local\Temp\ccR26jun.s 			page 15


 292:Lib/lvgl/src/themes/default/lv_theme_default.c ****     style_init_reset(&theme->styles.btn);
 293:Lib/lvgl/src/themes/default/lv_theme_default.c ****     lv_style_set_radius(&theme->styles.btn,
 294:Lib/lvgl/src/themes/default/lv_theme_default.c ****                         _LV_DPX_CALC(theme->disp_dpi, theme->disp_size == DISP_LARGE ? 16 : theme->
 295:Lib/lvgl/src/themes/default/lv_theme_default.c ****     lv_style_set_bg_opa(&theme->styles.btn, LV_OPA_COVER);
 296:Lib/lvgl/src/themes/default/lv_theme_default.c ****     lv_style_set_bg_color(&theme->styles.btn, theme->color_grey);
 297:Lib/lvgl/src/themes/default/lv_theme_default.c ****     if(!(theme->base.flags & MODE_DARK)) {
 298:Lib/lvgl/src/themes/default/lv_theme_default.c ****         lv_style_set_shadow_color(&theme->styles.btn, lv_palette_main(LV_PALETTE_GREY));
 299:Lib/lvgl/src/themes/default/lv_theme_default.c ****         lv_style_set_shadow_width(&theme->styles.btn, LV_DPX(3));
 300:Lib/lvgl/src/themes/default/lv_theme_default.c ****         lv_style_set_shadow_opa(&theme->styles.btn, LV_OPA_50);
 301:Lib/lvgl/src/themes/default/lv_theme_default.c ****         lv_style_set_shadow_offset_y(&theme->styles.btn, _LV_DPX_CALC(theme->disp_dpi, LV_DPX(4)));
 302:Lib/lvgl/src/themes/default/lv_theme_default.c ****     }
 303:Lib/lvgl/src/themes/default/lv_theme_default.c ****     lv_style_set_text_color(&theme->styles.btn, theme->color_text);
 304:Lib/lvgl/src/themes/default/lv_theme_default.c ****     lv_style_set_pad_hor(&theme->styles.btn, PAD_DEF);
 305:Lib/lvgl/src/themes/default/lv_theme_default.c ****     lv_style_set_pad_ver(&theme->styles.btn, PAD_SMALL);
 306:Lib/lvgl/src/themes/default/lv_theme_default.c ****     lv_style_set_pad_column(&theme->styles.btn, _LV_DPX_CALC(theme->disp_dpi, 5));
 307:Lib/lvgl/src/themes/default/lv_theme_default.c ****     lv_style_set_pad_row(&theme->styles.btn, _LV_DPX_CALC(theme->disp_dpi, 5));
 308:Lib/lvgl/src/themes/default/lv_theme_default.c **** 
 309:Lib/lvgl/src/themes/default/lv_theme_default.c ****     lv_color_filter_dsc_init(&theme->dark_filter, dark_color_filter_cb);
 310:Lib/lvgl/src/themes/default/lv_theme_default.c ****     lv_color_filter_dsc_init(&theme->grey_filter, grey_filter_cb);
 311:Lib/lvgl/src/themes/default/lv_theme_default.c **** 
 312:Lib/lvgl/src/themes/default/lv_theme_default.c ****     style_init_reset(&theme->styles.pressed);
 313:Lib/lvgl/src/themes/default/lv_theme_default.c ****     lv_style_set_color_filter_dsc(&theme->styles.pressed, &theme->dark_filter);
 314:Lib/lvgl/src/themes/default/lv_theme_default.c ****     lv_style_set_color_filter_opa(&theme->styles.pressed, 35);
 315:Lib/lvgl/src/themes/default/lv_theme_default.c **** 
 316:Lib/lvgl/src/themes/default/lv_theme_default.c ****     style_init_reset(&theme->styles.disabled);
 317:Lib/lvgl/src/themes/default/lv_theme_default.c ****     lv_style_set_color_filter_dsc(&theme->styles.disabled, &theme->grey_filter);
 318:Lib/lvgl/src/themes/default/lv_theme_default.c ****     lv_style_set_color_filter_opa(&theme->styles.disabled, LV_OPA_50);
 319:Lib/lvgl/src/themes/default/lv_theme_default.c **** 
 320:Lib/lvgl/src/themes/default/lv_theme_default.c ****     style_init_reset(&theme->styles.clip_corner);
 321:Lib/lvgl/src/themes/default/lv_theme_default.c ****     lv_style_set_clip_corner(&theme->styles.clip_corner, true);
 322:Lib/lvgl/src/themes/default/lv_theme_default.c ****     lv_style_set_border_post(&theme->styles.clip_corner, true);
 323:Lib/lvgl/src/themes/default/lv_theme_default.c **** 
 324:Lib/lvgl/src/themes/default/lv_theme_default.c ****     style_init_reset(&theme->styles.pad_normal);
 325:Lib/lvgl/src/themes/default/lv_theme_default.c ****     lv_style_set_pad_all(&theme->styles.pad_normal, PAD_DEF);
 326:Lib/lvgl/src/themes/default/lv_theme_default.c ****     lv_style_set_pad_row(&theme->styles.pad_normal, PAD_DEF);
 327:Lib/lvgl/src/themes/default/lv_theme_default.c ****     lv_style_set_pad_column(&theme->styles.pad_normal, PAD_DEF);
 328:Lib/lvgl/src/themes/default/lv_theme_default.c **** 
 329:Lib/lvgl/src/themes/default/lv_theme_default.c ****     style_init_reset(&theme->styles.pad_small);
 330:Lib/lvgl/src/themes/default/lv_theme_default.c ****     lv_style_set_pad_all(&theme->styles.pad_small, PAD_SMALL);
 331:Lib/lvgl/src/themes/default/lv_theme_default.c ****     lv_style_set_pad_gap(&theme->styles.pad_small, PAD_SMALL);
 332:Lib/lvgl/src/themes/default/lv_theme_default.c **** 
 333:Lib/lvgl/src/themes/default/lv_theme_default.c ****     style_init_reset(&theme->styles.pad_gap);
 334:Lib/lvgl/src/themes/default/lv_theme_default.c ****     lv_style_set_pad_row(&theme->styles.pad_gap, _LV_DPX_CALC(theme->disp_dpi, 10));
 335:Lib/lvgl/src/themes/default/lv_theme_default.c ****     lv_style_set_pad_column(&theme->styles.pad_gap, _LV_DPX_CALC(theme->disp_dpi, 10));
 336:Lib/lvgl/src/themes/default/lv_theme_default.c **** 
 337:Lib/lvgl/src/themes/default/lv_theme_default.c ****     style_init_reset(&theme->styles.line_space_large);
 338:Lib/lvgl/src/themes/default/lv_theme_default.c ****     lv_style_set_text_line_space(&theme->styles.line_space_large, _LV_DPX_CALC(theme->disp_dpi, 20)
 339:Lib/lvgl/src/themes/default/lv_theme_default.c **** 
 340:Lib/lvgl/src/themes/default/lv_theme_default.c ****     style_init_reset(&theme->styles.text_align_center);
 341:Lib/lvgl/src/themes/default/lv_theme_default.c ****     lv_style_set_text_align(&theme->styles.text_align_center, LV_TEXT_ALIGN_CENTER);
 342:Lib/lvgl/src/themes/default/lv_theme_default.c **** 
 343:Lib/lvgl/src/themes/default/lv_theme_default.c ****     style_init_reset(&theme->styles.pad_zero);
 344:Lib/lvgl/src/themes/default/lv_theme_default.c ****     lv_style_set_pad_all(&theme->styles.pad_zero, 0);
 345:Lib/lvgl/src/themes/default/lv_theme_default.c ****     lv_style_set_pad_row(&theme->styles.pad_zero, 0);
 346:Lib/lvgl/src/themes/default/lv_theme_default.c ****     lv_style_set_pad_column(&theme->styles.pad_zero, 0);
 347:Lib/lvgl/src/themes/default/lv_theme_default.c **** 
 348:Lib/lvgl/src/themes/default/lv_theme_default.c ****     style_init_reset(&theme->styles.pad_tiny);
ARM GAS  C:\Users\Alex\AppData\Local\Temp\ccR26jun.s 			page 16


 349:Lib/lvgl/src/themes/default/lv_theme_default.c ****     lv_style_set_pad_all(&theme->styles.pad_tiny, PAD_TINY);
 350:Lib/lvgl/src/themes/default/lv_theme_default.c ****     lv_style_set_pad_row(&theme->styles.pad_tiny, PAD_TINY);
 351:Lib/lvgl/src/themes/default/lv_theme_default.c ****     lv_style_set_pad_column(&theme->styles.pad_tiny, PAD_TINY);
 352:Lib/lvgl/src/themes/default/lv_theme_default.c **** 
 353:Lib/lvgl/src/themes/default/lv_theme_default.c ****     style_init_reset(&theme->styles.bg_color_primary);
 354:Lib/lvgl/src/themes/default/lv_theme_default.c ****     lv_style_set_bg_color(&theme->styles.bg_color_primary, theme->base.color_primary);
 355:Lib/lvgl/src/themes/default/lv_theme_default.c ****     lv_style_set_text_color(&theme->styles.bg_color_primary, lv_color_white());
 356:Lib/lvgl/src/themes/default/lv_theme_default.c ****     lv_style_set_bg_opa(&theme->styles.bg_color_primary, LV_OPA_COVER);
 357:Lib/lvgl/src/themes/default/lv_theme_default.c **** 
 358:Lib/lvgl/src/themes/default/lv_theme_default.c ****     style_init_reset(&theme->styles.bg_color_primary_muted);
 359:Lib/lvgl/src/themes/default/lv_theme_default.c ****     lv_style_set_bg_color(&theme->styles.bg_color_primary_muted, theme->base.color_primary);
 360:Lib/lvgl/src/themes/default/lv_theme_default.c ****     lv_style_set_text_color(&theme->styles.bg_color_primary_muted, theme->base.color_primary);
 361:Lib/lvgl/src/themes/default/lv_theme_default.c ****     lv_style_set_bg_opa(&theme->styles.bg_color_primary_muted, LV_OPA_20);
 362:Lib/lvgl/src/themes/default/lv_theme_default.c **** 
 363:Lib/lvgl/src/themes/default/lv_theme_default.c ****     style_init_reset(&theme->styles.bg_color_secondary);
 364:Lib/lvgl/src/themes/default/lv_theme_default.c ****     lv_style_set_bg_color(&theme->styles.bg_color_secondary, theme->base.color_secondary);
 365:Lib/lvgl/src/themes/default/lv_theme_default.c ****     lv_style_set_text_color(&theme->styles.bg_color_secondary, lv_color_white());
 366:Lib/lvgl/src/themes/default/lv_theme_default.c ****     lv_style_set_bg_opa(&theme->styles.bg_color_secondary, LV_OPA_COVER);
 367:Lib/lvgl/src/themes/default/lv_theme_default.c **** 
 368:Lib/lvgl/src/themes/default/lv_theme_default.c ****     style_init_reset(&theme->styles.bg_color_secondary_muted);
 369:Lib/lvgl/src/themes/default/lv_theme_default.c ****     lv_style_set_bg_color(&theme->styles.bg_color_secondary_muted, theme->base.color_secondary);
 370:Lib/lvgl/src/themes/default/lv_theme_default.c ****     lv_style_set_text_color(&theme->styles.bg_color_secondary_muted, theme->base.color_secondary);
 371:Lib/lvgl/src/themes/default/lv_theme_default.c ****     lv_style_set_bg_opa(&theme->styles.bg_color_secondary_muted, LV_OPA_20);
 372:Lib/lvgl/src/themes/default/lv_theme_default.c **** 
 373:Lib/lvgl/src/themes/default/lv_theme_default.c ****     style_init_reset(&theme->styles.bg_color_grey);
 374:Lib/lvgl/src/themes/default/lv_theme_default.c ****     lv_style_set_bg_color(&theme->styles.bg_color_grey, theme->color_grey);
 375:Lib/lvgl/src/themes/default/lv_theme_default.c ****     lv_style_set_bg_opa(&theme->styles.bg_color_grey, LV_OPA_COVER);
 376:Lib/lvgl/src/themes/default/lv_theme_default.c ****     lv_style_set_text_color(&theme->styles.bg_color_grey, theme->color_text);
 377:Lib/lvgl/src/themes/default/lv_theme_default.c **** 
 378:Lib/lvgl/src/themes/default/lv_theme_default.c ****     style_init_reset(&theme->styles.bg_color_white);
 379:Lib/lvgl/src/themes/default/lv_theme_default.c ****     lv_style_set_bg_color(&theme->styles.bg_color_white, theme->color_card);
 380:Lib/lvgl/src/themes/default/lv_theme_default.c ****     lv_style_set_bg_opa(&theme->styles.bg_color_white, LV_OPA_COVER);
 381:Lib/lvgl/src/themes/default/lv_theme_default.c ****     lv_style_set_text_color(&theme->styles.bg_color_white, theme->color_text);
 382:Lib/lvgl/src/themes/default/lv_theme_default.c **** 
 383:Lib/lvgl/src/themes/default/lv_theme_default.c ****     style_init_reset(&theme->styles.circle);
 384:Lib/lvgl/src/themes/default/lv_theme_default.c ****     lv_style_set_radius(&theme->styles.circle, LV_RADIUS_CIRCLE);
 385:Lib/lvgl/src/themes/default/lv_theme_default.c **** 
 386:Lib/lvgl/src/themes/default/lv_theme_default.c ****     style_init_reset(&theme->styles.no_radius);
 387:Lib/lvgl/src/themes/default/lv_theme_default.c ****     lv_style_set_radius(&theme->styles.no_radius, 0);
 388:Lib/lvgl/src/themes/default/lv_theme_default.c **** 
 389:Lib/lvgl/src/themes/default/lv_theme_default.c **** #if LV_THEME_DEFAULT_GROW
 390:Lib/lvgl/src/themes/default/lv_theme_default.c ****     style_init_reset(&theme->styles.grow);
 391:Lib/lvgl/src/themes/default/lv_theme_default.c ****     lv_style_set_transform_width(&theme->styles.grow, _LV_DPX_CALC(theme->disp_dpi, 3));
 392:Lib/lvgl/src/themes/default/lv_theme_default.c ****     lv_style_set_transform_height(&theme->styles.grow, _LV_DPX_CALC(theme->disp_dpi, 3));
 393:Lib/lvgl/src/themes/default/lv_theme_default.c **** #endif
 394:Lib/lvgl/src/themes/default/lv_theme_default.c **** 
 395:Lib/lvgl/src/themes/default/lv_theme_default.c ****     style_init_reset(&theme->styles.knob);
 396:Lib/lvgl/src/themes/default/lv_theme_default.c ****     lv_style_set_bg_color(&theme->styles.knob, theme->base.color_primary);
 397:Lib/lvgl/src/themes/default/lv_theme_default.c ****     lv_style_set_bg_opa(&theme->styles.knob, LV_OPA_COVER);
 398:Lib/lvgl/src/themes/default/lv_theme_default.c ****     lv_style_set_pad_all(&theme->styles.knob, _LV_DPX_CALC(theme->disp_dpi, 6));
 399:Lib/lvgl/src/themes/default/lv_theme_default.c ****     lv_style_set_radius(&theme->styles.knob, LV_RADIUS_CIRCLE);
 400:Lib/lvgl/src/themes/default/lv_theme_default.c **** 
 401:Lib/lvgl/src/themes/default/lv_theme_default.c ****     style_init_reset(&theme->styles.anim);
 402:Lib/lvgl/src/themes/default/lv_theme_default.c ****     lv_style_set_anim_duration(&theme->styles.anim, 200);
 403:Lib/lvgl/src/themes/default/lv_theme_default.c **** 
 404:Lib/lvgl/src/themes/default/lv_theme_default.c ****     style_init_reset(&theme->styles.anim_fast);
 405:Lib/lvgl/src/themes/default/lv_theme_default.c ****     lv_style_set_anim_duration(&theme->styles.anim_fast, 120);
ARM GAS  C:\Users\Alex\AppData\Local\Temp\ccR26jun.s 			page 17


 406:Lib/lvgl/src/themes/default/lv_theme_default.c **** 
 407:Lib/lvgl/src/themes/default/lv_theme_default.c **** #if LV_USE_ARC
 408:Lib/lvgl/src/themes/default/lv_theme_default.c ****     style_init_reset(&theme->styles.arc_indic);
 409:Lib/lvgl/src/themes/default/lv_theme_default.c ****     lv_style_set_arc_color(&theme->styles.arc_indic, theme->color_grey);
 410:Lib/lvgl/src/themes/default/lv_theme_default.c ****     lv_style_set_arc_width(&theme->styles.arc_indic, _LV_DPX_CALC(theme->disp_dpi, 15));
 411:Lib/lvgl/src/themes/default/lv_theme_default.c ****     lv_style_set_arc_rounded(&theme->styles.arc_indic, true);
 412:Lib/lvgl/src/themes/default/lv_theme_default.c **** 
 413:Lib/lvgl/src/themes/default/lv_theme_default.c ****     style_init_reset(&theme->styles.arc_indic_primary);
 414:Lib/lvgl/src/themes/default/lv_theme_default.c ****     lv_style_set_arc_color(&theme->styles.arc_indic_primary, theme->base.color_primary);
 415:Lib/lvgl/src/themes/default/lv_theme_default.c **** #endif
 416:Lib/lvgl/src/themes/default/lv_theme_default.c **** 
 417:Lib/lvgl/src/themes/default/lv_theme_default.c **** #if LV_USE_DROPDOWN
 418:Lib/lvgl/src/themes/default/lv_theme_default.c ****     style_init_reset(&theme->styles.dropdown_list);
 419:Lib/lvgl/src/themes/default/lv_theme_default.c ****     lv_style_set_max_height(&theme->styles.dropdown_list, LV_DPI_DEF * 2);
 420:Lib/lvgl/src/themes/default/lv_theme_default.c **** #endif
 421:Lib/lvgl/src/themes/default/lv_theme_default.c **** #if LV_USE_CHECKBOX
 422:Lib/lvgl/src/themes/default/lv_theme_default.c ****     style_init_reset(&theme->styles.cb_marker);
 423:Lib/lvgl/src/themes/default/lv_theme_default.c ****     lv_style_set_pad_all(&theme->styles.cb_marker, _LV_DPX_CALC(theme->disp_dpi, 3));
 424:Lib/lvgl/src/themes/default/lv_theme_default.c ****     lv_style_set_border_width(&theme->styles.cb_marker, BORDER_WIDTH);
 425:Lib/lvgl/src/themes/default/lv_theme_default.c ****     lv_style_set_border_color(&theme->styles.cb_marker, theme->base.color_primary);
 426:Lib/lvgl/src/themes/default/lv_theme_default.c ****     lv_style_set_bg_color(&theme->styles.cb_marker, theme->color_card);
 427:Lib/lvgl/src/themes/default/lv_theme_default.c ****     lv_style_set_bg_opa(&theme->styles.cb_marker, LV_OPA_COVER);
 428:Lib/lvgl/src/themes/default/lv_theme_default.c ****     lv_style_set_radius(&theme->styles.cb_marker, RADIUS_DEFAULT / 2);
 429:Lib/lvgl/src/themes/default/lv_theme_default.c **** 
 430:Lib/lvgl/src/themes/default/lv_theme_default.c ****     style_init_reset(&theme->styles.cb_marker_checked);
 431:Lib/lvgl/src/themes/default/lv_theme_default.c ****     lv_style_set_bg_image_src(&theme->styles.cb_marker_checked, LV_SYMBOL_OK);
 432:Lib/lvgl/src/themes/default/lv_theme_default.c ****     lv_style_set_text_color(&theme->styles.cb_marker_checked, lv_color_white());
 433:Lib/lvgl/src/themes/default/lv_theme_default.c ****     lv_style_set_text_font(&theme->styles.cb_marker_checked, theme->base.font_small);
 434:Lib/lvgl/src/themes/default/lv_theme_default.c **** #endif
 435:Lib/lvgl/src/themes/default/lv_theme_default.c **** 
 436:Lib/lvgl/src/themes/default/lv_theme_default.c **** #if LV_USE_SWITCH
 437:Lib/lvgl/src/themes/default/lv_theme_default.c ****     style_init_reset(&theme->styles.switch_knob);
 438:Lib/lvgl/src/themes/default/lv_theme_default.c ****     lv_style_set_pad_all(&theme->styles.switch_knob, - _LV_DPX_CALC(theme->disp_dpi, 4));
 439:Lib/lvgl/src/themes/default/lv_theme_default.c ****     lv_style_set_bg_color(&theme->styles.switch_knob, lv_color_white());
 440:Lib/lvgl/src/themes/default/lv_theme_default.c **** #endif
 441:Lib/lvgl/src/themes/default/lv_theme_default.c **** 
 442:Lib/lvgl/src/themes/default/lv_theme_default.c **** #if LV_USE_LINE
 443:Lib/lvgl/src/themes/default/lv_theme_default.c ****     style_init_reset(&theme->styles.line);
 444:Lib/lvgl/src/themes/default/lv_theme_default.c ****     lv_style_set_line_width(&theme->styles.line, 1);
 445:Lib/lvgl/src/themes/default/lv_theme_default.c ****     lv_style_set_line_color(&theme->styles.line, theme->color_text);
 446:Lib/lvgl/src/themes/default/lv_theme_default.c **** #endif
 447:Lib/lvgl/src/themes/default/lv_theme_default.c **** 
 448:Lib/lvgl/src/themes/default/lv_theme_default.c **** #if LV_USE_CHART
 449:Lib/lvgl/src/themes/default/lv_theme_default.c ****     style_init_reset(&theme->styles.chart_bg);
 450:Lib/lvgl/src/themes/default/lv_theme_default.c ****     lv_style_set_border_post(&theme->styles.chart_bg, false);
 451:Lib/lvgl/src/themes/default/lv_theme_default.c ****     lv_style_set_pad_column(&theme->styles.chart_bg, _LV_DPX_CALC(theme->disp_dpi, 10));
 452:Lib/lvgl/src/themes/default/lv_theme_default.c ****     lv_style_set_line_color(&theme->styles.chart_bg, theme->color_grey);
 453:Lib/lvgl/src/themes/default/lv_theme_default.c **** 
 454:Lib/lvgl/src/themes/default/lv_theme_default.c ****     style_init_reset(&theme->styles.chart_series);
 455:Lib/lvgl/src/themes/default/lv_theme_default.c ****     lv_style_set_line_width(&theme->styles.chart_series, _LV_DPX_CALC(theme->disp_dpi, 3));
 456:Lib/lvgl/src/themes/default/lv_theme_default.c ****     lv_style_set_radius(&theme->styles.chart_series, _LV_DPX_CALC(theme->disp_dpi, 3));
 457:Lib/lvgl/src/themes/default/lv_theme_default.c **** 
 458:Lib/lvgl/src/themes/default/lv_theme_default.c ****     int32_t chart_size = _LV_DPX_CALC(theme->disp_dpi, 8);
 459:Lib/lvgl/src/themes/default/lv_theme_default.c ****     lv_style_set_size(&theme->styles.chart_series, chart_size, chart_size);
 460:Lib/lvgl/src/themes/default/lv_theme_default.c ****     lv_style_set_pad_column(&theme->styles.chart_series, _LV_DPX_CALC(theme->disp_dpi, 2));
 461:Lib/lvgl/src/themes/default/lv_theme_default.c **** 
 462:Lib/lvgl/src/themes/default/lv_theme_default.c ****     style_init_reset(&theme->styles.chart_indic);
ARM GAS  C:\Users\Alex\AppData\Local\Temp\ccR26jun.s 			page 18


 463:Lib/lvgl/src/themes/default/lv_theme_default.c ****     lv_style_set_radius(&theme->styles.chart_indic, LV_RADIUS_CIRCLE);
 464:Lib/lvgl/src/themes/default/lv_theme_default.c ****     lv_style_set_size(&theme->styles.chart_indic, chart_size, chart_size);
 465:Lib/lvgl/src/themes/default/lv_theme_default.c ****     lv_style_set_bg_color(&theme->styles.chart_indic, theme->base.color_primary);
 466:Lib/lvgl/src/themes/default/lv_theme_default.c ****     lv_style_set_bg_opa(&theme->styles.chart_indic, LV_OPA_COVER);
 467:Lib/lvgl/src/themes/default/lv_theme_default.c **** #endif
 468:Lib/lvgl/src/themes/default/lv_theme_default.c **** 
 469:Lib/lvgl/src/themes/default/lv_theme_default.c **** #if LV_USE_MENU
 470:Lib/lvgl/src/themes/default/lv_theme_default.c ****     style_init_reset(&theme->styles.menu_bg);
 471:Lib/lvgl/src/themes/default/lv_theme_default.c ****     lv_style_set_pad_all(&theme->styles.menu_bg, 0);
 472:Lib/lvgl/src/themes/default/lv_theme_default.c ****     lv_style_set_pad_gap(&theme->styles.menu_bg, 0);
 473:Lib/lvgl/src/themes/default/lv_theme_default.c ****     lv_style_set_radius(&theme->styles.menu_bg, 0);
 474:Lib/lvgl/src/themes/default/lv_theme_default.c ****     lv_style_set_clip_corner(&theme->styles.menu_bg, true);
 475:Lib/lvgl/src/themes/default/lv_theme_default.c ****     lv_style_set_border_side(&theme->styles.menu_bg, LV_BORDER_SIDE_NONE);
 476:Lib/lvgl/src/themes/default/lv_theme_default.c **** 
 477:Lib/lvgl/src/themes/default/lv_theme_default.c ****     style_init_reset(&theme->styles.menu_section);
 478:Lib/lvgl/src/themes/default/lv_theme_default.c ****     lv_style_set_radius(&theme->styles.menu_section, RADIUS_DEFAULT);
 479:Lib/lvgl/src/themes/default/lv_theme_default.c ****     lv_style_set_clip_corner(&theme->styles.menu_section, true);
 480:Lib/lvgl/src/themes/default/lv_theme_default.c ****     lv_style_set_bg_opa(&theme->styles.menu_section, LV_OPA_COVER);
 481:Lib/lvgl/src/themes/default/lv_theme_default.c ****     lv_style_set_bg_color(&theme->styles.menu_section, theme->color_card);
 482:Lib/lvgl/src/themes/default/lv_theme_default.c ****     lv_style_set_text_color(&theme->styles.menu_section, theme->color_text);
 483:Lib/lvgl/src/themes/default/lv_theme_default.c **** 
 484:Lib/lvgl/src/themes/default/lv_theme_default.c ****     style_init_reset(&theme->styles.menu_cont);
 485:Lib/lvgl/src/themes/default/lv_theme_default.c ****     lv_style_set_pad_hor(&theme->styles.menu_cont, PAD_SMALL);
 486:Lib/lvgl/src/themes/default/lv_theme_default.c ****     lv_style_set_pad_ver(&theme->styles.menu_cont, PAD_SMALL);
 487:Lib/lvgl/src/themes/default/lv_theme_default.c ****     lv_style_set_pad_gap(&theme->styles.menu_cont, PAD_SMALL);
 488:Lib/lvgl/src/themes/default/lv_theme_default.c ****     lv_style_set_border_width(&theme->styles.menu_cont, _LV_DPX_CALC(theme->disp_dpi, 1));
 489:Lib/lvgl/src/themes/default/lv_theme_default.c ****     lv_style_set_border_opa(&theme->styles.menu_cont, LV_OPA_10);
 490:Lib/lvgl/src/themes/default/lv_theme_default.c ****     lv_style_set_border_color(&theme->styles.menu_cont, theme->color_text);
 491:Lib/lvgl/src/themes/default/lv_theme_default.c ****     lv_style_set_border_side(&theme->styles.menu_cont, LV_BORDER_SIDE_NONE);
 492:Lib/lvgl/src/themes/default/lv_theme_default.c **** 
 493:Lib/lvgl/src/themes/default/lv_theme_default.c ****     style_init_reset(&theme->styles.menu_sidebar_cont);
 494:Lib/lvgl/src/themes/default/lv_theme_default.c ****     lv_style_set_pad_all(&theme->styles.menu_sidebar_cont, 0);
 495:Lib/lvgl/src/themes/default/lv_theme_default.c ****     lv_style_set_pad_gap(&theme->styles.menu_sidebar_cont, 0);
 496:Lib/lvgl/src/themes/default/lv_theme_default.c ****     lv_style_set_border_width(&theme->styles.menu_sidebar_cont, _LV_DPX_CALC(theme->disp_dpi, 1));
 497:Lib/lvgl/src/themes/default/lv_theme_default.c ****     lv_style_set_border_opa(&theme->styles.menu_sidebar_cont, LV_OPA_10);
 498:Lib/lvgl/src/themes/default/lv_theme_default.c ****     lv_style_set_border_color(&theme->styles.menu_sidebar_cont, theme->color_text);
 499:Lib/lvgl/src/themes/default/lv_theme_default.c ****     lv_style_set_border_side(&theme->styles.menu_sidebar_cont, LV_BORDER_SIDE_RIGHT);
 500:Lib/lvgl/src/themes/default/lv_theme_default.c **** 
 501:Lib/lvgl/src/themes/default/lv_theme_default.c ****     style_init_reset(&theme->styles.menu_main_cont);
 502:Lib/lvgl/src/themes/default/lv_theme_default.c ****     lv_style_set_pad_all(&theme->styles.menu_main_cont, 0);
 503:Lib/lvgl/src/themes/default/lv_theme_default.c ****     lv_style_set_pad_gap(&theme->styles.menu_main_cont, 0);
 504:Lib/lvgl/src/themes/default/lv_theme_default.c **** 
 505:Lib/lvgl/src/themes/default/lv_theme_default.c ****     style_init_reset(&theme->styles.menu_header_cont);
 506:Lib/lvgl/src/themes/default/lv_theme_default.c ****     lv_style_set_pad_hor(&theme->styles.menu_header_cont, PAD_SMALL);
 507:Lib/lvgl/src/themes/default/lv_theme_default.c ****     lv_style_set_pad_ver(&theme->styles.menu_header_cont, PAD_TINY);
 508:Lib/lvgl/src/themes/default/lv_theme_default.c ****     lv_style_set_pad_gap(&theme->styles.menu_header_cont, PAD_SMALL);
 509:Lib/lvgl/src/themes/default/lv_theme_default.c **** 
 510:Lib/lvgl/src/themes/default/lv_theme_default.c ****     style_init_reset(&theme->styles.menu_header_btn);
 511:Lib/lvgl/src/themes/default/lv_theme_default.c ****     lv_style_set_pad_hor(&theme->styles.menu_header_btn, PAD_TINY);
 512:Lib/lvgl/src/themes/default/lv_theme_default.c ****     lv_style_set_pad_ver(&theme->styles.menu_header_btn, PAD_TINY);
 513:Lib/lvgl/src/themes/default/lv_theme_default.c ****     lv_style_set_shadow_opa(&theme->styles.menu_header_btn, LV_OPA_TRANSP);
 514:Lib/lvgl/src/themes/default/lv_theme_default.c ****     lv_style_set_bg_opa(&theme->styles.menu_header_btn, LV_OPA_TRANSP);
 515:Lib/lvgl/src/themes/default/lv_theme_default.c ****     lv_style_set_text_color(&theme->styles.menu_header_btn, theme->color_text);
 516:Lib/lvgl/src/themes/default/lv_theme_default.c **** 
 517:Lib/lvgl/src/themes/default/lv_theme_default.c ****     style_init_reset(&theme->styles.menu_page);
 518:Lib/lvgl/src/themes/default/lv_theme_default.c ****     lv_style_set_pad_hor(&theme->styles.menu_page, 0);
 519:Lib/lvgl/src/themes/default/lv_theme_default.c ****     lv_style_set_pad_gap(&theme->styles.menu_page, 0);
ARM GAS  C:\Users\Alex\AppData\Local\Temp\ccR26jun.s 			page 19


 520:Lib/lvgl/src/themes/default/lv_theme_default.c **** 
 521:Lib/lvgl/src/themes/default/lv_theme_default.c ****     style_init_reset(&theme->styles.menu_pressed);
 522:Lib/lvgl/src/themes/default/lv_theme_default.c ****     lv_style_set_bg_opa(&theme->styles.menu_pressed, LV_OPA_20);
 523:Lib/lvgl/src/themes/default/lv_theme_default.c ****     lv_style_set_bg_color(&theme->styles.menu_pressed, lv_palette_main(LV_PALETTE_GREY));
 524:Lib/lvgl/src/themes/default/lv_theme_default.c **** 
 525:Lib/lvgl/src/themes/default/lv_theme_default.c ****     style_init_reset(&theme->styles.menu_separator);
 526:Lib/lvgl/src/themes/default/lv_theme_default.c ****     lv_style_set_bg_opa(&theme->styles.menu_separator, LV_OPA_TRANSP);
 527:Lib/lvgl/src/themes/default/lv_theme_default.c ****     lv_style_set_pad_ver(&theme->styles.menu_separator, PAD_TINY);
 528:Lib/lvgl/src/themes/default/lv_theme_default.c **** #endif
 529:Lib/lvgl/src/themes/default/lv_theme_default.c **** 
 530:Lib/lvgl/src/themes/default/lv_theme_default.c **** #if LV_USE_TABLE
 531:Lib/lvgl/src/themes/default/lv_theme_default.c ****     style_init_reset(&theme->styles.table_cell);
 532:Lib/lvgl/src/themes/default/lv_theme_default.c ****     lv_style_set_border_width(&theme->styles.table_cell, _LV_DPX_CALC(theme->disp_dpi, 1));
 533:Lib/lvgl/src/themes/default/lv_theme_default.c ****     lv_style_set_border_color(&theme->styles.table_cell, theme->color_grey);
 534:Lib/lvgl/src/themes/default/lv_theme_default.c ****     lv_style_set_border_side(&theme->styles.table_cell, LV_BORDER_SIDE_TOP | LV_BORDER_SIDE_BOTTOM)
 535:Lib/lvgl/src/themes/default/lv_theme_default.c **** #endif
 536:Lib/lvgl/src/themes/default/lv_theme_default.c **** 
 537:Lib/lvgl/src/themes/default/lv_theme_default.c **** #if LV_USE_TEXTAREA
 538:Lib/lvgl/src/themes/default/lv_theme_default.c ****     style_init_reset(&theme->styles.ta_cursor);
 539:Lib/lvgl/src/themes/default/lv_theme_default.c ****     lv_style_set_border_color(&theme->styles.ta_cursor, theme->color_text);
 540:Lib/lvgl/src/themes/default/lv_theme_default.c ****     lv_style_set_border_width(&theme->styles.ta_cursor, _LV_DPX_CALC(theme->disp_dpi, 2));
 541:Lib/lvgl/src/themes/default/lv_theme_default.c ****     lv_style_set_pad_left(&theme->styles.ta_cursor, - _LV_DPX_CALC(theme->disp_dpi, 1));
 542:Lib/lvgl/src/themes/default/lv_theme_default.c ****     lv_style_set_border_side(&theme->styles.ta_cursor, LV_BORDER_SIDE_LEFT);
 543:Lib/lvgl/src/themes/default/lv_theme_default.c ****     lv_style_set_anim_duration(&theme->styles.ta_cursor, 400);
 544:Lib/lvgl/src/themes/default/lv_theme_default.c **** 
 545:Lib/lvgl/src/themes/default/lv_theme_default.c ****     style_init_reset(&theme->styles.ta_placeholder);
 546:Lib/lvgl/src/themes/default/lv_theme_default.c ****     lv_style_set_text_color(&theme->styles.ta_placeholder,
 547:Lib/lvgl/src/themes/default/lv_theme_default.c ****                             (theme->base.flags & MODE_DARK) ? lv_palette_darken(LV_PALETTE_GREY,
 548:Lib/lvgl/src/themes/default/lv_theme_default.c ****                                                                                 2) : lv_palette_lig
 549:Lib/lvgl/src/themes/default/lv_theme_default.c **** #endif
 550:Lib/lvgl/src/themes/default/lv_theme_default.c **** 
 551:Lib/lvgl/src/themes/default/lv_theme_default.c **** #if LV_USE_CALENDAR
 552:Lib/lvgl/src/themes/default/lv_theme_default.c ****     style_init_reset(&theme->styles.calendar_btnm_bg);
 553:Lib/lvgl/src/themes/default/lv_theme_default.c ****     lv_style_set_pad_all(&theme->styles.calendar_btnm_bg, PAD_SMALL);
 554:Lib/lvgl/src/themes/default/lv_theme_default.c ****     lv_style_set_pad_gap(&theme->styles.calendar_btnm_bg, PAD_SMALL / 2);
 555:Lib/lvgl/src/themes/default/lv_theme_default.c **** 
 556:Lib/lvgl/src/themes/default/lv_theme_default.c ****     style_init_reset(&theme->styles.calendar_btnm_day);
 557:Lib/lvgl/src/themes/default/lv_theme_default.c ****     lv_style_set_border_width(&theme->styles.calendar_btnm_day, _LV_DPX_CALC(theme->disp_dpi, 1));
 558:Lib/lvgl/src/themes/default/lv_theme_default.c ****     lv_style_set_border_color(&theme->styles.calendar_btnm_day, theme->color_grey);
 559:Lib/lvgl/src/themes/default/lv_theme_default.c ****     lv_style_set_bg_color(&theme->styles.calendar_btnm_day, theme->color_card);
 560:Lib/lvgl/src/themes/default/lv_theme_default.c ****     lv_style_set_bg_opa(&theme->styles.calendar_btnm_day, LV_OPA_20);
 561:Lib/lvgl/src/themes/default/lv_theme_default.c **** 
 562:Lib/lvgl/src/themes/default/lv_theme_default.c ****     style_init_reset(&theme->styles.calendar_header);
 563:Lib/lvgl/src/themes/default/lv_theme_default.c ****     lv_style_set_pad_hor(&theme->styles.calendar_header, PAD_SMALL);
 564:Lib/lvgl/src/themes/default/lv_theme_default.c ****     lv_style_set_pad_top(&theme->styles.calendar_header, PAD_SMALL);
 565:Lib/lvgl/src/themes/default/lv_theme_default.c ****     lv_style_set_pad_bottom(&theme->styles.calendar_header, PAD_TINY);
 566:Lib/lvgl/src/themes/default/lv_theme_default.c ****     lv_style_set_pad_gap(&theme->styles.calendar_header, PAD_SMALL);
 567:Lib/lvgl/src/themes/default/lv_theme_default.c **** #endif
 568:Lib/lvgl/src/themes/default/lv_theme_default.c **** 
 569:Lib/lvgl/src/themes/default/lv_theme_default.c **** #if LV_USE_MSGBOX
 570:Lib/lvgl/src/themes/default/lv_theme_default.c ****     style_init_reset(&theme->styles.msgbox_backdrop_bg);
 571:Lib/lvgl/src/themes/default/lv_theme_default.c ****     lv_style_set_bg_color(&theme->styles.msgbox_backdrop_bg, lv_palette_main(LV_PALETTE_GREY));
 572:Lib/lvgl/src/themes/default/lv_theme_default.c ****     lv_style_set_bg_opa(&theme->styles.msgbox_backdrop_bg, LV_OPA_50);
 573:Lib/lvgl/src/themes/default/lv_theme_default.c **** #endif
 574:Lib/lvgl/src/themes/default/lv_theme_default.c **** #if LV_USE_KEYBOARD
 575:Lib/lvgl/src/themes/default/lv_theme_default.c ****     style_init_reset(&theme->styles.keyboard_button_bg);
 576:Lib/lvgl/src/themes/default/lv_theme_default.c ****     lv_style_set_shadow_width(&theme->styles.keyboard_button_bg, 0);
ARM GAS  C:\Users\Alex\AppData\Local\Temp\ccR26jun.s 			page 20


 577:Lib/lvgl/src/themes/default/lv_theme_default.c ****     lv_style_set_radius(&theme->styles.keyboard_button_bg,
 578:Lib/lvgl/src/themes/default/lv_theme_default.c ****                         theme->disp_size == DISP_SMALL ? RADIUS_DEFAULT / 2 : RADIUS_DEFAULT);
 579:Lib/lvgl/src/themes/default/lv_theme_default.c **** #endif
 580:Lib/lvgl/src/themes/default/lv_theme_default.c **** 
 581:Lib/lvgl/src/themes/default/lv_theme_default.c **** #if LV_USE_TABVIEW
 582:Lib/lvgl/src/themes/default/lv_theme_default.c ****     style_init_reset(&theme->styles.tab_btn);
 583:Lib/lvgl/src/themes/default/lv_theme_default.c ****     lv_style_set_border_color(&theme->styles.tab_btn, theme->base.color_primary);
 584:Lib/lvgl/src/themes/default/lv_theme_default.c ****     lv_style_set_border_width(&theme->styles.tab_btn, BORDER_WIDTH * 2);
 585:Lib/lvgl/src/themes/default/lv_theme_default.c ****     lv_style_set_border_side(&theme->styles.tab_btn, LV_BORDER_SIDE_BOTTOM);
 586:Lib/lvgl/src/themes/default/lv_theme_default.c ****     lv_style_set_pad_top(&theme->styles.tab_btn, BORDER_WIDTH * 2);
 587:Lib/lvgl/src/themes/default/lv_theme_default.c **** 
 588:Lib/lvgl/src/themes/default/lv_theme_default.c ****     style_init_reset(&theme->styles.tab_bg_focus);
 589:Lib/lvgl/src/themes/default/lv_theme_default.c ****     lv_style_set_outline_pad(&theme->styles.tab_bg_focus, -BORDER_WIDTH);
 590:Lib/lvgl/src/themes/default/lv_theme_default.c **** #endif
 591:Lib/lvgl/src/themes/default/lv_theme_default.c **** 
 592:Lib/lvgl/src/themes/default/lv_theme_default.c **** #if LV_USE_LIST
 593:Lib/lvgl/src/themes/default/lv_theme_default.c ****     style_init_reset(&theme->styles.list_bg);
 594:Lib/lvgl/src/themes/default/lv_theme_default.c ****     lv_style_set_pad_hor(&theme->styles.list_bg, PAD_DEF);
 595:Lib/lvgl/src/themes/default/lv_theme_default.c ****     lv_style_set_pad_ver(&theme->styles.list_bg, 0);
 596:Lib/lvgl/src/themes/default/lv_theme_default.c ****     lv_style_set_pad_gap(&theme->styles.list_bg, 0);
 597:Lib/lvgl/src/themes/default/lv_theme_default.c ****     lv_style_set_clip_corner(&theme->styles.list_bg, true);
 598:Lib/lvgl/src/themes/default/lv_theme_default.c **** 
 599:Lib/lvgl/src/themes/default/lv_theme_default.c ****     style_init_reset(&theme->styles.list_btn);
 600:Lib/lvgl/src/themes/default/lv_theme_default.c ****     lv_style_set_border_width(&theme->styles.list_btn, _LV_DPX_CALC(theme->disp_dpi, 1));
 601:Lib/lvgl/src/themes/default/lv_theme_default.c ****     lv_style_set_border_color(&theme->styles.list_btn, theme->color_grey);
 602:Lib/lvgl/src/themes/default/lv_theme_default.c ****     lv_style_set_border_side(&theme->styles.list_btn, LV_BORDER_SIDE_BOTTOM);
 603:Lib/lvgl/src/themes/default/lv_theme_default.c ****     lv_style_set_pad_all(&theme->styles.list_btn, PAD_SMALL);
 604:Lib/lvgl/src/themes/default/lv_theme_default.c ****     lv_style_set_pad_column(&theme->styles.list_btn, PAD_SMALL);
 605:Lib/lvgl/src/themes/default/lv_theme_default.c **** 
 606:Lib/lvgl/src/themes/default/lv_theme_default.c ****     style_init_reset(&theme->styles.list_item_grow);
 607:Lib/lvgl/src/themes/default/lv_theme_default.c ****     lv_style_set_transform_width(&theme->styles.list_item_grow, PAD_DEF);
 608:Lib/lvgl/src/themes/default/lv_theme_default.c **** #endif
 609:Lib/lvgl/src/themes/default/lv_theme_default.c **** 
 610:Lib/lvgl/src/themes/default/lv_theme_default.c **** #if LV_USE_LED
 611:Lib/lvgl/src/themes/default/lv_theme_default.c ****     style_init_reset(&theme->styles.led);
 612:Lib/lvgl/src/themes/default/lv_theme_default.c ****     lv_style_set_bg_opa(&theme->styles.led, LV_OPA_COVER);
 613:Lib/lvgl/src/themes/default/lv_theme_default.c ****     lv_style_set_bg_color(&theme->styles.led, lv_color_white());
 614:Lib/lvgl/src/themes/default/lv_theme_default.c ****     lv_style_set_bg_grad_color(&theme->styles.led, lv_palette_main(LV_PALETTE_GREY));
 615:Lib/lvgl/src/themes/default/lv_theme_default.c ****     lv_style_set_radius(&theme->styles.led, LV_RADIUS_CIRCLE);
 616:Lib/lvgl/src/themes/default/lv_theme_default.c ****     lv_style_set_shadow_width(&theme->styles.led, _LV_DPX_CALC(theme->disp_dpi, 15));
 617:Lib/lvgl/src/themes/default/lv_theme_default.c ****     lv_style_set_shadow_color(&theme->styles.led, lv_color_white());
 618:Lib/lvgl/src/themes/default/lv_theme_default.c ****     lv_style_set_shadow_spread(&theme->styles.led, _LV_DPX_CALC(theme->disp_dpi, 5));
 619:Lib/lvgl/src/themes/default/lv_theme_default.c **** #endif
 620:Lib/lvgl/src/themes/default/lv_theme_default.c **** 
 621:Lib/lvgl/src/themes/default/lv_theme_default.c **** #if LV_USE_SCALE
 622:Lib/lvgl/src/themes/default/lv_theme_default.c ****     style_init_reset(&theme->styles.scale);
 623:Lib/lvgl/src/themes/default/lv_theme_default.c ****     lv_style_set_line_color(&theme->styles.scale, theme->color_text);
 624:Lib/lvgl/src/themes/default/lv_theme_default.c ****     lv_style_set_line_width(&theme->styles.scale, LV_DPX(2));
 625:Lib/lvgl/src/themes/default/lv_theme_default.c ****     lv_style_set_arc_color(&theme->styles.scale, theme->color_text);
 626:Lib/lvgl/src/themes/default/lv_theme_default.c ****     lv_style_set_arc_width(&theme->styles.scale, LV_DPX(2));
 627:Lib/lvgl/src/themes/default/lv_theme_default.c **** #endif
 628:Lib/lvgl/src/themes/default/lv_theme_default.c **** }
 629:Lib/lvgl/src/themes/default/lv_theme_default.c **** 
 630:Lib/lvgl/src/themes/default/lv_theme_default.c **** /**********************
 631:Lib/lvgl/src/themes/default/lv_theme_default.c ****  *   GLOBAL FUNCTIONS
 632:Lib/lvgl/src/themes/default/lv_theme_default.c ****  **********************/
 633:Lib/lvgl/src/themes/default/lv_theme_default.c **** 
ARM GAS  C:\Users\Alex\AppData\Local\Temp\ccR26jun.s 			page 21


 634:Lib/lvgl/src/themes/default/lv_theme_default.c **** lv_theme_t * lv_theme_default_init(lv_display_t * disp, lv_color_t color_primary, lv_color_t color_
 635:Lib/lvgl/src/themes/default/lv_theme_default.c ****                                    const lv_font_t * font)
 636:Lib/lvgl/src/themes/default/lv_theme_default.c **** {
 637:Lib/lvgl/src/themes/default/lv_theme_default.c ****     /*This trick is required only to avoid the garbage collection of
 638:Lib/lvgl/src/themes/default/lv_theme_default.c ****      *styles' data if LVGL is used in a binding (e.g. Micropython)
 639:Lib/lvgl/src/themes/default/lv_theme_default.c ****      *In a general case styles could be in a simple `static lv_style_t my_style...` variables*/
 640:Lib/lvgl/src/themes/default/lv_theme_default.c **** 
 641:Lib/lvgl/src/themes/default/lv_theme_default.c ****     if(!lv_theme_default_is_inited()) {
 642:Lib/lvgl/src/themes/default/lv_theme_default.c ****         theme_def = lv_malloc_zeroed(sizeof(my_theme_t));
 643:Lib/lvgl/src/themes/default/lv_theme_default.c ****     }
 644:Lib/lvgl/src/themes/default/lv_theme_default.c **** 
 645:Lib/lvgl/src/themes/default/lv_theme_default.c ****     my_theme_t * theme = theme_def;
 646:Lib/lvgl/src/themes/default/lv_theme_default.c **** 
 647:Lib/lvgl/src/themes/default/lv_theme_default.c ****     lv_display_t * new_disp = disp == NULL ? lv_display_get_default() : disp;
 648:Lib/lvgl/src/themes/default/lv_theme_default.c ****     int32_t new_dpi = lv_display_get_dpi(new_disp);
 649:Lib/lvgl/src/themes/default/lv_theme_default.c ****     int32_t hor_res = lv_display_get_horizontal_resolution(new_disp);
 650:Lib/lvgl/src/themes/default/lv_theme_default.c ****     disp_size_t new_size;
 651:Lib/lvgl/src/themes/default/lv_theme_default.c **** 
 652:Lib/lvgl/src/themes/default/lv_theme_default.c ****     if(hor_res <= 320) new_size = DISP_SMALL;
 653:Lib/lvgl/src/themes/default/lv_theme_default.c ****     else if(hor_res < 720) new_size = DISP_MEDIUM;
 654:Lib/lvgl/src/themes/default/lv_theme_default.c ****     else new_size = DISP_LARGE;
 655:Lib/lvgl/src/themes/default/lv_theme_default.c **** 
 656:Lib/lvgl/src/themes/default/lv_theme_default.c ****     /* check theme information whether will change or not*/
 657:Lib/lvgl/src/themes/default/lv_theme_default.c ****     if(theme->inited && theme->disp_dpi == new_dpi &&
 658:Lib/lvgl/src/themes/default/lv_theme_default.c ****        theme->disp_size == new_size &&
 659:Lib/lvgl/src/themes/default/lv_theme_default.c ****        lv_color_eq(theme->base.color_primary, color_primary) &&
 660:Lib/lvgl/src/themes/default/lv_theme_default.c ****        lv_color_eq(theme->base.color_secondary, color_secondary) &&
 661:Lib/lvgl/src/themes/default/lv_theme_default.c ****        (theme->base.flags == dark ? MODE_DARK : 0) &&
 662:Lib/lvgl/src/themes/default/lv_theme_default.c ****        theme->base.font_small == font) {
 663:Lib/lvgl/src/themes/default/lv_theme_default.c ****         return (lv_theme_t *) theme;
 664:Lib/lvgl/src/themes/default/lv_theme_default.c **** 
 665:Lib/lvgl/src/themes/default/lv_theme_default.c ****     }
 666:Lib/lvgl/src/themes/default/lv_theme_default.c **** 
 667:Lib/lvgl/src/themes/default/lv_theme_default.c ****     theme->disp_size = new_size;
 668:Lib/lvgl/src/themes/default/lv_theme_default.c ****     theme->disp_dpi = new_dpi;
 669:Lib/lvgl/src/themes/default/lv_theme_default.c ****     theme->base.disp = new_disp;
 670:Lib/lvgl/src/themes/default/lv_theme_default.c ****     theme->base.color_primary = color_primary;
 671:Lib/lvgl/src/themes/default/lv_theme_default.c ****     theme->base.color_secondary = color_secondary;
 672:Lib/lvgl/src/themes/default/lv_theme_default.c ****     theme->base.font_small = font;
 673:Lib/lvgl/src/themes/default/lv_theme_default.c ****     theme->base.font_normal = font;
 674:Lib/lvgl/src/themes/default/lv_theme_default.c ****     theme->base.font_large = font;
 675:Lib/lvgl/src/themes/default/lv_theme_default.c ****     theme->base.apply_cb = theme_apply;
 676:Lib/lvgl/src/themes/default/lv_theme_default.c ****     theme->base.flags = dark ? MODE_DARK : 0;
 677:Lib/lvgl/src/themes/default/lv_theme_default.c **** 
 678:Lib/lvgl/src/themes/default/lv_theme_default.c ****     style_init(theme);
 679:Lib/lvgl/src/themes/default/lv_theme_default.c **** 
 680:Lib/lvgl/src/themes/default/lv_theme_default.c ****     if(disp == NULL || lv_display_get_theme(disp) == (lv_theme_t *)theme) lv_obj_report_style_chang
 681:Lib/lvgl/src/themes/default/lv_theme_default.c **** 
 682:Lib/lvgl/src/themes/default/lv_theme_default.c ****     theme->inited = true;
 683:Lib/lvgl/src/themes/default/lv_theme_default.c **** 
 684:Lib/lvgl/src/themes/default/lv_theme_default.c ****     return (lv_theme_t *) theme;
 685:Lib/lvgl/src/themes/default/lv_theme_default.c **** }
 686:Lib/lvgl/src/themes/default/lv_theme_default.c **** 
 687:Lib/lvgl/src/themes/default/lv_theme_default.c **** void lv_theme_default_deinit(void)
 688:Lib/lvgl/src/themes/default/lv_theme_default.c **** {
 689:Lib/lvgl/src/themes/default/lv_theme_default.c ****     my_theme_t * theme = theme_def;
 690:Lib/lvgl/src/themes/default/lv_theme_default.c ****     if(theme) {
ARM GAS  C:\Users\Alex\AppData\Local\Temp\ccR26jun.s 			page 22


 691:Lib/lvgl/src/themes/default/lv_theme_default.c ****         if(theme->inited) {
 692:Lib/lvgl/src/themes/default/lv_theme_default.c ****             lv_style_t * theme_styles = (lv_style_t *)(&(theme->styles));
 693:Lib/lvgl/src/themes/default/lv_theme_default.c ****             uint32_t i;
 694:Lib/lvgl/src/themes/default/lv_theme_default.c ****             for(i = 0; i < sizeof(my_theme_styles_t) / sizeof(lv_style_t); i++) {
 695:Lib/lvgl/src/themes/default/lv_theme_default.c ****                 lv_style_reset(theme_styles + i);
 696:Lib/lvgl/src/themes/default/lv_theme_default.c ****             }
 697:Lib/lvgl/src/themes/default/lv_theme_default.c **** 
 698:Lib/lvgl/src/themes/default/lv_theme_default.c ****         }
 699:Lib/lvgl/src/themes/default/lv_theme_default.c ****         lv_free(theme_def);
 700:Lib/lvgl/src/themes/default/lv_theme_default.c ****         theme_def = NULL;
 701:Lib/lvgl/src/themes/default/lv_theme_default.c ****     }
 702:Lib/lvgl/src/themes/default/lv_theme_default.c **** }
 703:Lib/lvgl/src/themes/default/lv_theme_default.c **** 
 704:Lib/lvgl/src/themes/default/lv_theme_default.c **** lv_theme_t * lv_theme_default_get(void)
 705:Lib/lvgl/src/themes/default/lv_theme_default.c **** {
 706:Lib/lvgl/src/themes/default/lv_theme_default.c ****     if(!lv_theme_default_is_inited()) {
 707:Lib/lvgl/src/themes/default/lv_theme_default.c ****         return NULL;
 708:Lib/lvgl/src/themes/default/lv_theme_default.c ****     }
 709:Lib/lvgl/src/themes/default/lv_theme_default.c **** 
 710:Lib/lvgl/src/themes/default/lv_theme_default.c ****     return (lv_theme_t *)theme_def;
 711:Lib/lvgl/src/themes/default/lv_theme_default.c **** }
 712:Lib/lvgl/src/themes/default/lv_theme_default.c **** 
 713:Lib/lvgl/src/themes/default/lv_theme_default.c **** bool lv_theme_default_is_inited(void)
 714:Lib/lvgl/src/themes/default/lv_theme_default.c **** {
 715:Lib/lvgl/src/themes/default/lv_theme_default.c ****     my_theme_t * theme = theme_def;
 716:Lib/lvgl/src/themes/default/lv_theme_default.c ****     if(theme == NULL) return false;
 717:Lib/lvgl/src/themes/default/lv_theme_default.c ****     return theme->inited;
 718:Lib/lvgl/src/themes/default/lv_theme_default.c **** }
 719:Lib/lvgl/src/themes/default/lv_theme_default.c **** 
 720:Lib/lvgl/src/themes/default/lv_theme_default.c **** static void theme_apply(lv_theme_t * th, lv_obj_t * obj)
 721:Lib/lvgl/src/themes/default/lv_theme_default.c **** {
 188              		.loc 1 721 1 is_stmt 1 view -0
 189              		.cfi_startproc
 190              		@ args = 0, pretend = 0, frame = 0
 191              		@ frame_needed = 0, uses_anonymous_args = 0
 192              		.loc 1 721 1 is_stmt 0 view .LVU37
 193 0000 2DE9F041 		push	{r4, r5, r6, r7, r8, lr}
 194              	.LCFI4:
 195              		.cfi_def_cfa_offset 24
 196              		.cfi_offset 4, -24
 197              		.cfi_offset 5, -20
 198              		.cfi_offset 6, -16
 199              		.cfi_offset 7, -12
 200              		.cfi_offset 8, -8
 201              		.cfi_offset 14, -4
 202 0004 0C46     		mov	r4, r1
 722:Lib/lvgl/src/themes/default/lv_theme_default.c ****     LV_UNUSED(th);
 203              		.loc 1 722 5 is_stmt 1 view .LVU38
 723:Lib/lvgl/src/themes/default/lv_theme_default.c **** 
 724:Lib/lvgl/src/themes/default/lv_theme_default.c ****     my_theme_t * theme = theme_def;
 204              		.loc 1 724 5 view .LVU39
 205              		.loc 1 724 18 is_stmt 0 view .LVU40
 206 0006 CA4B     		ldr	r3, .L75
 207 0008 D3F87C51 		ldr	r5, [r3, #380]
 208              	.LVL6:
 725:Lib/lvgl/src/themes/default/lv_theme_default.c **** 
 726:Lib/lvgl/src/themes/default/lv_theme_default.c ****     if(lv_obj_get_parent(obj) == NULL) {
ARM GAS  C:\Users\Alex\AppData\Local\Temp\ccR26jun.s 			page 23


 209              		.loc 1 726 5 is_stmt 1 view .LVU41
 210              		.loc 1 726 8 is_stmt 0 view .LVU42
 211 000c 0846     		mov	r0, r1
 212              	.LVL7:
 213              		.loc 1 726 8 view .LVU43
 214 000e FFF7FEFF 		bl	lv_obj_get_parent
 215              	.LVL8:
 216              		.loc 1 726 7 view .LVU44
 217 0012 0028     		cmp	r0, #0
 218 0014 4BD0     		beq	.L64
 727:Lib/lvgl/src/themes/default/lv_theme_default.c ****         lv_obj_add_style(obj, &theme->styles.scr, 0);
 728:Lib/lvgl/src/themes/default/lv_theme_default.c ****         lv_obj_add_style(obj, &theme->styles.scrollbar, LV_PART_SCROLLBAR);
 729:Lib/lvgl/src/themes/default/lv_theme_default.c ****         lv_obj_add_style(obj, &theme->styles.scrollbar_scrolled, LV_PART_SCROLLBAR | LV_STATE_SCROL
 730:Lib/lvgl/src/themes/default/lv_theme_default.c ****         return;
 731:Lib/lvgl/src/themes/default/lv_theme_default.c ****     }
 732:Lib/lvgl/src/themes/default/lv_theme_default.c **** 
 733:Lib/lvgl/src/themes/default/lv_theme_default.c ****     if(lv_obj_check_type(obj, &lv_obj_class)) {
 219              		.loc 1 733 5 is_stmt 1 view .LVU45
 220              		.loc 1 733 8 is_stmt 0 view .LVU46
 221 0016 C749     		ldr	r1, .L75+4
 222 0018 2046     		mov	r0, r4
 223 001a FFF7FEFF 		bl	lv_obj_check_type
 224              	.LVL9:
 225              		.loc 1 733 7 view .LVU47
 226 001e 0028     		cmp	r0, #0
 227 0020 00F0BB80 		beq	.L8
 228              	.LBB54:
 734:Lib/lvgl/src/themes/default/lv_theme_default.c **** #if LV_USE_TABVIEW
 735:Lib/lvgl/src/themes/default/lv_theme_default.c ****         lv_obj_t * parent = lv_obj_get_parent(obj);
 229              		.loc 1 735 9 is_stmt 1 view .LVU48
 230              		.loc 1 735 29 is_stmt 0 view .LVU49
 231 0024 2046     		mov	r0, r4
 232 0026 FFF7FEFF 		bl	lv_obj_get_parent
 233              	.LVL10:
 736:Lib/lvgl/src/themes/default/lv_theme_default.c ****         /*Tabview content area*/
 737:Lib/lvgl/src/themes/default/lv_theme_default.c ****         if(parent && lv_obj_check_type(parent, &lv_tabview_class) && lv_obj_get_index(obj) == 1) {
 234              		.loc 1 737 9 is_stmt 1 view .LVU50
 235              		.loc 1 737 11 is_stmt 0 view .LVU51
 236 002a 0646     		mov	r6, r0
 237 002c 20B1     		cbz	r0, .L9
 238              		.loc 1 737 22 discriminator 1 view .LVU52
 239 002e C249     		ldr	r1, .L75+8
 240 0030 FFF7FEFF 		bl	lv_obj_check_type
 241              	.LVL11:
 242              		.loc 1 737 19 discriminator 1 view .LVU53
 243 0034 0028     		cmp	r0, #0
 244 0036 4FD1     		bne	.L65
 245              	.L9:
 738:Lib/lvgl/src/themes/default/lv_theme_default.c ****             return;
 739:Lib/lvgl/src/themes/default/lv_theme_default.c ****         }
 740:Lib/lvgl/src/themes/default/lv_theme_default.c ****         /*Tabview button container*/
 741:Lib/lvgl/src/themes/default/lv_theme_default.c ****         else if(lv_obj_check_type(parent, &lv_tabview_class) && lv_obj_get_index(obj) == 0) {
 246              		.loc 1 741 14 is_stmt 1 view .LVU54
 247              		.loc 1 741 17 is_stmt 0 view .LVU55
 248 0038 BF49     		ldr	r1, .L75+8
 249 003a 3046     		mov	r0, r6
 250 003c FFF7FEFF 		bl	lv_obj_check_type
ARM GAS  C:\Users\Alex\AppData\Local\Temp\ccR26jun.s 			page 24


 251              	.LVL12:
 252              		.loc 1 741 16 view .LVU56
 253 0040 0028     		cmp	r0, #0
 254 0042 4FD1     		bne	.L66
 255              	.L10:
 742:Lib/lvgl/src/themes/default/lv_theme_default.c ****             lv_obj_add_style(obj, &theme->styles.bg_color_white, 0);
 743:Lib/lvgl/src/themes/default/lv_theme_default.c ****             lv_obj_add_style(obj, &theme->styles.outline_primary, LV_STATE_FOCUS_KEY);
 744:Lib/lvgl/src/themes/default/lv_theme_default.c ****             lv_obj_add_style(obj, &theme->styles.tab_bg_focus, LV_STATE_FOCUS_KEY);
 745:Lib/lvgl/src/themes/default/lv_theme_default.c ****             return;
 746:Lib/lvgl/src/themes/default/lv_theme_default.c ****         }
 747:Lib/lvgl/src/themes/default/lv_theme_default.c ****         /*Tabview pages*/
 748:Lib/lvgl/src/themes/default/lv_theme_default.c ****         else if(parent && lv_obj_check_type(lv_obj_get_parent(parent), &lv_tabview_class)) {
 256              		.loc 1 748 14 is_stmt 1 view .LVU57
 257              		.loc 1 748 16 is_stmt 0 view .LVU58
 258 0044 3EB1     		cbz	r6, .L11
 259              		.loc 1 748 45 discriminator 1 view .LVU59
 260 0046 3046     		mov	r0, r6
 261 0048 FFF7FEFF 		bl	lv_obj_get_parent
 262              	.LVL13:
 263              		.loc 1 748 27 discriminator 1 view .LVU60
 264 004c BA49     		ldr	r1, .L75+8
 265 004e FFF7FEFF 		bl	lv_obj_check_type
 266              	.LVL14:
 267              		.loc 1 748 24 discriminator 1 view .LVU61
 268 0052 0028     		cmp	r0, #0
 269 0054 5ED1     		bne	.L67
 270              	.L11:
 749:Lib/lvgl/src/themes/default/lv_theme_default.c ****             lv_obj_add_style(obj, &theme->styles.pad_normal, 0);
 750:Lib/lvgl/src/themes/default/lv_theme_default.c ****             lv_obj_add_style(obj, &theme->styles.scrollbar, LV_PART_SCROLLBAR);
 751:Lib/lvgl/src/themes/default/lv_theme_default.c ****             lv_obj_add_style(obj, &theme->styles.scrollbar_scrolled, LV_PART_SCROLLBAR | LV_STATE_S
 752:Lib/lvgl/src/themes/default/lv_theme_default.c ****             return;
 753:Lib/lvgl/src/themes/default/lv_theme_default.c ****         }
 754:Lib/lvgl/src/themes/default/lv_theme_default.c **** #endif
 755:Lib/lvgl/src/themes/default/lv_theme_default.c **** 
 756:Lib/lvgl/src/themes/default/lv_theme_default.c **** #if LV_USE_WIN
 757:Lib/lvgl/src/themes/default/lv_theme_default.c ****         /*Header*/
 758:Lib/lvgl/src/themes/default/lv_theme_default.c ****         if(lv_obj_get_index(obj) == 0 && lv_obj_check_type(lv_obj_get_parent(obj), &lv_win_class)) 
 271              		.loc 1 758 9 is_stmt 1 view .LVU62
 272              		.loc 1 758 12 is_stmt 0 view .LVU63
 273 0056 2046     		mov	r0, r4
 274 0058 FFF7FEFF 		bl	lv_obj_get_index
 275              	.LVL15:
 276              		.loc 1 758 11 view .LVU64
 277 005c 38B9     		cbnz	r0, .L12
 278              		.loc 1 758 60 discriminator 1 view .LVU65
 279 005e 2046     		mov	r0, r4
 280 0060 FFF7FEFF 		bl	lv_obj_get_parent
 281              	.LVL16:
 282              		.loc 1 758 42 discriminator 1 view .LVU66
 283 0064 B549     		ldr	r1, .L75+12
 284 0066 FFF7FEFF 		bl	lv_obj_check_type
 285              	.LVL17:
 286              		.loc 1 758 39 discriminator 1 view .LVU67
 287 006a 0028     		cmp	r0, #0
 288 006c 66D1     		bne	.L68
 289              	.L12:
 759:Lib/lvgl/src/themes/default/lv_theme_default.c ****             lv_obj_add_style(obj, &theme->styles.bg_color_grey, 0);
ARM GAS  C:\Users\Alex\AppData\Local\Temp\ccR26jun.s 			page 25


 760:Lib/lvgl/src/themes/default/lv_theme_default.c ****             lv_obj_add_style(obj, &theme->styles.pad_tiny, 0);
 761:Lib/lvgl/src/themes/default/lv_theme_default.c ****             return;
 762:Lib/lvgl/src/themes/default/lv_theme_default.c ****         }
 763:Lib/lvgl/src/themes/default/lv_theme_default.c ****         /*Content*/
 764:Lib/lvgl/src/themes/default/lv_theme_default.c ****         else if(lv_obj_get_index(obj) == 1 && lv_obj_check_type(lv_obj_get_parent(obj), &lv_win_cla
 290              		.loc 1 764 14 is_stmt 1 view .LVU68
 291              		.loc 1 764 17 is_stmt 0 view .LVU69
 292 006e 2046     		mov	r0, r4
 293 0070 FFF7FEFF 		bl	lv_obj_get_index
 294              	.LVL18:
 295              		.loc 1 764 16 view .LVU70
 296 0074 0128     		cmp	r0, #1
 297 0076 6ED0     		beq	.L69
 298              	.L13:
 765:Lib/lvgl/src/themes/default/lv_theme_default.c ****             lv_obj_add_style(obj, &theme->styles.scr, 0);
 766:Lib/lvgl/src/themes/default/lv_theme_default.c ****             lv_obj_add_style(obj, &theme->styles.pad_normal, 0);
 767:Lib/lvgl/src/themes/default/lv_theme_default.c ****             lv_obj_add_style(obj, &theme->styles.scrollbar, LV_PART_SCROLLBAR);
 768:Lib/lvgl/src/themes/default/lv_theme_default.c ****             lv_obj_add_style(obj, &theme->styles.scrollbar_scrolled, LV_PART_SCROLLBAR | LV_STATE_S
 769:Lib/lvgl/src/themes/default/lv_theme_default.c ****             return;
 770:Lib/lvgl/src/themes/default/lv_theme_default.c ****         }
 771:Lib/lvgl/src/themes/default/lv_theme_default.c **** #endif
 772:Lib/lvgl/src/themes/default/lv_theme_default.c **** 
 773:Lib/lvgl/src/themes/default/lv_theme_default.c **** #if LV_USE_CALENDAR
 774:Lib/lvgl/src/themes/default/lv_theme_default.c ****         if(lv_obj_check_type(lv_obj_get_parent(obj), &lv_calendar_class)) {
 299              		.loc 1 774 9 is_stmt 1 view .LVU71
 300              		.loc 1 774 30 is_stmt 0 view .LVU72
 301 0078 2046     		mov	r0, r4
 302 007a FFF7FEFF 		bl	lv_obj_get_parent
 303              	.LVL19:
 304              		.loc 1 774 12 view .LVU73
 305 007e B049     		ldr	r1, .L75+16
 306 0080 FFF7FEFF 		bl	lv_obj_check_type
 307              	.LVL20:
 308              		.loc 1 774 11 view .LVU74
 309 0084 30BB     		cbnz	r0, .L5
 775:Lib/lvgl/src/themes/default/lv_theme_default.c ****             /*No style*/
 776:Lib/lvgl/src/themes/default/lv_theme_default.c ****             return;
 777:Lib/lvgl/src/themes/default/lv_theme_default.c ****         }
 778:Lib/lvgl/src/themes/default/lv_theme_default.c **** #endif
 779:Lib/lvgl/src/themes/default/lv_theme_default.c **** 
 780:Lib/lvgl/src/themes/default/lv_theme_default.c ****         lv_obj_add_style(obj, &theme->styles.card, 0);
 310              		.loc 1 780 9 is_stmt 1 view .LVU75
 311 0086 0022     		movs	r2, #0
 312 0088 05F16401 		add	r1, r5, #100
 313 008c 2046     		mov	r0, r4
 314 008e FFF7FEFF 		bl	lv_obj_add_style
 315              	.LVL21:
 781:Lib/lvgl/src/themes/default/lv_theme_default.c ****         lv_obj_add_style(obj, &theme->styles.scrollbar, LV_PART_SCROLLBAR);
 316              		.loc 1 781 9 view .LVU76
 317 0092 4FF48032 		mov	r2, #65536
 318 0096 05F14C01 		add	r1, r5, #76
 319 009a 2046     		mov	r0, r4
 320 009c FFF7FEFF 		bl	lv_obj_add_style
 321              	.LVL22:
 782:Lib/lvgl/src/themes/default/lv_theme_default.c ****         lv_obj_add_style(obj, &theme->styles.scrollbar_scrolled, LV_PART_SCROLLBAR | LV_STATE_SCROL
 322              		.loc 1 782 9 view .LVU77
 323 00a0 A84A     		ldr	r2, .L75+20
ARM GAS  C:\Users\Alex\AppData\Local\Temp\ccR26jun.s 			page 26


 324 00a2 05F15801 		add	r1, r5, #88
 325 00a6 2046     		mov	r0, r4
 326 00a8 FFF7FEFF 		bl	lv_obj_add_style
 327              	.LVL23:
 328              	.LBE54:
 329 00ac D5E0     		b	.L14
 330              	.LVL24:
 331              	.L64:
 727:Lib/lvgl/src/themes/default/lv_theme_default.c ****         lv_obj_add_style(obj, &theme->styles.scrollbar, LV_PART_SCROLLBAR);
 332              		.loc 1 727 9 view .LVU78
 333 00ae 0022     		movs	r2, #0
 334 00b0 05F14001 		add	r1, r5, #64
 335 00b4 2046     		mov	r0, r4
 336 00b6 FFF7FEFF 		bl	lv_obj_add_style
 337              	.LVL25:
 728:Lib/lvgl/src/themes/default/lv_theme_default.c ****         lv_obj_add_style(obj, &theme->styles.scrollbar_scrolled, LV_PART_SCROLLBAR | LV_STATE_SCROL
 338              		.loc 1 728 9 view .LVU79
 339 00ba 4FF48032 		mov	r2, #65536
 340 00be 05F14C01 		add	r1, r5, #76
 341 00c2 2046     		mov	r0, r4
 342 00c4 FFF7FEFF 		bl	lv_obj_add_style
 343              	.LVL26:
 729:Lib/lvgl/src/themes/default/lv_theme_default.c ****         return;
 344              		.loc 1 729 9 view .LVU80
 345 00c8 9E4A     		ldr	r2, .L75+20
 346 00ca 05F15801 		add	r1, r5, #88
 347 00ce 2046     		mov	r0, r4
 348 00d0 FFF7FEFF 		bl	lv_obj_add_style
 349              	.LVL27:
 730:Lib/lvgl/src/themes/default/lv_theme_default.c ****     }
 350              		.loc 1 730 9 view .LVU81
 351              	.L5:
 783:Lib/lvgl/src/themes/default/lv_theme_default.c ****     }
 784:Lib/lvgl/src/themes/default/lv_theme_default.c **** #if LV_USE_BUTTON
 785:Lib/lvgl/src/themes/default/lv_theme_default.c ****     else if(lv_obj_check_type(obj, &lv_button_class)) {
 786:Lib/lvgl/src/themes/default/lv_theme_default.c **** 
 787:Lib/lvgl/src/themes/default/lv_theme_default.c **** #if LV_USE_TABVIEW
 788:Lib/lvgl/src/themes/default/lv_theme_default.c ****         lv_obj_t * parent = lv_obj_get_parent(obj);
 789:Lib/lvgl/src/themes/default/lv_theme_default.c ****         if(parent && lv_obj_get_index(parent) == 0) { /*Tabview header*/
 790:Lib/lvgl/src/themes/default/lv_theme_default.c ****             if(lv_obj_check_type(lv_obj_get_parent(parent), &lv_tabview_class)) {
 791:Lib/lvgl/src/themes/default/lv_theme_default.c ****                 lv_obj_add_style(obj, &theme->styles.pressed, LV_STATE_PRESSED);
 792:Lib/lvgl/src/themes/default/lv_theme_default.c ****                 lv_obj_add_style(obj, &theme->styles.bg_color_primary_muted, LV_STATE_CHECKED);
 793:Lib/lvgl/src/themes/default/lv_theme_default.c ****                 lv_obj_add_style(obj, &theme->styles.tab_btn, LV_STATE_CHECKED);
 794:Lib/lvgl/src/themes/default/lv_theme_default.c ****                 lv_obj_add_style(obj, &theme->styles.outline_primary, LV_STATE_FOCUS_KEY);
 795:Lib/lvgl/src/themes/default/lv_theme_default.c ****                 lv_obj_add_style(obj, &theme->styles.outline_secondary, LV_STATE_EDITED);
 796:Lib/lvgl/src/themes/default/lv_theme_default.c ****                 lv_obj_add_style(obj, &theme->styles.tab_bg_focus, LV_STATE_FOCUS_KEY);
 797:Lib/lvgl/src/themes/default/lv_theme_default.c ****                 return;
 798:Lib/lvgl/src/themes/default/lv_theme_default.c ****             }
 799:Lib/lvgl/src/themes/default/lv_theme_default.c ****         }
 800:Lib/lvgl/src/themes/default/lv_theme_default.c **** 
 801:Lib/lvgl/src/themes/default/lv_theme_default.c **** #endif
 802:Lib/lvgl/src/themes/default/lv_theme_default.c ****         lv_obj_add_style(obj, &theme->styles.btn, 0);
 803:Lib/lvgl/src/themes/default/lv_theme_default.c ****         lv_obj_add_style(obj, &theme->styles.bg_color_primary, 0);
 804:Lib/lvgl/src/themes/default/lv_theme_default.c ****         lv_obj_add_style(obj, &theme->styles.transition_delayed, 0);
 805:Lib/lvgl/src/themes/default/lv_theme_default.c ****         lv_obj_add_style(obj, &theme->styles.pressed, LV_STATE_PRESSED);
 806:Lib/lvgl/src/themes/default/lv_theme_default.c ****         lv_obj_add_style(obj, &theme->styles.transition_normal, LV_STATE_PRESSED);
 807:Lib/lvgl/src/themes/default/lv_theme_default.c ****         lv_obj_add_style(obj, &theme->styles.outline_primary, LV_STATE_FOCUS_KEY);
ARM GAS  C:\Users\Alex\AppData\Local\Temp\ccR26jun.s 			page 27


 808:Lib/lvgl/src/themes/default/lv_theme_default.c **** #if LV_THEME_DEFAULT_GROW
 809:Lib/lvgl/src/themes/default/lv_theme_default.c ****         lv_obj_add_style(obj, &theme->styles.grow, LV_STATE_PRESSED);
 810:Lib/lvgl/src/themes/default/lv_theme_default.c **** #endif
 811:Lib/lvgl/src/themes/default/lv_theme_default.c ****         lv_obj_add_style(obj, &theme->styles.bg_color_secondary, LV_STATE_CHECKED);
 812:Lib/lvgl/src/themes/default/lv_theme_default.c ****         lv_obj_add_style(obj, &theme->styles.disabled, LV_STATE_DISABLED);
 813:Lib/lvgl/src/themes/default/lv_theme_default.c **** 
 814:Lib/lvgl/src/themes/default/lv_theme_default.c **** #if LV_USE_MENU
 815:Lib/lvgl/src/themes/default/lv_theme_default.c ****         if(lv_obj_check_type(lv_obj_get_parent(obj), &lv_menu_sidebar_header_cont_class) ||
 816:Lib/lvgl/src/themes/default/lv_theme_default.c ****            lv_obj_check_type(lv_obj_get_parent(obj), &lv_menu_main_header_cont_class)) {
 817:Lib/lvgl/src/themes/default/lv_theme_default.c ****             lv_obj_add_style(obj, &theme->styles.menu_header_btn, 0);
 818:Lib/lvgl/src/themes/default/lv_theme_default.c ****             lv_obj_add_style(obj, &theme->styles.menu_pressed, LV_STATE_PRESSED);
 819:Lib/lvgl/src/themes/default/lv_theme_default.c ****         }
 820:Lib/lvgl/src/themes/default/lv_theme_default.c **** #endif
 821:Lib/lvgl/src/themes/default/lv_theme_default.c ****     }
 822:Lib/lvgl/src/themes/default/lv_theme_default.c **** #endif
 823:Lib/lvgl/src/themes/default/lv_theme_default.c **** 
 824:Lib/lvgl/src/themes/default/lv_theme_default.c **** #if LV_USE_LINE
 825:Lib/lvgl/src/themes/default/lv_theme_default.c ****     else if(lv_obj_check_type(obj, &lv_line_class)) {
 826:Lib/lvgl/src/themes/default/lv_theme_default.c ****         lv_obj_add_style(obj, &theme->styles.line, 0);
 827:Lib/lvgl/src/themes/default/lv_theme_default.c ****     }
 828:Lib/lvgl/src/themes/default/lv_theme_default.c **** #endif
 829:Lib/lvgl/src/themes/default/lv_theme_default.c **** 
 830:Lib/lvgl/src/themes/default/lv_theme_default.c **** #if LV_USE_BUTTONMATRIX
 831:Lib/lvgl/src/themes/default/lv_theme_default.c ****     else if(lv_obj_check_type(obj, &lv_buttonmatrix_class)) {
 832:Lib/lvgl/src/themes/default/lv_theme_default.c **** 
 833:Lib/lvgl/src/themes/default/lv_theme_default.c **** #if LV_USE_CALENDAR
 834:Lib/lvgl/src/themes/default/lv_theme_default.c ****         if(lv_obj_check_type(lv_obj_get_parent(obj), &lv_calendar_class)) {
 835:Lib/lvgl/src/themes/default/lv_theme_default.c ****             lv_obj_add_style(obj, &theme->styles.calendar_btnm_bg, 0);
 836:Lib/lvgl/src/themes/default/lv_theme_default.c ****             lv_obj_add_style(obj, &theme->styles.outline_primary, LV_STATE_FOCUS_KEY);
 837:Lib/lvgl/src/themes/default/lv_theme_default.c ****             lv_obj_add_style(obj, &theme->styles.outline_secondary, LV_STATE_EDITED);
 838:Lib/lvgl/src/themes/default/lv_theme_default.c ****             lv_obj_add_style(obj, &theme->styles.calendar_btnm_day, LV_PART_ITEMS);
 839:Lib/lvgl/src/themes/default/lv_theme_default.c ****             lv_obj_add_style(obj, &theme->styles.pressed, LV_PART_ITEMS | LV_STATE_PRESSED);
 840:Lib/lvgl/src/themes/default/lv_theme_default.c ****             lv_obj_add_style(obj, &theme->styles.disabled, LV_PART_ITEMS | LV_STATE_DISABLED);
 841:Lib/lvgl/src/themes/default/lv_theme_default.c ****             lv_obj_add_style(obj, &theme->styles.outline_primary, LV_PART_ITEMS | LV_STATE_FOCUS_KE
 842:Lib/lvgl/src/themes/default/lv_theme_default.c ****             lv_obj_add_style(obj, &theme->styles.outline_secondary, LV_PART_ITEMS | LV_STATE_EDITED
 843:Lib/lvgl/src/themes/default/lv_theme_default.c ****             return;
 844:Lib/lvgl/src/themes/default/lv_theme_default.c ****         }
 845:Lib/lvgl/src/themes/default/lv_theme_default.c **** #endif
 846:Lib/lvgl/src/themes/default/lv_theme_default.c ****         lv_obj_add_style(obj, &theme->styles.card, 0);
 847:Lib/lvgl/src/themes/default/lv_theme_default.c ****         lv_obj_add_style(obj, &theme->styles.outline_primary, LV_STATE_FOCUS_KEY);
 848:Lib/lvgl/src/themes/default/lv_theme_default.c ****         lv_obj_add_style(obj, &theme->styles.outline_secondary, LV_STATE_EDITED);
 849:Lib/lvgl/src/themes/default/lv_theme_default.c ****         lv_obj_add_style(obj, &theme->styles.btn, LV_PART_ITEMS);
 850:Lib/lvgl/src/themes/default/lv_theme_default.c ****         lv_obj_add_style(obj, &theme->styles.disabled, LV_PART_ITEMS | LV_STATE_DISABLED);
 851:Lib/lvgl/src/themes/default/lv_theme_default.c ****         lv_obj_add_style(obj, &theme->styles.pressed, LV_PART_ITEMS | LV_STATE_PRESSED);
 852:Lib/lvgl/src/themes/default/lv_theme_default.c ****         lv_obj_add_style(obj, &theme->styles.bg_color_primary, LV_PART_ITEMS | LV_STATE_CHECKED);
 853:Lib/lvgl/src/themes/default/lv_theme_default.c ****         lv_obj_add_style(obj, &theme->styles.outline_primary, LV_PART_ITEMS | LV_STATE_FOCUS_KEY);
 854:Lib/lvgl/src/themes/default/lv_theme_default.c ****         lv_obj_add_style(obj, &theme->styles.outline_secondary, LV_PART_ITEMS | LV_STATE_EDITED);
 855:Lib/lvgl/src/themes/default/lv_theme_default.c ****     }
 856:Lib/lvgl/src/themes/default/lv_theme_default.c **** #endif
 857:Lib/lvgl/src/themes/default/lv_theme_default.c **** 
 858:Lib/lvgl/src/themes/default/lv_theme_default.c **** #if LV_USE_BAR
 859:Lib/lvgl/src/themes/default/lv_theme_default.c ****     else if(lv_obj_check_type(obj, &lv_bar_class)) {
 860:Lib/lvgl/src/themes/default/lv_theme_default.c ****         lv_obj_add_style(obj, &theme->styles.bg_color_primary_muted, 0);
 861:Lib/lvgl/src/themes/default/lv_theme_default.c ****         lv_obj_add_style(obj, &theme->styles.circle, 0);
 862:Lib/lvgl/src/themes/default/lv_theme_default.c ****         lv_obj_add_style(obj, &theme->styles.outline_primary, LV_STATE_FOCUS_KEY);
 863:Lib/lvgl/src/themes/default/lv_theme_default.c ****         lv_obj_add_style(obj, &theme->styles.outline_secondary, LV_STATE_EDITED);
 864:Lib/lvgl/src/themes/default/lv_theme_default.c ****         lv_obj_add_style(obj, &theme->styles.bg_color_primary, LV_PART_INDICATOR);
ARM GAS  C:\Users\Alex\AppData\Local\Temp\ccR26jun.s 			page 28


 865:Lib/lvgl/src/themes/default/lv_theme_default.c ****         lv_obj_add_style(obj, &theme->styles.circle, LV_PART_INDICATOR);
 866:Lib/lvgl/src/themes/default/lv_theme_default.c ****     }
 867:Lib/lvgl/src/themes/default/lv_theme_default.c **** #endif
 868:Lib/lvgl/src/themes/default/lv_theme_default.c **** 
 869:Lib/lvgl/src/themes/default/lv_theme_default.c **** #if LV_USE_SLIDER
 870:Lib/lvgl/src/themes/default/lv_theme_default.c ****     else if(lv_obj_check_type(obj, &lv_slider_class)) {
 871:Lib/lvgl/src/themes/default/lv_theme_default.c ****         lv_obj_add_style(obj, &theme->styles.bg_color_primary_muted, 0);
 872:Lib/lvgl/src/themes/default/lv_theme_default.c ****         lv_obj_add_style(obj, &theme->styles.circle, 0);
 873:Lib/lvgl/src/themes/default/lv_theme_default.c ****         lv_obj_add_style(obj, &theme->styles.outline_primary, LV_STATE_FOCUS_KEY);
 874:Lib/lvgl/src/themes/default/lv_theme_default.c ****         lv_obj_add_style(obj, &theme->styles.outline_secondary, LV_STATE_EDITED);
 875:Lib/lvgl/src/themes/default/lv_theme_default.c ****         lv_obj_add_style(obj, &theme->styles.bg_color_primary, LV_PART_INDICATOR);
 876:Lib/lvgl/src/themes/default/lv_theme_default.c ****         lv_obj_add_style(obj, &theme->styles.circle, LV_PART_INDICATOR);
 877:Lib/lvgl/src/themes/default/lv_theme_default.c ****         lv_obj_add_style(obj, &theme->styles.knob, LV_PART_KNOB);
 878:Lib/lvgl/src/themes/default/lv_theme_default.c **** #if LV_THEME_DEFAULT_GROW
 879:Lib/lvgl/src/themes/default/lv_theme_default.c ****         lv_obj_add_style(obj, &theme->styles.grow, LV_PART_KNOB | LV_STATE_PRESSED);
 880:Lib/lvgl/src/themes/default/lv_theme_default.c **** #endif
 881:Lib/lvgl/src/themes/default/lv_theme_default.c ****         lv_obj_add_style(obj, &theme->styles.transition_delayed, LV_PART_KNOB);
 882:Lib/lvgl/src/themes/default/lv_theme_default.c ****         lv_obj_add_style(obj, &theme->styles.transition_normal, LV_PART_KNOB | LV_STATE_PRESSED);
 883:Lib/lvgl/src/themes/default/lv_theme_default.c ****     }
 884:Lib/lvgl/src/themes/default/lv_theme_default.c **** #endif
 885:Lib/lvgl/src/themes/default/lv_theme_default.c **** 
 886:Lib/lvgl/src/themes/default/lv_theme_default.c **** #if LV_USE_TABLE
 887:Lib/lvgl/src/themes/default/lv_theme_default.c ****     else if(lv_obj_check_type(obj, &lv_table_class)) {
 888:Lib/lvgl/src/themes/default/lv_theme_default.c ****         lv_obj_add_style(obj, &theme->styles.card, 0);
 889:Lib/lvgl/src/themes/default/lv_theme_default.c ****         lv_obj_add_style(obj, &theme->styles.pad_zero, 0);
 890:Lib/lvgl/src/themes/default/lv_theme_default.c ****         lv_obj_add_style(obj, &theme->styles.no_radius, 0);
 891:Lib/lvgl/src/themes/default/lv_theme_default.c ****         lv_obj_add_style(obj, &theme->styles.outline_primary, LV_STATE_FOCUS_KEY);
 892:Lib/lvgl/src/themes/default/lv_theme_default.c ****         lv_obj_add_style(obj, &theme->styles.outline_secondary, LV_STATE_EDITED);
 893:Lib/lvgl/src/themes/default/lv_theme_default.c ****         lv_obj_add_style(obj, &theme->styles.scrollbar, LV_PART_SCROLLBAR);
 894:Lib/lvgl/src/themes/default/lv_theme_default.c ****         lv_obj_add_style(obj, &theme->styles.scrollbar_scrolled, LV_PART_SCROLLBAR | LV_STATE_SCROL
 895:Lib/lvgl/src/themes/default/lv_theme_default.c ****         lv_obj_add_style(obj, &theme->styles.bg_color_white, LV_PART_ITEMS);
 896:Lib/lvgl/src/themes/default/lv_theme_default.c ****         lv_obj_add_style(obj, &theme->styles.table_cell, LV_PART_ITEMS);
 897:Lib/lvgl/src/themes/default/lv_theme_default.c ****         lv_obj_add_style(obj, &theme->styles.pad_normal, LV_PART_ITEMS);
 898:Lib/lvgl/src/themes/default/lv_theme_default.c ****         lv_obj_add_style(obj, &theme->styles.pressed, LV_PART_ITEMS | LV_STATE_PRESSED);
 899:Lib/lvgl/src/themes/default/lv_theme_default.c ****         lv_obj_add_style(obj, &theme->styles.bg_color_primary, LV_PART_ITEMS | LV_STATE_FOCUS_KEY);
 900:Lib/lvgl/src/themes/default/lv_theme_default.c ****         lv_obj_add_style(obj, &theme->styles.bg_color_secondary, LV_PART_ITEMS | LV_STATE_EDITED);
 901:Lib/lvgl/src/themes/default/lv_theme_default.c ****     }
 902:Lib/lvgl/src/themes/default/lv_theme_default.c **** #endif
 903:Lib/lvgl/src/themes/default/lv_theme_default.c **** 
 904:Lib/lvgl/src/themes/default/lv_theme_default.c **** #if LV_USE_CHECKBOX
 905:Lib/lvgl/src/themes/default/lv_theme_default.c ****     else if(lv_obj_check_type(obj, &lv_checkbox_class)) {
 906:Lib/lvgl/src/themes/default/lv_theme_default.c ****         lv_obj_add_style(obj, &theme->styles.pad_gap, 0);
 907:Lib/lvgl/src/themes/default/lv_theme_default.c ****         lv_obj_add_style(obj, &theme->styles.outline_primary, LV_STATE_FOCUS_KEY);
 908:Lib/lvgl/src/themes/default/lv_theme_default.c ****         lv_obj_add_style(obj, &theme->styles.disabled, LV_PART_INDICATOR | LV_STATE_DISABLED);
 909:Lib/lvgl/src/themes/default/lv_theme_default.c ****         lv_obj_add_style(obj, &theme->styles.cb_marker, LV_PART_INDICATOR);
 910:Lib/lvgl/src/themes/default/lv_theme_default.c ****         lv_obj_add_style(obj, &theme->styles.bg_color_primary, LV_PART_INDICATOR | LV_STATE_CHECKED
 911:Lib/lvgl/src/themes/default/lv_theme_default.c ****         lv_obj_add_style(obj, &theme->styles.cb_marker_checked, LV_PART_INDICATOR | LV_STATE_CHECKE
 912:Lib/lvgl/src/themes/default/lv_theme_default.c ****         lv_obj_add_style(obj, &theme->styles.pressed, LV_PART_INDICATOR | LV_STATE_PRESSED);
 913:Lib/lvgl/src/themes/default/lv_theme_default.c **** #if LV_THEME_DEFAULT_GROW
 914:Lib/lvgl/src/themes/default/lv_theme_default.c ****         lv_obj_add_style(obj, &theme->styles.grow, LV_PART_INDICATOR | LV_STATE_PRESSED);
 915:Lib/lvgl/src/themes/default/lv_theme_default.c **** #endif
 916:Lib/lvgl/src/themes/default/lv_theme_default.c ****         lv_obj_add_style(obj, &theme->styles.transition_normal, LV_PART_INDICATOR | LV_STATE_PRESSE
 917:Lib/lvgl/src/themes/default/lv_theme_default.c ****         lv_obj_add_style(obj, &theme->styles.transition_delayed, LV_PART_INDICATOR);
 918:Lib/lvgl/src/themes/default/lv_theme_default.c ****     }
 919:Lib/lvgl/src/themes/default/lv_theme_default.c **** #endif
 920:Lib/lvgl/src/themes/default/lv_theme_default.c **** 
 921:Lib/lvgl/src/themes/default/lv_theme_default.c **** #if LV_USE_SWITCH
ARM GAS  C:\Users\Alex\AppData\Local\Temp\ccR26jun.s 			page 29


 922:Lib/lvgl/src/themes/default/lv_theme_default.c ****     else if(lv_obj_check_type(obj, &lv_switch_class)) {
 923:Lib/lvgl/src/themes/default/lv_theme_default.c ****         lv_obj_add_style(obj, &theme->styles.bg_color_grey, 0);
 924:Lib/lvgl/src/themes/default/lv_theme_default.c ****         lv_obj_add_style(obj, &theme->styles.circle, 0);
 925:Lib/lvgl/src/themes/default/lv_theme_default.c ****         lv_obj_add_style(obj, &theme->styles.anim_fast, 0);
 926:Lib/lvgl/src/themes/default/lv_theme_default.c ****         lv_obj_add_style(obj, &theme->styles.disabled, LV_STATE_DISABLED);
 927:Lib/lvgl/src/themes/default/lv_theme_default.c ****         lv_obj_add_style(obj, &theme->styles.outline_primary, LV_STATE_FOCUS_KEY);
 928:Lib/lvgl/src/themes/default/lv_theme_default.c ****         lv_obj_add_style(obj, &theme->styles.bg_color_primary, LV_PART_INDICATOR | LV_STATE_CHECKED
 929:Lib/lvgl/src/themes/default/lv_theme_default.c ****         lv_obj_add_style(obj, &theme->styles.circle, LV_PART_INDICATOR);
 930:Lib/lvgl/src/themes/default/lv_theme_default.c ****         lv_obj_add_style(obj, &theme->styles.disabled, LV_PART_INDICATOR | LV_STATE_DISABLED);
 931:Lib/lvgl/src/themes/default/lv_theme_default.c ****         lv_obj_add_style(obj, &theme->styles.knob, LV_PART_KNOB);
 932:Lib/lvgl/src/themes/default/lv_theme_default.c ****         lv_obj_add_style(obj, &theme->styles.bg_color_white, LV_PART_KNOB);
 933:Lib/lvgl/src/themes/default/lv_theme_default.c ****         lv_obj_add_style(obj, &theme->styles.switch_knob, LV_PART_KNOB);
 934:Lib/lvgl/src/themes/default/lv_theme_default.c ****         lv_obj_add_style(obj, &theme->styles.disabled, LV_PART_KNOB | LV_STATE_DISABLED);
 935:Lib/lvgl/src/themes/default/lv_theme_default.c **** 
 936:Lib/lvgl/src/themes/default/lv_theme_default.c ****         lv_obj_add_style(obj, &theme->styles.transition_normal, LV_PART_INDICATOR | LV_STATE_CHECKE
 937:Lib/lvgl/src/themes/default/lv_theme_default.c ****         lv_obj_add_style(obj, &theme->styles.transition_normal, LV_PART_INDICATOR);
 938:Lib/lvgl/src/themes/default/lv_theme_default.c ****     }
 939:Lib/lvgl/src/themes/default/lv_theme_default.c **** #endif
 940:Lib/lvgl/src/themes/default/lv_theme_default.c **** 
 941:Lib/lvgl/src/themes/default/lv_theme_default.c **** #if LV_USE_CHART
 942:Lib/lvgl/src/themes/default/lv_theme_default.c ****     else if(lv_obj_check_type(obj, &lv_chart_class)) {
 943:Lib/lvgl/src/themes/default/lv_theme_default.c ****         lv_obj_add_style(obj, &theme->styles.card, 0);
 944:Lib/lvgl/src/themes/default/lv_theme_default.c ****         lv_obj_add_style(obj, &theme->styles.pad_small, 0);
 945:Lib/lvgl/src/themes/default/lv_theme_default.c ****         lv_obj_add_style(obj, &theme->styles.chart_bg, 0);
 946:Lib/lvgl/src/themes/default/lv_theme_default.c ****         lv_obj_add_style(obj, &theme->styles.scrollbar, LV_PART_SCROLLBAR);
 947:Lib/lvgl/src/themes/default/lv_theme_default.c ****         lv_obj_add_style(obj, &theme->styles.scrollbar_scrolled, LV_PART_SCROLLBAR | LV_STATE_SCROL
 948:Lib/lvgl/src/themes/default/lv_theme_default.c ****         lv_obj_add_style(obj, &theme->styles.chart_series, LV_PART_ITEMS);
 949:Lib/lvgl/src/themes/default/lv_theme_default.c ****         lv_obj_add_style(obj, &theme->styles.chart_indic, LV_PART_INDICATOR);
 950:Lib/lvgl/src/themes/default/lv_theme_default.c ****         lv_obj_add_style(obj, &theme->styles.chart_series, LV_PART_CURSOR);
 951:Lib/lvgl/src/themes/default/lv_theme_default.c ****     }
 952:Lib/lvgl/src/themes/default/lv_theme_default.c **** #endif
 953:Lib/lvgl/src/themes/default/lv_theme_default.c **** 
 954:Lib/lvgl/src/themes/default/lv_theme_default.c **** #if LV_USE_ROLLER
 955:Lib/lvgl/src/themes/default/lv_theme_default.c ****     else if(lv_obj_check_type(obj, &lv_roller_class)) {
 956:Lib/lvgl/src/themes/default/lv_theme_default.c ****         lv_obj_add_style(obj, &theme->styles.card, 0);
 957:Lib/lvgl/src/themes/default/lv_theme_default.c ****         lv_obj_add_style(obj, &theme->styles.anim, 0);
 958:Lib/lvgl/src/themes/default/lv_theme_default.c ****         lv_obj_add_style(obj, &theme->styles.line_space_large, 0);
 959:Lib/lvgl/src/themes/default/lv_theme_default.c ****         lv_obj_add_style(obj, &theme->styles.text_align_center, 0);
 960:Lib/lvgl/src/themes/default/lv_theme_default.c ****         lv_obj_add_style(obj, &theme->styles.outline_primary, LV_STATE_FOCUS_KEY);
 961:Lib/lvgl/src/themes/default/lv_theme_default.c ****         lv_obj_add_style(obj, &theme->styles.outline_secondary, LV_STATE_EDITED);
 962:Lib/lvgl/src/themes/default/lv_theme_default.c ****         lv_obj_add_style(obj, &theme->styles.bg_color_primary, LV_PART_SELECTED);
 963:Lib/lvgl/src/themes/default/lv_theme_default.c ****     }
 964:Lib/lvgl/src/themes/default/lv_theme_default.c **** #endif
 965:Lib/lvgl/src/themes/default/lv_theme_default.c **** 
 966:Lib/lvgl/src/themes/default/lv_theme_default.c **** #if LV_USE_DROPDOWN
 967:Lib/lvgl/src/themes/default/lv_theme_default.c ****     else if(lv_obj_check_type(obj, &lv_dropdown_class)) {
 968:Lib/lvgl/src/themes/default/lv_theme_default.c ****         lv_obj_add_style(obj, &theme->styles.card, 0);
 969:Lib/lvgl/src/themes/default/lv_theme_default.c ****         lv_obj_add_style(obj, &theme->styles.pad_small, 0);
 970:Lib/lvgl/src/themes/default/lv_theme_default.c ****         lv_obj_add_style(obj, &theme->styles.transition_delayed, 0);
 971:Lib/lvgl/src/themes/default/lv_theme_default.c ****         lv_obj_add_style(obj, &theme->styles.transition_normal, LV_STATE_PRESSED);
 972:Lib/lvgl/src/themes/default/lv_theme_default.c ****         lv_obj_add_style(obj, &theme->styles.pressed, LV_STATE_PRESSED);
 973:Lib/lvgl/src/themes/default/lv_theme_default.c ****         lv_obj_add_style(obj, &theme->styles.outline_primary, LV_STATE_FOCUS_KEY);
 974:Lib/lvgl/src/themes/default/lv_theme_default.c ****         lv_obj_add_style(obj, &theme->styles.outline_secondary, LV_STATE_EDITED);
 975:Lib/lvgl/src/themes/default/lv_theme_default.c ****         lv_obj_add_style(obj, &theme->styles.transition_normal, LV_PART_INDICATOR);
 976:Lib/lvgl/src/themes/default/lv_theme_default.c ****         lv_obj_add_style(obj, &theme->styles.disabled, LV_STATE_DISABLED);
 977:Lib/lvgl/src/themes/default/lv_theme_default.c ****     }
 978:Lib/lvgl/src/themes/default/lv_theme_default.c ****     else if(lv_obj_check_type(obj, &lv_dropdownlist_class)) {
ARM GAS  C:\Users\Alex\AppData\Local\Temp\ccR26jun.s 			page 30


 979:Lib/lvgl/src/themes/default/lv_theme_default.c ****         lv_obj_add_style(obj, &theme->styles.card, 0);
 980:Lib/lvgl/src/themes/default/lv_theme_default.c ****         lv_obj_add_style(obj, &theme->styles.clip_corner, 0);
 981:Lib/lvgl/src/themes/default/lv_theme_default.c ****         lv_obj_add_style(obj, &theme->styles.line_space_large, 0);
 982:Lib/lvgl/src/themes/default/lv_theme_default.c ****         lv_obj_add_style(obj, &theme->styles.dropdown_list, 0);
 983:Lib/lvgl/src/themes/default/lv_theme_default.c ****         lv_obj_add_style(obj, &theme->styles.scrollbar, LV_PART_SCROLLBAR);
 984:Lib/lvgl/src/themes/default/lv_theme_default.c ****         lv_obj_add_style(obj, &theme->styles.scrollbar_scrolled, LV_PART_SCROLLBAR | LV_STATE_SCROL
 985:Lib/lvgl/src/themes/default/lv_theme_default.c ****         lv_obj_add_style(obj, &theme->styles.bg_color_white, LV_PART_SELECTED);
 986:Lib/lvgl/src/themes/default/lv_theme_default.c ****         lv_obj_add_style(obj, &theme->styles.bg_color_primary, LV_PART_SELECTED | LV_STATE_CHECKED)
 987:Lib/lvgl/src/themes/default/lv_theme_default.c ****         lv_obj_add_style(obj, &theme->styles.pressed, LV_PART_SELECTED | LV_STATE_PRESSED);
 988:Lib/lvgl/src/themes/default/lv_theme_default.c ****     }
 989:Lib/lvgl/src/themes/default/lv_theme_default.c **** #endif
 990:Lib/lvgl/src/themes/default/lv_theme_default.c **** 
 991:Lib/lvgl/src/themes/default/lv_theme_default.c **** #if LV_USE_ARC
 992:Lib/lvgl/src/themes/default/lv_theme_default.c ****     else if(lv_obj_check_type(obj, &lv_arc_class)) {
 993:Lib/lvgl/src/themes/default/lv_theme_default.c ****         lv_obj_add_style(obj, &theme->styles.arc_indic, 0);
 994:Lib/lvgl/src/themes/default/lv_theme_default.c ****         lv_obj_add_style(obj, &theme->styles.arc_indic, LV_PART_INDICATOR);
 995:Lib/lvgl/src/themes/default/lv_theme_default.c ****         lv_obj_add_style(obj, &theme->styles.arc_indic_primary, LV_PART_INDICATOR);
 996:Lib/lvgl/src/themes/default/lv_theme_default.c ****         lv_obj_add_style(obj, &theme->styles.knob, LV_PART_KNOB);
 997:Lib/lvgl/src/themes/default/lv_theme_default.c ****     }
 998:Lib/lvgl/src/themes/default/lv_theme_default.c **** #endif
 999:Lib/lvgl/src/themes/default/lv_theme_default.c **** 
1000:Lib/lvgl/src/themes/default/lv_theme_default.c **** #if LV_USE_SPINNER
1001:Lib/lvgl/src/themes/default/lv_theme_default.c ****     else if(lv_obj_check_type(obj, &lv_spinner_class)) {
1002:Lib/lvgl/src/themes/default/lv_theme_default.c ****         lv_obj_add_style(obj, &theme->styles.arc_indic, 0);
1003:Lib/lvgl/src/themes/default/lv_theme_default.c ****         lv_obj_add_style(obj, &theme->styles.arc_indic, LV_PART_INDICATOR);
1004:Lib/lvgl/src/themes/default/lv_theme_default.c ****         lv_obj_add_style(obj, &theme->styles.arc_indic_primary, LV_PART_INDICATOR);
1005:Lib/lvgl/src/themes/default/lv_theme_default.c ****     }
1006:Lib/lvgl/src/themes/default/lv_theme_default.c **** #endif
1007:Lib/lvgl/src/themes/default/lv_theme_default.c **** 
1008:Lib/lvgl/src/themes/default/lv_theme_default.c **** #if LV_USE_TEXTAREA
1009:Lib/lvgl/src/themes/default/lv_theme_default.c ****     else if(lv_obj_check_type(obj, &lv_textarea_class)) {
1010:Lib/lvgl/src/themes/default/lv_theme_default.c ****         lv_obj_add_style(obj, &theme->styles.card, 0);
1011:Lib/lvgl/src/themes/default/lv_theme_default.c ****         lv_obj_add_style(obj, &theme->styles.pad_small, 0);
1012:Lib/lvgl/src/themes/default/lv_theme_default.c ****         lv_obj_add_style(obj, &theme->styles.disabled, LV_STATE_DISABLED);
1013:Lib/lvgl/src/themes/default/lv_theme_default.c ****         lv_obj_add_style(obj, &theme->styles.outline_primary, LV_STATE_FOCUS_KEY);
1014:Lib/lvgl/src/themes/default/lv_theme_default.c ****         lv_obj_add_style(obj, &theme->styles.outline_secondary, LV_STATE_EDITED);
1015:Lib/lvgl/src/themes/default/lv_theme_default.c ****         lv_obj_add_style(obj, &theme->styles.scrollbar, LV_PART_SCROLLBAR);
1016:Lib/lvgl/src/themes/default/lv_theme_default.c ****         lv_obj_add_style(obj, &theme->styles.scrollbar_scrolled, LV_PART_SCROLLBAR | LV_STATE_SCROL
1017:Lib/lvgl/src/themes/default/lv_theme_default.c ****         lv_obj_add_style(obj, &theme->styles.ta_cursor, LV_PART_CURSOR | LV_STATE_FOCUSED);
1018:Lib/lvgl/src/themes/default/lv_theme_default.c ****         lv_obj_add_style(obj, &theme->styles.ta_placeholder, LV_PART_TEXTAREA_PLACEHOLDER);
1019:Lib/lvgl/src/themes/default/lv_theme_default.c ****     }
1020:Lib/lvgl/src/themes/default/lv_theme_default.c **** #endif
1021:Lib/lvgl/src/themes/default/lv_theme_default.c **** 
1022:Lib/lvgl/src/themes/default/lv_theme_default.c **** #if LV_USE_CALENDAR
1023:Lib/lvgl/src/themes/default/lv_theme_default.c ****     else if(lv_obj_check_type(obj, &lv_calendar_class)) {
1024:Lib/lvgl/src/themes/default/lv_theme_default.c ****         lv_obj_add_style(obj, &theme->styles.card, 0);
1025:Lib/lvgl/src/themes/default/lv_theme_default.c ****         lv_obj_add_style(obj, &theme->styles.pad_zero, 0);
1026:Lib/lvgl/src/themes/default/lv_theme_default.c ****     }
1027:Lib/lvgl/src/themes/default/lv_theme_default.c **** 
1028:Lib/lvgl/src/themes/default/lv_theme_default.c **** #if LV_USE_CALENDAR_HEADER_ARROW
1029:Lib/lvgl/src/themes/default/lv_theme_default.c ****     else if(lv_obj_check_type(obj, &lv_calendar_header_arrow_class)) {
1030:Lib/lvgl/src/themes/default/lv_theme_default.c ****         lv_obj_add_style(obj, &theme->styles.calendar_header, 0);
1031:Lib/lvgl/src/themes/default/lv_theme_default.c ****     }
1032:Lib/lvgl/src/themes/default/lv_theme_default.c **** #endif
1033:Lib/lvgl/src/themes/default/lv_theme_default.c **** 
1034:Lib/lvgl/src/themes/default/lv_theme_default.c **** #if LV_USE_CALENDAR_HEADER_DROPDOWN
1035:Lib/lvgl/src/themes/default/lv_theme_default.c ****     else if(lv_obj_check_type(obj, &lv_calendar_header_dropdown_class)) {
ARM GAS  C:\Users\Alex\AppData\Local\Temp\ccR26jun.s 			page 31


1036:Lib/lvgl/src/themes/default/lv_theme_default.c ****         lv_obj_add_style(obj, &theme->styles.calendar_header, 0);
1037:Lib/lvgl/src/themes/default/lv_theme_default.c ****     }
1038:Lib/lvgl/src/themes/default/lv_theme_default.c **** #endif
1039:Lib/lvgl/src/themes/default/lv_theme_default.c **** #endif
1040:Lib/lvgl/src/themes/default/lv_theme_default.c **** 
1041:Lib/lvgl/src/themes/default/lv_theme_default.c **** #if LV_USE_KEYBOARD
1042:Lib/lvgl/src/themes/default/lv_theme_default.c ****     else if(lv_obj_check_type(obj, &lv_keyboard_class)) {
1043:Lib/lvgl/src/themes/default/lv_theme_default.c ****         lv_obj_add_style(obj, &theme->styles.scr, 0);
1044:Lib/lvgl/src/themes/default/lv_theme_default.c ****         lv_obj_add_style(obj, theme->disp_size == DISP_LARGE ? &theme->styles.pad_small : &theme->s
1045:Lib/lvgl/src/themes/default/lv_theme_default.c ****         lv_obj_add_style(obj, &theme->styles.outline_primary, LV_STATE_FOCUS_KEY);
1046:Lib/lvgl/src/themes/default/lv_theme_default.c ****         lv_obj_add_style(obj, &theme->styles.outline_secondary, LV_STATE_EDITED);
1047:Lib/lvgl/src/themes/default/lv_theme_default.c ****         lv_obj_add_style(obj, &theme->styles.btn, LV_PART_ITEMS);
1048:Lib/lvgl/src/themes/default/lv_theme_default.c ****         lv_obj_add_style(obj, &theme->styles.disabled, LV_PART_ITEMS | LV_STATE_DISABLED);
1049:Lib/lvgl/src/themes/default/lv_theme_default.c ****         lv_obj_add_style(obj, &theme->styles.bg_color_white, LV_PART_ITEMS);
1050:Lib/lvgl/src/themes/default/lv_theme_default.c ****         lv_obj_add_style(obj, &theme->styles.keyboard_button_bg, LV_PART_ITEMS);
1051:Lib/lvgl/src/themes/default/lv_theme_default.c ****         lv_obj_add_style(obj, &theme->styles.pressed, LV_PART_ITEMS | LV_STATE_PRESSED);
1052:Lib/lvgl/src/themes/default/lv_theme_default.c ****         lv_obj_add_style(obj, &theme->styles.bg_color_grey, LV_PART_ITEMS | LV_STATE_CHECKED);
1053:Lib/lvgl/src/themes/default/lv_theme_default.c ****         lv_obj_add_style(obj, &theme->styles.bg_color_primary_muted, LV_PART_ITEMS | LV_STATE_FOCUS
1054:Lib/lvgl/src/themes/default/lv_theme_default.c ****         lv_obj_add_style(obj, &theme->styles.bg_color_secondary_muted, LV_PART_ITEMS | LV_STATE_EDI
1055:Lib/lvgl/src/themes/default/lv_theme_default.c ****     }
1056:Lib/lvgl/src/themes/default/lv_theme_default.c **** #endif
1057:Lib/lvgl/src/themes/default/lv_theme_default.c **** #if LV_USE_LIST
1058:Lib/lvgl/src/themes/default/lv_theme_default.c ****     else if(lv_obj_check_type(obj, &lv_list_class)) {
1059:Lib/lvgl/src/themes/default/lv_theme_default.c ****         lv_obj_add_style(obj, &theme->styles.card, 0);
1060:Lib/lvgl/src/themes/default/lv_theme_default.c ****         lv_obj_add_style(obj, &theme->styles.list_bg, 0);
1061:Lib/lvgl/src/themes/default/lv_theme_default.c ****         lv_obj_add_style(obj, &theme->styles.scrollbar, LV_PART_SCROLLBAR);
1062:Lib/lvgl/src/themes/default/lv_theme_default.c ****         lv_obj_add_style(obj, &theme->styles.scrollbar_scrolled, LV_PART_SCROLLBAR | LV_STATE_SCROL
1063:Lib/lvgl/src/themes/default/lv_theme_default.c ****         return;
1064:Lib/lvgl/src/themes/default/lv_theme_default.c ****     }
1065:Lib/lvgl/src/themes/default/lv_theme_default.c ****     else if(lv_obj_check_type(obj, &lv_list_text_class)) {
1066:Lib/lvgl/src/themes/default/lv_theme_default.c ****         lv_obj_add_style(obj, &theme->styles.bg_color_grey, 0);
1067:Lib/lvgl/src/themes/default/lv_theme_default.c ****         lv_obj_add_style(obj, &theme->styles.list_item_grow, 0);
1068:Lib/lvgl/src/themes/default/lv_theme_default.c ****     }
1069:Lib/lvgl/src/themes/default/lv_theme_default.c ****     else if(lv_obj_check_type(obj, &lv_list_button_class)) {
1070:Lib/lvgl/src/themes/default/lv_theme_default.c ****         lv_obj_add_style(obj, &theme->styles.bg_color_white, 0);
1071:Lib/lvgl/src/themes/default/lv_theme_default.c ****         lv_obj_add_style(obj, &theme->styles.list_btn, 0);
1072:Lib/lvgl/src/themes/default/lv_theme_default.c ****         lv_obj_add_style(obj, &theme->styles.bg_color_primary, LV_STATE_FOCUS_KEY);
1073:Lib/lvgl/src/themes/default/lv_theme_default.c ****         lv_obj_add_style(obj, &theme->styles.list_item_grow, LV_STATE_FOCUS_KEY);
1074:Lib/lvgl/src/themes/default/lv_theme_default.c ****         lv_obj_add_style(obj, &theme->styles.list_item_grow, LV_STATE_PRESSED);
1075:Lib/lvgl/src/themes/default/lv_theme_default.c ****         lv_obj_add_style(obj, &theme->styles.pressed, LV_STATE_PRESSED);
1076:Lib/lvgl/src/themes/default/lv_theme_default.c **** 
1077:Lib/lvgl/src/themes/default/lv_theme_default.c ****     }
1078:Lib/lvgl/src/themes/default/lv_theme_default.c **** #endif
1079:Lib/lvgl/src/themes/default/lv_theme_default.c **** #if LV_USE_MENU
1080:Lib/lvgl/src/themes/default/lv_theme_default.c ****     else if(lv_obj_check_type(obj, &lv_menu_class)) {
1081:Lib/lvgl/src/themes/default/lv_theme_default.c ****         lv_obj_add_style(obj, &theme->styles.card, 0);
1082:Lib/lvgl/src/themes/default/lv_theme_default.c ****         lv_obj_add_style(obj, &theme->styles.menu_bg, 0);
1083:Lib/lvgl/src/themes/default/lv_theme_default.c ****     }
1084:Lib/lvgl/src/themes/default/lv_theme_default.c ****     else if(lv_obj_check_type(obj, &lv_menu_sidebar_cont_class)) {
1085:Lib/lvgl/src/themes/default/lv_theme_default.c ****         lv_obj_add_style(obj, &theme->styles.menu_sidebar_cont, 0);
1086:Lib/lvgl/src/themes/default/lv_theme_default.c ****         lv_obj_add_style(obj, &theme->styles.scrollbar, LV_PART_SCROLLBAR);
1087:Lib/lvgl/src/themes/default/lv_theme_default.c ****         lv_obj_add_style(obj, &theme->styles.scrollbar_scrolled, LV_PART_SCROLLBAR | LV_STATE_SCROL
1088:Lib/lvgl/src/themes/default/lv_theme_default.c ****     }
1089:Lib/lvgl/src/themes/default/lv_theme_default.c ****     else if(lv_obj_check_type(obj, &lv_menu_main_cont_class)) {
1090:Lib/lvgl/src/themes/default/lv_theme_default.c ****         lv_obj_add_style(obj, &theme->styles.menu_main_cont, 0);
1091:Lib/lvgl/src/themes/default/lv_theme_default.c ****         lv_obj_add_style(obj, &theme->styles.scrollbar, LV_PART_SCROLLBAR);
1092:Lib/lvgl/src/themes/default/lv_theme_default.c ****         lv_obj_add_style(obj, &theme->styles.scrollbar_scrolled, LV_PART_SCROLLBAR | LV_STATE_SCROL
ARM GAS  C:\Users\Alex\AppData\Local\Temp\ccR26jun.s 			page 32


1093:Lib/lvgl/src/themes/default/lv_theme_default.c ****     }
1094:Lib/lvgl/src/themes/default/lv_theme_default.c ****     else if(lv_obj_check_type(obj, &lv_menu_cont_class)) {
1095:Lib/lvgl/src/themes/default/lv_theme_default.c ****         lv_obj_add_style(obj, &theme->styles.menu_cont, 0);
1096:Lib/lvgl/src/themes/default/lv_theme_default.c ****         lv_obj_add_style(obj, &theme->styles.menu_pressed, LV_STATE_PRESSED);
1097:Lib/lvgl/src/themes/default/lv_theme_default.c ****         lv_obj_add_style(obj, &theme->styles.bg_color_primary_muted, LV_STATE_PRESSED | LV_STATE_CH
1098:Lib/lvgl/src/themes/default/lv_theme_default.c ****         lv_obj_add_style(obj, &theme->styles.bg_color_primary_muted, LV_STATE_CHECKED);
1099:Lib/lvgl/src/themes/default/lv_theme_default.c ****         lv_obj_add_style(obj, &theme->styles.bg_color_primary, LV_STATE_FOCUS_KEY);
1100:Lib/lvgl/src/themes/default/lv_theme_default.c ****     }
1101:Lib/lvgl/src/themes/default/lv_theme_default.c ****     else if(lv_obj_check_type(obj, &lv_menu_sidebar_header_cont_class) ||
1102:Lib/lvgl/src/themes/default/lv_theme_default.c ****             lv_obj_check_type(obj, &lv_menu_main_header_cont_class)) {
1103:Lib/lvgl/src/themes/default/lv_theme_default.c ****         lv_obj_add_style(obj, &theme->styles.menu_header_cont, 0);
1104:Lib/lvgl/src/themes/default/lv_theme_default.c ****     }
1105:Lib/lvgl/src/themes/default/lv_theme_default.c ****     else if(lv_obj_check_type(obj, &lv_menu_page_class)) {
1106:Lib/lvgl/src/themes/default/lv_theme_default.c ****         lv_obj_add_style(obj, &theme->styles.menu_page, 0);
1107:Lib/lvgl/src/themes/default/lv_theme_default.c ****         lv_obj_add_style(obj, &theme->styles.scrollbar, LV_PART_SCROLLBAR);
1108:Lib/lvgl/src/themes/default/lv_theme_default.c ****         lv_obj_add_style(obj, &theme->styles.scrollbar_scrolled, LV_PART_SCROLLBAR | LV_STATE_SCROL
1109:Lib/lvgl/src/themes/default/lv_theme_default.c ****     }
1110:Lib/lvgl/src/themes/default/lv_theme_default.c ****     else if(lv_obj_check_type(obj, &lv_menu_section_class)) {
1111:Lib/lvgl/src/themes/default/lv_theme_default.c ****         lv_obj_add_style(obj, &theme->styles.menu_section, 0);
1112:Lib/lvgl/src/themes/default/lv_theme_default.c ****     }
1113:Lib/lvgl/src/themes/default/lv_theme_default.c ****     else if(lv_obj_check_type(obj, &lv_menu_separator_class)) {
1114:Lib/lvgl/src/themes/default/lv_theme_default.c ****         lv_obj_add_style(obj, &theme->styles.menu_separator, 0);
1115:Lib/lvgl/src/themes/default/lv_theme_default.c ****     }
1116:Lib/lvgl/src/themes/default/lv_theme_default.c **** #endif
1117:Lib/lvgl/src/themes/default/lv_theme_default.c **** #if LV_USE_MSGBOX
1118:Lib/lvgl/src/themes/default/lv_theme_default.c ****     else if(lv_obj_check_type(obj, &lv_msgbox_class)) {
1119:Lib/lvgl/src/themes/default/lv_theme_default.c ****         lv_obj_add_style(obj, &theme->styles.card, 0);
1120:Lib/lvgl/src/themes/default/lv_theme_default.c ****         lv_obj_add_style(obj, &theme->styles.pad_zero, 0);
1121:Lib/lvgl/src/themes/default/lv_theme_default.c ****         return;
1122:Lib/lvgl/src/themes/default/lv_theme_default.c ****     }
1123:Lib/lvgl/src/themes/default/lv_theme_default.c ****     else if(lv_obj_check_type(obj, &lv_msgbox_backdrop_class)) {
1124:Lib/lvgl/src/themes/default/lv_theme_default.c ****         lv_obj_add_style(obj, &theme->styles.msgbox_backdrop_bg, 0);
1125:Lib/lvgl/src/themes/default/lv_theme_default.c ****         return;
1126:Lib/lvgl/src/themes/default/lv_theme_default.c ****     }
1127:Lib/lvgl/src/themes/default/lv_theme_default.c ****     else if(lv_obj_check_type(obj, &lv_msgbox_header_class)) {
1128:Lib/lvgl/src/themes/default/lv_theme_default.c ****         lv_obj_add_style(obj, &theme->styles.pad_tiny, 0);
1129:Lib/lvgl/src/themes/default/lv_theme_default.c ****         lv_obj_add_style(obj, &theme->styles.bg_color_grey, 0);
1130:Lib/lvgl/src/themes/default/lv_theme_default.c ****         return;
1131:Lib/lvgl/src/themes/default/lv_theme_default.c ****     }
1132:Lib/lvgl/src/themes/default/lv_theme_default.c ****     else if(lv_obj_check_type(obj, &lv_msgbox_footer_class)) {
1133:Lib/lvgl/src/themes/default/lv_theme_default.c ****         lv_obj_add_style(obj, &theme->styles.pad_tiny, 0);
1134:Lib/lvgl/src/themes/default/lv_theme_default.c ****         return;
1135:Lib/lvgl/src/themes/default/lv_theme_default.c ****     }
1136:Lib/lvgl/src/themes/default/lv_theme_default.c ****     else if(lv_obj_check_type(obj, &lv_msgbox_header_button_class) ||
1137:Lib/lvgl/src/themes/default/lv_theme_default.c ****             lv_obj_check_type(obj, &lv_msgbox_footer_button_class)) {
1138:Lib/lvgl/src/themes/default/lv_theme_default.c ****         lv_obj_add_style(obj, &theme->styles.btn, 0);
1139:Lib/lvgl/src/themes/default/lv_theme_default.c ****         lv_obj_add_style(obj, &theme->styles.bg_color_primary, 0);
1140:Lib/lvgl/src/themes/default/lv_theme_default.c ****         lv_obj_add_style(obj, &theme->styles.transition_delayed, 0);
1141:Lib/lvgl/src/themes/default/lv_theme_default.c ****         lv_obj_add_style(obj, &theme->styles.pressed, LV_STATE_PRESSED);
1142:Lib/lvgl/src/themes/default/lv_theme_default.c ****         lv_obj_add_style(obj, &theme->styles.transition_normal, LV_STATE_PRESSED);
1143:Lib/lvgl/src/themes/default/lv_theme_default.c ****         lv_obj_add_style(obj, &theme->styles.outline_primary, LV_STATE_FOCUS_KEY);
1144:Lib/lvgl/src/themes/default/lv_theme_default.c ****         lv_obj_add_style(obj, &theme->styles.bg_color_secondary, LV_STATE_CHECKED);
1145:Lib/lvgl/src/themes/default/lv_theme_default.c ****         lv_obj_add_style(obj, &theme->styles.disabled, LV_STATE_DISABLED);
1146:Lib/lvgl/src/themes/default/lv_theme_default.c ****         return;
1147:Lib/lvgl/src/themes/default/lv_theme_default.c ****     }
1148:Lib/lvgl/src/themes/default/lv_theme_default.c **** 
1149:Lib/lvgl/src/themes/default/lv_theme_default.c ****     if(lv_obj_check_type(lv_obj_get_parent(obj), &lv_msgbox_class)) {
ARM GAS  C:\Users\Alex\AppData\Local\Temp\ccR26jun.s 			page 33


1150:Lib/lvgl/src/themes/default/lv_theme_default.c ****         lv_obj_add_style(obj, &theme->styles.pad_tiny, 0);
1151:Lib/lvgl/src/themes/default/lv_theme_default.c ****         return;
1152:Lib/lvgl/src/themes/default/lv_theme_default.c ****     }
1153:Lib/lvgl/src/themes/default/lv_theme_default.c **** 
1154:Lib/lvgl/src/themes/default/lv_theme_default.c **** #endif
1155:Lib/lvgl/src/themes/default/lv_theme_default.c **** 
1156:Lib/lvgl/src/themes/default/lv_theme_default.c **** #if LV_USE_SPINBOX
1157:Lib/lvgl/src/themes/default/lv_theme_default.c ****     else if(lv_obj_check_type(obj, &lv_spinbox_class)) {
1158:Lib/lvgl/src/themes/default/lv_theme_default.c ****         lv_obj_add_style(obj, &theme->styles.card, 0);
1159:Lib/lvgl/src/themes/default/lv_theme_default.c ****         lv_obj_add_style(obj, &theme->styles.pad_small, 0);
1160:Lib/lvgl/src/themes/default/lv_theme_default.c ****         lv_obj_add_style(obj, &theme->styles.outline_primary, LV_STATE_FOCUS_KEY);
1161:Lib/lvgl/src/themes/default/lv_theme_default.c ****         lv_obj_add_style(obj, &theme->styles.outline_secondary, LV_STATE_EDITED);
1162:Lib/lvgl/src/themes/default/lv_theme_default.c ****         lv_obj_add_style(obj, &theme->styles.bg_color_primary, LV_PART_CURSOR);
1163:Lib/lvgl/src/themes/default/lv_theme_default.c ****     }
1164:Lib/lvgl/src/themes/default/lv_theme_default.c **** #endif
1165:Lib/lvgl/src/themes/default/lv_theme_default.c **** #if LV_USE_TILEVIEW
1166:Lib/lvgl/src/themes/default/lv_theme_default.c ****     else if(lv_obj_check_type(obj, &lv_tileview_class)) {
1167:Lib/lvgl/src/themes/default/lv_theme_default.c ****         lv_obj_add_style(obj, &theme->styles.scr, 0);
1168:Lib/lvgl/src/themes/default/lv_theme_default.c ****         lv_obj_add_style(obj, &theme->styles.scrollbar, LV_PART_SCROLLBAR);
1169:Lib/lvgl/src/themes/default/lv_theme_default.c ****         lv_obj_add_style(obj, &theme->styles.scrollbar_scrolled, LV_PART_SCROLLBAR | LV_STATE_SCROL
1170:Lib/lvgl/src/themes/default/lv_theme_default.c ****     }
1171:Lib/lvgl/src/themes/default/lv_theme_default.c ****     else if(lv_obj_check_type(obj, &lv_tileview_tile_class)) {
1172:Lib/lvgl/src/themes/default/lv_theme_default.c ****         lv_obj_add_style(obj, &theme->styles.scrollbar, LV_PART_SCROLLBAR);
1173:Lib/lvgl/src/themes/default/lv_theme_default.c ****         lv_obj_add_style(obj, &theme->styles.scrollbar_scrolled, LV_PART_SCROLLBAR | LV_STATE_SCROL
1174:Lib/lvgl/src/themes/default/lv_theme_default.c ****     }
1175:Lib/lvgl/src/themes/default/lv_theme_default.c **** #endif
1176:Lib/lvgl/src/themes/default/lv_theme_default.c **** 
1177:Lib/lvgl/src/themes/default/lv_theme_default.c **** #if LV_USE_TABVIEW
1178:Lib/lvgl/src/themes/default/lv_theme_default.c ****     else if(lv_obj_check_type(obj, &lv_tabview_class)) {
1179:Lib/lvgl/src/themes/default/lv_theme_default.c ****         lv_obj_add_style(obj, &theme->styles.scr, 0);
1180:Lib/lvgl/src/themes/default/lv_theme_default.c ****         lv_obj_add_style(obj, &theme->styles.pad_zero, 0);
1181:Lib/lvgl/src/themes/default/lv_theme_default.c ****     }
1182:Lib/lvgl/src/themes/default/lv_theme_default.c **** #endif
1183:Lib/lvgl/src/themes/default/lv_theme_default.c **** 
1184:Lib/lvgl/src/themes/default/lv_theme_default.c **** #if LV_USE_WIN
1185:Lib/lvgl/src/themes/default/lv_theme_default.c ****     else if(lv_obj_check_type(obj, &lv_win_class)) {
1186:Lib/lvgl/src/themes/default/lv_theme_default.c ****         lv_obj_add_style(obj, &theme->styles.clip_corner, 0);
1187:Lib/lvgl/src/themes/default/lv_theme_default.c ****     }
1188:Lib/lvgl/src/themes/default/lv_theme_default.c **** #endif
1189:Lib/lvgl/src/themes/default/lv_theme_default.c **** 
1190:Lib/lvgl/src/themes/default/lv_theme_default.c **** #if LV_USE_LED
1191:Lib/lvgl/src/themes/default/lv_theme_default.c ****     else if(lv_obj_check_type(obj, &lv_led_class)) {
1192:Lib/lvgl/src/themes/default/lv_theme_default.c ****         lv_obj_add_style(obj, &theme->styles.led, 0);
1193:Lib/lvgl/src/themes/default/lv_theme_default.c ****     }
1194:Lib/lvgl/src/themes/default/lv_theme_default.c **** #endif
1195:Lib/lvgl/src/themes/default/lv_theme_default.c **** 
1196:Lib/lvgl/src/themes/default/lv_theme_default.c **** #if LV_USE_SCALE
1197:Lib/lvgl/src/themes/default/lv_theme_default.c ****     else if(lv_obj_check_type(obj, &lv_scale_class)) {
1198:Lib/lvgl/src/themes/default/lv_theme_default.c ****         lv_obj_add_style(obj, &theme->styles.scale, LV_PART_MAIN);
1199:Lib/lvgl/src/themes/default/lv_theme_default.c ****         lv_obj_add_style(obj, &theme->styles.scale, LV_PART_INDICATOR);
1200:Lib/lvgl/src/themes/default/lv_theme_default.c ****         lv_obj_add_style(obj, &theme->styles.scale, LV_PART_ITEMS);
1201:Lib/lvgl/src/themes/default/lv_theme_default.c ****     }
1202:Lib/lvgl/src/themes/default/lv_theme_default.c **** #endif
1203:Lib/lvgl/src/themes/default/lv_theme_default.c **** }
 352              		.loc 1 1203 1 is_stmt 0 view .LVU82
 353 00d4 BDE8F081 		pop	{r4, r5, r6, r7, r8, pc}
 354              	.LVL28:
ARM GAS  C:\Users\Alex\AppData\Local\Temp\ccR26jun.s 			page 34


 355              	.L65:
 356              	.LBB55:
 737:Lib/lvgl/src/themes/default/lv_theme_default.c ****             return;
 357              		.loc 1 737 70 discriminator 2 view .LVU83
 358 00d8 2046     		mov	r0, r4
 359 00da FFF7FEFF 		bl	lv_obj_get_index
 360              	.LVL29:
 737:Lib/lvgl/src/themes/default/lv_theme_default.c ****             return;
 361              		.loc 1 737 67 discriminator 2 view .LVU84
 362 00de 0128     		cmp	r0, #1
 363 00e0 AAD1     		bne	.L9
 364 00e2 F7E7     		b	.L5
 365              	.L66:
 741:Lib/lvgl/src/themes/default/lv_theme_default.c ****             lv_obj_add_style(obj, &theme->styles.bg_color_white, 0);
 366              		.loc 1 741 65 discriminator 1 view .LVU85
 367 00e4 2046     		mov	r0, r4
 368 00e6 FFF7FEFF 		bl	lv_obj_get_index
 369              	.LVL30:
 741:Lib/lvgl/src/themes/default/lv_theme_default.c ****             lv_obj_add_style(obj, &theme->styles.bg_color_white, 0);
 370              		.loc 1 741 62 discriminator 1 view .LVU86
 371 00ea 0028     		cmp	r0, #0
 372 00ec AAD1     		bne	.L10
 742:Lib/lvgl/src/themes/default/lv_theme_default.c ****             lv_obj_add_style(obj, &theme->styles.outline_primary, LV_STATE_FOCUS_KEY);
 373              		.loc 1 742 13 is_stmt 1 view .LVU87
 374 00ee 0022     		movs	r2, #0
 375 00f0 05F1B801 		add	r1, r5, #184
 376 00f4 2046     		mov	r0, r4
 377 00f6 FFF7FEFF 		bl	lv_obj_add_style
 378              	.LVL31:
 743:Lib/lvgl/src/themes/default/lv_theme_default.c ****             lv_obj_add_style(obj, &theme->styles.tab_bg_focus, LV_STATE_FOCUS_KEY);
 379              		.loc 1 743 13 view .LVU88
 380 00fa 0422     		movs	r2, #4
 381 00fc 05F59871 		add	r1, r5, #304
 382 0100 2046     		mov	r0, r4
 383 0102 FFF7FEFF 		bl	lv_obj_add_style
 384              	.LVL32:
 744:Lib/lvgl/src/themes/default/lv_theme_default.c ****             return;
 385              		.loc 1 744 13 view .LVU89
 386 0106 0422     		movs	r2, #4
 387 0108 05F54A71 		add	r1, r5, #808
 388 010c 2046     		mov	r0, r4
 389 010e FFF7FEFF 		bl	lv_obj_add_style
 390              	.LVL33:
 745:Lib/lvgl/src/themes/default/lv_theme_default.c ****         }
 391              		.loc 1 745 13 view .LVU90
 392 0112 DFE7     		b	.L5
 393              	.L67:
 749:Lib/lvgl/src/themes/default/lv_theme_default.c ****             lv_obj_add_style(obj, &theme->styles.scrollbar, LV_PART_SCROLLBAR);
 394              		.loc 1 749 13 view .LVU91
 395 0114 0022     		movs	r2, #0
 396 0116 05F58071 		add	r1, r5, #256
 397 011a 2046     		mov	r0, r4
 398 011c FFF7FEFF 		bl	lv_obj_add_style
 399              	.LVL34:
 750:Lib/lvgl/src/themes/default/lv_theme_default.c ****             lv_obj_add_style(obj, &theme->styles.scrollbar_scrolled, LV_PART_SCROLLBAR | LV_STATE_S
 400              		.loc 1 750 13 view .LVU92
 401 0120 4FF48032 		mov	r2, #65536
ARM GAS  C:\Users\Alex\AppData\Local\Temp\ccR26jun.s 			page 35


 402 0124 05F14C01 		add	r1, r5, #76
 403 0128 2046     		mov	r0, r4
 404 012a FFF7FEFF 		bl	lv_obj_add_style
 405              	.LVL35:
 751:Lib/lvgl/src/themes/default/lv_theme_default.c ****             return;
 406              		.loc 1 751 13 view .LVU93
 407 012e 854A     		ldr	r2, .L75+20
 408 0130 05F15801 		add	r1, r5, #88
 409 0134 2046     		mov	r0, r4
 410 0136 FFF7FEFF 		bl	lv_obj_add_style
 411              	.LVL36:
 752:Lib/lvgl/src/themes/default/lv_theme_default.c ****         }
 412              		.loc 1 752 13 view .LVU94
 413 013a CBE7     		b	.L5
 414              	.L68:
 759:Lib/lvgl/src/themes/default/lv_theme_default.c ****             lv_obj_add_style(obj, &theme->styles.pad_tiny, 0);
 415              		.loc 1 759 13 view .LVU95
 416 013c 0022     		movs	r2, #0
 417 013e 05F1AC01 		add	r1, r5, #172
 418 0142 2046     		mov	r0, r4
 419 0144 FFF7FEFF 		bl	lv_obj_add_style
 420              	.LVL37:
 760:Lib/lvgl/src/themes/default/lv_theme_default.c ****             return;
 421              		.loc 1 760 13 view .LVU96
 422 0148 0022     		movs	r2, #0
 423 014a 05F1E801 		add	r1, r5, #232
 424 014e 2046     		mov	r0, r4
 425 0150 FFF7FEFF 		bl	lv_obj_add_style
 426              	.LVL38:
 761:Lib/lvgl/src/themes/default/lv_theme_default.c ****         }
 427              		.loc 1 761 13 view .LVU97
 428 0154 BEE7     		b	.L5
 429              	.L69:
 764:Lib/lvgl/src/themes/default/lv_theme_default.c ****             lv_obj_add_style(obj, &theme->styles.scr, 0);
 430              		.loc 1 764 65 is_stmt 0 discriminator 1 view .LVU98
 431 0156 2046     		mov	r0, r4
 432 0158 FFF7FEFF 		bl	lv_obj_get_parent
 433              	.LVL39:
 764:Lib/lvgl/src/themes/default/lv_theme_default.c ****             lv_obj_add_style(obj, &theme->styles.scr, 0);
 434              		.loc 1 764 47 discriminator 1 view .LVU99
 435 015c 7749     		ldr	r1, .L75+12
 436 015e FFF7FEFF 		bl	lv_obj_check_type
 437              	.LVL40:
 764:Lib/lvgl/src/themes/default/lv_theme_default.c ****             lv_obj_add_style(obj, &theme->styles.scr, 0);
 438              		.loc 1 764 44 discriminator 1 view .LVU100
 439 0162 0028     		cmp	r0, #0
 440 0164 88D0     		beq	.L13
 765:Lib/lvgl/src/themes/default/lv_theme_default.c ****             lv_obj_add_style(obj, &theme->styles.pad_normal, 0);
 441              		.loc 1 765 13 is_stmt 1 view .LVU101
 442 0166 0022     		movs	r2, #0
 443 0168 05F14001 		add	r1, r5, #64
 444 016c 2046     		mov	r0, r4
 445 016e FFF7FEFF 		bl	lv_obj_add_style
 446              	.LVL41:
 766:Lib/lvgl/src/themes/default/lv_theme_default.c ****             lv_obj_add_style(obj, &theme->styles.scrollbar, LV_PART_SCROLLBAR);
 447              		.loc 1 766 13 view .LVU102
 448 0172 0022     		movs	r2, #0
ARM GAS  C:\Users\Alex\AppData\Local\Temp\ccR26jun.s 			page 36


 449 0174 05F58071 		add	r1, r5, #256
 450 0178 2046     		mov	r0, r4
 451 017a FFF7FEFF 		bl	lv_obj_add_style
 452              	.LVL42:
 767:Lib/lvgl/src/themes/default/lv_theme_default.c ****             lv_obj_add_style(obj, &theme->styles.scrollbar_scrolled, LV_PART_SCROLLBAR | LV_STATE_S
 453              		.loc 1 767 13 view .LVU103
 454 017e 4FF48032 		mov	r2, #65536
 455 0182 05F14C01 		add	r1, r5, #76
 456 0186 2046     		mov	r0, r4
 457 0188 FFF7FEFF 		bl	lv_obj_add_style
 458              	.LVL43:
 768:Lib/lvgl/src/themes/default/lv_theme_default.c ****             return;
 459              		.loc 1 768 13 view .LVU104
 460 018c 6D4A     		ldr	r2, .L75+20
 461 018e 05F15801 		add	r1, r5, #88
 462 0192 2046     		mov	r0, r4
 463 0194 FFF7FEFF 		bl	lv_obj_add_style
 464              	.LVL44:
 769:Lib/lvgl/src/themes/default/lv_theme_default.c ****         }
 465              		.loc 1 769 13 view .LVU105
 466 0198 9CE7     		b	.L5
 467              	.LVL45:
 468              	.L8:
 769:Lib/lvgl/src/themes/default/lv_theme_default.c ****         }
 469              		.loc 1 769 13 is_stmt 0 view .LVU106
 470              	.LBE55:
 785:Lib/lvgl/src/themes/default/lv_theme_default.c **** 
 471              		.loc 1 785 10 is_stmt 1 view .LVU107
 785:Lib/lvgl/src/themes/default/lv_theme_default.c **** 
 472              		.loc 1 785 13 is_stmt 0 view .LVU108
 473 019a 6B49     		ldr	r1, .L75+24
 474 019c 2046     		mov	r0, r4
 475 019e FFF7FEFF 		bl	lv_obj_check_type
 476              	.LVL46:
 785:Lib/lvgl/src/themes/default/lv_theme_default.c **** 
 477              		.loc 1 785 12 view .LVU109
 478 01a2 0028     		cmp	r0, #0
 479 01a4 00F0B780 		beq	.L15
 480              	.LBB56:
 788:Lib/lvgl/src/themes/default/lv_theme_default.c ****         if(parent && lv_obj_get_index(parent) == 0) { /*Tabview header*/
 481              		.loc 1 788 9 is_stmt 1 view .LVU110
 788:Lib/lvgl/src/themes/default/lv_theme_default.c ****         if(parent && lv_obj_get_index(parent) == 0) { /*Tabview header*/
 482              		.loc 1 788 29 is_stmt 0 view .LVU111
 483 01a8 2046     		mov	r0, r4
 484 01aa FFF7FEFF 		bl	lv_obj_get_parent
 485              	.LVL47:
 789:Lib/lvgl/src/themes/default/lv_theme_default.c ****             if(lv_obj_check_type(lv_obj_get_parent(parent), &lv_tabview_class)) {
 486              		.loc 1 789 9 is_stmt 1 view .LVU112
 789:Lib/lvgl/src/themes/default/lv_theme_default.c ****             if(lv_obj_check_type(lv_obj_get_parent(parent), &lv_tabview_class)) {
 487              		.loc 1 789 11 is_stmt 0 view .LVU113
 488 01ae 0646     		mov	r6, r0
 489 01b0 18B1     		cbz	r0, .L16
 789:Lib/lvgl/src/themes/default/lv_theme_default.c ****             if(lv_obj_check_type(lv_obj_get_parent(parent), &lv_tabview_class)) {
 490              		.loc 1 789 22 discriminator 1 view .LVU114
 491 01b2 FFF7FEFF 		bl	lv_obj_get_index
 492              	.LVL48:
 789:Lib/lvgl/src/themes/default/lv_theme_default.c ****             if(lv_obj_check_type(lv_obj_get_parent(parent), &lv_tabview_class)) {
ARM GAS  C:\Users\Alex\AppData\Local\Temp\ccR26jun.s 			page 37


 493              		.loc 1 789 19 discriminator 1 view .LVU115
 494 01b6 0028     		cmp	r0, #0
 495 01b8 7FD0     		beq	.L70
 496              	.L16:
 802:Lib/lvgl/src/themes/default/lv_theme_default.c ****         lv_obj_add_style(obj, &theme->styles.bg_color_primary, 0);
 497              		.loc 1 802 9 is_stmt 1 view .LVU116
 498 01ba 0022     		movs	r2, #0
 499 01bc 05F17001 		add	r1, r5, #112
 500 01c0 2046     		mov	r0, r4
 501 01c2 FFF7FEFF 		bl	lv_obj_add_style
 502              	.LVL49:
 803:Lib/lvgl/src/themes/default/lv_theme_default.c ****         lv_obj_add_style(obj, &theme->styles.transition_delayed, 0);
 503              		.loc 1 803 9 view .LVU117
 504 01c6 0022     		movs	r2, #0
 505 01c8 05F17C01 		add	r1, r5, #124
 506 01cc 2046     		mov	r0, r4
 507 01ce FFF7FEFF 		bl	lv_obj_add_style
 508              	.LVL50:
 804:Lib/lvgl/src/themes/default/lv_theme_default.c ****         lv_obj_add_style(obj, &theme->styles.pressed, LV_STATE_PRESSED);
 509              		.loc 1 804 9 view .LVU118
 510 01d2 0022     		movs	r2, #0
 511 01d4 05F5BC71 		add	r1, r5, #376
 512 01d8 2046     		mov	r0, r4
 513 01da FFF7FEFF 		bl	lv_obj_add_style
 514              	.LVL51:
 805:Lib/lvgl/src/themes/default/lv_theme_default.c ****         lv_obj_add_style(obj, &theme->styles.transition_normal, LV_STATE_PRESSED);
 515              		.loc 1 805 9 view .LVU119
 516 01de 2022     		movs	r2, #32
 517 01e0 05F1C401 		add	r1, r5, #196
 518 01e4 2046     		mov	r0, r4
 519 01e6 FFF7FEFF 		bl	lv_obj_add_style
 520              	.LVL52:
 806:Lib/lvgl/src/themes/default/lv_theme_default.c ****         lv_obj_add_style(obj, &theme->styles.outline_primary, LV_STATE_FOCUS_KEY);
 521              		.loc 1 806 9 view .LVU120
 522 01ea 2022     		movs	r2, #32
 523 01ec 05F5C271 		add	r1, r5, #388
 524 01f0 2046     		mov	r0, r4
 525 01f2 FFF7FEFF 		bl	lv_obj_add_style
 526              	.LVL53:
 807:Lib/lvgl/src/themes/default/lv_theme_default.c **** #if LV_THEME_DEFAULT_GROW
 527              		.loc 1 807 9 view .LVU121
 528 01f6 0422     		movs	r2, #4
 529 01f8 05F59871 		add	r1, r5, #304
 530 01fc 2046     		mov	r0, r4
 531 01fe FFF7FEFF 		bl	lv_obj_add_style
 532              	.LVL54:
 809:Lib/lvgl/src/themes/default/lv_theme_default.c **** #endif
 533              		.loc 1 809 9 view .LVU122
 534 0202 2022     		movs	r2, #32
 535 0204 05F5B671 		add	r1, r5, #364
 536 0208 2046     		mov	r0, r4
 537 020a FFF7FEFF 		bl	lv_obj_add_style
 538              	.LVL55:
 811:Lib/lvgl/src/themes/default/lv_theme_default.c ****         lv_obj_add_style(obj, &theme->styles.disabled, LV_STATE_DISABLED);
 539              		.loc 1 811 9 view .LVU123
 540 020e 0122     		movs	r2, #1
 541 0210 05F19401 		add	r1, r5, #148
ARM GAS  C:\Users\Alex\AppData\Local\Temp\ccR26jun.s 			page 38


 542 0214 2046     		mov	r0, r4
 543 0216 FFF7FEFF 		bl	lv_obj_add_style
 544              	.LVL56:
 812:Lib/lvgl/src/themes/default/lv_theme_default.c **** 
 545              		.loc 1 812 9 view .LVU124
 546 021a 8022     		movs	r2, #128
 547 021c 05F1D001 		add	r1, r5, #208
 548 0220 2046     		mov	r0, r4
 549 0222 FFF7FEFF 		bl	lv_obj_add_style
 550              	.LVL57:
 815:Lib/lvgl/src/themes/default/lv_theme_default.c ****            lv_obj_check_type(lv_obj_get_parent(obj), &lv_menu_main_header_cont_class)) {
 551              		.loc 1 815 9 view .LVU125
 815:Lib/lvgl/src/themes/default/lv_theme_default.c ****            lv_obj_check_type(lv_obj_get_parent(obj), &lv_menu_main_header_cont_class)) {
 552              		.loc 1 815 30 is_stmt 0 view .LVU126
 553 0226 2046     		mov	r0, r4
 554 0228 FFF7FEFF 		bl	lv_obj_get_parent
 555              	.LVL58:
 815:Lib/lvgl/src/themes/default/lv_theme_default.c ****            lv_obj_check_type(lv_obj_get_parent(obj), &lv_menu_main_header_cont_class)) {
 556              		.loc 1 815 12 view .LVU127
 557 022c 4749     		ldr	r1, .L75+28
 558 022e FFF7FEFF 		bl	lv_obj_check_type
 559              	.LVL59:
 815:Lib/lvgl/src/themes/default/lv_theme_default.c ****            lv_obj_check_type(lv_obj_get_parent(obj), &lv_menu_main_header_cont_class)) {
 560              		.loc 1 815 11 view .LVU128
 561 0232 30B9     		cbnz	r0, .L17
 816:Lib/lvgl/src/themes/default/lv_theme_default.c ****             lv_obj_add_style(obj, &theme->styles.menu_header_btn, 0);
 562              		.loc 1 816 30 discriminator 1 view .LVU129
 563 0234 2046     		mov	r0, r4
 564 0236 FFF7FEFF 		bl	lv_obj_get_parent
 565              	.LVL60:
 816:Lib/lvgl/src/themes/default/lv_theme_default.c ****             lv_obj_add_style(obj, &theme->styles.menu_header_btn, 0);
 566              		.loc 1 816 12 discriminator 1 view .LVU130
 567 023a 4549     		ldr	r1, .L75+32
 568 023c FFF7FEFF 		bl	lv_obj_check_type
 569              	.LVL61:
 815:Lib/lvgl/src/themes/default/lv_theme_default.c ****            lv_obj_check_type(lv_obj_get_parent(obj), &lv_menu_main_header_cont_class)) {
 570              		.loc 1 815 90 discriminator 1 view .LVU131
 571 0240 58B1     		cbz	r0, .L14
 572              	.L17:
 817:Lib/lvgl/src/themes/default/lv_theme_default.c ****             lv_obj_add_style(obj, &theme->styles.menu_pressed, LV_STATE_PRESSED);
 573              		.loc 1 817 13 is_stmt 1 view .LVU132
 574 0242 0022     		movs	r2, #0
 575 0244 05F52F71 		add	r1, r5, #700
 576 0248 2046     		mov	r0, r4
 577 024a FFF7FEFF 		bl	lv_obj_add_style
 578              	.LVL62:
 818:Lib/lvgl/src/themes/default/lv_theme_default.c ****         }
 579              		.loc 1 818 13 view .LVU133
 580 024e 2022     		movs	r2, #32
 581 0250 05F53571 		add	r1, r5, #724
 582 0254 2046     		mov	r0, r4
 583 0256 FFF7FEFF 		bl	lv_obj_add_style
 584              	.LVL63:
 585              	.L14:
 818:Lib/lvgl/src/themes/default/lv_theme_default.c ****         }
 586              		.loc 1 818 13 is_stmt 0 view .LVU134
 587              	.LBE56:
ARM GAS  C:\Users\Alex\AppData\Local\Temp\ccR26jun.s 			page 39


1149:Lib/lvgl/src/themes/default/lv_theme_default.c ****         lv_obj_add_style(obj, &theme->styles.pad_tiny, 0);
 588              		.loc 1 1149 5 is_stmt 1 view .LVU135
1149:Lib/lvgl/src/themes/default/lv_theme_default.c ****         lv_obj_add_style(obj, &theme->styles.pad_tiny, 0);
 589              		.loc 1 1149 26 is_stmt 0 view .LVU136
 590 025a 2046     		mov	r0, r4
 591 025c FFF7FEFF 		bl	lv_obj_get_parent
 592              	.LVL64:
1149:Lib/lvgl/src/themes/default/lv_theme_default.c ****         lv_obj_add_style(obj, &theme->styles.pad_tiny, 0);
 593              		.loc 1 1149 8 view .LVU137
 594 0260 3C49     		ldr	r1, .L75+36
 595 0262 FFF7FEFF 		bl	lv_obj_check_type
 596              	.LVL65:
1149:Lib/lvgl/src/themes/default/lv_theme_default.c ****         lv_obj_add_style(obj, &theme->styles.pad_tiny, 0);
 597              		.loc 1 1149 7 view .LVU138
 598 0266 0028     		cmp	r0, #0
 599 0268 40F04786 		bne	.L71
1157:Lib/lvgl/src/themes/default/lv_theme_default.c ****         lv_obj_add_style(obj, &theme->styles.card, 0);
 600              		.loc 1 1157 10 is_stmt 1 view .LVU139
1157:Lib/lvgl/src/themes/default/lv_theme_default.c ****         lv_obj_add_style(obj, &theme->styles.card, 0);
 601              		.loc 1 1157 13 is_stmt 0 view .LVU140
 602 026c 3A49     		ldr	r1, .L75+40
 603 026e 2046     		mov	r0, r4
 604 0270 FFF7FEFF 		bl	lv_obj_check_type
 605              	.LVL66:
1157:Lib/lvgl/src/themes/default/lv_theme_default.c ****         lv_obj_add_style(obj, &theme->styles.card, 0);
 606              		.loc 1 1157 12 view .LVU141
 607 0274 0028     		cmp	r0, #0
 608 0276 00F04886 		beq	.L57
1158:Lib/lvgl/src/themes/default/lv_theme_default.c ****         lv_obj_add_style(obj, &theme->styles.pad_small, 0);
 609              		.loc 1 1158 9 is_stmt 1 view .LVU142
 610 027a 0022     		movs	r2, #0
 611 027c 05F16401 		add	r1, r5, #100
 612 0280 2046     		mov	r0, r4
 613 0282 FFF7FEFF 		bl	lv_obj_add_style
 614              	.LVL67:
1159:Lib/lvgl/src/themes/default/lv_theme_default.c ****         lv_obj_add_style(obj, &theme->styles.outline_primary, LV_STATE_FOCUS_KEY);
 615              		.loc 1 1159 9 view .LVU143
 616 0286 0022     		movs	r2, #0
 617 0288 05F1F401 		add	r1, r5, #244
 618 028c 2046     		mov	r0, r4
 619 028e FFF7FEFF 		bl	lv_obj_add_style
 620              	.LVL68:
1160:Lib/lvgl/src/themes/default/lv_theme_default.c ****         lv_obj_add_style(obj, &theme->styles.outline_secondary, LV_STATE_EDITED);
 621              		.loc 1 1160 9 view .LVU144
 622 0292 0422     		movs	r2, #4
 623 0294 05F59871 		add	r1, r5, #304
 624 0298 2046     		mov	r0, r4
 625 029a FFF7FEFF 		bl	lv_obj_add_style
 626              	.LVL69:
1161:Lib/lvgl/src/themes/default/lv_theme_default.c ****         lv_obj_add_style(obj, &theme->styles.bg_color_primary, LV_PART_CURSOR);
 627              		.loc 1 1161 9 view .LVU145
 628 029e 0822     		movs	r2, #8
 629 02a0 05F59E71 		add	r1, r5, #316
 630 02a4 2046     		mov	r0, r4
 631 02a6 FFF7FEFF 		bl	lv_obj_add_style
 632              	.LVL70:
1162:Lib/lvgl/src/themes/default/lv_theme_default.c ****     }
ARM GAS  C:\Users\Alex\AppData\Local\Temp\ccR26jun.s 			page 40


 633              		.loc 1 1162 9 view .LVU146
 634 02aa 4FF4C022 		mov	r2, #393216
 635 02ae 05F17C01 		add	r1, r5, #124
 636 02b2 2046     		mov	r0, r4
 637 02b4 FFF7FEFF 		bl	lv_obj_add_style
 638              	.LVL71:
 639 02b8 0CE7     		b	.L5
 640              	.LVL72:
 641              	.L70:
 642              	.LBB57:
 790:Lib/lvgl/src/themes/default/lv_theme_default.c ****                 lv_obj_add_style(obj, &theme->styles.pressed, LV_STATE_PRESSED);
 643              		.loc 1 790 13 view .LVU147
 790:Lib/lvgl/src/themes/default/lv_theme_default.c ****                 lv_obj_add_style(obj, &theme->styles.pressed, LV_STATE_PRESSED);
 644              		.loc 1 790 34 is_stmt 0 view .LVU148
 645 02ba 3046     		mov	r0, r6
 646 02bc FFF7FEFF 		bl	lv_obj_get_parent
 647              	.LVL73:
 790:Lib/lvgl/src/themes/default/lv_theme_default.c ****                 lv_obj_add_style(obj, &theme->styles.pressed, LV_STATE_PRESSED);
 648              		.loc 1 790 16 view .LVU149
 649 02c0 1D49     		ldr	r1, .L75+8
 650 02c2 FFF7FEFF 		bl	lv_obj_check_type
 651              	.LVL74:
 790:Lib/lvgl/src/themes/default/lv_theme_default.c ****                 lv_obj_add_style(obj, &theme->styles.pressed, LV_STATE_PRESSED);
 652              		.loc 1 790 15 view .LVU150
 653 02c6 0028     		cmp	r0, #0
 654 02c8 3FF477AF 		beq	.L16
 791:Lib/lvgl/src/themes/default/lv_theme_default.c ****                 lv_obj_add_style(obj, &theme->styles.bg_color_primary_muted, LV_STATE_CHECKED);
 655              		.loc 1 791 17 is_stmt 1 view .LVU151
 656 02cc 2022     		movs	r2, #32
 657 02ce 05F1C401 		add	r1, r5, #196
 658 02d2 2046     		mov	r0, r4
 659 02d4 FFF7FEFF 		bl	lv_obj_add_style
 660              	.LVL75:
 792:Lib/lvgl/src/themes/default/lv_theme_default.c ****                 lv_obj_add_style(obj, &theme->styles.tab_btn, LV_STATE_CHECKED);
 661              		.loc 1 792 17 view .LVU152
 662 02d8 0122     		movs	r2, #1
 663 02da 05F18801 		add	r1, r5, #136
 664 02de 2046     		mov	r0, r4
 665 02e0 FFF7FEFF 		bl	lv_obj_add_style
 666              	.LVL76:
 793:Lib/lvgl/src/themes/default/lv_theme_default.c ****                 lv_obj_add_style(obj, &theme->styles.outline_primary, LV_STATE_FOCUS_KEY);
 667              		.loc 1 793 17 view .LVU153
 668 02e4 0122     		movs	r2, #1
 669 02e6 05F54D71 		add	r1, r5, #820
 670 02ea 2046     		mov	r0, r4
 671 02ec FFF7FEFF 		bl	lv_obj_add_style
 672              	.LVL77:
 794:Lib/lvgl/src/themes/default/lv_theme_default.c ****                 lv_obj_add_style(obj, &theme->styles.outline_secondary, LV_STATE_EDITED);
 673              		.loc 1 794 17 view .LVU154
 674 02f0 0422     		movs	r2, #4
 675 02f2 05F59871 		add	r1, r5, #304
 676 02f6 2046     		mov	r0, r4
 677 02f8 FFF7FEFF 		bl	lv_obj_add_style
 678              	.LVL78:
 795:Lib/lvgl/src/themes/default/lv_theme_default.c ****                 lv_obj_add_style(obj, &theme->styles.tab_bg_focus, LV_STATE_FOCUS_KEY);
 679              		.loc 1 795 17 view .LVU155
 680 02fc 0822     		movs	r2, #8
ARM GAS  C:\Users\Alex\AppData\Local\Temp\ccR26jun.s 			page 41


 681 02fe 05F59E71 		add	r1, r5, #316
 682 0302 2046     		mov	r0, r4
 683 0304 FFF7FEFF 		bl	lv_obj_add_style
 684              	.LVL79:
 796:Lib/lvgl/src/themes/default/lv_theme_default.c ****                 return;
 685              		.loc 1 796 17 view .LVU156
 686 0308 0422     		movs	r2, #4
 687 030a 05F54A71 		add	r1, r5, #808
 688 030e 2046     		mov	r0, r4
 689 0310 FFF7FEFF 		bl	lv_obj_add_style
 690              	.LVL80:
 797:Lib/lvgl/src/themes/default/lv_theme_default.c ****             }
 691              		.loc 1 797 17 view .LVU157
 692 0314 DEE6     		b	.L5
 693              	.LVL81:
 694              	.L15:
 797:Lib/lvgl/src/themes/default/lv_theme_default.c ****             }
 695              		.loc 1 797 17 is_stmt 0 view .LVU158
 696              	.LBE57:
 825:Lib/lvgl/src/themes/default/lv_theme_default.c ****         lv_obj_add_style(obj, &theme->styles.line, 0);
 697              		.loc 1 825 10 is_stmt 1 view .LVU159
 825:Lib/lvgl/src/themes/default/lv_theme_default.c ****         lv_obj_add_style(obj, &theme->styles.line, 0);
 698              		.loc 1 825 13 is_stmt 0 view .LVU160
 699 0316 1149     		ldr	r1, .L75+44
 700 0318 2046     		mov	r0, r4
 701 031a FFF7FEFF 		bl	lv_obj_check_type
 702              	.LVL82:
 825:Lib/lvgl/src/themes/default/lv_theme_default.c ****         lv_obj_add_style(obj, &theme->styles.line, 0);
 703              		.loc 1 825 12 view .LVU161
 704 031e F8B1     		cbz	r0, .L18
 826:Lib/lvgl/src/themes/default/lv_theme_default.c ****     }
 705              		.loc 1 826 9 is_stmt 1 view .LVU162
 706 0320 0022     		movs	r2, #0
 707 0322 05F50871 		add	r1, r5, #544
 708 0326 2046     		mov	r0, r4
 709 0328 FFF7FEFF 		bl	lv_obj_add_style
 710              	.LVL83:
 711 032c 95E7     		b	.L14
 712              	.L76:
 713 032e 00BF     		.align	2
 714              	.L75:
 715 0330 00000000 		.word	lv_global
 716 0334 00000000 		.word	lv_obj_class
 717 0338 00000000 		.word	lv_tabview_class
 718 033c 00000000 		.word	lv_win_class
 719 0340 00000000 		.word	lv_calendar_class
 720 0344 40000100 		.word	65600
 721 0348 00000000 		.word	lv_button_class
 722 034c 00000000 		.word	lv_menu_sidebar_header_cont_class
 723 0350 00000000 		.word	lv_menu_main_header_cont_class
 724 0354 00000000 		.word	lv_msgbox_class
 725 0358 00000000 		.word	lv_spinbox_class
 726 035c 00000000 		.word	lv_line_class
 727              	.L18:
 831:Lib/lvgl/src/themes/default/lv_theme_default.c **** 
 728              		.loc 1 831 10 view .LVU163
 831:Lib/lvgl/src/themes/default/lv_theme_default.c **** 
ARM GAS  C:\Users\Alex\AppData\Local\Temp\ccR26jun.s 			page 42


 729              		.loc 1 831 13 is_stmt 0 view .LVU164
 730 0360 C549     		ldr	r1, .L77
 731 0362 2046     		mov	r0, r4
 732 0364 FFF7FEFF 		bl	lv_obj_check_type
 733              	.LVL84:
 831:Lib/lvgl/src/themes/default/lv_theme_default.c **** 
 734              		.loc 1 831 12 view .LVU165
 735 0368 0028     		cmp	r0, #0
 736 036a 70D0     		beq	.L19
 834:Lib/lvgl/src/themes/default/lv_theme_default.c ****             lv_obj_add_style(obj, &theme->styles.calendar_btnm_bg, 0);
 737              		.loc 1 834 9 is_stmt 1 view .LVU166
 834:Lib/lvgl/src/themes/default/lv_theme_default.c ****             lv_obj_add_style(obj, &theme->styles.calendar_btnm_bg, 0);
 738              		.loc 1 834 30 is_stmt 0 view .LVU167
 739 036c 2046     		mov	r0, r4
 740 036e FFF7FEFF 		bl	lv_obj_get_parent
 741              	.LVL85:
 834:Lib/lvgl/src/themes/default/lv_theme_default.c ****             lv_obj_add_style(obj, &theme->styles.calendar_btnm_bg, 0);
 742              		.loc 1 834 12 view .LVU168
 743 0372 C249     		ldr	r1, .L77+4
 744 0374 FFF7FEFF 		bl	lv_obj_check_type
 745              	.LVL86:
 834:Lib/lvgl/src/themes/default/lv_theme_default.c ****             lv_obj_add_style(obj, &theme->styles.calendar_btnm_bg, 0);
 746              		.loc 1 834 11 view .LVU169
 747 0378 B8BB     		cbnz	r0, .L72
 846:Lib/lvgl/src/themes/default/lv_theme_default.c ****         lv_obj_add_style(obj, &theme->styles.outline_primary, LV_STATE_FOCUS_KEY);
 748              		.loc 1 846 9 is_stmt 1 view .LVU170
 749 037a 0022     		movs	r2, #0
 750 037c 05F16401 		add	r1, r5, #100
 751 0380 2046     		mov	r0, r4
 752 0382 FFF7FEFF 		bl	lv_obj_add_style
 753              	.LVL87:
 847:Lib/lvgl/src/themes/default/lv_theme_default.c ****         lv_obj_add_style(obj, &theme->styles.outline_secondary, LV_STATE_EDITED);
 754              		.loc 1 847 9 view .LVU171
 847:Lib/lvgl/src/themes/default/lv_theme_default.c ****         lv_obj_add_style(obj, &theme->styles.outline_secondary, LV_STATE_EDITED);
 755              		.loc 1 847 31 is_stmt 0 view .LVU172
 756 0386 05F59877 		add	r7, r5, #304
 847:Lib/lvgl/src/themes/default/lv_theme_default.c ****         lv_obj_add_style(obj, &theme->styles.outline_secondary, LV_STATE_EDITED);
 757              		.loc 1 847 9 view .LVU173
 758 038a 0422     		movs	r2, #4
 759 038c 3946     		mov	r1, r7
 760 038e 2046     		mov	r0, r4
 761 0390 FFF7FEFF 		bl	lv_obj_add_style
 762              	.LVL88:
 848:Lib/lvgl/src/themes/default/lv_theme_default.c ****         lv_obj_add_style(obj, &theme->styles.btn, LV_PART_ITEMS);
 763              		.loc 1 848 9 is_stmt 1 view .LVU174
 848:Lib/lvgl/src/themes/default/lv_theme_default.c ****         lv_obj_add_style(obj, &theme->styles.btn, LV_PART_ITEMS);
 764              		.loc 1 848 31 is_stmt 0 view .LVU175
 765 0394 05F59E76 		add	r6, r5, #316
 848:Lib/lvgl/src/themes/default/lv_theme_default.c ****         lv_obj_add_style(obj, &theme->styles.btn, LV_PART_ITEMS);
 766              		.loc 1 848 9 view .LVU176
 767 0398 0822     		movs	r2, #8
 768 039a 3146     		mov	r1, r6
 769 039c 2046     		mov	r0, r4
 770 039e FFF7FEFF 		bl	lv_obj_add_style
 771              	.LVL89:
 849:Lib/lvgl/src/themes/default/lv_theme_default.c ****         lv_obj_add_style(obj, &theme->styles.disabled, LV_PART_ITEMS | LV_STATE_DISABLED);
 772              		.loc 1 849 9 is_stmt 1 view .LVU177
ARM GAS  C:\Users\Alex\AppData\Local\Temp\ccR26jun.s 			page 43


 773 03a2 4FF4A022 		mov	r2, #327680
 774 03a6 05F17001 		add	r1, r5, #112
 775 03aa 2046     		mov	r0, r4
 776 03ac FFF7FEFF 		bl	lv_obj_add_style
 777              	.LVL90:
 850:Lib/lvgl/src/themes/default/lv_theme_default.c ****         lv_obj_add_style(obj, &theme->styles.pressed, LV_PART_ITEMS | LV_STATE_PRESSED);
 778              		.loc 1 850 9 view .LVU178
 779 03b0 B34A     		ldr	r2, .L77+8
 780 03b2 05F1D001 		add	r1, r5, #208
 781 03b6 2046     		mov	r0, r4
 782 03b8 FFF7FEFF 		bl	lv_obj_add_style
 783              	.LVL91:
 851:Lib/lvgl/src/themes/default/lv_theme_default.c ****         lv_obj_add_style(obj, &theme->styles.bg_color_primary, LV_PART_ITEMS | LV_STATE_CHECKED);
 784              		.loc 1 851 9 view .LVU179
 785 03bc B14A     		ldr	r2, .L77+12
 786 03be 05F1C401 		add	r1, r5, #196
 787 03c2 2046     		mov	r0, r4
 788 03c4 FFF7FEFF 		bl	lv_obj_add_style
 789              	.LVL92:
 852:Lib/lvgl/src/themes/default/lv_theme_default.c ****         lv_obj_add_style(obj, &theme->styles.outline_primary, LV_PART_ITEMS | LV_STATE_FOCUS_KEY);
 790              		.loc 1 852 9 view .LVU180
 791 03c8 AF4A     		ldr	r2, .L77+16
 792 03ca 05F17C01 		add	r1, r5, #124
 793 03ce 2046     		mov	r0, r4
 794 03d0 FFF7FEFF 		bl	lv_obj_add_style
 795              	.LVL93:
 853:Lib/lvgl/src/themes/default/lv_theme_default.c ****         lv_obj_add_style(obj, &theme->styles.outline_secondary, LV_PART_ITEMS | LV_STATE_EDITED);
 796              		.loc 1 853 9 view .LVU181
 797 03d4 AD4A     		ldr	r2, .L77+20
 798 03d6 3946     		mov	r1, r7
 799 03d8 2046     		mov	r0, r4
 800 03da FFF7FEFF 		bl	lv_obj_add_style
 801              	.LVL94:
 854:Lib/lvgl/src/themes/default/lv_theme_default.c ****     }
 802              		.loc 1 854 9 view .LVU182
 803 03de AC4A     		ldr	r2, .L77+24
 804 03e0 3146     		mov	r1, r6
 805 03e2 2046     		mov	r0, r4
 806 03e4 FFF7FEFF 		bl	lv_obj_add_style
 807              	.LVL95:
 808 03e8 37E7     		b	.L14
 809              	.L72:
 835:Lib/lvgl/src/themes/default/lv_theme_default.c ****             lv_obj_add_style(obj, &theme->styles.outline_primary, LV_STATE_FOCUS_KEY);
 810              		.loc 1 835 13 view .LVU183
 811 03ea 0022     		movs	r2, #0
 812 03ec 05F51471 		add	r1, r5, #592
 813 03f0 2046     		mov	r0, r4
 814 03f2 FFF7FEFF 		bl	lv_obj_add_style
 815              	.LVL96:
 836:Lib/lvgl/src/themes/default/lv_theme_default.c ****             lv_obj_add_style(obj, &theme->styles.outline_secondary, LV_STATE_EDITED);
 816              		.loc 1 836 13 view .LVU184
 836:Lib/lvgl/src/themes/default/lv_theme_default.c ****             lv_obj_add_style(obj, &theme->styles.outline_secondary, LV_STATE_EDITED);
 817              		.loc 1 836 35 is_stmt 0 view .LVU185
 818 03f6 05F59877 		add	r7, r5, #304
 836:Lib/lvgl/src/themes/default/lv_theme_default.c ****             lv_obj_add_style(obj, &theme->styles.outline_secondary, LV_STATE_EDITED);
 819              		.loc 1 836 13 view .LVU186
 820 03fa 0422     		movs	r2, #4
ARM GAS  C:\Users\Alex\AppData\Local\Temp\ccR26jun.s 			page 44


 821 03fc 3946     		mov	r1, r7
 822 03fe 2046     		mov	r0, r4
 823 0400 FFF7FEFF 		bl	lv_obj_add_style
 824              	.LVL97:
 837:Lib/lvgl/src/themes/default/lv_theme_default.c ****             lv_obj_add_style(obj, &theme->styles.calendar_btnm_day, LV_PART_ITEMS);
 825              		.loc 1 837 13 is_stmt 1 view .LVU187
 837:Lib/lvgl/src/themes/default/lv_theme_default.c ****             lv_obj_add_style(obj, &theme->styles.calendar_btnm_day, LV_PART_ITEMS);
 826              		.loc 1 837 35 is_stmt 0 view .LVU188
 827 0404 05F59E76 		add	r6, r5, #316
 837:Lib/lvgl/src/themes/default/lv_theme_default.c ****             lv_obj_add_style(obj, &theme->styles.calendar_btnm_day, LV_PART_ITEMS);
 828              		.loc 1 837 13 view .LVU189
 829 0408 0822     		movs	r2, #8
 830 040a 3146     		mov	r1, r6
 831 040c 2046     		mov	r0, r4
 832 040e FFF7FEFF 		bl	lv_obj_add_style
 833              	.LVL98:
 838:Lib/lvgl/src/themes/default/lv_theme_default.c ****             lv_obj_add_style(obj, &theme->styles.pressed, LV_PART_ITEMS | LV_STATE_PRESSED);
 834              		.loc 1 838 13 is_stmt 1 view .LVU190
 835 0412 4FF4A022 		mov	r2, #327680
 836 0416 05F51771 		add	r1, r5, #604
 837 041a 2046     		mov	r0, r4
 838 041c FFF7FEFF 		bl	lv_obj_add_style
 839              	.LVL99:
 839:Lib/lvgl/src/themes/default/lv_theme_default.c ****             lv_obj_add_style(obj, &theme->styles.disabled, LV_PART_ITEMS | LV_STATE_DISABLED);
 840              		.loc 1 839 13 view .LVU191
 841 0420 984A     		ldr	r2, .L77+12
 842 0422 05F1C401 		add	r1, r5, #196
 843 0426 2046     		mov	r0, r4
 844 0428 FFF7FEFF 		bl	lv_obj_add_style
 845              	.LVL100:
 840:Lib/lvgl/src/themes/default/lv_theme_default.c ****             lv_obj_add_style(obj, &theme->styles.outline_primary, LV_PART_ITEMS | LV_STATE_FOCUS_KE
 846              		.loc 1 840 13 view .LVU192
 847 042c 944A     		ldr	r2, .L77+8
 848 042e 05F1D001 		add	r1, r5, #208
 849 0432 2046     		mov	r0, r4
 850 0434 FFF7FEFF 		bl	lv_obj_add_style
 851              	.LVL101:
 841:Lib/lvgl/src/themes/default/lv_theme_default.c ****             lv_obj_add_style(obj, &theme->styles.outline_secondary, LV_PART_ITEMS | LV_STATE_EDITED
 852              		.loc 1 841 13 view .LVU193
 853 0438 944A     		ldr	r2, .L77+20
 854 043a 3946     		mov	r1, r7
 855 043c 2046     		mov	r0, r4
 856 043e FFF7FEFF 		bl	lv_obj_add_style
 857              	.LVL102:
 842:Lib/lvgl/src/themes/default/lv_theme_default.c ****             return;
 858              		.loc 1 842 13 view .LVU194
 859 0442 934A     		ldr	r2, .L77+24
 860 0444 3146     		mov	r1, r6
 861 0446 2046     		mov	r0, r4
 862 0448 FFF7FEFF 		bl	lv_obj_add_style
 863              	.LVL103:
 843:Lib/lvgl/src/themes/default/lv_theme_default.c ****         }
 864              		.loc 1 843 13 view .LVU195
 865 044c 42E6     		b	.L5
 866              	.L19:
 859:Lib/lvgl/src/themes/default/lv_theme_default.c ****         lv_obj_add_style(obj, &theme->styles.bg_color_primary_muted, 0);
 867              		.loc 1 859 10 view .LVU196
ARM GAS  C:\Users\Alex\AppData\Local\Temp\ccR26jun.s 			page 45


 859:Lib/lvgl/src/themes/default/lv_theme_default.c ****         lv_obj_add_style(obj, &theme->styles.bg_color_primary_muted, 0);
 868              		.loc 1 859 13 is_stmt 0 view .LVU197
 869 044e 9149     		ldr	r1, .L77+28
 870 0450 2046     		mov	r0, r4
 871 0452 FFF7FEFF 		bl	lv_obj_check_type
 872              	.LVL104:
 859:Lib/lvgl/src/themes/default/lv_theme_default.c ****         lv_obj_add_style(obj, &theme->styles.bg_color_primary_muted, 0);
 873              		.loc 1 859 12 view .LVU198
 874 0456 30B3     		cbz	r0, .L21
 860:Lib/lvgl/src/themes/default/lv_theme_default.c ****         lv_obj_add_style(obj, &theme->styles.circle, 0);
 875              		.loc 1 860 9 is_stmt 1 view .LVU199
 876 0458 0022     		movs	r2, #0
 877 045a 05F18801 		add	r1, r5, #136
 878 045e 2046     		mov	r0, r4
 879 0460 FFF7FEFF 		bl	lv_obj_add_style
 880              	.LVL105:
 861:Lib/lvgl/src/themes/default/lv_theme_default.c ****         lv_obj_add_style(obj, &theme->styles.outline_primary, LV_STATE_FOCUS_KEY);
 881              		.loc 1 861 9 view .LVU200
 861:Lib/lvgl/src/themes/default/lv_theme_default.c ****         lv_obj_add_style(obj, &theme->styles.outline_primary, LV_STATE_FOCUS_KEY);
 882              		.loc 1 861 31 is_stmt 0 view .LVU201
 883 0464 05F5A476 		add	r6, r5, #328
 861:Lib/lvgl/src/themes/default/lv_theme_default.c ****         lv_obj_add_style(obj, &theme->styles.outline_primary, LV_STATE_FOCUS_KEY);
 884              		.loc 1 861 9 view .LVU202
 885 0468 0022     		movs	r2, #0
 886 046a 3146     		mov	r1, r6
 887 046c 2046     		mov	r0, r4
 888 046e FFF7FEFF 		bl	lv_obj_add_style
 889              	.LVL106:
 862:Lib/lvgl/src/themes/default/lv_theme_default.c ****         lv_obj_add_style(obj, &theme->styles.outline_secondary, LV_STATE_EDITED);
 890              		.loc 1 862 9 is_stmt 1 view .LVU203
 891 0472 0422     		movs	r2, #4
 892 0474 05F59871 		add	r1, r5, #304
 893 0478 2046     		mov	r0, r4
 894 047a FFF7FEFF 		bl	lv_obj_add_style
 895              	.LVL107:
 863:Lib/lvgl/src/themes/default/lv_theme_default.c ****         lv_obj_add_style(obj, &theme->styles.bg_color_primary, LV_PART_INDICATOR);
 896              		.loc 1 863 9 view .LVU204
 897 047e 0822     		movs	r2, #8
 898 0480 05F59E71 		add	r1, r5, #316
 899 0484 2046     		mov	r0, r4
 900 0486 FFF7FEFF 		bl	lv_obj_add_style
 901              	.LVL108:
 864:Lib/lvgl/src/themes/default/lv_theme_default.c ****         lv_obj_add_style(obj, &theme->styles.circle, LV_PART_INDICATOR);
 902              		.loc 1 864 9 view .LVU205
 903 048a 4FF40032 		mov	r2, #131072
 904 048e 05F17C01 		add	r1, r5, #124
 905 0492 2046     		mov	r0, r4
 906 0494 FFF7FEFF 		bl	lv_obj_add_style
 907              	.LVL109:
 865:Lib/lvgl/src/themes/default/lv_theme_default.c ****     }
 908              		.loc 1 865 9 view .LVU206
 909 0498 4FF40032 		mov	r2, #131072
 910 049c 3146     		mov	r1, r6
 911 049e 2046     		mov	r0, r4
 912 04a0 FFF7FEFF 		bl	lv_obj_add_style
 913              	.LVL110:
 914 04a4 D9E6     		b	.L14
ARM GAS  C:\Users\Alex\AppData\Local\Temp\ccR26jun.s 			page 46


 915              	.L21:
 870:Lib/lvgl/src/themes/default/lv_theme_default.c ****         lv_obj_add_style(obj, &theme->styles.bg_color_primary_muted, 0);
 916              		.loc 1 870 10 view .LVU207
 870:Lib/lvgl/src/themes/default/lv_theme_default.c ****         lv_obj_add_style(obj, &theme->styles.bg_color_primary_muted, 0);
 917              		.loc 1 870 13 is_stmt 0 view .LVU208
 918 04a6 7C49     		ldr	r1, .L77+32
 919 04a8 2046     		mov	r0, r4
 920 04aa FFF7FEFF 		bl	lv_obj_check_type
 921              	.LVL111:
 870:Lib/lvgl/src/themes/default/lv_theme_default.c ****         lv_obj_add_style(obj, &theme->styles.bg_color_primary_muted, 0);
 922              		.loc 1 870 12 view .LVU209
 923 04ae 0028     		cmp	r0, #0
 924 04b0 41D0     		beq	.L22
 871:Lib/lvgl/src/themes/default/lv_theme_default.c ****         lv_obj_add_style(obj, &theme->styles.circle, 0);
 925              		.loc 1 871 9 is_stmt 1 view .LVU210
 926 04b2 0022     		movs	r2, #0
 927 04b4 05F18801 		add	r1, r5, #136
 928 04b8 2046     		mov	r0, r4
 929 04ba FFF7FEFF 		bl	lv_obj_add_style
 930              	.LVL112:
 872:Lib/lvgl/src/themes/default/lv_theme_default.c ****         lv_obj_add_style(obj, &theme->styles.outline_primary, LV_STATE_FOCUS_KEY);
 931              		.loc 1 872 9 view .LVU211
 872:Lib/lvgl/src/themes/default/lv_theme_default.c ****         lv_obj_add_style(obj, &theme->styles.outline_primary, LV_STATE_FOCUS_KEY);
 932              		.loc 1 872 31 is_stmt 0 view .LVU212
 933 04be 05F5A476 		add	r6, r5, #328
 872:Lib/lvgl/src/themes/default/lv_theme_default.c ****         lv_obj_add_style(obj, &theme->styles.outline_primary, LV_STATE_FOCUS_KEY);
 934              		.loc 1 872 9 view .LVU213
 935 04c2 0022     		movs	r2, #0
 936 04c4 3146     		mov	r1, r6
 937 04c6 2046     		mov	r0, r4
 938 04c8 FFF7FEFF 		bl	lv_obj_add_style
 939              	.LVL113:
 873:Lib/lvgl/src/themes/default/lv_theme_default.c ****         lv_obj_add_style(obj, &theme->styles.outline_secondary, LV_STATE_EDITED);
 940              		.loc 1 873 9 is_stmt 1 view .LVU214
 941 04cc 0422     		movs	r2, #4
 942 04ce 05F59871 		add	r1, r5, #304
 943 04d2 2046     		mov	r0, r4
 944 04d4 FFF7FEFF 		bl	lv_obj_add_style
 945              	.LVL114:
 874:Lib/lvgl/src/themes/default/lv_theme_default.c ****         lv_obj_add_style(obj, &theme->styles.bg_color_primary, LV_PART_INDICATOR);
 946              		.loc 1 874 9 view .LVU215
 947 04d8 0822     		movs	r2, #8
 948 04da 05F59E71 		add	r1, r5, #316
 949 04de 2046     		mov	r0, r4
 950 04e0 FFF7FEFF 		bl	lv_obj_add_style
 951              	.LVL115:
 875:Lib/lvgl/src/themes/default/lv_theme_default.c ****         lv_obj_add_style(obj, &theme->styles.circle, LV_PART_INDICATOR);
 952              		.loc 1 875 9 view .LVU216
 953 04e4 4FF40032 		mov	r2, #131072
 954 04e8 05F17C01 		add	r1, r5, #124
 955 04ec 2046     		mov	r0, r4
 956 04ee FFF7FEFF 		bl	lv_obj_add_style
 957              	.LVL116:
 876:Lib/lvgl/src/themes/default/lv_theme_default.c ****         lv_obj_add_style(obj, &theme->styles.knob, LV_PART_KNOB);
 958              		.loc 1 876 9 view .LVU217
 959 04f2 4FF40032 		mov	r2, #131072
 960 04f6 3146     		mov	r1, r6
ARM GAS  C:\Users\Alex\AppData\Local\Temp\ccR26jun.s 			page 47


 961 04f8 2046     		mov	r0, r4
 962 04fa FFF7FEFF 		bl	lv_obj_add_style
 963              	.LVL117:
 877:Lib/lvgl/src/themes/default/lv_theme_default.c **** #if LV_THEME_DEFAULT_GROW
 964              		.loc 1 877 9 view .LVU218
 965 04fe 4FF44032 		mov	r2, #196608
 966 0502 05F5D471 		add	r1, r5, #424
 967 0506 2046     		mov	r0, r4
 968 0508 FFF7FEFF 		bl	lv_obj_add_style
 969              	.LVL118:
 879:Lib/lvgl/src/themes/default/lv_theme_default.c **** #endif
 970              		.loc 1 879 9 view .LVU219
 971 050c 634E     		ldr	r6, .L77+36
 972 050e 3246     		mov	r2, r6
 973 0510 05F5B671 		add	r1, r5, #364
 974 0514 2046     		mov	r0, r4
 975 0516 FFF7FEFF 		bl	lv_obj_add_style
 976              	.LVL119:
 881:Lib/lvgl/src/themes/default/lv_theme_default.c ****         lv_obj_add_style(obj, &theme->styles.transition_normal, LV_PART_KNOB | LV_STATE_PRESSED);
 977              		.loc 1 881 9 view .LVU220
 978 051a 4FF44032 		mov	r2, #196608
 979 051e 05F5BC71 		add	r1, r5, #376
 980 0522 2046     		mov	r0, r4
 981 0524 FFF7FEFF 		bl	lv_obj_add_style
 982              	.LVL120:
 882:Lib/lvgl/src/themes/default/lv_theme_default.c ****     }
 983              		.loc 1 882 9 view .LVU221
 984 0528 3246     		mov	r2, r6
 985 052a 05F5C271 		add	r1, r5, #388
 986 052e 2046     		mov	r0, r4
 987 0530 FFF7FEFF 		bl	lv_obj_add_style
 988              	.LVL121:
 989 0534 91E6     		b	.L14
 990              	.L22:
 887:Lib/lvgl/src/themes/default/lv_theme_default.c ****         lv_obj_add_style(obj, &theme->styles.card, 0);
 991              		.loc 1 887 10 view .LVU222
 887:Lib/lvgl/src/themes/default/lv_theme_default.c ****         lv_obj_add_style(obj, &theme->styles.card, 0);
 992              		.loc 1 887 13 is_stmt 0 view .LVU223
 993 0536 5A49     		ldr	r1, .L77+40
 994 0538 2046     		mov	r0, r4
 995 053a FFF7FEFF 		bl	lv_obj_check_type
 996              	.LVL122:
 887:Lib/lvgl/src/themes/default/lv_theme_default.c ****         lv_obj_add_style(obj, &theme->styles.card, 0);
 997              		.loc 1 887 12 view .LVU224
 998 053e 0028     		cmp	r0, #0
 999 0540 52D0     		beq	.L23
 888:Lib/lvgl/src/themes/default/lv_theme_default.c ****         lv_obj_add_style(obj, &theme->styles.pad_zero, 0);
 1000              		.loc 1 888 9 is_stmt 1 view .LVU225
 1001 0542 0022     		movs	r2, #0
 1002 0544 05F16401 		add	r1, r5, #100
 1003 0548 2046     		mov	r0, r4
 1004 054a FFF7FEFF 		bl	lv_obj_add_style
 1005              	.LVL123:
 889:Lib/lvgl/src/themes/default/lv_theme_default.c ****         lv_obj_add_style(obj, &theme->styles.no_radius, 0);
 1006              		.loc 1 889 9 view .LVU226
 1007 054e 0022     		movs	r2, #0
 1008 0550 05F1DC01 		add	r1, r5, #220
ARM GAS  C:\Users\Alex\AppData\Local\Temp\ccR26jun.s 			page 48


 1009 0554 2046     		mov	r0, r4
 1010 0556 FFF7FEFF 		bl	lv_obj_add_style
 1011              	.LVL124:
 890:Lib/lvgl/src/themes/default/lv_theme_default.c ****         lv_obj_add_style(obj, &theme->styles.outline_primary, LV_STATE_FOCUS_KEY);
 1012              		.loc 1 890 9 view .LVU227
 1013 055a 0022     		movs	r2, #0
 1014 055c 05F5AA71 		add	r1, r5, #340
 1015 0560 2046     		mov	r0, r4
 1016 0562 FFF7FEFF 		bl	lv_obj_add_style
 1017              	.LVL125:
 891:Lib/lvgl/src/themes/default/lv_theme_default.c ****         lv_obj_add_style(obj, &theme->styles.outline_secondary, LV_STATE_EDITED);
 1018              		.loc 1 891 9 view .LVU228
 1019 0566 0422     		movs	r2, #4
 1020 0568 05F59871 		add	r1, r5, #304
 1021 056c 2046     		mov	r0, r4
 1022 056e FFF7FEFF 		bl	lv_obj_add_style
 1023              	.LVL126:
 892:Lib/lvgl/src/themes/default/lv_theme_default.c ****         lv_obj_add_style(obj, &theme->styles.scrollbar, LV_PART_SCROLLBAR);
 1024              		.loc 1 892 9 view .LVU229
 1025 0572 0822     		movs	r2, #8
 1026 0574 05F59E71 		add	r1, r5, #316
 1027 0578 2046     		mov	r0, r4
 1028 057a FFF7FEFF 		bl	lv_obj_add_style
 1029              	.LVL127:
 893:Lib/lvgl/src/themes/default/lv_theme_default.c ****         lv_obj_add_style(obj, &theme->styles.scrollbar_scrolled, LV_PART_SCROLLBAR | LV_STATE_SCROL
 1030              		.loc 1 893 9 view .LVU230
 1031 057e 4FF48032 		mov	r2, #65536
 1032 0582 05F14C01 		add	r1, r5, #76
 1033 0586 2046     		mov	r0, r4
 1034 0588 FFF7FEFF 		bl	lv_obj_add_style
 1035              	.LVL128:
 894:Lib/lvgl/src/themes/default/lv_theme_default.c ****         lv_obj_add_style(obj, &theme->styles.bg_color_white, LV_PART_ITEMS);
 1036              		.loc 1 894 9 view .LVU231
 1037 058c 454A     		ldr	r2, .L77+44
 1038 058e 05F15801 		add	r1, r5, #88
 1039 0592 2046     		mov	r0, r4
 1040 0594 FFF7FEFF 		bl	lv_obj_add_style
 1041              	.LVL129:
 895:Lib/lvgl/src/themes/default/lv_theme_default.c ****         lv_obj_add_style(obj, &theme->styles.table_cell, LV_PART_ITEMS);
 1042              		.loc 1 895 9 view .LVU232
 1043 0598 4FF4A022 		mov	r2, #327680
 1044 059c 05F1B801 		add	r1, r5, #184
 1045 05a0 2046     		mov	r0, r4
 1046 05a2 FFF7FEFF 		bl	lv_obj_add_style
 1047              	.LVL130:
 896:Lib/lvgl/src/themes/default/lv_theme_default.c ****         lv_obj_add_style(obj, &theme->styles.pad_normal, LV_PART_ITEMS);
 1048              		.loc 1 896 9 view .LVU233
 1049 05a6 4FF4A022 		mov	r2, #327680
 1050 05aa 05F50B71 		add	r1, r5, #556
 1051 05ae 2046     		mov	r0, r4
 1052 05b0 FFF7FEFF 		bl	lv_obj_add_style
 1053              	.LVL131:
 897:Lib/lvgl/src/themes/default/lv_theme_default.c ****         lv_obj_add_style(obj, &theme->styles.pressed, LV_PART_ITEMS | LV_STATE_PRESSED);
 1054              		.loc 1 897 9 view .LVU234
 1055 05b4 4FF4A022 		mov	r2, #327680
 1056 05b8 05F58071 		add	r1, r5, #256
 1057 05bc 2046     		mov	r0, r4
ARM GAS  C:\Users\Alex\AppData\Local\Temp\ccR26jun.s 			page 49


 1058 05be FFF7FEFF 		bl	lv_obj_add_style
 1059              	.LVL132:
 898:Lib/lvgl/src/themes/default/lv_theme_default.c ****         lv_obj_add_style(obj, &theme->styles.bg_color_primary, LV_PART_ITEMS | LV_STATE_FOCUS_KEY);
 1060              		.loc 1 898 9 view .LVU235
 1061 05c2 304A     		ldr	r2, .L77+12
 1062 05c4 05F1C401 		add	r1, r5, #196
 1063 05c8 2046     		mov	r0, r4
 1064 05ca FFF7FEFF 		bl	lv_obj_add_style
 1065              	.LVL133:
 899:Lib/lvgl/src/themes/default/lv_theme_default.c ****         lv_obj_add_style(obj, &theme->styles.bg_color_secondary, LV_PART_ITEMS | LV_STATE_EDITED);
 1066              		.loc 1 899 9 view .LVU236
 1067 05ce 2F4A     		ldr	r2, .L77+20
 1068 05d0 05F17C01 		add	r1, r5, #124
 1069 05d4 2046     		mov	r0, r4
 1070 05d6 FFF7FEFF 		bl	lv_obj_add_style
 1071              	.LVL134:
 900:Lib/lvgl/src/themes/default/lv_theme_default.c ****     }
 1072              		.loc 1 900 9 view .LVU237
 1073 05da 2D4A     		ldr	r2, .L77+24
 1074 05dc 05F19401 		add	r1, r5, #148
 1075 05e0 2046     		mov	r0, r4
 1076 05e2 FFF7FEFF 		bl	lv_obj_add_style
 1077              	.LVL135:
 1078 05e6 38E6     		b	.L14
 1079              	.L23:
 905:Lib/lvgl/src/themes/default/lv_theme_default.c ****         lv_obj_add_style(obj, &theme->styles.pad_gap, 0);
 1080              		.loc 1 905 10 view .LVU238
 905:Lib/lvgl/src/themes/default/lv_theme_default.c ****         lv_obj_add_style(obj, &theme->styles.pad_gap, 0);
 1081              		.loc 1 905 13 is_stmt 0 view .LVU239
 1082 05e8 2F49     		ldr	r1, .L77+48
 1083 05ea 2046     		mov	r0, r4
 1084 05ec FFF7FEFF 		bl	lv_obj_check_type
 1085              	.LVL136:
 905:Lib/lvgl/src/themes/default/lv_theme_default.c ****         lv_obj_add_style(obj, &theme->styles.pad_gap, 0);
 1086              		.loc 1 905 12 view .LVU240
 1087 05f0 0028     		cmp	r0, #0
 1088 05f2 5FD0     		beq	.L24
 906:Lib/lvgl/src/themes/default/lv_theme_default.c ****         lv_obj_add_style(obj, &theme->styles.outline_primary, LV_STATE_FOCUS_KEY);
 1089              		.loc 1 906 9 is_stmt 1 view .LVU241
 1090 05f4 0022     		movs	r2, #0
 1091 05f6 05F58671 		add	r1, r5, #268
 1092 05fa 2046     		mov	r0, r4
 1093 05fc FFF7FEFF 		bl	lv_obj_add_style
 1094              	.LVL137:
 907:Lib/lvgl/src/themes/default/lv_theme_default.c ****         lv_obj_add_style(obj, &theme->styles.disabled, LV_PART_INDICATOR | LV_STATE_DISABLED);
 1095              		.loc 1 907 9 view .LVU242
 1096 0600 0422     		movs	r2, #4
 1097 0602 05F59871 		add	r1, r5, #304
 1098 0606 2046     		mov	r0, r4
 1099 0608 FFF7FEFF 		bl	lv_obj_add_style
 1100              	.LVL138:
 908:Lib/lvgl/src/themes/default/lv_theme_default.c ****         lv_obj_add_style(obj, &theme->styles.cb_marker, LV_PART_INDICATOR);
 1101              		.loc 1 908 9 view .LVU243
 1102 060c 274A     		ldr	r2, .L77+52
 1103 060e 05F1D001 		add	r1, r5, #208
 1104 0612 2046     		mov	r0, r4
 1105 0614 FFF7FEFF 		bl	lv_obj_add_style
ARM GAS  C:\Users\Alex\AppData\Local\Temp\ccR26jun.s 			page 50


 1106              	.LVL139:
 909:Lib/lvgl/src/themes/default/lv_theme_default.c ****         lv_obj_add_style(obj, &theme->styles.bg_color_primary, LV_PART_INDICATOR | LV_STATE_CHECKED
 1107              		.loc 1 909 9 view .LVU244
 1108 0618 4FF40032 		mov	r2, #131072
 1109 061c 05F5FE71 		add	r1, r5, #508
 1110 0620 2046     		mov	r0, r4
 1111 0622 FFF7FEFF 		bl	lv_obj_add_style
 1112              	.LVL140:
 910:Lib/lvgl/src/themes/default/lv_theme_default.c ****         lv_obj_add_style(obj, &theme->styles.cb_marker_checked, LV_PART_INDICATOR | LV_STATE_CHECKE
 1113              		.loc 1 910 9 view .LVU245
 1114 0626 224E     		ldr	r6, .L77+56
 1115 0628 3246     		mov	r2, r6
 1116 062a 05F17C01 		add	r1, r5, #124
 1117 062e 2046     		mov	r0, r4
 1118 0630 FFF7FEFF 		bl	lv_obj_add_style
 1119              	.LVL141:
 911:Lib/lvgl/src/themes/default/lv_theme_default.c ****         lv_obj_add_style(obj, &theme->styles.pressed, LV_PART_INDICATOR | LV_STATE_PRESSED);
 1120              		.loc 1 911 9 view .LVU246
 1121 0634 3246     		mov	r2, r6
 1122 0636 05F50271 		add	r1, r5, #520
 1123 063a 2046     		mov	r0, r4
 1124 063c FFF7FEFF 		bl	lv_obj_add_style
 1125              	.LVL142:
 912:Lib/lvgl/src/themes/default/lv_theme_default.c **** #if LV_THEME_DEFAULT_GROW
 1126              		.loc 1 912 9 view .LVU247
 1127 0640 1F36     		adds	r6, r6, #31
 1128 0642 3246     		mov	r2, r6
 1129 0644 05F1C401 		add	r1, r5, #196
 1130 0648 2046     		mov	r0, r4
 1131 064a FFF7FEFF 		bl	lv_obj_add_style
 1132              	.LVL143:
 914:Lib/lvgl/src/themes/default/lv_theme_default.c **** #endif
 1133              		.loc 1 914 9 view .LVU248
 1134 064e 3246     		mov	r2, r6
 1135 0650 05F5B671 		add	r1, r5, #364
 1136 0654 2046     		mov	r0, r4
 1137 0656 FFF7FEFF 		bl	lv_obj_add_style
 1138              	.LVL144:
 916:Lib/lvgl/src/themes/default/lv_theme_default.c ****         lv_obj_add_style(obj, &theme->styles.transition_delayed, LV_PART_INDICATOR);
 1139              		.loc 1 916 9 view .LVU249
 1140 065a 3246     		mov	r2, r6
 1141 065c 05F5C271 		add	r1, r5, #388
 1142 0660 2046     		mov	r0, r4
 1143 0662 FFF7FEFF 		bl	lv_obj_add_style
 1144              	.LVL145:
 917:Lib/lvgl/src/themes/default/lv_theme_default.c ****     }
 1145              		.loc 1 917 9 view .LVU250
 1146 0666 4FF40032 		mov	r2, #131072
 1147 066a 05F5BC71 		add	r1, r5, #376
 1148 066e 2046     		mov	r0, r4
 1149 0670 FFF7FEFF 		bl	lv_obj_add_style
 1150              	.LVL146:
 1151 0674 F1E5     		b	.L14
 1152              	.L78:
 1153 0676 00BF     		.align	2
 1154              	.L77:
 1155 0678 00000000 		.word	lv_buttonmatrix_class
ARM GAS  C:\Users\Alex\AppData\Local\Temp\ccR26jun.s 			page 51


 1156 067c 00000000 		.word	lv_calendar_class
 1157 0680 80000500 		.word	327808
 1158 0684 20000500 		.word	327712
 1159 0688 01000500 		.word	327681
 1160 068c 04000500 		.word	327684
 1161 0690 08000500 		.word	327688
 1162 0694 00000000 		.word	lv_bar_class
 1163 0698 00000000 		.word	lv_slider_class
 1164 069c 20000300 		.word	196640
 1165 06a0 00000000 		.word	lv_table_class
 1166 06a4 40000100 		.word	65600
 1167 06a8 00000000 		.word	lv_checkbox_class
 1168 06ac 80000200 		.word	131200
 1169 06b0 01000200 		.word	131073
 1170              	.L24:
 922:Lib/lvgl/src/themes/default/lv_theme_default.c ****         lv_obj_add_style(obj, &theme->styles.bg_color_grey, 0);
 1171              		.loc 1 922 10 view .LVU251
 922:Lib/lvgl/src/themes/default/lv_theme_default.c ****         lv_obj_add_style(obj, &theme->styles.bg_color_grey, 0);
 1172              		.loc 1 922 13 is_stmt 0 view .LVU252
 1173 06b4 E049     		ldr	r1, .L79
 1174 06b6 2046     		mov	r0, r4
 1175 06b8 FFF7FEFF 		bl	lv_obj_check_type
 1176              	.LVL147:
 922:Lib/lvgl/src/themes/default/lv_theme_default.c ****         lv_obj_add_style(obj, &theme->styles.bg_color_grey, 0);
 1177              		.loc 1 922 12 view .LVU253
 1178 06bc 0028     		cmp	r0, #0
 1179 06be 5AD0     		beq	.L25
 923:Lib/lvgl/src/themes/default/lv_theme_default.c ****         lv_obj_add_style(obj, &theme->styles.circle, 0);
 1180              		.loc 1 923 9 is_stmt 1 view .LVU254
 1181 06c0 0022     		movs	r2, #0
 1182 06c2 05F1AC01 		add	r1, r5, #172
 1183 06c6 2046     		mov	r0, r4
 1184 06c8 FFF7FEFF 		bl	lv_obj_add_style
 1185              	.LVL148:
 924:Lib/lvgl/src/themes/default/lv_theme_default.c ****         lv_obj_add_style(obj, &theme->styles.anim_fast, 0);
 1186              		.loc 1 924 9 view .LVU255
 924:Lib/lvgl/src/themes/default/lv_theme_default.c ****         lv_obj_add_style(obj, &theme->styles.anim_fast, 0);
 1187              		.loc 1 924 31 is_stmt 0 view .LVU256
 1188 06cc 05F5A477 		add	r7, r5, #328
 924:Lib/lvgl/src/themes/default/lv_theme_default.c ****         lv_obj_add_style(obj, &theme->styles.anim_fast, 0);
 1189              		.loc 1 924 9 view .LVU257
 1190 06d0 0022     		movs	r2, #0
 1191 06d2 3946     		mov	r1, r7
 1192 06d4 2046     		mov	r0, r4
 1193 06d6 FFF7FEFF 		bl	lv_obj_add_style
 1194              	.LVL149:
 925:Lib/lvgl/src/themes/default/lv_theme_default.c ****         lv_obj_add_style(obj, &theme->styles.disabled, LV_STATE_DISABLED);
 1195              		.loc 1 925 9 is_stmt 1 view .LVU258
 1196 06da 0022     		movs	r2, #0
 1197 06dc 05F5CE71 		add	r1, r5, #412
 1198 06e0 2046     		mov	r0, r4
 1199 06e2 FFF7FEFF 		bl	lv_obj_add_style
 1200              	.LVL150:
 926:Lib/lvgl/src/themes/default/lv_theme_default.c ****         lv_obj_add_style(obj, &theme->styles.outline_primary, LV_STATE_FOCUS_KEY);
 1201              		.loc 1 926 9 view .LVU259
 926:Lib/lvgl/src/themes/default/lv_theme_default.c ****         lv_obj_add_style(obj, &theme->styles.outline_primary, LV_STATE_FOCUS_KEY);
 1202              		.loc 1 926 31 is_stmt 0 view .LVU260
ARM GAS  C:\Users\Alex\AppData\Local\Temp\ccR26jun.s 			page 52


 1203 06e6 05F1D006 		add	r6, r5, #208
 926:Lib/lvgl/src/themes/default/lv_theme_default.c ****         lv_obj_add_style(obj, &theme->styles.outline_primary, LV_STATE_FOCUS_KEY);
 1204              		.loc 1 926 9 view .LVU261
 1205 06ea 8022     		movs	r2, #128
 1206 06ec 3146     		mov	r1, r6
 1207 06ee 2046     		mov	r0, r4
 1208 06f0 FFF7FEFF 		bl	lv_obj_add_style
 1209              	.LVL151:
 927:Lib/lvgl/src/themes/default/lv_theme_default.c ****         lv_obj_add_style(obj, &theme->styles.bg_color_primary, LV_PART_INDICATOR | LV_STATE_CHECKED
 1210              		.loc 1 927 9 is_stmt 1 view .LVU262
 1211 06f4 0422     		movs	r2, #4
 1212 06f6 05F59871 		add	r1, r5, #304
 1213 06fa 2046     		mov	r0, r4
 1214 06fc FFF7FEFF 		bl	lv_obj_add_style
 1215              	.LVL152:
 928:Lib/lvgl/src/themes/default/lv_theme_default.c ****         lv_obj_add_style(obj, &theme->styles.circle, LV_PART_INDICATOR);
 1216              		.loc 1 928 9 view .LVU263
 1217 0700 DFF86C83 		ldr	r8, .L79+56
 1218 0704 4246     		mov	r2, r8
 1219 0706 05F17C01 		add	r1, r5, #124
 1220 070a 2046     		mov	r0, r4
 1221 070c FFF7FEFF 		bl	lv_obj_add_style
 1222              	.LVL153:
 929:Lib/lvgl/src/themes/default/lv_theme_default.c ****         lv_obj_add_style(obj, &theme->styles.disabled, LV_PART_INDICATOR | LV_STATE_DISABLED);
 1223              		.loc 1 929 9 view .LVU264
 1224 0710 4FF40032 		mov	r2, #131072
 1225 0714 3946     		mov	r1, r7
 1226 0716 2046     		mov	r0, r4
 1227 0718 FFF7FEFF 		bl	lv_obj_add_style
 1228              	.LVL154:
 930:Lib/lvgl/src/themes/default/lv_theme_default.c ****         lv_obj_add_style(obj, &theme->styles.knob, LV_PART_KNOB);
 1229              		.loc 1 930 9 view .LVU265
 1230 071c C74A     		ldr	r2, .L79+4
 1231 071e 3146     		mov	r1, r6
 1232 0720 2046     		mov	r0, r4
 1233 0722 FFF7FEFF 		bl	lv_obj_add_style
 1234              	.LVL155:
 931:Lib/lvgl/src/themes/default/lv_theme_default.c ****         lv_obj_add_style(obj, &theme->styles.bg_color_white, LV_PART_KNOB);
 1235              		.loc 1 931 9 view .LVU266
 1236 0726 4FF44032 		mov	r2, #196608
 1237 072a 05F5D471 		add	r1, r5, #424
 1238 072e 2046     		mov	r0, r4
 1239 0730 FFF7FEFF 		bl	lv_obj_add_style
 1240              	.LVL156:
 932:Lib/lvgl/src/themes/default/lv_theme_default.c ****         lv_obj_add_style(obj, &theme->styles.switch_knob, LV_PART_KNOB);
 1241              		.loc 1 932 9 view .LVU267
 1242 0734 4FF44032 		mov	r2, #196608
 1243 0738 05F1B801 		add	r1, r5, #184
 1244 073c 2046     		mov	r0, r4
 1245 073e FFF7FEFF 		bl	lv_obj_add_style
 1246              	.LVL157:
 933:Lib/lvgl/src/themes/default/lv_theme_default.c ****         lv_obj_add_style(obj, &theme->styles.disabled, LV_PART_KNOB | LV_STATE_DISABLED);
 1247              		.loc 1 933 9 view .LVU268
 1248 0742 4FF44032 		mov	r2, #196608
 1249 0746 05F50571 		add	r1, r5, #532
 1250 074a 2046     		mov	r0, r4
 1251 074c FFF7FEFF 		bl	lv_obj_add_style
ARM GAS  C:\Users\Alex\AppData\Local\Temp\ccR26jun.s 			page 53


 1252              	.LVL158:
 934:Lib/lvgl/src/themes/default/lv_theme_default.c **** 
 1253              		.loc 1 934 9 view .LVU269
 1254 0750 BB4A     		ldr	r2, .L79+8
 1255 0752 3146     		mov	r1, r6
 1256 0754 2046     		mov	r0, r4
 1257 0756 FFF7FEFF 		bl	lv_obj_add_style
 1258              	.LVL159:
 936:Lib/lvgl/src/themes/default/lv_theme_default.c ****         lv_obj_add_style(obj, &theme->styles.transition_normal, LV_PART_INDICATOR);
 1259              		.loc 1 936 9 view .LVU270
 936:Lib/lvgl/src/themes/default/lv_theme_default.c ****         lv_obj_add_style(obj, &theme->styles.transition_normal, LV_PART_INDICATOR);
 1260              		.loc 1 936 31 is_stmt 0 view .LVU271
 1261 075a 05F5C276 		add	r6, r5, #388
 936:Lib/lvgl/src/themes/default/lv_theme_default.c ****         lv_obj_add_style(obj, &theme->styles.transition_normal, LV_PART_INDICATOR);
 1262              		.loc 1 936 9 view .LVU272
 1263 075e 4246     		mov	r2, r8
 1264 0760 3146     		mov	r1, r6
 1265 0762 2046     		mov	r0, r4
 1266 0764 FFF7FEFF 		bl	lv_obj_add_style
 1267              	.LVL160:
 937:Lib/lvgl/src/themes/default/lv_theme_default.c ****     }
 1268              		.loc 1 937 9 is_stmt 1 view .LVU273
 1269 0768 4FF40032 		mov	r2, #131072
 1270 076c 3146     		mov	r1, r6
 1271 076e 2046     		mov	r0, r4
 1272 0770 FFF7FEFF 		bl	lv_obj_add_style
 1273              	.LVL161:
 1274 0774 71E5     		b	.L14
 1275              	.L25:
 942:Lib/lvgl/src/themes/default/lv_theme_default.c ****         lv_obj_add_style(obj, &theme->styles.card, 0);
 1276              		.loc 1 942 10 view .LVU274
 942:Lib/lvgl/src/themes/default/lv_theme_default.c ****         lv_obj_add_style(obj, &theme->styles.card, 0);
 1277              		.loc 1 942 13 is_stmt 0 view .LVU275
 1278 0776 B349     		ldr	r1, .L79+12
 1279 0778 2046     		mov	r0, r4
 1280 077a FFF7FEFF 		bl	lv_obj_check_type
 1281              	.LVL162:
 942:Lib/lvgl/src/themes/default/lv_theme_default.c ****         lv_obj_add_style(obj, &theme->styles.card, 0);
 1282              		.loc 1 942 12 view .LVU276
 1283 077e A0B3     		cbz	r0, .L26
 943:Lib/lvgl/src/themes/default/lv_theme_default.c ****         lv_obj_add_style(obj, &theme->styles.pad_small, 0);
 1284              		.loc 1 943 9 is_stmt 1 view .LVU277
 1285 0780 0022     		movs	r2, #0
 1286 0782 05F16401 		add	r1, r5, #100
 1287 0786 2046     		mov	r0, r4
 1288 0788 FFF7FEFF 		bl	lv_obj_add_style
 1289              	.LVL163:
 944:Lib/lvgl/src/themes/default/lv_theme_default.c ****         lv_obj_add_style(obj, &theme->styles.chart_bg, 0);
 1290              		.loc 1 944 9 view .LVU278
 1291 078c 0022     		movs	r2, #0
 1292 078e 05F1F401 		add	r1, r5, #244
 1293 0792 2046     		mov	r0, r4
 1294 0794 FFF7FEFF 		bl	lv_obj_add_style
 1295              	.LVL164:
 945:Lib/lvgl/src/themes/default/lv_theme_default.c ****         lv_obj_add_style(obj, &theme->styles.scrollbar, LV_PART_SCROLLBAR);
 1296              		.loc 1 945 9 view .LVU279
 1297 0798 0022     		movs	r2, #0
ARM GAS  C:\Users\Alex\AppData\Local\Temp\ccR26jun.s 			page 54


 1298 079a 05F5F271 		add	r1, r5, #484
 1299 079e 2046     		mov	r0, r4
 1300 07a0 FFF7FEFF 		bl	lv_obj_add_style
 1301              	.LVL165:
 946:Lib/lvgl/src/themes/default/lv_theme_default.c ****         lv_obj_add_style(obj, &theme->styles.scrollbar_scrolled, LV_PART_SCROLLBAR | LV_STATE_SCROL
 1302              		.loc 1 946 9 view .LVU280
 1303 07a4 4FF48032 		mov	r2, #65536
 1304 07a8 05F14C01 		add	r1, r5, #76
 1305 07ac 2046     		mov	r0, r4
 1306 07ae FFF7FEFF 		bl	lv_obj_add_style
 1307              	.LVL166:
 947:Lib/lvgl/src/themes/default/lv_theme_default.c ****         lv_obj_add_style(obj, &theme->styles.chart_series, LV_PART_ITEMS);
 1308              		.loc 1 947 9 view .LVU281
 1309 07b2 A54A     		ldr	r2, .L79+16
 1310 07b4 05F15801 		add	r1, r5, #88
 1311 07b8 2046     		mov	r0, r4
 1312 07ba FFF7FEFF 		bl	lv_obj_add_style
 1313              	.LVL167:
 948:Lib/lvgl/src/themes/default/lv_theme_default.c ****         lv_obj_add_style(obj, &theme->styles.chart_indic, LV_PART_INDICATOR);
 1314              		.loc 1 948 9 view .LVU282
 948:Lib/lvgl/src/themes/default/lv_theme_default.c ****         lv_obj_add_style(obj, &theme->styles.chart_indic, LV_PART_INDICATOR);
 1315              		.loc 1 948 31 is_stmt 0 view .LVU283
 1316 07be 05F5E676 		add	r6, r5, #460
 948:Lib/lvgl/src/themes/default/lv_theme_default.c ****         lv_obj_add_style(obj, &theme->styles.chart_indic, LV_PART_INDICATOR);
 1317              		.loc 1 948 9 view .LVU284
 1318 07c2 4FF4A022 		mov	r2, #327680
 1319 07c6 3146     		mov	r1, r6
 1320 07c8 2046     		mov	r0, r4
 1321 07ca FFF7FEFF 		bl	lv_obj_add_style
 1322              	.LVL168:
 949:Lib/lvgl/src/themes/default/lv_theme_default.c ****         lv_obj_add_style(obj, &theme->styles.chart_series, LV_PART_CURSOR);
 1323              		.loc 1 949 9 is_stmt 1 view .LVU285
 1324 07ce 4FF40032 		mov	r2, #131072
 1325 07d2 05F5EC71 		add	r1, r5, #472
 1326 07d6 2046     		mov	r0, r4
 1327 07d8 FFF7FEFF 		bl	lv_obj_add_style
 1328              	.LVL169:
 950:Lib/lvgl/src/themes/default/lv_theme_default.c ****     }
 1329              		.loc 1 950 9 view .LVU286
 1330 07dc 4FF4C022 		mov	r2, #393216
 1331 07e0 3146     		mov	r1, r6
 1332 07e2 2046     		mov	r0, r4
 1333 07e4 FFF7FEFF 		bl	lv_obj_add_style
 1334              	.LVL170:
 1335 07e8 37E5     		b	.L14
 1336              	.L26:
 955:Lib/lvgl/src/themes/default/lv_theme_default.c ****         lv_obj_add_style(obj, &theme->styles.card, 0);
 1337              		.loc 1 955 10 view .LVU287
 955:Lib/lvgl/src/themes/default/lv_theme_default.c ****         lv_obj_add_style(obj, &theme->styles.card, 0);
 1338              		.loc 1 955 13 is_stmt 0 view .LVU288
 1339 07ea 9849     		ldr	r1, .L79+20
 1340 07ec 2046     		mov	r0, r4
 1341 07ee FFF7FEFF 		bl	lv_obj_check_type
 1342              	.LVL171:
 955:Lib/lvgl/src/themes/default/lv_theme_default.c ****         lv_obj_add_style(obj, &theme->styles.card, 0);
 1343              		.loc 1 955 12 view .LVU289
 1344 07f2 58B3     		cbz	r0, .L27
ARM GAS  C:\Users\Alex\AppData\Local\Temp\ccR26jun.s 			page 55


 956:Lib/lvgl/src/themes/default/lv_theme_default.c ****         lv_obj_add_style(obj, &theme->styles.anim, 0);
 1345              		.loc 1 956 9 is_stmt 1 view .LVU290
 1346 07f4 0022     		movs	r2, #0
 1347 07f6 05F16401 		add	r1, r5, #100
 1348 07fa 2046     		mov	r0, r4
 1349 07fc FFF7FEFF 		bl	lv_obj_add_style
 1350              	.LVL172:
 957:Lib/lvgl/src/themes/default/lv_theme_default.c ****         lv_obj_add_style(obj, &theme->styles.line_space_large, 0);
 1351              		.loc 1 957 9 view .LVU291
 1352 0800 0022     		movs	r2, #0
 1353 0802 05F5C871 		add	r1, r5, #400
 1354 0806 2046     		mov	r0, r4
 1355 0808 FFF7FEFF 		bl	lv_obj_add_style
 1356              	.LVL173:
 958:Lib/lvgl/src/themes/default/lv_theme_default.c ****         lv_obj_add_style(obj, &theme->styles.text_align_center, 0);
 1357              		.loc 1 958 9 view .LVU292
 1358 080c 0022     		movs	r2, #0
 1359 080e 05F58C71 		add	r1, r5, #280
 1360 0812 2046     		mov	r0, r4
 1361 0814 FFF7FEFF 		bl	lv_obj_add_style
 1362              	.LVL174:
 959:Lib/lvgl/src/themes/default/lv_theme_default.c ****         lv_obj_add_style(obj, &theme->styles.outline_primary, LV_STATE_FOCUS_KEY);
 1363              		.loc 1 959 9 view .LVU293
 1364 0818 0022     		movs	r2, #0
 1365 081a 05F59271 		add	r1, r5, #292
 1366 081e 2046     		mov	r0, r4
 1367 0820 FFF7FEFF 		bl	lv_obj_add_style
 1368              	.LVL175:
 960:Lib/lvgl/src/themes/default/lv_theme_default.c ****         lv_obj_add_style(obj, &theme->styles.outline_secondary, LV_STATE_EDITED);
 1369              		.loc 1 960 9 view .LVU294
 1370 0824 0422     		movs	r2, #4
 1371 0826 05F59871 		add	r1, r5, #304
 1372 082a 2046     		mov	r0, r4
 1373 082c FFF7FEFF 		bl	lv_obj_add_style
 1374              	.LVL176:
 961:Lib/lvgl/src/themes/default/lv_theme_default.c ****         lv_obj_add_style(obj, &theme->styles.bg_color_primary, LV_PART_SELECTED);
 1375              		.loc 1 961 9 view .LVU295
 1376 0830 0822     		movs	r2, #8
 1377 0832 05F59E71 		add	r1, r5, #316
 1378 0836 2046     		mov	r0, r4
 1379 0838 FFF7FEFF 		bl	lv_obj_add_style
 1380              	.LVL177:
 962:Lib/lvgl/src/themes/default/lv_theme_default.c ****     }
 1381              		.loc 1 962 9 view .LVU296
 1382 083c 4FF48022 		mov	r2, #262144
 1383 0840 05F17C01 		add	r1, r5, #124
 1384 0844 2046     		mov	r0, r4
 1385 0846 FFF7FEFF 		bl	lv_obj_add_style
 1386              	.LVL178:
 1387 084a 06E5     		b	.L14
 1388              	.L27:
 967:Lib/lvgl/src/themes/default/lv_theme_default.c ****         lv_obj_add_style(obj, &theme->styles.card, 0);
 1389              		.loc 1 967 10 view .LVU297
 967:Lib/lvgl/src/themes/default/lv_theme_default.c ****         lv_obj_add_style(obj, &theme->styles.card, 0);
 1390              		.loc 1 967 13 is_stmt 0 view .LVU298
 1391 084c 8049     		ldr	r1, .L79+24
 1392 084e 2046     		mov	r0, r4
ARM GAS  C:\Users\Alex\AppData\Local\Temp\ccR26jun.s 			page 56


 1393 0850 FFF7FEFF 		bl	lv_obj_check_type
 1394              	.LVL179:
 967:Lib/lvgl/src/themes/default/lv_theme_default.c ****         lv_obj_add_style(obj, &theme->styles.card, 0);
 1395              		.loc 1 967 12 view .LVU299
 1396 0854 B8B3     		cbz	r0, .L28
 968:Lib/lvgl/src/themes/default/lv_theme_default.c ****         lv_obj_add_style(obj, &theme->styles.pad_small, 0);
 1397              		.loc 1 968 9 is_stmt 1 view .LVU300
 1398 0856 0022     		movs	r2, #0
 1399 0858 05F16401 		add	r1, r5, #100
 1400 085c 2046     		mov	r0, r4
 1401 085e FFF7FEFF 		bl	lv_obj_add_style
 1402              	.LVL180:
 969:Lib/lvgl/src/themes/default/lv_theme_default.c ****         lv_obj_add_style(obj, &theme->styles.transition_delayed, 0);
 1403              		.loc 1 969 9 view .LVU301
 1404 0862 0022     		movs	r2, #0
 1405 0864 05F1F401 		add	r1, r5, #244
 1406 0868 2046     		mov	r0, r4
 1407 086a FFF7FEFF 		bl	lv_obj_add_style
 1408              	.LVL181:
 970:Lib/lvgl/src/themes/default/lv_theme_default.c ****         lv_obj_add_style(obj, &theme->styles.transition_normal, LV_STATE_PRESSED);
 1409              		.loc 1 970 9 view .LVU302
 1410 086e 0022     		movs	r2, #0
 1411 0870 05F5BC71 		add	r1, r5, #376
 1412 0874 2046     		mov	r0, r4
 1413 0876 FFF7FEFF 		bl	lv_obj_add_style
 1414              	.LVL182:
 971:Lib/lvgl/src/themes/default/lv_theme_default.c ****         lv_obj_add_style(obj, &theme->styles.pressed, LV_STATE_PRESSED);
 1415              		.loc 1 971 9 view .LVU303
 971:Lib/lvgl/src/themes/default/lv_theme_default.c ****         lv_obj_add_style(obj, &theme->styles.pressed, LV_STATE_PRESSED);
 1416              		.loc 1 971 31 is_stmt 0 view .LVU304
 1417 087a 05F5C276 		add	r6, r5, #388
 971:Lib/lvgl/src/themes/default/lv_theme_default.c ****         lv_obj_add_style(obj, &theme->styles.pressed, LV_STATE_PRESSED);
 1418              		.loc 1 971 9 view .LVU305
 1419 087e 2022     		movs	r2, #32
 1420 0880 3146     		mov	r1, r6
 1421 0882 2046     		mov	r0, r4
 1422 0884 FFF7FEFF 		bl	lv_obj_add_style
 1423              	.LVL183:
 972:Lib/lvgl/src/themes/default/lv_theme_default.c ****         lv_obj_add_style(obj, &theme->styles.outline_primary, LV_STATE_FOCUS_KEY);
 1424              		.loc 1 972 9 is_stmt 1 view .LVU306
 1425 0888 2022     		movs	r2, #32
 1426 088a 05F1C401 		add	r1, r5, #196
 1427 088e 2046     		mov	r0, r4
 1428 0890 FFF7FEFF 		bl	lv_obj_add_style
 1429              	.LVL184:
 973:Lib/lvgl/src/themes/default/lv_theme_default.c ****         lv_obj_add_style(obj, &theme->styles.outline_secondary, LV_STATE_EDITED);
 1430              		.loc 1 973 9 view .LVU307
 1431 0894 0422     		movs	r2, #4
 1432 0896 05F59871 		add	r1, r5, #304
 1433 089a 2046     		mov	r0, r4
 1434 089c FFF7FEFF 		bl	lv_obj_add_style
 1435              	.LVL185:
 974:Lib/lvgl/src/themes/default/lv_theme_default.c ****         lv_obj_add_style(obj, &theme->styles.transition_normal, LV_PART_INDICATOR);
 1436              		.loc 1 974 9 view .LVU308
 1437 08a0 0822     		movs	r2, #8
 1438 08a2 05F59E71 		add	r1, r5, #316
 1439 08a6 2046     		mov	r0, r4
ARM GAS  C:\Users\Alex\AppData\Local\Temp\ccR26jun.s 			page 57


 1440 08a8 FFF7FEFF 		bl	lv_obj_add_style
 1441              	.LVL186:
 975:Lib/lvgl/src/themes/default/lv_theme_default.c ****         lv_obj_add_style(obj, &theme->styles.disabled, LV_STATE_DISABLED);
 1442              		.loc 1 975 9 view .LVU309
 1443 08ac 4FF40032 		mov	r2, #131072
 1444 08b0 3146     		mov	r1, r6
 1445 08b2 2046     		mov	r0, r4
 1446 08b4 FFF7FEFF 		bl	lv_obj_add_style
 1447              	.LVL187:
 976:Lib/lvgl/src/themes/default/lv_theme_default.c ****     }
 1448              		.loc 1 976 9 view .LVU310
 1449 08b8 8022     		movs	r2, #128
 1450 08ba 05F1D001 		add	r1, r5, #208
 1451 08be 2046     		mov	r0, r4
 1452 08c0 FFF7FEFF 		bl	lv_obj_add_style
 1453              	.LVL188:
 1454 08c4 C9E4     		b	.L14
 1455              	.L28:
 978:Lib/lvgl/src/themes/default/lv_theme_default.c ****         lv_obj_add_style(obj, &theme->styles.card, 0);
 1456              		.loc 1 978 10 view .LVU311
 978:Lib/lvgl/src/themes/default/lv_theme_default.c ****         lv_obj_add_style(obj, &theme->styles.card, 0);
 1457              		.loc 1 978 13 is_stmt 0 view .LVU312
 1458 08c6 6349     		ldr	r1, .L79+28
 1459 08c8 2046     		mov	r0, r4
 1460 08ca FFF7FEFF 		bl	lv_obj_check_type
 1461              	.LVL189:
 978:Lib/lvgl/src/themes/default/lv_theme_default.c ****         lv_obj_add_style(obj, &theme->styles.card, 0);
 1462              		.loc 1 978 12 view .LVU313
 1463 08ce C0B3     		cbz	r0, .L29
 979:Lib/lvgl/src/themes/default/lv_theme_default.c ****         lv_obj_add_style(obj, &theme->styles.clip_corner, 0);
 1464              		.loc 1 979 9 is_stmt 1 view .LVU314
 1465 08d0 0022     		movs	r2, #0
 1466 08d2 05F16401 		add	r1, r5, #100
 1467 08d6 2046     		mov	r0, r4
 1468 08d8 FFF7FEFF 		bl	lv_obj_add_style
 1469              	.LVL190:
 980:Lib/lvgl/src/themes/default/lv_theme_default.c ****         lv_obj_add_style(obj, &theme->styles.line_space_large, 0);
 1470              		.loc 1 980 9 view .LVU315
 1471 08dc 0022     		movs	r2, #0
 1472 08de 05F5B071 		add	r1, r5, #352
 1473 08e2 2046     		mov	r0, r4
 1474 08e4 FFF7FEFF 		bl	lv_obj_add_style
 1475              	.LVL191:
 981:Lib/lvgl/src/themes/default/lv_theme_default.c ****         lv_obj_add_style(obj, &theme->styles.dropdown_list, 0);
 1476              		.loc 1 981 9 view .LVU316
 1477 08e8 0022     		movs	r2, #0
 1478 08ea 05F58C71 		add	r1, r5, #280
 1479 08ee 2046     		mov	r0, r4
 1480 08f0 FFF7FEFF 		bl	lv_obj_add_style
 1481              	.LVL192:
 982:Lib/lvgl/src/themes/default/lv_theme_default.c ****         lv_obj_add_style(obj, &theme->styles.scrollbar, LV_PART_SCROLLBAR);
 1482              		.loc 1 982 9 view .LVU317
 1483 08f4 0022     		movs	r2, #0
 1484 08f6 05F5F871 		add	r1, r5, #496
 1485 08fa 2046     		mov	r0, r4
 1486 08fc FFF7FEFF 		bl	lv_obj_add_style
 1487              	.LVL193:
ARM GAS  C:\Users\Alex\AppData\Local\Temp\ccR26jun.s 			page 58


 983:Lib/lvgl/src/themes/default/lv_theme_default.c ****         lv_obj_add_style(obj, &theme->styles.scrollbar_scrolled, LV_PART_SCROLLBAR | LV_STATE_SCROL
 1488              		.loc 1 983 9 view .LVU318
 1489 0900 4FF48032 		mov	r2, #65536
 1490 0904 05F14C01 		add	r1, r5, #76
 1491 0908 2046     		mov	r0, r4
 1492 090a FFF7FEFF 		bl	lv_obj_add_style
 1493              	.LVL194:
 984:Lib/lvgl/src/themes/default/lv_theme_default.c ****         lv_obj_add_style(obj, &theme->styles.bg_color_white, LV_PART_SELECTED);
 1494              		.loc 1 984 9 view .LVU319
 1495 090e 4E4A     		ldr	r2, .L79+16
 1496 0910 05F15801 		add	r1, r5, #88
 1497 0914 2046     		mov	r0, r4
 1498 0916 FFF7FEFF 		bl	lv_obj_add_style
 1499              	.LVL195:
 985:Lib/lvgl/src/themes/default/lv_theme_default.c ****         lv_obj_add_style(obj, &theme->styles.bg_color_primary, LV_PART_SELECTED | LV_STATE_CHECKED)
 1500              		.loc 1 985 9 view .LVU320
 1501 091a 4FF48022 		mov	r2, #262144
 1502 091e 05F1B801 		add	r1, r5, #184
 1503 0922 2046     		mov	r0, r4
 1504 0924 FFF7FEFF 		bl	lv_obj_add_style
 1505              	.LVL196:
 986:Lib/lvgl/src/themes/default/lv_theme_default.c ****         lv_obj_add_style(obj, &theme->styles.pressed, LV_PART_SELECTED | LV_STATE_PRESSED);
 1506              		.loc 1 986 9 view .LVU321
 1507 0928 4B4A     		ldr	r2, .L79+32
 1508 092a 05F17C01 		add	r1, r5, #124
 1509 092e 2046     		mov	r0, r4
 1510 0930 FFF7FEFF 		bl	lv_obj_add_style
 1511              	.LVL197:
 987:Lib/lvgl/src/themes/default/lv_theme_default.c ****     }
 1512              		.loc 1 987 9 view .LVU322
 1513 0934 494A     		ldr	r2, .L79+36
 1514 0936 05F1C401 		add	r1, r5, #196
 1515 093a 2046     		mov	r0, r4
 1516 093c FFF7FEFF 		bl	lv_obj_add_style
 1517              	.LVL198:
 1518 0940 8BE4     		b	.L14
 1519              	.L29:
 992:Lib/lvgl/src/themes/default/lv_theme_default.c ****         lv_obj_add_style(obj, &theme->styles.arc_indic, 0);
 1520              		.loc 1 992 10 view .LVU323
 992:Lib/lvgl/src/themes/default/lv_theme_default.c ****         lv_obj_add_style(obj, &theme->styles.arc_indic, 0);
 1521              		.loc 1 992 13 is_stmt 0 view .LVU324
 1522 0942 4749     		ldr	r1, .L79+40
 1523 0944 2046     		mov	r0, r4
 1524 0946 FFF7FEFF 		bl	lv_obj_check_type
 1525              	.LVL199:
 992:Lib/lvgl/src/themes/default/lv_theme_default.c ****         lv_obj_add_style(obj, &theme->styles.arc_indic, 0);
 1526              		.loc 1 992 12 view .LVU325
 1527 094a D8B1     		cbz	r0, .L30
 993:Lib/lvgl/src/themes/default/lv_theme_default.c ****         lv_obj_add_style(obj, &theme->styles.arc_indic, LV_PART_INDICATOR);
 1528              		.loc 1 993 9 is_stmt 1 view .LVU326
 993:Lib/lvgl/src/themes/default/lv_theme_default.c ****         lv_obj_add_style(obj, &theme->styles.arc_indic, LV_PART_INDICATOR);
 1529              		.loc 1 993 31 is_stmt 0 view .LVU327
 1530 094c 05F5DA76 		add	r6, r5, #436
 993:Lib/lvgl/src/themes/default/lv_theme_default.c ****         lv_obj_add_style(obj, &theme->styles.arc_indic, LV_PART_INDICATOR);
 1531              		.loc 1 993 9 view .LVU328
 1532 0950 0022     		movs	r2, #0
 1533 0952 3146     		mov	r1, r6
ARM GAS  C:\Users\Alex\AppData\Local\Temp\ccR26jun.s 			page 59


 1534 0954 2046     		mov	r0, r4
 1535 0956 FFF7FEFF 		bl	lv_obj_add_style
 1536              	.LVL200:
 994:Lib/lvgl/src/themes/default/lv_theme_default.c ****         lv_obj_add_style(obj, &theme->styles.arc_indic_primary, LV_PART_INDICATOR);
 1537              		.loc 1 994 9 is_stmt 1 view .LVU329
 1538 095a 4FF40032 		mov	r2, #131072
 1539 095e 3146     		mov	r1, r6
 1540 0960 2046     		mov	r0, r4
 1541 0962 FFF7FEFF 		bl	lv_obj_add_style
 1542              	.LVL201:
 995:Lib/lvgl/src/themes/default/lv_theme_default.c ****         lv_obj_add_style(obj, &theme->styles.knob, LV_PART_KNOB);
 1543              		.loc 1 995 9 view .LVU330
 1544 0966 4FF40032 		mov	r2, #131072
 1545 096a 05F5E071 		add	r1, r5, #448
 1546 096e 2046     		mov	r0, r4
 1547 0970 FFF7FEFF 		bl	lv_obj_add_style
 1548              	.LVL202:
 996:Lib/lvgl/src/themes/default/lv_theme_default.c ****     }
 1549              		.loc 1 996 9 view .LVU331
 1550 0974 4FF44032 		mov	r2, #196608
 1551 0978 05F5D471 		add	r1, r5, #424
 1552 097c 2046     		mov	r0, r4
 1553 097e FFF7FEFF 		bl	lv_obj_add_style
 1554              	.LVL203:
 1555 0982 6AE4     		b	.L14
 1556              	.L30:
1001:Lib/lvgl/src/themes/default/lv_theme_default.c ****         lv_obj_add_style(obj, &theme->styles.arc_indic, 0);
 1557              		.loc 1 1001 10 view .LVU332
1001:Lib/lvgl/src/themes/default/lv_theme_default.c ****         lv_obj_add_style(obj, &theme->styles.arc_indic, 0);
 1558              		.loc 1 1001 13 is_stmt 0 view .LVU333
 1559 0984 3749     		ldr	r1, .L79+44
 1560 0986 2046     		mov	r0, r4
 1561 0988 FFF7FEFF 		bl	lv_obj_check_type
 1562              	.LVL204:
1001:Lib/lvgl/src/themes/default/lv_theme_default.c ****         lv_obj_add_style(obj, &theme->styles.arc_indic, 0);
 1563              		.loc 1 1001 12 view .LVU334
 1564 098c A0B1     		cbz	r0, .L31
1002:Lib/lvgl/src/themes/default/lv_theme_default.c ****         lv_obj_add_style(obj, &theme->styles.arc_indic, LV_PART_INDICATOR);
 1565              		.loc 1 1002 9 is_stmt 1 view .LVU335
1002:Lib/lvgl/src/themes/default/lv_theme_default.c ****         lv_obj_add_style(obj, &theme->styles.arc_indic, LV_PART_INDICATOR);
 1566              		.loc 1 1002 31 is_stmt 0 view .LVU336
 1567 098e 05F5DA76 		add	r6, r5, #436
1002:Lib/lvgl/src/themes/default/lv_theme_default.c ****         lv_obj_add_style(obj, &theme->styles.arc_indic, LV_PART_INDICATOR);
 1568              		.loc 1 1002 9 view .LVU337
 1569 0992 0022     		movs	r2, #0
 1570 0994 3146     		mov	r1, r6
 1571 0996 2046     		mov	r0, r4
 1572 0998 FFF7FEFF 		bl	lv_obj_add_style
 1573              	.LVL205:
1003:Lib/lvgl/src/themes/default/lv_theme_default.c ****         lv_obj_add_style(obj, &theme->styles.arc_indic_primary, LV_PART_INDICATOR);
 1574              		.loc 1 1003 9 is_stmt 1 view .LVU338
 1575 099c 4FF40032 		mov	r2, #131072
 1576 09a0 3146     		mov	r1, r6
 1577 09a2 2046     		mov	r0, r4
 1578 09a4 FFF7FEFF 		bl	lv_obj_add_style
 1579              	.LVL206:
1004:Lib/lvgl/src/themes/default/lv_theme_default.c ****     }
ARM GAS  C:\Users\Alex\AppData\Local\Temp\ccR26jun.s 			page 60


 1580              		.loc 1 1004 9 view .LVU339
 1581 09a8 4FF40032 		mov	r2, #131072
 1582 09ac 05F5E071 		add	r1, r5, #448
 1583 09b0 2046     		mov	r0, r4
 1584 09b2 FFF7FEFF 		bl	lv_obj_add_style
 1585              	.LVL207:
 1586 09b6 50E4     		b	.L14
 1587              	.L31:
1009:Lib/lvgl/src/themes/default/lv_theme_default.c ****         lv_obj_add_style(obj, &theme->styles.card, 0);
 1588              		.loc 1 1009 10 view .LVU340
1009:Lib/lvgl/src/themes/default/lv_theme_default.c ****         lv_obj_add_style(obj, &theme->styles.card, 0);
 1589              		.loc 1 1009 13 is_stmt 0 view .LVU341
 1590 09b8 2B49     		ldr	r1, .L79+48
 1591 09ba 2046     		mov	r0, r4
 1592 09bc FFF7FEFF 		bl	lv_obj_check_type
 1593              	.LVL208:
1009:Lib/lvgl/src/themes/default/lv_theme_default.c ****         lv_obj_add_style(obj, &theme->styles.card, 0);
 1594              		.loc 1 1009 12 view .LVU342
 1595 09c0 0028     		cmp	r0, #0
 1596 09c2 57D0     		beq	.L32
1010:Lib/lvgl/src/themes/default/lv_theme_default.c ****         lv_obj_add_style(obj, &theme->styles.pad_small, 0);
 1597              		.loc 1 1010 9 is_stmt 1 view .LVU343
 1598 09c4 0022     		movs	r2, #0
 1599 09c6 05F16401 		add	r1, r5, #100
 1600 09ca 2046     		mov	r0, r4
 1601 09cc FFF7FEFF 		bl	lv_obj_add_style
 1602              	.LVL209:
1011:Lib/lvgl/src/themes/default/lv_theme_default.c ****         lv_obj_add_style(obj, &theme->styles.disabled, LV_STATE_DISABLED);
 1603              		.loc 1 1011 9 view .LVU344
 1604 09d0 0022     		movs	r2, #0
 1605 09d2 05F1F401 		add	r1, r5, #244
 1606 09d6 2046     		mov	r0, r4
 1607 09d8 FFF7FEFF 		bl	lv_obj_add_style
 1608              	.LVL210:
1012:Lib/lvgl/src/themes/default/lv_theme_default.c ****         lv_obj_add_style(obj, &theme->styles.outline_primary, LV_STATE_FOCUS_KEY);
 1609              		.loc 1 1012 9 view .LVU345
 1610 09dc 8022     		movs	r2, #128
 1611 09de 05F1D001 		add	r1, r5, #208
 1612 09e2 2046     		mov	r0, r4
 1613 09e4 FFF7FEFF 		bl	lv_obj_add_style
 1614              	.LVL211:
1013:Lib/lvgl/src/themes/default/lv_theme_default.c ****         lv_obj_add_style(obj, &theme->styles.outline_secondary, LV_STATE_EDITED);
 1615              		.loc 1 1013 9 view .LVU346
 1616 09e8 0422     		movs	r2, #4
 1617 09ea 05F59871 		add	r1, r5, #304
 1618 09ee 2046     		mov	r0, r4
 1619 09f0 FFF7FEFF 		bl	lv_obj_add_style
 1620              	.LVL212:
1014:Lib/lvgl/src/themes/default/lv_theme_default.c ****         lv_obj_add_style(obj, &theme->styles.scrollbar, LV_PART_SCROLLBAR);
 1621              		.loc 1 1014 9 view .LVU347
 1622 09f4 0822     		movs	r2, #8
 1623 09f6 05F59E71 		add	r1, r5, #316
 1624 09fa 2046     		mov	r0, r4
 1625 09fc FFF7FEFF 		bl	lv_obj_add_style
 1626              	.LVL213:
1015:Lib/lvgl/src/themes/default/lv_theme_default.c ****         lv_obj_add_style(obj, &theme->styles.scrollbar_scrolled, LV_PART_SCROLLBAR | LV_STATE_SCROL
 1627              		.loc 1 1015 9 view .LVU348
ARM GAS  C:\Users\Alex\AppData\Local\Temp\ccR26jun.s 			page 61


 1628 0a00 4FF48032 		mov	r2, #65536
 1629 0a04 05F14C01 		add	r1, r5, #76
 1630 0a08 2046     		mov	r0, r4
 1631 0a0a FFF7FEFF 		bl	lv_obj_add_style
 1632              	.LVL214:
1016:Lib/lvgl/src/themes/default/lv_theme_default.c ****         lv_obj_add_style(obj, &theme->styles.ta_cursor, LV_PART_CURSOR | LV_STATE_FOCUSED);
 1633              		.loc 1 1016 9 view .LVU349
 1634 0a0e 0E4A     		ldr	r2, .L79+16
 1635 0a10 05F15801 		add	r1, r5, #88
 1636 0a14 2046     		mov	r0, r4
 1637 0a16 FFF7FEFF 		bl	lv_obj_add_style
 1638              	.LVL215:
1017:Lib/lvgl/src/themes/default/lv_theme_default.c ****         lv_obj_add_style(obj, &theme->styles.ta_placeholder, LV_PART_TEXTAREA_PLACEHOLDER);
 1639              		.loc 1 1017 9 view .LVU350
 1640 0a1a 144A     		ldr	r2, .L79+52
 1641 0a1c 05F50E71 		add	r1, r5, #568
 1642 0a20 2046     		mov	r0, r4
 1643 0a22 FFF7FEFF 		bl	lv_obj_add_style
 1644              	.LVL216:
1018:Lib/lvgl/src/themes/default/lv_theme_default.c ****     }
 1645              		.loc 1 1018 9 view .LVU351
 1646 0a26 4FF40022 		mov	r2, #524288
 1647 0a2a 05F51171 		add	r1, r5, #580
 1648 0a2e 2046     		mov	r0, r4
 1649 0a30 FFF7FEFF 		bl	lv_obj_add_style
 1650              	.LVL217:
 1651 0a34 11E4     		b	.L14
 1652              	.L80:
 1653 0a36 00BF     		.align	2
 1654              	.L79:
 1655 0a38 00000000 		.word	lv_switch_class
 1656 0a3c 80000200 		.word	131200
 1657 0a40 80000300 		.word	196736
 1658 0a44 00000000 		.word	lv_chart_class
 1659 0a48 40000100 		.word	65600
 1660 0a4c 00000000 		.word	lv_roller_class
 1661 0a50 00000000 		.word	lv_dropdown_class
 1662 0a54 00000000 		.word	lv_dropdownlist_class
 1663 0a58 01000400 		.word	262145
 1664 0a5c 20000400 		.word	262176
 1665 0a60 00000000 		.word	lv_arc_class
 1666 0a64 00000000 		.word	lv_spinner_class
 1667 0a68 00000000 		.word	lv_textarea_class
 1668 0a6c 02000600 		.word	393218
 1669 0a70 01000200 		.word	131073
 1670              	.L32:
1023:Lib/lvgl/src/themes/default/lv_theme_default.c ****         lv_obj_add_style(obj, &theme->styles.card, 0);
 1671              		.loc 1 1023 10 view .LVU352
1023:Lib/lvgl/src/themes/default/lv_theme_default.c ****         lv_obj_add_style(obj, &theme->styles.card, 0);
 1672              		.loc 1 1023 13 is_stmt 0 view .LVU353
 1673 0a74 D449     		ldr	r1, .L81
 1674 0a76 2046     		mov	r0, r4
 1675 0a78 FFF7FEFF 		bl	lv_obj_check_type
 1676              	.LVL218:
1023:Lib/lvgl/src/themes/default/lv_theme_default.c ****         lv_obj_add_style(obj, &theme->styles.card, 0);
 1677              		.loc 1 1023 12 view .LVU354
 1678 0a7c 68B1     		cbz	r0, .L33
ARM GAS  C:\Users\Alex\AppData\Local\Temp\ccR26jun.s 			page 62


1024:Lib/lvgl/src/themes/default/lv_theme_default.c ****         lv_obj_add_style(obj, &theme->styles.pad_zero, 0);
 1679              		.loc 1 1024 9 is_stmt 1 view .LVU355
 1680 0a7e 0022     		movs	r2, #0
 1681 0a80 05F16401 		add	r1, r5, #100
 1682 0a84 2046     		mov	r0, r4
 1683 0a86 FFF7FEFF 		bl	lv_obj_add_style
 1684              	.LVL219:
1025:Lib/lvgl/src/themes/default/lv_theme_default.c ****     }
 1685              		.loc 1 1025 9 view .LVU356
 1686 0a8a 0022     		movs	r2, #0
 1687 0a8c 05F1DC01 		add	r1, r5, #220
 1688 0a90 2046     		mov	r0, r4
 1689 0a92 FFF7FEFF 		bl	lv_obj_add_style
 1690              	.LVL220:
 1691 0a96 FFF7E0BB 		b	.L14
 1692              	.L33:
1029:Lib/lvgl/src/themes/default/lv_theme_default.c ****         lv_obj_add_style(obj, &theme->styles.calendar_header, 0);
 1693              		.loc 1 1029 10 view .LVU357
1029:Lib/lvgl/src/themes/default/lv_theme_default.c ****         lv_obj_add_style(obj, &theme->styles.calendar_header, 0);
 1694              		.loc 1 1029 13 is_stmt 0 view .LVU358
 1695 0a9a CC49     		ldr	r1, .L81+4
 1696 0a9c 2046     		mov	r0, r4
 1697 0a9e FFF7FEFF 		bl	lv_obj_check_type
 1698              	.LVL221:
1029:Lib/lvgl/src/themes/default/lv_theme_default.c ****         lv_obj_add_style(obj, &theme->styles.calendar_header, 0);
 1699              		.loc 1 1029 12 view .LVU359
 1700 0aa2 38B1     		cbz	r0, .L34
1030:Lib/lvgl/src/themes/default/lv_theme_default.c ****     }
 1701              		.loc 1 1030 9 is_stmt 1 view .LVU360
 1702 0aa4 0022     		movs	r2, #0
 1703 0aa6 05F51A71 		add	r1, r5, #616
 1704 0aaa 2046     		mov	r0, r4
 1705 0aac FFF7FEFF 		bl	lv_obj_add_style
 1706              	.LVL222:
 1707 0ab0 FFF7D3BB 		b	.L14
 1708              	.L34:
1035:Lib/lvgl/src/themes/default/lv_theme_default.c ****         lv_obj_add_style(obj, &theme->styles.calendar_header, 0);
 1709              		.loc 1 1035 10 view .LVU361
1035:Lib/lvgl/src/themes/default/lv_theme_default.c ****         lv_obj_add_style(obj, &theme->styles.calendar_header, 0);
 1710              		.loc 1 1035 13 is_stmt 0 view .LVU362
 1711 0ab4 C649     		ldr	r1, .L81+8
 1712 0ab6 2046     		mov	r0, r4
 1713 0ab8 FFF7FEFF 		bl	lv_obj_check_type
 1714              	.LVL223:
1035:Lib/lvgl/src/themes/default/lv_theme_default.c ****         lv_obj_add_style(obj, &theme->styles.calendar_header, 0);
 1715              		.loc 1 1035 12 view .LVU363
 1716 0abc 38B1     		cbz	r0, .L35
1036:Lib/lvgl/src/themes/default/lv_theme_default.c ****     }
 1717              		.loc 1 1036 9 is_stmt 1 view .LVU364
 1718 0abe 0022     		movs	r2, #0
 1719 0ac0 05F51A71 		add	r1, r5, #616
 1720 0ac4 2046     		mov	r0, r4
 1721 0ac6 FFF7FEFF 		bl	lv_obj_add_style
 1722              	.LVL224:
 1723 0aca FFF7C6BB 		b	.L14
 1724              	.L35:
1042:Lib/lvgl/src/themes/default/lv_theme_default.c ****         lv_obj_add_style(obj, &theme->styles.scr, 0);
ARM GAS  C:\Users\Alex\AppData\Local\Temp\ccR26jun.s 			page 63


 1725              		.loc 1 1042 10 view .LVU365
1042:Lib/lvgl/src/themes/default/lv_theme_default.c ****         lv_obj_add_style(obj, &theme->styles.scr, 0);
 1726              		.loc 1 1042 13 is_stmt 0 view .LVU366
 1727 0ace C149     		ldr	r1, .L81+12
 1728 0ad0 2046     		mov	r0, r4
 1729 0ad2 FFF7FEFF 		bl	lv_obj_check_type
 1730              	.LVL225:
1042:Lib/lvgl/src/themes/default/lv_theme_default.c ****         lv_obj_add_style(obj, &theme->styles.scr, 0);
 1731              		.loc 1 1042 12 view .LVU367
 1732 0ad6 0028     		cmp	r0, #0
 1733 0ad8 53D0     		beq	.L36
1043:Lib/lvgl/src/themes/default/lv_theme_default.c ****         lv_obj_add_style(obj, theme->disp_size == DISP_LARGE ? &theme->styles.pad_small : &theme->s
 1734              		.loc 1 1043 9 is_stmt 1 view .LVU368
 1735 0ada 0022     		movs	r2, #0
 1736 0adc 05F14001 		add	r1, r5, #64
 1737 0ae0 2046     		mov	r0, r4
 1738 0ae2 FFF7FEFF 		bl	lv_obj_add_style
 1739              	.LVL226:
1044:Lib/lvgl/src/themes/default/lv_theme_default.c ****         lv_obj_add_style(obj, &theme->styles.outline_primary, LV_STATE_FOCUS_KEY);
 1740              		.loc 1 1044 9 view .LVU369
1044:Lib/lvgl/src/themes/default/lv_theme_default.c ****         lv_obj_add_style(obj, &theme->styles.outline_primary, LV_STATE_FOCUS_KEY);
 1741              		.loc 1 1044 36 is_stmt 0 view .LVU370
 1742 0ae6 95F82830 		ldrb	r3, [r5, #40]	@ zero_extendqisi2
1044:Lib/lvgl/src/themes/default/lv_theme_default.c ****         lv_obj_add_style(obj, &theme->styles.outline_primary, LV_STATE_FOCUS_KEY);
 1743              		.loc 1 1044 9 view .LVU371
 1744 0aea 012B     		cmp	r3, #1
 1745 0aec 46D0     		beq	.L73
1044:Lib/lvgl/src/themes/default/lv_theme_default.c ****         lv_obj_add_style(obj, &theme->styles.outline_primary, LV_STATE_FOCUS_KEY);
 1746              		.loc 1 1044 9 discriminator 2 view .LVU372
 1747 0aee 05F1E801 		add	r1, r5, #232
 1748              	.L38:
1044:Lib/lvgl/src/themes/default/lv_theme_default.c ****         lv_obj_add_style(obj, &theme->styles.outline_primary, LV_STATE_FOCUS_KEY);
 1749              		.loc 1 1044 9 discriminator 4 view .LVU373
 1750 0af2 0022     		movs	r2, #0
 1751 0af4 2046     		mov	r0, r4
 1752 0af6 FFF7FEFF 		bl	lv_obj_add_style
 1753              	.LVL227:
1045:Lib/lvgl/src/themes/default/lv_theme_default.c ****         lv_obj_add_style(obj, &theme->styles.outline_secondary, LV_STATE_EDITED);
 1754              		.loc 1 1045 9 is_stmt 1 discriminator 4 view .LVU374
 1755 0afa 0422     		movs	r2, #4
 1756 0afc 05F59871 		add	r1, r5, #304
 1757 0b00 2046     		mov	r0, r4
 1758 0b02 FFF7FEFF 		bl	lv_obj_add_style
 1759              	.LVL228:
1046:Lib/lvgl/src/themes/default/lv_theme_default.c ****         lv_obj_add_style(obj, &theme->styles.btn, LV_PART_ITEMS);
 1760              		.loc 1 1046 9 discriminator 4 view .LVU375
 1761 0b06 0822     		movs	r2, #8
 1762 0b08 05F59E71 		add	r1, r5, #316
 1763 0b0c 2046     		mov	r0, r4
 1764 0b0e FFF7FEFF 		bl	lv_obj_add_style
 1765              	.LVL229:
1047:Lib/lvgl/src/themes/default/lv_theme_default.c ****         lv_obj_add_style(obj, &theme->styles.disabled, LV_PART_ITEMS | LV_STATE_DISABLED);
 1766              		.loc 1 1047 9 discriminator 4 view .LVU376
 1767 0b12 4FF4A022 		mov	r2, #327680
 1768 0b16 05F17001 		add	r1, r5, #112
 1769 0b1a 2046     		mov	r0, r4
 1770 0b1c FFF7FEFF 		bl	lv_obj_add_style
ARM GAS  C:\Users\Alex\AppData\Local\Temp\ccR26jun.s 			page 64


 1771              	.LVL230:
1048:Lib/lvgl/src/themes/default/lv_theme_default.c ****         lv_obj_add_style(obj, &theme->styles.bg_color_white, LV_PART_ITEMS);
 1772              		.loc 1 1048 9 discriminator 4 view .LVU377
 1773 0b20 AD4A     		ldr	r2, .L81+16
 1774 0b22 05F1D001 		add	r1, r5, #208
 1775 0b26 2046     		mov	r0, r4
 1776 0b28 FFF7FEFF 		bl	lv_obj_add_style
 1777              	.LVL231:
1049:Lib/lvgl/src/themes/default/lv_theme_default.c ****         lv_obj_add_style(obj, &theme->styles.keyboard_button_bg, LV_PART_ITEMS);
 1778              		.loc 1 1049 9 discriminator 4 view .LVU378
 1779 0b2c 4FF4A022 		mov	r2, #327680
 1780 0b30 05F1B801 		add	r1, r5, #184
 1781 0b34 2046     		mov	r0, r4
 1782 0b36 FFF7FEFF 		bl	lv_obj_add_style
 1783              	.LVL232:
1050:Lib/lvgl/src/themes/default/lv_theme_default.c ****         lv_obj_add_style(obj, &theme->styles.pressed, LV_PART_ITEMS | LV_STATE_PRESSED);
 1784              		.loc 1 1050 9 discriminator 4 view .LVU379
 1785 0b3a 4FF4A022 		mov	r2, #327680
 1786 0b3e 05F53E71 		add	r1, r5, #760
 1787 0b42 2046     		mov	r0, r4
 1788 0b44 FFF7FEFF 		bl	lv_obj_add_style
 1789              	.LVL233:
1051:Lib/lvgl/src/themes/default/lv_theme_default.c ****         lv_obj_add_style(obj, &theme->styles.bg_color_grey, LV_PART_ITEMS | LV_STATE_CHECKED);
 1790              		.loc 1 1051 9 discriminator 4 view .LVU380
 1791 0b48 A44A     		ldr	r2, .L81+20
 1792 0b4a 05F1C401 		add	r1, r5, #196
 1793 0b4e 2046     		mov	r0, r4
 1794 0b50 FFF7FEFF 		bl	lv_obj_add_style
 1795              	.LVL234:
1052:Lib/lvgl/src/themes/default/lv_theme_default.c ****         lv_obj_add_style(obj, &theme->styles.bg_color_primary_muted, LV_PART_ITEMS | LV_STATE_FOCUS
 1796              		.loc 1 1052 9 discriminator 4 view .LVU381
 1797 0b54 A24A     		ldr	r2, .L81+24
 1798 0b56 05F1AC01 		add	r1, r5, #172
 1799 0b5a 2046     		mov	r0, r4
 1800 0b5c FFF7FEFF 		bl	lv_obj_add_style
 1801              	.LVL235:
1053:Lib/lvgl/src/themes/default/lv_theme_default.c ****         lv_obj_add_style(obj, &theme->styles.bg_color_secondary_muted, LV_PART_ITEMS | LV_STATE_EDI
 1802              		.loc 1 1053 9 discriminator 4 view .LVU382
 1803 0b60 A04A     		ldr	r2, .L81+28
 1804 0b62 05F18801 		add	r1, r5, #136
 1805 0b66 2046     		mov	r0, r4
 1806 0b68 FFF7FEFF 		bl	lv_obj_add_style
 1807              	.LVL236:
1054:Lib/lvgl/src/themes/default/lv_theme_default.c ****     }
 1808              		.loc 1 1054 9 discriminator 4 view .LVU383
 1809 0b6c 9E4A     		ldr	r2, .L81+32
 1810 0b6e 05F1A001 		add	r1, r5, #160
 1811 0b72 2046     		mov	r0, r4
 1812 0b74 FFF7FEFF 		bl	lv_obj_add_style
 1813              	.LVL237:
 1814 0b78 FFF76FBB 		b	.L14
 1815              	.L73:
1044:Lib/lvgl/src/themes/default/lv_theme_default.c ****         lv_obj_add_style(obj, &theme->styles.outline_primary, LV_STATE_FOCUS_KEY);
 1816              		.loc 1 1044 9 is_stmt 0 discriminator 1 view .LVU384
 1817 0b7c 05F1F401 		add	r1, r5, #244
 1818 0b80 B7E7     		b	.L38
 1819              	.L36:
ARM GAS  C:\Users\Alex\AppData\Local\Temp\ccR26jun.s 			page 65


1058:Lib/lvgl/src/themes/default/lv_theme_default.c ****         lv_obj_add_style(obj, &theme->styles.card, 0);
 1820              		.loc 1 1058 10 is_stmt 1 view .LVU385
1058:Lib/lvgl/src/themes/default/lv_theme_default.c ****         lv_obj_add_style(obj, &theme->styles.card, 0);
 1821              		.loc 1 1058 13 is_stmt 0 view .LVU386
 1822 0b82 9A49     		ldr	r1, .L81+36
 1823 0b84 2046     		mov	r0, r4
 1824 0b86 FFF7FEFF 		bl	lv_obj_check_type
 1825              	.LVL238:
1058:Lib/lvgl/src/themes/default/lv_theme_default.c ****         lv_obj_add_style(obj, &theme->styles.card, 0);
 1826              		.loc 1 1058 12 view .LVU387
 1827 0b8a 90B9     		cbnz	r0, .L74
1065:Lib/lvgl/src/themes/default/lv_theme_default.c ****         lv_obj_add_style(obj, &theme->styles.bg_color_grey, 0);
 1828              		.loc 1 1065 10 is_stmt 1 view .LVU388
1065:Lib/lvgl/src/themes/default/lv_theme_default.c ****         lv_obj_add_style(obj, &theme->styles.bg_color_grey, 0);
 1829              		.loc 1 1065 13 is_stmt 0 view .LVU389
 1830 0b8c 9849     		ldr	r1, .L81+40
 1831 0b8e 2046     		mov	r0, r4
 1832 0b90 FFF7FEFF 		bl	lv_obj_check_type
 1833              	.LVL239:
1065:Lib/lvgl/src/themes/default/lv_theme_default.c ****         lv_obj_add_style(obj, &theme->styles.bg_color_grey, 0);
 1834              		.loc 1 1065 12 view .LVU390
 1835 0b94 40B3     		cbz	r0, .L40
1066:Lib/lvgl/src/themes/default/lv_theme_default.c ****         lv_obj_add_style(obj, &theme->styles.list_item_grow, 0);
 1836              		.loc 1 1066 9 is_stmt 1 view .LVU391
 1837 0b96 0022     		movs	r2, #0
 1838 0b98 05F1AC01 		add	r1, r5, #172
 1839 0b9c 2046     		mov	r0, r4
 1840 0b9e FFF7FEFF 		bl	lv_obj_add_style
 1841              	.LVL240:
1067:Lib/lvgl/src/themes/default/lv_theme_default.c ****     }
 1842              		.loc 1 1067 9 view .LVU392
 1843 0ba2 0022     		movs	r2, #0
 1844 0ba4 05F54771 		add	r1, r5, #796
 1845 0ba8 2046     		mov	r0, r4
 1846 0baa FFF7FEFF 		bl	lv_obj_add_style
 1847              	.LVL241:
 1848 0bae FFF754BB 		b	.L14
 1849              	.L74:
1059:Lib/lvgl/src/themes/default/lv_theme_default.c ****         lv_obj_add_style(obj, &theme->styles.list_bg, 0);
 1850              		.loc 1 1059 9 view .LVU393
 1851 0bb2 0022     		movs	r2, #0
 1852 0bb4 05F16401 		add	r1, r5, #100
 1853 0bb8 2046     		mov	r0, r4
 1854 0bba FFF7FEFF 		bl	lv_obj_add_style
 1855              	.LVL242:
1060:Lib/lvgl/src/themes/default/lv_theme_default.c ****         lv_obj_add_style(obj, &theme->styles.scrollbar, LV_PART_SCROLLBAR);
 1856              		.loc 1 1060 9 view .LVU394
 1857 0bbe 0022     		movs	r2, #0
 1858 0bc0 05F54171 		add	r1, r5, #772
 1859 0bc4 2046     		mov	r0, r4
 1860 0bc6 FFF7FEFF 		bl	lv_obj_add_style
 1861              	.LVL243:
1061:Lib/lvgl/src/themes/default/lv_theme_default.c ****         lv_obj_add_style(obj, &theme->styles.scrollbar_scrolled, LV_PART_SCROLLBAR | LV_STATE_SCROL
 1862              		.loc 1 1061 9 view .LVU395
 1863 0bca 4FF48032 		mov	r2, #65536
 1864 0bce 05F14C01 		add	r1, r5, #76
 1865 0bd2 2046     		mov	r0, r4
ARM GAS  C:\Users\Alex\AppData\Local\Temp\ccR26jun.s 			page 66


 1866 0bd4 FFF7FEFF 		bl	lv_obj_add_style
 1867              	.LVL244:
1062:Lib/lvgl/src/themes/default/lv_theme_default.c ****         return;
 1868              		.loc 1 1062 9 view .LVU396
 1869 0bd8 864A     		ldr	r2, .L81+44
 1870 0bda 05F15801 		add	r1, r5, #88
 1871 0bde 2046     		mov	r0, r4
 1872 0be0 FFF7FEFF 		bl	lv_obj_add_style
 1873              	.LVL245:
1063:Lib/lvgl/src/themes/default/lv_theme_default.c ****     }
 1874              		.loc 1 1063 9 view .LVU397
 1875 0be4 FFF776BA 		b	.L5
 1876              	.L40:
1069:Lib/lvgl/src/themes/default/lv_theme_default.c ****         lv_obj_add_style(obj, &theme->styles.bg_color_white, 0);
 1877              		.loc 1 1069 10 view .LVU398
1069:Lib/lvgl/src/themes/default/lv_theme_default.c ****         lv_obj_add_style(obj, &theme->styles.bg_color_white, 0);
 1878              		.loc 1 1069 13 is_stmt 0 view .LVU399
 1879 0be8 8349     		ldr	r1, .L81+48
 1880 0bea 2046     		mov	r0, r4
 1881 0bec FFF7FEFF 		bl	lv_obj_check_type
 1882              	.LVL246:
1069:Lib/lvgl/src/themes/default/lv_theme_default.c ****         lv_obj_add_style(obj, &theme->styles.bg_color_white, 0);
 1883              		.loc 1 1069 12 view .LVU400
 1884 0bf0 28B3     		cbz	r0, .L41
1070:Lib/lvgl/src/themes/default/lv_theme_default.c ****         lv_obj_add_style(obj, &theme->styles.list_btn, 0);
 1885              		.loc 1 1070 9 is_stmt 1 view .LVU401
 1886 0bf2 0022     		movs	r2, #0
 1887 0bf4 05F1B801 		add	r1, r5, #184
 1888 0bf8 2046     		mov	r0, r4
 1889 0bfa FFF7FEFF 		bl	lv_obj_add_style
 1890              	.LVL247:
1071:Lib/lvgl/src/themes/default/lv_theme_default.c ****         lv_obj_add_style(obj, &theme->styles.bg_color_primary, LV_STATE_FOCUS_KEY);
 1891              		.loc 1 1071 9 view .LVU402
 1892 0bfe 0022     		movs	r2, #0
 1893 0c00 05F54471 		add	r1, r5, #784
 1894 0c04 2046     		mov	r0, r4
 1895 0c06 FFF7FEFF 		bl	lv_obj_add_style
 1896              	.LVL248:
1072:Lib/lvgl/src/themes/default/lv_theme_default.c ****         lv_obj_add_style(obj, &theme->styles.list_item_grow, LV_STATE_FOCUS_KEY);
 1897              		.loc 1 1072 9 view .LVU403
 1898 0c0a 0422     		movs	r2, #4
 1899 0c0c 05F17C01 		add	r1, r5, #124
 1900 0c10 2046     		mov	r0, r4
 1901 0c12 FFF7FEFF 		bl	lv_obj_add_style
 1902              	.LVL249:
1073:Lib/lvgl/src/themes/default/lv_theme_default.c ****         lv_obj_add_style(obj, &theme->styles.list_item_grow, LV_STATE_PRESSED);
 1903              		.loc 1 1073 9 view .LVU404
1073:Lib/lvgl/src/themes/default/lv_theme_default.c ****         lv_obj_add_style(obj, &theme->styles.list_item_grow, LV_STATE_PRESSED);
 1904              		.loc 1 1073 31 is_stmt 0 view .LVU405
 1905 0c16 05F54776 		add	r6, r5, #796
1073:Lib/lvgl/src/themes/default/lv_theme_default.c ****         lv_obj_add_style(obj, &theme->styles.list_item_grow, LV_STATE_PRESSED);
 1906              		.loc 1 1073 9 view .LVU406
 1907 0c1a 0422     		movs	r2, #4
 1908 0c1c 3146     		mov	r1, r6
 1909 0c1e 2046     		mov	r0, r4
 1910 0c20 FFF7FEFF 		bl	lv_obj_add_style
 1911              	.LVL250:
ARM GAS  C:\Users\Alex\AppData\Local\Temp\ccR26jun.s 			page 67


1074:Lib/lvgl/src/themes/default/lv_theme_default.c ****         lv_obj_add_style(obj, &theme->styles.pressed, LV_STATE_PRESSED);
 1912              		.loc 1 1074 9 is_stmt 1 view .LVU407
 1913 0c24 2022     		movs	r2, #32
 1914 0c26 3146     		mov	r1, r6
 1915 0c28 2046     		mov	r0, r4
 1916 0c2a FFF7FEFF 		bl	lv_obj_add_style
 1917              	.LVL251:
1075:Lib/lvgl/src/themes/default/lv_theme_default.c **** 
 1918              		.loc 1 1075 9 view .LVU408
 1919 0c2e 2022     		movs	r2, #32
 1920 0c30 05F1C401 		add	r1, r5, #196
 1921 0c34 2046     		mov	r0, r4
 1922 0c36 FFF7FEFF 		bl	lv_obj_add_style
 1923              	.LVL252:
 1924 0c3a FFF70EBB 		b	.L14
 1925              	.L41:
1080:Lib/lvgl/src/themes/default/lv_theme_default.c ****         lv_obj_add_style(obj, &theme->styles.card, 0);
 1926              		.loc 1 1080 10 view .LVU409
1080:Lib/lvgl/src/themes/default/lv_theme_default.c ****         lv_obj_add_style(obj, &theme->styles.card, 0);
 1927              		.loc 1 1080 13 is_stmt 0 view .LVU410
 1928 0c3e 6F49     		ldr	r1, .L81+52
 1929 0c40 2046     		mov	r0, r4
 1930 0c42 FFF7FEFF 		bl	lv_obj_check_type
 1931              	.LVL253:
1080:Lib/lvgl/src/themes/default/lv_theme_default.c ****         lv_obj_add_style(obj, &theme->styles.card, 0);
 1932              		.loc 1 1080 12 view .LVU411
 1933 0c46 68B1     		cbz	r0, .L42
1081:Lib/lvgl/src/themes/default/lv_theme_default.c ****         lv_obj_add_style(obj, &theme->styles.menu_bg, 0);
 1934              		.loc 1 1081 9 is_stmt 1 view .LVU412
 1935 0c48 0022     		movs	r2, #0
 1936 0c4a 05F16401 		add	r1, r5, #100
 1937 0c4e 2046     		mov	r0, r4
 1938 0c50 FFF7FEFF 		bl	lv_obj_add_style
 1939              	.LVL254:
1082:Lib/lvgl/src/themes/default/lv_theme_default.c ****     }
 1940              		.loc 1 1082 9 view .LVU413
 1941 0c54 0022     		movs	r2, #0
 1942 0c56 05F51D71 		add	r1, r5, #628
 1943 0c5a 2046     		mov	r0, r4
 1944 0c5c FFF7FEFF 		bl	lv_obj_add_style
 1945              	.LVL255:
 1946 0c60 FFF7FBBA 		b	.L14
 1947              	.L42:
1084:Lib/lvgl/src/themes/default/lv_theme_default.c ****         lv_obj_add_style(obj, &theme->styles.menu_sidebar_cont, 0);
 1948              		.loc 1 1084 10 view .LVU414
1084:Lib/lvgl/src/themes/default/lv_theme_default.c ****         lv_obj_add_style(obj, &theme->styles.menu_sidebar_cont, 0);
 1949              		.loc 1 1084 13 is_stmt 0 view .LVU415
 1950 0c64 6649     		ldr	r1, .L81+56
 1951 0c66 2046     		mov	r0, r4
 1952 0c68 FFF7FEFF 		bl	lv_obj_check_type
 1953              	.LVL256:
1084:Lib/lvgl/src/themes/default/lv_theme_default.c ****         lv_obj_add_style(obj, &theme->styles.menu_sidebar_cont, 0);
 1954              		.loc 1 1084 12 view .LVU416
 1955 0c6c A0B1     		cbz	r0, .L43
1085:Lib/lvgl/src/themes/default/lv_theme_default.c ****         lv_obj_add_style(obj, &theme->styles.scrollbar, LV_PART_SCROLLBAR);
 1956              		.loc 1 1085 9 is_stmt 1 view .LVU417
 1957 0c6e 0022     		movs	r2, #0
ARM GAS  C:\Users\Alex\AppData\Local\Temp\ccR26jun.s 			page 68


 1958 0c70 05F52371 		add	r1, r5, #652
 1959 0c74 2046     		mov	r0, r4
 1960 0c76 FFF7FEFF 		bl	lv_obj_add_style
 1961              	.LVL257:
1086:Lib/lvgl/src/themes/default/lv_theme_default.c ****         lv_obj_add_style(obj, &theme->styles.scrollbar_scrolled, LV_PART_SCROLLBAR | LV_STATE_SCROL
 1962              		.loc 1 1086 9 view .LVU418
 1963 0c7a 4FF48032 		mov	r2, #65536
 1964 0c7e 05F14C01 		add	r1, r5, #76
 1965 0c82 2046     		mov	r0, r4
 1966 0c84 FFF7FEFF 		bl	lv_obj_add_style
 1967              	.LVL258:
1087:Lib/lvgl/src/themes/default/lv_theme_default.c ****     }
 1968              		.loc 1 1087 9 view .LVU419
 1969 0c88 5A4A     		ldr	r2, .L81+44
 1970 0c8a 05F15801 		add	r1, r5, #88
 1971 0c8e 2046     		mov	r0, r4
 1972 0c90 FFF7FEFF 		bl	lv_obj_add_style
 1973              	.LVL259:
 1974 0c94 FFF7E1BA 		b	.L14
 1975              	.L43:
1089:Lib/lvgl/src/themes/default/lv_theme_default.c ****         lv_obj_add_style(obj, &theme->styles.menu_main_cont, 0);
 1976              		.loc 1 1089 10 view .LVU420
1089:Lib/lvgl/src/themes/default/lv_theme_default.c ****         lv_obj_add_style(obj, &theme->styles.menu_main_cont, 0);
 1977              		.loc 1 1089 13 is_stmt 0 view .LVU421
 1978 0c98 5A49     		ldr	r1, .L81+60
 1979 0c9a 2046     		mov	r0, r4
 1980 0c9c FFF7FEFF 		bl	lv_obj_check_type
 1981              	.LVL260:
1089:Lib/lvgl/src/themes/default/lv_theme_default.c ****         lv_obj_add_style(obj, &theme->styles.menu_main_cont, 0);
 1982              		.loc 1 1089 12 view .LVU422
 1983 0ca0 A0B1     		cbz	r0, .L44
1090:Lib/lvgl/src/themes/default/lv_theme_default.c ****         lv_obj_add_style(obj, &theme->styles.scrollbar, LV_PART_SCROLLBAR);
 1984              		.loc 1 1090 9 is_stmt 1 view .LVU423
 1985 0ca2 0022     		movs	r2, #0
 1986 0ca4 05F52671 		add	r1, r5, #664
 1987 0ca8 2046     		mov	r0, r4
 1988 0caa FFF7FEFF 		bl	lv_obj_add_style
 1989              	.LVL261:
1091:Lib/lvgl/src/themes/default/lv_theme_default.c ****         lv_obj_add_style(obj, &theme->styles.scrollbar_scrolled, LV_PART_SCROLLBAR | LV_STATE_SCROL
 1990              		.loc 1 1091 9 view .LVU424
 1991 0cae 4FF48032 		mov	r2, #65536
 1992 0cb2 05F14C01 		add	r1, r5, #76
 1993 0cb6 2046     		mov	r0, r4
 1994 0cb8 FFF7FEFF 		bl	lv_obj_add_style
 1995              	.LVL262:
1092:Lib/lvgl/src/themes/default/lv_theme_default.c ****     }
 1996              		.loc 1 1092 9 view .LVU425
 1997 0cbc 4D4A     		ldr	r2, .L81+44
 1998 0cbe 05F15801 		add	r1, r5, #88
 1999 0cc2 2046     		mov	r0, r4
 2000 0cc4 FFF7FEFF 		bl	lv_obj_add_style
 2001              	.LVL263:
 2002 0cc8 FFF7C7BA 		b	.L14
 2003              	.L44:
1094:Lib/lvgl/src/themes/default/lv_theme_default.c ****         lv_obj_add_style(obj, &theme->styles.menu_cont, 0);
 2004              		.loc 1 1094 10 view .LVU426
1094:Lib/lvgl/src/themes/default/lv_theme_default.c ****         lv_obj_add_style(obj, &theme->styles.menu_cont, 0);
ARM GAS  C:\Users\Alex\AppData\Local\Temp\ccR26jun.s 			page 69


 2005              		.loc 1 1094 13 is_stmt 0 view .LVU427
 2006 0ccc 4E49     		ldr	r1, .L81+64
 2007 0cce 2046     		mov	r0, r4
 2008 0cd0 FFF7FEFF 		bl	lv_obj_check_type
 2009              	.LVL264:
1094:Lib/lvgl/src/themes/default/lv_theme_default.c ****         lv_obj_add_style(obj, &theme->styles.menu_cont, 0);
 2010              		.loc 1 1094 12 view .LVU428
 2011 0cd4 F8B1     		cbz	r0, .L45
1095:Lib/lvgl/src/themes/default/lv_theme_default.c ****         lv_obj_add_style(obj, &theme->styles.menu_pressed, LV_STATE_PRESSED);
 2012              		.loc 1 1095 9 is_stmt 1 view .LVU429
 2013 0cd6 0022     		movs	r2, #0
 2014 0cd8 05F52071 		add	r1, r5, #640
 2015 0cdc 2046     		mov	r0, r4
 2016 0cde FFF7FEFF 		bl	lv_obj_add_style
 2017              	.LVL265:
1096:Lib/lvgl/src/themes/default/lv_theme_default.c ****         lv_obj_add_style(obj, &theme->styles.bg_color_primary_muted, LV_STATE_PRESSED | LV_STATE_CH
 2018              		.loc 1 1096 9 view .LVU430
 2019 0ce2 2022     		movs	r2, #32
 2020 0ce4 05F53571 		add	r1, r5, #724
 2021 0ce8 2046     		mov	r0, r4
 2022 0cea FFF7FEFF 		bl	lv_obj_add_style
 2023              	.LVL266:
1097:Lib/lvgl/src/themes/default/lv_theme_default.c ****         lv_obj_add_style(obj, &theme->styles.bg_color_primary_muted, LV_STATE_CHECKED);
 2024              		.loc 1 1097 9 view .LVU431
1097:Lib/lvgl/src/themes/default/lv_theme_default.c ****         lv_obj_add_style(obj, &theme->styles.bg_color_primary_muted, LV_STATE_CHECKED);
 2025              		.loc 1 1097 31 is_stmt 0 view .LVU432
 2026 0cee 05F18806 		add	r6, r5, #136
1097:Lib/lvgl/src/themes/default/lv_theme_default.c ****         lv_obj_add_style(obj, &theme->styles.bg_color_primary_muted, LV_STATE_CHECKED);
 2027              		.loc 1 1097 9 view .LVU433
 2028 0cf2 2122     		movs	r2, #33
 2029 0cf4 3146     		mov	r1, r6
 2030 0cf6 2046     		mov	r0, r4
 2031 0cf8 FFF7FEFF 		bl	lv_obj_add_style
 2032              	.LVL267:
1098:Lib/lvgl/src/themes/default/lv_theme_default.c ****         lv_obj_add_style(obj, &theme->styles.bg_color_primary, LV_STATE_FOCUS_KEY);
 2033              		.loc 1 1098 9 is_stmt 1 view .LVU434
 2034 0cfc 0122     		movs	r2, #1
 2035 0cfe 3146     		mov	r1, r6
 2036 0d00 2046     		mov	r0, r4
 2037 0d02 FFF7FEFF 		bl	lv_obj_add_style
 2038              	.LVL268:
1099:Lib/lvgl/src/themes/default/lv_theme_default.c ****     }
 2039              		.loc 1 1099 9 view .LVU435
 2040 0d06 0422     		movs	r2, #4
 2041 0d08 05F17C01 		add	r1, r5, #124
 2042 0d0c 2046     		mov	r0, r4
 2043 0d0e FFF7FEFF 		bl	lv_obj_add_style
 2044              	.LVL269:
 2045 0d12 FFF7A2BA 		b	.L14
 2046              	.L45:
1101:Lib/lvgl/src/themes/default/lv_theme_default.c ****             lv_obj_check_type(obj, &lv_menu_main_header_cont_class)) {
 2047              		.loc 1 1101 10 view .LVU436
1101:Lib/lvgl/src/themes/default/lv_theme_default.c ****             lv_obj_check_type(obj, &lv_menu_main_header_cont_class)) {
 2048              		.loc 1 1101 13 is_stmt 0 view .LVU437
 2049 0d16 3D49     		ldr	r1, .L81+68
 2050 0d18 2046     		mov	r0, r4
 2051 0d1a FFF7FEFF 		bl	lv_obj_check_type
ARM GAS  C:\Users\Alex\AppData\Local\Temp\ccR26jun.s 			page 70


 2052              	.LVL270:
1101:Lib/lvgl/src/themes/default/lv_theme_default.c ****             lv_obj_check_type(obj, &lv_menu_main_header_cont_class)) {
 2053              		.loc 1 1101 12 view .LVU438
 2054 0d1e 20B9     		cbnz	r0, .L46
1102:Lib/lvgl/src/themes/default/lv_theme_default.c ****         lv_obj_add_style(obj, &theme->styles.menu_header_cont, 0);
 2055              		.loc 1 1102 13 discriminator 1 view .LVU439
 2056 0d20 3B49     		ldr	r1, .L81+72
 2057 0d22 2046     		mov	r0, r4
 2058 0d24 FFF7FEFF 		bl	lv_obj_check_type
 2059              	.LVL271:
1101:Lib/lvgl/src/themes/default/lv_theme_default.c ****             lv_obj_check_type(obj, &lv_menu_main_header_cont_class)) {
 2060              		.loc 1 1101 72 discriminator 1 view .LVU440
 2061 0d28 38B1     		cbz	r0, .L47
 2062              	.L46:
1103:Lib/lvgl/src/themes/default/lv_theme_default.c ****     }
 2063              		.loc 1 1103 9 is_stmt 1 view .LVU441
 2064 0d2a 0022     		movs	r2, #0
 2065 0d2c 05F52C71 		add	r1, r5, #688
 2066 0d30 2046     		mov	r0, r4
 2067 0d32 FFF7FEFF 		bl	lv_obj_add_style
 2068              	.LVL272:
 2069 0d36 FFF790BA 		b	.L14
 2070              	.L47:
1105:Lib/lvgl/src/themes/default/lv_theme_default.c ****         lv_obj_add_style(obj, &theme->styles.menu_page, 0);
 2071              		.loc 1 1105 10 view .LVU442
1105:Lib/lvgl/src/themes/default/lv_theme_default.c ****         lv_obj_add_style(obj, &theme->styles.menu_page, 0);
 2072              		.loc 1 1105 13 is_stmt 0 view .LVU443
 2073 0d3a 3649     		ldr	r1, .L81+76
 2074 0d3c 2046     		mov	r0, r4
 2075 0d3e FFF7FEFF 		bl	lv_obj_check_type
 2076              	.LVL273:
1105:Lib/lvgl/src/themes/default/lv_theme_default.c ****         lv_obj_add_style(obj, &theme->styles.menu_page, 0);
 2077              		.loc 1 1105 12 view .LVU444
 2078 0d42 A0B1     		cbz	r0, .L48
1106:Lib/lvgl/src/themes/default/lv_theme_default.c ****         lv_obj_add_style(obj, &theme->styles.scrollbar, LV_PART_SCROLLBAR);
 2079              		.loc 1 1106 9 is_stmt 1 view .LVU445
 2080 0d44 0022     		movs	r2, #0
 2081 0d46 05F52971 		add	r1, r5, #676
 2082 0d4a 2046     		mov	r0, r4
 2083 0d4c FFF7FEFF 		bl	lv_obj_add_style
 2084              	.LVL274:
1107:Lib/lvgl/src/themes/default/lv_theme_default.c ****         lv_obj_add_style(obj, &theme->styles.scrollbar_scrolled, LV_PART_SCROLLBAR | LV_STATE_SCROL
 2085              		.loc 1 1107 9 view .LVU446
 2086 0d50 4FF48032 		mov	r2, #65536
 2087 0d54 05F14C01 		add	r1, r5, #76
 2088 0d58 2046     		mov	r0, r4
 2089 0d5a FFF7FEFF 		bl	lv_obj_add_style
 2090              	.LVL275:
1108:Lib/lvgl/src/themes/default/lv_theme_default.c ****     }
 2091              		.loc 1 1108 9 view .LVU447
 2092 0d5e 254A     		ldr	r2, .L81+44
 2093 0d60 05F15801 		add	r1, r5, #88
 2094 0d64 2046     		mov	r0, r4
 2095 0d66 FFF7FEFF 		bl	lv_obj_add_style
 2096              	.LVL276:
 2097 0d6a FFF776BA 		b	.L14
 2098              	.L48:
ARM GAS  C:\Users\Alex\AppData\Local\Temp\ccR26jun.s 			page 71


1110:Lib/lvgl/src/themes/default/lv_theme_default.c ****         lv_obj_add_style(obj, &theme->styles.menu_section, 0);
 2099              		.loc 1 1110 10 view .LVU448
1110:Lib/lvgl/src/themes/default/lv_theme_default.c ****         lv_obj_add_style(obj, &theme->styles.menu_section, 0);
 2100              		.loc 1 1110 13 is_stmt 0 view .LVU449
 2101 0d6e 2A49     		ldr	r1, .L81+80
 2102 0d70 2046     		mov	r0, r4
 2103 0d72 FFF7FEFF 		bl	lv_obj_check_type
 2104              	.LVL277:
1110:Lib/lvgl/src/themes/default/lv_theme_default.c ****         lv_obj_add_style(obj, &theme->styles.menu_section, 0);
 2105              		.loc 1 1110 12 view .LVU450
 2106 0d76 38B1     		cbz	r0, .L49
1111:Lib/lvgl/src/themes/default/lv_theme_default.c ****     }
 2107              		.loc 1 1111 9 is_stmt 1 view .LVU451
 2108 0d78 0022     		movs	r2, #0
 2109 0d7a 05F53271 		add	r1, r5, #712
 2110 0d7e 2046     		mov	r0, r4
 2111 0d80 FFF7FEFF 		bl	lv_obj_add_style
 2112              	.LVL278:
 2113 0d84 FFF769BA 		b	.L14
 2114              	.L49:
1113:Lib/lvgl/src/themes/default/lv_theme_default.c ****         lv_obj_add_style(obj, &theme->styles.menu_separator, 0);
 2115              		.loc 1 1113 10 view .LVU452
1113:Lib/lvgl/src/themes/default/lv_theme_default.c ****         lv_obj_add_style(obj, &theme->styles.menu_separator, 0);
 2116              		.loc 1 1113 13 is_stmt 0 view .LVU453
 2117 0d88 2449     		ldr	r1, .L81+84
 2118 0d8a 2046     		mov	r0, r4
 2119 0d8c FFF7FEFF 		bl	lv_obj_check_type
 2120              	.LVL279:
1113:Lib/lvgl/src/themes/default/lv_theme_default.c ****         lv_obj_add_style(obj, &theme->styles.menu_separator, 0);
 2121              		.loc 1 1113 12 view .LVU454
 2122 0d90 38B1     		cbz	r0, .L50
1114:Lib/lvgl/src/themes/default/lv_theme_default.c ****     }
 2123              		.loc 1 1114 9 is_stmt 1 view .LVU455
 2124 0d92 0022     		movs	r2, #0
 2125 0d94 05F53871 		add	r1, r5, #736
 2126 0d98 2046     		mov	r0, r4
 2127 0d9a FFF7FEFF 		bl	lv_obj_add_style
 2128              	.LVL280:
 2129 0d9e FFF75CBA 		b	.L14
 2130              	.L50:
1118:Lib/lvgl/src/themes/default/lv_theme_default.c ****         lv_obj_add_style(obj, &theme->styles.card, 0);
 2131              		.loc 1 1118 10 view .LVU456
1118:Lib/lvgl/src/themes/default/lv_theme_default.c ****         lv_obj_add_style(obj, &theme->styles.card, 0);
 2132              		.loc 1 1118 13 is_stmt 0 view .LVU457
 2133 0da2 1F49     		ldr	r1, .L81+88
 2134 0da4 2046     		mov	r0, r4
 2135 0da6 FFF7FEFF 		bl	lv_obj_check_type
 2136              	.LVL281:
1118:Lib/lvgl/src/themes/default/lv_theme_default.c ****         lv_obj_add_style(obj, &theme->styles.card, 0);
 2137              		.loc 1 1118 12 view .LVU458
 2138 0daa D8B3     		cbz	r0, .L51
1119:Lib/lvgl/src/themes/default/lv_theme_default.c ****         lv_obj_add_style(obj, &theme->styles.pad_zero, 0);
 2139              		.loc 1 1119 9 is_stmt 1 view .LVU459
 2140 0dac 0022     		movs	r2, #0
 2141 0dae 05F16401 		add	r1, r5, #100
 2142 0db2 2046     		mov	r0, r4
 2143 0db4 FFF7FEFF 		bl	lv_obj_add_style
ARM GAS  C:\Users\Alex\AppData\Local\Temp\ccR26jun.s 			page 72


 2144              	.LVL282:
1120:Lib/lvgl/src/themes/default/lv_theme_default.c ****         return;
 2145              		.loc 1 1120 9 view .LVU460
 2146 0db8 0022     		movs	r2, #0
 2147 0dba 05F1DC01 		add	r1, r5, #220
 2148 0dbe 2046     		mov	r0, r4
 2149 0dc0 FFF7FEFF 		bl	lv_obj_add_style
 2150              	.LVL283:
1121:Lib/lvgl/src/themes/default/lv_theme_default.c ****     }
 2151              		.loc 1 1121 9 view .LVU461
 2152 0dc4 FFF786B9 		b	.L5
 2153              	.L82:
 2154              		.align	2
 2155              	.L81:
 2156 0dc8 00000000 		.word	lv_calendar_class
 2157 0dcc 00000000 		.word	lv_calendar_header_arrow_class
 2158 0dd0 00000000 		.word	lv_calendar_header_dropdown_class
 2159 0dd4 00000000 		.word	lv_keyboard_class
 2160 0dd8 80000500 		.word	327808
 2161 0ddc 20000500 		.word	327712
 2162 0de0 01000500 		.word	327681
 2163 0de4 04000500 		.word	327684
 2164 0de8 08000500 		.word	327688
 2165 0dec 00000000 		.word	lv_list_class
 2166 0df0 00000000 		.word	lv_list_text_class
 2167 0df4 40000100 		.word	65600
 2168 0df8 00000000 		.word	lv_list_button_class
 2169 0dfc 00000000 		.word	lv_menu_class
 2170 0e00 00000000 		.word	lv_menu_sidebar_cont_class
 2171 0e04 00000000 		.word	lv_menu_main_cont_class
 2172 0e08 00000000 		.word	lv_menu_cont_class
 2173 0e0c 00000000 		.word	lv_menu_sidebar_header_cont_class
 2174 0e10 00000000 		.word	lv_menu_main_header_cont_class
 2175 0e14 00000000 		.word	lv_menu_page_class
 2176 0e18 00000000 		.word	lv_menu_section_class
 2177 0e1c 00000000 		.word	lv_menu_separator_class
 2178 0e20 00000000 		.word	lv_msgbox_class
 2179              	.L51:
1123:Lib/lvgl/src/themes/default/lv_theme_default.c ****         lv_obj_add_style(obj, &theme->styles.msgbox_backdrop_bg, 0);
 2180              		.loc 1 1123 10 view .LVU462
1123:Lib/lvgl/src/themes/default/lv_theme_default.c ****         lv_obj_add_style(obj, &theme->styles.msgbox_backdrop_bg, 0);
 2181              		.loc 1 1123 13 is_stmt 0 view .LVU463
 2182 0e24 7449     		ldr	r1, .L83
 2183 0e26 2046     		mov	r0, r4
 2184 0e28 FFF7FEFF 		bl	lv_obj_check_type
 2185              	.LVL284:
1123:Lib/lvgl/src/themes/default/lv_theme_default.c ****         lv_obj_add_style(obj, &theme->styles.msgbox_backdrop_bg, 0);
 2186              		.loc 1 1123 12 view .LVU464
 2187 0e2c 38B1     		cbz	r0, .L52
1124:Lib/lvgl/src/themes/default/lv_theme_default.c ****         return;
 2188              		.loc 1 1124 9 is_stmt 1 view .LVU465
 2189 0e2e 0022     		movs	r2, #0
 2190 0e30 05F53B71 		add	r1, r5, #748
 2191 0e34 2046     		mov	r0, r4
 2192 0e36 FFF7FEFF 		bl	lv_obj_add_style
 2193              	.LVL285:
1125:Lib/lvgl/src/themes/default/lv_theme_default.c ****     }
ARM GAS  C:\Users\Alex\AppData\Local\Temp\ccR26jun.s 			page 73


 2194              		.loc 1 1125 9 view .LVU466
 2195 0e3a FFF74BB9 		b	.L5
 2196              	.L52:
1127:Lib/lvgl/src/themes/default/lv_theme_default.c ****         lv_obj_add_style(obj, &theme->styles.pad_tiny, 0);
 2197              		.loc 1 1127 10 view .LVU467
1127:Lib/lvgl/src/themes/default/lv_theme_default.c ****         lv_obj_add_style(obj, &theme->styles.pad_tiny, 0);
 2198              		.loc 1 1127 13 is_stmt 0 view .LVU468
 2199 0e3e 6F49     		ldr	r1, .L83+4
 2200 0e40 2046     		mov	r0, r4
 2201 0e42 FFF7FEFF 		bl	lv_obj_check_type
 2202              	.LVL286:
1127:Lib/lvgl/src/themes/default/lv_theme_default.c ****         lv_obj_add_style(obj, &theme->styles.pad_tiny, 0);
 2203              		.loc 1 1127 12 view .LVU469
 2204 0e46 68B1     		cbz	r0, .L53
1128:Lib/lvgl/src/themes/default/lv_theme_default.c ****         lv_obj_add_style(obj, &theme->styles.bg_color_grey, 0);
 2205              		.loc 1 1128 9 is_stmt 1 view .LVU470
 2206 0e48 0022     		movs	r2, #0
 2207 0e4a 05F1E801 		add	r1, r5, #232
 2208 0e4e 2046     		mov	r0, r4
 2209 0e50 FFF7FEFF 		bl	lv_obj_add_style
 2210              	.LVL287:
1129:Lib/lvgl/src/themes/default/lv_theme_default.c ****         return;
 2211              		.loc 1 1129 9 view .LVU471
 2212 0e54 0022     		movs	r2, #0
 2213 0e56 05F1AC01 		add	r1, r5, #172
 2214 0e5a 2046     		mov	r0, r4
 2215 0e5c FFF7FEFF 		bl	lv_obj_add_style
 2216              	.LVL288:
1130:Lib/lvgl/src/themes/default/lv_theme_default.c ****     }
 2217              		.loc 1 1130 9 view .LVU472
 2218 0e60 FFF738B9 		b	.L5
 2219              	.L53:
1132:Lib/lvgl/src/themes/default/lv_theme_default.c ****         lv_obj_add_style(obj, &theme->styles.pad_tiny, 0);
 2220              		.loc 1 1132 10 view .LVU473
1132:Lib/lvgl/src/themes/default/lv_theme_default.c ****         lv_obj_add_style(obj, &theme->styles.pad_tiny, 0);
 2221              		.loc 1 1132 13 is_stmt 0 view .LVU474
 2222 0e64 6649     		ldr	r1, .L83+8
 2223 0e66 2046     		mov	r0, r4
 2224 0e68 FFF7FEFF 		bl	lv_obj_check_type
 2225              	.LVL289:
1132:Lib/lvgl/src/themes/default/lv_theme_default.c ****         lv_obj_add_style(obj, &theme->styles.pad_tiny, 0);
 2226              		.loc 1 1132 12 view .LVU475
 2227 0e6c 38B1     		cbz	r0, .L54
1133:Lib/lvgl/src/themes/default/lv_theme_default.c ****         return;
 2228              		.loc 1 1133 9 is_stmt 1 view .LVU476
 2229 0e6e 0022     		movs	r2, #0
 2230 0e70 05F1E801 		add	r1, r5, #232
 2231 0e74 2046     		mov	r0, r4
 2232 0e76 FFF7FEFF 		bl	lv_obj_add_style
 2233              	.LVL290:
1134:Lib/lvgl/src/themes/default/lv_theme_default.c ****     }
 2234              		.loc 1 1134 9 view .LVU477
 2235 0e7a FFF72BB9 		b	.L5
 2236              	.L54:
1136:Lib/lvgl/src/themes/default/lv_theme_default.c ****             lv_obj_check_type(obj, &lv_msgbox_footer_button_class)) {
 2237              		.loc 1 1136 10 view .LVU478
1136:Lib/lvgl/src/themes/default/lv_theme_default.c ****             lv_obj_check_type(obj, &lv_msgbox_footer_button_class)) {
ARM GAS  C:\Users\Alex\AppData\Local\Temp\ccR26jun.s 			page 74


 2238              		.loc 1 1136 13 is_stmt 0 view .LVU479
 2239 0e7e 6149     		ldr	r1, .L83+12
 2240 0e80 2046     		mov	r0, r4
 2241 0e82 FFF7FEFF 		bl	lv_obj_check_type
 2242              	.LVL291:
1136:Lib/lvgl/src/themes/default/lv_theme_default.c ****             lv_obj_check_type(obj, &lv_msgbox_footer_button_class)) {
 2243              		.loc 1 1136 12 view .LVU480
 2244 0e86 30B9     		cbnz	r0, .L55
1137:Lib/lvgl/src/themes/default/lv_theme_default.c ****         lv_obj_add_style(obj, &theme->styles.btn, 0);
 2245              		.loc 1 1137 13 discriminator 1 view .LVU481
 2246 0e88 5F49     		ldr	r1, .L83+16
 2247 0e8a 2046     		mov	r0, r4
 2248 0e8c FFF7FEFF 		bl	lv_obj_check_type
 2249              	.LVL292:
1136:Lib/lvgl/src/themes/default/lv_theme_default.c ****             lv_obj_check_type(obj, &lv_msgbox_footer_button_class)) {
 2250              		.loc 1 1136 68 discriminator 1 view .LVU482
 2251 0e90 0028     		cmp	r0, #0
 2252 0e92 3FF4E2A9 		beq	.L14
 2253              	.L55:
1138:Lib/lvgl/src/themes/default/lv_theme_default.c ****         lv_obj_add_style(obj, &theme->styles.bg_color_primary, 0);
 2254              		.loc 1 1138 9 is_stmt 1 view .LVU483
 2255 0e96 0022     		movs	r2, #0
 2256 0e98 05F17001 		add	r1, r5, #112
 2257 0e9c 2046     		mov	r0, r4
 2258 0e9e FFF7FEFF 		bl	lv_obj_add_style
 2259              	.LVL293:
1139:Lib/lvgl/src/themes/default/lv_theme_default.c ****         lv_obj_add_style(obj, &theme->styles.transition_delayed, 0);
 2260              		.loc 1 1139 9 view .LVU484
 2261 0ea2 0022     		movs	r2, #0
 2262 0ea4 05F17C01 		add	r1, r5, #124
 2263 0ea8 2046     		mov	r0, r4
 2264 0eaa FFF7FEFF 		bl	lv_obj_add_style
 2265              	.LVL294:
1140:Lib/lvgl/src/themes/default/lv_theme_default.c ****         lv_obj_add_style(obj, &theme->styles.pressed, LV_STATE_PRESSED);
 2266              		.loc 1 1140 9 view .LVU485
 2267 0eae 0022     		movs	r2, #0
 2268 0eb0 05F5BC71 		add	r1, r5, #376
 2269 0eb4 2046     		mov	r0, r4
 2270 0eb6 FFF7FEFF 		bl	lv_obj_add_style
 2271              	.LVL295:
1141:Lib/lvgl/src/themes/default/lv_theme_default.c ****         lv_obj_add_style(obj, &theme->styles.transition_normal, LV_STATE_PRESSED);
 2272              		.loc 1 1141 9 view .LVU486
 2273 0eba 2022     		movs	r2, #32
 2274 0ebc 05F1C401 		add	r1, r5, #196
 2275 0ec0 2046     		mov	r0, r4
 2276 0ec2 FFF7FEFF 		bl	lv_obj_add_style
 2277              	.LVL296:
1142:Lib/lvgl/src/themes/default/lv_theme_default.c ****         lv_obj_add_style(obj, &theme->styles.outline_primary, LV_STATE_FOCUS_KEY);
 2278              		.loc 1 1142 9 view .LVU487
 2279 0ec6 2022     		movs	r2, #32
 2280 0ec8 05F5C271 		add	r1, r5, #388
 2281 0ecc 2046     		mov	r0, r4
 2282 0ece FFF7FEFF 		bl	lv_obj_add_style
 2283              	.LVL297:
1143:Lib/lvgl/src/themes/default/lv_theme_default.c ****         lv_obj_add_style(obj, &theme->styles.bg_color_secondary, LV_STATE_CHECKED);
 2284              		.loc 1 1143 9 view .LVU488
 2285 0ed2 0422     		movs	r2, #4
ARM GAS  C:\Users\Alex\AppData\Local\Temp\ccR26jun.s 			page 75


 2286 0ed4 05F59871 		add	r1, r5, #304
 2287 0ed8 2046     		mov	r0, r4
 2288 0eda FFF7FEFF 		bl	lv_obj_add_style
 2289              	.LVL298:
1144:Lib/lvgl/src/themes/default/lv_theme_default.c ****         lv_obj_add_style(obj, &theme->styles.disabled, LV_STATE_DISABLED);
 2290              		.loc 1 1144 9 view .LVU489
 2291 0ede 0122     		movs	r2, #1
 2292 0ee0 05F19401 		add	r1, r5, #148
 2293 0ee4 2046     		mov	r0, r4
 2294 0ee6 FFF7FEFF 		bl	lv_obj_add_style
 2295              	.LVL299:
1145:Lib/lvgl/src/themes/default/lv_theme_default.c ****         return;
 2296              		.loc 1 1145 9 view .LVU490
 2297 0eea 8022     		movs	r2, #128
 2298 0eec 05F1D001 		add	r1, r5, #208
 2299 0ef0 2046     		mov	r0, r4
 2300 0ef2 FFF7FEFF 		bl	lv_obj_add_style
 2301              	.LVL300:
1146:Lib/lvgl/src/themes/default/lv_theme_default.c ****     }
 2302              		.loc 1 1146 9 view .LVU491
 2303 0ef6 FFF7EDB8 		b	.L5
 2304              	.L71:
1150:Lib/lvgl/src/themes/default/lv_theme_default.c ****         return;
 2305              		.loc 1 1150 9 view .LVU492
 2306 0efa 0022     		movs	r2, #0
 2307 0efc 05F1E801 		add	r1, r5, #232
 2308 0f00 2046     		mov	r0, r4
 2309 0f02 FFF7FEFF 		bl	lv_obj_add_style
 2310              	.LVL301:
1151:Lib/lvgl/src/themes/default/lv_theme_default.c ****     }
 2311              		.loc 1 1151 9 view .LVU493
 2312 0f06 FFF7E5B8 		b	.L5
 2313              	.L57:
1166:Lib/lvgl/src/themes/default/lv_theme_default.c ****         lv_obj_add_style(obj, &theme->styles.scr, 0);
 2314              		.loc 1 1166 10 view .LVU494
1166:Lib/lvgl/src/themes/default/lv_theme_default.c ****         lv_obj_add_style(obj, &theme->styles.scr, 0);
 2315              		.loc 1 1166 13 is_stmt 0 view .LVU495
 2316 0f0a 4049     		ldr	r1, .L83+20
 2317 0f0c 2046     		mov	r0, r4
 2318 0f0e FFF7FEFF 		bl	lv_obj_check_type
 2319              	.LVL302:
1166:Lib/lvgl/src/themes/default/lv_theme_default.c ****         lv_obj_add_style(obj, &theme->styles.scr, 0);
 2320              		.loc 1 1166 12 view .LVU496
 2321 0f12 A0B1     		cbz	r0, .L58
1167:Lib/lvgl/src/themes/default/lv_theme_default.c ****         lv_obj_add_style(obj, &theme->styles.scrollbar, LV_PART_SCROLLBAR);
 2322              		.loc 1 1167 9 is_stmt 1 view .LVU497
 2323 0f14 0022     		movs	r2, #0
 2324 0f16 05F14001 		add	r1, r5, #64
 2325 0f1a 2046     		mov	r0, r4
 2326 0f1c FFF7FEFF 		bl	lv_obj_add_style
 2327              	.LVL303:
1168:Lib/lvgl/src/themes/default/lv_theme_default.c ****         lv_obj_add_style(obj, &theme->styles.scrollbar_scrolled, LV_PART_SCROLLBAR | LV_STATE_SCROL
 2328              		.loc 1 1168 9 view .LVU498
 2329 0f20 4FF48032 		mov	r2, #65536
 2330 0f24 05F14C01 		add	r1, r5, #76
 2331 0f28 2046     		mov	r0, r4
 2332 0f2a FFF7FEFF 		bl	lv_obj_add_style
ARM GAS  C:\Users\Alex\AppData\Local\Temp\ccR26jun.s 			page 76


 2333              	.LVL304:
1169:Lib/lvgl/src/themes/default/lv_theme_default.c ****     }
 2334              		.loc 1 1169 9 view .LVU499
 2335 0f2e 384A     		ldr	r2, .L83+24
 2336 0f30 05F15801 		add	r1, r5, #88
 2337 0f34 2046     		mov	r0, r4
 2338 0f36 FFF7FEFF 		bl	lv_obj_add_style
 2339              	.LVL305:
 2340 0f3a FFF7CBB8 		b	.L5
 2341              	.L58:
1171:Lib/lvgl/src/themes/default/lv_theme_default.c ****         lv_obj_add_style(obj, &theme->styles.scrollbar, LV_PART_SCROLLBAR);
 2342              		.loc 1 1171 10 view .LVU500
1171:Lib/lvgl/src/themes/default/lv_theme_default.c ****         lv_obj_add_style(obj, &theme->styles.scrollbar, LV_PART_SCROLLBAR);
 2343              		.loc 1 1171 13 is_stmt 0 view .LVU501
 2344 0f3e 3549     		ldr	r1, .L83+28
 2345 0f40 2046     		mov	r0, r4
 2346 0f42 FFF7FEFF 		bl	lv_obj_check_type
 2347              	.LVL306:
1171:Lib/lvgl/src/themes/default/lv_theme_default.c ****         lv_obj_add_style(obj, &theme->styles.scrollbar, LV_PART_SCROLLBAR);
 2348              		.loc 1 1171 12 view .LVU502
 2349 0f46 70B1     		cbz	r0, .L59
1172:Lib/lvgl/src/themes/default/lv_theme_default.c ****         lv_obj_add_style(obj, &theme->styles.scrollbar_scrolled, LV_PART_SCROLLBAR | LV_STATE_SCROL
 2350              		.loc 1 1172 9 is_stmt 1 view .LVU503
 2351 0f48 4FF48032 		mov	r2, #65536
 2352 0f4c 05F14C01 		add	r1, r5, #76
 2353 0f50 2046     		mov	r0, r4
 2354 0f52 FFF7FEFF 		bl	lv_obj_add_style
 2355              	.LVL307:
1173:Lib/lvgl/src/themes/default/lv_theme_default.c ****     }
 2356              		.loc 1 1173 9 view .LVU504
 2357 0f56 2E4A     		ldr	r2, .L83+24
 2358 0f58 05F15801 		add	r1, r5, #88
 2359 0f5c 2046     		mov	r0, r4
 2360 0f5e FFF7FEFF 		bl	lv_obj_add_style
 2361              	.LVL308:
 2362 0f62 FFF7B7B8 		b	.L5
 2363              	.L59:
1178:Lib/lvgl/src/themes/default/lv_theme_default.c ****         lv_obj_add_style(obj, &theme->styles.scr, 0);
 2364              		.loc 1 1178 10 view .LVU505
1178:Lib/lvgl/src/themes/default/lv_theme_default.c ****         lv_obj_add_style(obj, &theme->styles.scr, 0);
 2365              		.loc 1 1178 13 is_stmt 0 view .LVU506
 2366 0f66 2C49     		ldr	r1, .L83+32
 2367 0f68 2046     		mov	r0, r4
 2368 0f6a FFF7FEFF 		bl	lv_obj_check_type
 2369              	.LVL309:
1178:Lib/lvgl/src/themes/default/lv_theme_default.c ****         lv_obj_add_style(obj, &theme->styles.scr, 0);
 2370              		.loc 1 1178 12 view .LVU507
 2371 0f6e 68B1     		cbz	r0, .L60
1179:Lib/lvgl/src/themes/default/lv_theme_default.c ****         lv_obj_add_style(obj, &theme->styles.pad_zero, 0);
 2372              		.loc 1 1179 9 is_stmt 1 view .LVU508
 2373 0f70 0022     		movs	r2, #0
 2374 0f72 05F14001 		add	r1, r5, #64
 2375 0f76 2046     		mov	r0, r4
 2376 0f78 FFF7FEFF 		bl	lv_obj_add_style
 2377              	.LVL310:
1180:Lib/lvgl/src/themes/default/lv_theme_default.c ****     }
 2378              		.loc 1 1180 9 view .LVU509
ARM GAS  C:\Users\Alex\AppData\Local\Temp\ccR26jun.s 			page 77


 2379 0f7c 0022     		movs	r2, #0
 2380 0f7e 05F1DC01 		add	r1, r5, #220
 2381 0f82 2046     		mov	r0, r4
 2382 0f84 FFF7FEFF 		bl	lv_obj_add_style
 2383              	.LVL311:
 2384 0f88 FFF7A4B8 		b	.L5
 2385              	.L60:
1185:Lib/lvgl/src/themes/default/lv_theme_default.c ****         lv_obj_add_style(obj, &theme->styles.clip_corner, 0);
 2386              		.loc 1 1185 10 view .LVU510
1185:Lib/lvgl/src/themes/default/lv_theme_default.c ****         lv_obj_add_style(obj, &theme->styles.clip_corner, 0);
 2387              		.loc 1 1185 13 is_stmt 0 view .LVU511
 2388 0f8c 2349     		ldr	r1, .L83+36
 2389 0f8e 2046     		mov	r0, r4
 2390 0f90 FFF7FEFF 		bl	lv_obj_check_type
 2391              	.LVL312:
1185:Lib/lvgl/src/themes/default/lv_theme_default.c ****         lv_obj_add_style(obj, &theme->styles.clip_corner, 0);
 2392              		.loc 1 1185 12 view .LVU512
 2393 0f94 38B1     		cbz	r0, .L61
1186:Lib/lvgl/src/themes/default/lv_theme_default.c ****     }
 2394              		.loc 1 1186 9 is_stmt 1 view .LVU513
 2395 0f96 0022     		movs	r2, #0
 2396 0f98 05F5B071 		add	r1, r5, #352
 2397 0f9c 2046     		mov	r0, r4
 2398 0f9e FFF7FEFF 		bl	lv_obj_add_style
 2399              	.LVL313:
 2400 0fa2 FFF797B8 		b	.L5
 2401              	.L61:
1191:Lib/lvgl/src/themes/default/lv_theme_default.c ****         lv_obj_add_style(obj, &theme->styles.led, 0);
 2402              		.loc 1 1191 10 view .LVU514
1191:Lib/lvgl/src/themes/default/lv_theme_default.c ****         lv_obj_add_style(obj, &theme->styles.led, 0);
 2403              		.loc 1 1191 13 is_stmt 0 view .LVU515
 2404 0fa6 1E49     		ldr	r1, .L83+40
 2405 0fa8 2046     		mov	r0, r4
 2406 0faa FFF7FEFF 		bl	lv_obj_check_type
 2407              	.LVL314:
1191:Lib/lvgl/src/themes/default/lv_theme_default.c ****         lv_obj_add_style(obj, &theme->styles.led, 0);
 2408              		.loc 1 1191 12 view .LVU516
 2409 0fae 38B1     		cbz	r0, .L62
1192:Lib/lvgl/src/themes/default/lv_theme_default.c ****     }
 2410              		.loc 1 1192 9 is_stmt 1 view .LVU517
 2411 0fb0 0022     		movs	r2, #0
 2412 0fb2 05F55071 		add	r1, r5, #832
 2413 0fb6 2046     		mov	r0, r4
 2414 0fb8 FFF7FEFF 		bl	lv_obj_add_style
 2415              	.LVL315:
 2416 0fbc FFF78AB8 		b	.L5
 2417              	.L62:
1197:Lib/lvgl/src/themes/default/lv_theme_default.c ****         lv_obj_add_style(obj, &theme->styles.scale, LV_PART_MAIN);
 2418              		.loc 1 1197 10 view .LVU518
1197:Lib/lvgl/src/themes/default/lv_theme_default.c ****         lv_obj_add_style(obj, &theme->styles.scale, LV_PART_MAIN);
 2419              		.loc 1 1197 13 is_stmt 0 view .LVU519
 2420 0fc0 1849     		ldr	r1, .L83+44
 2421 0fc2 2046     		mov	r0, r4
 2422 0fc4 FFF7FEFF 		bl	lv_obj_check_type
 2423              	.LVL316:
1197:Lib/lvgl/src/themes/default/lv_theme_default.c ****         lv_obj_add_style(obj, &theme->styles.scale, LV_PART_MAIN);
 2424              		.loc 1 1197 12 view .LVU520
ARM GAS  C:\Users\Alex\AppData\Local\Temp\ccR26jun.s 			page 78


 2425 0fc8 0028     		cmp	r0, #0
 2426 0fca 3FF483A8 		beq	.L5
1198:Lib/lvgl/src/themes/default/lv_theme_default.c ****         lv_obj_add_style(obj, &theme->styles.scale, LV_PART_INDICATOR);
 2427              		.loc 1 1198 9 is_stmt 1 view .LVU521
1198:Lib/lvgl/src/themes/default/lv_theme_default.c ****         lv_obj_add_style(obj, &theme->styles.scale, LV_PART_INDICATOR);
 2428              		.loc 1 1198 31 is_stmt 0 view .LVU522
 2429 0fce 05F55375 		add	r5, r5, #844
 2430              	.LVL317:
1198:Lib/lvgl/src/themes/default/lv_theme_default.c ****         lv_obj_add_style(obj, &theme->styles.scale, LV_PART_INDICATOR);
 2431              		.loc 1 1198 9 view .LVU523
 2432 0fd2 0022     		movs	r2, #0
 2433 0fd4 2946     		mov	r1, r5
 2434 0fd6 2046     		mov	r0, r4
 2435 0fd8 FFF7FEFF 		bl	lv_obj_add_style
 2436              	.LVL318:
1199:Lib/lvgl/src/themes/default/lv_theme_default.c ****         lv_obj_add_style(obj, &theme->styles.scale, LV_PART_ITEMS);
 2437              		.loc 1 1199 9 is_stmt 1 view .LVU524
 2438 0fdc 4FF40032 		mov	r2, #131072
 2439 0fe0 2946     		mov	r1, r5
 2440 0fe2 2046     		mov	r0, r4
 2441 0fe4 FFF7FEFF 		bl	lv_obj_add_style
 2442              	.LVL319:
1200:Lib/lvgl/src/themes/default/lv_theme_default.c ****     }
 2443              		.loc 1 1200 9 view .LVU525
 2444 0fe8 4FF4A022 		mov	r2, #327680
 2445 0fec 2946     		mov	r1, r5
 2446 0fee 2046     		mov	r0, r4
 2447 0ff0 FFF7FEFF 		bl	lv_obj_add_style
 2448              	.LVL320:
 2449 0ff4 FFF76EB8 		b	.L5
 2450              	.L84:
 2451              		.align	2
 2452              	.L83:
 2453 0ff8 00000000 		.word	lv_msgbox_backdrop_class
 2454 0ffc 00000000 		.word	lv_msgbox_header_class
 2455 1000 00000000 		.word	lv_msgbox_footer_class
 2456 1004 00000000 		.word	lv_msgbox_header_button_class
 2457 1008 00000000 		.word	lv_msgbox_footer_button_class
 2458 100c 00000000 		.word	lv_tileview_class
 2459 1010 40000100 		.word	65600
 2460 1014 00000000 		.word	lv_tileview_tile_class
 2461 1018 00000000 		.word	lv_tabview_class
 2462 101c 00000000 		.word	lv_win_class
 2463 1020 00000000 		.word	lv_led_class
 2464 1024 00000000 		.word	lv_scale_class
 2465              		.cfi_endproc
 2466              	.LFE263:
 2468              		.section	.text.grey_filter_cb,"ax",%progbits
 2469              		.align	1
 2470              		.syntax unified
 2471              		.thumb
 2472              		.thumb_func
 2474              	grey_filter_cb:
 2475              	.LVL321:
 2476              	.LFB257:
 206:Lib/lvgl/src/themes/default/lv_theme_default.c ****     LV_UNUSED(f);
 2477              		.loc 1 206 1 view -0
ARM GAS  C:\Users\Alex\AppData\Local\Temp\ccR26jun.s 			page 79


 2478              		.cfi_startproc
 2479              		@ args = 0, pretend = 0, frame = 24
 2480              		@ frame_needed = 0, uses_anonymous_args = 0
 206:Lib/lvgl/src/themes/default/lv_theme_default.c ****     LV_UNUSED(f);
 2481              		.loc 1 206 1 is_stmt 0 view .LVU527
 2482 0000 10B5     		push	{r4, lr}
 2483              	.LCFI5:
 2484              		.cfi_def_cfa_offset 8
 2485              		.cfi_offset 4, -8
 2486              		.cfi_offset 14, -4
 2487 0002 86B0     		sub	sp, sp, #24
 2488              	.LCFI6:
 2489              		.cfi_def_cfa_offset 32
 2490 0004 0191     		str	r1, [sp, #4]
 2491 0006 1446     		mov	r4, r2
 207:Lib/lvgl/src/themes/default/lv_theme_default.c ****     if(theme_def->base.flags & MODE_DARK) return lv_color_mix(lv_palette_darken(LV_PALETTE_GREY, 2)
 2492              		.loc 1 207 5 is_stmt 1 view .LVU528
 208:Lib/lvgl/src/themes/default/lv_theme_default.c ****     else return lv_color_mix(lv_palette_lighten(LV_PALETTE_GREY, 2), color, opa);
 2493              		.loc 1 208 5 view .LVU529
 208:Lib/lvgl/src/themes/default/lv_theme_default.c ****     else return lv_color_mix(lv_palette_lighten(LV_PALETTE_GREY, 2), color, opa);
 2494              		.loc 1 208 8 is_stmt 0 view .LVU530
 2495 0008 284B     		ldr	r3, .L89
 2496 000a D3F87C31 		ldr	r3, [r3, #380]
 208:Lib/lvgl/src/themes/default/lv_theme_default.c ****     else return lv_color_mix(lv_palette_lighten(LV_PALETTE_GREY, 2), color, opa);
 2497              		.loc 1 208 23 view .LVU531
 2498 000e 5B6A     		ldr	r3, [r3, #36]
 208:Lib/lvgl/src/themes/default/lv_theme_default.c ****     else return lv_color_mix(lv_palette_lighten(LV_PALETTE_GREY, 2), color, opa);
 2499              		.loc 1 208 7 view .LVU532
 2500 0010 13F0010F 		tst	r3, #1
 2501 0014 2BD0     		beq	.L86
 208:Lib/lvgl/src/themes/default/lv_theme_default.c ****     else return lv_color_mix(lv_palette_lighten(LV_PALETTE_GREY, 2), color, opa);
 2502              		.loc 1 208 43 is_stmt 1 discriminator 1 view .LVU533
 208:Lib/lvgl/src/themes/default/lv_theme_default.c ****     else return lv_color_mix(lv_palette_lighten(LV_PALETTE_GREY, 2), color, opa);
 2503              		.loc 1 208 50 is_stmt 0 discriminator 1 view .LVU534
 2504 0016 0221     		movs	r1, #2
 2505 0018 1220     		movs	r0, #18
 2506              	.LVL322:
 208:Lib/lvgl/src/themes/default/lv_theme_default.c ****     else return lv_color_mix(lv_palette_lighten(LV_PALETTE_GREY, 2), color, opa);
 2507              		.loc 1 208 50 discriminator 1 view .LVU535
 2508 001a FFF7FEFF 		bl	lv_palette_darken
 2509              	.LVL323:
 208:Lib/lvgl/src/themes/default/lv_theme_default.c ****     else return lv_color_mix(lv_palette_lighten(LV_PALETTE_GREY, 2), color, opa);
 2510              		.loc 1 208 50 discriminator 1 view .LVU536
 2511 001e 8DF81000 		strb	r0, [sp, #16]
 2512 0022 C0F30723 		ubfx	r3, r0, #8, #8
 2513 0026 8DF81130 		strb	r3, [sp, #17]
 2514 002a C0F30740 		ubfx	r0, r0, #16, #8
 2515 002e 8DF81200 		strb	r0, [sp, #18]
 2516 0032 2246     		mov	r2, r4
 2517 0034 0199     		ldr	r1, [sp, #4]
 2518 0036 0498     		ldr	r0, [sp, #16]
 2519 0038 FFF7FEFF 		bl	lv_color_mix
 2520              	.LVL324:
 2521 003c 8DF80C00 		strb	r0, [sp, #12]
 2522 0040 C0F30723 		ubfx	r3, r0, #8, #8
 2523 0044 8DF80D30 		strb	r3, [sp, #13]
 2524 0048 C0F30740 		ubfx	r0, r0, #16, #8
ARM GAS  C:\Users\Alex\AppData\Local\Temp\ccR26jun.s 			page 80


 2525 004c 8DF80E00 		strb	r0, [sp, #14]
 2526              	.L87:
 210:Lib/lvgl/src/themes/default/lv_theme_default.c **** 
 2527              		.loc 1 210 1 view .LVU537
 2528 0050 0020     		movs	r0, #0
 2529 0052 9DF80C30 		ldrb	r3, [sp, #12]	@ zero_extendqisi2
 2530 0056 63F30700 		bfi	r0, r3, #0, #8
 2531 005a 9DF80D30 		ldrb	r3, [sp, #13]	@ zero_extendqisi2
 2532 005e 63F30F20 		bfi	r0, r3, #8, #8
 2533 0062 9DF80E30 		ldrb	r3, [sp, #14]	@ zero_extendqisi2
 2534 0066 63F31740 		bfi	r0, r3, #16, #8
 2535 006a 06B0     		add	sp, sp, #24
 2536              	.LCFI7:
 2537              		.cfi_remember_state
 2538              		.cfi_def_cfa_offset 8
 2539              		@ sp needed
 2540 006c 10BD     		pop	{r4, pc}
 2541              	.LVL325:
 2542              	.L86:
 2543              	.LCFI8:
 2544              		.cfi_restore_state
 209:Lib/lvgl/src/themes/default/lv_theme_default.c **** }
 2545              		.loc 1 209 10 is_stmt 1 view .LVU538
 209:Lib/lvgl/src/themes/default/lv_theme_default.c **** }
 2546              		.loc 1 209 17 is_stmt 0 view .LVU539
 2547 006e 0221     		movs	r1, #2
 2548 0070 1220     		movs	r0, #18
 2549              	.LVL326:
 209:Lib/lvgl/src/themes/default/lv_theme_default.c **** }
 2550              		.loc 1 209 17 view .LVU540
 2551 0072 FFF7FEFF 		bl	lv_palette_lighten
 2552              	.LVL327:
 209:Lib/lvgl/src/themes/default/lv_theme_default.c **** }
 2553              		.loc 1 209 17 view .LVU541
 2554 0076 8DF81400 		strb	r0, [sp, #20]
 2555 007a C0F30723 		ubfx	r3, r0, #8, #8
 2556 007e 8DF81530 		strb	r3, [sp, #21]
 2557 0082 C0F30740 		ubfx	r0, r0, #16, #8
 2558 0086 8DF81600 		strb	r0, [sp, #22]
 2559 008a 2246     		mov	r2, r4
 2560 008c 0199     		ldr	r1, [sp, #4]
 2561 008e 0598     		ldr	r0, [sp, #20]
 2562 0090 FFF7FEFF 		bl	lv_color_mix
 2563              	.LVL328:
 2564 0094 8DF80C00 		strb	r0, [sp, #12]
 2565 0098 C0F30723 		ubfx	r3, r0, #8, #8
 2566 009c 8DF80D30 		strb	r3, [sp, #13]
 2567 00a0 C0F30740 		ubfx	r0, r0, #16, #8
 2568 00a4 8DF80E00 		strb	r0, [sp, #14]
 2569 00a8 D2E7     		b	.L87
 2570              	.L90:
 2571 00aa 00BF     		.align	2
 2572              	.L89:
 2573 00ac 00000000 		.word	lv_global
 2574              		.cfi_endproc
 2575              	.LFE257:
 2577              		.section	.text.lv_style_set_pad_gap,"ax",%progbits
ARM GAS  C:\Users\Alex\AppData\Local\Temp\ccR26jun.s 			page 81


 2578              		.align	1
 2579              		.syntax unified
 2580              		.thumb
 2581              		.thumb_func
 2583              	lv_style_set_pad_gap:
 2584              	.LVL329:
 2585              	.LFB86:
 2586              		.file 4 "Lib/lvgl/src/themes/default/../../../src/core/../misc/lv_style.h"
   1:Lib/lvgl/src/themes/default/../../../src/core/../misc/lv_style.h **** /**
   2:Lib/lvgl/src/themes/default/../../../src/core/../misc/lv_style.h ****  * @file lv_style.h
   3:Lib/lvgl/src/themes/default/../../../src/core/../misc/lv_style.h ****  *
   4:Lib/lvgl/src/themes/default/../../../src/core/../misc/lv_style.h ****  */
   5:Lib/lvgl/src/themes/default/../../../src/core/../misc/lv_style.h **** 
   6:Lib/lvgl/src/themes/default/../../../src/core/../misc/lv_style.h **** #ifndef LV_STYLE_H
   7:Lib/lvgl/src/themes/default/../../../src/core/../misc/lv_style.h **** #define LV_STYLE_H
   8:Lib/lvgl/src/themes/default/../../../src/core/../misc/lv_style.h **** 
   9:Lib/lvgl/src/themes/default/../../../src/core/../misc/lv_style.h **** #ifdef __cplusplus
  10:Lib/lvgl/src/themes/default/../../../src/core/../misc/lv_style.h **** extern "C" {
  11:Lib/lvgl/src/themes/default/../../../src/core/../misc/lv_style.h **** #endif
  12:Lib/lvgl/src/themes/default/../../../src/core/../misc/lv_style.h **** 
  13:Lib/lvgl/src/themes/default/../../../src/core/../misc/lv_style.h **** /*********************
  14:Lib/lvgl/src/themes/default/../../../src/core/../misc/lv_style.h ****  *      INCLUDES
  15:Lib/lvgl/src/themes/default/../../../src/core/../misc/lv_style.h ****  *********************/
  16:Lib/lvgl/src/themes/default/../../../src/core/../misc/lv_style.h **** #include <stdbool.h>
  17:Lib/lvgl/src/themes/default/../../../src/core/../misc/lv_style.h **** #include <stdint.h>
  18:Lib/lvgl/src/themes/default/../../../src/core/../misc/lv_style.h **** #include "../font/lv_font.h"
  19:Lib/lvgl/src/themes/default/../../../src/core/../misc/lv_style.h **** #include "lv_color.h"
  20:Lib/lvgl/src/themes/default/../../../src/core/../misc/lv_style.h **** #include "lv_area.h"
  21:Lib/lvgl/src/themes/default/../../../src/core/../misc/lv_style.h **** #include "lv_anim.h"
  22:Lib/lvgl/src/themes/default/../../../src/core/../misc/lv_style.h **** #include "lv_text.h"
  23:Lib/lvgl/src/themes/default/../../../src/core/../misc/lv_style.h **** #include "lv_types.h"
  24:Lib/lvgl/src/themes/default/../../../src/core/../misc/lv_style.h **** #include "lv_assert.h"
  25:Lib/lvgl/src/themes/default/../../../src/core/../misc/lv_style.h **** #include "lv_bidi.h"
  26:Lib/lvgl/src/themes/default/../../../src/core/../misc/lv_style.h **** #include "../layouts/lv_layout.h"
  27:Lib/lvgl/src/themes/default/../../../src/core/../misc/lv_style.h **** 
  28:Lib/lvgl/src/themes/default/../../../src/core/../misc/lv_style.h **** /*********************
  29:Lib/lvgl/src/themes/default/../../../src/core/../misc/lv_style.h ****  *      DEFINES
  30:Lib/lvgl/src/themes/default/../../../src/core/../misc/lv_style.h ****  *********************/
  31:Lib/lvgl/src/themes/default/../../../src/core/../misc/lv_style.h **** 
  32:Lib/lvgl/src/themes/default/../../../src/core/../misc/lv_style.h **** #define LV_STYLE_SENTINEL_VALUE     0xAABBCCDD
  33:Lib/lvgl/src/themes/default/../../../src/core/../misc/lv_style.h **** 
  34:Lib/lvgl/src/themes/default/../../../src/core/../misc/lv_style.h **** /**
  35:Lib/lvgl/src/themes/default/../../../src/core/../misc/lv_style.h ****  * Flags for style behavior
  36:Lib/lvgl/src/themes/default/../../../src/core/../misc/lv_style.h ****  *
  37:Lib/lvgl/src/themes/default/../../../src/core/../misc/lv_style.h ****  * The rest of the flags will have _FLAG added to their name in v9.
  38:Lib/lvgl/src/themes/default/../../../src/core/../misc/lv_style.h ****  */
  39:Lib/lvgl/src/themes/default/../../../src/core/../misc/lv_style.h **** #define LV_STYLE_PROP_FLAG_NONE                     (0)
  40:Lib/lvgl/src/themes/default/../../../src/core/../misc/lv_style.h **** #define LV_STYLE_PROP_FLAG_INHERITABLE              (1 << 0)  /*Inherited*/
  41:Lib/lvgl/src/themes/default/../../../src/core/../misc/lv_style.h **** #define LV_STYLE_PROP_FLAG_EXT_DRAW_UPDATE          (1 << 1)  /*Requires ext. draw size update when
  42:Lib/lvgl/src/themes/default/../../../src/core/../misc/lv_style.h **** #define LV_STYLE_PROP_FLAG_LAYOUT_UPDATE            (1 << 2)  /*Requires layout update when changed
  43:Lib/lvgl/src/themes/default/../../../src/core/../misc/lv_style.h **** #define LV_STYLE_PROP_FLAG_PARENT_LAYOUT_UPDATE     (1 << 3)  /*Requires layout update on parent wh
  44:Lib/lvgl/src/themes/default/../../../src/core/../misc/lv_style.h **** #define LV_STYLE_PROP_FLAG_LAYER_UPDATE             (1 << 4)  /*Affects layer handling*/
  45:Lib/lvgl/src/themes/default/../../../src/core/../misc/lv_style.h **** #define LV_STYLE_PROP_FLAG_TRANSFORM                (1 << 5)  /*Affects the object's transformation
  46:Lib/lvgl/src/themes/default/../../../src/core/../misc/lv_style.h **** #define LV_STYLE_PROP_FLAG_ALL                      (0x3F)    /*Indicating all flags*/
  47:Lib/lvgl/src/themes/default/../../../src/core/../misc/lv_style.h **** 
  48:Lib/lvgl/src/themes/default/../../../src/core/../misc/lv_style.h **** /**
  49:Lib/lvgl/src/themes/default/../../../src/core/../misc/lv_style.h ****  * Other constants
ARM GAS  C:\Users\Alex\AppData\Local\Temp\ccR26jun.s 			page 82


  50:Lib/lvgl/src/themes/default/../../../src/core/../misc/lv_style.h ****  */
  51:Lib/lvgl/src/themes/default/../../../src/core/../misc/lv_style.h **** #define LV_SCALE_NONE            256        /*Value for not zooming the image*/
  52:Lib/lvgl/src/themes/default/../../../src/core/../misc/lv_style.h **** LV_EXPORT_CONST_INT(LV_SCALE_NONE);
  53:Lib/lvgl/src/themes/default/../../../src/core/../misc/lv_style.h **** 
  54:Lib/lvgl/src/themes/default/../../../src/core/../misc/lv_style.h **** // *INDENT-OFF*
  55:Lib/lvgl/src/themes/default/../../../src/core/../misc/lv_style.h **** #if LV_USE_ASSERT_STYLE
  56:Lib/lvgl/src/themes/default/../../../src/core/../misc/lv_style.h **** #define LV_STYLE_CONST_INIT(var_name, prop_array)                       \
  57:Lib/lvgl/src/themes/default/../../../src/core/../misc/lv_style.h ****     const lv_style_t var_name = {                                       \
  58:Lib/lvgl/src/themes/default/../../../src/core/../misc/lv_style.h ****         .sentinel = LV_STYLE_SENTINEL_VALUE,                            \
  59:Lib/lvgl/src/themes/default/../../../src/core/../misc/lv_style.h ****         .values_and_props = (void*)prop_array,                                      \
  60:Lib/lvgl/src/themes/default/../../../src/core/../misc/lv_style.h ****         .has_group = 0xFFFFFFFF,                                        \
  61:Lib/lvgl/src/themes/default/../../../src/core/../misc/lv_style.h ****         .prop_cnt = 255                                               \
  62:Lib/lvgl/src/themes/default/../../../src/core/../misc/lv_style.h ****     }
  63:Lib/lvgl/src/themes/default/../../../src/core/../misc/lv_style.h **** #else
  64:Lib/lvgl/src/themes/default/../../../src/core/../misc/lv_style.h **** #define LV_STYLE_CONST_INIT(var_name, prop_array)                       \
  65:Lib/lvgl/src/themes/default/../../../src/core/../misc/lv_style.h ****     const lv_style_t var_name = {                                       \
  66:Lib/lvgl/src/themes/default/../../../src/core/../misc/lv_style.h ****         .values_and_props = prop_array,                                      \
  67:Lib/lvgl/src/themes/default/../../../src/core/../misc/lv_style.h ****         .has_group = 0xFFFFFFFF,                                        \
  68:Lib/lvgl/src/themes/default/../../../src/core/../misc/lv_style.h ****         .prop_cnt = 255,                                               \
  69:Lib/lvgl/src/themes/default/../../../src/core/../misc/lv_style.h ****     }
  70:Lib/lvgl/src/themes/default/../../../src/core/../misc/lv_style.h **** #endif
  71:Lib/lvgl/src/themes/default/../../../src/core/../misc/lv_style.h **** // *INDENT-ON*
  72:Lib/lvgl/src/themes/default/../../../src/core/../misc/lv_style.h **** 
  73:Lib/lvgl/src/themes/default/../../../src/core/../misc/lv_style.h **** #define LV_STYLE_CONST_PROPS_END { .prop_ptr = NULL, .value = { .num = 0 } }
  74:Lib/lvgl/src/themes/default/../../../src/core/../misc/lv_style.h **** 
  75:Lib/lvgl/src/themes/default/../../../src/core/../misc/lv_style.h **** /**********************
  76:Lib/lvgl/src/themes/default/../../../src/core/../misc/lv_style.h ****  *      TYPEDEFS
  77:Lib/lvgl/src/themes/default/../../../src/core/../misc/lv_style.h ****  **********************/
  78:Lib/lvgl/src/themes/default/../../../src/core/../misc/lv_style.h **** 
  79:Lib/lvgl/src/themes/default/../../../src/core/../misc/lv_style.h **** /**
  80:Lib/lvgl/src/themes/default/../../../src/core/../misc/lv_style.h ****  * Possible options how to blend opaque drawings
  81:Lib/lvgl/src/themes/default/../../../src/core/../misc/lv_style.h ****  */
  82:Lib/lvgl/src/themes/default/../../../src/core/../misc/lv_style.h **** enum _lv_blend_mode_t {
  83:Lib/lvgl/src/themes/default/../../../src/core/../misc/lv_style.h ****     LV_BLEND_MODE_NORMAL,     /**< Simply mix according to the opacity value*/
  84:Lib/lvgl/src/themes/default/../../../src/core/../misc/lv_style.h ****     LV_BLEND_MODE_ADDITIVE,   /**< Add the respective color channels*/
  85:Lib/lvgl/src/themes/default/../../../src/core/../misc/lv_style.h ****     LV_BLEND_MODE_SUBTRACTIVE,/**< Subtract the foreground from the background*/
  86:Lib/lvgl/src/themes/default/../../../src/core/../misc/lv_style.h ****     LV_BLEND_MODE_MULTIPLY,   /**< Multiply the foreground and background*/
  87:Lib/lvgl/src/themes/default/../../../src/core/../misc/lv_style.h **** };
  88:Lib/lvgl/src/themes/default/../../../src/core/../misc/lv_style.h **** 
  89:Lib/lvgl/src/themes/default/../../../src/core/../misc/lv_style.h **** #ifdef DOXYGEN
  90:Lib/lvgl/src/themes/default/../../../src/core/../misc/lv_style.h **** typedef _lv_blend_mode_t lv_blend_mode_t;
  91:Lib/lvgl/src/themes/default/../../../src/core/../misc/lv_style.h **** #else
  92:Lib/lvgl/src/themes/default/../../../src/core/../misc/lv_style.h **** typedef uint8_t lv_blend_mode_t;
  93:Lib/lvgl/src/themes/default/../../../src/core/../misc/lv_style.h **** #endif /*DOXYGEN*/
  94:Lib/lvgl/src/themes/default/../../../src/core/../misc/lv_style.h **** 
  95:Lib/lvgl/src/themes/default/../../../src/core/../misc/lv_style.h **** /**
  96:Lib/lvgl/src/themes/default/../../../src/core/../misc/lv_style.h ****  * Some options to apply decorations on texts.
  97:Lib/lvgl/src/themes/default/../../../src/core/../misc/lv_style.h ****  * 'OR'ed values can be used.
  98:Lib/lvgl/src/themes/default/../../../src/core/../misc/lv_style.h ****  */
  99:Lib/lvgl/src/themes/default/../../../src/core/../misc/lv_style.h **** enum _lv_text_decor_t {
 100:Lib/lvgl/src/themes/default/../../../src/core/../misc/lv_style.h ****     LV_TEXT_DECOR_NONE          = 0x00,
 101:Lib/lvgl/src/themes/default/../../../src/core/../misc/lv_style.h ****     LV_TEXT_DECOR_UNDERLINE     = 0x01,
 102:Lib/lvgl/src/themes/default/../../../src/core/../misc/lv_style.h ****     LV_TEXT_DECOR_STRIKETHROUGH = 0x02,
 103:Lib/lvgl/src/themes/default/../../../src/core/../misc/lv_style.h **** };
 104:Lib/lvgl/src/themes/default/../../../src/core/../misc/lv_style.h **** 
 105:Lib/lvgl/src/themes/default/../../../src/core/../misc/lv_style.h **** #ifdef DOXYGEN
 106:Lib/lvgl/src/themes/default/../../../src/core/../misc/lv_style.h **** typedef _lv_text_decor_t lv_text_decor_t;
ARM GAS  C:\Users\Alex\AppData\Local\Temp\ccR26jun.s 			page 83


 107:Lib/lvgl/src/themes/default/../../../src/core/../misc/lv_style.h **** #else
 108:Lib/lvgl/src/themes/default/../../../src/core/../misc/lv_style.h **** typedef uint8_t lv_text_decor_t;
 109:Lib/lvgl/src/themes/default/../../../src/core/../misc/lv_style.h **** #endif /*DOXYGEN*/
 110:Lib/lvgl/src/themes/default/../../../src/core/../misc/lv_style.h **** 
 111:Lib/lvgl/src/themes/default/../../../src/core/../misc/lv_style.h **** /**
 112:Lib/lvgl/src/themes/default/../../../src/core/../misc/lv_style.h ****  * Selects on which sides border should be drawn
 113:Lib/lvgl/src/themes/default/../../../src/core/../misc/lv_style.h ****  * 'OR'ed values can be used.
 114:Lib/lvgl/src/themes/default/../../../src/core/../misc/lv_style.h ****  */
 115:Lib/lvgl/src/themes/default/../../../src/core/../misc/lv_style.h **** enum _lv_border_side_t {
 116:Lib/lvgl/src/themes/default/../../../src/core/../misc/lv_style.h ****     LV_BORDER_SIDE_NONE     = 0x00,
 117:Lib/lvgl/src/themes/default/../../../src/core/../misc/lv_style.h ****     LV_BORDER_SIDE_BOTTOM   = 0x01,
 118:Lib/lvgl/src/themes/default/../../../src/core/../misc/lv_style.h ****     LV_BORDER_SIDE_TOP      = 0x02,
 119:Lib/lvgl/src/themes/default/../../../src/core/../misc/lv_style.h ****     LV_BORDER_SIDE_LEFT     = 0x04,
 120:Lib/lvgl/src/themes/default/../../../src/core/../misc/lv_style.h ****     LV_BORDER_SIDE_RIGHT    = 0x08,
 121:Lib/lvgl/src/themes/default/../../../src/core/../misc/lv_style.h ****     LV_BORDER_SIDE_FULL     = 0x0F,
 122:Lib/lvgl/src/themes/default/../../../src/core/../misc/lv_style.h ****     LV_BORDER_SIDE_INTERNAL = 0x10, /**< FOR matrix-like objects (e.g. Button matrix)*/
 123:Lib/lvgl/src/themes/default/../../../src/core/../misc/lv_style.h **** };
 124:Lib/lvgl/src/themes/default/../../../src/core/../misc/lv_style.h **** 
 125:Lib/lvgl/src/themes/default/../../../src/core/../misc/lv_style.h **** #ifdef DOXYGEN
 126:Lib/lvgl/src/themes/default/../../../src/core/../misc/lv_style.h **** typedef _lv_border_side_t lv_border_side_t;
 127:Lib/lvgl/src/themes/default/../../../src/core/../misc/lv_style.h **** #else
 128:Lib/lvgl/src/themes/default/../../../src/core/../misc/lv_style.h **** typedef uint8_t lv_border_side_t;
 129:Lib/lvgl/src/themes/default/../../../src/core/../misc/lv_style.h **** #endif /*DOXYGEN*/
 130:Lib/lvgl/src/themes/default/../../../src/core/../misc/lv_style.h **** 
 131:Lib/lvgl/src/themes/default/../../../src/core/../misc/lv_style.h **** /**
 132:Lib/lvgl/src/themes/default/../../../src/core/../misc/lv_style.h ****  * The direction of the gradient.
 133:Lib/lvgl/src/themes/default/../../../src/core/../misc/lv_style.h ****  */
 134:Lib/lvgl/src/themes/default/../../../src/core/../misc/lv_style.h **** enum _lv_grad_dir_t {
 135:Lib/lvgl/src/themes/default/../../../src/core/../misc/lv_style.h ****     LV_GRAD_DIR_NONE, /**< No gradient (the `grad_color` property is ignored)*/
 136:Lib/lvgl/src/themes/default/../../../src/core/../misc/lv_style.h ****     LV_GRAD_DIR_VER,  /**< Vertical (top to bottom) gradient*/
 137:Lib/lvgl/src/themes/default/../../../src/core/../misc/lv_style.h ****     LV_GRAD_DIR_HOR,  /**< Horizontal (left to right) gradient*/
 138:Lib/lvgl/src/themes/default/../../../src/core/../misc/lv_style.h **** };
 139:Lib/lvgl/src/themes/default/../../../src/core/../misc/lv_style.h **** 
 140:Lib/lvgl/src/themes/default/../../../src/core/../misc/lv_style.h **** #ifdef DOXYGEN
 141:Lib/lvgl/src/themes/default/../../../src/core/../misc/lv_style.h **** typedef _lv_grad_dir_t lv_grad_dir_t;
 142:Lib/lvgl/src/themes/default/../../../src/core/../misc/lv_style.h **** #else
 143:Lib/lvgl/src/themes/default/../../../src/core/../misc/lv_style.h **** typedef uint8_t lv_grad_dir_t;
 144:Lib/lvgl/src/themes/default/../../../src/core/../misc/lv_style.h **** #endif /*DOXYGEN*/
 145:Lib/lvgl/src/themes/default/../../../src/core/../misc/lv_style.h **** 
 146:Lib/lvgl/src/themes/default/../../../src/core/../misc/lv_style.h **** /** A gradient stop definition.
 147:Lib/lvgl/src/themes/default/../../../src/core/../misc/lv_style.h ****  *  This matches a color and a position in a virtual 0-255 scale.
 148:Lib/lvgl/src/themes/default/../../../src/core/../misc/lv_style.h ****  */
 149:Lib/lvgl/src/themes/default/../../../src/core/../misc/lv_style.h **** typedef struct {
 150:Lib/lvgl/src/themes/default/../../../src/core/../misc/lv_style.h ****     lv_color_t color;   /**< The stop color */
 151:Lib/lvgl/src/themes/default/../../../src/core/../misc/lv_style.h ****     lv_opa_t   opa;     /**< The opacity of the color*/
 152:Lib/lvgl/src/themes/default/../../../src/core/../misc/lv_style.h ****     uint8_t    frac;    /**< The stop position in 1/255 unit */
 153:Lib/lvgl/src/themes/default/../../../src/core/../misc/lv_style.h **** } lv_gradient_stop_t;
 154:Lib/lvgl/src/themes/default/../../../src/core/../misc/lv_style.h **** 
 155:Lib/lvgl/src/themes/default/../../../src/core/../misc/lv_style.h **** /** A descriptor of a gradient. */
 156:Lib/lvgl/src/themes/default/../../../src/core/../misc/lv_style.h **** typedef struct {
 157:Lib/lvgl/src/themes/default/../../../src/core/../misc/lv_style.h ****     lv_gradient_stop_t   stops[LV_GRADIENT_MAX_STOPS]; /**< A gradient stop array */
 158:Lib/lvgl/src/themes/default/../../../src/core/../misc/lv_style.h ****     uint8_t              stops_count;                  /**< The number of used stops in the array *
 159:Lib/lvgl/src/themes/default/../../../src/core/../misc/lv_style.h ****     lv_grad_dir_t        dir : 3;                      /**< The gradient direction.
 160:Lib/lvgl/src/themes/default/../../../src/core/../misc/lv_style.h ****                                                         * Any of LV_GRAD_DIR_HOR, LV_GRAD_DIR_VER, 
 161:Lib/lvgl/src/themes/default/../../../src/core/../misc/lv_style.h **** } lv_grad_dsc_t;
 162:Lib/lvgl/src/themes/default/../../../src/core/../misc/lv_style.h **** 
 163:Lib/lvgl/src/themes/default/../../../src/core/../misc/lv_style.h **** /**
ARM GAS  C:\Users\Alex\AppData\Local\Temp\ccR26jun.s 			page 84


 164:Lib/lvgl/src/themes/default/../../../src/core/../misc/lv_style.h ****  * A common type to handle all the property types in the same way.
 165:Lib/lvgl/src/themes/default/../../../src/core/../misc/lv_style.h ****  */
 166:Lib/lvgl/src/themes/default/../../../src/core/../misc/lv_style.h **** typedef union {
 167:Lib/lvgl/src/themes/default/../../../src/core/../misc/lv_style.h ****     int32_t num;         /**< Number integer number (opacity, enums, booleans or "normal" numbers)*
 168:Lib/lvgl/src/themes/default/../../../src/core/../misc/lv_style.h ****     const void * ptr;    /**< Constant pointers  (font, cone text, etc)*/
 169:Lib/lvgl/src/themes/default/../../../src/core/../misc/lv_style.h ****     lv_color_t color;    /**< Colors*/
 170:Lib/lvgl/src/themes/default/../../../src/core/../misc/lv_style.h **** } lv_style_value_t;
 171:Lib/lvgl/src/themes/default/../../../src/core/../misc/lv_style.h **** 
 172:Lib/lvgl/src/themes/default/../../../src/core/../misc/lv_style.h **** /**
 173:Lib/lvgl/src/themes/default/../../../src/core/../misc/lv_style.h ****  * Enumeration of all built in style properties
 174:Lib/lvgl/src/themes/default/../../../src/core/../misc/lv_style.h ****  *
 175:Lib/lvgl/src/themes/default/../../../src/core/../misc/lv_style.h ****  * Props are split into groups of 16. When adding a new prop to a group, ensure it does not overflo
 176:Lib/lvgl/src/themes/default/../../../src/core/../misc/lv_style.h ****  */
 177:Lib/lvgl/src/themes/default/../../../src/core/../misc/lv_style.h **** enum _lv_style_prop_t {
 178:Lib/lvgl/src/themes/default/../../../src/core/../misc/lv_style.h ****     LV_STYLE_PROP_INV               = 0,
 179:Lib/lvgl/src/themes/default/../../../src/core/../misc/lv_style.h **** 
 180:Lib/lvgl/src/themes/default/../../../src/core/../misc/lv_style.h ****     /*Group 0*/
 181:Lib/lvgl/src/themes/default/../../../src/core/../misc/lv_style.h ****     LV_STYLE_WIDTH                  = 1,
 182:Lib/lvgl/src/themes/default/../../../src/core/../misc/lv_style.h ****     LV_STYLE_HEIGHT                 = 2,
 183:Lib/lvgl/src/themes/default/../../../src/core/../misc/lv_style.h ****     LV_STYLE_LENGTH                 = 3,
 184:Lib/lvgl/src/themes/default/../../../src/core/../misc/lv_style.h **** 
 185:Lib/lvgl/src/themes/default/../../../src/core/../misc/lv_style.h ****     LV_STYLE_MIN_WIDTH              = 4,
 186:Lib/lvgl/src/themes/default/../../../src/core/../misc/lv_style.h ****     LV_STYLE_MAX_WIDTH              = 5,
 187:Lib/lvgl/src/themes/default/../../../src/core/../misc/lv_style.h ****     LV_STYLE_MIN_HEIGHT             = 6,
 188:Lib/lvgl/src/themes/default/../../../src/core/../misc/lv_style.h ****     LV_STYLE_MAX_HEIGHT             = 7,
 189:Lib/lvgl/src/themes/default/../../../src/core/../misc/lv_style.h **** 
 190:Lib/lvgl/src/themes/default/../../../src/core/../misc/lv_style.h ****     LV_STYLE_X                      = 8,
 191:Lib/lvgl/src/themes/default/../../../src/core/../misc/lv_style.h ****     LV_STYLE_Y                      = 9,
 192:Lib/lvgl/src/themes/default/../../../src/core/../misc/lv_style.h ****     LV_STYLE_ALIGN                  = 10,
 193:Lib/lvgl/src/themes/default/../../../src/core/../misc/lv_style.h **** 
 194:Lib/lvgl/src/themes/default/../../../src/core/../misc/lv_style.h ****     LV_STYLE_RADIUS                 = 12,
 195:Lib/lvgl/src/themes/default/../../../src/core/../misc/lv_style.h **** 
 196:Lib/lvgl/src/themes/default/../../../src/core/../misc/lv_style.h ****     /*Group 1*/
 197:Lib/lvgl/src/themes/default/../../../src/core/../misc/lv_style.h ****     LV_STYLE_PAD_TOP                = 16,
 198:Lib/lvgl/src/themes/default/../../../src/core/../misc/lv_style.h ****     LV_STYLE_PAD_BOTTOM             = 17,
 199:Lib/lvgl/src/themes/default/../../../src/core/../misc/lv_style.h ****     LV_STYLE_PAD_LEFT               = 18,
 200:Lib/lvgl/src/themes/default/../../../src/core/../misc/lv_style.h ****     LV_STYLE_PAD_RIGHT              = 19,
 201:Lib/lvgl/src/themes/default/../../../src/core/../misc/lv_style.h **** 
 202:Lib/lvgl/src/themes/default/../../../src/core/../misc/lv_style.h ****     LV_STYLE_PAD_ROW                = 20,
 203:Lib/lvgl/src/themes/default/../../../src/core/../misc/lv_style.h ****     LV_STYLE_PAD_COLUMN             = 21,
 204:Lib/lvgl/src/themes/default/../../../src/core/../misc/lv_style.h ****     LV_STYLE_LAYOUT                 = 22,
 205:Lib/lvgl/src/themes/default/../../../src/core/../misc/lv_style.h **** 
 206:Lib/lvgl/src/themes/default/../../../src/core/../misc/lv_style.h ****     LV_STYLE_MARGIN_TOP             = 24,
 207:Lib/lvgl/src/themes/default/../../../src/core/../misc/lv_style.h ****     LV_STYLE_MARGIN_BOTTOM          = 25,
 208:Lib/lvgl/src/themes/default/../../../src/core/../misc/lv_style.h ****     LV_STYLE_MARGIN_LEFT            = 26,
 209:Lib/lvgl/src/themes/default/../../../src/core/../misc/lv_style.h ****     LV_STYLE_MARGIN_RIGHT           = 27,
 210:Lib/lvgl/src/themes/default/../../../src/core/../misc/lv_style.h **** 
 211:Lib/lvgl/src/themes/default/../../../src/core/../misc/lv_style.h ****     /*Group 2*/
 212:Lib/lvgl/src/themes/default/../../../src/core/../misc/lv_style.h ****     LV_STYLE_BG_COLOR               = 28,
 213:Lib/lvgl/src/themes/default/../../../src/core/../misc/lv_style.h ****     LV_STYLE_BG_OPA                 = 29,
 214:Lib/lvgl/src/themes/default/../../../src/core/../misc/lv_style.h **** 
 215:Lib/lvgl/src/themes/default/../../../src/core/../misc/lv_style.h ****     LV_STYLE_BG_GRAD_DIR            = 32,
 216:Lib/lvgl/src/themes/default/../../../src/core/../misc/lv_style.h ****     LV_STYLE_BG_MAIN_STOP           = 33,
 217:Lib/lvgl/src/themes/default/../../../src/core/../misc/lv_style.h ****     LV_STYLE_BG_GRAD_STOP           = 34,
 218:Lib/lvgl/src/themes/default/../../../src/core/../misc/lv_style.h ****     LV_STYLE_BG_GRAD_COLOR          = 35,
 219:Lib/lvgl/src/themes/default/../../../src/core/../misc/lv_style.h **** 
 220:Lib/lvgl/src/themes/default/../../../src/core/../misc/lv_style.h ****     LV_STYLE_BG_MAIN_OPA            = 36,
ARM GAS  C:\Users\Alex\AppData\Local\Temp\ccR26jun.s 			page 85


 221:Lib/lvgl/src/themes/default/../../../src/core/../misc/lv_style.h ****     LV_STYLE_BG_GRAD_OPA            = 37,
 222:Lib/lvgl/src/themes/default/../../../src/core/../misc/lv_style.h ****     LV_STYLE_BG_GRAD                = 38,
 223:Lib/lvgl/src/themes/default/../../../src/core/../misc/lv_style.h ****     LV_STYLE_BASE_DIR               = 39,
 224:Lib/lvgl/src/themes/default/../../../src/core/../misc/lv_style.h **** 
 225:Lib/lvgl/src/themes/default/../../../src/core/../misc/lv_style.h ****     LV_STYLE_BG_IMAGE_SRC             = 40,
 226:Lib/lvgl/src/themes/default/../../../src/core/../misc/lv_style.h ****     LV_STYLE_BG_IMAGE_OPA             = 41,
 227:Lib/lvgl/src/themes/default/../../../src/core/../misc/lv_style.h ****     LV_STYLE_BG_IMAGE_RECOLOR         = 42,
 228:Lib/lvgl/src/themes/default/../../../src/core/../misc/lv_style.h ****     LV_STYLE_BG_IMAGE_RECOLOR_OPA     = 43,
 229:Lib/lvgl/src/themes/default/../../../src/core/../misc/lv_style.h **** 
 230:Lib/lvgl/src/themes/default/../../../src/core/../misc/lv_style.h ****     LV_STYLE_BG_IMAGE_TILED           = 44,
 231:Lib/lvgl/src/themes/default/../../../src/core/../misc/lv_style.h ****     LV_STYLE_CLIP_CORNER            = 45,
 232:Lib/lvgl/src/themes/default/../../../src/core/../misc/lv_style.h **** 
 233:Lib/lvgl/src/themes/default/../../../src/core/../misc/lv_style.h ****     /*Group 3*/
 234:Lib/lvgl/src/themes/default/../../../src/core/../misc/lv_style.h ****     LV_STYLE_BORDER_WIDTH           = 48,
 235:Lib/lvgl/src/themes/default/../../../src/core/../misc/lv_style.h ****     LV_STYLE_BORDER_COLOR           = 49,
 236:Lib/lvgl/src/themes/default/../../../src/core/../misc/lv_style.h ****     LV_STYLE_BORDER_OPA             = 50,
 237:Lib/lvgl/src/themes/default/../../../src/core/../misc/lv_style.h **** 
 238:Lib/lvgl/src/themes/default/../../../src/core/../misc/lv_style.h ****     LV_STYLE_BORDER_SIDE            = 52,
 239:Lib/lvgl/src/themes/default/../../../src/core/../misc/lv_style.h ****     LV_STYLE_BORDER_POST            = 53,
 240:Lib/lvgl/src/themes/default/../../../src/core/../misc/lv_style.h **** 
 241:Lib/lvgl/src/themes/default/../../../src/core/../misc/lv_style.h ****     LV_STYLE_OUTLINE_WIDTH          = 56,
 242:Lib/lvgl/src/themes/default/../../../src/core/../misc/lv_style.h ****     LV_STYLE_OUTLINE_COLOR          = 57,
 243:Lib/lvgl/src/themes/default/../../../src/core/../misc/lv_style.h ****     LV_STYLE_OUTLINE_OPA            = 58,
 244:Lib/lvgl/src/themes/default/../../../src/core/../misc/lv_style.h ****     LV_STYLE_OUTLINE_PAD            = 59,
 245:Lib/lvgl/src/themes/default/../../../src/core/../misc/lv_style.h **** 
 246:Lib/lvgl/src/themes/default/../../../src/core/../misc/lv_style.h ****     /*Group 4*/
 247:Lib/lvgl/src/themes/default/../../../src/core/../misc/lv_style.h ****     LV_STYLE_SHADOW_WIDTH           = 60,
 248:Lib/lvgl/src/themes/default/../../../src/core/../misc/lv_style.h ****     LV_STYLE_SHADOW_COLOR           = 61,
 249:Lib/lvgl/src/themes/default/../../../src/core/../misc/lv_style.h ****     LV_STYLE_SHADOW_OPA             = 62,
 250:Lib/lvgl/src/themes/default/../../../src/core/../misc/lv_style.h **** 
 251:Lib/lvgl/src/themes/default/../../../src/core/../misc/lv_style.h ****     LV_STYLE_SHADOW_OFFSET_X        = 64,
 252:Lib/lvgl/src/themes/default/../../../src/core/../misc/lv_style.h ****     LV_STYLE_SHADOW_OFFSET_Y        = 65,
 253:Lib/lvgl/src/themes/default/../../../src/core/../misc/lv_style.h ****     LV_STYLE_SHADOW_SPREAD          = 66,
 254:Lib/lvgl/src/themes/default/../../../src/core/../misc/lv_style.h **** 
 255:Lib/lvgl/src/themes/default/../../../src/core/../misc/lv_style.h ****     LV_STYLE_IMAGE_OPA                = 68,
 256:Lib/lvgl/src/themes/default/../../../src/core/../misc/lv_style.h ****     LV_STYLE_IMAGE_RECOLOR            = 69,
 257:Lib/lvgl/src/themes/default/../../../src/core/../misc/lv_style.h ****     LV_STYLE_IMAGE_RECOLOR_OPA        = 70,
 258:Lib/lvgl/src/themes/default/../../../src/core/../misc/lv_style.h **** 
 259:Lib/lvgl/src/themes/default/../../../src/core/../misc/lv_style.h ****     LV_STYLE_LINE_WIDTH             = 72,
 260:Lib/lvgl/src/themes/default/../../../src/core/../misc/lv_style.h ****     LV_STYLE_LINE_DASH_WIDTH        = 73,
 261:Lib/lvgl/src/themes/default/../../../src/core/../misc/lv_style.h ****     LV_STYLE_LINE_DASH_GAP          = 74,
 262:Lib/lvgl/src/themes/default/../../../src/core/../misc/lv_style.h ****     LV_STYLE_LINE_ROUNDED           = 75,
 263:Lib/lvgl/src/themes/default/../../../src/core/../misc/lv_style.h ****     LV_STYLE_LINE_COLOR             = 76,
 264:Lib/lvgl/src/themes/default/../../../src/core/../misc/lv_style.h ****     LV_STYLE_LINE_OPA               = 77,
 265:Lib/lvgl/src/themes/default/../../../src/core/../misc/lv_style.h **** 
 266:Lib/lvgl/src/themes/default/../../../src/core/../misc/lv_style.h ****     /*Group 5*/
 267:Lib/lvgl/src/themes/default/../../../src/core/../misc/lv_style.h ****     LV_STYLE_ARC_WIDTH              = 80,
 268:Lib/lvgl/src/themes/default/../../../src/core/../misc/lv_style.h ****     LV_STYLE_ARC_ROUNDED            = 81,
 269:Lib/lvgl/src/themes/default/../../../src/core/../misc/lv_style.h ****     LV_STYLE_ARC_COLOR              = 82,
 270:Lib/lvgl/src/themes/default/../../../src/core/../misc/lv_style.h ****     LV_STYLE_ARC_OPA                = 83,
 271:Lib/lvgl/src/themes/default/../../../src/core/../misc/lv_style.h ****     LV_STYLE_ARC_IMAGE_SRC            = 84,
 272:Lib/lvgl/src/themes/default/../../../src/core/../misc/lv_style.h **** 
 273:Lib/lvgl/src/themes/default/../../../src/core/../misc/lv_style.h ****     LV_STYLE_TEXT_COLOR             = 88,
 274:Lib/lvgl/src/themes/default/../../../src/core/../misc/lv_style.h ****     LV_STYLE_TEXT_OPA               = 89,
 275:Lib/lvgl/src/themes/default/../../../src/core/../misc/lv_style.h ****     LV_STYLE_TEXT_FONT              = 90,
 276:Lib/lvgl/src/themes/default/../../../src/core/../misc/lv_style.h **** 
 277:Lib/lvgl/src/themes/default/../../../src/core/../misc/lv_style.h ****     LV_STYLE_TEXT_LETTER_SPACE      = 91,
ARM GAS  C:\Users\Alex\AppData\Local\Temp\ccR26jun.s 			page 86


 278:Lib/lvgl/src/themes/default/../../../src/core/../misc/lv_style.h ****     LV_STYLE_TEXT_LINE_SPACE        = 92,
 279:Lib/lvgl/src/themes/default/../../../src/core/../misc/lv_style.h ****     LV_STYLE_TEXT_DECOR             = 93,
 280:Lib/lvgl/src/themes/default/../../../src/core/../misc/lv_style.h ****     LV_STYLE_TEXT_ALIGN             = 94,
 281:Lib/lvgl/src/themes/default/../../../src/core/../misc/lv_style.h **** 
 282:Lib/lvgl/src/themes/default/../../../src/core/../misc/lv_style.h ****     LV_STYLE_OPA                    = 95,
 283:Lib/lvgl/src/themes/default/../../../src/core/../misc/lv_style.h ****     LV_STYLE_OPA_LAYERED            = 96,
 284:Lib/lvgl/src/themes/default/../../../src/core/../misc/lv_style.h ****     LV_STYLE_COLOR_FILTER_DSC       = 97,
 285:Lib/lvgl/src/themes/default/../../../src/core/../misc/lv_style.h ****     LV_STYLE_COLOR_FILTER_OPA       = 98,
 286:Lib/lvgl/src/themes/default/../../../src/core/../misc/lv_style.h ****     LV_STYLE_ANIM                   = 99,
 287:Lib/lvgl/src/themes/default/../../../src/core/../misc/lv_style.h ****     LV_STYLE_ANIM_DURATION          = 100,
 288:Lib/lvgl/src/themes/default/../../../src/core/../misc/lv_style.h ****     LV_STYLE_TRANSITION             = 102,
 289:Lib/lvgl/src/themes/default/../../../src/core/../misc/lv_style.h ****     LV_STYLE_BLEND_MODE             = 103,
 290:Lib/lvgl/src/themes/default/../../../src/core/../misc/lv_style.h ****     LV_STYLE_TRANSFORM_WIDTH        = 104,
 291:Lib/lvgl/src/themes/default/../../../src/core/../misc/lv_style.h ****     LV_STYLE_TRANSFORM_HEIGHT       = 105,
 292:Lib/lvgl/src/themes/default/../../../src/core/../misc/lv_style.h ****     LV_STYLE_TRANSLATE_X            = 106,
 293:Lib/lvgl/src/themes/default/../../../src/core/../misc/lv_style.h ****     LV_STYLE_TRANSLATE_Y            = 107,
 294:Lib/lvgl/src/themes/default/../../../src/core/../misc/lv_style.h ****     LV_STYLE_TRANSFORM_SCALE_X      = 108,
 295:Lib/lvgl/src/themes/default/../../../src/core/../misc/lv_style.h ****     LV_STYLE_TRANSFORM_SCALE_Y      = 109,
 296:Lib/lvgl/src/themes/default/../../../src/core/../misc/lv_style.h ****     LV_STYLE_TRANSFORM_ROTATION     = 110,
 297:Lib/lvgl/src/themes/default/../../../src/core/../misc/lv_style.h ****     LV_STYLE_TRANSFORM_PIVOT_X      = 111,
 298:Lib/lvgl/src/themes/default/../../../src/core/../misc/lv_style.h ****     LV_STYLE_TRANSFORM_PIVOT_Y      = 112,
 299:Lib/lvgl/src/themes/default/../../../src/core/../misc/lv_style.h ****     LV_STYLE_TRANSFORM_SKEW_X       = 113,
 300:Lib/lvgl/src/themes/default/../../../src/core/../misc/lv_style.h ****     LV_STYLE_TRANSFORM_SKEW_Y       = 114,
 301:Lib/lvgl/src/themes/default/../../../src/core/../misc/lv_style.h **** 
 302:Lib/lvgl/src/themes/default/../../../src/core/../misc/lv_style.h **** #if LV_USE_FLEX
 303:Lib/lvgl/src/themes/default/../../../src/core/../misc/lv_style.h ****     LV_STYLE_FLEX_FLOW              = 115,
 304:Lib/lvgl/src/themes/default/../../../src/core/../misc/lv_style.h ****     LV_STYLE_FLEX_MAIN_PLACE        = 116,
 305:Lib/lvgl/src/themes/default/../../../src/core/../misc/lv_style.h ****     LV_STYLE_FLEX_CROSS_PLACE       = 117,
 306:Lib/lvgl/src/themes/default/../../../src/core/../misc/lv_style.h ****     LV_STYLE_FLEX_TRACK_PLACE       = 118,
 307:Lib/lvgl/src/themes/default/../../../src/core/../misc/lv_style.h ****     LV_STYLE_FLEX_GROW              = 119,
 308:Lib/lvgl/src/themes/default/../../../src/core/../misc/lv_style.h **** #endif
 309:Lib/lvgl/src/themes/default/../../../src/core/../misc/lv_style.h **** 
 310:Lib/lvgl/src/themes/default/../../../src/core/../misc/lv_style.h **** #if LV_USE_GRID
 311:Lib/lvgl/src/themes/default/../../../src/core/../misc/lv_style.h ****     LV_STYLE_GRID_COLUMN_ALIGN      = 120,
 312:Lib/lvgl/src/themes/default/../../../src/core/../misc/lv_style.h ****     LV_STYLE_GRID_ROW_ALIGN         = 121,
 313:Lib/lvgl/src/themes/default/../../../src/core/../misc/lv_style.h ****     LV_STYLE_GRID_ROW_DSC_ARRAY     = 122,
 314:Lib/lvgl/src/themes/default/../../../src/core/../misc/lv_style.h ****     LV_STYLE_GRID_COLUMN_DSC_ARRAY  = 123,
 315:Lib/lvgl/src/themes/default/../../../src/core/../misc/lv_style.h ****     LV_STYLE_GRID_CELL_COLUMN_POS   = 124,
 316:Lib/lvgl/src/themes/default/../../../src/core/../misc/lv_style.h ****     LV_STYLE_GRID_CELL_COLUMN_SPAN  = 125,
 317:Lib/lvgl/src/themes/default/../../../src/core/../misc/lv_style.h ****     LV_STYLE_GRID_CELL_X_ALIGN      = 126,
 318:Lib/lvgl/src/themes/default/../../../src/core/../misc/lv_style.h ****     LV_STYLE_GRID_CELL_ROW_POS      = 127,
 319:Lib/lvgl/src/themes/default/../../../src/core/../misc/lv_style.h ****     LV_STYLE_GRID_CELL_ROW_SPAN     = 128,
 320:Lib/lvgl/src/themes/default/../../../src/core/../misc/lv_style.h ****     LV_STYLE_GRID_CELL_Y_ALIGN      = 129,
 321:Lib/lvgl/src/themes/default/../../../src/core/../misc/lv_style.h **** #endif
 322:Lib/lvgl/src/themes/default/../../../src/core/../misc/lv_style.h **** 
 323:Lib/lvgl/src/themes/default/../../../src/core/../misc/lv_style.h ****     _LV_STYLE_LAST_BUILT_IN_PROP     = 130,
 324:Lib/lvgl/src/themes/default/../../../src/core/../misc/lv_style.h **** 
 325:Lib/lvgl/src/themes/default/../../../src/core/../misc/lv_style.h ****     _LV_STYLE_NUM_BUILT_IN_PROPS     = _LV_STYLE_LAST_BUILT_IN_PROP + 1,
 326:Lib/lvgl/src/themes/default/../../../src/core/../misc/lv_style.h **** 
 327:Lib/lvgl/src/themes/default/../../../src/core/../misc/lv_style.h ****     LV_STYLE_PROP_ANY                = 0xFF,
 328:Lib/lvgl/src/themes/default/../../../src/core/../misc/lv_style.h ****     _LV_STYLE_PROP_CONST             = 0xFF /* magic value for const styles */
 329:Lib/lvgl/src/themes/default/../../../src/core/../misc/lv_style.h **** };
 330:Lib/lvgl/src/themes/default/../../../src/core/../misc/lv_style.h **** 
 331:Lib/lvgl/src/themes/default/../../../src/core/../misc/lv_style.h **** #ifdef DOXYGEN
 332:Lib/lvgl/src/themes/default/../../../src/core/../misc/lv_style.h **** typedef _lv_style_prop_t lv_style_prop_t;
 333:Lib/lvgl/src/themes/default/../../../src/core/../misc/lv_style.h **** #else
 334:Lib/lvgl/src/themes/default/../../../src/core/../misc/lv_style.h **** typedef uint8_t lv_style_prop_t;
ARM GAS  C:\Users\Alex\AppData\Local\Temp\ccR26jun.s 			page 87


 335:Lib/lvgl/src/themes/default/../../../src/core/../misc/lv_style.h **** #endif /*DOXYGEN*/
 336:Lib/lvgl/src/themes/default/../../../src/core/../misc/lv_style.h **** 
 337:Lib/lvgl/src/themes/default/../../../src/core/../misc/lv_style.h **** enum _lv_style_res_t {
 338:Lib/lvgl/src/themes/default/../../../src/core/../misc/lv_style.h ****     LV_STYLE_RES_NOT_FOUND,
 339:Lib/lvgl/src/themes/default/../../../src/core/../misc/lv_style.h ****     LV_STYLE_RES_FOUND,
 340:Lib/lvgl/src/themes/default/../../../src/core/../misc/lv_style.h **** };
 341:Lib/lvgl/src/themes/default/../../../src/core/../misc/lv_style.h **** 
 342:Lib/lvgl/src/themes/default/../../../src/core/../misc/lv_style.h **** #ifdef DOXYGEN
 343:Lib/lvgl/src/themes/default/../../../src/core/../misc/lv_style.h **** typedef _lv_style_res_t lv_style_res_t;
 344:Lib/lvgl/src/themes/default/../../../src/core/../misc/lv_style.h **** #else
 345:Lib/lvgl/src/themes/default/../../../src/core/../misc/lv_style.h **** typedef uint8_t lv_style_res_t;
 346:Lib/lvgl/src/themes/default/../../../src/core/../misc/lv_style.h **** #endif /*DOXYGEN*/
 347:Lib/lvgl/src/themes/default/../../../src/core/../misc/lv_style.h **** 
 348:Lib/lvgl/src/themes/default/../../../src/core/../misc/lv_style.h **** /**
 349:Lib/lvgl/src/themes/default/../../../src/core/../misc/lv_style.h ****  * Descriptor for style transitions
 350:Lib/lvgl/src/themes/default/../../../src/core/../misc/lv_style.h ****  */
 351:Lib/lvgl/src/themes/default/../../../src/core/../misc/lv_style.h **** typedef struct {
 352:Lib/lvgl/src/themes/default/../../../src/core/../misc/lv_style.h ****     const lv_style_prop_t * props; /**< An array with the properties to animate.*/
 353:Lib/lvgl/src/themes/default/../../../src/core/../misc/lv_style.h ****     void * user_data;              /**< A custom user data that will be passed to the animation's u
 354:Lib/lvgl/src/themes/default/../../../src/core/../misc/lv_style.h ****     lv_anim_path_cb_t path_xcb;     /**< A path for the animation.*/
 355:Lib/lvgl/src/themes/default/../../../src/core/../misc/lv_style.h ****     uint32_t time;                 /**< Duration of the transition in [ms]*/
 356:Lib/lvgl/src/themes/default/../../../src/core/../misc/lv_style.h ****     uint32_t delay;                /**< Delay before the transition in [ms]*/
 357:Lib/lvgl/src/themes/default/../../../src/core/../misc/lv_style.h **** } lv_style_transition_dsc_t;
 358:Lib/lvgl/src/themes/default/../../../src/core/../misc/lv_style.h **** 
 359:Lib/lvgl/src/themes/default/../../../src/core/../misc/lv_style.h **** /**
 360:Lib/lvgl/src/themes/default/../../../src/core/../misc/lv_style.h ****  * Descriptor of a constant style property.
 361:Lib/lvgl/src/themes/default/../../../src/core/../misc/lv_style.h ****  */
 362:Lib/lvgl/src/themes/default/../../../src/core/../misc/lv_style.h **** typedef struct {
 363:Lib/lvgl/src/themes/default/../../../src/core/../misc/lv_style.h ****     const lv_style_prop_t * prop_ptr;
 364:Lib/lvgl/src/themes/default/../../../src/core/../misc/lv_style.h ****     lv_style_value_t value;
 365:Lib/lvgl/src/themes/default/../../../src/core/../misc/lv_style.h **** } lv_style_const_prop_t;
 366:Lib/lvgl/src/themes/default/../../../src/core/../misc/lv_style.h **** 
 367:Lib/lvgl/src/themes/default/../../../src/core/../misc/lv_style.h **** /**
 368:Lib/lvgl/src/themes/default/../../../src/core/../misc/lv_style.h ****  * Descriptor of a style (a collection of properties and values).
 369:Lib/lvgl/src/themes/default/../../../src/core/../misc/lv_style.h ****  */
 370:Lib/lvgl/src/themes/default/../../../src/core/../misc/lv_style.h **** typedef struct {
 371:Lib/lvgl/src/themes/default/../../../src/core/../misc/lv_style.h **** 
 372:Lib/lvgl/src/themes/default/../../../src/core/../misc/lv_style.h **** #if LV_USE_ASSERT_STYLE
 373:Lib/lvgl/src/themes/default/../../../src/core/../misc/lv_style.h ****     uint32_t sentinel;
 374:Lib/lvgl/src/themes/default/../../../src/core/../misc/lv_style.h **** #endif
 375:Lib/lvgl/src/themes/default/../../../src/core/../misc/lv_style.h **** 
 376:Lib/lvgl/src/themes/default/../../../src/core/../misc/lv_style.h ****     void * values_and_props;
 377:Lib/lvgl/src/themes/default/../../../src/core/../misc/lv_style.h **** 
 378:Lib/lvgl/src/themes/default/../../../src/core/../misc/lv_style.h ****     uint32_t has_group;
 379:Lib/lvgl/src/themes/default/../../../src/core/../misc/lv_style.h ****     uint8_t prop_cnt;   /**< 255 means it's a constant style*/
 380:Lib/lvgl/src/themes/default/../../../src/core/../misc/lv_style.h **** } lv_style_t;
 381:Lib/lvgl/src/themes/default/../../../src/core/../misc/lv_style.h **** 
 382:Lib/lvgl/src/themes/default/../../../src/core/../misc/lv_style.h **** /**********************
 383:Lib/lvgl/src/themes/default/../../../src/core/../misc/lv_style.h ****  * GLOBAL PROTOTYPES
 384:Lib/lvgl/src/themes/default/../../../src/core/../misc/lv_style.h ****  **********************/
 385:Lib/lvgl/src/themes/default/../../../src/core/../misc/lv_style.h **** 
 386:Lib/lvgl/src/themes/default/../../../src/core/../misc/lv_style.h **** /**
 387:Lib/lvgl/src/themes/default/../../../src/core/../misc/lv_style.h ****  * Initialize a style
 388:Lib/lvgl/src/themes/default/../../../src/core/../misc/lv_style.h ****  * @param style pointer to a style to initialize
 389:Lib/lvgl/src/themes/default/../../../src/core/../misc/lv_style.h ****  * @note Do not call `lv_style_init` on styles that already have some properties
 390:Lib/lvgl/src/themes/default/../../../src/core/../misc/lv_style.h ****  *       because this function won't free the used memory, just sets a default state for the style.
 391:Lib/lvgl/src/themes/default/../../../src/core/../misc/lv_style.h ****  *       In other words be sure to initialize styles only once!
ARM GAS  C:\Users\Alex\AppData\Local\Temp\ccR26jun.s 			page 88


 392:Lib/lvgl/src/themes/default/../../../src/core/../misc/lv_style.h ****  */
 393:Lib/lvgl/src/themes/default/../../../src/core/../misc/lv_style.h **** void lv_style_init(lv_style_t * style);
 394:Lib/lvgl/src/themes/default/../../../src/core/../misc/lv_style.h **** 
 395:Lib/lvgl/src/themes/default/../../../src/core/../misc/lv_style.h **** /**
 396:Lib/lvgl/src/themes/default/../../../src/core/../misc/lv_style.h ****  * Clear all properties from a style and free all allocated memories.
 397:Lib/lvgl/src/themes/default/../../../src/core/../misc/lv_style.h ****  * @param style pointer to a style
 398:Lib/lvgl/src/themes/default/../../../src/core/../misc/lv_style.h ****  */
 399:Lib/lvgl/src/themes/default/../../../src/core/../misc/lv_style.h **** void lv_style_reset(lv_style_t * style);
 400:Lib/lvgl/src/themes/default/../../../src/core/../misc/lv_style.h **** 
 401:Lib/lvgl/src/themes/default/../../../src/core/../misc/lv_style.h **** /**
 402:Lib/lvgl/src/themes/default/../../../src/core/../misc/lv_style.h ****  * Check if a style is constant
 403:Lib/lvgl/src/themes/default/../../../src/core/../misc/lv_style.h ****  * @param style     pointer to a style
 404:Lib/lvgl/src/themes/default/../../../src/core/../misc/lv_style.h ****  * @return          true: the style is constant
 405:Lib/lvgl/src/themes/default/../../../src/core/../misc/lv_style.h ****  */
 406:Lib/lvgl/src/themes/default/../../../src/core/../misc/lv_style.h **** static inline bool lv_style_is_const(const lv_style_t * style)
 407:Lib/lvgl/src/themes/default/../../../src/core/../misc/lv_style.h **** {
 408:Lib/lvgl/src/themes/default/../../../src/core/../misc/lv_style.h ****     if(style->prop_cnt == 255) return true;
 409:Lib/lvgl/src/themes/default/../../../src/core/../misc/lv_style.h ****     return false;
 410:Lib/lvgl/src/themes/default/../../../src/core/../misc/lv_style.h **** }
 411:Lib/lvgl/src/themes/default/../../../src/core/../misc/lv_style.h **** 
 412:Lib/lvgl/src/themes/default/../../../src/core/../misc/lv_style.h **** /**
 413:Lib/lvgl/src/themes/default/../../../src/core/../misc/lv_style.h ****  * Register a new style property for custom usage
 414:Lib/lvgl/src/themes/default/../../../src/core/../misc/lv_style.h ****  * @return a new property ID, or LV_STYLE_PROP_INV if there are no more available.
 415:Lib/lvgl/src/themes/default/../../../src/core/../misc/lv_style.h ****  * @example
 416:Lib/lvgl/src/themes/default/../../../src/core/../misc/lv_style.h ****  * lv_style_prop_t MY_PROP;
 417:Lib/lvgl/src/themes/default/../../../src/core/../misc/lv_style.h ****  * static inline void lv_style_set_my_prop(lv_style_t * style, lv_color_t value) {
 418:Lib/lvgl/src/themes/default/../../../src/core/../misc/lv_style.h ****  * lv_style_value_t v = {.color = value}; lv_style_set_prop(style, MY_PROP, v); }
 419:Lib/lvgl/src/themes/default/../../../src/core/../misc/lv_style.h ****  *
 420:Lib/lvgl/src/themes/default/../../../src/core/../misc/lv_style.h ****  * ...
 421:Lib/lvgl/src/themes/default/../../../src/core/../misc/lv_style.h ****  * MY_PROP = lv_style_register_prop();
 422:Lib/lvgl/src/themes/default/../../../src/core/../misc/lv_style.h ****  * ...
 423:Lib/lvgl/src/themes/default/../../../src/core/../misc/lv_style.h ****  * lv_style_set_my_prop(&style1, lv_palette_main(LV_PALETTE_RED));
 424:Lib/lvgl/src/themes/default/../../../src/core/../misc/lv_style.h ****  */
 425:Lib/lvgl/src/themes/default/../../../src/core/../misc/lv_style.h **** lv_style_prop_t lv_style_register_prop(uint8_t flag);
 426:Lib/lvgl/src/themes/default/../../../src/core/../misc/lv_style.h **** 
 427:Lib/lvgl/src/themes/default/../../../src/core/../misc/lv_style.h **** /**
 428:Lib/lvgl/src/themes/default/../../../src/core/../misc/lv_style.h ****  * Get the number of custom properties that have been registered thus far.
 429:Lib/lvgl/src/themes/default/../../../src/core/../misc/lv_style.h ****  */
 430:Lib/lvgl/src/themes/default/../../../src/core/../misc/lv_style.h **** lv_style_prop_t lv_style_get_num_custom_props(void);
 431:Lib/lvgl/src/themes/default/../../../src/core/../misc/lv_style.h **** 
 432:Lib/lvgl/src/themes/default/../../../src/core/../misc/lv_style.h **** /**
 433:Lib/lvgl/src/themes/default/../../../src/core/../misc/lv_style.h ****  * Remove a property from a style
 434:Lib/lvgl/src/themes/default/../../../src/core/../misc/lv_style.h ****  * @param style pointer to a style
 435:Lib/lvgl/src/themes/default/../../../src/core/../misc/lv_style.h ****  * @param prop  a style property ORed with a state.
 436:Lib/lvgl/src/themes/default/../../../src/core/../misc/lv_style.h ****  * @return true: the property was found and removed; false: the property wasn't found
 437:Lib/lvgl/src/themes/default/../../../src/core/../misc/lv_style.h ****  */
 438:Lib/lvgl/src/themes/default/../../../src/core/../misc/lv_style.h **** bool lv_style_remove_prop(lv_style_t * style, lv_style_prop_t prop);
 439:Lib/lvgl/src/themes/default/../../../src/core/../misc/lv_style.h **** 
 440:Lib/lvgl/src/themes/default/../../../src/core/../misc/lv_style.h **** /**
 441:Lib/lvgl/src/themes/default/../../../src/core/../misc/lv_style.h ****  * Set the value of property in a style.
 442:Lib/lvgl/src/themes/default/../../../src/core/../misc/lv_style.h ****  * This function shouldn't be used directly by the user.
 443:Lib/lvgl/src/themes/default/../../../src/core/../misc/lv_style.h ****  * Instead use `lv_style_set_<prop_name>()`. E.g. `lv_style_set_bg_color()`
 444:Lib/lvgl/src/themes/default/../../../src/core/../misc/lv_style.h ****  * @param style pointer to style
 445:Lib/lvgl/src/themes/default/../../../src/core/../misc/lv_style.h ****  * @param prop the ID of a property (e.g. `LV_STYLE_BG_COLOR`)
 446:Lib/lvgl/src/themes/default/../../../src/core/../misc/lv_style.h ****  * @param value `lv_style_value_t` variable in which a field is set according to the type of `prop`
 447:Lib/lvgl/src/themes/default/../../../src/core/../misc/lv_style.h ****  */
 448:Lib/lvgl/src/themes/default/../../../src/core/../misc/lv_style.h **** void lv_style_set_prop(lv_style_t * style, lv_style_prop_t prop, lv_style_value_t value);
ARM GAS  C:\Users\Alex\AppData\Local\Temp\ccR26jun.s 			page 89


 449:Lib/lvgl/src/themes/default/../../../src/core/../misc/lv_style.h **** 
 450:Lib/lvgl/src/themes/default/../../../src/core/../misc/lv_style.h **** /**
 451:Lib/lvgl/src/themes/default/../../../src/core/../misc/lv_style.h ****  * Get the value of a property
 452:Lib/lvgl/src/themes/default/../../../src/core/../misc/lv_style.h ****  * @param style pointer to a style
 453:Lib/lvgl/src/themes/default/../../../src/core/../misc/lv_style.h ****  * @param prop  the ID of a property
 454:Lib/lvgl/src/themes/default/../../../src/core/../misc/lv_style.h ****  * @param value pointer to a `lv_style_value_t` variable to store the value
 455:Lib/lvgl/src/themes/default/../../../src/core/../misc/lv_style.h ****  * @return LV_RESULT_INVALID: the property wasn't found in the style (`value` is unchanged)
 456:Lib/lvgl/src/themes/default/../../../src/core/../misc/lv_style.h ****  *         LV_RESULT_OK: the property was fond, and `value` is set accordingly
 457:Lib/lvgl/src/themes/default/../../../src/core/../misc/lv_style.h ****  * @note For performance reasons there are no sanity check on `style`
 458:Lib/lvgl/src/themes/default/../../../src/core/../misc/lv_style.h ****  */
 459:Lib/lvgl/src/themes/default/../../../src/core/../misc/lv_style.h **** lv_style_res_t lv_style_get_prop(const lv_style_t * style, lv_style_prop_t prop, lv_style_value_t *
 460:Lib/lvgl/src/themes/default/../../../src/core/../misc/lv_style.h **** 
 461:Lib/lvgl/src/themes/default/../../../src/core/../misc/lv_style.h **** /**
 462:Lib/lvgl/src/themes/default/../../../src/core/../misc/lv_style.h ****  * Initialize a transition descriptor.
 463:Lib/lvgl/src/themes/default/../../../src/core/../misc/lv_style.h ****  * @param tr        pointer to a transition descriptor to initialize
 464:Lib/lvgl/src/themes/default/../../../src/core/../misc/lv_style.h ****  * @param props     an array with the properties to transition. The last element must be zero.
 465:Lib/lvgl/src/themes/default/../../../src/core/../misc/lv_style.h ****  * @param path_cb   an animation path (ease) callback. If `NULL` liner path will be used.
 466:Lib/lvgl/src/themes/default/../../../src/core/../misc/lv_style.h ****  * @param time      duration of the transition in [ms]
 467:Lib/lvgl/src/themes/default/../../../src/core/../misc/lv_style.h ****  * @param delay     delay before the transition in [ms]
 468:Lib/lvgl/src/themes/default/../../../src/core/../misc/lv_style.h ****  * @param user_data any custom data that will be saved in the transition animation and will be avai
 469:Lib/lvgl/src/themes/default/../../../src/core/../misc/lv_style.h ****  * @example
 470:Lib/lvgl/src/themes/default/../../../src/core/../misc/lv_style.h ****  * const static lv_style_prop_t trans_props[] = { LV_STYLE_BG_OPA, LV_STYLE_BG_COLOR, 0 };
 471:Lib/lvgl/src/themes/default/../../../src/core/../misc/lv_style.h ****  *  static lv_style_transition_dsc_t trans1;
 472:Lib/lvgl/src/themes/default/../../../src/core/../misc/lv_style.h ****  *  lv_style_transition_dsc_init(&trans1, trans_props, NULL, 300, 0, NULL);
 473:Lib/lvgl/src/themes/default/../../../src/core/../misc/lv_style.h ****  */
 474:Lib/lvgl/src/themes/default/../../../src/core/../misc/lv_style.h **** void lv_style_transition_dsc_init(lv_style_transition_dsc_t * tr, const lv_style_prop_t props[],
 475:Lib/lvgl/src/themes/default/../../../src/core/../misc/lv_style.h ****                                   lv_anim_path_cb_t path_cb, uint32_t time, uint32_t delay, void * 
 476:Lib/lvgl/src/themes/default/../../../src/core/../misc/lv_style.h **** 
 477:Lib/lvgl/src/themes/default/../../../src/core/../misc/lv_style.h **** /**
 478:Lib/lvgl/src/themes/default/../../../src/core/../misc/lv_style.h ****  * Get the default value of a property
 479:Lib/lvgl/src/themes/default/../../../src/core/../misc/lv_style.h ****  * @param prop the ID of a property
 480:Lib/lvgl/src/themes/default/../../../src/core/../misc/lv_style.h ****  * @return the default value
 481:Lib/lvgl/src/themes/default/../../../src/core/../misc/lv_style.h ****  */
 482:Lib/lvgl/src/themes/default/../../../src/core/../misc/lv_style.h **** lv_style_value_t lv_style_prop_get_default(lv_style_prop_t prop);
 483:Lib/lvgl/src/themes/default/../../../src/core/../misc/lv_style.h **** 
 484:Lib/lvgl/src/themes/default/../../../src/core/../misc/lv_style.h **** /**
 485:Lib/lvgl/src/themes/default/../../../src/core/../misc/lv_style.h ****  * Get the value of a property
 486:Lib/lvgl/src/themes/default/../../../src/core/../misc/lv_style.h ****  * @param style pointer to a style
 487:Lib/lvgl/src/themes/default/../../../src/core/../misc/lv_style.h ****  * @param prop  the ID of a property
 488:Lib/lvgl/src/themes/default/../../../src/core/../misc/lv_style.h ****  * @param value pointer to a `lv_style_value_t` variable to store the value
 489:Lib/lvgl/src/themes/default/../../../src/core/../misc/lv_style.h ****  * @return LV_RESULT_INVALID: the property wasn't found in the style (`value` is unchanged)
 490:Lib/lvgl/src/themes/default/../../../src/core/../misc/lv_style.h ****  *         LV_RESULT_OK: the property was fond, and `value` is set accordingly
 491:Lib/lvgl/src/themes/default/../../../src/core/../misc/lv_style.h ****  * @note For performance reasons there are no sanity check on `style`
 492:Lib/lvgl/src/themes/default/../../../src/core/../misc/lv_style.h ****  * @note This function is the same as ::lv_style_get_prop but inlined. Use it only on performance c
 493:Lib/lvgl/src/themes/default/../../../src/core/../misc/lv_style.h ****  */
 494:Lib/lvgl/src/themes/default/../../../src/core/../misc/lv_style.h **** static inline lv_style_res_t lv_style_get_prop_inlined(const lv_style_t * style, lv_style_prop_t pr
 495:Lib/lvgl/src/themes/default/../../../src/core/../misc/lv_style.h ****                                                        lv_style_value_t * value)
 496:Lib/lvgl/src/themes/default/../../../src/core/../misc/lv_style.h **** {
 497:Lib/lvgl/src/themes/default/../../../src/core/../misc/lv_style.h ****     if(lv_style_is_const(style)) {
 498:Lib/lvgl/src/themes/default/../../../src/core/../misc/lv_style.h ****         lv_style_const_prop_t * props = (lv_style_const_prop_t *)style->values_and_props;
 499:Lib/lvgl/src/themes/default/../../../src/core/../misc/lv_style.h ****         uint32_t i;
 500:Lib/lvgl/src/themes/default/../../../src/core/../misc/lv_style.h ****         for(i = 0; props[i].prop_ptr; i++) {
 501:Lib/lvgl/src/themes/default/../../../src/core/../misc/lv_style.h ****             if(*props[i].prop_ptr == prop) {
 502:Lib/lvgl/src/themes/default/../../../src/core/../misc/lv_style.h ****                 *value = props[i].value;
 503:Lib/lvgl/src/themes/default/../../../src/core/../misc/lv_style.h ****                 return LV_STYLE_RES_FOUND;
 504:Lib/lvgl/src/themes/default/../../../src/core/../misc/lv_style.h ****             }
 505:Lib/lvgl/src/themes/default/../../../src/core/../misc/lv_style.h ****         }
ARM GAS  C:\Users\Alex\AppData\Local\Temp\ccR26jun.s 			page 90


 506:Lib/lvgl/src/themes/default/../../../src/core/../misc/lv_style.h ****     }
 507:Lib/lvgl/src/themes/default/../../../src/core/../misc/lv_style.h ****     else {
 508:Lib/lvgl/src/themes/default/../../../src/core/../misc/lv_style.h ****         lv_style_prop_t * props = (lv_style_prop_t *)style->values_and_props + style->prop_cnt * si
 509:Lib/lvgl/src/themes/default/../../../src/core/../misc/lv_style.h ****         uint32_t i;
 510:Lib/lvgl/src/themes/default/../../../src/core/../misc/lv_style.h ****         for(i = 0; i < style->prop_cnt; i++) {
 511:Lib/lvgl/src/themes/default/../../../src/core/../misc/lv_style.h ****             if(props[i] == prop) {
 512:Lib/lvgl/src/themes/default/../../../src/core/../misc/lv_style.h ****                 lv_style_value_t * values = (lv_style_value_t *)style->values_and_props;
 513:Lib/lvgl/src/themes/default/../../../src/core/../misc/lv_style.h ****                 *value = values[i];
 514:Lib/lvgl/src/themes/default/../../../src/core/../misc/lv_style.h ****                 return LV_STYLE_RES_FOUND;
 515:Lib/lvgl/src/themes/default/../../../src/core/../misc/lv_style.h ****             }
 516:Lib/lvgl/src/themes/default/../../../src/core/../misc/lv_style.h ****         }
 517:Lib/lvgl/src/themes/default/../../../src/core/../misc/lv_style.h ****     }
 518:Lib/lvgl/src/themes/default/../../../src/core/../misc/lv_style.h ****     return LV_STYLE_RES_NOT_FOUND;
 519:Lib/lvgl/src/themes/default/../../../src/core/../misc/lv_style.h **** }
 520:Lib/lvgl/src/themes/default/../../../src/core/../misc/lv_style.h **** 
 521:Lib/lvgl/src/themes/default/../../../src/core/../misc/lv_style.h **** /**
 522:Lib/lvgl/src/themes/default/../../../src/core/../misc/lv_style.h ****  * Checks if a style is empty (has no properties)
 523:Lib/lvgl/src/themes/default/../../../src/core/../misc/lv_style.h ****  * @param style pointer to a style
 524:Lib/lvgl/src/themes/default/../../../src/core/../misc/lv_style.h ****  * @return true if the style is empty
 525:Lib/lvgl/src/themes/default/../../../src/core/../misc/lv_style.h ****  */
 526:Lib/lvgl/src/themes/default/../../../src/core/../misc/lv_style.h **** bool lv_style_is_empty(const lv_style_t * style);
 527:Lib/lvgl/src/themes/default/../../../src/core/../misc/lv_style.h **** 
 528:Lib/lvgl/src/themes/default/../../../src/core/../misc/lv_style.h **** /**
 529:Lib/lvgl/src/themes/default/../../../src/core/../misc/lv_style.h ****  * Tell the group of a property. If the a property from a group is set in a style the (1 << group) 
 530:Lib/lvgl/src/themes/default/../../../src/core/../misc/lv_style.h ****  * It allows early skipping the style if the property is not exists in the style at all.
 531:Lib/lvgl/src/themes/default/../../../src/core/../misc/lv_style.h ****  * @param prop a style property
 532:Lib/lvgl/src/themes/default/../../../src/core/../misc/lv_style.h ****  * @return the group [0..30] 30 means all the custom properties with index > 120
 533:Lib/lvgl/src/themes/default/../../../src/core/../misc/lv_style.h ****  */
 534:Lib/lvgl/src/themes/default/../../../src/core/../misc/lv_style.h **** static inline uint32_t _lv_style_get_prop_group(lv_style_prop_t prop)
 535:Lib/lvgl/src/themes/default/../../../src/core/../misc/lv_style.h **** {
 536:Lib/lvgl/src/themes/default/../../../src/core/../misc/lv_style.h ****     uint32_t group = prop >> 2;
 537:Lib/lvgl/src/themes/default/../../../src/core/../misc/lv_style.h ****     if(group > 30) group = 31;    /*The MSB marks all the custom properties*/
 538:Lib/lvgl/src/themes/default/../../../src/core/../misc/lv_style.h ****     return group;
 539:Lib/lvgl/src/themes/default/../../../src/core/../misc/lv_style.h **** 
 540:Lib/lvgl/src/themes/default/../../../src/core/../misc/lv_style.h **** }
 541:Lib/lvgl/src/themes/default/../../../src/core/../misc/lv_style.h **** 
 542:Lib/lvgl/src/themes/default/../../../src/core/../misc/lv_style.h **** /**
 543:Lib/lvgl/src/themes/default/../../../src/core/../misc/lv_style.h ****  * Get the flags of a built-in or custom property.
 544:Lib/lvgl/src/themes/default/../../../src/core/../misc/lv_style.h ****  *
 545:Lib/lvgl/src/themes/default/../../../src/core/../misc/lv_style.h ****  * @param prop a style property
 546:Lib/lvgl/src/themes/default/../../../src/core/../misc/lv_style.h ****  * @return the flags of the property
 547:Lib/lvgl/src/themes/default/../../../src/core/../misc/lv_style.h ****  */
 548:Lib/lvgl/src/themes/default/../../../src/core/../misc/lv_style.h **** uint8_t _lv_style_prop_lookup_flags(lv_style_prop_t prop);
 549:Lib/lvgl/src/themes/default/../../../src/core/../misc/lv_style.h **** 
 550:Lib/lvgl/src/themes/default/../../../src/core/../misc/lv_style.h **** #include "lv_style_gen.h"
 551:Lib/lvgl/src/themes/default/../../../src/core/../misc/lv_style.h **** 
 552:Lib/lvgl/src/themes/default/../../../src/core/../misc/lv_style.h **** static inline void lv_style_set_size(lv_style_t * style, int32_t width, int32_t height)
 553:Lib/lvgl/src/themes/default/../../../src/core/../misc/lv_style.h **** {
 554:Lib/lvgl/src/themes/default/../../../src/core/../misc/lv_style.h ****     lv_style_set_width(style, width);
 555:Lib/lvgl/src/themes/default/../../../src/core/../misc/lv_style.h ****     lv_style_set_height(style, height);
 556:Lib/lvgl/src/themes/default/../../../src/core/../misc/lv_style.h **** }
 557:Lib/lvgl/src/themes/default/../../../src/core/../misc/lv_style.h **** 
 558:Lib/lvgl/src/themes/default/../../../src/core/../misc/lv_style.h **** static inline void lv_style_set_pad_all(lv_style_t * style, int32_t value)
 559:Lib/lvgl/src/themes/default/../../../src/core/../misc/lv_style.h **** {
 560:Lib/lvgl/src/themes/default/../../../src/core/../misc/lv_style.h ****     lv_style_set_pad_left(style, value);
 561:Lib/lvgl/src/themes/default/../../../src/core/../misc/lv_style.h ****     lv_style_set_pad_right(style, value);
 562:Lib/lvgl/src/themes/default/../../../src/core/../misc/lv_style.h ****     lv_style_set_pad_top(style, value);
ARM GAS  C:\Users\Alex\AppData\Local\Temp\ccR26jun.s 			page 91


 563:Lib/lvgl/src/themes/default/../../../src/core/../misc/lv_style.h ****     lv_style_set_pad_bottom(style, value);
 564:Lib/lvgl/src/themes/default/../../../src/core/../misc/lv_style.h **** }
 565:Lib/lvgl/src/themes/default/../../../src/core/../misc/lv_style.h **** 
 566:Lib/lvgl/src/themes/default/../../../src/core/../misc/lv_style.h **** static inline void lv_style_set_pad_hor(lv_style_t * style, int32_t value)
 567:Lib/lvgl/src/themes/default/../../../src/core/../misc/lv_style.h **** {
 568:Lib/lvgl/src/themes/default/../../../src/core/../misc/lv_style.h ****     lv_style_set_pad_left(style, value);
 569:Lib/lvgl/src/themes/default/../../../src/core/../misc/lv_style.h ****     lv_style_set_pad_right(style, value);
 570:Lib/lvgl/src/themes/default/../../../src/core/../misc/lv_style.h **** }
 571:Lib/lvgl/src/themes/default/../../../src/core/../misc/lv_style.h **** 
 572:Lib/lvgl/src/themes/default/../../../src/core/../misc/lv_style.h **** static inline void lv_style_set_pad_ver(lv_style_t * style, int32_t value)
 573:Lib/lvgl/src/themes/default/../../../src/core/../misc/lv_style.h **** {
 574:Lib/lvgl/src/themes/default/../../../src/core/../misc/lv_style.h ****     lv_style_set_pad_top(style, value);
 575:Lib/lvgl/src/themes/default/../../../src/core/../misc/lv_style.h ****     lv_style_set_pad_bottom(style, value);
 576:Lib/lvgl/src/themes/default/../../../src/core/../misc/lv_style.h **** }
 577:Lib/lvgl/src/themes/default/../../../src/core/../misc/lv_style.h **** 
 578:Lib/lvgl/src/themes/default/../../../src/core/../misc/lv_style.h **** static inline void lv_style_set_pad_gap(lv_style_t * style, int32_t value)
 579:Lib/lvgl/src/themes/default/../../../src/core/../misc/lv_style.h **** {
 2587              		.loc 4 579 1 is_stmt 1 view -0
 2588              		.cfi_startproc
 2589              		@ args = 0, pretend = 0, frame = 0
 2590              		@ frame_needed = 0, uses_anonymous_args = 0
 2591              		.loc 4 579 1 is_stmt 0 view .LVU543
 2592 0000 38B5     		push	{r3, r4, r5, lr}
 2593              	.LCFI9:
 2594              		.cfi_def_cfa_offset 16
 2595              		.cfi_offset 3, -16
 2596              		.cfi_offset 4, -12
 2597              		.cfi_offset 5, -8
 2598              		.cfi_offset 14, -4
 2599 0002 0446     		mov	r4, r0
 2600 0004 0D46     		mov	r5, r1
 580:Lib/lvgl/src/themes/default/../../../src/core/../misc/lv_style.h ****     lv_style_set_pad_row(style, value);
 2601              		.loc 4 580 5 is_stmt 1 view .LVU544
 2602 0006 FFF7FEFF 		bl	lv_style_set_pad_row
 2603              	.LVL330:
 581:Lib/lvgl/src/themes/default/../../../src/core/../misc/lv_style.h ****     lv_style_set_pad_column(style, value);
 2604              		.loc 4 581 5 view .LVU545
 2605 000a 2946     		mov	r1, r5
 2606 000c 2046     		mov	r0, r4
 2607 000e FFF7FEFF 		bl	lv_style_set_pad_column
 2608              	.LVL331:
 582:Lib/lvgl/src/themes/default/../../../src/core/../misc/lv_style.h **** }
 2609              		.loc 4 582 1 is_stmt 0 view .LVU546
 2610 0012 38BD     		pop	{r3, r4, r5, pc}
 2611              		.loc 4 582 1 view .LVU547
 2612              		.cfi_endproc
 2613              	.LFE86:
 2615              		.section	.text.lv_style_set_pad_ver,"ax",%progbits
 2616              		.align	1
 2617              		.syntax unified
 2618              		.thumb
 2619              		.thumb_func
 2621              	lv_style_set_pad_ver:
 2622              	.LVL332:
 2623              	.LFB85:
 573:Lib/lvgl/src/themes/default/../../../src/core/../misc/lv_style.h ****     lv_style_set_pad_top(style, value);
 2624              		.loc 4 573 1 is_stmt 1 view -0
ARM GAS  C:\Users\Alex\AppData\Local\Temp\ccR26jun.s 			page 92


 2625              		.cfi_startproc
 2626              		@ args = 0, pretend = 0, frame = 0
 2627              		@ frame_needed = 0, uses_anonymous_args = 0
 573:Lib/lvgl/src/themes/default/../../../src/core/../misc/lv_style.h ****     lv_style_set_pad_top(style, value);
 2628              		.loc 4 573 1 is_stmt 0 view .LVU549
 2629 0000 38B5     		push	{r3, r4, r5, lr}
 2630              	.LCFI10:
 2631              		.cfi_def_cfa_offset 16
 2632              		.cfi_offset 3, -16
 2633              		.cfi_offset 4, -12
 2634              		.cfi_offset 5, -8
 2635              		.cfi_offset 14, -4
 2636 0002 0446     		mov	r4, r0
 2637 0004 0D46     		mov	r5, r1
 574:Lib/lvgl/src/themes/default/../../../src/core/../misc/lv_style.h ****     lv_style_set_pad_bottom(style, value);
 2638              		.loc 4 574 5 is_stmt 1 view .LVU550
 2639 0006 FFF7FEFF 		bl	lv_style_set_pad_top
 2640              	.LVL333:
 575:Lib/lvgl/src/themes/default/../../../src/core/../misc/lv_style.h **** }
 2641              		.loc 4 575 5 view .LVU551
 2642 000a 2946     		mov	r1, r5
 2643 000c 2046     		mov	r0, r4
 2644 000e FFF7FEFF 		bl	lv_style_set_pad_bottom
 2645              	.LVL334:
 576:Lib/lvgl/src/themes/default/../../../src/core/../misc/lv_style.h **** 
 2646              		.loc 4 576 1 is_stmt 0 view .LVU552
 2647 0012 38BD     		pop	{r3, r4, r5, pc}
 576:Lib/lvgl/src/themes/default/../../../src/core/../misc/lv_style.h **** 
 2648              		.loc 4 576 1 view .LVU553
 2649              		.cfi_endproc
 2650              	.LFE85:
 2652              		.section	.text.dark_color_filter_cb,"ax",%progbits
 2653              		.align	1
 2654              		.syntax unified
 2655              		.thumb
 2656              		.thumb_func
 2658              	dark_color_filter_cb:
 2659              	.LVL335:
 2660              	.LFB256:
 200:Lib/lvgl/src/themes/default/lv_theme_default.c ****     LV_UNUSED(f);
 2661              		.loc 1 200 1 is_stmt 1 view -0
 2662              		.cfi_startproc
 2663              		@ args = 0, pretend = 0, frame = 16
 2664              		@ frame_needed = 0, uses_anonymous_args = 0
 200:Lib/lvgl/src/themes/default/lv_theme_default.c ****     LV_UNUSED(f);
 2665              		.loc 1 200 1 is_stmt 0 view .LVU555
 2666 0000 00B5     		push	{lr}
 2667              	.LCFI11:
 2668              		.cfi_def_cfa_offset 4
 2669              		.cfi_offset 14, -4
 2670 0002 85B0     		sub	sp, sp, #20
 2671              	.LCFI12:
 2672              		.cfi_def_cfa_offset 24
 2673 0004 0191     		str	r1, [sp, #4]
 201:Lib/lvgl/src/themes/default/lv_theme_default.c ****     return lv_color_darken(c, opa);
 2674              		.loc 1 201 5 is_stmt 1 view .LVU556
 202:Lib/lvgl/src/themes/default/lv_theme_default.c **** }
ARM GAS  C:\Users\Alex\AppData\Local\Temp\ccR26jun.s 			page 93


 2675              		.loc 1 202 5 view .LVU557
 202:Lib/lvgl/src/themes/default/lv_theme_default.c **** }
 2676              		.loc 1 202 12 is_stmt 0 view .LVU558
 2677 0006 1146     		mov	r1, r2
 2678 0008 0198     		ldr	r0, [sp, #4]
 2679              	.LVL336:
 202:Lib/lvgl/src/themes/default/lv_theme_default.c **** }
 2680              		.loc 1 202 12 view .LVU559
 2681 000a FFF7FEFF 		bl	lv_color_darken
 2682              	.LVL337:
 202:Lib/lvgl/src/themes/default/lv_theme_default.c **** }
 2683              		.loc 1 202 12 view .LVU560
 2684 000e 8DF80C00 		strb	r0, [sp, #12]
 2685 0012 C0F30723 		ubfx	r3, r0, #8, #8
 2686 0016 8DF80D30 		strb	r3, [sp, #13]
 2687 001a C0F30740 		ubfx	r0, r0, #16, #8
 2688 001e 8DF80E00 		strb	r0, [sp, #14]
 2689 0022 0020     		movs	r0, #0
 2690 0024 9DF80C30 		ldrb	r3, [sp, #12]	@ zero_extendqisi2
 2691 0028 63F30700 		bfi	r0, r3, #0, #8
 2692 002c 9DF80D30 		ldrb	r3, [sp, #13]	@ zero_extendqisi2
 2693 0030 63F30F20 		bfi	r0, r3, #8, #8
 2694 0034 9DF80E30 		ldrb	r3, [sp, #14]	@ zero_extendqisi2
 2695 0038 63F31740 		bfi	r0, r3, #16, #8
 203:Lib/lvgl/src/themes/default/lv_theme_default.c **** 
 2696              		.loc 1 203 1 view .LVU561
 2697 003c 05B0     		add	sp, sp, #20
 2698              	.LCFI13:
 2699              		.cfi_def_cfa_offset 4
 2700              		@ sp needed
 2701 003e 5DF804FB 		ldr	pc, [sp], #4
 2702              		.cfi_endproc
 2703              	.LFE256:
 2705              		.section	.text.lv_style_set_pad_hor,"ax",%progbits
 2706              		.align	1
 2707              		.syntax unified
 2708              		.thumb
 2709              		.thumb_func
 2711              	lv_style_set_pad_hor:
 2712              	.LVL338:
 2713              	.LFB84:
 567:Lib/lvgl/src/themes/default/../../../src/core/../misc/lv_style.h ****     lv_style_set_pad_left(style, value);
 2714              		.loc 4 567 1 is_stmt 1 view -0
 2715              		.cfi_startproc
 2716              		@ args = 0, pretend = 0, frame = 0
 2717              		@ frame_needed = 0, uses_anonymous_args = 0
 567:Lib/lvgl/src/themes/default/../../../src/core/../misc/lv_style.h ****     lv_style_set_pad_left(style, value);
 2718              		.loc 4 567 1 is_stmt 0 view .LVU563
 2719 0000 38B5     		push	{r3, r4, r5, lr}
 2720              	.LCFI14:
 2721              		.cfi_def_cfa_offset 16
 2722              		.cfi_offset 3, -16
 2723              		.cfi_offset 4, -12
 2724              		.cfi_offset 5, -8
 2725              		.cfi_offset 14, -4
 2726 0002 0446     		mov	r4, r0
 2727 0004 0D46     		mov	r5, r1
ARM GAS  C:\Users\Alex\AppData\Local\Temp\ccR26jun.s 			page 94


 568:Lib/lvgl/src/themes/default/../../../src/core/../misc/lv_style.h ****     lv_style_set_pad_right(style, value);
 2728              		.loc 4 568 5 is_stmt 1 view .LVU564
 2729 0006 FFF7FEFF 		bl	lv_style_set_pad_left
 2730              	.LVL339:
 569:Lib/lvgl/src/themes/default/../../../src/core/../misc/lv_style.h **** }
 2731              		.loc 4 569 5 view .LVU565
 2732 000a 2946     		mov	r1, r5
 2733 000c 2046     		mov	r0, r4
 2734 000e FFF7FEFF 		bl	lv_style_set_pad_right
 2735              	.LVL340:
 570:Lib/lvgl/src/themes/default/../../../src/core/../misc/lv_style.h **** 
 2736              		.loc 4 570 1 is_stmt 0 view .LVU566
 2737 0012 38BD     		pop	{r3, r4, r5, pc}
 570:Lib/lvgl/src/themes/default/../../../src/core/../misc/lv_style.h **** 
 2738              		.loc 4 570 1 view .LVU567
 2739              		.cfi_endproc
 2740              	.LFE84:
 2742              		.section	.text.lv_style_set_pad_all,"ax",%progbits
 2743              		.align	1
 2744              		.syntax unified
 2745              		.thumb
 2746              		.thumb_func
 2748              	lv_style_set_pad_all:
 2749              	.LVL341:
 2750              	.LFB83:
 559:Lib/lvgl/src/themes/default/../../../src/core/../misc/lv_style.h ****     lv_style_set_pad_left(style, value);
 2751              		.loc 4 559 1 is_stmt 1 view -0
 2752              		.cfi_startproc
 2753              		@ args = 0, pretend = 0, frame = 0
 2754              		@ frame_needed = 0, uses_anonymous_args = 0
 559:Lib/lvgl/src/themes/default/../../../src/core/../misc/lv_style.h ****     lv_style_set_pad_left(style, value);
 2755              		.loc 4 559 1 is_stmt 0 view .LVU569
 2756 0000 38B5     		push	{r3, r4, r5, lr}
 2757              	.LCFI15:
 2758              		.cfi_def_cfa_offset 16
 2759              		.cfi_offset 3, -16
 2760              		.cfi_offset 4, -12
 2761              		.cfi_offset 5, -8
 2762              		.cfi_offset 14, -4
 2763 0002 0446     		mov	r4, r0
 2764 0004 0D46     		mov	r5, r1
 560:Lib/lvgl/src/themes/default/../../../src/core/../misc/lv_style.h ****     lv_style_set_pad_right(style, value);
 2765              		.loc 4 560 5 is_stmt 1 view .LVU570
 2766 0006 FFF7FEFF 		bl	lv_style_set_pad_left
 2767              	.LVL342:
 561:Lib/lvgl/src/themes/default/../../../src/core/../misc/lv_style.h ****     lv_style_set_pad_top(style, value);
 2768              		.loc 4 561 5 view .LVU571
 2769 000a 2946     		mov	r1, r5
 2770 000c 2046     		mov	r0, r4
 2771 000e FFF7FEFF 		bl	lv_style_set_pad_right
 2772              	.LVL343:
 562:Lib/lvgl/src/themes/default/../../../src/core/../misc/lv_style.h ****     lv_style_set_pad_bottom(style, value);
 2773              		.loc 4 562 5 view .LVU572
 2774 0012 2946     		mov	r1, r5
 2775 0014 2046     		mov	r0, r4
 2776 0016 FFF7FEFF 		bl	lv_style_set_pad_top
 2777              	.LVL344:
ARM GAS  C:\Users\Alex\AppData\Local\Temp\ccR26jun.s 			page 95


 563:Lib/lvgl/src/themes/default/../../../src/core/../misc/lv_style.h **** }
 2778              		.loc 4 563 5 view .LVU573
 2779 001a 2946     		mov	r1, r5
 2780 001c 2046     		mov	r0, r4
 2781 001e FFF7FEFF 		bl	lv_style_set_pad_bottom
 2782              	.LVL345:
 564:Lib/lvgl/src/themes/default/../../../src/core/../misc/lv_style.h **** 
 2783              		.loc 4 564 1 is_stmt 0 view .LVU574
 2784 0022 38BD     		pop	{r3, r4, r5, pc}
 564:Lib/lvgl/src/themes/default/../../../src/core/../misc/lv_style.h **** 
 2785              		.loc 4 564 1 view .LVU575
 2786              		.cfi_endproc
 2787              	.LFE83:
 2789              		.section	.text.style_init_reset,"ax",%progbits
 2790              		.align	1
 2791              		.syntax unified
 2792              		.thumb
 2793              		.thumb_func
 2795              	style_init_reset:
 2796              	.LVL346:
 2797              	.LFB264:
1204:Lib/lvgl/src/themes/default/lv_theme_default.c **** 
1205:Lib/lvgl/src/themes/default/lv_theme_default.c **** /**********************
1206:Lib/lvgl/src/themes/default/lv_theme_default.c ****  *   STATIC FUNCTIONS
1207:Lib/lvgl/src/themes/default/lv_theme_default.c ****  **********************/
1208:Lib/lvgl/src/themes/default/lv_theme_default.c **** 
1209:Lib/lvgl/src/themes/default/lv_theme_default.c **** static void style_init_reset(lv_style_t * style)
1210:Lib/lvgl/src/themes/default/lv_theme_default.c **** {
 2798              		.loc 1 1210 1 is_stmt 1 view -0
 2799              		.cfi_startproc
 2800              		@ args = 0, pretend = 0, frame = 0
 2801              		@ frame_needed = 0, uses_anonymous_args = 0
 2802              		.loc 1 1210 1 is_stmt 0 view .LVU577
 2803 0000 08B5     		push	{r3, lr}
 2804              	.LCFI16:
 2805              		.cfi_def_cfa_offset 8
 2806              		.cfi_offset 3, -8
 2807              		.cfi_offset 14, -4
1211:Lib/lvgl/src/themes/default/lv_theme_default.c ****     if(theme_def->inited) {
 2808              		.loc 1 1211 5 is_stmt 1 view .LVU578
 2809              		.loc 1 1211 8 is_stmt 0 view .LVU579
 2810 0002 064B     		ldr	r3, .L105
 2811 0004 D3F87C31 		ldr	r3, [r3, #380]
 2812              		.loc 1 1211 17 view .LVU580
 2813 0008 93F83C30 		ldrb	r3, [r3, #60]	@ zero_extendqisi2
 2814              		.loc 1 1211 7 view .LVU581
 2815 000c 13B1     		cbz	r3, .L102
1212:Lib/lvgl/src/themes/default/lv_theme_default.c ****         lv_style_reset(style);
 2816              		.loc 1 1212 9 is_stmt 1 view .LVU582
 2817 000e FFF7FEFF 		bl	lv_style_reset
 2818              	.LVL347:
 2819              	.L101:
1213:Lib/lvgl/src/themes/default/lv_theme_default.c ****     }
1214:Lib/lvgl/src/themes/default/lv_theme_default.c ****     else {
1215:Lib/lvgl/src/themes/default/lv_theme_default.c ****         lv_style_init(style);
1216:Lib/lvgl/src/themes/default/lv_theme_default.c ****     }
1217:Lib/lvgl/src/themes/default/lv_theme_default.c **** }
ARM GAS  C:\Users\Alex\AppData\Local\Temp\ccR26jun.s 			page 96


 2820              		.loc 1 1217 1 is_stmt 0 view .LVU583
 2821 0012 08BD     		pop	{r3, pc}
 2822              	.LVL348:
 2823              	.L102:
1215:Lib/lvgl/src/themes/default/lv_theme_default.c ****     }
 2824              		.loc 1 1215 9 is_stmt 1 view .LVU584
 2825 0014 FFF7FEFF 		bl	lv_style_init
 2826              	.LVL349:
 2827              		.loc 1 1217 1 is_stmt 0 view .LVU585
 2828 0018 FBE7     		b	.L101
 2829              	.L106:
 2830 001a 00BF     		.align	2
 2831              	.L105:
 2832 001c 00000000 		.word	lv_global
 2833              		.cfi_endproc
 2834              	.LFE264:
 2836              		.section	.rodata.style_init.str1.4,"aMS",%progbits,1
 2837              		.align	2
 2838              	.LC0:
 2839 0000 EF808C00 		.ascii	"\357\200\214\000"
 2840              		.section	.text.style_init,"ax",%progbits
 2841              		.align	1
 2842              		.syntax unified
 2843              		.thumb
 2844              		.thumb_func
 2846              	style_init:
 2847              	.LVL350:
 2848              	.LFB258:
 213:Lib/lvgl/src/themes/default/lv_theme_default.c **** #if TRANSITION_TIME
 2849              		.loc 1 213 1 is_stmt 1 view -0
 2850              		.cfi_startproc
 2851              		@ args = 0, pretend = 0, frame = 144
 2852              		@ frame_needed = 0, uses_anonymous_args = 0
 213:Lib/lvgl/src/themes/default/lv_theme_default.c **** #if TRANSITION_TIME
 2853              		.loc 1 213 1 is_stmt 0 view .LVU587
 2854 0000 2DE9F04F 		push	{r4, r5, r6, r7, r8, r9, r10, fp, lr}
 2855              	.LCFI17:
 2856              		.cfi_def_cfa_offset 36
 2857              		.cfi_offset 4, -36
 2858              		.cfi_offset 5, -32
 2859              		.cfi_offset 6, -28
 2860              		.cfi_offset 7, -24
 2861              		.cfi_offset 8, -20
 2862              		.cfi_offset 9, -16
 2863              		.cfi_offset 10, -12
 2864              		.cfi_offset 11, -8
 2865              		.cfi_offset 14, -4
 2866 0004 A7B0     		sub	sp, sp, #156
 2867              	.LCFI18:
 2868              		.cfi_def_cfa_offset 192
 2869 0006 0446     		mov	r4, r0
 215:Lib/lvgl/src/themes/default/lv_theme_default.c ****         LV_STYLE_BG_OPA, LV_STYLE_BG_COLOR,
 2870              		.loc 1 215 5 is_stmt 1 view .LVU588
 226:Lib/lvgl/src/themes/default/lv_theme_default.c ****     theme->color_text = theme->base.flags & MODE_DARK ? DARK_COLOR_TEXT : LIGHT_COLOR_TEXT;
 2871              		.loc 1 226 5 view .LVU589
 226:Lib/lvgl/src/themes/default/lv_theme_default.c ****     theme->color_text = theme->base.flags & MODE_DARK ? DARK_COLOR_TEXT : LIGHT_COLOR_TEXT;
 2872              		.loc 1 226 35 is_stmt 0 view .LVU590
ARM GAS  C:\Users\Alex\AppData\Local\Temp\ccR26jun.s 			page 97


 2873 0008 436A     		ldr	r3, [r0, #36]
 226:Lib/lvgl/src/themes/default/lv_theme_default.c ****     theme->color_text = theme->base.flags & MODE_DARK ? DARK_COLOR_TEXT : LIGHT_COLOR_TEXT;
 2874              		.loc 1 226 71 view .LVU591
 2875 000a 13F0010F 		tst	r3, #1
 2876 000e 00F0C580 		beq	.L108
 2877              	.LVL351:
 2878              	.LBB58:
 2879              	.LBI58:
 253:c:\users\alex\eclipse-workspace\lvgs_test\lib\lvgl\src\misc\lv_color.h **** 
 254:c:\users\alex\eclipse-workspace\lvgs_test\lib\lvgl\src\misc\lv_color.h **** /**
 255:c:\users\alex\eclipse-workspace\lvgs_test\lib\lvgl\src\misc\lv_color.h ****  * Check if two ARGB8888 color are equal
 256:c:\users\alex\eclipse-workspace\lvgs_test\lib\lvgl\src\misc\lv_color.h ****  * @param c1    the first color
 257:c:\users\alex\eclipse-workspace\lvgs_test\lib\lvgl\src\misc\lv_color.h ****  * @param c2    the second color
 258:c:\users\alex\eclipse-workspace\lvgs_test\lib\lvgl\src\misc\lv_color.h ****  * @return      true: equal
 259:c:\users\alex\eclipse-workspace\lvgs_test\lib\lvgl\src\misc\lv_color.h ****  */
 260:c:\users\alex\eclipse-workspace\lvgs_test\lib\lvgl\src\misc\lv_color.h **** static inline bool lv_color32_eq(lv_color32_t c1, lv_color32_t c2)
 261:c:\users\alex\eclipse-workspace\lvgs_test\lib\lvgl\src\misc\lv_color.h **** {
 262:c:\users\alex\eclipse-workspace\lvgs_test\lib\lvgl\src\misc\lv_color.h ****     return *((uint32_t *)&c1) == *((uint32_t *)&c2);
 263:c:\users\alex\eclipse-workspace\lvgs_test\lib\lvgl\src\misc\lv_color.h **** }
 264:c:\users\alex\eclipse-workspace\lvgs_test\lib\lvgl\src\misc\lv_color.h **** 
 265:c:\users\alex\eclipse-workspace\lvgs_test\lib\lvgl\src\misc\lv_color.h **** /**
 266:c:\users\alex\eclipse-workspace\lvgs_test\lib\lvgl\src\misc\lv_color.h ****  * Create a color from 0x000000..0xffffff input
 267:c:\users\alex\eclipse-workspace\lvgs_test\lib\lvgl\src\misc\lv_color.h ****  * @param c     the hex input
 268:c:\users\alex\eclipse-workspace\lvgs_test\lib\lvgl\src\misc\lv_color.h ****  * @return      the color
 269:c:\users\alex\eclipse-workspace\lvgs_test\lib\lvgl\src\misc\lv_color.h ****  */
 270:c:\users\alex\eclipse-workspace\lvgs_test\lib\lvgl\src\misc\lv_color.h **** static inline lv_color_t lv_color_hex(uint32_t c)
 2880              		.loc 2 270 26 is_stmt 1 view .LVU592
 2881              	.LBB59:
 271:c:\users\alex\eclipse-workspace\lvgs_test\lib\lvgl\src\misc\lv_color.h **** {
 272:c:\users\alex\eclipse-workspace\lvgs_test\lib\lvgl\src\misc\lv_color.h ****     lv_color_t ret;
 2882              		.loc 2 272 5 view .LVU593
 273:c:\users\alex\eclipse-workspace\lvgs_test\lib\lvgl\src\misc\lv_color.h ****     ret.red = (c >> 16) & 0xff;
 2883              		.loc 2 273 5 view .LVU594
 2884              		.loc 2 273 13 is_stmt 0 view .LVU595
 2885 0012 1523     		movs	r3, #21
 2886 0014 8DF80E30 		strb	r3, [sp, #14]
 274:c:\users\alex\eclipse-workspace\lvgs_test\lib\lvgl\src\misc\lv_color.h ****     ret.green = (c >> 8) & 0xff;
 2887              		.loc 2 274 5 is_stmt 1 view .LVU596
 2888              		.loc 2 274 15 is_stmt 0 view .LVU597
 2889 0018 1723     		movs	r3, #23
 2890 001a 8DF80D30 		strb	r3, [sp, #13]
 275:c:\users\alex\eclipse-workspace\lvgs_test\lib\lvgl\src\misc\lv_color.h ****     ret.blue = (c >> 0) & 0xff;
 2891              		.loc 2 275 5 is_stmt 1 view .LVU598
 2892              		.loc 2 275 14 is_stmt 0 view .LVU599
 2893 001e 1A23     		movs	r3, #26
 2894 0020 8DF80C30 		strb	r3, [sp, #12]
 276:c:\users\alex\eclipse-workspace\lvgs_test\lib\lvgl\src\misc\lv_color.h ****     return ret;
 2895              		.loc 2 276 5 is_stmt 1 view .LVU600
 2896              		.loc 2 276 12 is_stmt 0 view .LVU601
 2897 0024 039B     		ldr	r3, [sp, #12]
 2898 0026 ADF84830 		strh	r3, [sp, #72]	@ movhi
 2899 002a 1B0C     		lsrs	r3, r3, #16
 2900 002c 8DF84A30 		strb	r3, [sp, #74]
 2901 0030 129B     		ldr	r3, [sp, #72]
 2902 0032 ADF84430 		strh	r3, [sp, #68]	@ movhi
 2903 0036 1B0C     		lsrs	r3, r3, #16
 2904 0038 8DF84630 		strb	r3, [sp, #70]
ARM GAS  C:\Users\Alex\AppData\Local\Temp\ccR26jun.s 			page 98


 2905              	.LVL352:
 2906              		.loc 2 276 12 view .LVU602
 2907              	.LBE59:
 2908              	.LBE58:
 226:Lib/lvgl/src/themes/default/lv_theme_default.c ****     theme->color_text = theme->base.flags & MODE_DARK ? DARK_COLOR_TEXT : LIGHT_COLOR_TEXT;
 2909              		.loc 1 226 56 view .LVU603
 2910 003c 119B     		ldr	r3, [sp, #68]
 2911 003e 0386     		strh	r3, [r0, #48]	@ movhi
 2912 0040 1B0C     		lsrs	r3, r3, #16
 2913 0042 80F83230 		strb	r3, [r0, #50]
 2914              	.LVL353:
 2915              	.L109:
 227:Lib/lvgl/src/themes/default/lv_theme_default.c ****     theme->color_card = theme->base.flags & MODE_DARK ? DARK_COLOR_CARD : LIGHT_COLOR_CARD;
 2916              		.loc 1 227 5 is_stmt 1 view .LVU604
 227:Lib/lvgl/src/themes/default/lv_theme_default.c ****     theme->color_card = theme->base.flags & MODE_DARK ? DARK_COLOR_CARD : LIGHT_COLOR_CARD;
 2917              		.loc 1 227 36 is_stmt 0 view .LVU605
 2918 0046 636A     		ldr	r3, [r4, #36]
 227:Lib/lvgl/src/themes/default/lv_theme_default.c ****     theme->color_card = theme->base.flags & MODE_DARK ? DARK_COLOR_CARD : LIGHT_COLOR_CARD;
 2919              		.loc 1 227 73 view .LVU606
 2920 0048 13F0010F 		tst	r3, #1
 2921 004c 00F0B580 		beq	.L110
 227:Lib/lvgl/src/themes/default/lv_theme_default.c ****     theme->color_card = theme->base.flags & MODE_DARK ? DARK_COLOR_CARD : LIGHT_COLOR_CARD;
 2922              		.loc 1 227 57 discriminator 1 view .LVU607
 2923 0050 0521     		movs	r1, #5
 2924 0052 1220     		movs	r0, #18
 2925 0054 FFF7FEFF 		bl	lv_palette_lighten
 2926              	.LVL354:
 2927 0058 84F83300 		strb	r0, [r4, #51]
 2928 005c C0F30723 		ubfx	r3, r0, #8, #8
 2929 0060 84F83430 		strb	r3, [r4, #52]
 2930 0064 C0F30740 		ubfx	r0, r0, #16, #8
 2931 0068 84F83500 		strb	r0, [r4, #53]
 2932              	.L111:
 228:Lib/lvgl/src/themes/default/lv_theme_default.c ****     theme->color_grey = theme->base.flags & MODE_DARK ? DARK_COLOR_GREY : LIGHT_COLOR_GREY;
 2933              		.loc 1 228 5 is_stmt 1 view .LVU608
 228:Lib/lvgl/src/themes/default/lv_theme_default.c ****     theme->color_grey = theme->base.flags & MODE_DARK ? DARK_COLOR_GREY : LIGHT_COLOR_GREY;
 2934              		.loc 1 228 36 is_stmt 0 view .LVU609
 2935 006c 636A     		ldr	r3, [r4, #36]
 228:Lib/lvgl/src/themes/default/lv_theme_default.c ****     theme->color_grey = theme->base.flags & MODE_DARK ? DARK_COLOR_GREY : LIGHT_COLOR_GREY;
 2936              		.loc 1 228 73 view .LVU610
 2937 006e 13F00103 		ands	r3, r3, #1
 2938 0072 00F0B180 		beq	.L112
 2939              	.LVL355:
 2940              	.LBB60:
 2941              	.LBI60:
 270:c:\users\alex\eclipse-workspace\lvgs_test\lib\lvgl\src\misc\lv_color.h **** {
 2942              		.loc 2 270 26 is_stmt 1 view .LVU611
 2943              	.LBB61:
 272:c:\users\alex\eclipse-workspace\lvgs_test\lib\lvgl\src\misc\lv_color.h ****     ret.red = (c >> 16) & 0xff;
 2944              		.loc 2 272 5 view .LVU612
 273:c:\users\alex\eclipse-workspace\lvgs_test\lib\lvgl\src\misc\lv_color.h ****     ret.green = (c >> 8) & 0xff;
 2945              		.loc 2 273 5 view .LVU613
 273:c:\users\alex\eclipse-workspace\lvgs_test\lib\lvgl\src\misc\lv_color.h ****     ret.green = (c >> 8) & 0xff;
 2946              		.loc 2 273 13 is_stmt 0 view .LVU614
 2947 0076 2822     		movs	r2, #40
 2948 0078 8DF80E20 		strb	r2, [sp, #14]
 274:c:\users\alex\eclipse-workspace\lvgs_test\lib\lvgl\src\misc\lv_color.h ****     ret.blue = (c >> 0) & 0xff;
ARM GAS  C:\Users\Alex\AppData\Local\Temp\ccR26jun.s 			page 99


 2949              		.loc 2 274 5 is_stmt 1 view .LVU615
 274:c:\users\alex\eclipse-workspace\lvgs_test\lib\lvgl\src\misc\lv_color.h ****     ret.blue = (c >> 0) & 0xff;
 2950              		.loc 2 274 15 is_stmt 0 view .LVU616
 2951 007c 2B22     		movs	r2, #43
 2952 007e 8DF80D20 		strb	r2, [sp, #13]
 275:c:\users\alex\eclipse-workspace\lvgs_test\lib\lvgl\src\misc\lv_color.h ****     return ret;
 2953              		.loc 2 275 5 is_stmt 1 view .LVU617
 275:c:\users\alex\eclipse-workspace\lvgs_test\lib\lvgl\src\misc\lv_color.h ****     return ret;
 2954              		.loc 2 275 14 is_stmt 0 view .LVU618
 2955 0082 3022     		movs	r2, #48
 2956 0084 8DF80C20 		strb	r2, [sp, #12]
 2957              		.loc 2 276 5 is_stmt 1 view .LVU619
 2958              		.loc 2 276 12 is_stmt 0 view .LVU620
 2959 0088 039A     		ldr	r2, [sp, #12]
 2960 008a ADF85020 		strh	r2, [sp, #80]	@ movhi
 2961 008e 120C     		lsrs	r2, r2, #16
 2962 0090 8DF85220 		strb	r2, [sp, #82]
 2963 0094 149A     		ldr	r2, [sp, #80]
 2964 0096 ADF84C20 		strh	r2, [sp, #76]	@ movhi
 2965 009a 120C     		lsrs	r2, r2, #16
 2966 009c 8DF84E20 		strb	r2, [sp, #78]
 2967              	.LVL356:
 2968              		.loc 2 276 12 view .LVU621
 2969              	.LBE61:
 2970              	.LBE60:
 228:Lib/lvgl/src/themes/default/lv_theme_default.c ****     theme->color_grey = theme->base.flags & MODE_DARK ? DARK_COLOR_GREY : LIGHT_COLOR_GREY;
 2971              		.loc 1 228 57 view .LVU622
 2972 00a0 BDF84C10 		ldrh	r1, [sp, #76]	@ unaligned
 2973 00a4 D2B2     		uxtb	r2, r2
 2974 00a6 E186     		strh	r1, [r4, #54]	@ unaligned
 2975 00a8 84F83820 		strb	r2, [r4, #56]
 2976              	.L113:
 229:Lib/lvgl/src/themes/default/lv_theme_default.c **** 
 2977              		.loc 1 229 5 is_stmt 1 view .LVU623
 229:Lib/lvgl/src/themes/default/lv_theme_default.c **** 
 2978              		.loc 1 229 73 is_stmt 0 view .LVU624
 2979 00ac 002B     		cmp	r3, #0
 2980 00ae 00F0B380 		beq	.L114
 2981              	.LVL357:
 2982              	.LBB62:
 2983              	.LBI62:
 270:c:\users\alex\eclipse-workspace\lvgs_test\lib\lvgl\src\misc\lv_color.h **** {
 2984              		.loc 2 270 26 is_stmt 1 view .LVU625
 2985              	.LBB63:
 272:c:\users\alex\eclipse-workspace\lvgs_test\lib\lvgl\src\misc\lv_color.h ****     ret.red = (c >> 16) & 0xff;
 2986              		.loc 2 272 5 view .LVU626
 273:c:\users\alex\eclipse-workspace\lvgs_test\lib\lvgl\src\misc\lv_color.h ****     ret.green = (c >> 8) & 0xff;
 2987              		.loc 2 273 5 view .LVU627
 273:c:\users\alex\eclipse-workspace\lvgs_test\lib\lvgl\src\misc\lv_color.h ****     ret.green = (c >> 8) & 0xff;
 2988              		.loc 2 273 13 is_stmt 0 view .LVU628
 2989 00b2 2F23     		movs	r3, #47
 2990 00b4 8DF80E30 		strb	r3, [sp, #14]
 274:c:\users\alex\eclipse-workspace\lvgs_test\lib\lvgl\src\misc\lv_color.h ****     ret.blue = (c >> 0) & 0xff;
 2991              		.loc 2 274 5 is_stmt 1 view .LVU629
 274:c:\users\alex\eclipse-workspace\lvgs_test\lib\lvgl\src\misc\lv_color.h ****     ret.blue = (c >> 0) & 0xff;
 2992              		.loc 2 274 15 is_stmt 0 view .LVU630
 2993 00b8 3223     		movs	r3, #50
ARM GAS  C:\Users\Alex\AppData\Local\Temp\ccR26jun.s 			page 100


 2994 00ba 8DF80D30 		strb	r3, [sp, #13]
 275:c:\users\alex\eclipse-workspace\lvgs_test\lib\lvgl\src\misc\lv_color.h ****     return ret;
 2995              		.loc 2 275 5 is_stmt 1 view .LVU631
 275:c:\users\alex\eclipse-workspace\lvgs_test\lib\lvgl\src\misc\lv_color.h ****     return ret;
 2996              		.loc 2 275 14 is_stmt 0 view .LVU632
 2997 00be 3723     		movs	r3, #55
 2998 00c0 8DF80C30 		strb	r3, [sp, #12]
 2999              		.loc 2 276 5 is_stmt 1 view .LVU633
 3000              		.loc 2 276 12 is_stmt 0 view .LVU634
 3001 00c4 039B     		ldr	r3, [sp, #12]
 3002 00c6 ADF86430 		strh	r3, [sp, #100]	@ movhi
 3003 00ca 1B0C     		lsrs	r3, r3, #16
 3004 00cc 8DF86630 		strb	r3, [sp, #102]
 3005 00d0 199B     		ldr	r3, [sp, #100]
 3006 00d2 ADF86030 		strh	r3, [sp, #96]	@ movhi
 3007 00d6 1B0C     		lsrs	r3, r3, #16
 3008 00d8 8DF86230 		strb	r3, [sp, #98]
 3009              	.LVL358:
 3010              		.loc 2 276 12 view .LVU635
 3011              	.LBE63:
 3012              	.LBE62:
 229:Lib/lvgl/src/themes/default/lv_theme_default.c **** 
 3013              		.loc 1 229 57 view .LVU636
 3014 00dc BDF86020 		ldrh	r2, [sp, #96]	@ unaligned
 3015 00e0 DBB2     		uxtb	r3, r3
 3016 00e2 A4F83920 		strh	r2, [r4, #57]	@ unaligned
 3017 00e6 84F83B30 		strb	r3, [r4, #59]
 3018              	.L115:
 231:Lib/lvgl/src/themes/default/lv_theme_default.c ****     style_init_reset(&theme->styles.transition_normal);
 3019              		.loc 1 231 5 is_stmt 1 view .LVU637
 3020 00ea 04F5BC79 		add	r9, r4, #376
 3021 00ee 4846     		mov	r0, r9
 3022 00f0 FFF7FEFF 		bl	style_init_reset
 3023              	.LVL359:
 232:Lib/lvgl/src/themes/default/lv_theme_default.c **** #if TRANSITION_TIME
 3024              		.loc 1 232 5 view .LVU638
 3025 00f4 04F5C278 		add	r8, r4, #388
 3026 00f8 4046     		mov	r0, r8
 3027 00fa FFF7FEFF 		bl	style_init_reset
 3028              	.LVL360:
 234:Lib/lvgl/src/themes/default/lv_theme_default.c ****     lv_style_transition_dsc_init(&theme->trans_normal, trans_props, lv_anim_path_linear, TRANSITION
 3029              		.loc 1 234 5 view .LVU639
 3030 00fe 04F55A75 		add	r5, r4, #872
 3031 0102 DFF874B1 		ldr	fp, .L451+4
 3032 0106 DFF874A1 		ldr	r10, .L451+8
 3033 010a 0027     		movs	r7, #0
 3034 010c 0197     		str	r7, [sp, #4]
 3035 010e 4623     		movs	r3, #70
 3036 0110 0093     		str	r3, [sp]
 3037 0112 5023     		movs	r3, #80
 3038 0114 5A46     		mov	r2, fp
 3039 0116 5146     		mov	r1, r10
 3040 0118 2846     		mov	r0, r5
 3041 011a FFF7FEFF 		bl	lv_style_transition_dsc_init
 3042              	.LVL361:
 235:Lib/lvgl/src/themes/default/lv_theme_default.c **** 
 3043              		.loc 1 235 5 view .LVU640
ARM GAS  C:\Users\Alex\AppData\Local\Temp\ccR26jun.s 			page 101


 3044 011e 04F55F76 		add	r6, r4, #892
 3045 0122 0197     		str	r7, [sp, #4]
 3046 0124 0097     		str	r7, [sp]
 3047 0126 5023     		movs	r3, #80
 3048 0128 5A46     		mov	r2, fp
 3049 012a 5146     		mov	r1, r10
 3050 012c 3046     		mov	r0, r6
 3051 012e FFF7FEFF 		bl	lv_style_transition_dsc_init
 3052              	.LVL362:
 237:Lib/lvgl/src/themes/default/lv_theme_default.c ****                             &theme->trans_delayed); /*Go back to default state with delay*/
 3053              		.loc 1 237 5 view .LVU641
 3054 0132 2946     		mov	r1, r5
 3055 0134 4846     		mov	r0, r9
 3056 0136 FFF7FEFF 		bl	lv_style_set_transition
 3057              	.LVL363:
 240:Lib/lvgl/src/themes/default/lv_theme_default.c **** #endif
 3058              		.loc 1 240 5 view .LVU642
 3059 013a 3146     		mov	r1, r6
 3060 013c 4046     		mov	r0, r8
 3061 013e FFF7FEFF 		bl	lv_style_set_transition
 3062              	.LVL364:
 243:Lib/lvgl/src/themes/default/lv_theme_default.c ****     lv_color_t sb_color = (theme->base.flags & MODE_DARK) ? lv_palette_darken(LV_PALETTE_GREY,
 3063              		.loc 1 243 5 view .LVU643
 3064 0142 04F14C05 		add	r5, r4, #76
 3065 0146 2846     		mov	r0, r5
 3066 0148 FFF7FEFF 		bl	style_init_reset
 3067              	.LVL365:
 244:Lib/lvgl/src/themes/default/lv_theme_default.c ****                                                                               2) : lv_palette_main(
 3068              		.loc 1 244 5 view .LVU644
 244:Lib/lvgl/src/themes/default/lv_theme_default.c ****                                                                               2) : lv_palette_main(
 3069              		.loc 1 244 39 is_stmt 0 view .LVU645
 3070 014c 636A     		ldr	r3, [r4, #36]
 245:Lib/lvgl/src/themes/default/lv_theme_default.c ****     lv_style_set_bg_color(&theme->styles.scrollbar, sb_color);
 3071              		.loc 1 245 82 view .LVU646
 3072 014e 13F0010F 		tst	r3, #1
 3073 0152 70D0     		beq	.L116
 244:Lib/lvgl/src/themes/default/lv_theme_default.c ****                                                                               2) : lv_palette_main(
 3074              		.loc 1 244 61 view .LVU647
 3075 0154 0221     		movs	r1, #2
 3076 0156 1220     		movs	r0, #18
 3077 0158 FFF7FEFF 		bl	lv_palette_darken
 3078              	.LVL366:
 3079 015c 8DF81000 		strb	r0, [sp, #16]
 3080 0160 C0F30723 		ubfx	r3, r0, #8, #8
 3081 0164 8DF81130 		strb	r3, [sp, #17]
 3082 0168 C0F30740 		ubfx	r0, r0, #16, #8
 3083 016c 8DF81200 		strb	r0, [sp, #18]
 3084              	.L117:
 246:Lib/lvgl/src/themes/default/lv_theme_default.c **** 
 3085              		.loc 1 246 5 is_stmt 1 view .LVU648
 3086 0170 0499     		ldr	r1, [sp, #16]
 3087 0172 2846     		mov	r0, r5
 3088 0174 FFF7FEFF 		bl	lv_style_set_bg_color
 3089              	.LVL367:
 248:Lib/lvgl/src/themes/default/lv_theme_default.c ****     lv_style_set_pad_all(&theme->styles.scrollbar, _LV_DPX_CALC(theme->disp_dpi, 7));
 3090              		.loc 1 248 5 view .LVU649
 3091 0178 47F6FF71 		movw	r1, #32767
ARM GAS  C:\Users\Alex\AppData\Local\Temp\ccR26jun.s 			page 102


 3092 017c 2846     		mov	r0, r5
 3093 017e FFF7FEFF 		bl	lv_style_set_radius
 3094              	.LVL368:
 249:Lib/lvgl/src/themes/default/lv_theme_default.c ****     lv_style_set_width(&theme->styles.scrollbar,  _LV_DPX_CALC(theme->disp_dpi, 5));
 3095              		.loc 1 249 5 view .LVU650
 249:Lib/lvgl/src/themes/default/lv_theme_default.c ****     lv_style_set_width(&theme->styles.scrollbar,  _LV_DPX_CALC(theme->disp_dpi, 5));
 3096              		.loc 1 249 52 is_stmt 0 view .LVU651
 3097 0182 E16A     		ldr	r1, [r4, #44]
 3098 0184 C1EBC101 		rsb	r1, r1, r1, lsl #3
 249:Lib/lvgl/src/themes/default/lv_theme_default.c ****     lv_style_set_width(&theme->styles.scrollbar,  _LV_DPX_CALC(theme->disp_dpi, 5));
 3099              		.loc 1 249 5 view .LVU652
 3100 0188 EF29     		cmp	r1, #239
 3101 018a 62DD     		ble	.L244
 249:Lib/lvgl/src/themes/default/lv_theme_default.c ****     lv_style_set_width(&theme->styles.scrollbar,  _LV_DPX_CALC(theme->disp_dpi, 5));
 3102              		.loc 1 249 52 discriminator 1 view .LVU653
 3103 018c 5031     		adds	r1, r1, #80
 249:Lib/lvgl/src/themes/default/lv_theme_default.c ****     lv_style_set_width(&theme->styles.scrollbar,  _LV_DPX_CALC(theme->disp_dpi, 5));
 3104              		.loc 1 249 5 discriminator 1 view .LVU654
 3105 018e 394B     		ldr	r3, .L451
 3106 0190 83FB0123 		smull	r2, r3, r3, r1
 3107 0194 C917     		asrs	r1, r1, #31
 3108 0196 C1EBA311 		rsb	r1, r1, r3, asr #6
 3109 019a 5BE0     		b	.L118
 3110              	.LVL369:
 3111              	.L108:
 226:Lib/lvgl/src/themes/default/lv_theme_default.c ****     theme->color_text = theme->base.flags & MODE_DARK ? DARK_COLOR_TEXT : LIGHT_COLOR_TEXT;
 3112              		.loc 1 226 73 discriminator 2 view .LVU655
 3113 019c 0421     		movs	r1, #4
 3114 019e 1220     		movs	r0, #18
 3115              	.LVL370:
 226:Lib/lvgl/src/themes/default/lv_theme_default.c ****     theme->color_text = theme->base.flags & MODE_DARK ? DARK_COLOR_TEXT : LIGHT_COLOR_TEXT;
 3116              		.loc 1 226 73 discriminator 2 view .LVU656
 3117 01a0 FFF7FEFF 		bl	lv_palette_lighten
 3118              	.LVL371:
 3119 01a4 84F83000 		strb	r0, [r4, #48]
 3120 01a8 C0F30723 		ubfx	r3, r0, #8, #8
 3121 01ac 84F83130 		strb	r3, [r4, #49]
 3122 01b0 C0F30740 		ubfx	r0, r0, #16, #8
 3123 01b4 84F83200 		strb	r0, [r4, #50]
 3124 01b8 45E7     		b	.L109
 3125              	.L110:
 227:Lib/lvgl/src/themes/default/lv_theme_default.c ****     theme->color_card = theme->base.flags & MODE_DARK ? DARK_COLOR_CARD : LIGHT_COLOR_CARD;
 3126              		.loc 1 227 75 discriminator 2 view .LVU657
 3127 01ba 0421     		movs	r1, #4
 3128 01bc 1220     		movs	r0, #18
 3129 01be FFF7FEFF 		bl	lv_palette_darken
 3130              	.LVL372:
 3131 01c2 84F83300 		strb	r0, [r4, #51]
 3132 01c6 C0F30723 		ubfx	r3, r0, #8, #8
 3133 01ca 84F83430 		strb	r3, [r4, #52]
 3134 01ce C0F30740 		ubfx	r0, r0, #16, #8
 3135 01d2 84F83500 		strb	r0, [r4, #53]
 3136 01d6 49E7     		b	.L111
 3137              	.L112:
 3138              	.LBB64:
 3139              	.LBI64:
 277:c:\users\alex\eclipse-workspace\lvgs_test\lib\lvgl\src\misc\lv_color.h **** }
ARM GAS  C:\Users\Alex\AppData\Local\Temp\ccR26jun.s 			page 103


 278:c:\users\alex\eclipse-workspace\lvgs_test\lib\lvgl\src\misc\lv_color.h **** 
 279:c:\users\alex\eclipse-workspace\lvgs_test\lib\lvgl\src\misc\lv_color.h **** /**
 280:c:\users\alex\eclipse-workspace\lvgs_test\lib\lvgl\src\misc\lv_color.h ****  * Create an RGB888 color
 281:c:\users\alex\eclipse-workspace\lvgs_test\lib\lvgl\src\misc\lv_color.h ****  * @param r     the red channel (0..255)
 282:c:\users\alex\eclipse-workspace\lvgs_test\lib\lvgl\src\misc\lv_color.h ****  * @param g     the green channel (0..255)
 283:c:\users\alex\eclipse-workspace\lvgs_test\lib\lvgl\src\misc\lv_color.h ****  * @param b     the blue channel (0..255)
 284:c:\users\alex\eclipse-workspace\lvgs_test\lib\lvgl\src\misc\lv_color.h ****  * @return      the color
 285:c:\users\alex\eclipse-workspace\lvgs_test\lib\lvgl\src\misc\lv_color.h ****  */
 286:c:\users\alex\eclipse-workspace\lvgs_test\lib\lvgl\src\misc\lv_color.h **** static inline lv_color_t lv_color_make(uint8_t r, uint8_t g, uint8_t b)
 287:c:\users\alex\eclipse-workspace\lvgs_test\lib\lvgl\src\misc\lv_color.h **** {
 288:c:\users\alex\eclipse-workspace\lvgs_test\lib\lvgl\src\misc\lv_color.h ****     lv_color_t ret;
 289:c:\users\alex\eclipse-workspace\lvgs_test\lib\lvgl\src\misc\lv_color.h ****     ret.red = r;
 290:c:\users\alex\eclipse-workspace\lvgs_test\lib\lvgl\src\misc\lv_color.h ****     ret.green = g;
 291:c:\users\alex\eclipse-workspace\lvgs_test\lib\lvgl\src\misc\lv_color.h ****     ret.blue = b;
 292:c:\users\alex\eclipse-workspace\lvgs_test\lib\lvgl\src\misc\lv_color.h ****     return ret;
 293:c:\users\alex\eclipse-workspace\lvgs_test\lib\lvgl\src\misc\lv_color.h **** }
 294:c:\users\alex\eclipse-workspace\lvgs_test\lib\lvgl\src\misc\lv_color.h **** 
 295:c:\users\alex\eclipse-workspace\lvgs_test\lib\lvgl\src\misc\lv_color.h **** /**
 296:c:\users\alex\eclipse-workspace\lvgs_test\lib\lvgl\src\misc\lv_color.h ****  * Create an ARGB8888 color
 297:c:\users\alex\eclipse-workspace\lvgs_test\lib\lvgl\src\misc\lv_color.h ****  * @param r     the red channel (0..255)
 298:c:\users\alex\eclipse-workspace\lvgs_test\lib\lvgl\src\misc\lv_color.h ****  * @param g     the green channel (0..255)
 299:c:\users\alex\eclipse-workspace\lvgs_test\lib\lvgl\src\misc\lv_color.h ****  * @param b     the blue channel (0..255)
 300:c:\users\alex\eclipse-workspace\lvgs_test\lib\lvgl\src\misc\lv_color.h ****  * @param a     the alpha channel (0..255)
 301:c:\users\alex\eclipse-workspace\lvgs_test\lib\lvgl\src\misc\lv_color.h ****  * @return      the color
 302:c:\users\alex\eclipse-workspace\lvgs_test\lib\lvgl\src\misc\lv_color.h ****  */
 303:c:\users\alex\eclipse-workspace\lvgs_test\lib\lvgl\src\misc\lv_color.h **** static inline lv_color32_t lv_color32_make(uint8_t r, uint8_t g, uint8_t b, uint8_t a)
 304:c:\users\alex\eclipse-workspace\lvgs_test\lib\lvgl\src\misc\lv_color.h **** {
 305:c:\users\alex\eclipse-workspace\lvgs_test\lib\lvgl\src\misc\lv_color.h ****     lv_color32_t ret;
 306:c:\users\alex\eclipse-workspace\lvgs_test\lib\lvgl\src\misc\lv_color.h ****     ret.red = r;
 307:c:\users\alex\eclipse-workspace\lvgs_test\lib\lvgl\src\misc\lv_color.h ****     ret.green = g;
 308:c:\users\alex\eclipse-workspace\lvgs_test\lib\lvgl\src\misc\lv_color.h ****     ret.blue = b;
 309:c:\users\alex\eclipse-workspace\lvgs_test\lib\lvgl\src\misc\lv_color.h ****     ret.alpha = a;
 310:c:\users\alex\eclipse-workspace\lvgs_test\lib\lvgl\src\misc\lv_color.h ****     return ret;
 311:c:\users\alex\eclipse-workspace\lvgs_test\lib\lvgl\src\misc\lv_color.h **** }
 312:c:\users\alex\eclipse-workspace\lvgs_test\lib\lvgl\src\misc\lv_color.h **** 
 313:c:\users\alex\eclipse-workspace\lvgs_test\lib\lvgl\src\misc\lv_color.h **** /**
 314:c:\users\alex\eclipse-workspace\lvgs_test\lib\lvgl\src\misc\lv_color.h ****  * Create a color from 0x000..0xfff input
 315:c:\users\alex\eclipse-workspace\lvgs_test\lib\lvgl\src\misc\lv_color.h ****  * @param c     the hex input (e.g. 0x123 will be 0x112233)
 316:c:\users\alex\eclipse-workspace\lvgs_test\lib\lvgl\src\misc\lv_color.h ****  * @return      the color
 317:c:\users\alex\eclipse-workspace\lvgs_test\lib\lvgl\src\misc\lv_color.h ****  */
 318:c:\users\alex\eclipse-workspace\lvgs_test\lib\lvgl\src\misc\lv_color.h **** static inline lv_color_t lv_color_hex3(uint32_t c)
 319:c:\users\alex\eclipse-workspace\lvgs_test\lib\lvgl\src\misc\lv_color.h **** {
 320:c:\users\alex\eclipse-workspace\lvgs_test\lib\lvgl\src\misc\lv_color.h ****     return lv_color_make((uint8_t)(((c >> 4) & 0xF0) | ((c >> 8) & 0xF)), (uint8_t)((c & 0xF0) | ((
 321:c:\users\alex\eclipse-workspace\lvgs_test\lib\lvgl\src\misc\lv_color.h ****                          (uint8_t)((c & 0xF) | ((c & 0xF) << 4)));
 322:c:\users\alex\eclipse-workspace\lvgs_test\lib\lvgl\src\misc\lv_color.h **** }
 323:c:\users\alex\eclipse-workspace\lvgs_test\lib\lvgl\src\misc\lv_color.h **** 
 324:c:\users\alex\eclipse-workspace\lvgs_test\lib\lvgl\src\misc\lv_color.h **** /**
 325:c:\users\alex\eclipse-workspace\lvgs_test\lib\lvgl\src\misc\lv_color.h ****  * Convert am RGB888 color to RGB565 stored in `uint16_t`
 326:c:\users\alex\eclipse-workspace\lvgs_test\lib\lvgl\src\misc\lv_color.h ****  * @param color     and RGB888 color
 327:c:\users\alex\eclipse-workspace\lvgs_test\lib\lvgl\src\misc\lv_color.h ****  * @return          `color` as RGB565 on `uin16_t`
 328:c:\users\alex\eclipse-workspace\lvgs_test\lib\lvgl\src\misc\lv_color.h ****  */
 329:c:\users\alex\eclipse-workspace\lvgs_test\lib\lvgl\src\misc\lv_color.h **** uint16_t lv_color_to_u16(lv_color_t color);
 330:c:\users\alex\eclipse-workspace\lvgs_test\lib\lvgl\src\misc\lv_color.h **** 
 331:c:\users\alex\eclipse-workspace\lvgs_test\lib\lvgl\src\misc\lv_color.h **** /**
 332:c:\users\alex\eclipse-workspace\lvgs_test\lib\lvgl\src\misc\lv_color.h ****  * Convert am RGB888 color to XRGB8888 stored in `uint32_t`
 333:c:\users\alex\eclipse-workspace\lvgs_test\lib\lvgl\src\misc\lv_color.h ****  * @param color     and RGB888 color
 334:c:\users\alex\eclipse-workspace\lvgs_test\lib\lvgl\src\misc\lv_color.h ****  * @return          `color` as XRGB8888 on `uin32_t` (the alpha channel is always set to 0xFF)
ARM GAS  C:\Users\Alex\AppData\Local\Temp\ccR26jun.s 			page 104


 335:c:\users\alex\eclipse-workspace\lvgs_test\lib\lvgl\src\misc\lv_color.h ****  */
 336:c:\users\alex\eclipse-workspace\lvgs_test\lib\lvgl\src\misc\lv_color.h **** uint32_t lv_color_to_u32(lv_color_t color);
 337:c:\users\alex\eclipse-workspace\lvgs_test\lib\lvgl\src\misc\lv_color.h **** 
 338:c:\users\alex\eclipse-workspace\lvgs_test\lib\lvgl\src\misc\lv_color.h **** /**
 339:c:\users\alex\eclipse-workspace\lvgs_test\lib\lvgl\src\misc\lv_color.h ****  * Mix two RGB565 colors
 340:c:\users\alex\eclipse-workspace\lvgs_test\lib\lvgl\src\misc\lv_color.h ****  * @param c1        the first color (typically the foreground color)
 341:c:\users\alex\eclipse-workspace\lvgs_test\lib\lvgl\src\misc\lv_color.h ****  * @param c2        the second color  (typically the background color)
 342:c:\users\alex\eclipse-workspace\lvgs_test\lib\lvgl\src\misc\lv_color.h ****  * @param mix       0..255, or LV_OPA_0/10/20...
 343:c:\users\alex\eclipse-workspace\lvgs_test\lib\lvgl\src\misc\lv_color.h ****  * @return          mix == 0: c2
 344:c:\users\alex\eclipse-workspace\lvgs_test\lib\lvgl\src\misc\lv_color.h ****  *                  mix == 255: c1
 345:c:\users\alex\eclipse-workspace\lvgs_test\lib\lvgl\src\misc\lv_color.h ****  *                  mix == 128: 0.5 x c1 + 0.5 x c2
 346:c:\users\alex\eclipse-workspace\lvgs_test\lib\lvgl\src\misc\lv_color.h ****  */
 347:c:\users\alex\eclipse-workspace\lvgs_test\lib\lvgl\src\misc\lv_color.h **** LV_ATTRIBUTE_FAST_MEM static inline uint16_t lv_color_16_16_mix(uint16_t c1, uint16_t c2, uint8_t m
 348:c:\users\alex\eclipse-workspace\lvgs_test\lib\lvgl\src\misc\lv_color.h **** {
 349:c:\users\alex\eclipse-workspace\lvgs_test\lib\lvgl\src\misc\lv_color.h ****     if(mix == 255) return c1;
 350:c:\users\alex\eclipse-workspace\lvgs_test\lib\lvgl\src\misc\lv_color.h ****     if(mix == 0) return c2;
 351:c:\users\alex\eclipse-workspace\lvgs_test\lib\lvgl\src\misc\lv_color.h **** 
 352:c:\users\alex\eclipse-workspace\lvgs_test\lib\lvgl\src\misc\lv_color.h ****     uint16_t ret;
 353:c:\users\alex\eclipse-workspace\lvgs_test\lib\lvgl\src\misc\lv_color.h **** 
 354:c:\users\alex\eclipse-workspace\lvgs_test\lib\lvgl\src\misc\lv_color.h ****     /* Source: https://stackoverflow.com/a/50012418/1999969*/
 355:c:\users\alex\eclipse-workspace\lvgs_test\lib\lvgl\src\misc\lv_color.h ****     mix = (uint32_t)((uint32_t)mix + 4) >> 3;
 356:c:\users\alex\eclipse-workspace\lvgs_test\lib\lvgl\src\misc\lv_color.h **** 
 357:c:\users\alex\eclipse-workspace\lvgs_test\lib\lvgl\src\misc\lv_color.h ****     /*0x7E0F81F = 0b00000111111000001111100000011111*/
 358:c:\users\alex\eclipse-workspace\lvgs_test\lib\lvgl\src\misc\lv_color.h ****     uint32_t bg = (uint32_t)(c2 | ((uint32_t)c2 << 16)) & 0x7E0F81F;
 359:c:\users\alex\eclipse-workspace\lvgs_test\lib\lvgl\src\misc\lv_color.h ****     uint32_t fg = (uint32_t)(c1 | ((uint32_t)c1 << 16)) & 0x7E0F81F;
 360:c:\users\alex\eclipse-workspace\lvgs_test\lib\lvgl\src\misc\lv_color.h ****     uint32_t result = ((((fg - bg) * mix) >> 5) + bg) & 0x7E0F81F;
 361:c:\users\alex\eclipse-workspace\lvgs_test\lib\lvgl\src\misc\lv_color.h ****     ret = (uint16_t)(result >> 16) | result;
 362:c:\users\alex\eclipse-workspace\lvgs_test\lib\lvgl\src\misc\lv_color.h **** 
 363:c:\users\alex\eclipse-workspace\lvgs_test\lib\lvgl\src\misc\lv_color.h ****     return ret;
 364:c:\users\alex\eclipse-workspace\lvgs_test\lib\lvgl\src\misc\lv_color.h **** }
 365:c:\users\alex\eclipse-workspace\lvgs_test\lib\lvgl\src\misc\lv_color.h **** 
 366:c:\users\alex\eclipse-workspace\lvgs_test\lib\lvgl\src\misc\lv_color.h **** /**
 367:c:\users\alex\eclipse-workspace\lvgs_test\lib\lvgl\src\misc\lv_color.h ****  * Mix white to a color
 368:c:\users\alex\eclipse-workspace\lvgs_test\lib\lvgl\src\misc\lv_color.h ****  * @param c     the base color
 369:c:\users\alex\eclipse-workspace\lvgs_test\lib\lvgl\src\misc\lv_color.h ****  * @param lvl   the intensity of white (0: no change, 255: fully white)
 370:c:\users\alex\eclipse-workspace\lvgs_test\lib\lvgl\src\misc\lv_color.h ****  * @return      the mixed color
 371:c:\users\alex\eclipse-workspace\lvgs_test\lib\lvgl\src\misc\lv_color.h ****  */
 372:c:\users\alex\eclipse-workspace\lvgs_test\lib\lvgl\src\misc\lv_color.h **** lv_color_t lv_color_lighten(lv_color_t c, lv_opa_t lvl);
 373:c:\users\alex\eclipse-workspace\lvgs_test\lib\lvgl\src\misc\lv_color.h **** 
 374:c:\users\alex\eclipse-workspace\lvgs_test\lib\lvgl\src\misc\lv_color.h **** /**
 375:c:\users\alex\eclipse-workspace\lvgs_test\lib\lvgl\src\misc\lv_color.h ****  * Mix black to a color
 376:c:\users\alex\eclipse-workspace\lvgs_test\lib\lvgl\src\misc\lv_color.h ****  * @param c     the base color
 377:c:\users\alex\eclipse-workspace\lvgs_test\lib\lvgl\src\misc\lv_color.h ****  * @param lvl   the intensity of black (0: no change, 255: fully black)
 378:c:\users\alex\eclipse-workspace\lvgs_test\lib\lvgl\src\misc\lv_color.h ****  * @return      the mixed color
 379:c:\users\alex\eclipse-workspace\lvgs_test\lib\lvgl\src\misc\lv_color.h ****  */
 380:c:\users\alex\eclipse-workspace\lvgs_test\lib\lvgl\src\misc\lv_color.h **** lv_color_t lv_color_darken(lv_color_t c, lv_opa_t lvl);
 381:c:\users\alex\eclipse-workspace\lvgs_test\lib\lvgl\src\misc\lv_color.h **** 
 382:c:\users\alex\eclipse-workspace\lvgs_test\lib\lvgl\src\misc\lv_color.h **** /**
 383:c:\users\alex\eclipse-workspace\lvgs_test\lib\lvgl\src\misc\lv_color.h ****  * Convert a HSV color to RGB
 384:c:\users\alex\eclipse-workspace\lvgs_test\lib\lvgl\src\misc\lv_color.h ****  * @param h hue [0..359]
 385:c:\users\alex\eclipse-workspace\lvgs_test\lib\lvgl\src\misc\lv_color.h ****  * @param s saturation [0..100]
 386:c:\users\alex\eclipse-workspace\lvgs_test\lib\lvgl\src\misc\lv_color.h ****  * @param v value [0..100]
 387:c:\users\alex\eclipse-workspace\lvgs_test\lib\lvgl\src\misc\lv_color.h ****  * @return the given RGB color in RGB (with LV_COLOR_DEPTH depth)
 388:c:\users\alex\eclipse-workspace\lvgs_test\lib\lvgl\src\misc\lv_color.h ****  */
 389:c:\users\alex\eclipse-workspace\lvgs_test\lib\lvgl\src\misc\lv_color.h **** lv_color_t lv_color_hsv_to_rgb(uint16_t h, uint8_t s, uint8_t v);
 390:c:\users\alex\eclipse-workspace\lvgs_test\lib\lvgl\src\misc\lv_color.h **** 
 391:c:\users\alex\eclipse-workspace\lvgs_test\lib\lvgl\src\misc\lv_color.h **** /**
ARM GAS  C:\Users\Alex\AppData\Local\Temp\ccR26jun.s 			page 105


 392:c:\users\alex\eclipse-workspace\lvgs_test\lib\lvgl\src\misc\lv_color.h ****  * Convert a 32-bit RGB color to HSV
 393:c:\users\alex\eclipse-workspace\lvgs_test\lib\lvgl\src\misc\lv_color.h ****  * @param r8 8-bit red
 394:c:\users\alex\eclipse-workspace\lvgs_test\lib\lvgl\src\misc\lv_color.h ****  * @param g8 8-bit green
 395:c:\users\alex\eclipse-workspace\lvgs_test\lib\lvgl\src\misc\lv_color.h ****  * @param b8 8-bit blue
 396:c:\users\alex\eclipse-workspace\lvgs_test\lib\lvgl\src\misc\lv_color.h ****  * @return the given RGB color in HSV
 397:c:\users\alex\eclipse-workspace\lvgs_test\lib\lvgl\src\misc\lv_color.h ****  */
 398:c:\users\alex\eclipse-workspace\lvgs_test\lib\lvgl\src\misc\lv_color.h **** lv_color_hsv_t lv_color_rgb_to_hsv(uint8_t r8, uint8_t g8, uint8_t b8);
 399:c:\users\alex\eclipse-workspace\lvgs_test\lib\lvgl\src\misc\lv_color.h **** 
 400:c:\users\alex\eclipse-workspace\lvgs_test\lib\lvgl\src\misc\lv_color.h **** /**
 401:c:\users\alex\eclipse-workspace\lvgs_test\lib\lvgl\src\misc\lv_color.h ****  * Convert a color to HSV
 402:c:\users\alex\eclipse-workspace\lvgs_test\lib\lvgl\src\misc\lv_color.h ****  * @param color color
 403:c:\users\alex\eclipse-workspace\lvgs_test\lib\lvgl\src\misc\lv_color.h ****  * @return the given color in HSV
 404:c:\users\alex\eclipse-workspace\lvgs_test\lib\lvgl\src\misc\lv_color.h ****  */
 405:c:\users\alex\eclipse-workspace\lvgs_test\lib\lvgl\src\misc\lv_color.h **** lv_color_hsv_t lv_color_to_hsv(lv_color_t color);
 406:c:\users\alex\eclipse-workspace\lvgs_test\lib\lvgl\src\misc\lv_color.h **** 
 407:c:\users\alex\eclipse-workspace\lvgs_test\lib\lvgl\src\misc\lv_color.h **** /*Source: https://vuetifyjs.com/en/styles/colors/#material-colors*/
 408:c:\users\alex\eclipse-workspace\lvgs_test\lib\lvgl\src\misc\lv_color.h **** 
 409:c:\users\alex\eclipse-workspace\lvgs_test\lib\lvgl\src\misc\lv_color.h **** /**
 410:c:\users\alex\eclipse-workspace\lvgs_test\lib\lvgl\src\misc\lv_color.h ****  * A helper for white color
 411:c:\users\alex\eclipse-workspace\lvgs_test\lib\lvgl\src\misc\lv_color.h ****  * @return      a white color
 412:c:\users\alex\eclipse-workspace\lvgs_test\lib\lvgl\src\misc\lv_color.h ****  */
 413:c:\users\alex\eclipse-workspace\lvgs_test\lib\lvgl\src\misc\lv_color.h **** static inline lv_color_t lv_color_white(void)
 3140              		.loc 2 413 26 is_stmt 1 view .LVU658
 414:c:\users\alex\eclipse-workspace\lvgs_test\lib\lvgl\src\misc\lv_color.h **** {
 415:c:\users\alex\eclipse-workspace\lvgs_test\lib\lvgl\src\misc\lv_color.h ****     return lv_color_make(0xff, 0xff, 0xff);
 3141              		.loc 2 415 5 view .LVU659
 3142              	.LVL373:
 3143              	.LBB65:
 3144              	.LBI65:
 286:c:\users\alex\eclipse-workspace\lvgs_test\lib\lvgl\src\misc\lv_color.h **** {
 3145              		.loc 2 286 26 view .LVU660
 3146              	.LBB66:
 288:c:\users\alex\eclipse-workspace\lvgs_test\lib\lvgl\src\misc\lv_color.h ****     ret.red = r;
 3147              		.loc 2 288 5 view .LVU661
 289:c:\users\alex\eclipse-workspace\lvgs_test\lib\lvgl\src\misc\lv_color.h ****     ret.green = g;
 3148              		.loc 2 289 5 view .LVU662
 289:c:\users\alex\eclipse-workspace\lvgs_test\lib\lvgl\src\misc\lv_color.h ****     ret.green = g;
 3149              		.loc 2 289 13 is_stmt 0 view .LVU663
 3150 01d8 FF22     		movs	r2, #255
 3151 01da 8DF80E20 		strb	r2, [sp, #14]
 290:c:\users\alex\eclipse-workspace\lvgs_test\lib\lvgl\src\misc\lv_color.h ****     ret.blue = b;
 3152              		.loc 2 290 5 is_stmt 1 view .LVU664
 290:c:\users\alex\eclipse-workspace\lvgs_test\lib\lvgl\src\misc\lv_color.h ****     ret.blue = b;
 3153              		.loc 2 290 15 is_stmt 0 view .LVU665
 3154 01de 8DF80D20 		strb	r2, [sp, #13]
 291:c:\users\alex\eclipse-workspace\lvgs_test\lib\lvgl\src\misc\lv_color.h ****     return ret;
 3155              		.loc 2 291 5 is_stmt 1 view .LVU666
 291:c:\users\alex\eclipse-workspace\lvgs_test\lib\lvgl\src\misc\lv_color.h ****     return ret;
 3156              		.loc 2 291 14 is_stmt 0 view .LVU667
 3157 01e2 8DF80C20 		strb	r2, [sp, #12]
 292:c:\users\alex\eclipse-workspace\lvgs_test\lib\lvgl\src\misc\lv_color.h **** }
 3158              		.loc 2 292 5 is_stmt 1 view .LVU668
 292:c:\users\alex\eclipse-workspace\lvgs_test\lib\lvgl\src\misc\lv_color.h **** }
 3159              		.loc 2 292 12 is_stmt 0 view .LVU669
 3160 01e6 039A     		ldr	r2, [sp, #12]
 3161 01e8 ADF85820 		strh	r2, [sp, #88]	@ movhi
 3162 01ec 120C     		lsrs	r2, r2, #16
ARM GAS  C:\Users\Alex\AppData\Local\Temp\ccR26jun.s 			page 106


 3163 01ee 8DF85A20 		strb	r2, [sp, #90]
 3164 01f2 169A     		ldr	r2, [sp, #88]
 3165 01f4 ADF85C20 		strh	r2, [sp, #92]	@ movhi
 3166 01f8 120C     		lsrs	r2, r2, #16
 3167 01fa 8DF85E20 		strb	r2, [sp, #94]
 3168              	.LVL374:
 292:c:\users\alex\eclipse-workspace\lvgs_test\lib\lvgl\src\misc\lv_color.h **** }
 3169              		.loc 2 292 12 view .LVU670
 3170 01fe 179A     		ldr	r2, [sp, #92]
 3171 0200 ADF85420 		strh	r2, [sp, #84]	@ movhi
 3172 0204 120C     		lsrs	r2, r2, #16
 3173 0206 8DF85620 		strb	r2, [sp, #86]
 3174              	.LBE66:
 3175              	.LBE65:
 3176              	.LBE64:
 228:Lib/lvgl/src/themes/default/lv_theme_default.c ****     theme->color_grey = theme->base.flags & MODE_DARK ? DARK_COLOR_GREY : LIGHT_COLOR_GREY;
 3177              		.loc 1 228 75 view .LVU671
 3178 020a BDF85410 		ldrh	r1, [sp, #84]	@ unaligned
 3179 020e D2B2     		uxtb	r2, r2
 3180 0210 E186     		strh	r1, [r4, #54]	@ unaligned
 3181 0212 84F83820 		strb	r2, [r4, #56]
 3182 0216 49E7     		b	.L113
 3183              	.L114:
 229:Lib/lvgl/src/themes/default/lv_theme_default.c **** 
 3184              		.loc 1 229 75 discriminator 2 view .LVU672
 3185 0218 0221     		movs	r1, #2
 3186 021a 1220     		movs	r0, #18
 3187 021c FFF7FEFF 		bl	lv_palette_lighten
 3188              	.LVL375:
 3189 0220 84F83900 		strb	r0, [r4, #57]
 3190 0224 C0F30723 		ubfx	r3, r0, #8, #8
 3191 0228 84F83A30 		strb	r3, [r4, #58]
 3192 022c C0F30740 		ubfx	r0, r0, #16, #8
 3193 0230 84F83B00 		strb	r0, [r4, #59]
 3194 0234 59E7     		b	.L115
 3195              	.L116:
 245:Lib/lvgl/src/themes/default/lv_theme_default.c ****     lv_style_set_bg_color(&theme->styles.scrollbar, sb_color);
 3196              		.loc 1 245 84 discriminator 1 view .LVU673
 3197 0236 1220     		movs	r0, #18
 3198 0238 FFF7FEFF 		bl	lv_palette_main
 3199              	.LVL376:
 3200 023c 8DF81000 		strb	r0, [sp, #16]
 3201 0240 C0F30723 		ubfx	r3, r0, #8, #8
 3202 0244 8DF81130 		strb	r3, [sp, #17]
 3203 0248 C0F30740 		ubfx	r0, r0, #16, #8
 3204 024c 8DF81200 		strb	r0, [sp, #18]
 3205 0250 8EE7     		b	.L117
 3206              	.L244:
 249:Lib/lvgl/src/themes/default/lv_theme_default.c ****     lv_style_set_width(&theme->styles.scrollbar,  _LV_DPX_CALC(theme->disp_dpi, 5));
 3207              		.loc 1 249 5 view .LVU674
 3208 0252 0121     		movs	r1, #1
 3209              	.L118:
 249:Lib/lvgl/src/themes/default/lv_theme_default.c ****     lv_style_set_width(&theme->styles.scrollbar,  _LV_DPX_CALC(theme->disp_dpi, 5));
 3210              		.loc 1 249 5 discriminator 4 view .LVU675
 3211 0254 2846     		mov	r0, r5
 3212 0256 FFF7FEFF 		bl	lv_style_set_pad_all
 3213              	.LVL377:
ARM GAS  C:\Users\Alex\AppData\Local\Temp\ccR26jun.s 			page 107


 250:Lib/lvgl/src/themes/default/lv_theme_default.c ****     lv_style_set_bg_opa(&theme->styles.scrollbar,  LV_OPA_40);
 3214              		.loc 1 250 5 is_stmt 1 discriminator 4 view .LVU676
 250:Lib/lvgl/src/themes/default/lv_theme_default.c ****     lv_style_set_bg_opa(&theme->styles.scrollbar,  LV_OPA_40);
 3215              		.loc 1 250 51 is_stmt 0 discriminator 4 view .LVU677
 3216 025a E16A     		ldr	r1, [r4, #44]
 3217 025c 01EB8101 		add	r1, r1, r1, lsl #2
 250:Lib/lvgl/src/themes/default/lv_theme_default.c ****     lv_style_set_bg_opa(&theme->styles.scrollbar,  LV_OPA_40);
 3218              		.loc 1 250 5 discriminator 4 view .LVU678
 3219 0260 EF29     		cmp	r1, #239
 3220 0262 0DDD     		ble	.L245
 250:Lib/lvgl/src/themes/default/lv_theme_default.c ****     lv_style_set_bg_opa(&theme->styles.scrollbar,  LV_OPA_40);
 3221              		.loc 1 250 51 discriminator 1 view .LVU679
 3222 0264 5031     		adds	r1, r1, #80
 250:Lib/lvgl/src/themes/default/lv_theme_default.c ****     lv_style_set_bg_opa(&theme->styles.scrollbar,  LV_OPA_40);
 3223              		.loc 1 250 5 discriminator 1 view .LVU680
 3224 0266 034B     		ldr	r3, .L451
 3225 0268 83FB0123 		smull	r2, r3, r3, r1
 3226 026c C917     		asrs	r1, r1, #31
 3227 026e C1EBA311 		rsb	r1, r1, r3, asr #6
 3228 0272 06E0     		b	.L119
 3229              	.L452:
 3230              		.align	2
 3231              	.L451:
 3232 0274 67666666 		.word	1717986919
 3233 0278 00000000 		.word	lv_anim_path_linear
 3234 027c 00000000 		.word	trans_props.0
 3235              	.L245:
 250:Lib/lvgl/src/themes/default/lv_theme_default.c ****     lv_style_set_bg_opa(&theme->styles.scrollbar,  LV_OPA_40);
 3236              		.loc 1 250 5 view .LVU681
 3237 0280 0121     		movs	r1, #1
 3238              	.L119:
 250:Lib/lvgl/src/themes/default/lv_theme_default.c ****     lv_style_set_bg_opa(&theme->styles.scrollbar,  LV_OPA_40);
 3239              		.loc 1 250 5 discriminator 4 view .LVU682
 3240 0282 2846     		mov	r0, r5
 3241 0284 FFF7FEFF 		bl	lv_style_set_width
 3242              	.LVL378:
 251:Lib/lvgl/src/themes/default/lv_theme_default.c **** #if TRANSITION_TIME
 3243              		.loc 1 251 5 is_stmt 1 discriminator 4 view .LVU683
 3244 0288 6621     		movs	r1, #102
 3245 028a 2846     		mov	r0, r5
 3246 028c FFF7FEFF 		bl	lv_style_set_bg_opa
 3247              	.LVL379:
 253:Lib/lvgl/src/themes/default/lv_theme_default.c **** #endif
 3248              		.loc 1 253 5 discriminator 4 view .LVU684
 3249 0290 3146     		mov	r1, r6
 3250 0292 2846     		mov	r0, r5
 3251 0294 FFF7FEFF 		bl	lv_style_set_transition
 3252              	.LVL380:
 256:Lib/lvgl/src/themes/default/lv_theme_default.c ****     lv_style_set_bg_opa(&theme->styles.scrollbar_scrolled,  LV_OPA_COVER);
 3253              		.loc 1 256 5 discriminator 4 view .LVU685
 3254 0298 04F15805 		add	r5, r4, #88
 3255 029c 2846     		mov	r0, r5
 3256 029e FFF7FEFF 		bl	style_init_reset
 3257              	.LVL381:
 257:Lib/lvgl/src/themes/default/lv_theme_default.c **** 
 3258              		.loc 1 257 5 discriminator 4 view .LVU686
 3259 02a2 FF21     		movs	r1, #255
ARM GAS  C:\Users\Alex\AppData\Local\Temp\ccR26jun.s 			page 108


 3260 02a4 2846     		mov	r0, r5
 3261 02a6 FFF7FEFF 		bl	lv_style_set_bg_opa
 3262              	.LVL382:
 259:Lib/lvgl/src/themes/default/lv_theme_default.c ****     lv_style_set_bg_opa(&theme->styles.scr, LV_OPA_COVER);
 3263              		.loc 1 259 5 discriminator 4 view .LVU687
 3264 02aa 04F14005 		add	r5, r4, #64
 3265 02ae 2846     		mov	r0, r5
 3266 02b0 FFF7FEFF 		bl	style_init_reset
 3267              	.LVL383:
 260:Lib/lvgl/src/themes/default/lv_theme_default.c ****     lv_style_set_bg_color(&theme->styles.scr, theme->color_scr);
 3268              		.loc 1 260 5 discriminator 4 view .LVU688
 3269 02b4 FF21     		movs	r1, #255
 3270 02b6 2846     		mov	r0, r5
 3271 02b8 FFF7FEFF 		bl	lv_style_set_bg_opa
 3272              	.LVL384:
 261:Lib/lvgl/src/themes/default/lv_theme_default.c ****     lv_style_set_text_color(&theme->styles.scr, theme->color_text);
 3273              		.loc 1 261 5 discriminator 4 view .LVU689
 3274 02bc 216B     		ldr	r1, [r4, #48]
 3275 02be 2846     		mov	r0, r5
 3276 02c0 FFF7FEFF 		bl	lv_style_set_bg_color
 3277              	.LVL385:
 262:Lib/lvgl/src/themes/default/lv_theme_default.c ****     lv_style_set_text_font(&theme->styles.scr, theme->base.font_normal);
 3278              		.loc 1 262 5 discriminator 4 view .LVU690
 3279 02c4 94F83330 		ldrb	r3, [r4, #51]	@ zero_extendqisi2
 3280 02c8 94F83420 		ldrb	r2, [r4, #52]	@ zero_extendqisi2
 3281 02cc 43EA0223 		orr	r3, r3, r2, lsl #8
 3282 02d0 94F83510 		ldrb	r1, [r4, #53]	@ zero_extendqisi2
 3283 02d4 43EA0141 		orr	r1, r3, r1, lsl #16
 3284 02d8 2846     		mov	r0, r5
 3285 02da FFF7FEFF 		bl	lv_style_set_text_color
 3286              	.LVL386:
 263:Lib/lvgl/src/themes/default/lv_theme_default.c ****     lv_style_set_pad_row(&theme->styles.scr, PAD_SMALL);
 3287              		.loc 1 263 5 discriminator 4 view .LVU691
 3288 02de E169     		ldr	r1, [r4, #28]
 3289 02e0 2846     		mov	r0, r5
 3290 02e2 FFF7FEFF 		bl	lv_style_set_text_font
 3291              	.LVL387:
 264:Lib/lvgl/src/themes/default/lv_theme_default.c ****     lv_style_set_pad_column(&theme->styles.scr, PAD_SMALL);
 3292              		.loc 1 264 5 discriminator 4 view .LVU692
 264:Lib/lvgl/src/themes/default/lv_theme_default.c ****     lv_style_set_pad_column(&theme->styles.scr, PAD_SMALL);
 3293              		.loc 1 264 46 is_stmt 0 discriminator 4 view .LVU693
 3294 02e6 E16A     		ldr	r1, [r4, #44]
 3295 02e8 94F82830 		ldrb	r3, [r4, #40]	@ zero_extendqisi2
 3296 02ec 012B     		cmp	r3, #1
 3297 02ee 01F05281 		beq	.L246
 264:Lib/lvgl/src/themes/default/lv_theme_default.c ****     lv_style_set_pad_column(&theme->styles.scr, PAD_SMALL);
 3298              		.loc 1 264 46 discriminator 1 view .LVU694
 3299 02f2 022B     		cmp	r3, #2
 3300 02f4 01F04C81 		beq	.L403
 264:Lib/lvgl/src/themes/default/lv_theme_default.c ****     lv_style_set_pad_column(&theme->styles.scr, PAD_SMALL);
 3301              		.loc 1 264 46 view .LVU695
 3302 02f8 0A23     		movs	r3, #10
 3303              	.L120:
 264:Lib/lvgl/src/themes/default/lv_theme_default.c ****     lv_style_set_pad_column(&theme->styles.scr, PAD_SMALL);
 3304              		.loc 1 264 46 discriminator 8 view .LVU696
 3305 02fa 03FB01F1 		mul	r1, r3, r1
 264:Lib/lvgl/src/themes/default/lv_theme_default.c ****     lv_style_set_pad_column(&theme->styles.scr, PAD_SMALL);
ARM GAS  C:\Users\Alex\AppData\Local\Temp\ccR26jun.s 			page 109


 3306              		.loc 1 264 5 discriminator 8 view .LVU697
 3307 02fe EF29     		cmp	r1, #239
 3308 0300 41F34C81 		ble	.L248
 264:Lib/lvgl/src/themes/default/lv_theme_default.c ****     lv_style_set_pad_column(&theme->styles.scr, PAD_SMALL);
 3309              		.loc 1 264 46 discriminator 18 view .LVU698
 3310 0304 5031     		adds	r1, r1, #80
 264:Lib/lvgl/src/themes/default/lv_theme_default.c ****     lv_style_set_pad_column(&theme->styles.scr, PAD_SMALL);
 3311              		.loc 1 264 5 discriminator 18 view .LVU699
 3312 0306 D84B     		ldr	r3, .L453
 3313 0308 83FB0123 		smull	r2, r3, r3, r1
 3314 030c C917     		asrs	r1, r1, #31
 3315 030e C1EBA311 		rsb	r1, r1, r3, asr #6
 3316              	.L121:
 264:Lib/lvgl/src/themes/default/lv_theme_default.c ****     lv_style_set_pad_column(&theme->styles.scr, PAD_SMALL);
 3317              		.loc 1 264 5 discriminator 20 view .LVU700
 3318 0312 2846     		mov	r0, r5
 3319 0314 FFF7FEFF 		bl	lv_style_set_pad_row
 3320              	.LVL388:
 265:Lib/lvgl/src/themes/default/lv_theme_default.c **** 
 3321              		.loc 1 265 5 is_stmt 1 discriminator 20 view .LVU701
 265:Lib/lvgl/src/themes/default/lv_theme_default.c **** 
 3322              		.loc 1 265 49 is_stmt 0 discriminator 20 view .LVU702
 3323 0318 E16A     		ldr	r1, [r4, #44]
 3324 031a 94F82830 		ldrb	r3, [r4, #40]	@ zero_extendqisi2
 3325 031e 012B     		cmp	r3, #1
 3326 0320 01F04281 		beq	.L249
 265:Lib/lvgl/src/themes/default/lv_theme_default.c **** 
 3327              		.loc 1 265 49 discriminator 1 view .LVU703
 3328 0324 022B     		cmp	r3, #2
 3329 0326 01F03C81 		beq	.L404
 265:Lib/lvgl/src/themes/default/lv_theme_default.c **** 
 3330              		.loc 1 265 49 view .LVU704
 3331 032a 0A23     		movs	r3, #10
 3332              	.L122:
 265:Lib/lvgl/src/themes/default/lv_theme_default.c **** 
 3333              		.loc 1 265 49 discriminator 8 view .LVU705
 3334 032c 03FB01F1 		mul	r1, r3, r1
 265:Lib/lvgl/src/themes/default/lv_theme_default.c **** 
 3335              		.loc 1 265 5 discriminator 8 view .LVU706
 3336 0330 EF29     		cmp	r1, #239
 3337 0332 41F33C81 		ble	.L251
 265:Lib/lvgl/src/themes/default/lv_theme_default.c **** 
 3338              		.loc 1 265 49 discriminator 18 view .LVU707
 3339 0336 5031     		adds	r1, r1, #80
 265:Lib/lvgl/src/themes/default/lv_theme_default.c **** 
 3340              		.loc 1 265 5 discriminator 18 view .LVU708
 3341 0338 CB4B     		ldr	r3, .L453
 3342 033a 83FB0123 		smull	r2, r3, r3, r1
 3343 033e C917     		asrs	r1, r1, #31
 3344 0340 C1EBA311 		rsb	r1, r1, r3, asr #6
 3345              	.L123:
 265:Lib/lvgl/src/themes/default/lv_theme_default.c **** 
 3346              		.loc 1 265 5 discriminator 20 view .LVU709
 3347 0344 2846     		mov	r0, r5
 3348 0346 FFF7FEFF 		bl	lv_style_set_pad_column
 3349              	.LVL389:
 267:Lib/lvgl/src/themes/default/lv_theme_default.c ****     lv_style_set_radius(&theme->styles.card, RADIUS_DEFAULT);
ARM GAS  C:\Users\Alex\AppData\Local\Temp\ccR26jun.s 			page 110


 3350              		.loc 1 267 5 is_stmt 1 discriminator 20 view .LVU710
 3351 034a 04F16405 		add	r5, r4, #100
 3352 034e 2846     		mov	r0, r5
 3353 0350 FFF7FEFF 		bl	style_init_reset
 3354              	.LVL390:
 268:Lib/lvgl/src/themes/default/lv_theme_default.c ****     lv_style_set_bg_opa(&theme->styles.card, LV_OPA_COVER);
 3355              		.loc 1 268 5 discriminator 20 view .LVU711
 268:Lib/lvgl/src/themes/default/lv_theme_default.c ****     lv_style_set_bg_opa(&theme->styles.card, LV_OPA_COVER);
 3356              		.loc 1 268 46 is_stmt 0 discriminator 20 view .LVU712
 3357 0354 E16A     		ldr	r1, [r4, #44]
 3358 0356 94F82830 		ldrb	r3, [r4, #40]	@ zero_extendqisi2
 3359 035a 012B     		cmp	r3, #1
 3360 035c 01F02A81 		beq	.L405
 268:Lib/lvgl/src/themes/default/lv_theme_default.c ****     lv_style_set_bg_opa(&theme->styles.card, LV_OPA_COVER);
 3361              		.loc 1 268 46 view .LVU713
 3362 0360 0823     		movs	r3, #8
 3363              	.L124:
 268:Lib/lvgl/src/themes/default/lv_theme_default.c ****     lv_style_set_bg_opa(&theme->styles.card, LV_OPA_COVER);
 3364              		.loc 1 268 46 discriminator 4 view .LVU714
 3365 0362 03FB01F1 		mul	r1, r3, r1
 268:Lib/lvgl/src/themes/default/lv_theme_default.c ****     lv_style_set_bg_opa(&theme->styles.card, LV_OPA_COVER);
 3366              		.loc 1 268 5 discriminator 4 view .LVU715
 3367 0366 EF29     		cmp	r1, #239
 3368 0368 41F32781 		ble	.L253
 268:Lib/lvgl/src/themes/default/lv_theme_default.c ****     lv_style_set_bg_opa(&theme->styles.card, LV_OPA_COVER);
 3369              		.loc 1 268 46 discriminator 10 view .LVU716
 3370 036c 5031     		adds	r1, r1, #80
 268:Lib/lvgl/src/themes/default/lv_theme_default.c ****     lv_style_set_bg_opa(&theme->styles.card, LV_OPA_COVER);
 3371              		.loc 1 268 5 discriminator 10 view .LVU717
 3372 036e BE4B     		ldr	r3, .L453
 3373 0370 83FB0123 		smull	r2, r3, r3, r1
 3374 0374 C917     		asrs	r1, r1, #31
 3375 0376 C1EBA311 		rsb	r1, r1, r3, asr #6
 3376              	.L125:
 268:Lib/lvgl/src/themes/default/lv_theme_default.c ****     lv_style_set_bg_opa(&theme->styles.card, LV_OPA_COVER);
 3377              		.loc 1 268 5 discriminator 12 view .LVU718
 3378 037a 2846     		mov	r0, r5
 3379 037c FFF7FEFF 		bl	lv_style_set_radius
 3380              	.LVL391:
 269:Lib/lvgl/src/themes/default/lv_theme_default.c ****     lv_style_set_bg_color(&theme->styles.card, theme->color_card);
 3381              		.loc 1 269 5 is_stmt 1 discriminator 12 view .LVU719
 3382 0380 FF21     		movs	r1, #255
 3383 0382 2846     		mov	r0, r5
 3384 0384 FFF7FEFF 		bl	lv_style_set_bg_opa
 3385              	.LVL392:
 270:Lib/lvgl/src/themes/default/lv_theme_default.c ****     lv_style_set_border_color(&theme->styles.card, theme->color_grey);
 3386              		.loc 1 270 5 discriminator 12 view .LVU720
 3387 0388 E38E     		ldrh	r3, [r4, #54]
 3388 038a 94F83810 		ldrb	r1, [r4, #56]	@ zero_extendqisi2
 3389 038e 43EA0141 		orr	r1, r3, r1, lsl #16
 3390 0392 2846     		mov	r0, r5
 3391 0394 FFF7FEFF 		bl	lv_style_set_bg_color
 3392              	.LVL393:
 271:Lib/lvgl/src/themes/default/lv_theme_default.c ****     lv_style_set_border_width(&theme->styles.card, BORDER_WIDTH);
 3393              		.loc 1 271 5 discriminator 12 view .LVU721
 3394 0398 94F83930 		ldrb	r3, [r4, #57]	@ zero_extendqisi2
 3395 039c 94F83A20 		ldrb	r2, [r4, #58]	@ zero_extendqisi2
ARM GAS  C:\Users\Alex\AppData\Local\Temp\ccR26jun.s 			page 111


 3396 03a0 43EA0223 		orr	r3, r3, r2, lsl #8
 3397 03a4 94F83B10 		ldrb	r1, [r4, #59]	@ zero_extendqisi2
 3398 03a8 43EA0141 		orr	r1, r3, r1, lsl #16
 3399 03ac 2846     		mov	r0, r5
 3400 03ae FFF7FEFF 		bl	lv_style_set_border_color
 3401              	.LVL394:
 272:Lib/lvgl/src/themes/default/lv_theme_default.c ****     lv_style_set_border_post(&theme->styles.card, true);
 3402              		.loc 1 272 5 discriminator 12 view .LVU722
 272:Lib/lvgl/src/themes/default/lv_theme_default.c ****     lv_style_set_border_post(&theme->styles.card, true);
 3403              		.loc 1 272 52 is_stmt 0 discriminator 12 view .LVU723
 3404 03b2 E16A     		ldr	r1, [r4, #44]
 272:Lib/lvgl/src/themes/default/lv_theme_default.c ****     lv_style_set_border_post(&theme->styles.card, true);
 3405              		.loc 1 272 5 discriminator 12 view .LVU724
 3406 03b4 7729     		cmp	r1, #119
 3407 03b6 41F30381 		ble	.L254
 272:Lib/lvgl/src/themes/default/lv_theme_default.c ****     lv_style_set_border_post(&theme->styles.card, true);
 3408              		.loc 1 272 52 discriminator 1 view .LVU725
 3409 03ba 2831     		adds	r1, r1, #40
 272:Lib/lvgl/src/themes/default/lv_theme_default.c ****     lv_style_set_border_post(&theme->styles.card, true);
 3410              		.loc 1 272 5 discriminator 1 view .LVU726
 3411 03bc AA4B     		ldr	r3, .L453
 3412 03be 83FB0123 		smull	r2, r3, r3, r1
 3413 03c2 C917     		asrs	r1, r1, #31
 3414 03c4 C1EB6311 		rsb	r1, r1, r3, asr #5
 3415              	.L126:
 272:Lib/lvgl/src/themes/default/lv_theme_default.c ****     lv_style_set_border_post(&theme->styles.card, true);
 3416              		.loc 1 272 5 discriminator 4 view .LVU727
 3417 03c8 2846     		mov	r0, r5
 3418 03ca FFF7FEFF 		bl	lv_style_set_border_width
 3419              	.LVL395:
 273:Lib/lvgl/src/themes/default/lv_theme_default.c ****     lv_style_set_text_color(&theme->styles.card, theme->color_text);
 3420              		.loc 1 273 5 is_stmt 1 discriminator 4 view .LVU728
 3421 03ce 0121     		movs	r1, #1
 3422 03d0 2846     		mov	r0, r5
 3423 03d2 FFF7FEFF 		bl	lv_style_set_border_post
 3424              	.LVL396:
 274:Lib/lvgl/src/themes/default/lv_theme_default.c ****     lv_style_set_pad_all(&theme->styles.card, PAD_DEF);
 3425              		.loc 1 274 5 discriminator 4 view .LVU729
 3426 03d6 94F83330 		ldrb	r3, [r4, #51]	@ zero_extendqisi2
 3427 03da 94F83420 		ldrb	r2, [r4, #52]	@ zero_extendqisi2
 3428 03de 43EA0223 		orr	r3, r3, r2, lsl #8
 3429 03e2 94F83510 		ldrb	r1, [r4, #53]	@ zero_extendqisi2
 3430 03e6 43EA0141 		orr	r1, r3, r1, lsl #16
 3431 03ea 2846     		mov	r0, r5
 3432 03ec FFF7FEFF 		bl	lv_style_set_text_color
 3433              	.LVL397:
 275:Lib/lvgl/src/themes/default/lv_theme_default.c ****     lv_style_set_pad_row(&theme->styles.card, PAD_SMALL);
 3434              		.loc 1 275 5 discriminator 4 view .LVU730
 275:Lib/lvgl/src/themes/default/lv_theme_default.c ****     lv_style_set_pad_row(&theme->styles.card, PAD_SMALL);
 3435              		.loc 1 275 47 is_stmt 0 discriminator 4 view .LVU731
 3436 03f0 E16A     		ldr	r1, [r4, #44]
 3437 03f2 94F82830 		ldrb	r3, [r4, #40]	@ zero_extendqisi2
 3438 03f6 012B     		cmp	r3, #1
 3439 03f8 01F0E880 		beq	.L255
 275:Lib/lvgl/src/themes/default/lv_theme_default.c ****     lv_style_set_pad_row(&theme->styles.card, PAD_SMALL);
 3440              		.loc 1 275 47 discriminator 1 view .LVU732
 3441 03fc 022B     		cmp	r3, #2
ARM GAS  C:\Users\Alex\AppData\Local\Temp\ccR26jun.s 			page 112


 3442 03fe 01F0E280 		beq	.L406
 275:Lib/lvgl/src/themes/default/lv_theme_default.c ****     lv_style_set_pad_row(&theme->styles.card, PAD_SMALL);
 3443              		.loc 1 275 47 view .LVU733
 3444 0402 1023     		movs	r3, #16
 3445              	.L127:
 275:Lib/lvgl/src/themes/default/lv_theme_default.c ****     lv_style_set_pad_row(&theme->styles.card, PAD_SMALL);
 3446              		.loc 1 275 47 discriminator 8 view .LVU734
 3447 0404 03FB01F1 		mul	r1, r3, r1
 275:Lib/lvgl/src/themes/default/lv_theme_default.c ****     lv_style_set_pad_row(&theme->styles.card, PAD_SMALL);
 3448              		.loc 1 275 5 discriminator 8 view .LVU735
 3449 0408 EF29     		cmp	r1, #239
 3450 040a 41F3E280 		ble	.L257
 275:Lib/lvgl/src/themes/default/lv_theme_default.c ****     lv_style_set_pad_row(&theme->styles.card, PAD_SMALL);
 3451              		.loc 1 275 47 discriminator 18 view .LVU736
 3452 040e 5031     		adds	r1, r1, #80
 275:Lib/lvgl/src/themes/default/lv_theme_default.c ****     lv_style_set_pad_row(&theme->styles.card, PAD_SMALL);
 3453              		.loc 1 275 5 discriminator 18 view .LVU737
 3454 0410 954B     		ldr	r3, .L453
 3455 0412 83FB0123 		smull	r2, r3, r3, r1
 3456 0416 C917     		asrs	r1, r1, #31
 3457 0418 C1EBA311 		rsb	r1, r1, r3, asr #6
 3458              	.L128:
 275:Lib/lvgl/src/themes/default/lv_theme_default.c ****     lv_style_set_pad_row(&theme->styles.card, PAD_SMALL);
 3459              		.loc 1 275 5 discriminator 20 view .LVU738
 3460 041c 2846     		mov	r0, r5
 3461 041e FFF7FEFF 		bl	lv_style_set_pad_all
 3462              	.LVL398:
 276:Lib/lvgl/src/themes/default/lv_theme_default.c ****     lv_style_set_pad_column(&theme->styles.card, PAD_SMALL);
 3463              		.loc 1 276 5 is_stmt 1 discriminator 20 view .LVU739
 276:Lib/lvgl/src/themes/default/lv_theme_default.c ****     lv_style_set_pad_column(&theme->styles.card, PAD_SMALL);
 3464              		.loc 1 276 47 is_stmt 0 discriminator 20 view .LVU740
 3465 0422 E16A     		ldr	r1, [r4, #44]
 3466 0424 94F82830 		ldrb	r3, [r4, #40]	@ zero_extendqisi2
 3467 0428 012B     		cmp	r3, #1
 3468 042a 01F0D880 		beq	.L258
 276:Lib/lvgl/src/themes/default/lv_theme_default.c ****     lv_style_set_pad_column(&theme->styles.card, PAD_SMALL);
 3469              		.loc 1 276 47 discriminator 1 view .LVU741
 3470 042e 022B     		cmp	r3, #2
 3471 0430 01F0D280 		beq	.L407
 276:Lib/lvgl/src/themes/default/lv_theme_default.c ****     lv_style_set_pad_column(&theme->styles.card, PAD_SMALL);
 3472              		.loc 1 276 47 view .LVU742
 3473 0434 0A23     		movs	r3, #10
 3474              	.L129:
 276:Lib/lvgl/src/themes/default/lv_theme_default.c ****     lv_style_set_pad_column(&theme->styles.card, PAD_SMALL);
 3475              		.loc 1 276 47 discriminator 8 view .LVU743
 3476 0436 03FB01F1 		mul	r1, r3, r1
 276:Lib/lvgl/src/themes/default/lv_theme_default.c ****     lv_style_set_pad_column(&theme->styles.card, PAD_SMALL);
 3477              		.loc 1 276 5 discriminator 8 view .LVU744
 3478 043a EF29     		cmp	r1, #239
 3479 043c 41F3D280 		ble	.L260
 276:Lib/lvgl/src/themes/default/lv_theme_default.c ****     lv_style_set_pad_column(&theme->styles.card, PAD_SMALL);
 3480              		.loc 1 276 47 discriminator 18 view .LVU745
 3481 0440 5031     		adds	r1, r1, #80
 276:Lib/lvgl/src/themes/default/lv_theme_default.c ****     lv_style_set_pad_column(&theme->styles.card, PAD_SMALL);
 3482              		.loc 1 276 5 discriminator 18 view .LVU746
 3483 0442 894B     		ldr	r3, .L453
 3484 0444 83FB0123 		smull	r2, r3, r3, r1
ARM GAS  C:\Users\Alex\AppData\Local\Temp\ccR26jun.s 			page 113


 3485 0448 C917     		asrs	r1, r1, #31
 3486 044a C1EBA311 		rsb	r1, r1, r3, asr #6
 3487              	.L130:
 276:Lib/lvgl/src/themes/default/lv_theme_default.c ****     lv_style_set_pad_column(&theme->styles.card, PAD_SMALL);
 3488              		.loc 1 276 5 discriminator 20 view .LVU747
 3489 044e 2846     		mov	r0, r5
 3490 0450 FFF7FEFF 		bl	lv_style_set_pad_row
 3491              	.LVL399:
 277:Lib/lvgl/src/themes/default/lv_theme_default.c ****     lv_style_set_line_color(&theme->styles.card, lv_palette_main(LV_PALETTE_GREY));
 3492              		.loc 1 277 5 is_stmt 1 discriminator 20 view .LVU748
 277:Lib/lvgl/src/themes/default/lv_theme_default.c ****     lv_style_set_line_color(&theme->styles.card, lv_palette_main(LV_PALETTE_GREY));
 3493              		.loc 1 277 50 is_stmt 0 discriminator 20 view .LVU749
 3494 0454 E16A     		ldr	r1, [r4, #44]
 3495 0456 94F82830 		ldrb	r3, [r4, #40]	@ zero_extendqisi2
 3496 045a 012B     		cmp	r3, #1
 3497 045c 01F0C880 		beq	.L261
 277:Lib/lvgl/src/themes/default/lv_theme_default.c ****     lv_style_set_line_color(&theme->styles.card, lv_palette_main(LV_PALETTE_GREY));
 3498              		.loc 1 277 50 discriminator 1 view .LVU750
 3499 0460 022B     		cmp	r3, #2
 3500 0462 01F0C280 		beq	.L408
 277:Lib/lvgl/src/themes/default/lv_theme_default.c ****     lv_style_set_line_color(&theme->styles.card, lv_palette_main(LV_PALETTE_GREY));
 3501              		.loc 1 277 50 view .LVU751
 3502 0466 0A23     		movs	r3, #10
 3503              	.L131:
 277:Lib/lvgl/src/themes/default/lv_theme_default.c ****     lv_style_set_line_color(&theme->styles.card, lv_palette_main(LV_PALETTE_GREY));
 3504              		.loc 1 277 50 discriminator 8 view .LVU752
 3505 0468 03FB01F1 		mul	r1, r3, r1
 277:Lib/lvgl/src/themes/default/lv_theme_default.c ****     lv_style_set_line_color(&theme->styles.card, lv_palette_main(LV_PALETTE_GREY));
 3506              		.loc 1 277 5 discriminator 8 view .LVU753
 3507 046c EF29     		cmp	r1, #239
 3508 046e 41F3C280 		ble	.L263
 277:Lib/lvgl/src/themes/default/lv_theme_default.c ****     lv_style_set_line_color(&theme->styles.card, lv_palette_main(LV_PALETTE_GREY));
 3509              		.loc 1 277 50 discriminator 18 view .LVU754
 3510 0472 5031     		adds	r1, r1, #80
 277:Lib/lvgl/src/themes/default/lv_theme_default.c ****     lv_style_set_line_color(&theme->styles.card, lv_palette_main(LV_PALETTE_GREY));
 3511              		.loc 1 277 5 discriminator 18 view .LVU755
 3512 0474 7C4B     		ldr	r3, .L453
 3513 0476 83FB0123 		smull	r2, r3, r3, r1
 3514 047a C917     		asrs	r1, r1, #31
 3515 047c C1EBA311 		rsb	r1, r1, r3, asr #6
 3516              	.L132:
 277:Lib/lvgl/src/themes/default/lv_theme_default.c ****     lv_style_set_line_color(&theme->styles.card, lv_palette_main(LV_PALETTE_GREY));
 3517              		.loc 1 277 5 discriminator 20 view .LVU756
 3518 0480 2846     		mov	r0, r5
 3519 0482 FFF7FEFF 		bl	lv_style_set_pad_column
 3520              	.LVL400:
 278:Lib/lvgl/src/themes/default/lv_theme_default.c ****     lv_style_set_line_width(&theme->styles.card, _LV_DPX_CALC(theme->disp_dpi, 1));
 3521              		.loc 1 278 5 is_stmt 1 discriminator 20 view .LVU757
 3522 0486 1220     		movs	r0, #18
 3523 0488 FFF7FEFF 		bl	lv_palette_main
 3524              	.LVL401:
 3525 048c 8DF81400 		strb	r0, [sp, #20]
 3526 0490 C0F30723 		ubfx	r3, r0, #8, #8
 3527 0494 8DF81530 		strb	r3, [sp, #21]
 3528 0498 C0F30740 		ubfx	r0, r0, #16, #8
 3529 049c 8DF81600 		strb	r0, [sp, #22]
 3530 04a0 0599     		ldr	r1, [sp, #20]
ARM GAS  C:\Users\Alex\AppData\Local\Temp\ccR26jun.s 			page 114


 3531 04a2 2846     		mov	r0, r5
 3532 04a4 FFF7FEFF 		bl	lv_style_set_line_color
 3533              	.LVL402:
 279:Lib/lvgl/src/themes/default/lv_theme_default.c **** 
 3534              		.loc 1 279 5 discriminator 20 view .LVU758
 279:Lib/lvgl/src/themes/default/lv_theme_default.c **** 
 3535              		.loc 1 279 50 is_stmt 0 discriminator 20 view .LVU759
 3536 04a8 E16A     		ldr	r1, [r4, #44]
 279:Lib/lvgl/src/themes/default/lv_theme_default.c **** 
 3537              		.loc 1 279 5 discriminator 20 view .LVU760
 3538 04aa EF29     		cmp	r1, #239
 3539 04ac 41F3A680 		ble	.L264
 279:Lib/lvgl/src/themes/default/lv_theme_default.c **** 
 3540              		.loc 1 279 50 discriminator 1 view .LVU761
 3541 04b0 5031     		adds	r1, r1, #80
 279:Lib/lvgl/src/themes/default/lv_theme_default.c **** 
 3542              		.loc 1 279 5 discriminator 1 view .LVU762
 3543 04b2 6D4B     		ldr	r3, .L453
 3544 04b4 83FB0123 		smull	r2, r3, r3, r1
 3545 04b8 C917     		asrs	r1, r1, #31
 3546 04ba C1EBA311 		rsb	r1, r1, r3, asr #6
 3547              	.L133:
 279:Lib/lvgl/src/themes/default/lv_theme_default.c **** 
 3548              		.loc 1 279 5 discriminator 4 view .LVU763
 3549 04be 2846     		mov	r0, r5
 3550 04c0 FFF7FEFF 		bl	lv_style_set_line_width
 3551              	.LVL403:
 281:Lib/lvgl/src/themes/default/lv_theme_default.c ****     lv_style_set_outline_color(&theme->styles.outline_primary, theme->base.color_primary);
 3552              		.loc 1 281 5 is_stmt 1 discriminator 4 view .LVU764
 3553 04c4 04F59875 		add	r5, r4, #304
 3554 04c8 2846     		mov	r0, r5
 3555 04ca FFF7FEFF 		bl	style_init_reset
 3556              	.LVL404:
 282:Lib/lvgl/src/themes/default/lv_theme_default.c ****     lv_style_set_outline_width(&theme->styles.outline_primary, OUTLINE_WIDTH);
 3557              		.loc 1 282 5 discriminator 4 view .LVU765
 3558 04ce 2169     		ldr	r1, [r4, #16]
 3559 04d0 2846     		mov	r0, r5
 3560 04d2 FFF7FEFF 		bl	lv_style_set_outline_color
 3561              	.LVL405:
 283:Lib/lvgl/src/themes/default/lv_theme_default.c ****     lv_style_set_outline_pad(&theme->styles.outline_primary, OUTLINE_WIDTH);
 3562              		.loc 1 283 5 discriminator 4 view .LVU766
 283:Lib/lvgl/src/themes/default/lv_theme_default.c ****     lv_style_set_outline_pad(&theme->styles.outline_primary, OUTLINE_WIDTH);
 3563              		.loc 1 283 64 is_stmt 0 discriminator 4 view .LVU767
 3564 04d6 E16A     		ldr	r1, [r4, #44]
 3565 04d8 01EB4101 		add	r1, r1, r1, lsl #1
 283:Lib/lvgl/src/themes/default/lv_theme_default.c ****     lv_style_set_outline_pad(&theme->styles.outline_primary, OUTLINE_WIDTH);
 3566              		.loc 1 283 5 discriminator 4 view .LVU768
 3567 04dc EF29     		cmp	r1, #239
 3568 04de 41F39080 		ble	.L265
 283:Lib/lvgl/src/themes/default/lv_theme_default.c ****     lv_style_set_outline_pad(&theme->styles.outline_primary, OUTLINE_WIDTH);
 3569              		.loc 1 283 64 discriminator 1 view .LVU769
 3570 04e2 5031     		adds	r1, r1, #80
 283:Lib/lvgl/src/themes/default/lv_theme_default.c ****     lv_style_set_outline_pad(&theme->styles.outline_primary, OUTLINE_WIDTH);
 3571              		.loc 1 283 5 discriminator 1 view .LVU770
 3572 04e4 604B     		ldr	r3, .L453
 3573 04e6 83FB0123 		smull	r2, r3, r3, r1
 3574 04ea C917     		asrs	r1, r1, #31
ARM GAS  C:\Users\Alex\AppData\Local\Temp\ccR26jun.s 			page 115


 3575 04ec C1EBA311 		rsb	r1, r1, r3, asr #6
 3576              	.L134:
 283:Lib/lvgl/src/themes/default/lv_theme_default.c ****     lv_style_set_outline_pad(&theme->styles.outline_primary, OUTLINE_WIDTH);
 3577              		.loc 1 283 5 discriminator 4 view .LVU771
 3578 04f0 2846     		mov	r0, r5
 3579 04f2 FFF7FEFF 		bl	lv_style_set_outline_width
 3580              	.LVL406:
 284:Lib/lvgl/src/themes/default/lv_theme_default.c ****     lv_style_set_outline_opa(&theme->styles.outline_primary, LV_OPA_50);
 3581              		.loc 1 284 5 is_stmt 1 discriminator 4 view .LVU772
 284:Lib/lvgl/src/themes/default/lv_theme_default.c ****     lv_style_set_outline_opa(&theme->styles.outline_primary, LV_OPA_50);
 3582              		.loc 1 284 62 is_stmt 0 discriminator 4 view .LVU773
 3583 04f6 E16A     		ldr	r1, [r4, #44]
 3584 04f8 01EB4101 		add	r1, r1, r1, lsl #1
 284:Lib/lvgl/src/themes/default/lv_theme_default.c ****     lv_style_set_outline_opa(&theme->styles.outline_primary, LV_OPA_50);
 3585              		.loc 1 284 5 discriminator 4 view .LVU774
 3586 04fc EF29     		cmp	r1, #239
 3587 04fe 41F38380 		ble	.L266
 284:Lib/lvgl/src/themes/default/lv_theme_default.c ****     lv_style_set_outline_opa(&theme->styles.outline_primary, LV_OPA_50);
 3588              		.loc 1 284 62 discriminator 1 view .LVU775
 3589 0502 5031     		adds	r1, r1, #80
 284:Lib/lvgl/src/themes/default/lv_theme_default.c ****     lv_style_set_outline_opa(&theme->styles.outline_primary, LV_OPA_50);
 3590              		.loc 1 284 5 discriminator 1 view .LVU776
 3591 0504 584B     		ldr	r3, .L453
 3592 0506 83FB0123 		smull	r2, r3, r3, r1
 3593 050a C917     		asrs	r1, r1, #31
 3594 050c C1EBA311 		rsb	r1, r1, r3, asr #6
 3595              	.L135:
 284:Lib/lvgl/src/themes/default/lv_theme_default.c ****     lv_style_set_outline_opa(&theme->styles.outline_primary, LV_OPA_50);
 3596              		.loc 1 284 5 discriminator 4 view .LVU777
 3597 0510 2846     		mov	r0, r5
 3598 0512 FFF7FEFF 		bl	lv_style_set_outline_pad
 3599              	.LVL407:
 285:Lib/lvgl/src/themes/default/lv_theme_default.c **** 
 3600              		.loc 1 285 5 is_stmt 1 discriminator 4 view .LVU778
 3601 0516 7F21     		movs	r1, #127
 3602 0518 2846     		mov	r0, r5
 3603 051a FFF7FEFF 		bl	lv_style_set_outline_opa
 3604              	.LVL408:
 287:Lib/lvgl/src/themes/default/lv_theme_default.c ****     lv_style_set_outline_color(&theme->styles.outline_secondary, theme->base.color_secondary);
 3605              		.loc 1 287 5 discriminator 4 view .LVU779
 3606 051e 04F59E75 		add	r5, r4, #316
 3607 0522 2846     		mov	r0, r5
 3608 0524 FFF7FEFF 		bl	style_init_reset
 3609              	.LVL409:
 288:Lib/lvgl/src/themes/default/lv_theme_default.c ****     lv_style_set_outline_width(&theme->styles.outline_secondary, OUTLINE_WIDTH);
 3610              		.loc 1 288 5 discriminator 4 view .LVU780
 3611 0528 E37C     		ldrb	r3, [r4, #19]	@ zero_extendqisi2
 3612 052a 227D     		ldrb	r2, [r4, #20]	@ zero_extendqisi2
 3613 052c 43EA0223 		orr	r3, r3, r2, lsl #8
 3614 0530 617D     		ldrb	r1, [r4, #21]	@ zero_extendqisi2
 3615 0532 43EA0141 		orr	r1, r3, r1, lsl #16
 3616 0536 2846     		mov	r0, r5
 3617 0538 FFF7FEFF 		bl	lv_style_set_outline_color
 3618              	.LVL410:
 289:Lib/lvgl/src/themes/default/lv_theme_default.c ****     lv_style_set_outline_opa(&theme->styles.outline_secondary, LV_OPA_50);
 3619              		.loc 1 289 5 discriminator 4 view .LVU781
 289:Lib/lvgl/src/themes/default/lv_theme_default.c ****     lv_style_set_outline_opa(&theme->styles.outline_secondary, LV_OPA_50);
ARM GAS  C:\Users\Alex\AppData\Local\Temp\ccR26jun.s 			page 116


 3620              		.loc 1 289 66 is_stmt 0 discriminator 4 view .LVU782
 3621 053c E16A     		ldr	r1, [r4, #44]
 3622 053e 01EB4101 		add	r1, r1, r1, lsl #1
 289:Lib/lvgl/src/themes/default/lv_theme_default.c ****     lv_style_set_outline_opa(&theme->styles.outline_secondary, LV_OPA_50);
 3623              		.loc 1 289 5 discriminator 4 view .LVU783
 3624 0542 EF29     		cmp	r1, #239
 3625 0544 41F36380 		ble	.L267
 289:Lib/lvgl/src/themes/default/lv_theme_default.c ****     lv_style_set_outline_opa(&theme->styles.outline_secondary, LV_OPA_50);
 3626              		.loc 1 289 66 discriminator 1 view .LVU784
 3627 0548 5031     		adds	r1, r1, #80
 289:Lib/lvgl/src/themes/default/lv_theme_default.c ****     lv_style_set_outline_opa(&theme->styles.outline_secondary, LV_OPA_50);
 3628              		.loc 1 289 5 discriminator 1 view .LVU785
 3629 054a 474B     		ldr	r3, .L453
 3630 054c 83FB0123 		smull	r2, r3, r3, r1
 3631 0550 C917     		asrs	r1, r1, #31
 3632 0552 C1EBA311 		rsb	r1, r1, r3, asr #6
 3633              	.L136:
 289:Lib/lvgl/src/themes/default/lv_theme_default.c ****     lv_style_set_outline_opa(&theme->styles.outline_secondary, LV_OPA_50);
 3634              		.loc 1 289 5 discriminator 4 view .LVU786
 3635 0556 2846     		mov	r0, r5
 3636 0558 FFF7FEFF 		bl	lv_style_set_outline_width
 3637              	.LVL411:
 290:Lib/lvgl/src/themes/default/lv_theme_default.c **** 
 3638              		.loc 1 290 5 is_stmt 1 discriminator 4 view .LVU787
 3639 055c 7F21     		movs	r1, #127
 3640 055e 2846     		mov	r0, r5
 3641 0560 FFF7FEFF 		bl	lv_style_set_outline_opa
 3642              	.LVL412:
 292:Lib/lvgl/src/themes/default/lv_theme_default.c ****     lv_style_set_radius(&theme->styles.btn,
 3643              		.loc 1 292 5 discriminator 4 view .LVU788
 3644 0564 04F17005 		add	r5, r4, #112
 3645 0568 2846     		mov	r0, r5
 3646 056a FFF7FEFF 		bl	style_init_reset
 3647              	.LVL413:
 293:Lib/lvgl/src/themes/default/lv_theme_default.c ****                         _LV_DPX_CALC(theme->disp_dpi, theme->disp_size == DISP_LARGE ? 16 : theme->
 3648              		.loc 1 293 5 discriminator 4 view .LVU789
 294:Lib/lvgl/src/themes/default/lv_theme_default.c ****     lv_style_set_bg_opa(&theme->styles.btn, LV_OPA_COVER);
 3649              		.loc 1 294 25 is_stmt 0 discriminator 4 view .LVU790
 3650 056e E16A     		ldr	r1, [r4, #44]
 3651 0570 94F82830 		ldrb	r3, [r4, #40]	@ zero_extendqisi2
 3652 0574 012B     		cmp	r3, #1
 3653 0576 01F05080 		beq	.L268
 294:Lib/lvgl/src/themes/default/lv_theme_default.c ****     lv_style_set_bg_opa(&theme->styles.btn, LV_OPA_COVER);
 3654              		.loc 1 294 25 discriminator 1 view .LVU791
 3655 057a 022B     		cmp	r3, #2
 3656 057c 01F04A80 		beq	.L409
 294:Lib/lvgl/src/themes/default/lv_theme_default.c ****     lv_style_set_bg_opa(&theme->styles.btn, LV_OPA_COVER);
 3657              		.loc 1 294 25 view .LVU792
 3658 0580 0823     		movs	r3, #8
 3659              	.L137:
 294:Lib/lvgl/src/themes/default/lv_theme_default.c ****     lv_style_set_bg_opa(&theme->styles.btn, LV_OPA_COVER);
 3660              		.loc 1 294 25 discriminator 8 view .LVU793
 3661 0582 03FB01F1 		mul	r1, r3, r1
 293:Lib/lvgl/src/themes/default/lv_theme_default.c ****                         _LV_DPX_CALC(theme->disp_dpi, theme->disp_size == DISP_LARGE ? 16 : theme->
 3662              		.loc 1 293 5 discriminator 8 view .LVU794
 3663 0586 EF29     		cmp	r1, #239
 3664 0588 41F34A80 		ble	.L270
ARM GAS  C:\Users\Alex\AppData\Local\Temp\ccR26jun.s 			page 117


 294:Lib/lvgl/src/themes/default/lv_theme_default.c ****     lv_style_set_bg_opa(&theme->styles.btn, LV_OPA_COVER);
 3665              		.loc 1 294 25 discriminator 16 view .LVU795
 3666 058c 5031     		adds	r1, r1, #80
 293:Lib/lvgl/src/themes/default/lv_theme_default.c ****                         _LV_DPX_CALC(theme->disp_dpi, theme->disp_size == DISP_LARGE ? 16 : theme->
 3667              		.loc 1 293 5 discriminator 16 view .LVU796
 3668 058e 364B     		ldr	r3, .L453
 3669 0590 83FB0123 		smull	r2, r3, r3, r1
 3670 0594 C917     		asrs	r1, r1, #31
 3671 0596 C1EBA311 		rsb	r1, r1, r3, asr #6
 3672              	.L138:
 293:Lib/lvgl/src/themes/default/lv_theme_default.c ****                         _LV_DPX_CALC(theme->disp_dpi, theme->disp_size == DISP_LARGE ? 16 : theme->
 3673              		.loc 1 293 5 discriminator 3 view .LVU797
 3674 059a 2846     		mov	r0, r5
 3675 059c FFF7FEFF 		bl	lv_style_set_radius
 3676              	.LVL414:
 295:Lib/lvgl/src/themes/default/lv_theme_default.c ****     lv_style_set_bg_color(&theme->styles.btn, theme->color_grey);
 3677              		.loc 1 295 5 is_stmt 1 discriminator 3 view .LVU798
 3678 05a0 FF21     		movs	r1, #255
 3679 05a2 2846     		mov	r0, r5
 3680 05a4 FFF7FEFF 		bl	lv_style_set_bg_opa
 3681              	.LVL415:
 296:Lib/lvgl/src/themes/default/lv_theme_default.c ****     if(!(theme->base.flags & MODE_DARK)) {
 3682              		.loc 1 296 5 discriminator 3 view .LVU799
 3683 05a8 94F83930 		ldrb	r3, [r4, #57]	@ zero_extendqisi2
 3684 05ac 94F83A20 		ldrb	r2, [r4, #58]	@ zero_extendqisi2
 3685 05b0 43EA0223 		orr	r3, r3, r2, lsl #8
 3686 05b4 94F83B10 		ldrb	r1, [r4, #59]	@ zero_extendqisi2
 3687 05b8 43EA0141 		orr	r1, r3, r1, lsl #16
 3688 05bc 2846     		mov	r0, r5
 3689 05be FFF7FEFF 		bl	lv_style_set_bg_color
 3690              	.LVL416:
 297:Lib/lvgl/src/themes/default/lv_theme_default.c ****         lv_style_set_shadow_color(&theme->styles.btn, lv_palette_main(LV_PALETTE_GREY));
 3691              		.loc 1 297 5 discriminator 3 view .LVU800
 297:Lib/lvgl/src/themes/default/lv_theme_default.c ****         lv_style_set_shadow_color(&theme->styles.btn, lv_palette_main(LV_PALETTE_GREY));
 3692              		.loc 1 297 21 is_stmt 0 discriminator 3 view .LVU801
 3693 05c2 636A     		ldr	r3, [r4, #36]
 297:Lib/lvgl/src/themes/default/lv_theme_default.c ****         lv_style_set_shadow_color(&theme->styles.btn, lv_palette_main(LV_PALETTE_GREY));
 3694              		.loc 1 297 7 discriminator 3 view .LVU802
 3695 05c4 13F0010F 		tst	r3, #1
 3696 05c8 01F03080 		beq	.L410
 3697              	.L139:
 303:Lib/lvgl/src/themes/default/lv_theme_default.c ****     lv_style_set_pad_hor(&theme->styles.btn, PAD_DEF);
 3698              		.loc 1 303 5 is_stmt 1 view .LVU803
 3699 05cc 94F83330 		ldrb	r3, [r4, #51]	@ zero_extendqisi2
 3700 05d0 94F83420 		ldrb	r2, [r4, #52]	@ zero_extendqisi2
 3701 05d4 43EA0223 		orr	r3, r3, r2, lsl #8
 3702 05d8 94F83510 		ldrb	r1, [r4, #53]	@ zero_extendqisi2
 3703 05dc 43EA0141 		orr	r1, r3, r1, lsl #16
 3704 05e0 2846     		mov	r0, r5
 3705 05e2 FFF7FEFF 		bl	lv_style_set_text_color
 3706              	.LVL417:
 304:Lib/lvgl/src/themes/default/lv_theme_default.c ****     lv_style_set_pad_ver(&theme->styles.btn, PAD_SMALL);
 3707              		.loc 1 304 5 view .LVU804
 304:Lib/lvgl/src/themes/default/lv_theme_default.c ****     lv_style_set_pad_ver(&theme->styles.btn, PAD_SMALL);
 3708              		.loc 1 304 46 is_stmt 0 view .LVU805
 3709 05e6 E16A     		ldr	r1, [r4, #44]
 3710 05e8 94F82830 		ldrb	r3, [r4, #40]	@ zero_extendqisi2
ARM GAS  C:\Users\Alex\AppData\Local\Temp\ccR26jun.s 			page 118


 3711 05ec 012B     		cmp	r3, #1
 3712 05ee 01F09380 		beq	.L276
 304:Lib/lvgl/src/themes/default/lv_theme_default.c ****     lv_style_set_pad_ver(&theme->styles.btn, PAD_SMALL);
 3713              		.loc 1 304 46 discriminator 1 view .LVU806
 3714 05f2 022B     		cmp	r3, #2
 3715 05f4 01F08D80 		beq	.L411
 304:Lib/lvgl/src/themes/default/lv_theme_default.c ****     lv_style_set_pad_ver(&theme->styles.btn, PAD_SMALL);
 3716              		.loc 1 304 46 view .LVU807
 3717 05f8 1023     		movs	r3, #16
 3718              	.L145:
 304:Lib/lvgl/src/themes/default/lv_theme_default.c ****     lv_style_set_pad_ver(&theme->styles.btn, PAD_SMALL);
 3719              		.loc 1 304 46 discriminator 8 view .LVU808
 3720 05fa 03FB01F1 		mul	r1, r3, r1
 304:Lib/lvgl/src/themes/default/lv_theme_default.c ****     lv_style_set_pad_ver(&theme->styles.btn, PAD_SMALL);
 3721              		.loc 1 304 5 discriminator 8 view .LVU809
 3722 05fe EF29     		cmp	r1, #239
 3723 0600 41F38D80 		ble	.L278
 304:Lib/lvgl/src/themes/default/lv_theme_default.c ****     lv_style_set_pad_ver(&theme->styles.btn, PAD_SMALL);
 3724              		.loc 1 304 46 discriminator 18 view .LVU810
 3725 0604 5031     		adds	r1, r1, #80
 304:Lib/lvgl/src/themes/default/lv_theme_default.c ****     lv_style_set_pad_ver(&theme->styles.btn, PAD_SMALL);
 3726              		.loc 1 304 5 discriminator 18 view .LVU811
 3727 0606 184B     		ldr	r3, .L453
 3728 0608 83FB0123 		smull	r2, r3, r3, r1
 3729 060c C917     		asrs	r1, r1, #31
 3730 060e C1EBA311 		rsb	r1, r1, r3, asr #6
 3731              	.L146:
 304:Lib/lvgl/src/themes/default/lv_theme_default.c ****     lv_style_set_pad_ver(&theme->styles.btn, PAD_SMALL);
 3732              		.loc 1 304 5 discriminator 20 view .LVU812
 3733 0612 2846     		mov	r0, r5
 3734 0614 FFF7FEFF 		bl	lv_style_set_pad_hor
 3735              	.LVL418:
 305:Lib/lvgl/src/themes/default/lv_theme_default.c ****     lv_style_set_pad_column(&theme->styles.btn, _LV_DPX_CALC(theme->disp_dpi, 5));
 3736              		.loc 1 305 5 is_stmt 1 discriminator 20 view .LVU813
 305:Lib/lvgl/src/themes/default/lv_theme_default.c ****     lv_style_set_pad_column(&theme->styles.btn, _LV_DPX_CALC(theme->disp_dpi, 5));
 3737              		.loc 1 305 46 is_stmt 0 discriminator 20 view .LVU814
 3738 0618 E16A     		ldr	r1, [r4, #44]
 3739 061a 94F82830 		ldrb	r3, [r4, #40]	@ zero_extendqisi2
 3740 061e 012B     		cmp	r3, #1
 3741 0620 01F08380 		beq	.L279
 305:Lib/lvgl/src/themes/default/lv_theme_default.c ****     lv_style_set_pad_column(&theme->styles.btn, _LV_DPX_CALC(theme->disp_dpi, 5));
 3742              		.loc 1 305 46 discriminator 1 view .LVU815
 3743 0624 022B     		cmp	r3, #2
 3744 0626 01F07D80 		beq	.L412
 305:Lib/lvgl/src/themes/default/lv_theme_default.c ****     lv_style_set_pad_column(&theme->styles.btn, _LV_DPX_CALC(theme->disp_dpi, 5));
 3745              		.loc 1 305 46 view .LVU816
 3746 062a 0A23     		movs	r3, #10
 3747              	.L147:
 305:Lib/lvgl/src/themes/default/lv_theme_default.c ****     lv_style_set_pad_column(&theme->styles.btn, _LV_DPX_CALC(theme->disp_dpi, 5));
 3748              		.loc 1 305 46 discriminator 8 view .LVU817
 3749 062c 03FB01F1 		mul	r1, r3, r1
 305:Lib/lvgl/src/themes/default/lv_theme_default.c ****     lv_style_set_pad_column(&theme->styles.btn, _LV_DPX_CALC(theme->disp_dpi, 5));
 3750              		.loc 1 305 5 discriminator 8 view .LVU818
 3751 0630 EF29     		cmp	r1, #239
 3752 0632 41F37D80 		ble	.L281
 305:Lib/lvgl/src/themes/default/lv_theme_default.c ****     lv_style_set_pad_column(&theme->styles.btn, _LV_DPX_CALC(theme->disp_dpi, 5));
 3753              		.loc 1 305 46 discriminator 18 view .LVU819
ARM GAS  C:\Users\Alex\AppData\Local\Temp\ccR26jun.s 			page 119


 3754 0636 5031     		adds	r1, r1, #80
 305:Lib/lvgl/src/themes/default/lv_theme_default.c ****     lv_style_set_pad_column(&theme->styles.btn, _LV_DPX_CALC(theme->disp_dpi, 5));
 3755              		.loc 1 305 5 discriminator 18 view .LVU820
 3756 0638 0B4B     		ldr	r3, .L453
 3757 063a 83FB0123 		smull	r2, r3, r3, r1
 3758 063e C917     		asrs	r1, r1, #31
 3759 0640 C1EBA311 		rsb	r1, r1, r3, asr #6
 3760              	.L148:
 305:Lib/lvgl/src/themes/default/lv_theme_default.c ****     lv_style_set_pad_column(&theme->styles.btn, _LV_DPX_CALC(theme->disp_dpi, 5));
 3761              		.loc 1 305 5 discriminator 20 view .LVU821
 3762 0644 2846     		mov	r0, r5
 3763 0646 FFF7FEFF 		bl	lv_style_set_pad_ver
 3764              	.LVL419:
 306:Lib/lvgl/src/themes/default/lv_theme_default.c ****     lv_style_set_pad_row(&theme->styles.btn, _LV_DPX_CALC(theme->disp_dpi, 5));
 3765              		.loc 1 306 5 is_stmt 1 discriminator 20 view .LVU822
 306:Lib/lvgl/src/themes/default/lv_theme_default.c ****     lv_style_set_pad_row(&theme->styles.btn, _LV_DPX_CALC(theme->disp_dpi, 5));
 3766              		.loc 1 306 49 is_stmt 0 discriminator 20 view .LVU823
 3767 064a E16A     		ldr	r1, [r4, #44]
 3768 064c 01EB8101 		add	r1, r1, r1, lsl #2
 306:Lib/lvgl/src/themes/default/lv_theme_default.c ****     lv_style_set_pad_row(&theme->styles.btn, _LV_DPX_CALC(theme->disp_dpi, 5));
 3769              		.loc 1 306 5 discriminator 20 view .LVU824
 3770 0650 EF29     		cmp	r1, #239
 3771 0652 41F37080 		ble	.L282
 306:Lib/lvgl/src/themes/default/lv_theme_default.c ****     lv_style_set_pad_row(&theme->styles.btn, _LV_DPX_CALC(theme->disp_dpi, 5));
 3772              		.loc 1 306 49 discriminator 1 view .LVU825
 3773 0656 5031     		adds	r1, r1, #80
 306:Lib/lvgl/src/themes/default/lv_theme_default.c ****     lv_style_set_pad_row(&theme->styles.btn, _LV_DPX_CALC(theme->disp_dpi, 5));
 3774              		.loc 1 306 5 discriminator 1 view .LVU826
 3775 0658 034B     		ldr	r3, .L453
 3776 065a 83FB0123 		smull	r2, r3, r3, r1
 3777 065e C917     		asrs	r1, r1, #31
 3778 0660 C1EBA311 		rsb	r1, r1, r3, asr #6
 3779 0664 02E0     		b	.L454
 3780              	.L455:
 3781 0666 00BF     		.align	2
 3782              	.L453:
 3783 0668 67666666 		.word	1717986919
 3784              	.L454:
 3785              	.L149:
 306:Lib/lvgl/src/themes/default/lv_theme_default.c ****     lv_style_set_pad_row(&theme->styles.btn, _LV_DPX_CALC(theme->disp_dpi, 5));
 3786              		.loc 1 306 5 discriminator 4 view .LVU827
 3787 066c 2846     		mov	r0, r5
 3788 066e FFF7FEFF 		bl	lv_style_set_pad_column
 3789              	.LVL420:
 307:Lib/lvgl/src/themes/default/lv_theme_default.c **** 
 3790              		.loc 1 307 5 is_stmt 1 discriminator 4 view .LVU828
 307:Lib/lvgl/src/themes/default/lv_theme_default.c **** 
 3791              		.loc 1 307 46 is_stmt 0 discriminator 4 view .LVU829
 3792 0672 E16A     		ldr	r1, [r4, #44]
 3793 0674 01EB8101 		add	r1, r1, r1, lsl #2
 307:Lib/lvgl/src/themes/default/lv_theme_default.c **** 
 3794              		.loc 1 307 5 discriminator 4 view .LVU830
 3795 0678 EF29     		cmp	r1, #239
 3796 067a 41F35F80 		ble	.L283
 307:Lib/lvgl/src/themes/default/lv_theme_default.c **** 
 3797              		.loc 1 307 46 discriminator 1 view .LVU831
 3798 067e 5031     		adds	r1, r1, #80
ARM GAS  C:\Users\Alex\AppData\Local\Temp\ccR26jun.s 			page 120


 307:Lib/lvgl/src/themes/default/lv_theme_default.c **** 
 3799              		.loc 1 307 5 discriminator 1 view .LVU832
 3800 0680 B14B     		ldr	r3, .L456
 3801 0682 83FB0123 		smull	r2, r3, r3, r1
 3802 0686 C917     		asrs	r1, r1, #31
 3803 0688 C1EBA311 		rsb	r1, r1, r3, asr #6
 3804              	.L150:
 307:Lib/lvgl/src/themes/default/lv_theme_default.c **** 
 3805              		.loc 1 307 5 discriminator 4 view .LVU833
 3806 068c 2846     		mov	r0, r5
 3807 068e FFF7FEFF 		bl	lv_style_set_pad_row
 3808              	.LVL421:
 309:Lib/lvgl/src/themes/default/lv_theme_default.c ****     lv_color_filter_dsc_init(&theme->grey_filter, grey_filter_cb);
 3809              		.loc 1 309 5 is_stmt 1 discriminator 4 view .LVU834
 3810              	.LBB67:
 3811              	.LBI67:
  58:c:\users\alex\eclipse-workspace\lvgs_test\lib\lvgl\src\misc\lv_color_op.h **** 
  59:c:\users\alex\eclipse-workspace\lvgs_test\lib\lvgl\src\misc\lv_color_op.h **** /**
  60:c:\users\alex\eclipse-workspace\lvgs_test\lib\lvgl\src\misc\lv_color_op.h ****  *
  61:c:\users\alex\eclipse-workspace\lvgs_test\lib\lvgl\src\misc\lv_color_op.h ****  * @param fg
  62:c:\users\alex\eclipse-workspace\lvgs_test\lib\lvgl\src\misc\lv_color_op.h ****  * @param bg
  63:c:\users\alex\eclipse-workspace\lvgs_test\lib\lvgl\src\misc\lv_color_op.h ****  * @return
  64:c:\users\alex\eclipse-workspace\lvgs_test\lib\lvgl\src\misc\lv_color_op.h ****  * @note Use bg.alpha in the return value
  65:c:\users\alex\eclipse-workspace\lvgs_test\lib\lvgl\src\misc\lv_color_op.h ****  * @note Use fg.alpha as mix ratio
  66:c:\users\alex\eclipse-workspace\lvgs_test\lib\lvgl\src\misc\lv_color_op.h ****  */
  67:c:\users\alex\eclipse-workspace\lvgs_test\lib\lvgl\src\misc\lv_color_op.h **** static inline lv_color32_t lv_color_mix32(lv_color32_t fg, lv_color32_t bg)
  68:c:\users\alex\eclipse-workspace\lvgs_test\lib\lvgl\src\misc\lv_color_op.h **** {
  69:c:\users\alex\eclipse-workspace\lvgs_test\lib\lvgl\src\misc\lv_color_op.h ****     if(fg.alpha >= LV_OPA_MAX) {
  70:c:\users\alex\eclipse-workspace\lvgs_test\lib\lvgl\src\misc\lv_color_op.h ****         fg.alpha = bg.alpha;
  71:c:\users\alex\eclipse-workspace\lvgs_test\lib\lvgl\src\misc\lv_color_op.h ****         return fg;
  72:c:\users\alex\eclipse-workspace\lvgs_test\lib\lvgl\src\misc\lv_color_op.h ****     }
  73:c:\users\alex\eclipse-workspace\lvgs_test\lib\lvgl\src\misc\lv_color_op.h ****     if(fg.alpha <= LV_OPA_MIN) {
  74:c:\users\alex\eclipse-workspace\lvgs_test\lib\lvgl\src\misc\lv_color_op.h ****         return bg;
  75:c:\users\alex\eclipse-workspace\lvgs_test\lib\lvgl\src\misc\lv_color_op.h ****     }
  76:c:\users\alex\eclipse-workspace\lvgs_test\lib\lvgl\src\misc\lv_color_op.h ****     bg.red = (uint32_t)((uint32_t)fg.red * fg.alpha + (uint32_t)bg.red * (255 - fg.alpha)) >> 8;
  77:c:\users\alex\eclipse-workspace\lvgs_test\lib\lvgl\src\misc\lv_color_op.h ****     bg.green = (uint32_t)((uint32_t)fg.green * fg.alpha + (uint32_t)bg.green * (255 - fg.alpha)) >>
  78:c:\users\alex\eclipse-workspace\lvgs_test\lib\lvgl\src\misc\lv_color_op.h ****     bg.blue = (uint32_t)((uint32_t)fg.blue * fg.alpha + (uint32_t)bg.blue * (255 - fg.alpha)) >> 8;
  79:c:\users\alex\eclipse-workspace\lvgs_test\lib\lvgl\src\misc\lv_color_op.h ****     return bg;
  80:c:\users\alex\eclipse-workspace\lvgs_test\lib\lvgl\src\misc\lv_color_op.h **** }
  81:c:\users\alex\eclipse-workspace\lvgs_test\lib\lvgl\src\misc\lv_color_op.h **** 
  82:c:\users\alex\eclipse-workspace\lvgs_test\lib\lvgl\src\misc\lv_color_op.h **** //! @endcond
  83:c:\users\alex\eclipse-workspace\lvgs_test\lib\lvgl\src\misc\lv_color_op.h **** 
  84:c:\users\alex\eclipse-workspace\lvgs_test\lib\lvgl\src\misc\lv_color_op.h **** /**
  85:c:\users\alex\eclipse-workspace\lvgs_test\lib\lvgl\src\misc\lv_color_op.h ****  * Get the brightness of a color
  86:c:\users\alex\eclipse-workspace\lvgs_test\lib\lvgl\src\misc\lv_color_op.h ****  * @param color a color
  87:c:\users\alex\eclipse-workspace\lvgs_test\lib\lvgl\src\misc\lv_color_op.h ****  * @return the brightness [0..255]
  88:c:\users\alex\eclipse-workspace\lvgs_test\lib\lvgl\src\misc\lv_color_op.h ****  */
  89:c:\users\alex\eclipse-workspace\lvgs_test\lib\lvgl\src\misc\lv_color_op.h **** static inline uint8_t lv_color_brightness(lv_color_t c)
  90:c:\users\alex\eclipse-workspace\lvgs_test\lib\lvgl\src\misc\lv_color_op.h **** {
  91:c:\users\alex\eclipse-workspace\lvgs_test\lib\lvgl\src\misc\lv_color_op.h ****     uint16_t bright = (uint16_t)(3u * c.red + c.green + 4u * c.blue);
  92:c:\users\alex\eclipse-workspace\lvgs_test\lib\lvgl\src\misc\lv_color_op.h ****     return (uint8_t)(bright >> 3);
  93:c:\users\alex\eclipse-workspace\lvgs_test\lib\lvgl\src\misc\lv_color_op.h **** }
  94:c:\users\alex\eclipse-workspace\lvgs_test\lib\lvgl\src\misc\lv_color_op.h **** 
  95:c:\users\alex\eclipse-workspace\lvgs_test\lib\lvgl\src\misc\lv_color_op.h **** static inline void lv_color_filter_dsc_init(lv_color_filter_dsc_t * dsc, lv_color_filter_cb_t cb)
 3812              		.loc 3 95 20 discriminator 4 view .LVU835
 3813              	.LBB68:
  96:c:\users\alex\eclipse-workspace\lvgs_test\lib\lvgl\src\misc\lv_color_op.h **** {
ARM GAS  C:\Users\Alex\AppData\Local\Temp\ccR26jun.s 			page 121


  97:c:\users\alex\eclipse-workspace\lvgs_test\lib\lvgl\src\misc\lv_color_op.h ****     dsc->filter_cb = cb;
 3814              		.loc 3 97 5 discriminator 4 view .LVU836
 3815              		.loc 3 97 20 is_stmt 0 discriminator 4 view .LVU837
 3816 0692 AE4B     		ldr	r3, .L456+4
 3817 0694 C4F85833 		str	r3, [r4, #856]
 3818              	.LVL422:
 3819              		.loc 3 97 20 discriminator 4 view .LVU838
 3820              	.LBE68:
 3821              	.LBE67:
 310:Lib/lvgl/src/themes/default/lv_theme_default.c **** 
 3822              		.loc 1 310 5 is_stmt 1 discriminator 4 view .LVU839
 3823              	.LBB69:
 3824              	.LBI69:
  95:c:\users\alex\eclipse-workspace\lvgs_test\lib\lvgl\src\misc\lv_color_op.h **** {
 3825              		.loc 3 95 20 discriminator 4 view .LVU840
 3826              	.LBB70:
 3827              		.loc 3 97 5 discriminator 4 view .LVU841
 3828              		.loc 3 97 20 is_stmt 0 discriminator 4 view .LVU842
 3829 0698 AD4B     		ldr	r3, .L456+8
 3830 069a C4F86033 		str	r3, [r4, #864]
 3831              	.LVL423:
 3832              		.loc 3 97 20 discriminator 4 view .LVU843
 3833              	.LBE70:
 3834              	.LBE69:
 312:Lib/lvgl/src/themes/default/lv_theme_default.c ****     lv_style_set_color_filter_dsc(&theme->styles.pressed, &theme->dark_filter);
 3835              		.loc 1 312 5 is_stmt 1 discriminator 4 view .LVU844
 3836 069e 04F1C405 		add	r5, r4, #196
 3837 06a2 2846     		mov	r0, r5
 3838 06a4 FFF7FEFF 		bl	style_init_reset
 3839              	.LVL424:
 313:Lib/lvgl/src/themes/default/lv_theme_default.c ****     lv_style_set_color_filter_opa(&theme->styles.pressed, 35);
 3840              		.loc 1 313 5 discriminator 4 view .LVU845
 3841 06a8 04F55671 		add	r1, r4, #856
 3842 06ac 2846     		mov	r0, r5
 3843 06ae FFF7FEFF 		bl	lv_style_set_color_filter_dsc
 3844              	.LVL425:
 314:Lib/lvgl/src/themes/default/lv_theme_default.c **** 
 3845              		.loc 1 314 5 discriminator 4 view .LVU846
 3846 06b2 2321     		movs	r1, #35
 3847 06b4 2846     		mov	r0, r5
 3848 06b6 FFF7FEFF 		bl	lv_style_set_color_filter_opa
 3849              	.LVL426:
 316:Lib/lvgl/src/themes/default/lv_theme_default.c ****     lv_style_set_color_filter_dsc(&theme->styles.disabled, &theme->grey_filter);
 3850              		.loc 1 316 5 discriminator 4 view .LVU847
 3851 06ba 04F1D005 		add	r5, r4, #208
 3852 06be 2846     		mov	r0, r5
 3853 06c0 FFF7FEFF 		bl	style_init_reset
 3854              	.LVL427:
 317:Lib/lvgl/src/themes/default/lv_theme_default.c ****     lv_style_set_color_filter_opa(&theme->styles.disabled, LV_OPA_50);
 3855              		.loc 1 317 5 discriminator 4 view .LVU848
 3856 06c4 04F55871 		add	r1, r4, #864
 3857 06c8 2846     		mov	r0, r5
 3858 06ca FFF7FEFF 		bl	lv_style_set_color_filter_dsc
 3859              	.LVL428:
 318:Lib/lvgl/src/themes/default/lv_theme_default.c **** 
 3860              		.loc 1 318 5 discriminator 4 view .LVU849
 3861 06ce 7F21     		movs	r1, #127
ARM GAS  C:\Users\Alex\AppData\Local\Temp\ccR26jun.s 			page 122


 3862 06d0 2846     		mov	r0, r5
 3863 06d2 FFF7FEFF 		bl	lv_style_set_color_filter_opa
 3864              	.LVL429:
 320:Lib/lvgl/src/themes/default/lv_theme_default.c ****     lv_style_set_clip_corner(&theme->styles.clip_corner, true);
 3865              		.loc 1 320 5 discriminator 4 view .LVU850
 3866 06d6 04F5B075 		add	r5, r4, #352
 3867 06da 2846     		mov	r0, r5
 3868 06dc FFF7FEFF 		bl	style_init_reset
 3869              	.LVL430:
 321:Lib/lvgl/src/themes/default/lv_theme_default.c ****     lv_style_set_border_post(&theme->styles.clip_corner, true);
 3870              		.loc 1 321 5 discriminator 4 view .LVU851
 3871 06e0 0121     		movs	r1, #1
 3872 06e2 2846     		mov	r0, r5
 3873 06e4 FFF7FEFF 		bl	lv_style_set_clip_corner
 3874              	.LVL431:
 322:Lib/lvgl/src/themes/default/lv_theme_default.c **** 
 3875              		.loc 1 322 5 discriminator 4 view .LVU852
 3876 06e8 0121     		movs	r1, #1
 3877 06ea 2846     		mov	r0, r5
 3878 06ec FFF7FEFF 		bl	lv_style_set_border_post
 3879              	.LVL432:
 324:Lib/lvgl/src/themes/default/lv_theme_default.c ****     lv_style_set_pad_all(&theme->styles.pad_normal, PAD_DEF);
 3880              		.loc 1 324 5 discriminator 4 view .LVU853
 3881 06f0 04F58075 		add	r5, r4, #256
 3882 06f4 2846     		mov	r0, r5
 3883 06f6 FFF7FEFF 		bl	style_init_reset
 3884              	.LVL433:
 325:Lib/lvgl/src/themes/default/lv_theme_default.c ****     lv_style_set_pad_row(&theme->styles.pad_normal, PAD_DEF);
 3885              		.loc 1 325 5 discriminator 4 view .LVU854
 325:Lib/lvgl/src/themes/default/lv_theme_default.c ****     lv_style_set_pad_row(&theme->styles.pad_normal, PAD_DEF);
 3886              		.loc 1 325 53 is_stmt 0 discriminator 4 view .LVU855
 3887 06fa E16A     		ldr	r1, [r4, #44]
 3888 06fc 94F82830 		ldrb	r3, [r4, #40]	@ zero_extendqisi2
 3889 0700 012B     		cmp	r3, #1
 3890 0702 01F02180 		beq	.L284
 325:Lib/lvgl/src/themes/default/lv_theme_default.c ****     lv_style_set_pad_row(&theme->styles.pad_normal, PAD_DEF);
 3891              		.loc 1 325 53 discriminator 1 view .LVU856
 3892 0706 022B     		cmp	r3, #2
 3893 0708 01F01B80 		beq	.L413
 325:Lib/lvgl/src/themes/default/lv_theme_default.c ****     lv_style_set_pad_row(&theme->styles.pad_normal, PAD_DEF);
 3894              		.loc 1 325 53 view .LVU857
 3895 070c 1023     		movs	r3, #16
 3896              	.L151:
 325:Lib/lvgl/src/themes/default/lv_theme_default.c ****     lv_style_set_pad_row(&theme->styles.pad_normal, PAD_DEF);
 3897              		.loc 1 325 53 discriminator 8 view .LVU858
 3898 070e 03FB01F1 		mul	r1, r3, r1
 325:Lib/lvgl/src/themes/default/lv_theme_default.c ****     lv_style_set_pad_row(&theme->styles.pad_normal, PAD_DEF);
 3899              		.loc 1 325 5 discriminator 8 view .LVU859
 3900 0712 EF29     		cmp	r1, #239
 3901 0714 41F31B80 		ble	.L286
 325:Lib/lvgl/src/themes/default/lv_theme_default.c ****     lv_style_set_pad_row(&theme->styles.pad_normal, PAD_DEF);
 3902              		.loc 1 325 53 discriminator 18 view .LVU860
 3903 0718 5031     		adds	r1, r1, #80
 325:Lib/lvgl/src/themes/default/lv_theme_default.c ****     lv_style_set_pad_row(&theme->styles.pad_normal, PAD_DEF);
 3904              		.loc 1 325 5 discriminator 18 view .LVU861
 3905 071a 8B4B     		ldr	r3, .L456
 3906 071c 83FB0123 		smull	r2, r3, r3, r1
ARM GAS  C:\Users\Alex\AppData\Local\Temp\ccR26jun.s 			page 123


 3907 0720 C917     		asrs	r1, r1, #31
 3908 0722 C1EBA311 		rsb	r1, r1, r3, asr #6
 3909              	.L152:
 325:Lib/lvgl/src/themes/default/lv_theme_default.c ****     lv_style_set_pad_row(&theme->styles.pad_normal, PAD_DEF);
 3910              		.loc 1 325 5 discriminator 20 view .LVU862
 3911 0726 2846     		mov	r0, r5
 3912 0728 FFF7FEFF 		bl	lv_style_set_pad_all
 3913              	.LVL434:
 326:Lib/lvgl/src/themes/default/lv_theme_default.c ****     lv_style_set_pad_column(&theme->styles.pad_normal, PAD_DEF);
 3914              		.loc 1 326 5 is_stmt 1 discriminator 20 view .LVU863
 326:Lib/lvgl/src/themes/default/lv_theme_default.c ****     lv_style_set_pad_column(&theme->styles.pad_normal, PAD_DEF);
 3915              		.loc 1 326 53 is_stmt 0 discriminator 20 view .LVU864
 3916 072c E16A     		ldr	r1, [r4, #44]
 3917 072e 94F82830 		ldrb	r3, [r4, #40]	@ zero_extendqisi2
 3918 0732 012B     		cmp	r3, #1
 3919 0734 01F01180 		beq	.L287
 326:Lib/lvgl/src/themes/default/lv_theme_default.c ****     lv_style_set_pad_column(&theme->styles.pad_normal, PAD_DEF);
 3920              		.loc 1 326 53 discriminator 1 view .LVU865
 3921 0738 022B     		cmp	r3, #2
 3922 073a 01F00B80 		beq	.L414
 326:Lib/lvgl/src/themes/default/lv_theme_default.c ****     lv_style_set_pad_column(&theme->styles.pad_normal, PAD_DEF);
 3923              		.loc 1 326 53 view .LVU866
 3924 073e 1023     		movs	r3, #16
 3925              	.L153:
 326:Lib/lvgl/src/themes/default/lv_theme_default.c ****     lv_style_set_pad_column(&theme->styles.pad_normal, PAD_DEF);
 3926              		.loc 1 326 53 discriminator 8 view .LVU867
 3927 0740 03FB01F1 		mul	r1, r3, r1
 326:Lib/lvgl/src/themes/default/lv_theme_default.c ****     lv_style_set_pad_column(&theme->styles.pad_normal, PAD_DEF);
 3928              		.loc 1 326 5 discriminator 8 view .LVU868
 3929 0744 EF29     		cmp	r1, #239
 3930 0746 41F30B80 		ble	.L289
 326:Lib/lvgl/src/themes/default/lv_theme_default.c ****     lv_style_set_pad_column(&theme->styles.pad_normal, PAD_DEF);
 3931              		.loc 1 326 53 discriminator 18 view .LVU869
 3932 074a 5031     		adds	r1, r1, #80
 326:Lib/lvgl/src/themes/default/lv_theme_default.c ****     lv_style_set_pad_column(&theme->styles.pad_normal, PAD_DEF);
 3933              		.loc 1 326 5 discriminator 18 view .LVU870
 3934 074c 7E4B     		ldr	r3, .L456
 3935 074e 83FB0123 		smull	r2, r3, r3, r1
 3936 0752 C917     		asrs	r1, r1, #31
 3937 0754 C1EBA311 		rsb	r1, r1, r3, asr #6
 3938              	.L154:
 326:Lib/lvgl/src/themes/default/lv_theme_default.c ****     lv_style_set_pad_column(&theme->styles.pad_normal, PAD_DEF);
 3939              		.loc 1 326 5 discriminator 20 view .LVU871
 3940 0758 2846     		mov	r0, r5
 3941 075a FFF7FEFF 		bl	lv_style_set_pad_row
 3942              	.LVL435:
 327:Lib/lvgl/src/themes/default/lv_theme_default.c **** 
 3943              		.loc 1 327 5 is_stmt 1 discriminator 20 view .LVU872
 327:Lib/lvgl/src/themes/default/lv_theme_default.c **** 
 3944              		.loc 1 327 56 is_stmt 0 discriminator 20 view .LVU873
 3945 075e E16A     		ldr	r1, [r4, #44]
 3946 0760 94F82830 		ldrb	r3, [r4, #40]	@ zero_extendqisi2
 3947 0764 012B     		cmp	r3, #1
 3948 0766 01F00180 		beq	.L290
 327:Lib/lvgl/src/themes/default/lv_theme_default.c **** 
 3949              		.loc 1 327 56 discriminator 1 view .LVU874
 3950 076a 022B     		cmp	r3, #2
ARM GAS  C:\Users\Alex\AppData\Local\Temp\ccR26jun.s 			page 124


 3951 076c 00F0FB87 		beq	.L415
 327:Lib/lvgl/src/themes/default/lv_theme_default.c **** 
 3952              		.loc 1 327 56 view .LVU875
 3953 0770 1023     		movs	r3, #16
 3954              	.L155:
 327:Lib/lvgl/src/themes/default/lv_theme_default.c **** 
 3955              		.loc 1 327 56 discriminator 8 view .LVU876
 3956 0772 03FB01F1 		mul	r1, r3, r1
 327:Lib/lvgl/src/themes/default/lv_theme_default.c **** 
 3957              		.loc 1 327 5 discriminator 8 view .LVU877
 3958 0776 EF29     		cmp	r1, #239
 3959 0778 40F3FB87 		ble	.L292
 327:Lib/lvgl/src/themes/default/lv_theme_default.c **** 
 3960              		.loc 1 327 56 discriminator 18 view .LVU878
 3961 077c 5031     		adds	r1, r1, #80
 327:Lib/lvgl/src/themes/default/lv_theme_default.c **** 
 3962              		.loc 1 327 5 discriminator 18 view .LVU879
 3963 077e 724B     		ldr	r3, .L456
 3964 0780 83FB0123 		smull	r2, r3, r3, r1
 3965 0784 C917     		asrs	r1, r1, #31
 3966 0786 C1EBA311 		rsb	r1, r1, r3, asr #6
 3967              	.L156:
 327:Lib/lvgl/src/themes/default/lv_theme_default.c **** 
 3968              		.loc 1 327 5 discriminator 20 view .LVU880
 3969 078a 2846     		mov	r0, r5
 3970 078c FFF7FEFF 		bl	lv_style_set_pad_column
 3971              	.LVL436:
 329:Lib/lvgl/src/themes/default/lv_theme_default.c ****     lv_style_set_pad_all(&theme->styles.pad_small, PAD_SMALL);
 3972              		.loc 1 329 5 is_stmt 1 discriminator 20 view .LVU881
 3973 0790 04F1F405 		add	r5, r4, #244
 3974 0794 2846     		mov	r0, r5
 3975 0796 FFF7FEFF 		bl	style_init_reset
 3976              	.LVL437:
 330:Lib/lvgl/src/themes/default/lv_theme_default.c ****     lv_style_set_pad_gap(&theme->styles.pad_small, PAD_SMALL);
 3977              		.loc 1 330 5 discriminator 20 view .LVU882
 330:Lib/lvgl/src/themes/default/lv_theme_default.c ****     lv_style_set_pad_gap(&theme->styles.pad_small, PAD_SMALL);
 3978              		.loc 1 330 52 is_stmt 0 discriminator 20 view .LVU883
 3979 079a E16A     		ldr	r1, [r4, #44]
 3980 079c 94F82830 		ldrb	r3, [r4, #40]	@ zero_extendqisi2
 3981 07a0 012B     		cmp	r3, #1
 3982 07a2 00F0EC87 		beq	.L293
 330:Lib/lvgl/src/themes/default/lv_theme_default.c ****     lv_style_set_pad_gap(&theme->styles.pad_small, PAD_SMALL);
 3983              		.loc 1 330 52 discriminator 1 view .LVU884
 3984 07a6 022B     		cmp	r3, #2
 3985 07a8 00F0E687 		beq	.L416
 330:Lib/lvgl/src/themes/default/lv_theme_default.c ****     lv_style_set_pad_gap(&theme->styles.pad_small, PAD_SMALL);
 3986              		.loc 1 330 52 view .LVU885
 3987 07ac 0A23     		movs	r3, #10
 3988              	.L157:
 330:Lib/lvgl/src/themes/default/lv_theme_default.c ****     lv_style_set_pad_gap(&theme->styles.pad_small, PAD_SMALL);
 3989              		.loc 1 330 52 discriminator 8 view .LVU886
 3990 07ae 03FB01F1 		mul	r1, r3, r1
 330:Lib/lvgl/src/themes/default/lv_theme_default.c ****     lv_style_set_pad_gap(&theme->styles.pad_small, PAD_SMALL);
 3991              		.loc 1 330 5 discriminator 8 view .LVU887
 3992 07b2 EF29     		cmp	r1, #239
 3993 07b4 40F3E687 		ble	.L295
 330:Lib/lvgl/src/themes/default/lv_theme_default.c ****     lv_style_set_pad_gap(&theme->styles.pad_small, PAD_SMALL);
ARM GAS  C:\Users\Alex\AppData\Local\Temp\ccR26jun.s 			page 125


 3994              		.loc 1 330 52 discriminator 18 view .LVU888
 3995 07b8 5031     		adds	r1, r1, #80
 330:Lib/lvgl/src/themes/default/lv_theme_default.c ****     lv_style_set_pad_gap(&theme->styles.pad_small, PAD_SMALL);
 3996              		.loc 1 330 5 discriminator 18 view .LVU889
 3997 07ba 634B     		ldr	r3, .L456
 3998 07bc 83FB0123 		smull	r2, r3, r3, r1
 3999 07c0 C917     		asrs	r1, r1, #31
 4000 07c2 C1EBA311 		rsb	r1, r1, r3, asr #6
 4001              	.L158:
 330:Lib/lvgl/src/themes/default/lv_theme_default.c ****     lv_style_set_pad_gap(&theme->styles.pad_small, PAD_SMALL);
 4002              		.loc 1 330 5 discriminator 20 view .LVU890
 4003 07c6 2846     		mov	r0, r5
 4004 07c8 FFF7FEFF 		bl	lv_style_set_pad_all
 4005              	.LVL438:
 331:Lib/lvgl/src/themes/default/lv_theme_default.c **** 
 4006              		.loc 1 331 5 is_stmt 1 discriminator 20 view .LVU891
 331:Lib/lvgl/src/themes/default/lv_theme_default.c **** 
 4007              		.loc 1 331 52 is_stmt 0 discriminator 20 view .LVU892
 4008 07cc E16A     		ldr	r1, [r4, #44]
 4009 07ce 94F82830 		ldrb	r3, [r4, #40]	@ zero_extendqisi2
 4010 07d2 012B     		cmp	r3, #1
 4011 07d4 00F0DC87 		beq	.L296
 331:Lib/lvgl/src/themes/default/lv_theme_default.c **** 
 4012              		.loc 1 331 52 discriminator 1 view .LVU893
 4013 07d8 022B     		cmp	r3, #2
 4014 07da 00F0D687 		beq	.L417
 331:Lib/lvgl/src/themes/default/lv_theme_default.c **** 
 4015              		.loc 1 331 52 view .LVU894
 4016 07de 0A23     		movs	r3, #10
 4017              	.L159:
 331:Lib/lvgl/src/themes/default/lv_theme_default.c **** 
 4018              		.loc 1 331 52 discriminator 8 view .LVU895
 4019 07e0 03FB01F1 		mul	r1, r3, r1
 331:Lib/lvgl/src/themes/default/lv_theme_default.c **** 
 4020              		.loc 1 331 5 discriminator 8 view .LVU896
 4021 07e4 EF29     		cmp	r1, #239
 4022 07e6 40F3D687 		ble	.L298
 331:Lib/lvgl/src/themes/default/lv_theme_default.c **** 
 4023              		.loc 1 331 52 discriminator 18 view .LVU897
 4024 07ea 5031     		adds	r1, r1, #80
 331:Lib/lvgl/src/themes/default/lv_theme_default.c **** 
 4025              		.loc 1 331 5 discriminator 18 view .LVU898
 4026 07ec 564B     		ldr	r3, .L456
 4027 07ee 83FB0123 		smull	r2, r3, r3, r1
 4028 07f2 C917     		asrs	r1, r1, #31
 4029 07f4 C1EBA311 		rsb	r1, r1, r3, asr #6
 4030              	.L160:
 331:Lib/lvgl/src/themes/default/lv_theme_default.c **** 
 4031              		.loc 1 331 5 discriminator 20 view .LVU899
 4032 07f8 2846     		mov	r0, r5
 4033 07fa FFF7FEFF 		bl	lv_style_set_pad_gap
 4034              	.LVL439:
 333:Lib/lvgl/src/themes/default/lv_theme_default.c ****     lv_style_set_pad_row(&theme->styles.pad_gap, _LV_DPX_CALC(theme->disp_dpi, 10));
 4035              		.loc 1 333 5 is_stmt 1 discriminator 20 view .LVU900
 4036 07fe 04F58675 		add	r5, r4, #268
 4037 0802 2846     		mov	r0, r5
 4038 0804 FFF7FEFF 		bl	style_init_reset
ARM GAS  C:\Users\Alex\AppData\Local\Temp\ccR26jun.s 			page 126


 4039              	.LVL440:
 334:Lib/lvgl/src/themes/default/lv_theme_default.c ****     lv_style_set_pad_column(&theme->styles.pad_gap, _LV_DPX_CALC(theme->disp_dpi, 10));
 4040              		.loc 1 334 5 discriminator 20 view .LVU901
 334:Lib/lvgl/src/themes/default/lv_theme_default.c ****     lv_style_set_pad_column(&theme->styles.pad_gap, _LV_DPX_CALC(theme->disp_dpi, 10));
 4041              		.loc 1 334 50 is_stmt 0 discriminator 20 view .LVU902
 4042 0808 E36A     		ldr	r3, [r4, #44]
 4043 080a 03EB8303 		add	r3, r3, r3, lsl #2
 4044 080e 5B00     		lsls	r3, r3, #1
 334:Lib/lvgl/src/themes/default/lv_theme_default.c ****     lv_style_set_pad_column(&theme->styles.pad_gap, _LV_DPX_CALC(theme->disp_dpi, 10));
 4045              		.loc 1 334 5 discriminator 20 view .LVU903
 4046 0810 EF2B     		cmp	r3, #239
 4047 0812 40F3C387 		ble	.L299
 334:Lib/lvgl/src/themes/default/lv_theme_default.c ****     lv_style_set_pad_column(&theme->styles.pad_gap, _LV_DPX_CALC(theme->disp_dpi, 10));
 4048              		.loc 1 334 50 discriminator 1 view .LVU904
 4049 0816 5033     		adds	r3, r3, #80
 334:Lib/lvgl/src/themes/default/lv_theme_default.c ****     lv_style_set_pad_column(&theme->styles.pad_gap, _LV_DPX_CALC(theme->disp_dpi, 10));
 4050              		.loc 1 334 5 discriminator 1 view .LVU905
 4051 0818 4B4A     		ldr	r2, .L456
 4052 081a 82FB0312 		smull	r1, r2, r2, r3
 4053 081e DB17     		asrs	r3, r3, #31
 4054 0820 C3EBA211 		rsb	r1, r3, r2, asr #6
 4055              	.L161:
 334:Lib/lvgl/src/themes/default/lv_theme_default.c ****     lv_style_set_pad_column(&theme->styles.pad_gap, _LV_DPX_CALC(theme->disp_dpi, 10));
 4056              		.loc 1 334 5 discriminator 4 view .LVU906
 4057 0824 2846     		mov	r0, r5
 4058 0826 FFF7FEFF 		bl	lv_style_set_pad_row
 4059              	.LVL441:
 335:Lib/lvgl/src/themes/default/lv_theme_default.c **** 
 4060              		.loc 1 335 5 is_stmt 1 discriminator 4 view .LVU907
 335:Lib/lvgl/src/themes/default/lv_theme_default.c **** 
 4061              		.loc 1 335 53 is_stmt 0 discriminator 4 view .LVU908
 4062 082a E36A     		ldr	r3, [r4, #44]
 4063 082c 03EB8303 		add	r3, r3, r3, lsl #2
 4064 0830 5B00     		lsls	r3, r3, #1
 335:Lib/lvgl/src/themes/default/lv_theme_default.c **** 
 4065              		.loc 1 335 5 discriminator 4 view .LVU909
 4066 0832 EF2B     		cmp	r3, #239
 4067 0834 40F3B587 		ble	.L300
 335:Lib/lvgl/src/themes/default/lv_theme_default.c **** 
 4068              		.loc 1 335 53 discriminator 1 view .LVU910
 4069 0838 5033     		adds	r3, r3, #80
 335:Lib/lvgl/src/themes/default/lv_theme_default.c **** 
 4070              		.loc 1 335 5 discriminator 1 view .LVU911
 4071 083a 434A     		ldr	r2, .L456
 4072 083c 82FB0312 		smull	r1, r2, r2, r3
 4073 0840 DB17     		asrs	r3, r3, #31
 4074 0842 C3EBA211 		rsb	r1, r3, r2, asr #6
 4075              	.L162:
 335:Lib/lvgl/src/themes/default/lv_theme_default.c **** 
 4076              		.loc 1 335 5 discriminator 4 view .LVU912
 4077 0846 2846     		mov	r0, r5
 4078 0848 FFF7FEFF 		bl	lv_style_set_pad_column
 4079              	.LVL442:
 337:Lib/lvgl/src/themes/default/lv_theme_default.c ****     lv_style_set_text_line_space(&theme->styles.line_space_large, _LV_DPX_CALC(theme->disp_dpi, 20)
 4080              		.loc 1 337 5 is_stmt 1 discriminator 4 view .LVU913
 4081 084c 04F58C75 		add	r5, r4, #280
 4082 0850 2846     		mov	r0, r5
ARM GAS  C:\Users\Alex\AppData\Local\Temp\ccR26jun.s 			page 127


 4083 0852 FFF7FEFF 		bl	style_init_reset
 4084              	.LVL443:
 338:Lib/lvgl/src/themes/default/lv_theme_default.c **** 
 4085              		.loc 1 338 5 discriminator 4 view .LVU914
 338:Lib/lvgl/src/themes/default/lv_theme_default.c **** 
 4086              		.loc 1 338 67 is_stmt 0 discriminator 4 view .LVU915
 4087 0856 E36A     		ldr	r3, [r4, #44]
 4088 0858 03EB8303 		add	r3, r3, r3, lsl #2
 4089 085c 9B00     		lsls	r3, r3, #2
 338:Lib/lvgl/src/themes/default/lv_theme_default.c **** 
 4090              		.loc 1 338 5 discriminator 4 view .LVU916
 4091 085e EF2B     		cmp	r3, #239
 4092 0860 40F3A287 		ble	.L301
 338:Lib/lvgl/src/themes/default/lv_theme_default.c **** 
 4093              		.loc 1 338 67 discriminator 1 view .LVU917
 4094 0864 5033     		adds	r3, r3, #80
 338:Lib/lvgl/src/themes/default/lv_theme_default.c **** 
 4095              		.loc 1 338 5 discriminator 1 view .LVU918
 4096 0866 384A     		ldr	r2, .L456
 4097 0868 82FB0312 		smull	r1, r2, r2, r3
 4098 086c DB17     		asrs	r3, r3, #31
 4099 086e C3EBA211 		rsb	r1, r3, r2, asr #6
 4100              	.L163:
 338:Lib/lvgl/src/themes/default/lv_theme_default.c **** 
 4101              		.loc 1 338 5 discriminator 4 view .LVU919
 4102 0872 2846     		mov	r0, r5
 4103 0874 FFF7FEFF 		bl	lv_style_set_text_line_space
 4104              	.LVL444:
 340:Lib/lvgl/src/themes/default/lv_theme_default.c ****     lv_style_set_text_align(&theme->styles.text_align_center, LV_TEXT_ALIGN_CENTER);
 4105              		.loc 1 340 5 is_stmt 1 discriminator 4 view .LVU920
 4106 0878 04F59275 		add	r5, r4, #292
 4107 087c 2846     		mov	r0, r5
 4108 087e FFF7FEFF 		bl	style_init_reset
 4109              	.LVL445:
 341:Lib/lvgl/src/themes/default/lv_theme_default.c **** 
 4110              		.loc 1 341 5 discriminator 4 view .LVU921
 4111 0882 0221     		movs	r1, #2
 4112 0884 2846     		mov	r0, r5
 4113 0886 FFF7FEFF 		bl	lv_style_set_text_align
 4114              	.LVL446:
 343:Lib/lvgl/src/themes/default/lv_theme_default.c ****     lv_style_set_pad_all(&theme->styles.pad_zero, 0);
 4115              		.loc 1 343 5 discriminator 4 view .LVU922
 4116 088a 04F1DC05 		add	r5, r4, #220
 4117 088e 2846     		mov	r0, r5
 4118 0890 FFF7FEFF 		bl	style_init_reset
 4119              	.LVL447:
 344:Lib/lvgl/src/themes/default/lv_theme_default.c ****     lv_style_set_pad_row(&theme->styles.pad_zero, 0);
 4120              		.loc 1 344 5 discriminator 4 view .LVU923
 4121 0894 0021     		movs	r1, #0
 4122 0896 2846     		mov	r0, r5
 4123 0898 FFF7FEFF 		bl	lv_style_set_pad_all
 4124              	.LVL448:
 345:Lib/lvgl/src/themes/default/lv_theme_default.c ****     lv_style_set_pad_column(&theme->styles.pad_zero, 0);
 4125              		.loc 1 345 5 discriminator 4 view .LVU924
 4126 089c 0021     		movs	r1, #0
 4127 089e 2846     		mov	r0, r5
 4128 08a0 FFF7FEFF 		bl	lv_style_set_pad_row
ARM GAS  C:\Users\Alex\AppData\Local\Temp\ccR26jun.s 			page 128


 4129              	.LVL449:
 346:Lib/lvgl/src/themes/default/lv_theme_default.c **** 
 4130              		.loc 1 346 5 discriminator 4 view .LVU925
 4131 08a4 0021     		movs	r1, #0
 4132 08a6 2846     		mov	r0, r5
 4133 08a8 FFF7FEFF 		bl	lv_style_set_pad_column
 4134              	.LVL450:
 348:Lib/lvgl/src/themes/default/lv_theme_default.c ****     lv_style_set_pad_all(&theme->styles.pad_tiny, PAD_TINY);
 4135              		.loc 1 348 5 discriminator 4 view .LVU926
 4136 08ac 04F1E805 		add	r5, r4, #232
 4137 08b0 2846     		mov	r0, r5
 4138 08b2 FFF7FEFF 		bl	style_init_reset
 4139              	.LVL451:
 349:Lib/lvgl/src/themes/default/lv_theme_default.c ****     lv_style_set_pad_row(&theme->styles.pad_tiny, PAD_TINY);
 4140              		.loc 1 349 5 discriminator 4 view .LVU927
 349:Lib/lvgl/src/themes/default/lv_theme_default.c ****     lv_style_set_pad_row(&theme->styles.pad_tiny, PAD_TINY);
 4141              		.loc 1 349 51 is_stmt 0 discriminator 4 view .LVU928
 4142 08b6 E16A     		ldr	r1, [r4, #44]
 4143 08b8 94F82830 		ldrb	r3, [r4, #40]	@ zero_extendqisi2
 4144 08bc 012B     		cmp	r3, #1
 4145 08be 00F07987 		beq	.L302
 349:Lib/lvgl/src/themes/default/lv_theme_default.c ****     lv_style_set_pad_row(&theme->styles.pad_tiny, PAD_TINY);
 4146              		.loc 1 349 51 discriminator 1 view .LVU929
 4147 08c2 022B     		cmp	r3, #2
 4148 08c4 00F07387 		beq	.L418
 349:Lib/lvgl/src/themes/default/lv_theme_default.c ****     lv_style_set_pad_row(&theme->styles.pad_tiny, PAD_TINY);
 4149              		.loc 1 349 51 view .LVU930
 4150 08c8 0223     		movs	r3, #2
 4151              	.L164:
 349:Lib/lvgl/src/themes/default/lv_theme_default.c ****     lv_style_set_pad_row(&theme->styles.pad_tiny, PAD_TINY);
 4152              		.loc 1 349 51 discriminator 8 view .LVU931
 4153 08ca 03FB01F1 		mul	r1, r3, r1
 349:Lib/lvgl/src/themes/default/lv_theme_default.c ****     lv_style_set_pad_row(&theme->styles.pad_tiny, PAD_TINY);
 4154              		.loc 1 349 5 discriminator 8 view .LVU932
 4155 08ce EF29     		cmp	r1, #239
 4156 08d0 40F37387 		ble	.L304
 349:Lib/lvgl/src/themes/default/lv_theme_default.c ****     lv_style_set_pad_row(&theme->styles.pad_tiny, PAD_TINY);
 4157              		.loc 1 349 51 discriminator 18 view .LVU933
 4158 08d4 5031     		adds	r1, r1, #80
 349:Lib/lvgl/src/themes/default/lv_theme_default.c ****     lv_style_set_pad_row(&theme->styles.pad_tiny, PAD_TINY);
 4159              		.loc 1 349 5 discriminator 18 view .LVU934
 4160 08d6 1C4B     		ldr	r3, .L456
 4161 08d8 83FB0123 		smull	r2, r3, r3, r1
 4162 08dc C917     		asrs	r1, r1, #31
 4163 08de C1EBA311 		rsb	r1, r1, r3, asr #6
 4164              	.L165:
 349:Lib/lvgl/src/themes/default/lv_theme_default.c ****     lv_style_set_pad_row(&theme->styles.pad_tiny, PAD_TINY);
 4165              		.loc 1 349 5 discriminator 20 view .LVU935
 4166 08e2 2846     		mov	r0, r5
 4167 08e4 FFF7FEFF 		bl	lv_style_set_pad_all
 4168              	.LVL452:
 350:Lib/lvgl/src/themes/default/lv_theme_default.c ****     lv_style_set_pad_column(&theme->styles.pad_tiny, PAD_TINY);
 4169              		.loc 1 350 5 is_stmt 1 discriminator 20 view .LVU936
 350:Lib/lvgl/src/themes/default/lv_theme_default.c ****     lv_style_set_pad_column(&theme->styles.pad_tiny, PAD_TINY);
 4170              		.loc 1 350 51 is_stmt 0 discriminator 20 view .LVU937
 4171 08e8 E16A     		ldr	r1, [r4, #44]
 4172 08ea 94F82830 		ldrb	r3, [r4, #40]	@ zero_extendqisi2
ARM GAS  C:\Users\Alex\AppData\Local\Temp\ccR26jun.s 			page 129


 4173 08ee 012B     		cmp	r3, #1
 4174 08f0 00F06987 		beq	.L305
 350:Lib/lvgl/src/themes/default/lv_theme_default.c ****     lv_style_set_pad_column(&theme->styles.pad_tiny, PAD_TINY);
 4175              		.loc 1 350 51 discriminator 1 view .LVU938
 4176 08f4 022B     		cmp	r3, #2
 4177 08f6 00F06387 		beq	.L419
 350:Lib/lvgl/src/themes/default/lv_theme_default.c ****     lv_style_set_pad_column(&theme->styles.pad_tiny, PAD_TINY);
 4178              		.loc 1 350 51 view .LVU939
 4179 08fa 0223     		movs	r3, #2
 4180              	.L166:
 350:Lib/lvgl/src/themes/default/lv_theme_default.c ****     lv_style_set_pad_column(&theme->styles.pad_tiny, PAD_TINY);
 4181              		.loc 1 350 51 discriminator 8 view .LVU940
 4182 08fc 03FB01F1 		mul	r1, r3, r1
 350:Lib/lvgl/src/themes/default/lv_theme_default.c ****     lv_style_set_pad_column(&theme->styles.pad_tiny, PAD_TINY);
 4183              		.loc 1 350 5 discriminator 8 view .LVU941
 4184 0900 EF29     		cmp	r1, #239
 4185 0902 40F36387 		ble	.L307
 350:Lib/lvgl/src/themes/default/lv_theme_default.c ****     lv_style_set_pad_column(&theme->styles.pad_tiny, PAD_TINY);
 4186              		.loc 1 350 51 discriminator 18 view .LVU942
 4187 0906 5031     		adds	r1, r1, #80
 350:Lib/lvgl/src/themes/default/lv_theme_default.c ****     lv_style_set_pad_column(&theme->styles.pad_tiny, PAD_TINY);
 4188              		.loc 1 350 5 discriminator 18 view .LVU943
 4189 0908 0F4B     		ldr	r3, .L456
 4190 090a 83FB0123 		smull	r2, r3, r3, r1
 4191 090e C917     		asrs	r1, r1, #31
 4192 0910 C1EBA311 		rsb	r1, r1, r3, asr #6
 4193              	.L167:
 350:Lib/lvgl/src/themes/default/lv_theme_default.c ****     lv_style_set_pad_column(&theme->styles.pad_tiny, PAD_TINY);
 4194              		.loc 1 350 5 discriminator 20 view .LVU944
 4195 0914 2846     		mov	r0, r5
 4196 0916 FFF7FEFF 		bl	lv_style_set_pad_row
 4197              	.LVL453:
 351:Lib/lvgl/src/themes/default/lv_theme_default.c **** 
 4198              		.loc 1 351 5 is_stmt 1 discriminator 20 view .LVU945
 351:Lib/lvgl/src/themes/default/lv_theme_default.c **** 
 4199              		.loc 1 351 54 is_stmt 0 discriminator 20 view .LVU946
 4200 091a E16A     		ldr	r1, [r4, #44]
 4201 091c 94F82830 		ldrb	r3, [r4, #40]	@ zero_extendqisi2
 4202 0920 012B     		cmp	r3, #1
 4203 0922 00F05987 		beq	.L308
 351:Lib/lvgl/src/themes/default/lv_theme_default.c **** 
 4204              		.loc 1 351 54 discriminator 1 view .LVU947
 4205 0926 022B     		cmp	r3, #2
 4206 0928 00F05387 		beq	.L420
 351:Lib/lvgl/src/themes/default/lv_theme_default.c **** 
 4207              		.loc 1 351 54 view .LVU948
 4208 092c 0223     		movs	r3, #2
 4209              	.L168:
 351:Lib/lvgl/src/themes/default/lv_theme_default.c **** 
 4210              		.loc 1 351 54 discriminator 8 view .LVU949
 4211 092e 03FB01F1 		mul	r1, r3, r1
 351:Lib/lvgl/src/themes/default/lv_theme_default.c **** 
 4212              		.loc 1 351 5 discriminator 8 view .LVU950
 4213 0932 EF29     		cmp	r1, #239
 4214 0934 40F35387 		ble	.L310
 351:Lib/lvgl/src/themes/default/lv_theme_default.c **** 
 4215              		.loc 1 351 54 discriminator 18 view .LVU951
ARM GAS  C:\Users\Alex\AppData\Local\Temp\ccR26jun.s 			page 130


 4216 0938 5031     		adds	r1, r1, #80
 351:Lib/lvgl/src/themes/default/lv_theme_default.c **** 
 4217              		.loc 1 351 5 discriminator 18 view .LVU952
 4218 093a 034B     		ldr	r3, .L456
 4219 093c 83FB0123 		smull	r2, r3, r3, r1
 4220 0940 C917     		asrs	r1, r1, #31
 4221 0942 C1EBA311 		rsb	r1, r1, r3, asr #6
 4222 0946 05E0     		b	.L457
 4223              	.L458:
 4224              		.align	2
 4225              	.L456:
 4226 0948 67666666 		.word	1717986919
 4227 094c 00000000 		.word	dark_color_filter_cb
 4228 0950 00000000 		.word	grey_filter_cb
 4229              	.L457:
 4230              	.L169:
 351:Lib/lvgl/src/themes/default/lv_theme_default.c **** 
 4231              		.loc 1 351 5 discriminator 20 view .LVU953
 4232 0954 2846     		mov	r0, r5
 4233 0956 FFF7FEFF 		bl	lv_style_set_pad_column
 4234              	.LVL454:
 353:Lib/lvgl/src/themes/default/lv_theme_default.c ****     lv_style_set_bg_color(&theme->styles.bg_color_primary, theme->base.color_primary);
 4235              		.loc 1 353 5 is_stmt 1 discriminator 20 view .LVU954
 4236 095a 04F17C06 		add	r6, r4, #124
 4237 095e 3046     		mov	r0, r6
 4238 0960 FFF7FEFF 		bl	style_init_reset
 4239              	.LVL455:
 354:Lib/lvgl/src/themes/default/lv_theme_default.c ****     lv_style_set_text_color(&theme->styles.bg_color_primary, lv_color_white());
 4240              		.loc 1 354 5 discriminator 20 view .LVU955
 4241 0964 2169     		ldr	r1, [r4, #16]
 4242 0966 3046     		mov	r0, r6
 4243 0968 FFF7FEFF 		bl	lv_style_set_bg_color
 4244              	.LVL456:
 355:Lib/lvgl/src/themes/default/lv_theme_default.c ****     lv_style_set_bg_opa(&theme->styles.bg_color_primary, LV_OPA_COVER);
 4245              		.loc 1 355 5 discriminator 20 view .LVU956
 4246              	.LBB71:
 4247              	.LBI71:
 413:c:\users\alex\eclipse-workspace\lvgs_test\lib\lvgl\src\misc\lv_color.h **** {
 4248              		.loc 2 413 26 discriminator 20 view .LVU957
 4249              		.loc 2 415 5 discriminator 20 view .LVU958
 4250              	.LBB72:
 4251              	.LBI72:
 286:c:\users\alex\eclipse-workspace\lvgs_test\lib\lvgl\src\misc\lv_color.h **** {
 4252              		.loc 2 286 26 discriminator 20 view .LVU959
 4253              	.LBB73:
 288:c:\users\alex\eclipse-workspace\lvgs_test\lib\lvgl\src\misc\lv_color.h ****     ret.red = r;
 4254              		.loc 2 288 5 discriminator 20 view .LVU960
 289:c:\users\alex\eclipse-workspace\lvgs_test\lib\lvgl\src\misc\lv_color.h ****     ret.green = g;
 4255              		.loc 2 289 5 discriminator 20 view .LVU961
 289:c:\users\alex\eclipse-workspace\lvgs_test\lib\lvgl\src\misc\lv_color.h ****     ret.green = g;
 4256              		.loc 2 289 13 is_stmt 0 discriminator 20 view .LVU962
 4257 096c FF25     		movs	r5, #255
 4258 096e 8DF80E50 		strb	r5, [sp, #14]
 290:c:\users\alex\eclipse-workspace\lvgs_test\lib\lvgl\src\misc\lv_color.h ****     ret.blue = b;
 4259              		.loc 2 290 5 is_stmt 1 discriminator 20 view .LVU963
 290:c:\users\alex\eclipse-workspace\lvgs_test\lib\lvgl\src\misc\lv_color.h ****     ret.blue = b;
 4260              		.loc 2 290 15 is_stmt 0 discriminator 20 view .LVU964
ARM GAS  C:\Users\Alex\AppData\Local\Temp\ccR26jun.s 			page 131


 4261 0972 8DF80D50 		strb	r5, [sp, #13]
 291:c:\users\alex\eclipse-workspace\lvgs_test\lib\lvgl\src\misc\lv_color.h ****     return ret;
 4262              		.loc 2 291 5 is_stmt 1 discriminator 20 view .LVU965
 291:c:\users\alex\eclipse-workspace\lvgs_test\lib\lvgl\src\misc\lv_color.h ****     return ret;
 4263              		.loc 2 291 14 is_stmt 0 discriminator 20 view .LVU966
 4264 0976 8DF80C50 		strb	r5, [sp, #12]
 292:c:\users\alex\eclipse-workspace\lvgs_test\lib\lvgl\src\misc\lv_color.h **** }
 4265              		.loc 2 292 5 is_stmt 1 discriminator 20 view .LVU967
 292:c:\users\alex\eclipse-workspace\lvgs_test\lib\lvgl\src\misc\lv_color.h **** }
 4266              		.loc 2 292 12 is_stmt 0 discriminator 20 view .LVU968
 4267 097a 039B     		ldr	r3, [sp, #12]
 4268 097c ADF87030 		strh	r3, [sp, #112]	@ movhi
 4269 0980 1B0C     		lsrs	r3, r3, #16
 4270 0982 8DF87230 		strb	r3, [sp, #114]
 4271 0986 1C9B     		ldr	r3, [sp, #112]
 4272 0988 ADF87430 		strh	r3, [sp, #116]	@ movhi
 4273 098c 1B0C     		lsrs	r3, r3, #16
 4274 098e 8DF87630 		strb	r3, [sp, #118]
 4275              	.LVL457:
 292:c:\users\alex\eclipse-workspace\lvgs_test\lib\lvgl\src\misc\lv_color.h **** }
 4276              		.loc 2 292 12 discriminator 20 view .LVU969
 4277 0992 1D9B     		ldr	r3, [sp, #116]
 4278 0994 ADF81C30 		strh	r3, [sp, #28]	@ movhi
 4279 0998 1B0C     		lsrs	r3, r3, #16
 4280 099a 8DF81E30 		strb	r3, [sp, #30]
 4281              	.LBE73:
 4282              	.LBE72:
 4283              	.LBE71:
 355:Lib/lvgl/src/themes/default/lv_theme_default.c ****     lv_style_set_bg_opa(&theme->styles.bg_color_primary, LV_OPA_COVER);
 4284              		.loc 1 355 5 discriminator 20 view .LVU970
 4285 099e 0799     		ldr	r1, [sp, #28]
 4286 09a0 3046     		mov	r0, r6
 4287 09a2 FFF7FEFF 		bl	lv_style_set_text_color
 4288              	.LVL458:
 356:Lib/lvgl/src/themes/default/lv_theme_default.c **** 
 4289              		.loc 1 356 5 is_stmt 1 discriminator 20 view .LVU971
 4290 09a6 2946     		mov	r1, r5
 4291 09a8 3046     		mov	r0, r6
 4292 09aa FFF7FEFF 		bl	lv_style_set_bg_opa
 4293              	.LVL459:
 358:Lib/lvgl/src/themes/default/lv_theme_default.c ****     lv_style_set_bg_color(&theme->styles.bg_color_primary_muted, theme->base.color_primary);
 4294              		.loc 1 358 5 discriminator 20 view .LVU972
 4295 09ae 04F18806 		add	r6, r4, #136
 4296 09b2 3046     		mov	r0, r6
 4297 09b4 FFF7FEFF 		bl	style_init_reset
 4298              	.LVL460:
 359:Lib/lvgl/src/themes/default/lv_theme_default.c ****     lv_style_set_text_color(&theme->styles.bg_color_primary_muted, theme->base.color_primary);
 4299              		.loc 1 359 5 discriminator 20 view .LVU973
 4300 09b8 2169     		ldr	r1, [r4, #16]
 4301 09ba 3046     		mov	r0, r6
 4302 09bc FFF7FEFF 		bl	lv_style_set_bg_color
 4303              	.LVL461:
 360:Lib/lvgl/src/themes/default/lv_theme_default.c ****     lv_style_set_bg_opa(&theme->styles.bg_color_primary_muted, LV_OPA_20);
 4304              		.loc 1 360 5 discriminator 20 view .LVU974
 4305 09c0 2169     		ldr	r1, [r4, #16]
 4306 09c2 3046     		mov	r0, r6
 4307 09c4 FFF7FEFF 		bl	lv_style_set_text_color
ARM GAS  C:\Users\Alex\AppData\Local\Temp\ccR26jun.s 			page 132


 4308              	.LVL462:
 361:Lib/lvgl/src/themes/default/lv_theme_default.c **** 
 4309              		.loc 1 361 5 discriminator 20 view .LVU975
 4310 09c8 3321     		movs	r1, #51
 4311 09ca 3046     		mov	r0, r6
 4312 09cc FFF7FEFF 		bl	lv_style_set_bg_opa
 4313              	.LVL463:
 363:Lib/lvgl/src/themes/default/lv_theme_default.c ****     lv_style_set_bg_color(&theme->styles.bg_color_secondary, theme->base.color_secondary);
 4314              		.loc 1 363 5 discriminator 20 view .LVU976
 4315 09d0 04F19406 		add	r6, r4, #148
 4316 09d4 3046     		mov	r0, r6
 4317 09d6 FFF7FEFF 		bl	style_init_reset
 4318              	.LVL464:
 364:Lib/lvgl/src/themes/default/lv_theme_default.c ****     lv_style_set_text_color(&theme->styles.bg_color_secondary, lv_color_white());
 4319              		.loc 1 364 5 discriminator 20 view .LVU977
 4320 09da E37C     		ldrb	r3, [r4, #19]	@ zero_extendqisi2
 4321 09dc 227D     		ldrb	r2, [r4, #20]	@ zero_extendqisi2
 4322 09de 43EA0223 		orr	r3, r3, r2, lsl #8
 4323 09e2 617D     		ldrb	r1, [r4, #21]	@ zero_extendqisi2
 4324 09e4 43EA0141 		orr	r1, r3, r1, lsl #16
 4325 09e8 3046     		mov	r0, r6
 4326 09ea FFF7FEFF 		bl	lv_style_set_bg_color
 4327              	.LVL465:
 365:Lib/lvgl/src/themes/default/lv_theme_default.c ****     lv_style_set_bg_opa(&theme->styles.bg_color_secondary, LV_OPA_COVER);
 4328              		.loc 1 365 5 discriminator 20 view .LVU978
 4329              	.LBB74:
 4330              	.LBI74:
 413:c:\users\alex\eclipse-workspace\lvgs_test\lib\lvgl\src\misc\lv_color.h **** {
 4331              		.loc 2 413 26 discriminator 20 view .LVU979
 4332              		.loc 2 415 5 discriminator 20 view .LVU980
 4333              	.LBB75:
 4334              	.LBI75:
 286:c:\users\alex\eclipse-workspace\lvgs_test\lib\lvgl\src\misc\lv_color.h **** {
 4335              		.loc 2 286 26 discriminator 20 view .LVU981
 4336              	.LBB76:
 288:c:\users\alex\eclipse-workspace\lvgs_test\lib\lvgl\src\misc\lv_color.h ****     ret.red = r;
 4337              		.loc 2 288 5 discriminator 20 view .LVU982
 289:c:\users\alex\eclipse-workspace\lvgs_test\lib\lvgl\src\misc\lv_color.h ****     ret.green = g;
 4338              		.loc 2 289 5 discriminator 20 view .LVU983
 289:c:\users\alex\eclipse-workspace\lvgs_test\lib\lvgl\src\misc\lv_color.h ****     ret.green = g;
 4339              		.loc 2 289 13 is_stmt 0 discriminator 20 view .LVU984
 4340 09ee 8DF80E50 		strb	r5, [sp, #14]
 290:c:\users\alex\eclipse-workspace\lvgs_test\lib\lvgl\src\misc\lv_color.h ****     ret.blue = b;
 4341              		.loc 2 290 5 is_stmt 1 discriminator 20 view .LVU985
 290:c:\users\alex\eclipse-workspace\lvgs_test\lib\lvgl\src\misc\lv_color.h ****     ret.blue = b;
 4342              		.loc 2 290 15 is_stmt 0 discriminator 20 view .LVU986
 4343 09f2 8DF80D50 		strb	r5, [sp, #13]
 291:c:\users\alex\eclipse-workspace\lvgs_test\lib\lvgl\src\misc\lv_color.h ****     return ret;
 4344              		.loc 2 291 5 is_stmt 1 discriminator 20 view .LVU987
 291:c:\users\alex\eclipse-workspace\lvgs_test\lib\lvgl\src\misc\lv_color.h ****     return ret;
 4345              		.loc 2 291 14 is_stmt 0 discriminator 20 view .LVU988
 4346 09f6 8DF80C50 		strb	r5, [sp, #12]
 292:c:\users\alex\eclipse-workspace\lvgs_test\lib\lvgl\src\misc\lv_color.h **** }
 4347              		.loc 2 292 5 is_stmt 1 discriminator 20 view .LVU989
 292:c:\users\alex\eclipse-workspace\lvgs_test\lib\lvgl\src\misc\lv_color.h **** }
 4348              		.loc 2 292 12 is_stmt 0 discriminator 20 view .LVU990
 4349 09fa 039B     		ldr	r3, [sp, #12]
ARM GAS  C:\Users\Alex\AppData\Local\Temp\ccR26jun.s 			page 133


 4350 09fc ADF86830 		strh	r3, [sp, #104]	@ movhi
 4351 0a00 1B0C     		lsrs	r3, r3, #16
 4352 0a02 8DF86A30 		strb	r3, [sp, #106]
 4353 0a06 1A9B     		ldr	r3, [sp, #104]
 4354 0a08 ADF86C30 		strh	r3, [sp, #108]	@ movhi
 4355 0a0c 1B0C     		lsrs	r3, r3, #16
 4356 0a0e 8DF86E30 		strb	r3, [sp, #110]
 4357              	.LVL466:
 292:c:\users\alex\eclipse-workspace\lvgs_test\lib\lvgl\src\misc\lv_color.h **** }
 4358              		.loc 2 292 12 discriminator 20 view .LVU991
 4359 0a12 1B9B     		ldr	r3, [sp, #108]
 4360 0a14 ADF82030 		strh	r3, [sp, #32]	@ movhi
 4361 0a18 1B0C     		lsrs	r3, r3, #16
 4362 0a1a 8DF82230 		strb	r3, [sp, #34]
 4363              	.LBE76:
 4364              	.LBE75:
 4365              	.LBE74:
 365:Lib/lvgl/src/themes/default/lv_theme_default.c ****     lv_style_set_bg_opa(&theme->styles.bg_color_secondary, LV_OPA_COVER);
 4366              		.loc 1 365 5 discriminator 20 view .LVU992
 4367 0a1e 0899     		ldr	r1, [sp, #32]
 4368 0a20 3046     		mov	r0, r6
 4369 0a22 FFF7FEFF 		bl	lv_style_set_text_color
 4370              	.LVL467:
 366:Lib/lvgl/src/themes/default/lv_theme_default.c **** 
 4371              		.loc 1 366 5 is_stmt 1 discriminator 20 view .LVU993
 4372 0a26 2946     		mov	r1, r5
 4373 0a28 3046     		mov	r0, r6
 4374 0a2a FFF7FEFF 		bl	lv_style_set_bg_opa
 4375              	.LVL468:
 368:Lib/lvgl/src/themes/default/lv_theme_default.c ****     lv_style_set_bg_color(&theme->styles.bg_color_secondary_muted, theme->base.color_secondary);
 4376              		.loc 1 368 5 discriminator 20 view .LVU994
 4377 0a2e 04F1A006 		add	r6, r4, #160
 4378 0a32 3046     		mov	r0, r6
 4379 0a34 FFF7FEFF 		bl	style_init_reset
 4380              	.LVL469:
 369:Lib/lvgl/src/themes/default/lv_theme_default.c ****     lv_style_set_text_color(&theme->styles.bg_color_secondary_muted, theme->base.color_secondary);
 4381              		.loc 1 369 5 discriminator 20 view .LVU995
 4382 0a38 E37C     		ldrb	r3, [r4, #19]	@ zero_extendqisi2
 4383 0a3a 227D     		ldrb	r2, [r4, #20]	@ zero_extendqisi2
 4384 0a3c 43EA0223 		orr	r3, r3, r2, lsl #8
 4385 0a40 617D     		ldrb	r1, [r4, #21]	@ zero_extendqisi2
 4386 0a42 43EA0141 		orr	r1, r3, r1, lsl #16
 4387 0a46 3046     		mov	r0, r6
 4388 0a48 FFF7FEFF 		bl	lv_style_set_bg_color
 4389              	.LVL470:
 370:Lib/lvgl/src/themes/default/lv_theme_default.c ****     lv_style_set_bg_opa(&theme->styles.bg_color_secondary_muted, LV_OPA_20);
 4390              		.loc 1 370 5 discriminator 20 view .LVU996
 4391 0a4c E37C     		ldrb	r3, [r4, #19]	@ zero_extendqisi2
 4392 0a4e 227D     		ldrb	r2, [r4, #20]	@ zero_extendqisi2
 4393 0a50 43EA0223 		orr	r3, r3, r2, lsl #8
 4394 0a54 617D     		ldrb	r1, [r4, #21]	@ zero_extendqisi2
 4395 0a56 43EA0141 		orr	r1, r3, r1, lsl #16
 4396 0a5a 3046     		mov	r0, r6
 4397 0a5c FFF7FEFF 		bl	lv_style_set_text_color
 4398              	.LVL471:
 371:Lib/lvgl/src/themes/default/lv_theme_default.c **** 
 4399              		.loc 1 371 5 discriminator 20 view .LVU997
ARM GAS  C:\Users\Alex\AppData\Local\Temp\ccR26jun.s 			page 134


 4400 0a60 3321     		movs	r1, #51
 4401 0a62 3046     		mov	r0, r6
 4402 0a64 FFF7FEFF 		bl	lv_style_set_bg_opa
 4403              	.LVL472:
 373:Lib/lvgl/src/themes/default/lv_theme_default.c ****     lv_style_set_bg_color(&theme->styles.bg_color_grey, theme->color_grey);
 4404              		.loc 1 373 5 discriminator 20 view .LVU998
 4405 0a68 04F1AC06 		add	r6, r4, #172
 4406 0a6c 3046     		mov	r0, r6
 4407 0a6e FFF7FEFF 		bl	style_init_reset
 4408              	.LVL473:
 374:Lib/lvgl/src/themes/default/lv_theme_default.c ****     lv_style_set_bg_opa(&theme->styles.bg_color_grey, LV_OPA_COVER);
 4409              		.loc 1 374 5 discriminator 20 view .LVU999
 4410 0a72 94F83930 		ldrb	r3, [r4, #57]	@ zero_extendqisi2
 4411 0a76 94F83A20 		ldrb	r2, [r4, #58]	@ zero_extendqisi2
 4412 0a7a 43EA0223 		orr	r3, r3, r2, lsl #8
 4413 0a7e 94F83B10 		ldrb	r1, [r4, #59]	@ zero_extendqisi2
 4414 0a82 43EA0141 		orr	r1, r3, r1, lsl #16
 4415 0a86 3046     		mov	r0, r6
 4416 0a88 FFF7FEFF 		bl	lv_style_set_bg_color
 4417              	.LVL474:
 375:Lib/lvgl/src/themes/default/lv_theme_default.c ****     lv_style_set_text_color(&theme->styles.bg_color_grey, theme->color_text);
 4418              		.loc 1 375 5 discriminator 20 view .LVU1000
 4419 0a8c 2946     		mov	r1, r5
 4420 0a8e 3046     		mov	r0, r6
 4421 0a90 FFF7FEFF 		bl	lv_style_set_bg_opa
 4422              	.LVL475:
 376:Lib/lvgl/src/themes/default/lv_theme_default.c **** 
 4423              		.loc 1 376 5 discriminator 20 view .LVU1001
 4424 0a94 94F83330 		ldrb	r3, [r4, #51]	@ zero_extendqisi2
 4425 0a98 94F83420 		ldrb	r2, [r4, #52]	@ zero_extendqisi2
 4426 0a9c 43EA0223 		orr	r3, r3, r2, lsl #8
 4427 0aa0 94F83510 		ldrb	r1, [r4, #53]	@ zero_extendqisi2
 4428 0aa4 43EA0141 		orr	r1, r3, r1, lsl #16
 4429 0aa8 3046     		mov	r0, r6
 4430 0aaa FFF7FEFF 		bl	lv_style_set_text_color
 4431              	.LVL476:
 378:Lib/lvgl/src/themes/default/lv_theme_default.c ****     lv_style_set_bg_color(&theme->styles.bg_color_white, theme->color_card);
 4432              		.loc 1 378 5 discriminator 20 view .LVU1002
 4433 0aae 04F1B806 		add	r6, r4, #184
 4434 0ab2 3046     		mov	r0, r6
 4435 0ab4 FFF7FEFF 		bl	style_init_reset
 4436              	.LVL477:
 379:Lib/lvgl/src/themes/default/lv_theme_default.c ****     lv_style_set_bg_opa(&theme->styles.bg_color_white, LV_OPA_COVER);
 4437              		.loc 1 379 5 discriminator 20 view .LVU1003
 4438 0ab8 E38E     		ldrh	r3, [r4, #54]
 4439 0aba 94F83810 		ldrb	r1, [r4, #56]	@ zero_extendqisi2
 4440 0abe 43EA0141 		orr	r1, r3, r1, lsl #16
 4441 0ac2 3046     		mov	r0, r6
 4442 0ac4 FFF7FEFF 		bl	lv_style_set_bg_color
 4443              	.LVL478:
 380:Lib/lvgl/src/themes/default/lv_theme_default.c ****     lv_style_set_text_color(&theme->styles.bg_color_white, theme->color_text);
 4444              		.loc 1 380 5 discriminator 20 view .LVU1004
 4445 0ac8 2946     		mov	r1, r5
 4446 0aca 3046     		mov	r0, r6
 4447 0acc FFF7FEFF 		bl	lv_style_set_bg_opa
 4448              	.LVL479:
 381:Lib/lvgl/src/themes/default/lv_theme_default.c **** 
ARM GAS  C:\Users\Alex\AppData\Local\Temp\ccR26jun.s 			page 135


 4449              		.loc 1 381 5 discriminator 20 view .LVU1005
 4450 0ad0 94F83330 		ldrb	r3, [r4, #51]	@ zero_extendqisi2
 4451 0ad4 94F83420 		ldrb	r2, [r4, #52]	@ zero_extendqisi2
 4452 0ad8 43EA0223 		orr	r3, r3, r2, lsl #8
 4453 0adc 94F83510 		ldrb	r1, [r4, #53]	@ zero_extendqisi2
 4454 0ae0 43EA0141 		orr	r1, r3, r1, lsl #16
 4455 0ae4 3046     		mov	r0, r6
 4456 0ae6 FFF7FEFF 		bl	lv_style_set_text_color
 4457              	.LVL480:
 383:Lib/lvgl/src/themes/default/lv_theme_default.c ****     lv_style_set_radius(&theme->styles.circle, LV_RADIUS_CIRCLE);
 4458              		.loc 1 383 5 discriminator 20 view .LVU1006
 4459 0aea 04F5A475 		add	r5, r4, #328
 4460 0aee 2846     		mov	r0, r5
 4461 0af0 FFF7FEFF 		bl	style_init_reset
 4462              	.LVL481:
 384:Lib/lvgl/src/themes/default/lv_theme_default.c **** 
 4463              		.loc 1 384 5 discriminator 20 view .LVU1007
 4464 0af4 47F6FF71 		movw	r1, #32767
 4465 0af8 2846     		mov	r0, r5
 4466 0afa FFF7FEFF 		bl	lv_style_set_radius
 4467              	.LVL482:
 386:Lib/lvgl/src/themes/default/lv_theme_default.c ****     lv_style_set_radius(&theme->styles.no_radius, 0);
 4468              		.loc 1 386 5 discriminator 20 view .LVU1008
 4469 0afe 04F5AA75 		add	r5, r4, #340
 4470 0b02 2846     		mov	r0, r5
 4471 0b04 FFF7FEFF 		bl	style_init_reset
 4472              	.LVL483:
 387:Lib/lvgl/src/themes/default/lv_theme_default.c **** 
 4473              		.loc 1 387 5 discriminator 20 view .LVU1009
 4474 0b08 0021     		movs	r1, #0
 4475 0b0a 2846     		mov	r0, r5
 4476 0b0c FFF7FEFF 		bl	lv_style_set_radius
 4477              	.LVL484:
 390:Lib/lvgl/src/themes/default/lv_theme_default.c ****     lv_style_set_transform_width(&theme->styles.grow, _LV_DPX_CALC(theme->disp_dpi, 3));
 4478              		.loc 1 390 5 discriminator 20 view .LVU1010
 4479 0b10 04F5B675 		add	r5, r4, #364
 4480 0b14 2846     		mov	r0, r5
 4481 0b16 FFF7FEFF 		bl	style_init_reset
 4482              	.LVL485:
 391:Lib/lvgl/src/themes/default/lv_theme_default.c ****     lv_style_set_transform_height(&theme->styles.grow, _LV_DPX_CALC(theme->disp_dpi, 3));
 4483              		.loc 1 391 5 discriminator 20 view .LVU1011
 391:Lib/lvgl/src/themes/default/lv_theme_default.c ****     lv_style_set_transform_height(&theme->styles.grow, _LV_DPX_CALC(theme->disp_dpi, 3));
 4484              		.loc 1 391 55 is_stmt 0 discriminator 20 view .LVU1012
 4485 0b1a E16A     		ldr	r1, [r4, #44]
 4486 0b1c 01EB4101 		add	r1, r1, r1, lsl #1
 391:Lib/lvgl/src/themes/default/lv_theme_default.c ****     lv_style_set_transform_height(&theme->styles.grow, _LV_DPX_CALC(theme->disp_dpi, 3));
 4487              		.loc 1 391 5 discriminator 20 view .LVU1013
 4488 0b20 EF29     		cmp	r1, #239
 4489 0b22 40F35F86 		ble	.L311
 391:Lib/lvgl/src/themes/default/lv_theme_default.c ****     lv_style_set_transform_height(&theme->styles.grow, _LV_DPX_CALC(theme->disp_dpi, 3));
 4490              		.loc 1 391 55 discriminator 1 view .LVU1014
 4491 0b26 5031     		adds	r1, r1, #80
 391:Lib/lvgl/src/themes/default/lv_theme_default.c ****     lv_style_set_transform_height(&theme->styles.grow, _LV_DPX_CALC(theme->disp_dpi, 3));
 4492              		.loc 1 391 5 discriminator 1 view .LVU1015
 4493 0b28 D54B     		ldr	r3, .L459
 4494 0b2a 83FB0123 		smull	r2, r3, r3, r1
 4495 0b2e C917     		asrs	r1, r1, #31
ARM GAS  C:\Users\Alex\AppData\Local\Temp\ccR26jun.s 			page 136


 4496 0b30 C1EBA311 		rsb	r1, r1, r3, asr #6
 4497              	.L170:
 391:Lib/lvgl/src/themes/default/lv_theme_default.c ****     lv_style_set_transform_height(&theme->styles.grow, _LV_DPX_CALC(theme->disp_dpi, 3));
 4498              		.loc 1 391 5 discriminator 4 view .LVU1016
 4499 0b34 2846     		mov	r0, r5
 4500 0b36 FFF7FEFF 		bl	lv_style_set_transform_width
 4501              	.LVL486:
 392:Lib/lvgl/src/themes/default/lv_theme_default.c **** #endif
 4502              		.loc 1 392 5 is_stmt 1 discriminator 4 view .LVU1017
 392:Lib/lvgl/src/themes/default/lv_theme_default.c **** #endif
 4503              		.loc 1 392 56 is_stmt 0 discriminator 4 view .LVU1018
 4504 0b3a E16A     		ldr	r1, [r4, #44]
 4505 0b3c 01EB4101 		add	r1, r1, r1, lsl #1
 392:Lib/lvgl/src/themes/default/lv_theme_default.c **** #endif
 4506              		.loc 1 392 5 discriminator 4 view .LVU1019
 4507 0b40 EF29     		cmp	r1, #239
 4508 0b42 40F35286 		ble	.L312
 392:Lib/lvgl/src/themes/default/lv_theme_default.c **** #endif
 4509              		.loc 1 392 56 discriminator 1 view .LVU1020
 4510 0b46 5031     		adds	r1, r1, #80
 392:Lib/lvgl/src/themes/default/lv_theme_default.c **** #endif
 4511              		.loc 1 392 5 discriminator 1 view .LVU1021
 4512 0b48 CD4B     		ldr	r3, .L459
 4513 0b4a 83FB0123 		smull	r2, r3, r3, r1
 4514 0b4e C917     		asrs	r1, r1, #31
 4515 0b50 C1EBA311 		rsb	r1, r1, r3, asr #6
 4516              	.L171:
 392:Lib/lvgl/src/themes/default/lv_theme_default.c **** #endif
 4517              		.loc 1 392 5 discriminator 4 view .LVU1022
 4518 0b54 2846     		mov	r0, r5
 4519 0b56 FFF7FEFF 		bl	lv_style_set_transform_height
 4520              	.LVL487:
 395:Lib/lvgl/src/themes/default/lv_theme_default.c ****     lv_style_set_bg_color(&theme->styles.knob, theme->base.color_primary);
 4521              		.loc 1 395 5 is_stmt 1 discriminator 4 view .LVU1023
 4522 0b5a 04F5D475 		add	r5, r4, #424
 4523 0b5e 2846     		mov	r0, r5
 4524 0b60 FFF7FEFF 		bl	style_init_reset
 4525              	.LVL488:
 396:Lib/lvgl/src/themes/default/lv_theme_default.c ****     lv_style_set_bg_opa(&theme->styles.knob, LV_OPA_COVER);
 4526              		.loc 1 396 5 discriminator 4 view .LVU1024
 4527 0b64 2169     		ldr	r1, [r4, #16]
 4528 0b66 2846     		mov	r0, r5
 4529 0b68 FFF7FEFF 		bl	lv_style_set_bg_color
 4530              	.LVL489:
 397:Lib/lvgl/src/themes/default/lv_theme_default.c ****     lv_style_set_pad_all(&theme->styles.knob, _LV_DPX_CALC(theme->disp_dpi, 6));
 4531              		.loc 1 397 5 discriminator 4 view .LVU1025
 4532 0b6c FF21     		movs	r1, #255
 4533 0b6e 2846     		mov	r0, r5
 4534 0b70 FFF7FEFF 		bl	lv_style_set_bg_opa
 4535              	.LVL490:
 398:Lib/lvgl/src/themes/default/lv_theme_default.c ****     lv_style_set_radius(&theme->styles.knob, LV_RADIUS_CIRCLE);
 4536              		.loc 1 398 5 discriminator 4 view .LVU1026
 398:Lib/lvgl/src/themes/default/lv_theme_default.c ****     lv_style_set_radius(&theme->styles.knob, LV_RADIUS_CIRCLE);
 4537              		.loc 1 398 47 is_stmt 0 discriminator 4 view .LVU1027
 4538 0b74 E36A     		ldr	r3, [r4, #44]
 4539 0b76 03EB4303 		add	r3, r3, r3, lsl #1
 4540 0b7a 5B00     		lsls	r3, r3, #1
ARM GAS  C:\Users\Alex\AppData\Local\Temp\ccR26jun.s 			page 137


 398:Lib/lvgl/src/themes/default/lv_theme_default.c ****     lv_style_set_radius(&theme->styles.knob, LV_RADIUS_CIRCLE);
 4541              		.loc 1 398 5 discriminator 4 view .LVU1028
 4542 0b7c EF2B     		cmp	r3, #239
 4543 0b7e 40F33786 		ble	.L313
 398:Lib/lvgl/src/themes/default/lv_theme_default.c ****     lv_style_set_radius(&theme->styles.knob, LV_RADIUS_CIRCLE);
 4544              		.loc 1 398 47 discriminator 1 view .LVU1029
 4545 0b82 5033     		adds	r3, r3, #80
 398:Lib/lvgl/src/themes/default/lv_theme_default.c ****     lv_style_set_radius(&theme->styles.knob, LV_RADIUS_CIRCLE);
 4546              		.loc 1 398 5 discriminator 1 view .LVU1030
 4547 0b84 BE4A     		ldr	r2, .L459
 4548 0b86 82FB0312 		smull	r1, r2, r2, r3
 4549 0b8a DB17     		asrs	r3, r3, #31
 4550 0b8c C3EBA211 		rsb	r1, r3, r2, asr #6
 4551              	.L172:
 398:Lib/lvgl/src/themes/default/lv_theme_default.c ****     lv_style_set_radius(&theme->styles.knob, LV_RADIUS_CIRCLE);
 4552              		.loc 1 398 5 discriminator 4 view .LVU1031
 4553 0b90 2846     		mov	r0, r5
 4554 0b92 FFF7FEFF 		bl	lv_style_set_pad_all
 4555              	.LVL491:
 399:Lib/lvgl/src/themes/default/lv_theme_default.c **** 
 4556              		.loc 1 399 5 is_stmt 1 discriminator 4 view .LVU1032
 4557 0b96 47F6FF71 		movw	r1, #32767
 4558 0b9a 2846     		mov	r0, r5
 4559 0b9c FFF7FEFF 		bl	lv_style_set_radius
 4560              	.LVL492:
 401:Lib/lvgl/src/themes/default/lv_theme_default.c ****     lv_style_set_anim_duration(&theme->styles.anim, 200);
 4561              		.loc 1 401 5 discriminator 4 view .LVU1033
 4562 0ba0 04F5C875 		add	r5, r4, #400
 4563 0ba4 2846     		mov	r0, r5
 4564 0ba6 FFF7FEFF 		bl	style_init_reset
 4565              	.LVL493:
 402:Lib/lvgl/src/themes/default/lv_theme_default.c **** 
 4566              		.loc 1 402 5 discriminator 4 view .LVU1034
 4567 0baa C821     		movs	r1, #200
 4568 0bac 2846     		mov	r0, r5
 4569 0bae FFF7FEFF 		bl	lv_style_set_anim_duration
 4570              	.LVL494:
 404:Lib/lvgl/src/themes/default/lv_theme_default.c ****     lv_style_set_anim_duration(&theme->styles.anim_fast, 120);
 4571              		.loc 1 404 5 discriminator 4 view .LVU1035
 4572 0bb2 04F5CE75 		add	r5, r4, #412
 4573 0bb6 2846     		mov	r0, r5
 4574 0bb8 FFF7FEFF 		bl	style_init_reset
 4575              	.LVL495:
 405:Lib/lvgl/src/themes/default/lv_theme_default.c **** 
 4576              		.loc 1 405 5 discriminator 4 view .LVU1036
 4577 0bbc 7821     		movs	r1, #120
 4578 0bbe 2846     		mov	r0, r5
 4579 0bc0 FFF7FEFF 		bl	lv_style_set_anim_duration
 4580              	.LVL496:
 408:Lib/lvgl/src/themes/default/lv_theme_default.c ****     lv_style_set_arc_color(&theme->styles.arc_indic, theme->color_grey);
 4581              		.loc 1 408 5 discriminator 4 view .LVU1037
 4582 0bc4 04F5DA75 		add	r5, r4, #436
 4583 0bc8 2846     		mov	r0, r5
 4584 0bca FFF7FEFF 		bl	style_init_reset
 4585              	.LVL497:
 409:Lib/lvgl/src/themes/default/lv_theme_default.c ****     lv_style_set_arc_width(&theme->styles.arc_indic, _LV_DPX_CALC(theme->disp_dpi, 15));
 4586              		.loc 1 409 5 discriminator 4 view .LVU1038
ARM GAS  C:\Users\Alex\AppData\Local\Temp\ccR26jun.s 			page 138


 4587 0bce 94F83930 		ldrb	r3, [r4, #57]	@ zero_extendqisi2
 4588 0bd2 94F83A20 		ldrb	r2, [r4, #58]	@ zero_extendqisi2
 4589 0bd6 43EA0223 		orr	r3, r3, r2, lsl #8
 4590 0bda 94F83B10 		ldrb	r1, [r4, #59]	@ zero_extendqisi2
 4591 0bde 43EA0141 		orr	r1, r3, r1, lsl #16
 4592 0be2 2846     		mov	r0, r5
 4593 0be4 FFF7FEFF 		bl	lv_style_set_arc_color
 4594              	.LVL498:
 410:Lib/lvgl/src/themes/default/lv_theme_default.c ****     lv_style_set_arc_rounded(&theme->styles.arc_indic, true);
 4595              		.loc 1 410 5 discriminator 4 view .LVU1039
 410:Lib/lvgl/src/themes/default/lv_theme_default.c ****     lv_style_set_arc_rounded(&theme->styles.arc_indic, true);
 4596              		.loc 1 410 54 is_stmt 0 discriminator 4 view .LVU1040
 4597 0be8 E16A     		ldr	r1, [r4, #44]
 4598 0bea C1EB0111 		rsb	r1, r1, r1, lsl #4
 410:Lib/lvgl/src/themes/default/lv_theme_default.c ****     lv_style_set_arc_rounded(&theme->styles.arc_indic, true);
 4599              		.loc 1 410 5 discriminator 4 view .LVU1041
 4600 0bee EF29     		cmp	r1, #239
 4601 0bf0 40F30186 		ble	.L314
 410:Lib/lvgl/src/themes/default/lv_theme_default.c ****     lv_style_set_arc_rounded(&theme->styles.arc_indic, true);
 4602              		.loc 1 410 54 discriminator 1 view .LVU1042
 4603 0bf4 5031     		adds	r1, r1, #80
 410:Lib/lvgl/src/themes/default/lv_theme_default.c ****     lv_style_set_arc_rounded(&theme->styles.arc_indic, true);
 4604              		.loc 1 410 5 discriminator 1 view .LVU1043
 4605 0bf6 A24B     		ldr	r3, .L459
 4606 0bf8 83FB0123 		smull	r2, r3, r3, r1
 4607 0bfc C917     		asrs	r1, r1, #31
 4608 0bfe C1EBA311 		rsb	r1, r1, r3, asr #6
 4609              	.L173:
 410:Lib/lvgl/src/themes/default/lv_theme_default.c ****     lv_style_set_arc_rounded(&theme->styles.arc_indic, true);
 4610              		.loc 1 410 5 discriminator 4 view .LVU1044
 4611 0c02 2846     		mov	r0, r5
 4612 0c04 FFF7FEFF 		bl	lv_style_set_arc_width
 4613              	.LVL499:
 411:Lib/lvgl/src/themes/default/lv_theme_default.c **** 
 4614              		.loc 1 411 5 is_stmt 1 discriminator 4 view .LVU1045
 4615 0c08 0121     		movs	r1, #1
 4616 0c0a 2846     		mov	r0, r5
 4617 0c0c FFF7FEFF 		bl	lv_style_set_arc_rounded
 4618              	.LVL500:
 413:Lib/lvgl/src/themes/default/lv_theme_default.c ****     lv_style_set_arc_color(&theme->styles.arc_indic_primary, theme->base.color_primary);
 4619              		.loc 1 413 5 discriminator 4 view .LVU1046
 4620 0c10 04F5E075 		add	r5, r4, #448
 4621 0c14 2846     		mov	r0, r5
 4622 0c16 FFF7FEFF 		bl	style_init_reset
 4623              	.LVL501:
 414:Lib/lvgl/src/themes/default/lv_theme_default.c **** #endif
 4624              		.loc 1 414 5 discriminator 4 view .LVU1047
 4625 0c1a 2169     		ldr	r1, [r4, #16]
 4626 0c1c 2846     		mov	r0, r5
 4627 0c1e FFF7FEFF 		bl	lv_style_set_arc_color
 4628              	.LVL502:
 418:Lib/lvgl/src/themes/default/lv_theme_default.c ****     lv_style_set_max_height(&theme->styles.dropdown_list, LV_DPI_DEF * 2);
 4629              		.loc 1 418 5 discriminator 4 view .LVU1048
 4630 0c22 04F5F875 		add	r5, r4, #496
 4631 0c26 2846     		mov	r0, r5
 4632 0c28 FFF7FEFF 		bl	style_init_reset
 4633              	.LVL503:
ARM GAS  C:\Users\Alex\AppData\Local\Temp\ccR26jun.s 			page 139


 419:Lib/lvgl/src/themes/default/lv_theme_default.c **** #endif
 4634              		.loc 1 419 5 discriminator 4 view .LVU1049
 4635 0c2c 4FF48271 		mov	r1, #260
 4636 0c30 2846     		mov	r0, r5
 4637 0c32 FFF7FEFF 		bl	lv_style_set_max_height
 4638              	.LVL504:
 422:Lib/lvgl/src/themes/default/lv_theme_default.c ****     lv_style_set_pad_all(&theme->styles.cb_marker, _LV_DPX_CALC(theme->disp_dpi, 3));
 4639              		.loc 1 422 5 discriminator 4 view .LVU1050
 4640 0c36 04F5FE75 		add	r5, r4, #508
 4641 0c3a 2846     		mov	r0, r5
 4642 0c3c FFF7FEFF 		bl	style_init_reset
 4643              	.LVL505:
 423:Lib/lvgl/src/themes/default/lv_theme_default.c ****     lv_style_set_border_width(&theme->styles.cb_marker, BORDER_WIDTH);
 4644              		.loc 1 423 5 discriminator 4 view .LVU1051
 423:Lib/lvgl/src/themes/default/lv_theme_default.c ****     lv_style_set_border_width(&theme->styles.cb_marker, BORDER_WIDTH);
 4645              		.loc 1 423 52 is_stmt 0 discriminator 4 view .LVU1052
 4646 0c40 E16A     		ldr	r1, [r4, #44]
 4647 0c42 01EB4101 		add	r1, r1, r1, lsl #1
 423:Lib/lvgl/src/themes/default/lv_theme_default.c ****     lv_style_set_border_width(&theme->styles.cb_marker, BORDER_WIDTH);
 4648              		.loc 1 423 5 discriminator 4 view .LVU1053
 4649 0c46 EF29     		cmp	r1, #239
 4650 0c48 40F3D885 		ble	.L315
 423:Lib/lvgl/src/themes/default/lv_theme_default.c ****     lv_style_set_border_width(&theme->styles.cb_marker, BORDER_WIDTH);
 4651              		.loc 1 423 52 discriminator 1 view .LVU1054
 4652 0c4c 5031     		adds	r1, r1, #80
 423:Lib/lvgl/src/themes/default/lv_theme_default.c ****     lv_style_set_border_width(&theme->styles.cb_marker, BORDER_WIDTH);
 4653              		.loc 1 423 5 discriminator 1 view .LVU1055
 4654 0c4e 8C4B     		ldr	r3, .L459
 4655 0c50 83FB0123 		smull	r2, r3, r3, r1
 4656 0c54 C917     		asrs	r1, r1, #31
 4657 0c56 C1EBA311 		rsb	r1, r1, r3, asr #6
 4658              	.L174:
 423:Lib/lvgl/src/themes/default/lv_theme_default.c ****     lv_style_set_border_width(&theme->styles.cb_marker, BORDER_WIDTH);
 4659              		.loc 1 423 5 discriminator 4 view .LVU1056
 4660 0c5a 2846     		mov	r0, r5
 4661 0c5c FFF7FEFF 		bl	lv_style_set_pad_all
 4662              	.LVL506:
 424:Lib/lvgl/src/themes/default/lv_theme_default.c ****     lv_style_set_border_color(&theme->styles.cb_marker, theme->base.color_primary);
 4663              		.loc 1 424 5 is_stmt 1 discriminator 4 view .LVU1057
 424:Lib/lvgl/src/themes/default/lv_theme_default.c ****     lv_style_set_border_color(&theme->styles.cb_marker, theme->base.color_primary);
 4664              		.loc 1 424 57 is_stmt 0 discriminator 4 view .LVU1058
 4665 0c60 E16A     		ldr	r1, [r4, #44]
 424:Lib/lvgl/src/themes/default/lv_theme_default.c ****     lv_style_set_border_color(&theme->styles.cb_marker, theme->base.color_primary);
 4666              		.loc 1 424 5 discriminator 4 view .LVU1059
 4667 0c62 7729     		cmp	r1, #119
 4668 0c64 40F3CD85 		ble	.L316
 424:Lib/lvgl/src/themes/default/lv_theme_default.c ****     lv_style_set_border_color(&theme->styles.cb_marker, theme->base.color_primary);
 4669              		.loc 1 424 57 discriminator 1 view .LVU1060
 4670 0c68 2831     		adds	r1, r1, #40
 424:Lib/lvgl/src/themes/default/lv_theme_default.c ****     lv_style_set_border_color(&theme->styles.cb_marker, theme->base.color_primary);
 4671              		.loc 1 424 5 discriminator 1 view .LVU1061
 4672 0c6a 854B     		ldr	r3, .L459
 4673 0c6c 83FB0123 		smull	r2, r3, r3, r1
 4674 0c70 C917     		asrs	r1, r1, #31
 4675 0c72 C1EB6311 		rsb	r1, r1, r3, asr #5
 4676              	.L175:
 424:Lib/lvgl/src/themes/default/lv_theme_default.c ****     lv_style_set_border_color(&theme->styles.cb_marker, theme->base.color_primary);
ARM GAS  C:\Users\Alex\AppData\Local\Temp\ccR26jun.s 			page 140


 4677              		.loc 1 424 5 discriminator 4 view .LVU1062
 4678 0c76 2846     		mov	r0, r5
 4679 0c78 FFF7FEFF 		bl	lv_style_set_border_width
 4680              	.LVL507:
 425:Lib/lvgl/src/themes/default/lv_theme_default.c ****     lv_style_set_bg_color(&theme->styles.cb_marker, theme->color_card);
 4681              		.loc 1 425 5 is_stmt 1 discriminator 4 view .LVU1063
 4682 0c7c 2169     		ldr	r1, [r4, #16]
 4683 0c7e 2846     		mov	r0, r5
 4684 0c80 FFF7FEFF 		bl	lv_style_set_border_color
 4685              	.LVL508:
 426:Lib/lvgl/src/themes/default/lv_theme_default.c ****     lv_style_set_bg_opa(&theme->styles.cb_marker, LV_OPA_COVER);
 4686              		.loc 1 426 5 discriminator 4 view .LVU1064
 4687 0c84 E38E     		ldrh	r3, [r4, #54]
 4688 0c86 94F83810 		ldrb	r1, [r4, #56]	@ zero_extendqisi2
 4689 0c8a 43EA0141 		orr	r1, r3, r1, lsl #16
 4690 0c8e 2846     		mov	r0, r5
 4691 0c90 FFF7FEFF 		bl	lv_style_set_bg_color
 4692              	.LVL509:
 427:Lib/lvgl/src/themes/default/lv_theme_default.c ****     lv_style_set_radius(&theme->styles.cb_marker, RADIUS_DEFAULT / 2);
 4693              		.loc 1 427 5 discriminator 4 view .LVU1065
 4694 0c94 FF21     		movs	r1, #255
 4695 0c96 2846     		mov	r0, r5
 4696 0c98 FFF7FEFF 		bl	lv_style_set_bg_opa
 4697              	.LVL510:
 428:Lib/lvgl/src/themes/default/lv_theme_default.c **** 
 4698              		.loc 1 428 5 discriminator 4 view .LVU1066
 428:Lib/lvgl/src/themes/default/lv_theme_default.c **** 
 4699              		.loc 1 428 51 is_stmt 0 discriminator 4 view .LVU1067
 4700 0c9c E16A     		ldr	r1, [r4, #44]
 4701 0c9e 94F82830 		ldrb	r3, [r4, #40]	@ zero_extendqisi2
 4702 0ca2 012B     		cmp	r3, #1
 4703 0ca4 00F0B085 		beq	.L421
 428:Lib/lvgl/src/themes/default/lv_theme_default.c **** 
 4704              		.loc 1 428 51 view .LVU1068
 4705 0ca8 0823     		movs	r3, #8
 4706              	.L176:
 428:Lib/lvgl/src/themes/default/lv_theme_default.c **** 
 4707              		.loc 1 428 51 discriminator 4 view .LVU1069
 4708 0caa 03FB01F1 		mul	r1, r3, r1
 428:Lib/lvgl/src/themes/default/lv_theme_default.c **** 
 4709              		.loc 1 428 5 discriminator 4 view .LVU1070
 4710 0cae EF29     		cmp	r1, #239
 4711 0cb0 40F3AD85 		ble	.L318
 428:Lib/lvgl/src/themes/default/lv_theme_default.c **** 
 4712              		.loc 1 428 51 discriminator 10 view .LVU1071
 4713 0cb4 5031     		adds	r1, r1, #80
 428:Lib/lvgl/src/themes/default/lv_theme_default.c **** 
 4714              		.loc 1 428 5 discriminator 10 view .LVU1072
 4715 0cb6 724B     		ldr	r3, .L459
 4716 0cb8 83FB0123 		smull	r2, r3, r3, r1
 4717 0cbc C917     		asrs	r1, r1, #31
 4718 0cbe C1EBE311 		rsb	r1, r1, r3, asr #7
 4719              	.L177:
 428:Lib/lvgl/src/themes/default/lv_theme_default.c **** 
 4720              		.loc 1 428 5 discriminator 12 view .LVU1073
 4721 0cc2 2846     		mov	r0, r5
 4722 0cc4 FFF7FEFF 		bl	lv_style_set_radius
ARM GAS  C:\Users\Alex\AppData\Local\Temp\ccR26jun.s 			page 141


 4723              	.LVL511:
 430:Lib/lvgl/src/themes/default/lv_theme_default.c ****     lv_style_set_bg_image_src(&theme->styles.cb_marker_checked, LV_SYMBOL_OK);
 4724              		.loc 1 430 5 is_stmt 1 discriminator 12 view .LVU1074
 4725 0cc8 04F50275 		add	r5, r4, #520
 4726 0ccc 2846     		mov	r0, r5
 4727 0cce FFF7FEFF 		bl	style_init_reset
 4728              	.LVL512:
 431:Lib/lvgl/src/themes/default/lv_theme_default.c ****     lv_style_set_text_color(&theme->styles.cb_marker_checked, lv_color_white());
 4729              		.loc 1 431 5 discriminator 12 view .LVU1075
 4730 0cd2 6C49     		ldr	r1, .L459+4
 4731 0cd4 2846     		mov	r0, r5
 4732 0cd6 FFF7FEFF 		bl	lv_style_set_bg_image_src
 4733              	.LVL513:
 432:Lib/lvgl/src/themes/default/lv_theme_default.c ****     lv_style_set_text_font(&theme->styles.cb_marker_checked, theme->base.font_small);
 4734              		.loc 1 432 5 discriminator 12 view .LVU1076
 4735              	.LBB77:
 4736              	.LBI77:
 413:c:\users\alex\eclipse-workspace\lvgs_test\lib\lvgl\src\misc\lv_color.h **** {
 4737              		.loc 2 413 26 discriminator 12 view .LVU1077
 4738              		.loc 2 415 5 discriminator 12 view .LVU1078
 4739              	.LBB78:
 4740              	.LBI78:
 286:c:\users\alex\eclipse-workspace\lvgs_test\lib\lvgl\src\misc\lv_color.h **** {
 4741              		.loc 2 286 26 discriminator 12 view .LVU1079
 4742              	.LBB79:
 288:c:\users\alex\eclipse-workspace\lvgs_test\lib\lvgl\src\misc\lv_color.h ****     ret.red = r;
 4743              		.loc 2 288 5 discriminator 12 view .LVU1080
 289:c:\users\alex\eclipse-workspace\lvgs_test\lib\lvgl\src\misc\lv_color.h ****     ret.green = g;
 4744              		.loc 2 289 5 discriminator 12 view .LVU1081
 289:c:\users\alex\eclipse-workspace\lvgs_test\lib\lvgl\src\misc\lv_color.h ****     ret.green = g;
 4745              		.loc 2 289 13 is_stmt 0 discriminator 12 view .LVU1082
 4746 0cda FF23     		movs	r3, #255
 4747 0cdc 8DF80E30 		strb	r3, [sp, #14]
 290:c:\users\alex\eclipse-workspace\lvgs_test\lib\lvgl\src\misc\lv_color.h ****     ret.blue = b;
 4748              		.loc 2 290 5 is_stmt 1 discriminator 12 view .LVU1083
 290:c:\users\alex\eclipse-workspace\lvgs_test\lib\lvgl\src\misc\lv_color.h ****     ret.blue = b;
 4749              		.loc 2 290 15 is_stmt 0 discriminator 12 view .LVU1084
 4750 0ce0 8DF80D30 		strb	r3, [sp, #13]
 291:c:\users\alex\eclipse-workspace\lvgs_test\lib\lvgl\src\misc\lv_color.h ****     return ret;
 4751              		.loc 2 291 5 is_stmt 1 discriminator 12 view .LVU1085
 291:c:\users\alex\eclipse-workspace\lvgs_test\lib\lvgl\src\misc\lv_color.h ****     return ret;
 4752              		.loc 2 291 14 is_stmt 0 discriminator 12 view .LVU1086
 4753 0ce4 8DF80C30 		strb	r3, [sp, #12]
 292:c:\users\alex\eclipse-workspace\lvgs_test\lib\lvgl\src\misc\lv_color.h **** }
 4754              		.loc 2 292 5 is_stmt 1 discriminator 12 view .LVU1087
 292:c:\users\alex\eclipse-workspace\lvgs_test\lib\lvgl\src\misc\lv_color.h **** }
 4755              		.loc 2 292 12 is_stmt 0 discriminator 12 view .LVU1088
 4756 0ce8 039B     		ldr	r3, [sp, #12]
 4757 0cea ADF87830 		strh	r3, [sp, #120]	@ movhi
 4758 0cee 1B0C     		lsrs	r3, r3, #16
 4759 0cf0 8DF87A30 		strb	r3, [sp, #122]
 4760 0cf4 1E9B     		ldr	r3, [sp, #120]
 4761 0cf6 ADF87C30 		strh	r3, [sp, #124]	@ movhi
 4762 0cfa 1B0C     		lsrs	r3, r3, #16
 4763 0cfc 8DF87E30 		strb	r3, [sp, #126]
 4764              	.LVL514:
 292:c:\users\alex\eclipse-workspace\lvgs_test\lib\lvgl\src\misc\lv_color.h **** }
ARM GAS  C:\Users\Alex\AppData\Local\Temp\ccR26jun.s 			page 142


 4765              		.loc 2 292 12 discriminator 12 view .LVU1089
 4766 0d00 1F9B     		ldr	r3, [sp, #124]
 4767 0d02 ADF82430 		strh	r3, [sp, #36]	@ movhi
 4768 0d06 1B0C     		lsrs	r3, r3, #16
 4769 0d08 8DF82630 		strb	r3, [sp, #38]
 4770              	.LBE79:
 4771              	.LBE78:
 4772              	.LBE77:
 432:Lib/lvgl/src/themes/default/lv_theme_default.c ****     lv_style_set_text_font(&theme->styles.cb_marker_checked, theme->base.font_small);
 4773              		.loc 1 432 5 discriminator 12 view .LVU1090
 4774 0d0c 0999     		ldr	r1, [sp, #36]
 4775 0d0e 2846     		mov	r0, r5
 4776 0d10 FFF7FEFF 		bl	lv_style_set_text_color
 4777              	.LVL515:
 433:Lib/lvgl/src/themes/default/lv_theme_default.c **** #endif
 4778              		.loc 1 433 5 is_stmt 1 discriminator 12 view .LVU1091
 4779 0d14 A169     		ldr	r1, [r4, #24]
 4780 0d16 2846     		mov	r0, r5
 4781 0d18 FFF7FEFF 		bl	lv_style_set_text_font
 4782              	.LVL516:
 437:Lib/lvgl/src/themes/default/lv_theme_default.c ****     lv_style_set_pad_all(&theme->styles.switch_knob, - _LV_DPX_CALC(theme->disp_dpi, 4));
 4783              		.loc 1 437 5 discriminator 12 view .LVU1092
 4784 0d1c 04F50575 		add	r5, r4, #532
 4785 0d20 2846     		mov	r0, r5
 4786 0d22 FFF7FEFF 		bl	style_init_reset
 4787              	.LVL517:
 438:Lib/lvgl/src/themes/default/lv_theme_default.c ****     lv_style_set_bg_color(&theme->styles.switch_knob, lv_color_white());
 4788              		.loc 1 438 5 discriminator 12 view .LVU1093
 438:Lib/lvgl/src/themes/default/lv_theme_default.c ****     lv_style_set_bg_color(&theme->styles.switch_knob, lv_color_white());
 4789              		.loc 1 438 56 is_stmt 0 discriminator 12 view .LVU1094
 4790 0d26 E16A     		ldr	r1, [r4, #44]
 438:Lib/lvgl/src/themes/default/lv_theme_default.c ****     lv_style_set_bg_color(&theme->styles.switch_knob, lv_color_white());
 4791              		.loc 1 438 5 discriminator 12 view .LVU1095
 4792 0d28 3B29     		cmp	r1, #59
 4793 0d2a 40F37385 		ble	.L319
 438:Lib/lvgl/src/themes/default/lv_theme_default.c ****     lv_style_set_bg_color(&theme->styles.switch_knob, lv_color_white());
 4794              		.loc 1 438 56 discriminator 1 view .LVU1096
 4795 0d2e 1431     		adds	r1, r1, #20
 438:Lib/lvgl/src/themes/default/lv_theme_default.c ****     lv_style_set_bg_color(&theme->styles.switch_knob, lv_color_white());
 4796              		.loc 1 438 5 discriminator 1 view .LVU1097
 4797 0d30 534B     		ldr	r3, .L459
 4798 0d32 83FB0123 		smull	r2, r3, r3, r1
 4799 0d36 C917     		asrs	r1, r1, #31
 4800 0d38 A1EB2311 		sub	r1, r1, r3, asr #4
 4801              	.L178:
 438:Lib/lvgl/src/themes/default/lv_theme_default.c ****     lv_style_set_bg_color(&theme->styles.switch_knob, lv_color_white());
 4802              		.loc 1 438 5 discriminator 4 view .LVU1098
 4803 0d3c 2846     		mov	r0, r5
 4804 0d3e FFF7FEFF 		bl	lv_style_set_pad_all
 4805              	.LVL518:
 439:Lib/lvgl/src/themes/default/lv_theme_default.c **** #endif
 4806              		.loc 1 439 5 is_stmt 1 discriminator 4 view .LVU1099
 4807              	.LBB80:
 4808              	.LBI80:
 413:c:\users\alex\eclipse-workspace\lvgs_test\lib\lvgl\src\misc\lv_color.h **** {
 4809              		.loc 2 413 26 discriminator 4 view .LVU1100
 4810              		.loc 2 415 5 discriminator 4 view .LVU1101
ARM GAS  C:\Users\Alex\AppData\Local\Temp\ccR26jun.s 			page 143


 4811              	.LBB81:
 4812              	.LBI81:
 286:c:\users\alex\eclipse-workspace\lvgs_test\lib\lvgl\src\misc\lv_color.h **** {
 4813              		.loc 2 286 26 discriminator 4 view .LVU1102
 4814              	.LBB82:
 288:c:\users\alex\eclipse-workspace\lvgs_test\lib\lvgl\src\misc\lv_color.h ****     ret.red = r;
 4815              		.loc 2 288 5 discriminator 4 view .LVU1103
 289:c:\users\alex\eclipse-workspace\lvgs_test\lib\lvgl\src\misc\lv_color.h ****     ret.green = g;
 4816              		.loc 2 289 5 discriminator 4 view .LVU1104
 289:c:\users\alex\eclipse-workspace\lvgs_test\lib\lvgl\src\misc\lv_color.h ****     ret.green = g;
 4817              		.loc 2 289 13 is_stmt 0 discriminator 4 view .LVU1105
 4818 0d42 FF23     		movs	r3, #255
 4819 0d44 8DF80E30 		strb	r3, [sp, #14]
 290:c:\users\alex\eclipse-workspace\lvgs_test\lib\lvgl\src\misc\lv_color.h ****     ret.blue = b;
 4820              		.loc 2 290 5 is_stmt 1 discriminator 4 view .LVU1106
 290:c:\users\alex\eclipse-workspace\lvgs_test\lib\lvgl\src\misc\lv_color.h ****     ret.blue = b;
 4821              		.loc 2 290 15 is_stmt 0 discriminator 4 view .LVU1107
 4822 0d48 8DF80D30 		strb	r3, [sp, #13]
 291:c:\users\alex\eclipse-workspace\lvgs_test\lib\lvgl\src\misc\lv_color.h ****     return ret;
 4823              		.loc 2 291 5 is_stmt 1 discriminator 4 view .LVU1108
 291:c:\users\alex\eclipse-workspace\lvgs_test\lib\lvgl\src\misc\lv_color.h ****     return ret;
 4824              		.loc 2 291 14 is_stmt 0 discriminator 4 view .LVU1109
 4825 0d4c 8DF80C30 		strb	r3, [sp, #12]
 292:c:\users\alex\eclipse-workspace\lvgs_test\lib\lvgl\src\misc\lv_color.h **** }
 4826              		.loc 2 292 5 is_stmt 1 discriminator 4 view .LVU1110
 292:c:\users\alex\eclipse-workspace\lvgs_test\lib\lvgl\src\misc\lv_color.h **** }
 4827              		.loc 2 292 12 is_stmt 0 discriminator 4 view .LVU1111
 4828 0d50 039B     		ldr	r3, [sp, #12]
 4829 0d52 ADF88030 		strh	r3, [sp, #128]	@ movhi
 4830 0d56 1B0C     		lsrs	r3, r3, #16
 4831 0d58 8DF88230 		strb	r3, [sp, #130]
 4832 0d5c 209B     		ldr	r3, [sp, #128]
 4833 0d5e ADF88430 		strh	r3, [sp, #132]	@ movhi
 4834 0d62 1B0C     		lsrs	r3, r3, #16
 4835 0d64 8DF88630 		strb	r3, [sp, #134]
 4836              	.LVL519:
 292:c:\users\alex\eclipse-workspace\lvgs_test\lib\lvgl\src\misc\lv_color.h **** }
 4837              		.loc 2 292 12 discriminator 4 view .LVU1112
 4838 0d68 219B     		ldr	r3, [sp, #132]
 4839 0d6a ADF82830 		strh	r3, [sp, #40]	@ movhi
 4840 0d6e 1B0C     		lsrs	r3, r3, #16
 4841 0d70 8DF82A30 		strb	r3, [sp, #42]
 4842              	.LBE82:
 4843              	.LBE81:
 4844              	.LBE80:
 439:Lib/lvgl/src/themes/default/lv_theme_default.c **** #endif
 4845              		.loc 1 439 5 discriminator 4 view .LVU1113
 4846 0d74 0A99     		ldr	r1, [sp, #40]
 4847 0d76 2846     		mov	r0, r5
 4848 0d78 FFF7FEFF 		bl	lv_style_set_bg_color
 4849              	.LVL520:
 443:Lib/lvgl/src/themes/default/lv_theme_default.c ****     lv_style_set_line_width(&theme->styles.line, 1);
 4850              		.loc 1 443 5 is_stmt 1 discriminator 4 view .LVU1114
 4851 0d7c 04F50875 		add	r5, r4, #544
 4852 0d80 2846     		mov	r0, r5
 4853 0d82 FFF7FEFF 		bl	style_init_reset
 4854              	.LVL521:
ARM GAS  C:\Users\Alex\AppData\Local\Temp\ccR26jun.s 			page 144


 444:Lib/lvgl/src/themes/default/lv_theme_default.c ****     lv_style_set_line_color(&theme->styles.line, theme->color_text);
 4855              		.loc 1 444 5 discriminator 4 view .LVU1115
 4856 0d86 0121     		movs	r1, #1
 4857 0d88 2846     		mov	r0, r5
 4858 0d8a FFF7FEFF 		bl	lv_style_set_line_width
 4859              	.LVL522:
 445:Lib/lvgl/src/themes/default/lv_theme_default.c **** #endif
 4860              		.loc 1 445 5 discriminator 4 view .LVU1116
 4861 0d8e 94F83330 		ldrb	r3, [r4, #51]	@ zero_extendqisi2
 4862 0d92 94F83420 		ldrb	r2, [r4, #52]	@ zero_extendqisi2
 4863 0d96 43EA0223 		orr	r3, r3, r2, lsl #8
 4864 0d9a 94F83510 		ldrb	r1, [r4, #53]	@ zero_extendqisi2
 4865 0d9e 43EA0141 		orr	r1, r3, r1, lsl #16
 4866 0da2 2846     		mov	r0, r5
 4867 0da4 FFF7FEFF 		bl	lv_style_set_line_color
 4868              	.LVL523:
 449:Lib/lvgl/src/themes/default/lv_theme_default.c ****     lv_style_set_border_post(&theme->styles.chart_bg, false);
 4869              		.loc 1 449 5 discriminator 4 view .LVU1117
 4870 0da8 04F5F275 		add	r5, r4, #484
 4871 0dac 2846     		mov	r0, r5
 4872 0dae FFF7FEFF 		bl	style_init_reset
 4873              	.LVL524:
 450:Lib/lvgl/src/themes/default/lv_theme_default.c ****     lv_style_set_pad_column(&theme->styles.chart_bg, _LV_DPX_CALC(theme->disp_dpi, 10));
 4874              		.loc 1 450 5 discriminator 4 view .LVU1118
 4875 0db2 0021     		movs	r1, #0
 4876 0db4 2846     		mov	r0, r5
 4877 0db6 FFF7FEFF 		bl	lv_style_set_border_post
 4878              	.LVL525:
 451:Lib/lvgl/src/themes/default/lv_theme_default.c ****     lv_style_set_line_color(&theme->styles.chart_bg, theme->color_grey);
 4879              		.loc 1 451 5 discriminator 4 view .LVU1119
 451:Lib/lvgl/src/themes/default/lv_theme_default.c ****     lv_style_set_line_color(&theme->styles.chart_bg, theme->color_grey);
 4880              		.loc 1 451 54 is_stmt 0 discriminator 4 view .LVU1120
 4881 0dba E36A     		ldr	r3, [r4, #44]
 4882 0dbc 03EB8303 		add	r3, r3, r3, lsl #2
 4883 0dc0 5B00     		lsls	r3, r3, #1
 451:Lib/lvgl/src/themes/default/lv_theme_default.c ****     lv_style_set_line_color(&theme->styles.chart_bg, theme->color_grey);
 4884              		.loc 1 451 5 discriminator 4 view .LVU1121
 4885 0dc2 EF2B     		cmp	r3, #239
 4886 0dc4 40F32A85 		ble	.L320
 451:Lib/lvgl/src/themes/default/lv_theme_default.c ****     lv_style_set_line_color(&theme->styles.chart_bg, theme->color_grey);
 4887              		.loc 1 451 54 discriminator 1 view .LVU1122
 4888 0dc8 5033     		adds	r3, r3, #80
 451:Lib/lvgl/src/themes/default/lv_theme_default.c ****     lv_style_set_line_color(&theme->styles.chart_bg, theme->color_grey);
 4889              		.loc 1 451 5 discriminator 1 view .LVU1123
 4890 0dca 2D4A     		ldr	r2, .L459
 4891 0dcc 82FB0312 		smull	r1, r2, r2, r3
 4892 0dd0 DB17     		asrs	r3, r3, #31
 4893 0dd2 C3EBA211 		rsb	r1, r3, r2, asr #6
 4894              	.L179:
 451:Lib/lvgl/src/themes/default/lv_theme_default.c ****     lv_style_set_line_color(&theme->styles.chart_bg, theme->color_grey);
 4895              		.loc 1 451 5 discriminator 4 view .LVU1124
 4896 0dd6 2846     		mov	r0, r5
 4897 0dd8 FFF7FEFF 		bl	lv_style_set_pad_column
 4898              	.LVL526:
 452:Lib/lvgl/src/themes/default/lv_theme_default.c **** 
 4899              		.loc 1 452 5 is_stmt 1 discriminator 4 view .LVU1125
 4900 0ddc 94F83930 		ldrb	r3, [r4, #57]	@ zero_extendqisi2
ARM GAS  C:\Users\Alex\AppData\Local\Temp\ccR26jun.s 			page 145


 4901 0de0 94F83A20 		ldrb	r2, [r4, #58]	@ zero_extendqisi2
 4902 0de4 43EA0223 		orr	r3, r3, r2, lsl #8
 4903 0de8 94F83B10 		ldrb	r1, [r4, #59]	@ zero_extendqisi2
 4904 0dec 43EA0141 		orr	r1, r3, r1, lsl #16
 4905 0df0 2846     		mov	r0, r5
 4906 0df2 FFF7FEFF 		bl	lv_style_set_line_color
 4907              	.LVL527:
 454:Lib/lvgl/src/themes/default/lv_theme_default.c ****     lv_style_set_line_width(&theme->styles.chart_series, _LV_DPX_CALC(theme->disp_dpi, 3));
 4908              		.loc 1 454 5 discriminator 4 view .LVU1126
 4909 0df6 04F5E676 		add	r6, r4, #460
 4910 0dfa 3046     		mov	r0, r6
 4911 0dfc FFF7FEFF 		bl	style_init_reset
 4912              	.LVL528:
 455:Lib/lvgl/src/themes/default/lv_theme_default.c ****     lv_style_set_radius(&theme->styles.chart_series, _LV_DPX_CALC(theme->disp_dpi, 3));
 4913              		.loc 1 455 5 discriminator 4 view .LVU1127
 455:Lib/lvgl/src/themes/default/lv_theme_default.c ****     lv_style_set_radius(&theme->styles.chart_series, _LV_DPX_CALC(theme->disp_dpi, 3));
 4914              		.loc 1 455 58 is_stmt 0 discriminator 4 view .LVU1128
 4915 0e00 E16A     		ldr	r1, [r4, #44]
 4916 0e02 01EB4101 		add	r1, r1, r1, lsl #1
 455:Lib/lvgl/src/themes/default/lv_theme_default.c ****     lv_style_set_radius(&theme->styles.chart_series, _LV_DPX_CALC(theme->disp_dpi, 3));
 4917              		.loc 1 455 5 discriminator 4 view .LVU1129
 4918 0e06 EF29     		cmp	r1, #239
 4919 0e08 40F30B85 		ble	.L321
 455:Lib/lvgl/src/themes/default/lv_theme_default.c ****     lv_style_set_radius(&theme->styles.chart_series, _LV_DPX_CALC(theme->disp_dpi, 3));
 4920              		.loc 1 455 58 discriminator 1 view .LVU1130
 4921 0e0c 5031     		adds	r1, r1, #80
 455:Lib/lvgl/src/themes/default/lv_theme_default.c ****     lv_style_set_radius(&theme->styles.chart_series, _LV_DPX_CALC(theme->disp_dpi, 3));
 4922              		.loc 1 455 5 discriminator 1 view .LVU1131
 4923 0e0e 1C4B     		ldr	r3, .L459
 4924 0e10 83FB0123 		smull	r2, r3, r3, r1
 4925 0e14 C917     		asrs	r1, r1, #31
 4926 0e16 C1EBA311 		rsb	r1, r1, r3, asr #6
 4927              	.L180:
 455:Lib/lvgl/src/themes/default/lv_theme_default.c ****     lv_style_set_radius(&theme->styles.chart_series, _LV_DPX_CALC(theme->disp_dpi, 3));
 4928              		.loc 1 455 5 discriminator 4 view .LVU1132
 4929 0e1a 3046     		mov	r0, r6
 4930 0e1c FFF7FEFF 		bl	lv_style_set_line_width
 4931              	.LVL529:
 456:Lib/lvgl/src/themes/default/lv_theme_default.c **** 
 4932              		.loc 1 456 5 is_stmt 1 discriminator 4 view .LVU1133
 456:Lib/lvgl/src/themes/default/lv_theme_default.c **** 
 4933              		.loc 1 456 54 is_stmt 0 discriminator 4 view .LVU1134
 4934 0e20 E16A     		ldr	r1, [r4, #44]
 4935 0e22 01EB4101 		add	r1, r1, r1, lsl #1
 456:Lib/lvgl/src/themes/default/lv_theme_default.c **** 
 4936              		.loc 1 456 5 discriminator 4 view .LVU1135
 4937 0e26 EF29     		cmp	r1, #239
 4938 0e28 40F3FE84 		ble	.L322
 456:Lib/lvgl/src/themes/default/lv_theme_default.c **** 
 4939              		.loc 1 456 54 discriminator 1 view .LVU1136
 4940 0e2c 5031     		adds	r1, r1, #80
 456:Lib/lvgl/src/themes/default/lv_theme_default.c **** 
 4941              		.loc 1 456 5 discriminator 1 view .LVU1137
 4942 0e2e 144B     		ldr	r3, .L459
 4943 0e30 83FB0123 		smull	r2, r3, r3, r1
 4944 0e34 C917     		asrs	r1, r1, #31
 4945 0e36 C1EBA311 		rsb	r1, r1, r3, asr #6
ARM GAS  C:\Users\Alex\AppData\Local\Temp\ccR26jun.s 			page 146


 4946              	.L181:
 456:Lib/lvgl/src/themes/default/lv_theme_default.c **** 
 4947              		.loc 1 456 5 discriminator 4 view .LVU1138
 4948 0e3a 3046     		mov	r0, r6
 4949 0e3c FFF7FEFF 		bl	lv_style_set_radius
 4950              	.LVL530:
 458:Lib/lvgl/src/themes/default/lv_theme_default.c ****     lv_style_set_size(&theme->styles.chart_series, chart_size, chart_size);
 4951              		.loc 1 458 5 is_stmt 1 discriminator 4 view .LVU1139
 458:Lib/lvgl/src/themes/default/lv_theme_default.c ****     lv_style_set_size(&theme->styles.chart_series, chart_size, chart_size);
 4952              		.loc 1 458 26 is_stmt 0 discriminator 4 view .LVU1140
 4953 0e40 E56A     		ldr	r5, [r4, #44]
 4954 0e42 1D2D     		cmp	r5, #29
 4955 0e44 40F3F384 		ble	.L323
 458:Lib/lvgl/src/themes/default/lv_theme_default.c ****     lv_style_set_size(&theme->styles.chart_series, chart_size, chart_size);
 4956              		.loc 1 458 26 discriminator 1 view .LVU1141
 4957 0e48 0A35     		adds	r5, r5, #10
 4958 0e4a 0D4B     		ldr	r3, .L459
 4959 0e4c 83FB0523 		smull	r2, r3, r3, r5
 4960 0e50 ED17     		asrs	r5, r5, #31
 4961 0e52 C5EBE305 		rsb	r5, r5, r3, asr #3
 4962              	.L182:
 4963              	.LVL531:
 459:Lib/lvgl/src/themes/default/lv_theme_default.c ****     lv_style_set_pad_column(&theme->styles.chart_series, _LV_DPX_CALC(theme->disp_dpi, 2));
 4964              		.loc 1 459 5 is_stmt 1 discriminator 4 view .LVU1142
 4965              	.LBB83:
 4966              	.LBI83:
 552:Lib/lvgl/src/themes/default/../../../src/core/../misc/lv_style.h **** {
 4967              		.loc 4 552 20 discriminator 4 view .LVU1143
 4968              	.LBB84:
 554:Lib/lvgl/src/themes/default/../../../src/core/../misc/lv_style.h ****     lv_style_set_height(style, height);
 4969              		.loc 4 554 5 discriminator 4 view .LVU1144
 4970 0e56 2946     		mov	r1, r5
 4971 0e58 3046     		mov	r0, r6
 4972 0e5a FFF7FEFF 		bl	lv_style_set_width
 4973              	.LVL532:
 555:Lib/lvgl/src/themes/default/../../../src/core/../misc/lv_style.h **** }
 4974              		.loc 4 555 5 discriminator 4 view .LVU1145
 4975 0e5e 2946     		mov	r1, r5
 4976 0e60 3046     		mov	r0, r6
 4977 0e62 FFF7FEFF 		bl	lv_style_set_height
 4978              	.LVL533:
 555:Lib/lvgl/src/themes/default/../../../src/core/../misc/lv_style.h **** }
 4979              		.loc 4 555 5 is_stmt 0 discriminator 4 view .LVU1146
 4980              	.LBE84:
 4981              	.LBE83:
 460:Lib/lvgl/src/themes/default/lv_theme_default.c **** 
 4982              		.loc 1 460 5 is_stmt 1 discriminator 4 view .LVU1147
 460:Lib/lvgl/src/themes/default/lv_theme_default.c **** 
 4983              		.loc 1 460 58 is_stmt 0 discriminator 4 view .LVU1148
 4984 0e66 E16A     		ldr	r1, [r4, #44]
 460:Lib/lvgl/src/themes/default/lv_theme_default.c **** 
 4985              		.loc 1 460 5 discriminator 4 view .LVU1149
 4986 0e68 7729     		cmp	r1, #119
 4987 0e6a 40F3E384 		ble	.L324
 460:Lib/lvgl/src/themes/default/lv_theme_default.c **** 
 4988              		.loc 1 460 58 discriminator 1 view .LVU1150
 4989 0e6e 2831     		adds	r1, r1, #40
ARM GAS  C:\Users\Alex\AppData\Local\Temp\ccR26jun.s 			page 147


 460:Lib/lvgl/src/themes/default/lv_theme_default.c **** 
 4990              		.loc 1 460 5 discriminator 1 view .LVU1151
 4991 0e70 034B     		ldr	r3, .L459
 4992 0e72 83FB0123 		smull	r2, r3, r3, r1
 4993 0e76 C917     		asrs	r1, r1, #31
 4994 0e78 C1EB6311 		rsb	r1, r1, r3, asr #5
 4995 0e7c 04E0     		b	.L460
 4996              	.L461:
 4997 0e7e 00BF     		.align	2
 4998              	.L459:
 4999 0e80 67666666 		.word	1717986919
 5000 0e84 00000000 		.word	.LC0
 5001              	.L460:
 5002              	.L183:
 460:Lib/lvgl/src/themes/default/lv_theme_default.c **** 
 5003              		.loc 1 460 5 discriminator 4 view .LVU1152
 5004 0e88 3046     		mov	r0, r6
 5005 0e8a FFF7FEFF 		bl	lv_style_set_pad_column
 5006              	.LVL534:
 462:Lib/lvgl/src/themes/default/lv_theme_default.c ****     lv_style_set_radius(&theme->styles.chart_indic, LV_RADIUS_CIRCLE);
 5007              		.loc 1 462 5 is_stmt 1 discriminator 4 view .LVU1153
 5008 0e8e 04F5EC76 		add	r6, r4, #472
 5009 0e92 3046     		mov	r0, r6
 5010 0e94 FFF7FEFF 		bl	style_init_reset
 5011              	.LVL535:
 463:Lib/lvgl/src/themes/default/lv_theme_default.c ****     lv_style_set_size(&theme->styles.chart_indic, chart_size, chart_size);
 5012              		.loc 1 463 5 discriminator 4 view .LVU1154
 5013 0e98 47F6FF71 		movw	r1, #32767
 5014 0e9c 3046     		mov	r0, r6
 5015 0e9e FFF7FEFF 		bl	lv_style_set_radius
 5016              	.LVL536:
 464:Lib/lvgl/src/themes/default/lv_theme_default.c ****     lv_style_set_bg_color(&theme->styles.chart_indic, theme->base.color_primary);
 5017              		.loc 1 464 5 discriminator 4 view .LVU1155
 5018              	.LBB85:
 5019              	.LBI85:
 552:Lib/lvgl/src/themes/default/../../../src/core/../misc/lv_style.h **** {
 5020              		.loc 4 552 20 discriminator 4 view .LVU1156
 5021              	.LBB86:
 554:Lib/lvgl/src/themes/default/../../../src/core/../misc/lv_style.h ****     lv_style_set_height(style, height);
 5022              		.loc 4 554 5 discriminator 4 view .LVU1157
 5023 0ea2 2946     		mov	r1, r5
 5024 0ea4 3046     		mov	r0, r6
 5025 0ea6 FFF7FEFF 		bl	lv_style_set_width
 5026              	.LVL537:
 555:Lib/lvgl/src/themes/default/../../../src/core/../misc/lv_style.h **** }
 5027              		.loc 4 555 5 discriminator 4 view .LVU1158
 5028 0eaa 2946     		mov	r1, r5
 5029 0eac 3046     		mov	r0, r6
 5030 0eae FFF7FEFF 		bl	lv_style_set_height
 5031              	.LVL538:
 555:Lib/lvgl/src/themes/default/../../../src/core/../misc/lv_style.h **** }
 5032              		.loc 4 555 5 is_stmt 0 discriminator 4 view .LVU1159
 5033              	.LBE86:
 5034              	.LBE85:
 465:Lib/lvgl/src/themes/default/lv_theme_default.c ****     lv_style_set_bg_opa(&theme->styles.chart_indic, LV_OPA_COVER);
 5035              		.loc 1 465 5 is_stmt 1 discriminator 4 view .LVU1160
 5036 0eb2 2169     		ldr	r1, [r4, #16]
ARM GAS  C:\Users\Alex\AppData\Local\Temp\ccR26jun.s 			page 148


 5037 0eb4 3046     		mov	r0, r6
 5038 0eb6 FFF7FEFF 		bl	lv_style_set_bg_color
 5039              	.LVL539:
 466:Lib/lvgl/src/themes/default/lv_theme_default.c **** #endif
 5040              		.loc 1 466 5 discriminator 4 view .LVU1161
 5041 0eba FF21     		movs	r1, #255
 5042 0ebc 3046     		mov	r0, r6
 5043 0ebe FFF7FEFF 		bl	lv_style_set_bg_opa
 5044              	.LVL540:
 470:Lib/lvgl/src/themes/default/lv_theme_default.c ****     lv_style_set_pad_all(&theme->styles.menu_bg, 0);
 5045              		.loc 1 470 5 discriminator 4 view .LVU1162
 5046 0ec2 04F51D75 		add	r5, r4, #628
 5047              	.LVL541:
 470:Lib/lvgl/src/themes/default/lv_theme_default.c ****     lv_style_set_pad_all(&theme->styles.menu_bg, 0);
 5048              		.loc 1 470 5 is_stmt 0 discriminator 4 view .LVU1163
 5049 0ec6 2846     		mov	r0, r5
 5050 0ec8 FFF7FEFF 		bl	style_init_reset
 5051              	.LVL542:
 471:Lib/lvgl/src/themes/default/lv_theme_default.c ****     lv_style_set_pad_gap(&theme->styles.menu_bg, 0);
 5052              		.loc 1 471 5 is_stmt 1 discriminator 4 view .LVU1164
 5053 0ecc 0021     		movs	r1, #0
 5054 0ece 2846     		mov	r0, r5
 5055 0ed0 FFF7FEFF 		bl	lv_style_set_pad_all
 5056              	.LVL543:
 472:Lib/lvgl/src/themes/default/lv_theme_default.c ****     lv_style_set_radius(&theme->styles.menu_bg, 0);
 5057              		.loc 1 472 5 discriminator 4 view .LVU1165
 5058 0ed4 0021     		movs	r1, #0
 5059 0ed6 2846     		mov	r0, r5
 5060 0ed8 FFF7FEFF 		bl	lv_style_set_pad_gap
 5061              	.LVL544:
 473:Lib/lvgl/src/themes/default/lv_theme_default.c ****     lv_style_set_clip_corner(&theme->styles.menu_bg, true);
 5062              		.loc 1 473 5 discriminator 4 view .LVU1166
 5063 0edc 0021     		movs	r1, #0
 5064 0ede 2846     		mov	r0, r5
 5065 0ee0 FFF7FEFF 		bl	lv_style_set_radius
 5066              	.LVL545:
 474:Lib/lvgl/src/themes/default/lv_theme_default.c ****     lv_style_set_border_side(&theme->styles.menu_bg, LV_BORDER_SIDE_NONE);
 5067              		.loc 1 474 5 discriminator 4 view .LVU1167
 5068 0ee4 0121     		movs	r1, #1
 5069 0ee6 2846     		mov	r0, r5
 5070 0ee8 FFF7FEFF 		bl	lv_style_set_clip_corner
 5071              	.LVL546:
 475:Lib/lvgl/src/themes/default/lv_theme_default.c **** 
 5072              		.loc 1 475 5 discriminator 4 view .LVU1168
 5073 0eec 0021     		movs	r1, #0
 5074 0eee 2846     		mov	r0, r5
 5075 0ef0 FFF7FEFF 		bl	lv_style_set_border_side
 5076              	.LVL547:
 477:Lib/lvgl/src/themes/default/lv_theme_default.c ****     lv_style_set_radius(&theme->styles.menu_section, RADIUS_DEFAULT);
 5077              		.loc 1 477 5 discriminator 4 view .LVU1169
 5078 0ef4 04F53275 		add	r5, r4, #712
 5079 0ef8 2846     		mov	r0, r5
 5080 0efa FFF7FEFF 		bl	style_init_reset
 5081              	.LVL548:
 478:Lib/lvgl/src/themes/default/lv_theme_default.c ****     lv_style_set_clip_corner(&theme->styles.menu_section, true);
 5082              		.loc 1 478 5 discriminator 4 view .LVU1170
 478:Lib/lvgl/src/themes/default/lv_theme_default.c ****     lv_style_set_clip_corner(&theme->styles.menu_section, true);
ARM GAS  C:\Users\Alex\AppData\Local\Temp\ccR26jun.s 			page 149


 5083              		.loc 1 478 54 is_stmt 0 discriminator 4 view .LVU1171
 5084 0efe E16A     		ldr	r1, [r4, #44]
 5085 0f00 94F82830 		ldrb	r3, [r4, #40]	@ zero_extendqisi2
 5086 0f04 012B     		cmp	r3, #1
 5087 0f06 00F09884 		beq	.L422
 478:Lib/lvgl/src/themes/default/lv_theme_default.c ****     lv_style_set_clip_corner(&theme->styles.menu_section, true);
 5088              		.loc 1 478 54 view .LVU1172
 5089 0f0a 0823     		movs	r3, #8
 5090              	.L184:
 478:Lib/lvgl/src/themes/default/lv_theme_default.c ****     lv_style_set_clip_corner(&theme->styles.menu_section, true);
 5091              		.loc 1 478 54 discriminator 4 view .LVU1173
 5092 0f0c 03FB01F1 		mul	r1, r3, r1
 478:Lib/lvgl/src/themes/default/lv_theme_default.c ****     lv_style_set_clip_corner(&theme->styles.menu_section, true);
 5093              		.loc 1 478 5 discriminator 4 view .LVU1174
 5094 0f10 EF29     		cmp	r1, #239
 5095 0f12 40F39584 		ble	.L326
 478:Lib/lvgl/src/themes/default/lv_theme_default.c ****     lv_style_set_clip_corner(&theme->styles.menu_section, true);
 5096              		.loc 1 478 54 discriminator 10 view .LVU1175
 5097 0f16 5031     		adds	r1, r1, #80
 478:Lib/lvgl/src/themes/default/lv_theme_default.c ****     lv_style_set_clip_corner(&theme->styles.menu_section, true);
 5098              		.loc 1 478 5 discriminator 10 view .LVU1176
 5099 0f18 DC4B     		ldr	r3, .L462
 5100 0f1a 83FB0123 		smull	r2, r3, r3, r1
 5101 0f1e C917     		asrs	r1, r1, #31
 5102 0f20 C1EBA311 		rsb	r1, r1, r3, asr #6
 5103              	.L185:
 478:Lib/lvgl/src/themes/default/lv_theme_default.c ****     lv_style_set_clip_corner(&theme->styles.menu_section, true);
 5104              		.loc 1 478 5 discriminator 12 view .LVU1177
 5105 0f24 2846     		mov	r0, r5
 5106 0f26 FFF7FEFF 		bl	lv_style_set_radius
 5107              	.LVL549:
 479:Lib/lvgl/src/themes/default/lv_theme_default.c ****     lv_style_set_bg_opa(&theme->styles.menu_section, LV_OPA_COVER);
 5108              		.loc 1 479 5 is_stmt 1 discriminator 12 view .LVU1178
 5109 0f2a 0121     		movs	r1, #1
 5110 0f2c 2846     		mov	r0, r5
 5111 0f2e FFF7FEFF 		bl	lv_style_set_clip_corner
 5112              	.LVL550:
 480:Lib/lvgl/src/themes/default/lv_theme_default.c ****     lv_style_set_bg_color(&theme->styles.menu_section, theme->color_card);
 5113              		.loc 1 480 5 discriminator 12 view .LVU1179
 5114 0f32 FF21     		movs	r1, #255
 5115 0f34 2846     		mov	r0, r5
 5116 0f36 FFF7FEFF 		bl	lv_style_set_bg_opa
 5117              	.LVL551:
 481:Lib/lvgl/src/themes/default/lv_theme_default.c ****     lv_style_set_text_color(&theme->styles.menu_section, theme->color_text);
 5118              		.loc 1 481 5 discriminator 12 view .LVU1180
 5119 0f3a E38E     		ldrh	r3, [r4, #54]
 5120 0f3c 94F83810 		ldrb	r1, [r4, #56]	@ zero_extendqisi2
 5121 0f40 43EA0141 		orr	r1, r3, r1, lsl #16
 5122 0f44 2846     		mov	r0, r5
 5123 0f46 FFF7FEFF 		bl	lv_style_set_bg_color
 5124              	.LVL552:
 482:Lib/lvgl/src/themes/default/lv_theme_default.c **** 
 5125              		.loc 1 482 5 discriminator 12 view .LVU1181
 5126 0f4a 94F83330 		ldrb	r3, [r4, #51]	@ zero_extendqisi2
 5127 0f4e 94F83420 		ldrb	r2, [r4, #52]	@ zero_extendqisi2
 5128 0f52 43EA0223 		orr	r3, r3, r2, lsl #8
 5129 0f56 94F83510 		ldrb	r1, [r4, #53]	@ zero_extendqisi2
ARM GAS  C:\Users\Alex\AppData\Local\Temp\ccR26jun.s 			page 150


 5130 0f5a 43EA0141 		orr	r1, r3, r1, lsl #16
 5131 0f5e 2846     		mov	r0, r5
 5132 0f60 FFF7FEFF 		bl	lv_style_set_text_color
 5133              	.LVL553:
 484:Lib/lvgl/src/themes/default/lv_theme_default.c ****     lv_style_set_pad_hor(&theme->styles.menu_cont, PAD_SMALL);
 5134              		.loc 1 484 5 discriminator 12 view .LVU1182
 5135 0f64 04F52075 		add	r5, r4, #640
 5136 0f68 2846     		mov	r0, r5
 5137 0f6a FFF7FEFF 		bl	style_init_reset
 5138              	.LVL554:
 485:Lib/lvgl/src/themes/default/lv_theme_default.c ****     lv_style_set_pad_ver(&theme->styles.menu_cont, PAD_SMALL);
 5139              		.loc 1 485 5 discriminator 12 view .LVU1183
 485:Lib/lvgl/src/themes/default/lv_theme_default.c ****     lv_style_set_pad_ver(&theme->styles.menu_cont, PAD_SMALL);
 5140              		.loc 1 485 52 is_stmt 0 discriminator 12 view .LVU1184
 5141 0f6e E16A     		ldr	r1, [r4, #44]
 5142 0f70 94F82830 		ldrb	r3, [r4, #40]	@ zero_extendqisi2
 5143 0f74 012B     		cmp	r3, #1
 5144 0f76 00F06984 		beq	.L327
 485:Lib/lvgl/src/themes/default/lv_theme_default.c ****     lv_style_set_pad_ver(&theme->styles.menu_cont, PAD_SMALL);
 5145              		.loc 1 485 52 discriminator 1 view .LVU1185
 5146 0f7a 022B     		cmp	r3, #2
 5147 0f7c 00F06384 		beq	.L423
 485:Lib/lvgl/src/themes/default/lv_theme_default.c ****     lv_style_set_pad_ver(&theme->styles.menu_cont, PAD_SMALL);
 5148              		.loc 1 485 52 view .LVU1186
 5149 0f80 0A23     		movs	r3, #10
 5150              	.L186:
 485:Lib/lvgl/src/themes/default/lv_theme_default.c ****     lv_style_set_pad_ver(&theme->styles.menu_cont, PAD_SMALL);
 5151              		.loc 1 485 52 discriminator 8 view .LVU1187
 5152 0f82 03FB01F1 		mul	r1, r3, r1
 485:Lib/lvgl/src/themes/default/lv_theme_default.c ****     lv_style_set_pad_ver(&theme->styles.menu_cont, PAD_SMALL);
 5153              		.loc 1 485 5 discriminator 8 view .LVU1188
 5154 0f86 EF29     		cmp	r1, #239
 5155 0f88 40F36384 		ble	.L329
 485:Lib/lvgl/src/themes/default/lv_theme_default.c ****     lv_style_set_pad_ver(&theme->styles.menu_cont, PAD_SMALL);
 5156              		.loc 1 485 52 discriminator 18 view .LVU1189
 5157 0f8c 5031     		adds	r1, r1, #80
 485:Lib/lvgl/src/themes/default/lv_theme_default.c ****     lv_style_set_pad_ver(&theme->styles.menu_cont, PAD_SMALL);
 5158              		.loc 1 485 5 discriminator 18 view .LVU1190
 5159 0f8e BF4B     		ldr	r3, .L462
 5160 0f90 83FB0123 		smull	r2, r3, r3, r1
 5161 0f94 C917     		asrs	r1, r1, #31
 5162 0f96 C1EBA311 		rsb	r1, r1, r3, asr #6
 5163              	.L187:
 485:Lib/lvgl/src/themes/default/lv_theme_default.c ****     lv_style_set_pad_ver(&theme->styles.menu_cont, PAD_SMALL);
 5164              		.loc 1 485 5 discriminator 20 view .LVU1191
 5165 0f9a 2846     		mov	r0, r5
 5166 0f9c FFF7FEFF 		bl	lv_style_set_pad_hor
 5167              	.LVL555:
 486:Lib/lvgl/src/themes/default/lv_theme_default.c ****     lv_style_set_pad_gap(&theme->styles.menu_cont, PAD_SMALL);
 5168              		.loc 1 486 5 is_stmt 1 discriminator 20 view .LVU1192
 486:Lib/lvgl/src/themes/default/lv_theme_default.c ****     lv_style_set_pad_gap(&theme->styles.menu_cont, PAD_SMALL);
 5169              		.loc 1 486 52 is_stmt 0 discriminator 20 view .LVU1193
 5170 0fa0 E16A     		ldr	r1, [r4, #44]
 5171 0fa2 94F82830 		ldrb	r3, [r4, #40]	@ zero_extendqisi2
 5172 0fa6 012B     		cmp	r3, #1
 5173 0fa8 00F05984 		beq	.L330
 486:Lib/lvgl/src/themes/default/lv_theme_default.c ****     lv_style_set_pad_gap(&theme->styles.menu_cont, PAD_SMALL);
ARM GAS  C:\Users\Alex\AppData\Local\Temp\ccR26jun.s 			page 151


 5174              		.loc 1 486 52 discriminator 1 view .LVU1194
 5175 0fac 022B     		cmp	r3, #2
 5176 0fae 00F05384 		beq	.L424
 486:Lib/lvgl/src/themes/default/lv_theme_default.c ****     lv_style_set_pad_gap(&theme->styles.menu_cont, PAD_SMALL);
 5177              		.loc 1 486 52 view .LVU1195
 5178 0fb2 0A23     		movs	r3, #10
 5179              	.L188:
 486:Lib/lvgl/src/themes/default/lv_theme_default.c ****     lv_style_set_pad_gap(&theme->styles.menu_cont, PAD_SMALL);
 5180              		.loc 1 486 52 discriminator 8 view .LVU1196
 5181 0fb4 03FB01F1 		mul	r1, r3, r1
 486:Lib/lvgl/src/themes/default/lv_theme_default.c ****     lv_style_set_pad_gap(&theme->styles.menu_cont, PAD_SMALL);
 5182              		.loc 1 486 5 discriminator 8 view .LVU1197
 5183 0fb8 EF29     		cmp	r1, #239
 5184 0fba 40F35384 		ble	.L332
 486:Lib/lvgl/src/themes/default/lv_theme_default.c ****     lv_style_set_pad_gap(&theme->styles.menu_cont, PAD_SMALL);
 5185              		.loc 1 486 52 discriminator 18 view .LVU1198
 5186 0fbe 5031     		adds	r1, r1, #80
 486:Lib/lvgl/src/themes/default/lv_theme_default.c ****     lv_style_set_pad_gap(&theme->styles.menu_cont, PAD_SMALL);
 5187              		.loc 1 486 5 discriminator 18 view .LVU1199
 5188 0fc0 B24B     		ldr	r3, .L462
 5189 0fc2 83FB0123 		smull	r2, r3, r3, r1
 5190 0fc6 C917     		asrs	r1, r1, #31
 5191 0fc8 C1EBA311 		rsb	r1, r1, r3, asr #6
 5192              	.L189:
 486:Lib/lvgl/src/themes/default/lv_theme_default.c ****     lv_style_set_pad_gap(&theme->styles.menu_cont, PAD_SMALL);
 5193              		.loc 1 486 5 discriminator 20 view .LVU1200
 5194 0fcc 2846     		mov	r0, r5
 5195 0fce FFF7FEFF 		bl	lv_style_set_pad_ver
 5196              	.LVL556:
 487:Lib/lvgl/src/themes/default/lv_theme_default.c ****     lv_style_set_border_width(&theme->styles.menu_cont, _LV_DPX_CALC(theme->disp_dpi, 1));
 5197              		.loc 1 487 5 is_stmt 1 discriminator 20 view .LVU1201
 487:Lib/lvgl/src/themes/default/lv_theme_default.c ****     lv_style_set_border_width(&theme->styles.menu_cont, _LV_DPX_CALC(theme->disp_dpi, 1));
 5198              		.loc 1 487 52 is_stmt 0 discriminator 20 view .LVU1202
 5199 0fd2 E16A     		ldr	r1, [r4, #44]
 5200 0fd4 94F82830 		ldrb	r3, [r4, #40]	@ zero_extendqisi2
 5201 0fd8 012B     		cmp	r3, #1
 5202 0fda 00F04984 		beq	.L333
 487:Lib/lvgl/src/themes/default/lv_theme_default.c ****     lv_style_set_border_width(&theme->styles.menu_cont, _LV_DPX_CALC(theme->disp_dpi, 1));
 5203              		.loc 1 487 52 discriminator 1 view .LVU1203
 5204 0fde 022B     		cmp	r3, #2
 5205 0fe0 00F04384 		beq	.L425
 487:Lib/lvgl/src/themes/default/lv_theme_default.c ****     lv_style_set_border_width(&theme->styles.menu_cont, _LV_DPX_CALC(theme->disp_dpi, 1));
 5206              		.loc 1 487 52 view .LVU1204
 5207 0fe4 0A23     		movs	r3, #10
 5208              	.L190:
 487:Lib/lvgl/src/themes/default/lv_theme_default.c ****     lv_style_set_border_width(&theme->styles.menu_cont, _LV_DPX_CALC(theme->disp_dpi, 1));
 5209              		.loc 1 487 52 discriminator 8 view .LVU1205
 5210 0fe6 03FB01F1 		mul	r1, r3, r1
 487:Lib/lvgl/src/themes/default/lv_theme_default.c ****     lv_style_set_border_width(&theme->styles.menu_cont, _LV_DPX_CALC(theme->disp_dpi, 1));
 5211              		.loc 1 487 5 discriminator 8 view .LVU1206
 5212 0fea EF29     		cmp	r1, #239
 5213 0fec 40F34384 		ble	.L335
 487:Lib/lvgl/src/themes/default/lv_theme_default.c ****     lv_style_set_border_width(&theme->styles.menu_cont, _LV_DPX_CALC(theme->disp_dpi, 1));
 5214              		.loc 1 487 52 discriminator 18 view .LVU1207
 5215 0ff0 5031     		adds	r1, r1, #80
 487:Lib/lvgl/src/themes/default/lv_theme_default.c ****     lv_style_set_border_width(&theme->styles.menu_cont, _LV_DPX_CALC(theme->disp_dpi, 1));
 5216              		.loc 1 487 5 discriminator 18 view .LVU1208
ARM GAS  C:\Users\Alex\AppData\Local\Temp\ccR26jun.s 			page 152


 5217 0ff2 A64B     		ldr	r3, .L462
 5218 0ff4 83FB0123 		smull	r2, r3, r3, r1
 5219 0ff8 C917     		asrs	r1, r1, #31
 5220 0ffa C1EBA311 		rsb	r1, r1, r3, asr #6
 5221              	.L191:
 487:Lib/lvgl/src/themes/default/lv_theme_default.c ****     lv_style_set_border_width(&theme->styles.menu_cont, _LV_DPX_CALC(theme->disp_dpi, 1));
 5222              		.loc 1 487 5 discriminator 20 view .LVU1209
 5223 0ffe 2846     		mov	r0, r5
 5224 1000 FFF7FEFF 		bl	lv_style_set_pad_gap
 5225              	.LVL557:
 488:Lib/lvgl/src/themes/default/lv_theme_default.c ****     lv_style_set_border_opa(&theme->styles.menu_cont, LV_OPA_10);
 5226              		.loc 1 488 5 is_stmt 1 discriminator 20 view .LVU1210
 488:Lib/lvgl/src/themes/default/lv_theme_default.c ****     lv_style_set_border_opa(&theme->styles.menu_cont, LV_OPA_10);
 5227              		.loc 1 488 57 is_stmt 0 discriminator 20 view .LVU1211
 5228 1004 E16A     		ldr	r1, [r4, #44]
 488:Lib/lvgl/src/themes/default/lv_theme_default.c ****     lv_style_set_border_opa(&theme->styles.menu_cont, LV_OPA_10);
 5229              		.loc 1 488 5 discriminator 20 view .LVU1212
 5230 1006 EF29     		cmp	r1, #239
 5231 1008 40F33884 		ble	.L336
 488:Lib/lvgl/src/themes/default/lv_theme_default.c ****     lv_style_set_border_opa(&theme->styles.menu_cont, LV_OPA_10);
 5232              		.loc 1 488 57 discriminator 1 view .LVU1213
 5233 100c 5031     		adds	r1, r1, #80
 488:Lib/lvgl/src/themes/default/lv_theme_default.c ****     lv_style_set_border_opa(&theme->styles.menu_cont, LV_OPA_10);
 5234              		.loc 1 488 5 discriminator 1 view .LVU1214
 5235 100e 9F4B     		ldr	r3, .L462
 5236 1010 83FB0123 		smull	r2, r3, r3, r1
 5237 1014 C917     		asrs	r1, r1, #31
 5238 1016 C1EBA311 		rsb	r1, r1, r3, asr #6
 5239              	.L192:
 488:Lib/lvgl/src/themes/default/lv_theme_default.c ****     lv_style_set_border_opa(&theme->styles.menu_cont, LV_OPA_10);
 5240              		.loc 1 488 5 discriminator 4 view .LVU1215
 5241 101a 2846     		mov	r0, r5
 5242 101c FFF7FEFF 		bl	lv_style_set_border_width
 5243              	.LVL558:
 489:Lib/lvgl/src/themes/default/lv_theme_default.c ****     lv_style_set_border_color(&theme->styles.menu_cont, theme->color_text);
 5244              		.loc 1 489 5 is_stmt 1 discriminator 4 view .LVU1216
 5245 1020 1921     		movs	r1, #25
 5246 1022 2846     		mov	r0, r5
 5247 1024 FFF7FEFF 		bl	lv_style_set_border_opa
 5248              	.LVL559:
 490:Lib/lvgl/src/themes/default/lv_theme_default.c ****     lv_style_set_border_side(&theme->styles.menu_cont, LV_BORDER_SIDE_NONE);
 5249              		.loc 1 490 5 discriminator 4 view .LVU1217
 5250 1028 94F83330 		ldrb	r3, [r4, #51]	@ zero_extendqisi2
 5251 102c 94F83420 		ldrb	r2, [r4, #52]	@ zero_extendqisi2
 5252 1030 43EA0223 		orr	r3, r3, r2, lsl #8
 5253 1034 94F83510 		ldrb	r1, [r4, #53]	@ zero_extendqisi2
 5254 1038 43EA0141 		orr	r1, r3, r1, lsl #16
 5255 103c 2846     		mov	r0, r5
 5256 103e FFF7FEFF 		bl	lv_style_set_border_color
 5257              	.LVL560:
 491:Lib/lvgl/src/themes/default/lv_theme_default.c **** 
 5258              		.loc 1 491 5 discriminator 4 view .LVU1218
 5259 1042 0021     		movs	r1, #0
 5260 1044 2846     		mov	r0, r5
 5261 1046 FFF7FEFF 		bl	lv_style_set_border_side
 5262              	.LVL561:
 493:Lib/lvgl/src/themes/default/lv_theme_default.c ****     lv_style_set_pad_all(&theme->styles.menu_sidebar_cont, 0);
ARM GAS  C:\Users\Alex\AppData\Local\Temp\ccR26jun.s 			page 153


 5263              		.loc 1 493 5 discriminator 4 view .LVU1219
 5264 104a 04F52375 		add	r5, r4, #652
 5265 104e 2846     		mov	r0, r5
 5266 1050 FFF7FEFF 		bl	style_init_reset
 5267              	.LVL562:
 494:Lib/lvgl/src/themes/default/lv_theme_default.c ****     lv_style_set_pad_gap(&theme->styles.menu_sidebar_cont, 0);
 5268              		.loc 1 494 5 discriminator 4 view .LVU1220
 5269 1054 0021     		movs	r1, #0
 5270 1056 2846     		mov	r0, r5
 5271 1058 FFF7FEFF 		bl	lv_style_set_pad_all
 5272              	.LVL563:
 495:Lib/lvgl/src/themes/default/lv_theme_default.c ****     lv_style_set_border_width(&theme->styles.menu_sidebar_cont, _LV_DPX_CALC(theme->disp_dpi, 1));
 5273              		.loc 1 495 5 discriminator 4 view .LVU1221
 5274 105c 0021     		movs	r1, #0
 5275 105e 2846     		mov	r0, r5
 5276 1060 FFF7FEFF 		bl	lv_style_set_pad_gap
 5277              	.LVL564:
 496:Lib/lvgl/src/themes/default/lv_theme_default.c ****     lv_style_set_border_opa(&theme->styles.menu_sidebar_cont, LV_OPA_10);
 5278              		.loc 1 496 5 discriminator 4 view .LVU1222
 496:Lib/lvgl/src/themes/default/lv_theme_default.c ****     lv_style_set_border_opa(&theme->styles.menu_sidebar_cont, LV_OPA_10);
 5279              		.loc 1 496 65 is_stmt 0 discriminator 4 view .LVU1223
 5280 1064 E16A     		ldr	r1, [r4, #44]
 496:Lib/lvgl/src/themes/default/lv_theme_default.c ****     lv_style_set_border_opa(&theme->styles.menu_sidebar_cont, LV_OPA_10);
 5281              		.loc 1 496 5 discriminator 4 view .LVU1224
 5282 1066 EF29     		cmp	r1, #239
 5283 1068 40F30B84 		ble	.L337
 496:Lib/lvgl/src/themes/default/lv_theme_default.c ****     lv_style_set_border_opa(&theme->styles.menu_sidebar_cont, LV_OPA_10);
 5284              		.loc 1 496 65 discriminator 1 view .LVU1225
 5285 106c 5031     		adds	r1, r1, #80
 496:Lib/lvgl/src/themes/default/lv_theme_default.c ****     lv_style_set_border_opa(&theme->styles.menu_sidebar_cont, LV_OPA_10);
 5286              		.loc 1 496 5 discriminator 1 view .LVU1226
 5287 106e 874B     		ldr	r3, .L462
 5288 1070 83FB0123 		smull	r2, r3, r3, r1
 5289 1074 C917     		asrs	r1, r1, #31
 5290 1076 C1EBA311 		rsb	r1, r1, r3, asr #6
 5291              	.L193:
 496:Lib/lvgl/src/themes/default/lv_theme_default.c ****     lv_style_set_border_opa(&theme->styles.menu_sidebar_cont, LV_OPA_10);
 5292              		.loc 1 496 5 discriminator 4 view .LVU1227
 5293 107a 2846     		mov	r0, r5
 5294 107c FFF7FEFF 		bl	lv_style_set_border_width
 5295              	.LVL565:
 497:Lib/lvgl/src/themes/default/lv_theme_default.c ****     lv_style_set_border_color(&theme->styles.menu_sidebar_cont, theme->color_text);
 5296              		.loc 1 497 5 is_stmt 1 discriminator 4 view .LVU1228
 5297 1080 1921     		movs	r1, #25
 5298 1082 2846     		mov	r0, r5
 5299 1084 FFF7FEFF 		bl	lv_style_set_border_opa
 5300              	.LVL566:
 498:Lib/lvgl/src/themes/default/lv_theme_default.c ****     lv_style_set_border_side(&theme->styles.menu_sidebar_cont, LV_BORDER_SIDE_RIGHT);
 5301              		.loc 1 498 5 discriminator 4 view .LVU1229
 5302 1088 94F83330 		ldrb	r3, [r4, #51]	@ zero_extendqisi2
 5303 108c 94F83420 		ldrb	r2, [r4, #52]	@ zero_extendqisi2
 5304 1090 43EA0223 		orr	r3, r3, r2, lsl #8
 5305 1094 94F83510 		ldrb	r1, [r4, #53]	@ zero_extendqisi2
 5306 1098 43EA0141 		orr	r1, r3, r1, lsl #16
 5307 109c 2846     		mov	r0, r5
 5308 109e FFF7FEFF 		bl	lv_style_set_border_color
 5309              	.LVL567:
ARM GAS  C:\Users\Alex\AppData\Local\Temp\ccR26jun.s 			page 154


 499:Lib/lvgl/src/themes/default/lv_theme_default.c **** 
 5310              		.loc 1 499 5 discriminator 4 view .LVU1230
 5311 10a2 0821     		movs	r1, #8
 5312 10a4 2846     		mov	r0, r5
 5313 10a6 FFF7FEFF 		bl	lv_style_set_border_side
 5314              	.LVL568:
 501:Lib/lvgl/src/themes/default/lv_theme_default.c ****     lv_style_set_pad_all(&theme->styles.menu_main_cont, 0);
 5315              		.loc 1 501 5 discriminator 4 view .LVU1231
 5316 10aa 04F52675 		add	r5, r4, #664
 5317 10ae 2846     		mov	r0, r5
 5318 10b0 FFF7FEFF 		bl	style_init_reset
 5319              	.LVL569:
 502:Lib/lvgl/src/themes/default/lv_theme_default.c ****     lv_style_set_pad_gap(&theme->styles.menu_main_cont, 0);
 5320              		.loc 1 502 5 discriminator 4 view .LVU1232
 5321 10b4 0021     		movs	r1, #0
 5322 10b6 2846     		mov	r0, r5
 5323 10b8 FFF7FEFF 		bl	lv_style_set_pad_all
 5324              	.LVL570:
 503:Lib/lvgl/src/themes/default/lv_theme_default.c **** 
 5325              		.loc 1 503 5 discriminator 4 view .LVU1233
 5326 10bc 0021     		movs	r1, #0
 5327 10be 2846     		mov	r0, r5
 5328 10c0 FFF7FEFF 		bl	lv_style_set_pad_gap
 5329              	.LVL571:
 505:Lib/lvgl/src/themes/default/lv_theme_default.c ****     lv_style_set_pad_hor(&theme->styles.menu_header_cont, PAD_SMALL);
 5330              		.loc 1 505 5 discriminator 4 view .LVU1234
 5331 10c4 04F52C75 		add	r5, r4, #688
 5332 10c8 2846     		mov	r0, r5
 5333 10ca FFF7FEFF 		bl	style_init_reset
 5334              	.LVL572:
 506:Lib/lvgl/src/themes/default/lv_theme_default.c ****     lv_style_set_pad_ver(&theme->styles.menu_header_cont, PAD_TINY);
 5335              		.loc 1 506 5 discriminator 4 view .LVU1235
 506:Lib/lvgl/src/themes/default/lv_theme_default.c ****     lv_style_set_pad_ver(&theme->styles.menu_header_cont, PAD_TINY);
 5336              		.loc 1 506 59 is_stmt 0 discriminator 4 view .LVU1236
 5337 10ce E16A     		ldr	r1, [r4, #44]
 5338 10d0 94F82830 		ldrb	r3, [r4, #40]	@ zero_extendqisi2
 5339 10d4 012B     		cmp	r3, #1
 5340 10d6 00F0D983 		beq	.L338
 506:Lib/lvgl/src/themes/default/lv_theme_default.c ****     lv_style_set_pad_ver(&theme->styles.menu_header_cont, PAD_TINY);
 5341              		.loc 1 506 59 discriminator 1 view .LVU1237
 5342 10da 022B     		cmp	r3, #2
 5343 10dc 00F0D483 		beq	.L426
 506:Lib/lvgl/src/themes/default/lv_theme_default.c ****     lv_style_set_pad_ver(&theme->styles.menu_header_cont, PAD_TINY);
 5344              		.loc 1 506 59 view .LVU1238
 5345 10e0 0A23     		movs	r3, #10
 5346              	.L194:
 506:Lib/lvgl/src/themes/default/lv_theme_default.c ****     lv_style_set_pad_ver(&theme->styles.menu_header_cont, PAD_TINY);
 5347              		.loc 1 506 59 discriminator 8 view .LVU1239
 5348 10e2 03FB01F1 		mul	r1, r3, r1
 506:Lib/lvgl/src/themes/default/lv_theme_default.c ****     lv_style_set_pad_ver(&theme->styles.menu_header_cont, PAD_TINY);
 5349              		.loc 1 506 5 discriminator 8 view .LVU1240
 5350 10e6 EF29     		cmp	r1, #239
 5351 10e8 40F3D283 		ble	.L340
 506:Lib/lvgl/src/themes/default/lv_theme_default.c ****     lv_style_set_pad_ver(&theme->styles.menu_header_cont, PAD_TINY);
 5352              		.loc 1 506 59 discriminator 18 view .LVU1241
 5353 10ec 5031     		adds	r1, r1, #80
 506:Lib/lvgl/src/themes/default/lv_theme_default.c ****     lv_style_set_pad_ver(&theme->styles.menu_header_cont, PAD_TINY);
ARM GAS  C:\Users\Alex\AppData\Local\Temp\ccR26jun.s 			page 155


 5354              		.loc 1 506 5 discriminator 18 view .LVU1242
 5355 10ee 674B     		ldr	r3, .L462
 5356 10f0 83FB0123 		smull	r2, r3, r3, r1
 5357 10f4 C917     		asrs	r1, r1, #31
 5358 10f6 C1EBA311 		rsb	r1, r1, r3, asr #6
 5359              	.L195:
 506:Lib/lvgl/src/themes/default/lv_theme_default.c ****     lv_style_set_pad_ver(&theme->styles.menu_header_cont, PAD_TINY);
 5360              		.loc 1 506 5 discriminator 20 view .LVU1243
 5361 10fa 2846     		mov	r0, r5
 5362 10fc FFF7FEFF 		bl	lv_style_set_pad_hor
 5363              	.LVL573:
 507:Lib/lvgl/src/themes/default/lv_theme_default.c ****     lv_style_set_pad_gap(&theme->styles.menu_header_cont, PAD_SMALL);
 5364              		.loc 1 507 5 is_stmt 1 discriminator 20 view .LVU1244
 507:Lib/lvgl/src/themes/default/lv_theme_default.c ****     lv_style_set_pad_gap(&theme->styles.menu_header_cont, PAD_SMALL);
 5365              		.loc 1 507 59 is_stmt 0 discriminator 20 view .LVU1245
 5366 1100 E16A     		ldr	r1, [r4, #44]
 5367 1102 94F82830 		ldrb	r3, [r4, #40]	@ zero_extendqisi2
 5368 1106 012B     		cmp	r3, #1
 5369 1108 00F0C683 		beq	.L341
 507:Lib/lvgl/src/themes/default/lv_theme_default.c ****     lv_style_set_pad_gap(&theme->styles.menu_header_cont, PAD_SMALL);
 5370              		.loc 1 507 59 discriminator 1 view .LVU1246
 5371 110c 022B     		cmp	r3, #2
 5372 110e 00F0C183 		beq	.L427
 507:Lib/lvgl/src/themes/default/lv_theme_default.c ****     lv_style_set_pad_gap(&theme->styles.menu_header_cont, PAD_SMALL);
 5373              		.loc 1 507 59 view .LVU1247
 5374 1112 0223     		movs	r3, #2
 5375              	.L196:
 507:Lib/lvgl/src/themes/default/lv_theme_default.c ****     lv_style_set_pad_gap(&theme->styles.menu_header_cont, PAD_SMALL);
 5376              		.loc 1 507 59 discriminator 8 view .LVU1248
 5377 1114 03FB01F1 		mul	r1, r3, r1
 507:Lib/lvgl/src/themes/default/lv_theme_default.c ****     lv_style_set_pad_gap(&theme->styles.menu_header_cont, PAD_SMALL);
 5378              		.loc 1 507 5 discriminator 8 view .LVU1249
 5379 1118 EF29     		cmp	r1, #239
 5380 111a 40F3BF83 		ble	.L343
 507:Lib/lvgl/src/themes/default/lv_theme_default.c ****     lv_style_set_pad_gap(&theme->styles.menu_header_cont, PAD_SMALL);
 5381              		.loc 1 507 59 discriminator 18 view .LVU1250
 5382 111e 5031     		adds	r1, r1, #80
 507:Lib/lvgl/src/themes/default/lv_theme_default.c ****     lv_style_set_pad_gap(&theme->styles.menu_header_cont, PAD_SMALL);
 5383              		.loc 1 507 5 discriminator 18 view .LVU1251
 5384 1120 5A4B     		ldr	r3, .L462
 5385 1122 83FB0123 		smull	r2, r3, r3, r1
 5386 1126 C917     		asrs	r1, r1, #31
 5387 1128 C1EBA311 		rsb	r1, r1, r3, asr #6
 5388              	.L197:
 507:Lib/lvgl/src/themes/default/lv_theme_default.c ****     lv_style_set_pad_gap(&theme->styles.menu_header_cont, PAD_SMALL);
 5389              		.loc 1 507 5 discriminator 20 view .LVU1252
 5390 112c 2846     		mov	r0, r5
 5391 112e FFF7FEFF 		bl	lv_style_set_pad_ver
 5392              	.LVL574:
 508:Lib/lvgl/src/themes/default/lv_theme_default.c **** 
 5393              		.loc 1 508 5 is_stmt 1 discriminator 20 view .LVU1253
 508:Lib/lvgl/src/themes/default/lv_theme_default.c **** 
 5394              		.loc 1 508 59 is_stmt 0 discriminator 20 view .LVU1254
 5395 1132 E16A     		ldr	r1, [r4, #44]
 5396 1134 94F82830 		ldrb	r3, [r4, #40]	@ zero_extendqisi2
 5397 1138 012B     		cmp	r3, #1
 5398 113a 00F0B383 		beq	.L344
ARM GAS  C:\Users\Alex\AppData\Local\Temp\ccR26jun.s 			page 156


 508:Lib/lvgl/src/themes/default/lv_theme_default.c **** 
 5399              		.loc 1 508 59 discriminator 1 view .LVU1255
 5400 113e 022B     		cmp	r3, #2
 5401 1140 00F0AE83 		beq	.L428
 508:Lib/lvgl/src/themes/default/lv_theme_default.c **** 
 5402              		.loc 1 508 59 view .LVU1256
 5403 1144 0A23     		movs	r3, #10
 5404              	.L198:
 508:Lib/lvgl/src/themes/default/lv_theme_default.c **** 
 5405              		.loc 1 508 59 discriminator 8 view .LVU1257
 5406 1146 03FB01F1 		mul	r1, r3, r1
 508:Lib/lvgl/src/themes/default/lv_theme_default.c **** 
 5407              		.loc 1 508 5 discriminator 8 view .LVU1258
 5408 114a EF29     		cmp	r1, #239
 5409 114c 40F3AC83 		ble	.L346
 508:Lib/lvgl/src/themes/default/lv_theme_default.c **** 
 5410              		.loc 1 508 59 discriminator 18 view .LVU1259
 5411 1150 5031     		adds	r1, r1, #80
 508:Lib/lvgl/src/themes/default/lv_theme_default.c **** 
 5412              		.loc 1 508 5 discriminator 18 view .LVU1260
 5413 1152 4E4B     		ldr	r3, .L462
 5414 1154 83FB0123 		smull	r2, r3, r3, r1
 5415 1158 C917     		asrs	r1, r1, #31
 5416 115a C1EBA311 		rsb	r1, r1, r3, asr #6
 5417              	.L199:
 508:Lib/lvgl/src/themes/default/lv_theme_default.c **** 
 5418              		.loc 1 508 5 discriminator 20 view .LVU1261
 5419 115e 2846     		mov	r0, r5
 5420 1160 FFF7FEFF 		bl	lv_style_set_pad_gap
 5421              	.LVL575:
 510:Lib/lvgl/src/themes/default/lv_theme_default.c ****     lv_style_set_pad_hor(&theme->styles.menu_header_btn, PAD_TINY);
 5422              		.loc 1 510 5 is_stmt 1 discriminator 20 view .LVU1262
 5423 1164 04F52F75 		add	r5, r4, #700
 5424 1168 2846     		mov	r0, r5
 5425 116a FFF7FEFF 		bl	style_init_reset
 5426              	.LVL576:
 511:Lib/lvgl/src/themes/default/lv_theme_default.c ****     lv_style_set_pad_ver(&theme->styles.menu_header_btn, PAD_TINY);
 5427              		.loc 1 511 5 discriminator 20 view .LVU1263
 511:Lib/lvgl/src/themes/default/lv_theme_default.c ****     lv_style_set_pad_ver(&theme->styles.menu_header_btn, PAD_TINY);
 5428              		.loc 1 511 58 is_stmt 0 discriminator 20 view .LVU1264
 5429 116e E16A     		ldr	r1, [r4, #44]
 5430 1170 94F82830 		ldrb	r3, [r4, #40]	@ zero_extendqisi2
 5431 1174 012B     		cmp	r3, #1
 5432 1176 00F09B83 		beq	.L347
 511:Lib/lvgl/src/themes/default/lv_theme_default.c ****     lv_style_set_pad_ver(&theme->styles.menu_header_btn, PAD_TINY);
 5433              		.loc 1 511 58 discriminator 1 view .LVU1265
 5434 117a 022B     		cmp	r3, #2
 5435 117c 00F09683 		beq	.L429
 511:Lib/lvgl/src/themes/default/lv_theme_default.c ****     lv_style_set_pad_ver(&theme->styles.menu_header_btn, PAD_TINY);
 5436              		.loc 1 511 58 view .LVU1266
 5437 1180 0223     		movs	r3, #2
 5438              	.L200:
 511:Lib/lvgl/src/themes/default/lv_theme_default.c ****     lv_style_set_pad_ver(&theme->styles.menu_header_btn, PAD_TINY);
 5439              		.loc 1 511 58 discriminator 8 view .LVU1267
 5440 1182 03FB01F1 		mul	r1, r3, r1
 511:Lib/lvgl/src/themes/default/lv_theme_default.c ****     lv_style_set_pad_ver(&theme->styles.menu_header_btn, PAD_TINY);
 5441              		.loc 1 511 5 discriminator 8 view .LVU1268
ARM GAS  C:\Users\Alex\AppData\Local\Temp\ccR26jun.s 			page 157


 5442 1186 EF29     		cmp	r1, #239
 5443 1188 40F39483 		ble	.L349
 511:Lib/lvgl/src/themes/default/lv_theme_default.c ****     lv_style_set_pad_ver(&theme->styles.menu_header_btn, PAD_TINY);
 5444              		.loc 1 511 58 discriminator 18 view .LVU1269
 5445 118c 5031     		adds	r1, r1, #80
 511:Lib/lvgl/src/themes/default/lv_theme_default.c ****     lv_style_set_pad_ver(&theme->styles.menu_header_btn, PAD_TINY);
 5446              		.loc 1 511 5 discriminator 18 view .LVU1270
 5447 118e 3F4B     		ldr	r3, .L462
 5448 1190 83FB0123 		smull	r2, r3, r3, r1
 5449 1194 C917     		asrs	r1, r1, #31
 5450 1196 C1EBA311 		rsb	r1, r1, r3, asr #6
 5451              	.L201:
 511:Lib/lvgl/src/themes/default/lv_theme_default.c ****     lv_style_set_pad_ver(&theme->styles.menu_header_btn, PAD_TINY);
 5452              		.loc 1 511 5 discriminator 20 view .LVU1271
 5453 119a 2846     		mov	r0, r5
 5454 119c FFF7FEFF 		bl	lv_style_set_pad_hor
 5455              	.LVL577:
 512:Lib/lvgl/src/themes/default/lv_theme_default.c ****     lv_style_set_shadow_opa(&theme->styles.menu_header_btn, LV_OPA_TRANSP);
 5456              		.loc 1 512 5 is_stmt 1 discriminator 20 view .LVU1272
 512:Lib/lvgl/src/themes/default/lv_theme_default.c ****     lv_style_set_shadow_opa(&theme->styles.menu_header_btn, LV_OPA_TRANSP);
 5457              		.loc 1 512 58 is_stmt 0 discriminator 20 view .LVU1273
 5458 11a0 E16A     		ldr	r1, [r4, #44]
 5459 11a2 94F82830 		ldrb	r3, [r4, #40]	@ zero_extendqisi2
 5460 11a6 012B     		cmp	r3, #1
 5461 11a8 00F08883 		beq	.L350
 512:Lib/lvgl/src/themes/default/lv_theme_default.c ****     lv_style_set_shadow_opa(&theme->styles.menu_header_btn, LV_OPA_TRANSP);
 5462              		.loc 1 512 58 discriminator 1 view .LVU1274
 5463 11ac 022B     		cmp	r3, #2
 5464 11ae 00F08383 		beq	.L430
 512:Lib/lvgl/src/themes/default/lv_theme_default.c ****     lv_style_set_shadow_opa(&theme->styles.menu_header_btn, LV_OPA_TRANSP);
 5465              		.loc 1 512 58 view .LVU1275
 5466 11b2 0223     		movs	r3, #2
 5467              	.L202:
 512:Lib/lvgl/src/themes/default/lv_theme_default.c ****     lv_style_set_shadow_opa(&theme->styles.menu_header_btn, LV_OPA_TRANSP);
 5468              		.loc 1 512 58 discriminator 8 view .LVU1276
 5469 11b4 03FB01F1 		mul	r1, r3, r1
 512:Lib/lvgl/src/themes/default/lv_theme_default.c ****     lv_style_set_shadow_opa(&theme->styles.menu_header_btn, LV_OPA_TRANSP);
 5470              		.loc 1 512 5 discriminator 8 view .LVU1277
 5471 11b8 EF29     		cmp	r1, #239
 5472 11ba 40F38183 		ble	.L352
 512:Lib/lvgl/src/themes/default/lv_theme_default.c ****     lv_style_set_shadow_opa(&theme->styles.menu_header_btn, LV_OPA_TRANSP);
 5473              		.loc 1 512 58 discriminator 18 view .LVU1278
 5474 11be 5031     		adds	r1, r1, #80
 512:Lib/lvgl/src/themes/default/lv_theme_default.c ****     lv_style_set_shadow_opa(&theme->styles.menu_header_btn, LV_OPA_TRANSP);
 5475              		.loc 1 512 5 discriminator 18 view .LVU1279
 5476 11c0 324B     		ldr	r3, .L462
 5477 11c2 83FB0123 		smull	r2, r3, r3, r1
 5478 11c6 C917     		asrs	r1, r1, #31
 5479 11c8 C1EBA311 		rsb	r1, r1, r3, asr #6
 5480              	.L203:
 512:Lib/lvgl/src/themes/default/lv_theme_default.c ****     lv_style_set_shadow_opa(&theme->styles.menu_header_btn, LV_OPA_TRANSP);
 5481              		.loc 1 512 5 discriminator 20 view .LVU1280
 5482 11cc 2846     		mov	r0, r5
 5483 11ce FFF7FEFF 		bl	lv_style_set_pad_ver
 5484              	.LVL578:
 513:Lib/lvgl/src/themes/default/lv_theme_default.c ****     lv_style_set_bg_opa(&theme->styles.menu_header_btn, LV_OPA_TRANSP);
 5485              		.loc 1 513 5 is_stmt 1 discriminator 20 view .LVU1281
ARM GAS  C:\Users\Alex\AppData\Local\Temp\ccR26jun.s 			page 158


 5486 11d2 0021     		movs	r1, #0
 5487 11d4 2846     		mov	r0, r5
 5488 11d6 FFF7FEFF 		bl	lv_style_set_shadow_opa
 5489              	.LVL579:
 514:Lib/lvgl/src/themes/default/lv_theme_default.c ****     lv_style_set_text_color(&theme->styles.menu_header_btn, theme->color_text);
 5490              		.loc 1 514 5 discriminator 20 view .LVU1282
 5491 11da 0021     		movs	r1, #0
 5492 11dc 2846     		mov	r0, r5
 5493 11de FFF7FEFF 		bl	lv_style_set_bg_opa
 5494              	.LVL580:
 515:Lib/lvgl/src/themes/default/lv_theme_default.c **** 
 5495              		.loc 1 515 5 discriminator 20 view .LVU1283
 5496 11e2 94F83330 		ldrb	r3, [r4, #51]	@ zero_extendqisi2
 5497 11e6 94F83420 		ldrb	r2, [r4, #52]	@ zero_extendqisi2
 5498 11ea 43EA0223 		orr	r3, r3, r2, lsl #8
 5499 11ee 94F83510 		ldrb	r1, [r4, #53]	@ zero_extendqisi2
 5500 11f2 43EA0141 		orr	r1, r3, r1, lsl #16
 5501 11f6 2846     		mov	r0, r5
 5502 11f8 FFF7FEFF 		bl	lv_style_set_text_color
 5503              	.LVL581:
 517:Lib/lvgl/src/themes/default/lv_theme_default.c ****     lv_style_set_pad_hor(&theme->styles.menu_page, 0);
 5504              		.loc 1 517 5 discriminator 20 view .LVU1284
 5505 11fc 04F52975 		add	r5, r4, #676
 5506 1200 2846     		mov	r0, r5
 5507 1202 FFF7FEFF 		bl	style_init_reset
 5508              	.LVL582:
 518:Lib/lvgl/src/themes/default/lv_theme_default.c ****     lv_style_set_pad_gap(&theme->styles.menu_page, 0);
 5509              		.loc 1 518 5 discriminator 20 view .LVU1285
 5510 1206 0021     		movs	r1, #0
 5511 1208 2846     		mov	r0, r5
 5512 120a FFF7FEFF 		bl	lv_style_set_pad_hor
 5513              	.LVL583:
 519:Lib/lvgl/src/themes/default/lv_theme_default.c **** 
 5514              		.loc 1 519 5 discriminator 20 view .LVU1286
 5515 120e 0021     		movs	r1, #0
 5516 1210 2846     		mov	r0, r5
 5517 1212 FFF7FEFF 		bl	lv_style_set_pad_gap
 5518              	.LVL584:
 521:Lib/lvgl/src/themes/default/lv_theme_default.c ****     lv_style_set_bg_opa(&theme->styles.menu_pressed, LV_OPA_20);
 5519              		.loc 1 521 5 discriminator 20 view .LVU1287
 5520 1216 04F53575 		add	r5, r4, #724
 5521 121a 2846     		mov	r0, r5
 5522 121c FFF7FEFF 		bl	style_init_reset
 5523              	.LVL585:
 522:Lib/lvgl/src/themes/default/lv_theme_default.c ****     lv_style_set_bg_color(&theme->styles.menu_pressed, lv_palette_main(LV_PALETTE_GREY));
 5524              		.loc 1 522 5 discriminator 20 view .LVU1288
 5525 1220 3321     		movs	r1, #51
 5526 1222 2846     		mov	r0, r5
 5527 1224 FFF7FEFF 		bl	lv_style_set_bg_opa
 5528              	.LVL586:
 523:Lib/lvgl/src/themes/default/lv_theme_default.c **** 
 5529              		.loc 1 523 5 discriminator 20 view .LVU1289
 5530 1228 1220     		movs	r0, #18
 5531 122a FFF7FEFF 		bl	lv_palette_main
 5532              	.LVL587:
 5533 122e 8DF82C00 		strb	r0, [sp, #44]
 5534 1232 C0F30723 		ubfx	r3, r0, #8, #8
ARM GAS  C:\Users\Alex\AppData\Local\Temp\ccR26jun.s 			page 159


 5535 1236 8DF82D30 		strb	r3, [sp, #45]
 5536 123a C0F30740 		ubfx	r0, r0, #16, #8
 5537 123e 8DF82E00 		strb	r0, [sp, #46]
 5538 1242 0B99     		ldr	r1, [sp, #44]
 5539 1244 2846     		mov	r0, r5
 5540 1246 FFF7FEFF 		bl	lv_style_set_bg_color
 5541              	.LVL588:
 525:Lib/lvgl/src/themes/default/lv_theme_default.c ****     lv_style_set_bg_opa(&theme->styles.menu_separator, LV_OPA_TRANSP);
 5542              		.loc 1 525 5 discriminator 20 view .LVU1290
 5543 124a 04F53875 		add	r5, r4, #736
 5544 124e 2846     		mov	r0, r5
 5545 1250 FFF7FEFF 		bl	style_init_reset
 5546              	.LVL589:
 526:Lib/lvgl/src/themes/default/lv_theme_default.c ****     lv_style_set_pad_ver(&theme->styles.menu_separator, PAD_TINY);
 5547              		.loc 1 526 5 discriminator 20 view .LVU1291
 5548 1254 0021     		movs	r1, #0
 5549 1256 2846     		mov	r0, r5
 5550 1258 FFF7FEFF 		bl	lv_style_set_bg_opa
 5551              	.LVL590:
 527:Lib/lvgl/src/themes/default/lv_theme_default.c **** #endif
 5552              		.loc 1 527 5 discriminator 20 view .LVU1292
 527:Lib/lvgl/src/themes/default/lv_theme_default.c **** #endif
 5553              		.loc 1 527 57 is_stmt 0 discriminator 20 view .LVU1293
 5554 125c E16A     		ldr	r1, [r4, #44]
 5555 125e 94F82830 		ldrb	r3, [r4, #40]	@ zero_extendqisi2
 5556 1262 012B     		cmp	r3, #1
 5557 1264 00F03083 		beq	.L353
 527:Lib/lvgl/src/themes/default/lv_theme_default.c **** #endif
 5558              		.loc 1 527 57 discriminator 1 view .LVU1294
 5559 1268 022B     		cmp	r3, #2
 5560 126a 00F02B83 		beq	.L431
 527:Lib/lvgl/src/themes/default/lv_theme_default.c **** #endif
 5561              		.loc 1 527 57 view .LVU1295
 5562 126e 0223     		movs	r3, #2
 5563              	.L204:
 527:Lib/lvgl/src/themes/default/lv_theme_default.c **** #endif
 5564              		.loc 1 527 57 discriminator 8 view .LVU1296
 5565 1270 03FB01F1 		mul	r1, r3, r1
 527:Lib/lvgl/src/themes/default/lv_theme_default.c **** #endif
 5566              		.loc 1 527 5 discriminator 8 view .LVU1297
 5567 1274 EF29     		cmp	r1, #239
 5568 1276 40F32983 		ble	.L355
 527:Lib/lvgl/src/themes/default/lv_theme_default.c **** #endif
 5569              		.loc 1 527 57 discriminator 18 view .LVU1298
 5570 127a 5031     		adds	r1, r1, #80
 527:Lib/lvgl/src/themes/default/lv_theme_default.c **** #endif
 5571              		.loc 1 527 5 discriminator 18 view .LVU1299
 5572 127c 034B     		ldr	r3, .L462
 5573 127e 83FB0123 		smull	r2, r3, r3, r1
 5574 1282 C917     		asrs	r1, r1, #31
 5575 1284 C1EBA311 		rsb	r1, r1, r3, asr #6
 5576 1288 02E0     		b	.L463
 5577              	.L464:
 5578 128a 00BF     		.align	2
 5579              	.L462:
 5580 128c 67666666 		.word	1717986919
 5581              	.L463:
ARM GAS  C:\Users\Alex\AppData\Local\Temp\ccR26jun.s 			page 160


 5582              	.L205:
 527:Lib/lvgl/src/themes/default/lv_theme_default.c **** #endif
 5583              		.loc 1 527 5 discriminator 20 view .LVU1300
 5584 1290 2846     		mov	r0, r5
 5585 1292 FFF7FEFF 		bl	lv_style_set_pad_ver
 5586              	.LVL591:
 531:Lib/lvgl/src/themes/default/lv_theme_default.c ****     lv_style_set_border_width(&theme->styles.table_cell, _LV_DPX_CALC(theme->disp_dpi, 1));
 5587              		.loc 1 531 5 is_stmt 1 discriminator 20 view .LVU1301
 5588 1296 04F50B75 		add	r5, r4, #556
 5589 129a 2846     		mov	r0, r5
 5590 129c FFF7FEFF 		bl	style_init_reset
 5591              	.LVL592:
 532:Lib/lvgl/src/themes/default/lv_theme_default.c ****     lv_style_set_border_color(&theme->styles.table_cell, theme->color_grey);
 5592              		.loc 1 532 5 discriminator 20 view .LVU1302
 532:Lib/lvgl/src/themes/default/lv_theme_default.c ****     lv_style_set_border_color(&theme->styles.table_cell, theme->color_grey);
 5593              		.loc 1 532 58 is_stmt 0 discriminator 20 view .LVU1303
 5594 12a0 E16A     		ldr	r1, [r4, #44]
 532:Lib/lvgl/src/themes/default/lv_theme_default.c ****     lv_style_set_border_color(&theme->styles.table_cell, theme->color_grey);
 5595              		.loc 1 532 5 discriminator 20 view .LVU1304
 5596 12a2 EF29     		cmp	r1, #239
 5597 12a4 40F31483 		ble	.L356
 532:Lib/lvgl/src/themes/default/lv_theme_default.c ****     lv_style_set_border_color(&theme->styles.table_cell, theme->color_grey);
 5598              		.loc 1 532 58 discriminator 1 view .LVU1305
 5599 12a8 5031     		adds	r1, r1, #80
 532:Lib/lvgl/src/themes/default/lv_theme_default.c ****     lv_style_set_border_color(&theme->styles.table_cell, theme->color_grey);
 5600              		.loc 1 532 5 discriminator 1 view .LVU1306
 5601 12aa DF4B     		ldr	r3, .L465
 5602 12ac 83FB0123 		smull	r2, r3, r3, r1
 5603 12b0 C917     		asrs	r1, r1, #31
 5604 12b2 C1EBA311 		rsb	r1, r1, r3, asr #6
 5605              	.L206:
 532:Lib/lvgl/src/themes/default/lv_theme_default.c ****     lv_style_set_border_color(&theme->styles.table_cell, theme->color_grey);
 5606              		.loc 1 532 5 discriminator 4 view .LVU1307
 5607 12b6 2846     		mov	r0, r5
 5608 12b8 FFF7FEFF 		bl	lv_style_set_border_width
 5609              	.LVL593:
 533:Lib/lvgl/src/themes/default/lv_theme_default.c ****     lv_style_set_border_side(&theme->styles.table_cell, LV_BORDER_SIDE_TOP | LV_BORDER_SIDE_BOTTOM)
 5610              		.loc 1 533 5 is_stmt 1 discriminator 4 view .LVU1308
 5611 12bc 94F83930 		ldrb	r3, [r4, #57]	@ zero_extendqisi2
 5612 12c0 94F83A20 		ldrb	r2, [r4, #58]	@ zero_extendqisi2
 5613 12c4 43EA0223 		orr	r3, r3, r2, lsl #8
 5614 12c8 94F83B10 		ldrb	r1, [r4, #59]	@ zero_extendqisi2
 5615 12cc 43EA0141 		orr	r1, r3, r1, lsl #16
 5616 12d0 2846     		mov	r0, r5
 5617 12d2 FFF7FEFF 		bl	lv_style_set_border_color
 5618              	.LVL594:
 534:Lib/lvgl/src/themes/default/lv_theme_default.c **** #endif
 5619              		.loc 1 534 5 discriminator 4 view .LVU1309
 5620 12d6 0321     		movs	r1, #3
 5621 12d8 2846     		mov	r0, r5
 5622 12da FFF7FEFF 		bl	lv_style_set_border_side
 5623              	.LVL595:
 538:Lib/lvgl/src/themes/default/lv_theme_default.c ****     lv_style_set_border_color(&theme->styles.ta_cursor, theme->color_text);
 5624              		.loc 1 538 5 discriminator 4 view .LVU1310
 5625 12de 04F50E75 		add	r5, r4, #568
 5626 12e2 2846     		mov	r0, r5
 5627 12e4 FFF7FEFF 		bl	style_init_reset
ARM GAS  C:\Users\Alex\AppData\Local\Temp\ccR26jun.s 			page 161


 5628              	.LVL596:
 539:Lib/lvgl/src/themes/default/lv_theme_default.c ****     lv_style_set_border_width(&theme->styles.ta_cursor, _LV_DPX_CALC(theme->disp_dpi, 2));
 5629              		.loc 1 539 5 discriminator 4 view .LVU1311
 5630 12e8 94F83330 		ldrb	r3, [r4, #51]	@ zero_extendqisi2
 5631 12ec 94F83420 		ldrb	r2, [r4, #52]	@ zero_extendqisi2
 5632 12f0 43EA0223 		orr	r3, r3, r2, lsl #8
 5633 12f4 94F83510 		ldrb	r1, [r4, #53]	@ zero_extendqisi2
 5634 12f8 43EA0141 		orr	r1, r3, r1, lsl #16
 5635 12fc 2846     		mov	r0, r5
 5636 12fe FFF7FEFF 		bl	lv_style_set_border_color
 5637              	.LVL597:
 540:Lib/lvgl/src/themes/default/lv_theme_default.c ****     lv_style_set_pad_left(&theme->styles.ta_cursor, - _LV_DPX_CALC(theme->disp_dpi, 1));
 5638              		.loc 1 540 5 discriminator 4 view .LVU1312
 540:Lib/lvgl/src/themes/default/lv_theme_default.c ****     lv_style_set_pad_left(&theme->styles.ta_cursor, - _LV_DPX_CALC(theme->disp_dpi, 1));
 5639              		.loc 1 540 57 is_stmt 0 discriminator 4 view .LVU1313
 5640 1302 E16A     		ldr	r1, [r4, #44]
 540:Lib/lvgl/src/themes/default/lv_theme_default.c ****     lv_style_set_pad_left(&theme->styles.ta_cursor, - _LV_DPX_CALC(theme->disp_dpi, 1));
 5641              		.loc 1 540 5 discriminator 4 view .LVU1314
 5642 1304 7729     		cmp	r1, #119
 5643 1306 40F3E582 		ble	.L357
 540:Lib/lvgl/src/themes/default/lv_theme_default.c ****     lv_style_set_pad_left(&theme->styles.ta_cursor, - _LV_DPX_CALC(theme->disp_dpi, 1));
 5644              		.loc 1 540 57 discriminator 1 view .LVU1315
 5645 130a 2831     		adds	r1, r1, #40
 540:Lib/lvgl/src/themes/default/lv_theme_default.c ****     lv_style_set_pad_left(&theme->styles.ta_cursor, - _LV_DPX_CALC(theme->disp_dpi, 1));
 5646              		.loc 1 540 5 discriminator 1 view .LVU1316
 5647 130c C64B     		ldr	r3, .L465
 5648 130e 83FB0123 		smull	r2, r3, r3, r1
 5649 1312 C917     		asrs	r1, r1, #31
 5650 1314 C1EB6311 		rsb	r1, r1, r3, asr #5
 5651              	.L207:
 540:Lib/lvgl/src/themes/default/lv_theme_default.c ****     lv_style_set_pad_left(&theme->styles.ta_cursor, - _LV_DPX_CALC(theme->disp_dpi, 1));
 5652              		.loc 1 540 5 discriminator 4 view .LVU1317
 5653 1318 2846     		mov	r0, r5
 5654 131a FFF7FEFF 		bl	lv_style_set_border_width
 5655              	.LVL598:
 541:Lib/lvgl/src/themes/default/lv_theme_default.c ****     lv_style_set_border_side(&theme->styles.ta_cursor, LV_BORDER_SIDE_LEFT);
 5656              		.loc 1 541 5 is_stmt 1 discriminator 4 view .LVU1318
 541:Lib/lvgl/src/themes/default/lv_theme_default.c ****     lv_style_set_border_side(&theme->styles.ta_cursor, LV_BORDER_SIDE_LEFT);
 5657              		.loc 1 541 55 is_stmt 0 discriminator 4 view .LVU1319
 5658 131e E16A     		ldr	r1, [r4, #44]
 541:Lib/lvgl/src/themes/default/lv_theme_default.c ****     lv_style_set_border_side(&theme->styles.ta_cursor, LV_BORDER_SIDE_LEFT);
 5659              		.loc 1 541 5 discriminator 4 view .LVU1320
 5660 1320 EF29     		cmp	r1, #239
 5661 1322 40F3D982 		ble	.L358
 541:Lib/lvgl/src/themes/default/lv_theme_default.c ****     lv_style_set_border_side(&theme->styles.ta_cursor, LV_BORDER_SIDE_LEFT);
 5662              		.loc 1 541 55 discriminator 1 view .LVU1321
 5663 1326 5031     		adds	r1, r1, #80
 541:Lib/lvgl/src/themes/default/lv_theme_default.c ****     lv_style_set_border_side(&theme->styles.ta_cursor, LV_BORDER_SIDE_LEFT);
 5664              		.loc 1 541 5 discriminator 1 view .LVU1322
 5665 1328 BF4B     		ldr	r3, .L465
 5666 132a 83FB0123 		smull	r2, r3, r3, r1
 5667 132e C917     		asrs	r1, r1, #31
 5668 1330 A1EBA311 		sub	r1, r1, r3, asr #6
 5669              	.L208:
 541:Lib/lvgl/src/themes/default/lv_theme_default.c ****     lv_style_set_border_side(&theme->styles.ta_cursor, LV_BORDER_SIDE_LEFT);
 5670              		.loc 1 541 5 discriminator 4 view .LVU1323
 5671 1334 2846     		mov	r0, r5
ARM GAS  C:\Users\Alex\AppData\Local\Temp\ccR26jun.s 			page 162


 5672 1336 FFF7FEFF 		bl	lv_style_set_pad_left
 5673              	.LVL599:
 542:Lib/lvgl/src/themes/default/lv_theme_default.c ****     lv_style_set_anim_duration(&theme->styles.ta_cursor, 400);
 5674              		.loc 1 542 5 is_stmt 1 discriminator 4 view .LVU1324
 5675 133a 0421     		movs	r1, #4
 5676 133c 2846     		mov	r0, r5
 5677 133e FFF7FEFF 		bl	lv_style_set_border_side
 5678              	.LVL600:
 543:Lib/lvgl/src/themes/default/lv_theme_default.c **** 
 5679              		.loc 1 543 5 discriminator 4 view .LVU1325
 5680 1342 4FF4C871 		mov	r1, #400
 5681 1346 2846     		mov	r0, r5
 5682 1348 FFF7FEFF 		bl	lv_style_set_anim_duration
 5683              	.LVL601:
 545:Lib/lvgl/src/themes/default/lv_theme_default.c ****     lv_style_set_text_color(&theme->styles.ta_placeholder,
 5684              		.loc 1 545 5 discriminator 4 view .LVU1326
 5685 134c 04F51175 		add	r5, r4, #580
 5686 1350 2846     		mov	r0, r5
 5687 1352 FFF7FEFF 		bl	style_init_reset
 5688              	.LVL602:
 546:Lib/lvgl/src/themes/default/lv_theme_default.c ****                             (theme->base.flags & MODE_DARK) ? lv_palette_darken(LV_PALETTE_GREY,
 5689              		.loc 1 546 5 discriminator 4 view .LVU1327
 547:Lib/lvgl/src/themes/default/lv_theme_default.c ****                                                                                 2) : lv_palette_lig
 5690              		.loc 1 547 41 is_stmt 0 discriminator 4 view .LVU1328
 5691 1356 636A     		ldr	r3, [r4, #36]
 546:Lib/lvgl/src/themes/default/lv_theme_default.c ****                             (theme->base.flags & MODE_DARK) ? lv_palette_darken(LV_PALETTE_GREY,
 5692              		.loc 1 546 5 discriminator 4 view .LVU1329
 5693 1358 13F0010F 		tst	r3, #1
 5694 135c 00F0BF82 		beq	.L209
 547:Lib/lvgl/src/themes/default/lv_theme_default.c ****                                                                                 2) : lv_palette_lig
 5695              		.loc 1 547 63 view .LVU1330
 5696 1360 0221     		movs	r1, #2
 5697 1362 1220     		movs	r0, #18
 5698 1364 FFF7FEFF 		bl	lv_palette_darken
 5699              	.LVL603:
 5700 1368 8DF83000 		strb	r0, [sp, #48]
 5701 136c C0F30723 		ubfx	r3, r0, #8, #8
 5702 1370 8DF83130 		strb	r3, [sp, #49]
 5703 1374 C0F30740 		ubfx	r0, r0, #16, #8
 5704 1378 8DF83200 		strb	r0, [sp, #50]
 5705              	.L210:
 546:Lib/lvgl/src/themes/default/lv_theme_default.c ****                             (theme->base.flags & MODE_DARK) ? lv_palette_darken(LV_PALETTE_GREY,
 5706              		.loc 1 546 5 view .LVU1331
 5707 137c 0C99     		ldr	r1, [sp, #48]
 5708 137e 2846     		mov	r0, r5
 5709 1380 FFF7FEFF 		bl	lv_style_set_text_color
 5710              	.LVL604:
 552:Lib/lvgl/src/themes/default/lv_theme_default.c ****     lv_style_set_pad_all(&theme->styles.calendar_btnm_bg, PAD_SMALL);
 5711              		.loc 1 552 5 is_stmt 1 view .LVU1332
 5712 1384 04F51475 		add	r5, r4, #592
 5713 1388 2846     		mov	r0, r5
 5714 138a FFF7FEFF 		bl	style_init_reset
 5715              	.LVL605:
 553:Lib/lvgl/src/themes/default/lv_theme_default.c ****     lv_style_set_pad_gap(&theme->styles.calendar_btnm_bg, PAD_SMALL / 2);
 5716              		.loc 1 553 5 view .LVU1333
 553:Lib/lvgl/src/themes/default/lv_theme_default.c ****     lv_style_set_pad_gap(&theme->styles.calendar_btnm_bg, PAD_SMALL / 2);
 5717              		.loc 1 553 59 is_stmt 0 view .LVU1334
ARM GAS  C:\Users\Alex\AppData\Local\Temp\ccR26jun.s 			page 163


 5718 138e E16A     		ldr	r1, [r4, #44]
 5719 1390 94F82830 		ldrb	r3, [r4, #40]	@ zero_extendqisi2
 5720 1394 012B     		cmp	r3, #1
 5721 1396 00F0B382 		beq	.L359
 553:Lib/lvgl/src/themes/default/lv_theme_default.c ****     lv_style_set_pad_gap(&theme->styles.calendar_btnm_bg, PAD_SMALL / 2);
 5722              		.loc 1 553 59 discriminator 1 view .LVU1335
 5723 139a 022B     		cmp	r3, #2
 5724 139c 00F0AE82 		beq	.L432
 553:Lib/lvgl/src/themes/default/lv_theme_default.c ****     lv_style_set_pad_gap(&theme->styles.calendar_btnm_bg, PAD_SMALL / 2);
 5725              		.loc 1 553 59 view .LVU1336
 5726 13a0 0A23     		movs	r3, #10
 5727              	.L211:
 553:Lib/lvgl/src/themes/default/lv_theme_default.c ****     lv_style_set_pad_gap(&theme->styles.calendar_btnm_bg, PAD_SMALL / 2);
 5728              		.loc 1 553 59 discriminator 8 view .LVU1337
 5729 13a2 03FB01F1 		mul	r1, r3, r1
 553:Lib/lvgl/src/themes/default/lv_theme_default.c ****     lv_style_set_pad_gap(&theme->styles.calendar_btnm_bg, PAD_SMALL / 2);
 5730              		.loc 1 553 5 discriminator 8 view .LVU1338
 5731 13a6 EF29     		cmp	r1, #239
 5732 13a8 40F3AC82 		ble	.L361
 553:Lib/lvgl/src/themes/default/lv_theme_default.c ****     lv_style_set_pad_gap(&theme->styles.calendar_btnm_bg, PAD_SMALL / 2);
 5733              		.loc 1 553 59 discriminator 18 view .LVU1339
 5734 13ac 5031     		adds	r1, r1, #80
 553:Lib/lvgl/src/themes/default/lv_theme_default.c ****     lv_style_set_pad_gap(&theme->styles.calendar_btnm_bg, PAD_SMALL / 2);
 5735              		.loc 1 553 5 discriminator 18 view .LVU1340
 5736 13ae 9E4B     		ldr	r3, .L465
 5737 13b0 83FB0123 		smull	r2, r3, r3, r1
 5738 13b4 C917     		asrs	r1, r1, #31
 5739 13b6 C1EBA311 		rsb	r1, r1, r3, asr #6
 5740              	.L212:
 553:Lib/lvgl/src/themes/default/lv_theme_default.c ****     lv_style_set_pad_gap(&theme->styles.calendar_btnm_bg, PAD_SMALL / 2);
 5741              		.loc 1 553 5 discriminator 20 view .LVU1341
 5742 13ba 2846     		mov	r0, r5
 5743 13bc FFF7FEFF 		bl	lv_style_set_pad_all
 5744              	.LVL606:
 554:Lib/lvgl/src/themes/default/lv_theme_default.c **** 
 5745              		.loc 1 554 5 is_stmt 1 discriminator 20 view .LVU1342
 554:Lib/lvgl/src/themes/default/lv_theme_default.c **** 
 5746              		.loc 1 554 59 is_stmt 0 discriminator 20 view .LVU1343
 5747 13c0 E16A     		ldr	r1, [r4, #44]
 5748 13c2 94F82830 		ldrb	r3, [r4, #40]	@ zero_extendqisi2
 5749 13c6 012B     		cmp	r3, #1
 5750 13c8 00F0A082 		beq	.L362
 554:Lib/lvgl/src/themes/default/lv_theme_default.c **** 
 5751              		.loc 1 554 59 discriminator 1 view .LVU1344
 5752 13cc 022B     		cmp	r3, #2
 5753 13ce 00F09B82 		beq	.L433
 554:Lib/lvgl/src/themes/default/lv_theme_default.c **** 
 5754              		.loc 1 554 59 view .LVU1345
 5755 13d2 0A23     		movs	r3, #10
 5756              	.L213:
 554:Lib/lvgl/src/themes/default/lv_theme_default.c **** 
 5757              		.loc 1 554 59 discriminator 8 view .LVU1346
 5758 13d4 03FB01F1 		mul	r1, r3, r1
 554:Lib/lvgl/src/themes/default/lv_theme_default.c **** 
 5759              		.loc 1 554 5 discriminator 8 view .LVU1347
 5760 13d8 EF29     		cmp	r1, #239
 5761 13da 40F39982 		ble	.L364
ARM GAS  C:\Users\Alex\AppData\Local\Temp\ccR26jun.s 			page 164


 554:Lib/lvgl/src/themes/default/lv_theme_default.c **** 
 5762              		.loc 1 554 59 discriminator 18 view .LVU1348
 5763 13de 5031     		adds	r1, r1, #80
 554:Lib/lvgl/src/themes/default/lv_theme_default.c **** 
 5764              		.loc 1 554 5 discriminator 18 view .LVU1349
 5765 13e0 914B     		ldr	r3, .L465
 5766 13e2 83FB0123 		smull	r2, r3, r3, r1
 5767 13e6 C917     		asrs	r1, r1, #31
 5768 13e8 C1EBE311 		rsb	r1, r1, r3, asr #7
 5769              	.L214:
 554:Lib/lvgl/src/themes/default/lv_theme_default.c **** 
 5770              		.loc 1 554 5 discriminator 20 view .LVU1350
 5771 13ec 2846     		mov	r0, r5
 5772 13ee FFF7FEFF 		bl	lv_style_set_pad_gap
 5773              	.LVL607:
 556:Lib/lvgl/src/themes/default/lv_theme_default.c ****     lv_style_set_border_width(&theme->styles.calendar_btnm_day, _LV_DPX_CALC(theme->disp_dpi, 1));
 5774              		.loc 1 556 5 is_stmt 1 discriminator 20 view .LVU1351
 5775 13f2 04F51775 		add	r5, r4, #604
 5776 13f6 2846     		mov	r0, r5
 5777 13f8 FFF7FEFF 		bl	style_init_reset
 5778              	.LVL608:
 557:Lib/lvgl/src/themes/default/lv_theme_default.c ****     lv_style_set_border_color(&theme->styles.calendar_btnm_day, theme->color_grey);
 5779              		.loc 1 557 5 discriminator 20 view .LVU1352
 557:Lib/lvgl/src/themes/default/lv_theme_default.c ****     lv_style_set_border_color(&theme->styles.calendar_btnm_day, theme->color_grey);
 5780              		.loc 1 557 65 is_stmt 0 discriminator 20 view .LVU1353
 5781 13fc E16A     		ldr	r1, [r4, #44]
 557:Lib/lvgl/src/themes/default/lv_theme_default.c ****     lv_style_set_border_color(&theme->styles.calendar_btnm_day, theme->color_grey);
 5782              		.loc 1 557 5 discriminator 20 view .LVU1354
 5783 13fe EF29     		cmp	r1, #239
 5784 1400 40F38882 		ble	.L365
 557:Lib/lvgl/src/themes/default/lv_theme_default.c ****     lv_style_set_border_color(&theme->styles.calendar_btnm_day, theme->color_grey);
 5785              		.loc 1 557 65 discriminator 1 view .LVU1355
 5786 1404 5031     		adds	r1, r1, #80
 557:Lib/lvgl/src/themes/default/lv_theme_default.c ****     lv_style_set_border_color(&theme->styles.calendar_btnm_day, theme->color_grey);
 5787              		.loc 1 557 5 discriminator 1 view .LVU1356
 5788 1406 884B     		ldr	r3, .L465
 5789 1408 83FB0123 		smull	r2, r3, r3, r1
 5790 140c C917     		asrs	r1, r1, #31
 5791 140e C1EBA311 		rsb	r1, r1, r3, asr #6
 5792              	.L215:
 557:Lib/lvgl/src/themes/default/lv_theme_default.c ****     lv_style_set_border_color(&theme->styles.calendar_btnm_day, theme->color_grey);
 5793              		.loc 1 557 5 discriminator 4 view .LVU1357
 5794 1412 2846     		mov	r0, r5
 5795 1414 FFF7FEFF 		bl	lv_style_set_border_width
 5796              	.LVL609:
 558:Lib/lvgl/src/themes/default/lv_theme_default.c ****     lv_style_set_bg_color(&theme->styles.calendar_btnm_day, theme->color_card);
 5797              		.loc 1 558 5 is_stmt 1 discriminator 4 view .LVU1358
 5798 1418 94F83930 		ldrb	r3, [r4, #57]	@ zero_extendqisi2
 5799 141c 94F83A20 		ldrb	r2, [r4, #58]	@ zero_extendqisi2
 5800 1420 43EA0223 		orr	r3, r3, r2, lsl #8
 5801 1424 94F83B10 		ldrb	r1, [r4, #59]	@ zero_extendqisi2
 5802 1428 43EA0141 		orr	r1, r3, r1, lsl #16
 5803 142c 2846     		mov	r0, r5
 5804 142e FFF7FEFF 		bl	lv_style_set_border_color
 5805              	.LVL610:
 559:Lib/lvgl/src/themes/default/lv_theme_default.c ****     lv_style_set_bg_opa(&theme->styles.calendar_btnm_day, LV_OPA_20);
 5806              		.loc 1 559 5 discriminator 4 view .LVU1359
ARM GAS  C:\Users\Alex\AppData\Local\Temp\ccR26jun.s 			page 165


 5807 1432 E38E     		ldrh	r3, [r4, #54]
 5808 1434 94F83810 		ldrb	r1, [r4, #56]	@ zero_extendqisi2
 5809 1438 43EA0141 		orr	r1, r3, r1, lsl #16
 5810 143c 2846     		mov	r0, r5
 5811 143e FFF7FEFF 		bl	lv_style_set_bg_color
 5812              	.LVL611:
 560:Lib/lvgl/src/themes/default/lv_theme_default.c **** 
 5813              		.loc 1 560 5 discriminator 4 view .LVU1360
 5814 1442 3321     		movs	r1, #51
 5815 1444 2846     		mov	r0, r5
 5816 1446 FFF7FEFF 		bl	lv_style_set_bg_opa
 5817              	.LVL612:
 562:Lib/lvgl/src/themes/default/lv_theme_default.c ****     lv_style_set_pad_hor(&theme->styles.calendar_header, PAD_SMALL);
 5818              		.loc 1 562 5 discriminator 4 view .LVU1361
 5819 144a 04F51A75 		add	r5, r4, #616
 5820 144e 2846     		mov	r0, r5
 5821 1450 FFF7FEFF 		bl	style_init_reset
 5822              	.LVL613:
 563:Lib/lvgl/src/themes/default/lv_theme_default.c ****     lv_style_set_pad_top(&theme->styles.calendar_header, PAD_SMALL);
 5823              		.loc 1 563 5 discriminator 4 view .LVU1362
 563:Lib/lvgl/src/themes/default/lv_theme_default.c ****     lv_style_set_pad_top(&theme->styles.calendar_header, PAD_SMALL);
 5824              		.loc 1 563 58 is_stmt 0 discriminator 4 view .LVU1363
 5825 1454 E16A     		ldr	r1, [r4, #44]
 5826 1456 94F82830 		ldrb	r3, [r4, #40]	@ zero_extendqisi2
 5827 145a 012B     		cmp	r3, #1
 5828 145c 00F05E82 		beq	.L366
 563:Lib/lvgl/src/themes/default/lv_theme_default.c ****     lv_style_set_pad_top(&theme->styles.calendar_header, PAD_SMALL);
 5829              		.loc 1 563 58 discriminator 1 view .LVU1364
 5830 1460 022B     		cmp	r3, #2
 5831 1462 00F05982 		beq	.L434
 563:Lib/lvgl/src/themes/default/lv_theme_default.c ****     lv_style_set_pad_top(&theme->styles.calendar_header, PAD_SMALL);
 5832              		.loc 1 563 58 view .LVU1365
 5833 1466 0A23     		movs	r3, #10
 5834              	.L216:
 563:Lib/lvgl/src/themes/default/lv_theme_default.c ****     lv_style_set_pad_top(&theme->styles.calendar_header, PAD_SMALL);
 5835              		.loc 1 563 58 discriminator 8 view .LVU1366
 5836 1468 03FB01F1 		mul	r1, r3, r1
 563:Lib/lvgl/src/themes/default/lv_theme_default.c ****     lv_style_set_pad_top(&theme->styles.calendar_header, PAD_SMALL);
 5837              		.loc 1 563 5 discriminator 8 view .LVU1367
 5838 146c EF29     		cmp	r1, #239
 5839 146e 40F35782 		ble	.L368
 563:Lib/lvgl/src/themes/default/lv_theme_default.c ****     lv_style_set_pad_top(&theme->styles.calendar_header, PAD_SMALL);
 5840              		.loc 1 563 58 discriminator 18 view .LVU1368
 5841 1472 5031     		adds	r1, r1, #80
 563:Lib/lvgl/src/themes/default/lv_theme_default.c ****     lv_style_set_pad_top(&theme->styles.calendar_header, PAD_SMALL);
 5842              		.loc 1 563 5 discriminator 18 view .LVU1369
 5843 1474 6C4B     		ldr	r3, .L465
 5844 1476 83FB0123 		smull	r2, r3, r3, r1
 5845 147a C917     		asrs	r1, r1, #31
 5846 147c C1EBA311 		rsb	r1, r1, r3, asr #6
 5847              	.L217:
 563:Lib/lvgl/src/themes/default/lv_theme_default.c ****     lv_style_set_pad_top(&theme->styles.calendar_header, PAD_SMALL);
 5848              		.loc 1 563 5 discriminator 20 view .LVU1370
 5849 1480 2846     		mov	r0, r5
 5850 1482 FFF7FEFF 		bl	lv_style_set_pad_hor
 5851              	.LVL614:
 564:Lib/lvgl/src/themes/default/lv_theme_default.c ****     lv_style_set_pad_bottom(&theme->styles.calendar_header, PAD_TINY);
ARM GAS  C:\Users\Alex\AppData\Local\Temp\ccR26jun.s 			page 166


 5852              		.loc 1 564 5 is_stmt 1 discriminator 20 view .LVU1371
 564:Lib/lvgl/src/themes/default/lv_theme_default.c ****     lv_style_set_pad_bottom(&theme->styles.calendar_header, PAD_TINY);
 5853              		.loc 1 564 58 is_stmt 0 discriminator 20 view .LVU1372
 5854 1486 E16A     		ldr	r1, [r4, #44]
 5855 1488 94F82830 		ldrb	r3, [r4, #40]	@ zero_extendqisi2
 5856 148c 012B     		cmp	r3, #1
 5857 148e 00F04B82 		beq	.L369
 564:Lib/lvgl/src/themes/default/lv_theme_default.c ****     lv_style_set_pad_bottom(&theme->styles.calendar_header, PAD_TINY);
 5858              		.loc 1 564 58 discriminator 1 view .LVU1373
 5859 1492 022B     		cmp	r3, #2
 5860 1494 00F04682 		beq	.L435
 564:Lib/lvgl/src/themes/default/lv_theme_default.c ****     lv_style_set_pad_bottom(&theme->styles.calendar_header, PAD_TINY);
 5861              		.loc 1 564 58 view .LVU1374
 5862 1498 0A23     		movs	r3, #10
 5863              	.L218:
 564:Lib/lvgl/src/themes/default/lv_theme_default.c ****     lv_style_set_pad_bottom(&theme->styles.calendar_header, PAD_TINY);
 5864              		.loc 1 564 58 discriminator 8 view .LVU1375
 5865 149a 03FB01F1 		mul	r1, r3, r1
 564:Lib/lvgl/src/themes/default/lv_theme_default.c ****     lv_style_set_pad_bottom(&theme->styles.calendar_header, PAD_TINY);
 5866              		.loc 1 564 5 discriminator 8 view .LVU1376
 5867 149e EF29     		cmp	r1, #239
 5868 14a0 40F34482 		ble	.L371
 564:Lib/lvgl/src/themes/default/lv_theme_default.c ****     lv_style_set_pad_bottom(&theme->styles.calendar_header, PAD_TINY);
 5869              		.loc 1 564 58 discriminator 18 view .LVU1377
 5870 14a4 5031     		adds	r1, r1, #80
 564:Lib/lvgl/src/themes/default/lv_theme_default.c ****     lv_style_set_pad_bottom(&theme->styles.calendar_header, PAD_TINY);
 5871              		.loc 1 564 5 discriminator 18 view .LVU1378
 5872 14a6 604B     		ldr	r3, .L465
 5873 14a8 83FB0123 		smull	r2, r3, r3, r1
 5874 14ac C917     		asrs	r1, r1, #31
 5875 14ae C1EBA311 		rsb	r1, r1, r3, asr #6
 5876              	.L219:
 564:Lib/lvgl/src/themes/default/lv_theme_default.c ****     lv_style_set_pad_bottom(&theme->styles.calendar_header, PAD_TINY);
 5877              		.loc 1 564 5 discriminator 20 view .LVU1379
 5878 14b2 2846     		mov	r0, r5
 5879 14b4 FFF7FEFF 		bl	lv_style_set_pad_top
 5880              	.LVL615:
 565:Lib/lvgl/src/themes/default/lv_theme_default.c ****     lv_style_set_pad_gap(&theme->styles.calendar_header, PAD_SMALL);
 5881              		.loc 1 565 5 is_stmt 1 discriminator 20 view .LVU1380
 565:Lib/lvgl/src/themes/default/lv_theme_default.c ****     lv_style_set_pad_gap(&theme->styles.calendar_header, PAD_SMALL);
 5882              		.loc 1 565 61 is_stmt 0 discriminator 20 view .LVU1381
 5883 14b8 E16A     		ldr	r1, [r4, #44]
 5884 14ba 94F82830 		ldrb	r3, [r4, #40]	@ zero_extendqisi2
 5885 14be 012B     		cmp	r3, #1
 5886 14c0 00F03882 		beq	.L372
 565:Lib/lvgl/src/themes/default/lv_theme_default.c ****     lv_style_set_pad_gap(&theme->styles.calendar_header, PAD_SMALL);
 5887              		.loc 1 565 61 discriminator 1 view .LVU1382
 5888 14c4 022B     		cmp	r3, #2
 5889 14c6 00F03382 		beq	.L436
 565:Lib/lvgl/src/themes/default/lv_theme_default.c ****     lv_style_set_pad_gap(&theme->styles.calendar_header, PAD_SMALL);
 5890              		.loc 1 565 61 view .LVU1383
 5891 14ca 0223     		movs	r3, #2
 5892              	.L220:
 565:Lib/lvgl/src/themes/default/lv_theme_default.c ****     lv_style_set_pad_gap(&theme->styles.calendar_header, PAD_SMALL);
 5893              		.loc 1 565 61 discriminator 8 view .LVU1384
 5894 14cc 03FB01F1 		mul	r1, r3, r1
 565:Lib/lvgl/src/themes/default/lv_theme_default.c ****     lv_style_set_pad_gap(&theme->styles.calendar_header, PAD_SMALL);
ARM GAS  C:\Users\Alex\AppData\Local\Temp\ccR26jun.s 			page 167


 5895              		.loc 1 565 5 discriminator 8 view .LVU1385
 5896 14d0 EF29     		cmp	r1, #239
 5897 14d2 40F33182 		ble	.L374
 565:Lib/lvgl/src/themes/default/lv_theme_default.c ****     lv_style_set_pad_gap(&theme->styles.calendar_header, PAD_SMALL);
 5898              		.loc 1 565 61 discriminator 18 view .LVU1386
 5899 14d6 5031     		adds	r1, r1, #80
 565:Lib/lvgl/src/themes/default/lv_theme_default.c ****     lv_style_set_pad_gap(&theme->styles.calendar_header, PAD_SMALL);
 5900              		.loc 1 565 5 discriminator 18 view .LVU1387
 5901 14d8 534B     		ldr	r3, .L465
 5902 14da 83FB0123 		smull	r2, r3, r3, r1
 5903 14de C917     		asrs	r1, r1, #31
 5904 14e0 C1EBA311 		rsb	r1, r1, r3, asr #6
 5905              	.L221:
 565:Lib/lvgl/src/themes/default/lv_theme_default.c ****     lv_style_set_pad_gap(&theme->styles.calendar_header, PAD_SMALL);
 5906              		.loc 1 565 5 discriminator 20 view .LVU1388
 5907 14e4 2846     		mov	r0, r5
 5908 14e6 FFF7FEFF 		bl	lv_style_set_pad_bottom
 5909              	.LVL616:
 566:Lib/lvgl/src/themes/default/lv_theme_default.c **** #endif
 5910              		.loc 1 566 5 is_stmt 1 discriminator 20 view .LVU1389
 566:Lib/lvgl/src/themes/default/lv_theme_default.c **** #endif
 5911              		.loc 1 566 58 is_stmt 0 discriminator 20 view .LVU1390
 5912 14ea E16A     		ldr	r1, [r4, #44]
 5913 14ec 94F82830 		ldrb	r3, [r4, #40]	@ zero_extendqisi2
 5914 14f0 012B     		cmp	r3, #1
 5915 14f2 00F02582 		beq	.L375
 566:Lib/lvgl/src/themes/default/lv_theme_default.c **** #endif
 5916              		.loc 1 566 58 discriminator 1 view .LVU1391
 5917 14f6 022B     		cmp	r3, #2
 5918 14f8 00F02082 		beq	.L437
 566:Lib/lvgl/src/themes/default/lv_theme_default.c **** #endif
 5919              		.loc 1 566 58 view .LVU1392
 5920 14fc 0A23     		movs	r3, #10
 5921              	.L222:
 566:Lib/lvgl/src/themes/default/lv_theme_default.c **** #endif
 5922              		.loc 1 566 58 discriminator 8 view .LVU1393
 5923 14fe 03FB01F1 		mul	r1, r3, r1
 566:Lib/lvgl/src/themes/default/lv_theme_default.c **** #endif
 5924              		.loc 1 566 5 discriminator 8 view .LVU1394
 5925 1502 EF29     		cmp	r1, #239
 5926 1504 40F31E82 		ble	.L377
 566:Lib/lvgl/src/themes/default/lv_theme_default.c **** #endif
 5927              		.loc 1 566 58 discriminator 18 view .LVU1395
 5928 1508 5031     		adds	r1, r1, #80
 566:Lib/lvgl/src/themes/default/lv_theme_default.c **** #endif
 5929              		.loc 1 566 5 discriminator 18 view .LVU1396
 5930 150a 474B     		ldr	r3, .L465
 5931 150c 83FB0123 		smull	r2, r3, r3, r1
 5932 1510 C917     		asrs	r1, r1, #31
 5933 1512 C1EBA311 		rsb	r1, r1, r3, asr #6
 5934              	.L223:
 566:Lib/lvgl/src/themes/default/lv_theme_default.c **** #endif
 5935              		.loc 1 566 5 discriminator 20 view .LVU1397
 5936 1516 2846     		mov	r0, r5
 5937 1518 FFF7FEFF 		bl	lv_style_set_pad_gap
 5938              	.LVL617:
 570:Lib/lvgl/src/themes/default/lv_theme_default.c ****     lv_style_set_bg_color(&theme->styles.msgbox_backdrop_bg, lv_palette_main(LV_PALETTE_GREY));
ARM GAS  C:\Users\Alex\AppData\Local\Temp\ccR26jun.s 			page 168


 5939              		.loc 1 570 5 is_stmt 1 discriminator 20 view .LVU1398
 5940 151c 04F53B75 		add	r5, r4, #748
 5941 1520 2846     		mov	r0, r5
 5942 1522 FFF7FEFF 		bl	style_init_reset
 5943              	.LVL618:
 571:Lib/lvgl/src/themes/default/lv_theme_default.c ****     lv_style_set_bg_opa(&theme->styles.msgbox_backdrop_bg, LV_OPA_50);
 5944              		.loc 1 571 5 discriminator 20 view .LVU1399
 5945 1526 1220     		movs	r0, #18
 5946 1528 FFF7FEFF 		bl	lv_palette_main
 5947              	.LVL619:
 5948 152c 8DF83400 		strb	r0, [sp, #52]
 5949 1530 C0F30723 		ubfx	r3, r0, #8, #8
 5950 1534 8DF83530 		strb	r3, [sp, #53]
 5951 1538 C0F30740 		ubfx	r0, r0, #16, #8
 5952 153c 8DF83600 		strb	r0, [sp, #54]
 5953 1540 0D99     		ldr	r1, [sp, #52]
 5954 1542 2846     		mov	r0, r5
 5955 1544 FFF7FEFF 		bl	lv_style_set_bg_color
 5956              	.LVL620:
 572:Lib/lvgl/src/themes/default/lv_theme_default.c **** #endif
 5957              		.loc 1 572 5 discriminator 20 view .LVU1400
 5958 1548 7F21     		movs	r1, #127
 5959 154a 2846     		mov	r0, r5
 5960 154c FFF7FEFF 		bl	lv_style_set_bg_opa
 5961              	.LVL621:
 575:Lib/lvgl/src/themes/default/lv_theme_default.c ****     lv_style_set_shadow_width(&theme->styles.keyboard_button_bg, 0);
 5962              		.loc 1 575 5 discriminator 20 view .LVU1401
 5963 1550 04F53E75 		add	r5, r4, #760
 5964 1554 2846     		mov	r0, r5
 5965 1556 FFF7FEFF 		bl	style_init_reset
 5966              	.LVL622:
 576:Lib/lvgl/src/themes/default/lv_theme_default.c ****     lv_style_set_radius(&theme->styles.keyboard_button_bg,
 5967              		.loc 1 576 5 discriminator 20 view .LVU1402
 5968 155a 0021     		movs	r1, #0
 5969 155c 2846     		mov	r0, r5
 5970 155e FFF7FEFF 		bl	lv_style_set_shadow_width
 5971              	.LVL623:
 577:Lib/lvgl/src/themes/default/lv_theme_default.c ****                         theme->disp_size == DISP_SMALL ? RADIUS_DEFAULT / 2 : RADIUS_DEFAULT);
 5972              		.loc 1 577 5 discriminator 20 view .LVU1403
 578:Lib/lvgl/src/themes/default/lv_theme_default.c **** #endif
 5973              		.loc 1 578 30 is_stmt 0 discriminator 20 view .LVU1404
 5974 1562 94F82830 		ldrb	r3, [r4, #40]	@ zero_extendqisi2
 577:Lib/lvgl/src/themes/default/lv_theme_default.c ****                         theme->disp_size == DISP_SMALL ? RADIUS_DEFAULT / 2 : RADIUS_DEFAULT);
 5975              		.loc 1 577 5 discriminator 20 view .LVU1405
 5976 1566 032B     		cmp	r3, #3
 5977 1568 00F0EE81 		beq	.L438
 578:Lib/lvgl/src/themes/default/lv_theme_default.c **** #endif
 5978              		.loc 1 578 79 view .LVU1406
 5979 156c E16A     		ldr	r1, [r4, #44]
 5980 156e 012B     		cmp	r3, #1
 5981 1570 00F0FC81 		beq	.L439
 5982 1574 0823     		movs	r3, #8
 5983              	.L227:
 578:Lib/lvgl/src/themes/default/lv_theme_default.c **** #endif
 5984              		.loc 1 578 79 discriminator 14 view .LVU1407
 5985 1576 03FB01F1 		mul	r1, r3, r1
 5986 157a EF29     		cmp	r1, #239
ARM GAS  C:\Users\Alex\AppData\Local\Temp\ccR26jun.s 			page 169


 5987 157c 40F3FC81 		ble	.L381
 578:Lib/lvgl/src/themes/default/lv_theme_default.c **** #endif
 5988              		.loc 1 578 79 discriminator 20 view .LVU1408
 5989 1580 5031     		adds	r1, r1, #80
 5990 1582 294B     		ldr	r3, .L465
 5991 1584 83FB0123 		smull	r2, r3, r3, r1
 5992 1588 C917     		asrs	r1, r1, #31
 5993 158a C1EBA311 		rsb	r1, r1, r3, asr #6
 5994 158e F4E1     		b	.L226
 5995              	.LVL624:
 5996              	.L403:
 264:Lib/lvgl/src/themes/default/lv_theme_default.c ****     lv_style_set_pad_column(&theme->styles.scr, PAD_SMALL);
 5997              		.loc 1 264 46 view .LVU1409
 5998 1590 0C23     		movs	r3, #12
 5999 1592 FEF7B2BE 		b	.L120
 6000              	.L246:
 6001 1596 0E23     		movs	r3, #14
 6002 1598 FEF7AFBE 		b	.L120
 6003              	.L248:
 264:Lib/lvgl/src/themes/default/lv_theme_default.c ****     lv_style_set_pad_column(&theme->styles.scr, PAD_SMALL);
 6004              		.loc 1 264 5 view .LVU1410
 6005 159c 0121     		movs	r1, #1
 6006 159e FEF7B8BE 		b	.L121
 6007              	.L404:
 265:Lib/lvgl/src/themes/default/lv_theme_default.c **** 
 6008              		.loc 1 265 49 view .LVU1411
 6009 15a2 0C23     		movs	r3, #12
 6010 15a4 FEF7C2BE 		b	.L122
 6011              	.L249:
 6012 15a8 0E23     		movs	r3, #14
 6013 15aa FEF7BFBE 		b	.L122
 6014              	.L251:
 265:Lib/lvgl/src/themes/default/lv_theme_default.c **** 
 6015              		.loc 1 265 5 view .LVU1412
 6016 15ae 0121     		movs	r1, #1
 6017 15b0 FEF7C8BE 		b	.L123
 6018              	.L405:
 268:Lib/lvgl/src/themes/default/lv_theme_default.c ****     lv_style_set_bg_opa(&theme->styles.card, LV_OPA_COVER);
 6019              		.loc 1 268 46 view .LVU1413
 6020 15b4 0C23     		movs	r3, #12
 6021 15b6 FEF7D4BE 		b	.L124
 6022              	.L253:
 268:Lib/lvgl/src/themes/default/lv_theme_default.c ****     lv_style_set_bg_opa(&theme->styles.card, LV_OPA_COVER);
 6023              		.loc 1 268 5 view .LVU1414
 6024 15ba 0121     		movs	r1, #1
 6025 15bc FEF7DDBE 		b	.L125
 6026              	.L254:
 272:Lib/lvgl/src/themes/default/lv_theme_default.c ****     lv_style_set_border_post(&theme->styles.card, true);
 6027              		.loc 1 272 5 view .LVU1415
 6028 15c0 0121     		movs	r1, #1
 6029 15c2 FEF701BF 		b	.L126
 6030              	.L406:
 275:Lib/lvgl/src/themes/default/lv_theme_default.c ****     lv_style_set_pad_row(&theme->styles.card, PAD_SMALL);
 6031              		.loc 1 275 47 view .LVU1416
 6032 15c6 1423     		movs	r3, #20
 6033 15c8 FEF71CBF 		b	.L127
 6034              	.L255:
ARM GAS  C:\Users\Alex\AppData\Local\Temp\ccR26jun.s 			page 170


 6035 15cc 1823     		movs	r3, #24
 6036 15ce FEF719BF 		b	.L127
 6037              	.L257:
 275:Lib/lvgl/src/themes/default/lv_theme_default.c ****     lv_style_set_pad_row(&theme->styles.card, PAD_SMALL);
 6038              		.loc 1 275 5 view .LVU1417
 6039 15d2 0121     		movs	r1, #1
 6040 15d4 FEF722BF 		b	.L128
 6041              	.L407:
 276:Lib/lvgl/src/themes/default/lv_theme_default.c ****     lv_style_set_pad_column(&theme->styles.card, PAD_SMALL);
 6042              		.loc 1 276 47 view .LVU1418
 6043 15d8 0C23     		movs	r3, #12
 6044 15da FEF72CBF 		b	.L129
 6045              	.L258:
 6046 15de 0E23     		movs	r3, #14
 6047 15e0 FEF729BF 		b	.L129
 6048              	.L260:
 276:Lib/lvgl/src/themes/default/lv_theme_default.c ****     lv_style_set_pad_column(&theme->styles.card, PAD_SMALL);
 6049              		.loc 1 276 5 view .LVU1419
 6050 15e4 0121     		movs	r1, #1
 6051 15e6 FEF732BF 		b	.L130
 6052              	.L408:
 277:Lib/lvgl/src/themes/default/lv_theme_default.c ****     lv_style_set_line_color(&theme->styles.card, lv_palette_main(LV_PALETTE_GREY));
 6053              		.loc 1 277 50 view .LVU1420
 6054 15ea 0C23     		movs	r3, #12
 6055 15ec FEF73CBF 		b	.L131
 6056              	.L261:
 6057 15f0 0E23     		movs	r3, #14
 6058 15f2 FEF739BF 		b	.L131
 6059              	.L263:
 277:Lib/lvgl/src/themes/default/lv_theme_default.c ****     lv_style_set_line_color(&theme->styles.card, lv_palette_main(LV_PALETTE_GREY));
 6060              		.loc 1 277 5 view .LVU1421
 6061 15f6 0121     		movs	r1, #1
 6062 15f8 FEF742BF 		b	.L132
 6063              	.L264:
 279:Lib/lvgl/src/themes/default/lv_theme_default.c **** 
 6064              		.loc 1 279 5 view .LVU1422
 6065 15fc 0121     		movs	r1, #1
 6066 15fe FEF75EBF 		b	.L133
 6067              	.L265:
 283:Lib/lvgl/src/themes/default/lv_theme_default.c ****     lv_style_set_outline_pad(&theme->styles.outline_primary, OUTLINE_WIDTH);
 6068              		.loc 1 283 5 view .LVU1423
 6069 1602 0121     		movs	r1, #1
 6070 1604 FEF774BF 		b	.L134
 6071              	.L266:
 284:Lib/lvgl/src/themes/default/lv_theme_default.c ****     lv_style_set_outline_opa(&theme->styles.outline_primary, LV_OPA_50);
 6072              		.loc 1 284 5 view .LVU1424
 6073 1608 0121     		movs	r1, #1
 6074 160a FEF781BF 		b	.L135
 6075              	.L267:
 289:Lib/lvgl/src/themes/default/lv_theme_default.c ****     lv_style_set_outline_opa(&theme->styles.outline_secondary, LV_OPA_50);
 6076              		.loc 1 289 5 view .LVU1425
 6077 160e 0121     		movs	r1, #1
 6078 1610 FEF7A1BF 		b	.L136
 6079              	.L409:
 294:Lib/lvgl/src/themes/default/lv_theme_default.c ****     lv_style_set_bg_opa(&theme->styles.btn, LV_OPA_COVER);
 6080              		.loc 1 294 25 view .LVU1426
 6081 1614 0C23     		movs	r3, #12
ARM GAS  C:\Users\Alex\AppData\Local\Temp\ccR26jun.s 			page 171


 6082 1616 FEF7B4BF 		b	.L137
 6083              	.L268:
 6084 161a 1023     		movs	r3, #16
 6085 161c FEF7B1BF 		b	.L137
 6086              	.L270:
 293:Lib/lvgl/src/themes/default/lv_theme_default.c ****                         _LV_DPX_CALC(theme->disp_dpi, theme->disp_size == DISP_LARGE ? 16 : theme->
 6087              		.loc 1 293 5 view .LVU1427
 6088 1620 0121     		movs	r1, #1
 6089 1622 FEF7BABF 		b	.L138
 6090              	.L466:
 6091 1626 00BF     		.align	2
 6092              	.L465:
 6093 1628 67666666 		.word	1717986919
 6094              	.L410:
 298:Lib/lvgl/src/themes/default/lv_theme_default.c ****         lv_style_set_shadow_width(&theme->styles.btn, LV_DPX(3));
 6095              		.loc 1 298 9 is_stmt 1 view .LVU1428
 6096 162c 1220     		movs	r0, #18
 6097 162e FFF7FEFF 		bl	lv_palette_main
 6098              	.LVL625:
 6099 1632 8DF81800 		strb	r0, [sp, #24]
 6100 1636 C0F30723 		ubfx	r3, r0, #8, #8
 6101 163a 8DF81930 		strb	r3, [sp, #25]
 6102 163e C0F30740 		ubfx	r0, r0, #16, #8
 6103 1642 8DF81A00 		strb	r0, [sp, #26]
 6104 1646 0699     		ldr	r1, [sp, #24]
 6105 1648 2846     		mov	r0, r5
 6106 164a FFF7FEFF 		bl	lv_style_set_shadow_color
 6107              	.LVL626:
 299:Lib/lvgl/src/themes/default/lv_theme_default.c ****         lv_style_set_shadow_opa(&theme->styles.btn, LV_OPA_50);
 6108              		.loc 1 299 9 view .LVU1429
 299:Lib/lvgl/src/themes/default/lv_theme_default.c ****         lv_style_set_shadow_opa(&theme->styles.btn, LV_OPA_50);
 6109              		.loc 1 299 55 is_stmt 0 view .LVU1430
 6110 164e 0020     		movs	r0, #0
 6111 1650 FFF7FEFF 		bl	lv_display_get_dpi
 6112              	.LVL627:
 6113 1654 00EB4000 		add	r0, r0, r0, lsl #1
 299:Lib/lvgl/src/themes/default/lv_theme_default.c ****         lv_style_set_shadow_opa(&theme->styles.btn, LV_OPA_50);
 6114              		.loc 1 299 9 view .LVU1431
 6115 1658 EF28     		cmp	r0, #239
 6116 165a 23DC     		bgt	.L440
 6117 165c 0121     		movs	r1, #1
 6118              	.L140:
 299:Lib/lvgl/src/themes/default/lv_theme_default.c ****         lv_style_set_shadow_opa(&theme->styles.btn, LV_OPA_50);
 6119              		.loc 1 299 9 discriminator 4 view .LVU1432
 6120 165e 2846     		mov	r0, r5
 6121 1660 FFF7FEFF 		bl	lv_style_set_shadow_width
 6122              	.LVL628:
 300:Lib/lvgl/src/themes/default/lv_theme_default.c ****         lv_style_set_shadow_offset_y(&theme->styles.btn, _LV_DPX_CALC(theme->disp_dpi, LV_DPX(4)));
 6123              		.loc 1 300 9 is_stmt 1 discriminator 4 view .LVU1433
 6124 1664 7F21     		movs	r1, #127
 6125 1666 2846     		mov	r0, r5
 6126 1668 FFF7FEFF 		bl	lv_style_set_shadow_opa
 6127              	.LVL629:
 301:Lib/lvgl/src/themes/default/lv_theme_default.c ****     }
 6128              		.loc 1 301 9 discriminator 4 view .LVU1434
 301:Lib/lvgl/src/themes/default/lv_theme_default.c ****     }
 6129              		.loc 1 301 58 is_stmt 0 discriminator 4 view .LVU1435
ARM GAS  C:\Users\Alex\AppData\Local\Temp\ccR26jun.s 			page 172


 6130 166c 0020     		movs	r0, #0
 6131 166e FFF7FEFF 		bl	lv_display_get_dpi
 6132              	.LVL630:
 301:Lib/lvgl/src/themes/default/lv_theme_default.c ****     }
 6133              		.loc 1 301 9 discriminator 4 view .LVU1436
 6134 1672 3B28     		cmp	r0, #59
 6135 1674 05DD     		ble	.L141
 301:Lib/lvgl/src/themes/default/lv_theme_default.c ****     }
 6136              		.loc 1 301 58 discriminator 2 view .LVU1437
 6137 1676 0020     		movs	r0, #0
 6138 1678 FFF7FEFF 		bl	lv_display_get_dpi
 6139              	.LVL631:
 6140 167c 3B30     		adds	r0, r0, #59
 6141 167e 4E28     		cmp	r0, #78
 6142 1680 45D9     		bls	.L272
 6143              	.L141:
 301:Lib/lvgl/src/themes/default/lv_theme_default.c ****     }
 6144              		.loc 1 301 58 discriminator 3 view .LVU1438
 6145 1682 E66A     		ldr	r6, [r4, #44]
 6146 1684 0020     		movs	r0, #0
 6147 1686 FFF7FEFF 		bl	lv_display_get_dpi
 6148              	.LVL632:
 6149 168a 3B28     		cmp	r0, #59
 6150 168c 18DC     		bgt	.L441
 301:Lib/lvgl/src/themes/default/lv_theme_default.c ****     }
 6151              		.loc 1 301 58 view .LVU1439
 6152 168e 0123     		movs	r3, #1
 6153              	.L143:
 301:Lib/lvgl/src/themes/default/lv_theme_default.c ****     }
 6154              		.loc 1 301 58 discriminator 8 view .LVU1440
 6155 1690 03FB06F6 		mul	r6, r3, r6
 6156 1694 EF2E     		cmp	r6, #239
 6157 1696 1EDC     		bgt	.L442
 301:Lib/lvgl/src/themes/default/lv_theme_default.c ****     }
 6158              		.loc 1 301 58 view .LVU1441
 6159 1698 0121     		movs	r1, #1
 6160              	.L142:
 301:Lib/lvgl/src/themes/default/lv_theme_default.c ****     }
 6161              		.loc 1 301 9 discriminator 18 view .LVU1442
 6162 169a 2846     		mov	r0, r5
 6163 169c FFF7FEFF 		bl	lv_style_set_shadow_offset_y
 6164              	.LVL633:
 6165 16a0 FEF794BF 		b	.L139
 6166              	.L440:
 299:Lib/lvgl/src/themes/default/lv_theme_default.c ****         lv_style_set_shadow_opa(&theme->styles.btn, LV_OPA_50);
 6167              		.loc 1 299 55 discriminator 1 view .LVU1443
 6168 16a4 0020     		movs	r0, #0
 6169 16a6 FFF7FEFF 		bl	lv_display_get_dpi
 6170              	.LVL634:
 6171 16aa 00EB4000 		add	r0, r0, r0, lsl #1
 6172 16ae 00F15001 		add	r1, r0, #80
 299:Lib/lvgl/src/themes/default/lv_theme_default.c ****         lv_style_set_shadow_opa(&theme->styles.btn, LV_OPA_50);
 6173              		.loc 1 299 9 discriminator 1 view .LVU1444
 6174 16b2 B04B     		ldr	r3, .L467
 6175 16b4 83FB0123 		smull	r2, r3, r3, r1
 6176 16b8 C917     		asrs	r1, r1, #31
 6177 16ba C1EBA311 		rsb	r1, r1, r3, asr #6
ARM GAS  C:\Users\Alex\AppData\Local\Temp\ccR26jun.s 			page 173


 6178 16be CEE7     		b	.L140
 6179              	.L441:
 301:Lib/lvgl/src/themes/default/lv_theme_default.c ****     }
 6180              		.loc 1 301 58 discriminator 5 view .LVU1445
 6181 16c0 0020     		movs	r0, #0
 6182 16c2 FFF7FEFF 		bl	lv_display_get_dpi
 6183              	.LVL635:
 6184 16c6 1430     		adds	r0, r0, #20
 6185 16c8 AA4B     		ldr	r3, .L467
 6186 16ca 83FB0023 		smull	r2, r3, r3, r0
 6187 16ce C017     		asrs	r0, r0, #31
 6188 16d0 C0EB2313 		rsb	r3, r0, r3, asr #4
 6189 16d4 DCE7     		b	.L143
 6190              	.L442:
 301:Lib/lvgl/src/themes/default/lv_theme_default.c ****     }
 6191              		.loc 1 301 58 discriminator 9 view .LVU1446
 6192 16d6 E66A     		ldr	r6, [r4, #44]
 6193 16d8 0020     		movs	r0, #0
 6194 16da FFF7FEFF 		bl	lv_display_get_dpi
 6195              	.LVL636:
 6196 16de 3B28     		cmp	r0, #59
 6197 16e0 0ADC     		bgt	.L443
 301:Lib/lvgl/src/themes/default/lv_theme_default.c ****     }
 6198              		.loc 1 301 58 view .LVU1447
 6199 16e2 0123     		movs	r3, #1
 6200              	.L144:
 301:Lib/lvgl/src/themes/default/lv_theme_default.c ****     }
 6201              		.loc 1 301 58 discriminator 14 view .LVU1448
 6202 16e4 03FB06F1 		mul	r1, r3, r6
 6203 16e8 5031     		adds	r1, r1, #80
 6204 16ea A24B     		ldr	r3, .L467
 6205 16ec 83FB0123 		smull	r2, r3, r3, r1
 6206 16f0 C917     		asrs	r1, r1, #31
 6207 16f2 C1EBA311 		rsb	r1, r1, r3, asr #6
 6208 16f6 D0E7     		b	.L142
 6209              	.L443:
 301:Lib/lvgl/src/themes/default/lv_theme_default.c ****     }
 6210              		.loc 1 301 58 discriminator 11 view .LVU1449
 6211 16f8 0020     		movs	r0, #0
 6212 16fa FFF7FEFF 		bl	lv_display_get_dpi
 6213              	.LVL637:
 6214 16fe 1430     		adds	r0, r0, #20
 6215 1700 9C4A     		ldr	r2, .L467
 6216 1702 82FB0032 		smull	r3, r2, r2, r0
 6217 1706 C317     		asrs	r3, r0, #31
 6218 1708 C3EB2213 		rsb	r3, r3, r2, asr #4
 6219 170c EAE7     		b	.L144
 6220              	.L272:
 301:Lib/lvgl/src/themes/default/lv_theme_default.c ****     }
 6221              		.loc 1 301 9 view .LVU1450
 6222 170e 0021     		movs	r1, #0
 6223 1710 C3E7     		b	.L142
 6224              	.L411:
 304:Lib/lvgl/src/themes/default/lv_theme_default.c ****     lv_style_set_pad_ver(&theme->styles.btn, PAD_SMALL);
 6225              		.loc 1 304 46 view .LVU1451
 6226 1712 1423     		movs	r3, #20
 6227 1714 FEF771BF 		b	.L145
ARM GAS  C:\Users\Alex\AppData\Local\Temp\ccR26jun.s 			page 174


 6228              	.L276:
 6229 1718 1823     		movs	r3, #24
 6230 171a FEF76EBF 		b	.L145
 6231              	.L278:
 304:Lib/lvgl/src/themes/default/lv_theme_default.c ****     lv_style_set_pad_ver(&theme->styles.btn, PAD_SMALL);
 6232              		.loc 1 304 5 view .LVU1452
 6233 171e 0121     		movs	r1, #1
 6234 1720 FEF777BF 		b	.L146
 6235              	.L412:
 305:Lib/lvgl/src/themes/default/lv_theme_default.c ****     lv_style_set_pad_column(&theme->styles.btn, _LV_DPX_CALC(theme->disp_dpi, 5));
 6236              		.loc 1 305 46 view .LVU1453
 6237 1724 0C23     		movs	r3, #12
 6238 1726 FEF781BF 		b	.L147
 6239              	.L279:
 6240 172a 0E23     		movs	r3, #14
 6241 172c FEF77EBF 		b	.L147
 6242              	.L281:
 305:Lib/lvgl/src/themes/default/lv_theme_default.c ****     lv_style_set_pad_column(&theme->styles.btn, _LV_DPX_CALC(theme->disp_dpi, 5));
 6243              		.loc 1 305 5 view .LVU1454
 6244 1730 0121     		movs	r1, #1
 6245 1732 FEF787BF 		b	.L148
 6246              	.L282:
 306:Lib/lvgl/src/themes/default/lv_theme_default.c ****     lv_style_set_pad_row(&theme->styles.btn, _LV_DPX_CALC(theme->disp_dpi, 5));
 6247              		.loc 1 306 5 view .LVU1455
 6248 1736 0121     		movs	r1, #1
 6249 1738 FEF798BF 		b	.L149
 6250              	.L283:
 307:Lib/lvgl/src/themes/default/lv_theme_default.c **** 
 6251              		.loc 1 307 5 view .LVU1456
 6252 173c 0121     		movs	r1, #1
 6253 173e FEF7A5BF 		b	.L150
 6254              	.L413:
 325:Lib/lvgl/src/themes/default/lv_theme_default.c ****     lv_style_set_pad_row(&theme->styles.pad_normal, PAD_DEF);
 6255              		.loc 1 325 53 view .LVU1457
 6256 1742 1423     		movs	r3, #20
 6257 1744 FEF7E3BF 		b	.L151
 6258              	.L284:
 6259 1748 1823     		movs	r3, #24
 6260 174a FEF7E0BF 		b	.L151
 6261              	.L286:
 325:Lib/lvgl/src/themes/default/lv_theme_default.c ****     lv_style_set_pad_row(&theme->styles.pad_normal, PAD_DEF);
 6262              		.loc 1 325 5 view .LVU1458
 6263 174e 0121     		movs	r1, #1
 6264 1750 FEF7E9BF 		b	.L152
 6265              	.L414:
 326:Lib/lvgl/src/themes/default/lv_theme_default.c ****     lv_style_set_pad_column(&theme->styles.pad_normal, PAD_DEF);
 6266              		.loc 1 326 53 view .LVU1459
 6267 1754 1423     		movs	r3, #20
 6268 1756 FEF7F3BF 		b	.L153
 6269              	.L287:
 6270 175a 1823     		movs	r3, #24
 6271 175c FEF7F0BF 		b	.L153
 6272              	.L289:
 326:Lib/lvgl/src/themes/default/lv_theme_default.c ****     lv_style_set_pad_column(&theme->styles.pad_normal, PAD_DEF);
 6273              		.loc 1 326 5 view .LVU1460
 6274 1760 0121     		movs	r1, #1
 6275 1762 FEF7F9BF 		b	.L154
ARM GAS  C:\Users\Alex\AppData\Local\Temp\ccR26jun.s 			page 175


 6276              	.L415:
 327:Lib/lvgl/src/themes/default/lv_theme_default.c **** 
 6277              		.loc 1 327 56 view .LVU1461
 6278 1766 1423     		movs	r3, #20
 6279 1768 FFF703B8 		b	.L155
 6280              	.L290:
 6281 176c 1823     		movs	r3, #24
 6282 176e FFF700B8 		b	.L155
 6283              	.L292:
 327:Lib/lvgl/src/themes/default/lv_theme_default.c **** 
 6284              		.loc 1 327 5 view .LVU1462
 6285 1772 0121     		movs	r1, #1
 6286 1774 FFF709B8 		b	.L156
 6287              	.L416:
 330:Lib/lvgl/src/themes/default/lv_theme_default.c ****     lv_style_set_pad_gap(&theme->styles.pad_small, PAD_SMALL);
 6288              		.loc 1 330 52 view .LVU1463
 6289 1778 0C23     		movs	r3, #12
 6290 177a FFF718B8 		b	.L157
 6291              	.L293:
 6292 177e 0E23     		movs	r3, #14
 6293 1780 FFF715B8 		b	.L157
 6294              	.L295:
 330:Lib/lvgl/src/themes/default/lv_theme_default.c ****     lv_style_set_pad_gap(&theme->styles.pad_small, PAD_SMALL);
 6295              		.loc 1 330 5 view .LVU1464
 6296 1784 0121     		movs	r1, #1
 6297 1786 FFF71EB8 		b	.L158
 6298              	.L417:
 331:Lib/lvgl/src/themes/default/lv_theme_default.c **** 
 6299              		.loc 1 331 52 view .LVU1465
 6300 178a 0C23     		movs	r3, #12
 6301 178c FFF728B8 		b	.L159
 6302              	.L296:
 6303 1790 0E23     		movs	r3, #14
 6304 1792 FFF725B8 		b	.L159
 6305              	.L298:
 331:Lib/lvgl/src/themes/default/lv_theme_default.c **** 
 6306              		.loc 1 331 5 view .LVU1466
 6307 1796 0121     		movs	r1, #1
 6308 1798 FFF72EB8 		b	.L160
 6309              	.L299:
 334:Lib/lvgl/src/themes/default/lv_theme_default.c ****     lv_style_set_pad_column(&theme->styles.pad_gap, _LV_DPX_CALC(theme->disp_dpi, 10));
 6310              		.loc 1 334 5 view .LVU1467
 6311 179c 0121     		movs	r1, #1
 6312 179e FFF741B8 		b	.L161
 6313              	.L300:
 335:Lib/lvgl/src/themes/default/lv_theme_default.c **** 
 6314              		.loc 1 335 5 view .LVU1468
 6315 17a2 0121     		movs	r1, #1
 6316 17a4 FFF74FB8 		b	.L162
 6317              	.L301:
 338:Lib/lvgl/src/themes/default/lv_theme_default.c **** 
 6318              		.loc 1 338 5 view .LVU1469
 6319 17a8 0121     		movs	r1, #1
 6320 17aa FFF762B8 		b	.L163
 6321              	.L418:
 349:Lib/lvgl/src/themes/default/lv_theme_default.c ****     lv_style_set_pad_row(&theme->styles.pad_tiny, PAD_TINY);
 6322              		.loc 1 349 51 view .LVU1470
ARM GAS  C:\Users\Alex\AppData\Local\Temp\ccR26jun.s 			page 176


 6323 17ae 0623     		movs	r3, #6
 6324 17b0 FFF78BB8 		b	.L164
 6325              	.L302:
 6326 17b4 0823     		movs	r3, #8
 6327 17b6 FFF788B8 		b	.L164
 6328              	.L304:
 349:Lib/lvgl/src/themes/default/lv_theme_default.c ****     lv_style_set_pad_row(&theme->styles.pad_tiny, PAD_TINY);
 6329              		.loc 1 349 5 view .LVU1471
 6330 17ba 0121     		movs	r1, #1
 6331 17bc FFF791B8 		b	.L165
 6332              	.L419:
 350:Lib/lvgl/src/themes/default/lv_theme_default.c ****     lv_style_set_pad_column(&theme->styles.pad_tiny, PAD_TINY);
 6333              		.loc 1 350 51 view .LVU1472
 6334 17c0 0623     		movs	r3, #6
 6335 17c2 FFF79BB8 		b	.L166
 6336              	.L305:
 6337 17c6 0823     		movs	r3, #8
 6338 17c8 FFF798B8 		b	.L166
 6339              	.L307:
 350:Lib/lvgl/src/themes/default/lv_theme_default.c ****     lv_style_set_pad_column(&theme->styles.pad_tiny, PAD_TINY);
 6340              		.loc 1 350 5 view .LVU1473
 6341 17cc 0121     		movs	r1, #1
 6342 17ce FFF7A1B8 		b	.L167
 6343              	.L420:
 351:Lib/lvgl/src/themes/default/lv_theme_default.c **** 
 6344              		.loc 1 351 54 view .LVU1474
 6345 17d2 0623     		movs	r3, #6
 6346 17d4 FFF7ABB8 		b	.L168
 6347              	.L308:
 6348 17d8 0823     		movs	r3, #8
 6349 17da FFF7A8B8 		b	.L168
 6350              	.L310:
 351:Lib/lvgl/src/themes/default/lv_theme_default.c **** 
 6351              		.loc 1 351 5 view .LVU1475
 6352 17de 0121     		movs	r1, #1
 6353 17e0 FFF7B8B8 		b	.L169
 6354              	.L311:
 391:Lib/lvgl/src/themes/default/lv_theme_default.c ****     lv_style_set_transform_height(&theme->styles.grow, _LV_DPX_CALC(theme->disp_dpi, 3));
 6355              		.loc 1 391 5 view .LVU1476
 6356 17e4 0121     		movs	r1, #1
 6357 17e6 FFF7A5B9 		b	.L170
 6358              	.L312:
 392:Lib/lvgl/src/themes/default/lv_theme_default.c **** #endif
 6359              		.loc 1 392 5 view .LVU1477
 6360 17ea 0121     		movs	r1, #1
 6361 17ec FFF7B2B9 		b	.L171
 6362              	.L313:
 398:Lib/lvgl/src/themes/default/lv_theme_default.c ****     lv_style_set_radius(&theme->styles.knob, LV_RADIUS_CIRCLE);
 6363              		.loc 1 398 5 view .LVU1478
 6364 17f0 0121     		movs	r1, #1
 6365 17f2 FFF7CDB9 		b	.L172
 6366              	.L314:
 410:Lib/lvgl/src/themes/default/lv_theme_default.c ****     lv_style_set_arc_rounded(&theme->styles.arc_indic, true);
 6367              		.loc 1 410 5 view .LVU1479
 6368 17f6 0121     		movs	r1, #1
 6369 17f8 FFF703BA 		b	.L173
 6370              	.L315:
ARM GAS  C:\Users\Alex\AppData\Local\Temp\ccR26jun.s 			page 177


 423:Lib/lvgl/src/themes/default/lv_theme_default.c ****     lv_style_set_border_width(&theme->styles.cb_marker, BORDER_WIDTH);
 6371              		.loc 1 423 5 view .LVU1480
 6372 17fc 0121     		movs	r1, #1
 6373 17fe FFF72CBA 		b	.L174
 6374              	.L316:
 424:Lib/lvgl/src/themes/default/lv_theme_default.c ****     lv_style_set_border_color(&theme->styles.cb_marker, theme->base.color_primary);
 6375              		.loc 1 424 5 view .LVU1481
 6376 1802 0121     		movs	r1, #1
 6377 1804 FFF737BA 		b	.L175
 6378              	.L421:
 428:Lib/lvgl/src/themes/default/lv_theme_default.c **** 
 6379              		.loc 1 428 51 view .LVU1482
 6380 1808 0C23     		movs	r3, #12
 6381 180a FFF74EBA 		b	.L176
 6382              	.L318:
 428:Lib/lvgl/src/themes/default/lv_theme_default.c **** 
 6383              		.loc 1 428 5 view .LVU1483
 6384 180e 0021     		movs	r1, #0
 6385 1810 FFF757BA 		b	.L177
 6386              	.L319:
 438:Lib/lvgl/src/themes/default/lv_theme_default.c ****     lv_style_set_bg_color(&theme->styles.switch_knob, lv_color_white());
 6387              		.loc 1 438 5 view .LVU1484
 6388 1814 4FF0FF31 		mov	r1, #-1
 6389 1818 FFF790BA 		b	.L178
 6390              	.L320:
 451:Lib/lvgl/src/themes/default/lv_theme_default.c ****     lv_style_set_line_color(&theme->styles.chart_bg, theme->color_grey);
 6391              		.loc 1 451 5 view .LVU1485
 6392 181c 0121     		movs	r1, #1
 6393 181e FFF7DABA 		b	.L179
 6394              	.L321:
 455:Lib/lvgl/src/themes/default/lv_theme_default.c ****     lv_style_set_radius(&theme->styles.chart_series, _LV_DPX_CALC(theme->disp_dpi, 3));
 6395              		.loc 1 455 5 view .LVU1486
 6396 1822 0121     		movs	r1, #1
 6397 1824 FFF7F9BA 		b	.L180
 6398              	.L322:
 456:Lib/lvgl/src/themes/default/lv_theme_default.c **** 
 6399              		.loc 1 456 5 view .LVU1487
 6400 1828 0121     		movs	r1, #1
 6401 182a FFF706BB 		b	.L181
 6402              	.L323:
 458:Lib/lvgl/src/themes/default/lv_theme_default.c ****     lv_style_set_size(&theme->styles.chart_series, chart_size, chart_size);
 6403              		.loc 1 458 26 view .LVU1488
 6404 182e 0125     		movs	r5, #1
 6405 1830 FFF711BB 		b	.L182
 6406              	.LVL638:
 6407              	.L324:
 460:Lib/lvgl/src/themes/default/lv_theme_default.c **** 
 6408              		.loc 1 460 5 view .LVU1489
 6409 1834 0121     		movs	r1, #1
 6410 1836 FFF727BB 		b	.L183
 6411              	.LVL639:
 6412              	.L422:
 478:Lib/lvgl/src/themes/default/lv_theme_default.c ****     lv_style_set_clip_corner(&theme->styles.menu_section, true);
 6413              		.loc 1 478 54 view .LVU1490
 6414 183a 0C23     		movs	r3, #12
 6415 183c FFF766BB 		b	.L184
 6416              	.L326:
ARM GAS  C:\Users\Alex\AppData\Local\Temp\ccR26jun.s 			page 178


 478:Lib/lvgl/src/themes/default/lv_theme_default.c ****     lv_style_set_clip_corner(&theme->styles.menu_section, true);
 6417              		.loc 1 478 5 view .LVU1491
 6418 1840 0121     		movs	r1, #1
 6419 1842 FFF76FBB 		b	.L185
 6420              	.L423:
 485:Lib/lvgl/src/themes/default/lv_theme_default.c ****     lv_style_set_pad_ver(&theme->styles.menu_cont, PAD_SMALL);
 6421              		.loc 1 485 52 view .LVU1492
 6422 1846 0C23     		movs	r3, #12
 6423 1848 FFF79BBB 		b	.L186
 6424              	.L327:
 6425 184c 0E23     		movs	r3, #14
 6426 184e FFF798BB 		b	.L186
 6427              	.L329:
 485:Lib/lvgl/src/themes/default/lv_theme_default.c ****     lv_style_set_pad_ver(&theme->styles.menu_cont, PAD_SMALL);
 6428              		.loc 1 485 5 view .LVU1493
 6429 1852 0121     		movs	r1, #1
 6430 1854 FFF7A1BB 		b	.L187
 6431              	.L424:
 486:Lib/lvgl/src/themes/default/lv_theme_default.c ****     lv_style_set_pad_gap(&theme->styles.menu_cont, PAD_SMALL);
 6432              		.loc 1 486 52 view .LVU1494
 6433 1858 0C23     		movs	r3, #12
 6434 185a FFF7ABBB 		b	.L188
 6435              	.L330:
 6436 185e 0E23     		movs	r3, #14
 6437 1860 FFF7A8BB 		b	.L188
 6438              	.L332:
 486:Lib/lvgl/src/themes/default/lv_theme_default.c ****     lv_style_set_pad_gap(&theme->styles.menu_cont, PAD_SMALL);
 6439              		.loc 1 486 5 view .LVU1495
 6440 1864 0121     		movs	r1, #1
 6441 1866 FFF7B1BB 		b	.L189
 6442              	.L425:
 487:Lib/lvgl/src/themes/default/lv_theme_default.c ****     lv_style_set_border_width(&theme->styles.menu_cont, _LV_DPX_CALC(theme->disp_dpi, 1));
 6443              		.loc 1 487 52 view .LVU1496
 6444 186a 0C23     		movs	r3, #12
 6445 186c FFF7BBBB 		b	.L190
 6446              	.L333:
 6447 1870 0E23     		movs	r3, #14
 6448 1872 FFF7B8BB 		b	.L190
 6449              	.L335:
 487:Lib/lvgl/src/themes/default/lv_theme_default.c ****     lv_style_set_border_width(&theme->styles.menu_cont, _LV_DPX_CALC(theme->disp_dpi, 1));
 6450              		.loc 1 487 5 view .LVU1497
 6451 1876 0121     		movs	r1, #1
 6452 1878 FFF7C1BB 		b	.L191
 6453              	.L336:
 488:Lib/lvgl/src/themes/default/lv_theme_default.c ****     lv_style_set_border_opa(&theme->styles.menu_cont, LV_OPA_10);
 6454              		.loc 1 488 5 view .LVU1498
 6455 187c 0121     		movs	r1, #1
 6456 187e FFF7CCBB 		b	.L192
 6457              	.L337:
 496:Lib/lvgl/src/themes/default/lv_theme_default.c ****     lv_style_set_border_opa(&theme->styles.menu_sidebar_cont, LV_OPA_10);
 6458              		.loc 1 496 5 view .LVU1499
 6459 1882 0121     		movs	r1, #1
 6460 1884 FFF7F9BB 		b	.L193
 6461              	.L426:
 506:Lib/lvgl/src/themes/default/lv_theme_default.c ****     lv_style_set_pad_ver(&theme->styles.menu_header_cont, PAD_TINY);
 6462              		.loc 1 506 59 view .LVU1500
 6463 1888 0C23     		movs	r3, #12
ARM GAS  C:\Users\Alex\AppData\Local\Temp\ccR26jun.s 			page 179


 6464 188a 2AE4     		b	.L194
 6465              	.L338:
 6466 188c 0E23     		movs	r3, #14
 6467 188e 28E4     		b	.L194
 6468              	.L340:
 506:Lib/lvgl/src/themes/default/lv_theme_default.c ****     lv_style_set_pad_ver(&theme->styles.menu_header_cont, PAD_TINY);
 6469              		.loc 1 506 5 view .LVU1501
 6470 1890 0121     		movs	r1, #1
 6471 1892 32E4     		b	.L195
 6472              	.L427:
 507:Lib/lvgl/src/themes/default/lv_theme_default.c ****     lv_style_set_pad_gap(&theme->styles.menu_header_cont, PAD_SMALL);
 6473              		.loc 1 507 59 view .LVU1502
 6474 1894 0623     		movs	r3, #6
 6475 1896 3DE4     		b	.L196
 6476              	.L341:
 6477 1898 0823     		movs	r3, #8
 6478 189a 3BE4     		b	.L196
 6479              	.L343:
 507:Lib/lvgl/src/themes/default/lv_theme_default.c ****     lv_style_set_pad_gap(&theme->styles.menu_header_cont, PAD_SMALL);
 6480              		.loc 1 507 5 view .LVU1503
 6481 189c 0121     		movs	r1, #1
 6482 189e 45E4     		b	.L197
 6483              	.L428:
 508:Lib/lvgl/src/themes/default/lv_theme_default.c **** 
 6484              		.loc 1 508 59 view .LVU1504
 6485 18a0 0C23     		movs	r3, #12
 6486 18a2 50E4     		b	.L198
 6487              	.L344:
 6488 18a4 0E23     		movs	r3, #14
 6489 18a6 4EE4     		b	.L198
 6490              	.L346:
 508:Lib/lvgl/src/themes/default/lv_theme_default.c **** 
 6491              		.loc 1 508 5 view .LVU1505
 6492 18a8 0121     		movs	r1, #1
 6493 18aa 58E4     		b	.L199
 6494              	.L429:
 511:Lib/lvgl/src/themes/default/lv_theme_default.c ****     lv_style_set_pad_ver(&theme->styles.menu_header_btn, PAD_TINY);
 6495              		.loc 1 511 58 view .LVU1506
 6496 18ac 0623     		movs	r3, #6
 6497 18ae 68E4     		b	.L200
 6498              	.L347:
 6499 18b0 0823     		movs	r3, #8
 6500 18b2 66E4     		b	.L200
 6501              	.L349:
 511:Lib/lvgl/src/themes/default/lv_theme_default.c ****     lv_style_set_pad_ver(&theme->styles.menu_header_btn, PAD_TINY);
 6502              		.loc 1 511 5 view .LVU1507
 6503 18b4 0121     		movs	r1, #1
 6504 18b6 70E4     		b	.L201
 6505              	.L430:
 512:Lib/lvgl/src/themes/default/lv_theme_default.c ****     lv_style_set_shadow_opa(&theme->styles.menu_header_btn, LV_OPA_TRANSP);
 6506              		.loc 1 512 58 view .LVU1508
 6507 18b8 0623     		movs	r3, #6
 6508 18ba 7BE4     		b	.L202
 6509              	.L350:
 6510 18bc 0823     		movs	r3, #8
 6511 18be 79E4     		b	.L202
 6512              	.L352:
ARM GAS  C:\Users\Alex\AppData\Local\Temp\ccR26jun.s 			page 180


 512:Lib/lvgl/src/themes/default/lv_theme_default.c ****     lv_style_set_shadow_opa(&theme->styles.menu_header_btn, LV_OPA_TRANSP);
 6513              		.loc 1 512 5 view .LVU1509
 6514 18c0 0121     		movs	r1, #1
 6515 18c2 83E4     		b	.L203
 6516              	.L431:
 527:Lib/lvgl/src/themes/default/lv_theme_default.c **** #endif
 6517              		.loc 1 527 57 view .LVU1510
 6518 18c4 0623     		movs	r3, #6
 6519 18c6 D3E4     		b	.L204
 6520              	.L353:
 6521 18c8 0823     		movs	r3, #8
 6522 18ca D1E4     		b	.L204
 6523              	.L355:
 527:Lib/lvgl/src/themes/default/lv_theme_default.c **** #endif
 6524              		.loc 1 527 5 view .LVU1511
 6525 18cc 0121     		movs	r1, #1
 6526 18ce DFE4     		b	.L205
 6527              	.L356:
 532:Lib/lvgl/src/themes/default/lv_theme_default.c ****     lv_style_set_border_color(&theme->styles.table_cell, theme->color_grey);
 6528              		.loc 1 532 5 view .LVU1512
 6529 18d0 0121     		movs	r1, #1
 6530 18d2 F0E4     		b	.L206
 6531              	.L357:
 540:Lib/lvgl/src/themes/default/lv_theme_default.c ****     lv_style_set_pad_left(&theme->styles.ta_cursor, - _LV_DPX_CALC(theme->disp_dpi, 1));
 6532              		.loc 1 540 5 view .LVU1513
 6533 18d4 0121     		movs	r1, #1
 6534 18d6 1FE5     		b	.L207
 6535              	.L358:
 541:Lib/lvgl/src/themes/default/lv_theme_default.c ****     lv_style_set_border_side(&theme->styles.ta_cursor, LV_BORDER_SIDE_LEFT);
 6536              		.loc 1 541 5 view .LVU1514
 6537 18d8 4FF0FF31 		mov	r1, #-1
 6538 18dc 2AE5     		b	.L208
 6539              	.L209:
 548:Lib/lvgl/src/themes/default/lv_theme_default.c **** #endif
 6540              		.loc 1 548 86 view .LVU1515
 6541 18de 0121     		movs	r1, #1
 6542 18e0 1220     		movs	r0, #18
 6543 18e2 FFF7FEFF 		bl	lv_palette_lighten
 6544              	.LVL640:
 6545 18e6 8DF83000 		strb	r0, [sp, #48]
 6546 18ea C0F30723 		ubfx	r3, r0, #8, #8
 6547 18ee 8DF83130 		strb	r3, [sp, #49]
 6548 18f2 C0F30740 		ubfx	r0, r0, #16, #8
 6549 18f6 8DF83200 		strb	r0, [sp, #50]
 6550 18fa 3FE5     		b	.L210
 6551              	.L432:
 553:Lib/lvgl/src/themes/default/lv_theme_default.c ****     lv_style_set_pad_gap(&theme->styles.calendar_btnm_bg, PAD_SMALL / 2);
 6552              		.loc 1 553 59 view .LVU1516
 6553 18fc 0C23     		movs	r3, #12
 6554 18fe 50E5     		b	.L211
 6555              	.L359:
 6556 1900 0E23     		movs	r3, #14
 6557 1902 4EE5     		b	.L211
 6558              	.L361:
 553:Lib/lvgl/src/themes/default/lv_theme_default.c ****     lv_style_set_pad_gap(&theme->styles.calendar_btnm_bg, PAD_SMALL / 2);
 6559              		.loc 1 553 5 view .LVU1517
 6560 1904 0121     		movs	r1, #1
ARM GAS  C:\Users\Alex\AppData\Local\Temp\ccR26jun.s 			page 181


 6561 1906 58E5     		b	.L212
 6562              	.L433:
 554:Lib/lvgl/src/themes/default/lv_theme_default.c **** 
 6563              		.loc 1 554 59 view .LVU1518
 6564 1908 0C23     		movs	r3, #12
 6565 190a 63E5     		b	.L213
 6566              	.L362:
 6567 190c 0E23     		movs	r3, #14
 6568 190e 61E5     		b	.L213
 6569              	.L364:
 554:Lib/lvgl/src/themes/default/lv_theme_default.c **** 
 6570              		.loc 1 554 5 view .LVU1519
 6571 1910 0021     		movs	r1, #0
 6572 1912 6BE5     		b	.L214
 6573              	.L365:
 557:Lib/lvgl/src/themes/default/lv_theme_default.c ****     lv_style_set_border_color(&theme->styles.calendar_btnm_day, theme->color_grey);
 6574              		.loc 1 557 5 view .LVU1520
 6575 1914 0121     		movs	r1, #1
 6576 1916 7CE5     		b	.L215
 6577              	.L434:
 563:Lib/lvgl/src/themes/default/lv_theme_default.c ****     lv_style_set_pad_top(&theme->styles.calendar_header, PAD_SMALL);
 6578              		.loc 1 563 58 view .LVU1521
 6579 1918 0C23     		movs	r3, #12
 6580 191a A5E5     		b	.L216
 6581              	.L366:
 6582 191c 0E23     		movs	r3, #14
 6583 191e A3E5     		b	.L216
 6584              	.L368:
 563:Lib/lvgl/src/themes/default/lv_theme_default.c ****     lv_style_set_pad_top(&theme->styles.calendar_header, PAD_SMALL);
 6585              		.loc 1 563 5 view .LVU1522
 6586 1920 0121     		movs	r1, #1
 6587 1922 ADE5     		b	.L217
 6588              	.L435:
 564:Lib/lvgl/src/themes/default/lv_theme_default.c ****     lv_style_set_pad_bottom(&theme->styles.calendar_header, PAD_TINY);
 6589              		.loc 1 564 58 view .LVU1523
 6590 1924 0C23     		movs	r3, #12
 6591 1926 B8E5     		b	.L218
 6592              	.L369:
 6593 1928 0E23     		movs	r3, #14
 6594 192a B6E5     		b	.L218
 6595              	.L371:
 564:Lib/lvgl/src/themes/default/lv_theme_default.c ****     lv_style_set_pad_bottom(&theme->styles.calendar_header, PAD_TINY);
 6596              		.loc 1 564 5 view .LVU1524
 6597 192c 0121     		movs	r1, #1
 6598 192e C0E5     		b	.L219
 6599              	.L436:
 565:Lib/lvgl/src/themes/default/lv_theme_default.c ****     lv_style_set_pad_gap(&theme->styles.calendar_header, PAD_SMALL);
 6600              		.loc 1 565 61 view .LVU1525
 6601 1930 0623     		movs	r3, #6
 6602 1932 CBE5     		b	.L220
 6603              	.L372:
 6604 1934 0823     		movs	r3, #8
 6605 1936 C9E5     		b	.L220
 6606              	.L374:
 565:Lib/lvgl/src/themes/default/lv_theme_default.c ****     lv_style_set_pad_gap(&theme->styles.calendar_header, PAD_SMALL);
 6607              		.loc 1 565 5 view .LVU1526
 6608 1938 0121     		movs	r1, #1
ARM GAS  C:\Users\Alex\AppData\Local\Temp\ccR26jun.s 			page 182


 6609 193a D3E5     		b	.L221
 6610              	.L437:
 566:Lib/lvgl/src/themes/default/lv_theme_default.c **** #endif
 6611              		.loc 1 566 58 view .LVU1527
 6612 193c 0C23     		movs	r3, #12
 6613 193e DEE5     		b	.L222
 6614              	.L375:
 6615 1940 0E23     		movs	r3, #14
 6616 1942 DCE5     		b	.L222
 6617              	.L377:
 566:Lib/lvgl/src/themes/default/lv_theme_default.c **** #endif
 6618              		.loc 1 566 5 view .LVU1528
 6619 1944 0121     		movs	r1, #1
 6620 1946 E6E5     		b	.L223
 6621              	.L438:
 578:Lib/lvgl/src/themes/default/lv_theme_default.c **** #endif
 6622              		.loc 1 578 58 view .LVU1529
 6623 1948 E16A     		ldr	r1, [r4, #44]
 6624 194a 012B     		cmp	r3, #1
 6625 194c 0CD0     		beq	.L444
 6626 194e 0823     		movs	r3, #8
 6627              	.L225:
 578:Lib/lvgl/src/themes/default/lv_theme_default.c **** #endif
 6628              		.loc 1 578 58 discriminator 4 view .LVU1530
 6629 1950 03FB01F1 		mul	r1, r3, r1
 578:Lib/lvgl/src/themes/default/lv_theme_default.c **** #endif
 6630              		.loc 1 578 73 discriminator 4 view .LVU1531
 6631 1954 EF29     		cmp	r1, #239
 6632 1956 0BDD     		ble	.L379
 578:Lib/lvgl/src/themes/default/lv_theme_default.c **** #endif
 6633              		.loc 1 578 58 discriminator 10 view .LVU1532
 6634 1958 5031     		adds	r1, r1, #80
 578:Lib/lvgl/src/themes/default/lv_theme_default.c **** #endif
 6635              		.loc 1 578 73 discriminator 10 view .LVU1533
 6636 195a 064B     		ldr	r3, .L467
 6637 195c 83FB0123 		smull	r2, r3, r3, r1
 6638 1960 C917     		asrs	r1, r1, #31
 6639 1962 C1EBE311 		rsb	r1, r1, r3, asr #7
 6640 1966 08E0     		b	.L226
 6641              	.L444:
 578:Lib/lvgl/src/themes/default/lv_theme_default.c **** #endif
 6642              		.loc 1 578 58 view .LVU1534
 6643 1968 0C23     		movs	r3, #12
 6644 196a F1E7     		b	.L225
 6645              	.L439:
 578:Lib/lvgl/src/themes/default/lv_theme_default.c **** #endif
 6646              		.loc 1 578 79 view .LVU1535
 6647 196c 0C23     		movs	r3, #12
 6648 196e 02E6     		b	.L227
 6649              	.L379:
 578:Lib/lvgl/src/themes/default/lv_theme_default.c **** #endif
 6650              		.loc 1 578 73 view .LVU1536
 6651 1970 0021     		movs	r1, #0
 6652 1972 02E0     		b	.L226
 6653              	.L468:
 6654              		.align	2
 6655              	.L467:
ARM GAS  C:\Users\Alex\AppData\Local\Temp\ccR26jun.s 			page 183


 6656 1974 67666666 		.word	1717986919
 6657              	.L381:
 578:Lib/lvgl/src/themes/default/lv_theme_default.c **** #endif
 6658              		.loc 1 578 79 view .LVU1537
 6659 1978 0121     		movs	r1, #1
 6660              	.L226:
 577:Lib/lvgl/src/themes/default/lv_theme_default.c ****                         theme->disp_size == DISP_SMALL ? RADIUS_DEFAULT / 2 : RADIUS_DEFAULT);
 6661              		.loc 1 577 5 discriminator 1 view .LVU1538
 6662 197a 2846     		mov	r0, r5
 6663 197c FFF7FEFF 		bl	lv_style_set_radius
 6664              	.LVL641:
 582:Lib/lvgl/src/themes/default/lv_theme_default.c ****     lv_style_set_border_color(&theme->styles.tab_btn, theme->base.color_primary);
 6665              		.loc 1 582 5 is_stmt 1 discriminator 1 view .LVU1539
 6666 1980 04F54D75 		add	r5, r4, #820
 6667 1984 2846     		mov	r0, r5
 6668 1986 FFF7FEFF 		bl	style_init_reset
 6669              	.LVL642:
 583:Lib/lvgl/src/themes/default/lv_theme_default.c ****     lv_style_set_border_width(&theme->styles.tab_btn, BORDER_WIDTH * 2);
 6670              		.loc 1 583 5 discriminator 1 view .LVU1540
 6671 198a 2169     		ldr	r1, [r4, #16]
 6672 198c 2846     		mov	r0, r5
 6673 198e FFF7FEFF 		bl	lv_style_set_border_color
 6674              	.LVL643:
 584:Lib/lvgl/src/themes/default/lv_theme_default.c ****     lv_style_set_border_side(&theme->styles.tab_btn, LV_BORDER_SIDE_BOTTOM);
 6675              		.loc 1 584 5 discriminator 1 view .LVU1541
 584:Lib/lvgl/src/themes/default/lv_theme_default.c ****     lv_style_set_border_side(&theme->styles.tab_btn, LV_BORDER_SIDE_BOTTOM);
 6676              		.loc 1 584 55 is_stmt 0 discriminator 1 view .LVU1542
 6677 1992 E36A     		ldr	r3, [r4, #44]
 584:Lib/lvgl/src/themes/default/lv_theme_default.c ****     lv_style_set_border_side(&theme->styles.tab_btn, LV_BORDER_SIDE_BOTTOM);
 6678              		.loc 1 584 5 discriminator 1 view .LVU1543
 6679 1994 772B     		cmp	r3, #119
 6680 1996 40F37B81 		ble	.L382
 584:Lib/lvgl/src/themes/default/lv_theme_default.c ****     lv_style_set_border_side(&theme->styles.tab_btn, LV_BORDER_SIDE_BOTTOM);
 6681              		.loc 1 584 55 discriminator 1 view .LVU1544
 6682 199a 2833     		adds	r3, r3, #40
 6683 199c D44A     		ldr	r2, .L469
 6684 199e 82FB0312 		smull	r1, r2, r2, r3
 6685 19a2 D917     		asrs	r1, r3, #31
 6686 19a4 C1EB6211 		rsb	r1, r1, r2, asr #5
 584:Lib/lvgl/src/themes/default/lv_theme_default.c ****     lv_style_set_border_side(&theme->styles.tab_btn, LV_BORDER_SIDE_BOTTOM);
 6687              		.loc 1 584 5 discriminator 1 view .LVU1545
 6688 19a8 4900     		lsls	r1, r1, #1
 6689              	.L228:
 584:Lib/lvgl/src/themes/default/lv_theme_default.c ****     lv_style_set_border_side(&theme->styles.tab_btn, LV_BORDER_SIDE_BOTTOM);
 6690              		.loc 1 584 5 discriminator 4 view .LVU1546
 6691 19aa 2846     		mov	r0, r5
 6692 19ac FFF7FEFF 		bl	lv_style_set_border_width
 6693              	.LVL644:
 585:Lib/lvgl/src/themes/default/lv_theme_default.c ****     lv_style_set_pad_top(&theme->styles.tab_btn, BORDER_WIDTH * 2);
 6694              		.loc 1 585 5 is_stmt 1 discriminator 4 view .LVU1547
 6695 19b0 0121     		movs	r1, #1
 6696 19b2 2846     		mov	r0, r5
 6697 19b4 FFF7FEFF 		bl	lv_style_set_border_side
 6698              	.LVL645:
 586:Lib/lvgl/src/themes/default/lv_theme_default.c **** 
 6699              		.loc 1 586 5 discriminator 4 view .LVU1548
 586:Lib/lvgl/src/themes/default/lv_theme_default.c **** 
ARM GAS  C:\Users\Alex\AppData\Local\Temp\ccR26jun.s 			page 184


 6700              		.loc 1 586 50 is_stmt 0 discriminator 4 view .LVU1549
 6701 19b8 E36A     		ldr	r3, [r4, #44]
 586:Lib/lvgl/src/themes/default/lv_theme_default.c **** 
 6702              		.loc 1 586 5 discriminator 4 view .LVU1550
 6703 19ba 772B     		cmp	r3, #119
 6704 19bc 40F36A81 		ble	.L383
 586:Lib/lvgl/src/themes/default/lv_theme_default.c **** 
 6705              		.loc 1 586 50 discriminator 1 view .LVU1551
 6706 19c0 2833     		adds	r3, r3, #40
 6707 19c2 CB4A     		ldr	r2, .L469
 6708 19c4 82FB0312 		smull	r1, r2, r2, r3
 6709 19c8 D917     		asrs	r1, r3, #31
 6710 19ca C1EB6211 		rsb	r1, r1, r2, asr #5
 586:Lib/lvgl/src/themes/default/lv_theme_default.c **** 
 6711              		.loc 1 586 5 discriminator 1 view .LVU1552
 6712 19ce 4900     		lsls	r1, r1, #1
 6713              	.L229:
 586:Lib/lvgl/src/themes/default/lv_theme_default.c **** 
 6714              		.loc 1 586 5 discriminator 4 view .LVU1553
 6715 19d0 2846     		mov	r0, r5
 6716 19d2 FFF7FEFF 		bl	lv_style_set_pad_top
 6717              	.LVL646:
 588:Lib/lvgl/src/themes/default/lv_theme_default.c ****     lv_style_set_outline_pad(&theme->styles.tab_bg_focus, -BORDER_WIDTH);
 6718              		.loc 1 588 5 is_stmt 1 discriminator 4 view .LVU1554
 6719 19d6 04F54A75 		add	r5, r4, #808
 6720 19da 2846     		mov	r0, r5
 6721 19dc FFF7FEFF 		bl	style_init_reset
 6722              	.LVL647:
 589:Lib/lvgl/src/themes/default/lv_theme_default.c **** #endif
 6723              		.loc 1 589 5 discriminator 4 view .LVU1555
 589:Lib/lvgl/src/themes/default/lv_theme_default.c **** #endif
 6724              		.loc 1 589 60 is_stmt 0 discriminator 4 view .LVU1556
 6725 19e0 E16A     		ldr	r1, [r4, #44]
 589:Lib/lvgl/src/themes/default/lv_theme_default.c **** #endif
 6726              		.loc 1 589 5 discriminator 4 view .LVU1557
 6727 19e2 7729     		cmp	r1, #119
 6728 19e4 40F35881 		ble	.L384
 589:Lib/lvgl/src/themes/default/lv_theme_default.c **** #endif
 6729              		.loc 1 589 60 discriminator 1 view .LVU1558
 6730 19e8 2831     		adds	r1, r1, #40
 589:Lib/lvgl/src/themes/default/lv_theme_default.c **** #endif
 6731              		.loc 1 589 5 discriminator 1 view .LVU1559
 6732 19ea C14B     		ldr	r3, .L469
 6733 19ec 83FB0123 		smull	r2, r3, r3, r1
 6734 19f0 C917     		asrs	r1, r1, #31
 6735 19f2 A1EB6311 		sub	r1, r1, r3, asr #5
 6736              	.L230:
 589:Lib/lvgl/src/themes/default/lv_theme_default.c **** #endif
 6737              		.loc 1 589 5 discriminator 4 view .LVU1560
 6738 19f6 2846     		mov	r0, r5
 6739 19f8 FFF7FEFF 		bl	lv_style_set_outline_pad
 6740              	.LVL648:
 593:Lib/lvgl/src/themes/default/lv_theme_default.c ****     lv_style_set_pad_hor(&theme->styles.list_bg, PAD_DEF);
 6741              		.loc 1 593 5 is_stmt 1 discriminator 4 view .LVU1561
 6742 19fc 04F54175 		add	r5, r4, #772
 6743 1a00 2846     		mov	r0, r5
 6744 1a02 FFF7FEFF 		bl	style_init_reset
ARM GAS  C:\Users\Alex\AppData\Local\Temp\ccR26jun.s 			page 185


 6745              	.LVL649:
 594:Lib/lvgl/src/themes/default/lv_theme_default.c ****     lv_style_set_pad_ver(&theme->styles.list_bg, 0);
 6746              		.loc 1 594 5 discriminator 4 view .LVU1562
 594:Lib/lvgl/src/themes/default/lv_theme_default.c ****     lv_style_set_pad_ver(&theme->styles.list_bg, 0);
 6747              		.loc 1 594 50 is_stmt 0 discriminator 4 view .LVU1563
 6748 1a06 E16A     		ldr	r1, [r4, #44]
 6749 1a08 94F82830 		ldrb	r3, [r4, #40]	@ zero_extendqisi2
 6750 1a0c 012B     		cmp	r3, #1
 6751 1a0e 00F04881 		beq	.L385
 594:Lib/lvgl/src/themes/default/lv_theme_default.c ****     lv_style_set_pad_ver(&theme->styles.list_bg, 0);
 6752              		.loc 1 594 50 discriminator 1 view .LVU1564
 6753 1a12 022B     		cmp	r3, #2
 6754 1a14 00F04381 		beq	.L445
 594:Lib/lvgl/src/themes/default/lv_theme_default.c ****     lv_style_set_pad_ver(&theme->styles.list_bg, 0);
 6755              		.loc 1 594 50 view .LVU1565
 6756 1a18 1023     		movs	r3, #16
 6757              	.L231:
 594:Lib/lvgl/src/themes/default/lv_theme_default.c ****     lv_style_set_pad_ver(&theme->styles.list_bg, 0);
 6758              		.loc 1 594 50 discriminator 8 view .LVU1566
 6759 1a1a 03FB01F1 		mul	r1, r3, r1
 594:Lib/lvgl/src/themes/default/lv_theme_default.c ****     lv_style_set_pad_ver(&theme->styles.list_bg, 0);
 6760              		.loc 1 594 5 discriminator 8 view .LVU1567
 6761 1a1e EF29     		cmp	r1, #239
 6762 1a20 40F34181 		ble	.L387
 594:Lib/lvgl/src/themes/default/lv_theme_default.c ****     lv_style_set_pad_ver(&theme->styles.list_bg, 0);
 6763              		.loc 1 594 50 discriminator 18 view .LVU1568
 6764 1a24 5031     		adds	r1, r1, #80
 594:Lib/lvgl/src/themes/default/lv_theme_default.c ****     lv_style_set_pad_ver(&theme->styles.list_bg, 0);
 6765              		.loc 1 594 5 discriminator 18 view .LVU1569
 6766 1a26 B24B     		ldr	r3, .L469
 6767 1a28 83FB0123 		smull	r2, r3, r3, r1
 6768 1a2c C917     		asrs	r1, r1, #31
 6769 1a2e C1EBA311 		rsb	r1, r1, r3, asr #6
 6770              	.L232:
 594:Lib/lvgl/src/themes/default/lv_theme_default.c ****     lv_style_set_pad_ver(&theme->styles.list_bg, 0);
 6771              		.loc 1 594 5 discriminator 20 view .LVU1570
 6772 1a32 2846     		mov	r0, r5
 6773 1a34 FFF7FEFF 		bl	lv_style_set_pad_hor
 6774              	.LVL650:
 595:Lib/lvgl/src/themes/default/lv_theme_default.c ****     lv_style_set_pad_gap(&theme->styles.list_bg, 0);
 6775              		.loc 1 595 5 is_stmt 1 discriminator 20 view .LVU1571
 6776 1a38 0021     		movs	r1, #0
 6777 1a3a 2846     		mov	r0, r5
 6778 1a3c FFF7FEFF 		bl	lv_style_set_pad_ver
 6779              	.LVL651:
 596:Lib/lvgl/src/themes/default/lv_theme_default.c ****     lv_style_set_clip_corner(&theme->styles.list_bg, true);
 6780              		.loc 1 596 5 discriminator 20 view .LVU1572
 6781 1a40 0021     		movs	r1, #0
 6782 1a42 2846     		mov	r0, r5
 6783 1a44 FFF7FEFF 		bl	lv_style_set_pad_gap
 6784              	.LVL652:
 597:Lib/lvgl/src/themes/default/lv_theme_default.c **** 
 6785              		.loc 1 597 5 discriminator 20 view .LVU1573
 6786 1a48 0121     		movs	r1, #1
 6787 1a4a 2846     		mov	r0, r5
 6788 1a4c FFF7FEFF 		bl	lv_style_set_clip_corner
 6789              	.LVL653:
ARM GAS  C:\Users\Alex\AppData\Local\Temp\ccR26jun.s 			page 186


 599:Lib/lvgl/src/themes/default/lv_theme_default.c ****     lv_style_set_border_width(&theme->styles.list_btn, _LV_DPX_CALC(theme->disp_dpi, 1));
 6790              		.loc 1 599 5 discriminator 20 view .LVU1574
 6791 1a50 04F54475 		add	r5, r4, #784
 6792 1a54 2846     		mov	r0, r5
 6793 1a56 FFF7FEFF 		bl	style_init_reset
 6794              	.LVL654:
 600:Lib/lvgl/src/themes/default/lv_theme_default.c ****     lv_style_set_border_color(&theme->styles.list_btn, theme->color_grey);
 6795              		.loc 1 600 5 discriminator 20 view .LVU1575
 600:Lib/lvgl/src/themes/default/lv_theme_default.c ****     lv_style_set_border_color(&theme->styles.list_btn, theme->color_grey);
 6796              		.loc 1 600 56 is_stmt 0 discriminator 20 view .LVU1576
 6797 1a5a E16A     		ldr	r1, [r4, #44]
 600:Lib/lvgl/src/themes/default/lv_theme_default.c ****     lv_style_set_border_color(&theme->styles.list_btn, theme->color_grey);
 6798              		.loc 1 600 5 discriminator 20 view .LVU1577
 6799 1a5c EF29     		cmp	r1, #239
 6800 1a5e 40F32481 		ble	.L388
 600:Lib/lvgl/src/themes/default/lv_theme_default.c ****     lv_style_set_border_color(&theme->styles.list_btn, theme->color_grey);
 6801              		.loc 1 600 56 discriminator 1 view .LVU1578
 6802 1a62 5031     		adds	r1, r1, #80
 600:Lib/lvgl/src/themes/default/lv_theme_default.c ****     lv_style_set_border_color(&theme->styles.list_btn, theme->color_grey);
 6803              		.loc 1 600 5 discriminator 1 view .LVU1579
 6804 1a64 A24B     		ldr	r3, .L469
 6805 1a66 83FB0123 		smull	r2, r3, r3, r1
 6806 1a6a C917     		asrs	r1, r1, #31
 6807 1a6c C1EBA311 		rsb	r1, r1, r3, asr #6
 6808              	.L233:
 600:Lib/lvgl/src/themes/default/lv_theme_default.c ****     lv_style_set_border_color(&theme->styles.list_btn, theme->color_grey);
 6809              		.loc 1 600 5 discriminator 4 view .LVU1580
 6810 1a70 2846     		mov	r0, r5
 6811 1a72 FFF7FEFF 		bl	lv_style_set_border_width
 6812              	.LVL655:
 601:Lib/lvgl/src/themes/default/lv_theme_default.c ****     lv_style_set_border_side(&theme->styles.list_btn, LV_BORDER_SIDE_BOTTOM);
 6813              		.loc 1 601 5 is_stmt 1 discriminator 4 view .LVU1581
 6814 1a76 94F83930 		ldrb	r3, [r4, #57]	@ zero_extendqisi2
 6815 1a7a 94F83A20 		ldrb	r2, [r4, #58]	@ zero_extendqisi2
 6816 1a7e 43EA0223 		orr	r3, r3, r2, lsl #8
 6817 1a82 94F83B10 		ldrb	r1, [r4, #59]	@ zero_extendqisi2
 6818 1a86 43EA0141 		orr	r1, r3, r1, lsl #16
 6819 1a8a 2846     		mov	r0, r5
 6820 1a8c FFF7FEFF 		bl	lv_style_set_border_color
 6821              	.LVL656:
 602:Lib/lvgl/src/themes/default/lv_theme_default.c ****     lv_style_set_pad_all(&theme->styles.list_btn, PAD_SMALL);
 6822              		.loc 1 602 5 discriminator 4 view .LVU1582
 6823 1a90 0121     		movs	r1, #1
 6824 1a92 2846     		mov	r0, r5
 6825 1a94 FFF7FEFF 		bl	lv_style_set_border_side
 6826              	.LVL657:
 603:Lib/lvgl/src/themes/default/lv_theme_default.c ****     lv_style_set_pad_column(&theme->styles.list_btn, PAD_SMALL);
 6827              		.loc 1 603 5 discriminator 4 view .LVU1583
 603:Lib/lvgl/src/themes/default/lv_theme_default.c ****     lv_style_set_pad_column(&theme->styles.list_btn, PAD_SMALL);
 6828              		.loc 1 603 51 is_stmt 0 discriminator 4 view .LVU1584
 6829 1a98 E16A     		ldr	r1, [r4, #44]
 6830 1a9a 94F82830 		ldrb	r3, [r4, #40]	@ zero_extendqisi2
 6831 1a9e 012B     		cmp	r3, #1
 6832 1aa0 00F00781 		beq	.L389
 603:Lib/lvgl/src/themes/default/lv_theme_default.c ****     lv_style_set_pad_column(&theme->styles.list_btn, PAD_SMALL);
 6833              		.loc 1 603 51 discriminator 1 view .LVU1585
 6834 1aa4 022B     		cmp	r3, #2
ARM GAS  C:\Users\Alex\AppData\Local\Temp\ccR26jun.s 			page 187


 6835 1aa6 00F00281 		beq	.L446
 603:Lib/lvgl/src/themes/default/lv_theme_default.c ****     lv_style_set_pad_column(&theme->styles.list_btn, PAD_SMALL);
 6836              		.loc 1 603 51 view .LVU1586
 6837 1aaa 0A23     		movs	r3, #10
 6838              	.L234:
 603:Lib/lvgl/src/themes/default/lv_theme_default.c ****     lv_style_set_pad_column(&theme->styles.list_btn, PAD_SMALL);
 6839              		.loc 1 603 51 discriminator 8 view .LVU1587
 6840 1aac 03FB01F1 		mul	r1, r3, r1
 603:Lib/lvgl/src/themes/default/lv_theme_default.c ****     lv_style_set_pad_column(&theme->styles.list_btn, PAD_SMALL);
 6841              		.loc 1 603 5 discriminator 8 view .LVU1588
 6842 1ab0 EF29     		cmp	r1, #239
 6843 1ab2 40F30081 		ble	.L391
 603:Lib/lvgl/src/themes/default/lv_theme_default.c ****     lv_style_set_pad_column(&theme->styles.list_btn, PAD_SMALL);
 6844              		.loc 1 603 51 discriminator 18 view .LVU1589
 6845 1ab6 5031     		adds	r1, r1, #80
 603:Lib/lvgl/src/themes/default/lv_theme_default.c ****     lv_style_set_pad_column(&theme->styles.list_btn, PAD_SMALL);
 6846              		.loc 1 603 5 discriminator 18 view .LVU1590
 6847 1ab8 8D4B     		ldr	r3, .L469
 6848 1aba 83FB0123 		smull	r2, r3, r3, r1
 6849 1abe C917     		asrs	r1, r1, #31
 6850 1ac0 C1EBA311 		rsb	r1, r1, r3, asr #6
 6851              	.L235:
 603:Lib/lvgl/src/themes/default/lv_theme_default.c ****     lv_style_set_pad_column(&theme->styles.list_btn, PAD_SMALL);
 6852              		.loc 1 603 5 discriminator 20 view .LVU1591
 6853 1ac4 2846     		mov	r0, r5
 6854 1ac6 FFF7FEFF 		bl	lv_style_set_pad_all
 6855              	.LVL658:
 604:Lib/lvgl/src/themes/default/lv_theme_default.c **** 
 6856              		.loc 1 604 5 is_stmt 1 discriminator 20 view .LVU1592
 604:Lib/lvgl/src/themes/default/lv_theme_default.c **** 
 6857              		.loc 1 604 54 is_stmt 0 discriminator 20 view .LVU1593
 6858 1aca E16A     		ldr	r1, [r4, #44]
 6859 1acc 94F82830 		ldrb	r3, [r4, #40]	@ zero_extendqisi2
 6860 1ad0 012B     		cmp	r3, #1
 6861 1ad2 00F0F480 		beq	.L392
 604:Lib/lvgl/src/themes/default/lv_theme_default.c **** 
 6862              		.loc 1 604 54 discriminator 1 view .LVU1594
 6863 1ad6 022B     		cmp	r3, #2
 6864 1ad8 00F0EF80 		beq	.L447
 604:Lib/lvgl/src/themes/default/lv_theme_default.c **** 
 6865              		.loc 1 604 54 view .LVU1595
 6866 1adc 0A23     		movs	r3, #10
 6867              	.L236:
 604:Lib/lvgl/src/themes/default/lv_theme_default.c **** 
 6868              		.loc 1 604 54 discriminator 8 view .LVU1596
 6869 1ade 03FB01F1 		mul	r1, r3, r1
 604:Lib/lvgl/src/themes/default/lv_theme_default.c **** 
 6870              		.loc 1 604 5 discriminator 8 view .LVU1597
 6871 1ae2 EF29     		cmp	r1, #239
 6872 1ae4 40F3ED80 		ble	.L394
 604:Lib/lvgl/src/themes/default/lv_theme_default.c **** 
 6873              		.loc 1 604 54 discriminator 18 view .LVU1598
 6874 1ae8 5031     		adds	r1, r1, #80
 604:Lib/lvgl/src/themes/default/lv_theme_default.c **** 
 6875              		.loc 1 604 5 discriminator 18 view .LVU1599
 6876 1aea 814B     		ldr	r3, .L469
 6877 1aec 83FB0123 		smull	r2, r3, r3, r1
ARM GAS  C:\Users\Alex\AppData\Local\Temp\ccR26jun.s 			page 188


 6878 1af0 C917     		asrs	r1, r1, #31
 6879 1af2 C1EBA311 		rsb	r1, r1, r3, asr #6
 6880              	.L237:
 604:Lib/lvgl/src/themes/default/lv_theme_default.c **** 
 6881              		.loc 1 604 5 discriminator 20 view .LVU1600
 6882 1af6 2846     		mov	r0, r5
 6883 1af8 FFF7FEFF 		bl	lv_style_set_pad_column
 6884              	.LVL659:
 606:Lib/lvgl/src/themes/default/lv_theme_default.c ****     lv_style_set_transform_width(&theme->styles.list_item_grow, PAD_DEF);
 6885              		.loc 1 606 5 is_stmt 1 discriminator 20 view .LVU1601
 6886 1afc 04F54775 		add	r5, r4, #796
 6887 1b00 2846     		mov	r0, r5
 6888 1b02 FFF7FEFF 		bl	style_init_reset
 6889              	.LVL660:
 607:Lib/lvgl/src/themes/default/lv_theme_default.c **** #endif
 6890              		.loc 1 607 5 discriminator 20 view .LVU1602
 607:Lib/lvgl/src/themes/default/lv_theme_default.c **** #endif
 6891              		.loc 1 607 65 is_stmt 0 discriminator 20 view .LVU1603
 6892 1b06 E16A     		ldr	r1, [r4, #44]
 6893 1b08 94F82830 		ldrb	r3, [r4, #40]	@ zero_extendqisi2
 6894 1b0c 012B     		cmp	r3, #1
 6895 1b0e 00F0DC80 		beq	.L395
 607:Lib/lvgl/src/themes/default/lv_theme_default.c **** #endif
 6896              		.loc 1 607 65 discriminator 1 view .LVU1604
 6897 1b12 022B     		cmp	r3, #2
 6898 1b14 00F0D780 		beq	.L448
 607:Lib/lvgl/src/themes/default/lv_theme_default.c **** #endif
 6899              		.loc 1 607 65 view .LVU1605
 6900 1b18 1023     		movs	r3, #16
 6901              	.L238:
 607:Lib/lvgl/src/themes/default/lv_theme_default.c **** #endif
 6902              		.loc 1 607 65 discriminator 8 view .LVU1606
 6903 1b1a 03FB01F1 		mul	r1, r3, r1
 607:Lib/lvgl/src/themes/default/lv_theme_default.c **** #endif
 6904              		.loc 1 607 5 discriminator 8 view .LVU1607
 6905 1b1e EF29     		cmp	r1, #239
 6906 1b20 40F3D580 		ble	.L397
 607:Lib/lvgl/src/themes/default/lv_theme_default.c **** #endif
 6907              		.loc 1 607 65 discriminator 18 view .LVU1608
 6908 1b24 5031     		adds	r1, r1, #80
 607:Lib/lvgl/src/themes/default/lv_theme_default.c **** #endif
 6909              		.loc 1 607 5 discriminator 18 view .LVU1609
 6910 1b26 724B     		ldr	r3, .L469
 6911 1b28 83FB0123 		smull	r2, r3, r3, r1
 6912 1b2c C917     		asrs	r1, r1, #31
 6913 1b2e C1EBA311 		rsb	r1, r1, r3, asr #6
 6914              	.L239:
 607:Lib/lvgl/src/themes/default/lv_theme_default.c **** #endif
 6915              		.loc 1 607 5 discriminator 20 view .LVU1610
 6916 1b32 2846     		mov	r0, r5
 6917 1b34 FFF7FEFF 		bl	lv_style_set_transform_width
 6918              	.LVL661:
 611:Lib/lvgl/src/themes/default/lv_theme_default.c ****     lv_style_set_bg_opa(&theme->styles.led, LV_OPA_COVER);
 6919              		.loc 1 611 5 is_stmt 1 discriminator 20 view .LVU1611
 6920 1b38 04F55075 		add	r5, r4, #832
 6921 1b3c 2846     		mov	r0, r5
 6922 1b3e FFF7FEFF 		bl	style_init_reset
ARM GAS  C:\Users\Alex\AppData\Local\Temp\ccR26jun.s 			page 189


 6923              	.LVL662:
 612:Lib/lvgl/src/themes/default/lv_theme_default.c ****     lv_style_set_bg_color(&theme->styles.led, lv_color_white());
 6924              		.loc 1 612 5 discriminator 20 view .LVU1612
 6925 1b42 FF21     		movs	r1, #255
 6926 1b44 2846     		mov	r0, r5
 6927 1b46 FFF7FEFF 		bl	lv_style_set_bg_opa
 6928              	.LVL663:
 613:Lib/lvgl/src/themes/default/lv_theme_default.c ****     lv_style_set_bg_grad_color(&theme->styles.led, lv_palette_main(LV_PALETTE_GREY));
 6929              		.loc 1 613 5 discriminator 20 view .LVU1613
 6930              	.LBB87:
 6931              	.LBI87:
 413:c:\users\alex\eclipse-workspace\lvgs_test\lib\lvgl\src\misc\lv_color.h **** {
 6932              		.loc 2 413 26 discriminator 20 view .LVU1614
 6933              		.loc 2 415 5 discriminator 20 view .LVU1615
 6934              	.LBB88:
 6935              	.LBI88:
 286:c:\users\alex\eclipse-workspace\lvgs_test\lib\lvgl\src\misc\lv_color.h **** {
 6936              		.loc 2 286 26 discriminator 20 view .LVU1616
 6937              	.LBB89:
 288:c:\users\alex\eclipse-workspace\lvgs_test\lib\lvgl\src\misc\lv_color.h ****     ret.red = r;
 6938              		.loc 2 288 5 discriminator 20 view .LVU1617
 289:c:\users\alex\eclipse-workspace\lvgs_test\lib\lvgl\src\misc\lv_color.h ****     ret.green = g;
 6939              		.loc 2 289 5 discriminator 20 view .LVU1618
 289:c:\users\alex\eclipse-workspace\lvgs_test\lib\lvgl\src\misc\lv_color.h ****     ret.green = g;
 6940              		.loc 2 289 13 is_stmt 0 discriminator 20 view .LVU1619
 6941 1b4a FF23     		movs	r3, #255
 6942 1b4c 8DF80E30 		strb	r3, [sp, #14]
 290:c:\users\alex\eclipse-workspace\lvgs_test\lib\lvgl\src\misc\lv_color.h ****     ret.blue = b;
 6943              		.loc 2 290 5 is_stmt 1 discriminator 20 view .LVU1620
 290:c:\users\alex\eclipse-workspace\lvgs_test\lib\lvgl\src\misc\lv_color.h ****     ret.blue = b;
 6944              		.loc 2 290 15 is_stmt 0 discriminator 20 view .LVU1621
 6945 1b50 8DF80D30 		strb	r3, [sp, #13]
 291:c:\users\alex\eclipse-workspace\lvgs_test\lib\lvgl\src\misc\lv_color.h ****     return ret;
 6946              		.loc 2 291 5 is_stmt 1 discriminator 20 view .LVU1622
 291:c:\users\alex\eclipse-workspace\lvgs_test\lib\lvgl\src\misc\lv_color.h ****     return ret;
 6947              		.loc 2 291 14 is_stmt 0 discriminator 20 view .LVU1623
 6948 1b54 8DF80C30 		strb	r3, [sp, #12]
 292:c:\users\alex\eclipse-workspace\lvgs_test\lib\lvgl\src\misc\lv_color.h **** }
 6949              		.loc 2 292 5 is_stmt 1 discriminator 20 view .LVU1624
 292:c:\users\alex\eclipse-workspace\lvgs_test\lib\lvgl\src\misc\lv_color.h **** }
 6950              		.loc 2 292 12 is_stmt 0 discriminator 20 view .LVU1625
 6951 1b58 039B     		ldr	r3, [sp, #12]
 6952 1b5a ADF88830 		strh	r3, [sp, #136]	@ movhi
 6953 1b5e 1B0C     		lsrs	r3, r3, #16
 6954 1b60 8DF88A30 		strb	r3, [sp, #138]
 6955 1b64 229B     		ldr	r3, [sp, #136]
 6956 1b66 ADF88C30 		strh	r3, [sp, #140]	@ movhi
 6957 1b6a 1B0C     		lsrs	r3, r3, #16
 6958 1b6c 8DF88E30 		strb	r3, [sp, #142]
 6959              	.LVL664:
 292:c:\users\alex\eclipse-workspace\lvgs_test\lib\lvgl\src\misc\lv_color.h **** }
 6960              		.loc 2 292 12 discriminator 20 view .LVU1626
 6961 1b70 239B     		ldr	r3, [sp, #140]
 6962 1b72 ADF83830 		strh	r3, [sp, #56]	@ movhi
 6963 1b76 1B0C     		lsrs	r3, r3, #16
 6964 1b78 8DF83A30 		strb	r3, [sp, #58]
 6965              	.LBE89:
ARM GAS  C:\Users\Alex\AppData\Local\Temp\ccR26jun.s 			page 190


 6966              	.LBE88:
 6967              	.LBE87:
 613:Lib/lvgl/src/themes/default/lv_theme_default.c ****     lv_style_set_bg_grad_color(&theme->styles.led, lv_palette_main(LV_PALETTE_GREY));
 6968              		.loc 1 613 5 discriminator 20 view .LVU1627
 6969 1b7c 0E99     		ldr	r1, [sp, #56]
 6970 1b7e 2846     		mov	r0, r5
 6971 1b80 FFF7FEFF 		bl	lv_style_set_bg_color
 6972              	.LVL665:
 614:Lib/lvgl/src/themes/default/lv_theme_default.c ****     lv_style_set_radius(&theme->styles.led, LV_RADIUS_CIRCLE);
 6973              		.loc 1 614 5 is_stmt 1 discriminator 20 view .LVU1628
 6974 1b84 1220     		movs	r0, #18
 6975 1b86 FFF7FEFF 		bl	lv_palette_main
 6976              	.LVL666:
 6977 1b8a 8DF83C00 		strb	r0, [sp, #60]
 6978 1b8e C0F30723 		ubfx	r3, r0, #8, #8
 6979 1b92 8DF83D30 		strb	r3, [sp, #61]
 6980 1b96 C0F30740 		ubfx	r0, r0, #16, #8
 6981 1b9a 8DF83E00 		strb	r0, [sp, #62]
 6982 1b9e 0F99     		ldr	r1, [sp, #60]
 6983 1ba0 2846     		mov	r0, r5
 6984 1ba2 FFF7FEFF 		bl	lv_style_set_bg_grad_color
 6985              	.LVL667:
 615:Lib/lvgl/src/themes/default/lv_theme_default.c ****     lv_style_set_shadow_width(&theme->styles.led, _LV_DPX_CALC(theme->disp_dpi, 15));
 6986              		.loc 1 615 5 discriminator 20 view .LVU1629
 6987 1ba6 47F6FF71 		movw	r1, #32767
 6988 1baa 2846     		mov	r0, r5
 6989 1bac FFF7FEFF 		bl	lv_style_set_radius
 6990              	.LVL668:
 616:Lib/lvgl/src/themes/default/lv_theme_default.c ****     lv_style_set_shadow_color(&theme->styles.led, lv_color_white());
 6991              		.loc 1 616 5 discriminator 20 view .LVU1630
 616:Lib/lvgl/src/themes/default/lv_theme_default.c ****     lv_style_set_shadow_color(&theme->styles.led, lv_color_white());
 6992              		.loc 1 616 51 is_stmt 0 discriminator 20 view .LVU1631
 6993 1bb0 E16A     		ldr	r1, [r4, #44]
 6994 1bb2 C1EB0111 		rsb	r1, r1, r1, lsl #4
 616:Lib/lvgl/src/themes/default/lv_theme_default.c ****     lv_style_set_shadow_color(&theme->styles.led, lv_color_white());
 6995              		.loc 1 616 5 discriminator 20 view .LVU1632
 6996 1bb6 EF29     		cmp	r1, #239
 6997 1bb8 40F38B80 		ble	.L398
 616:Lib/lvgl/src/themes/default/lv_theme_default.c ****     lv_style_set_shadow_color(&theme->styles.led, lv_color_white());
 6998              		.loc 1 616 51 discriminator 1 view .LVU1633
 6999 1bbc 5031     		adds	r1, r1, #80
 616:Lib/lvgl/src/themes/default/lv_theme_default.c ****     lv_style_set_shadow_color(&theme->styles.led, lv_color_white());
 7000              		.loc 1 616 5 discriminator 1 view .LVU1634
 7001 1bbe 4C4B     		ldr	r3, .L469
 7002 1bc0 83FB0123 		smull	r2, r3, r3, r1
 7003 1bc4 C917     		asrs	r1, r1, #31
 7004 1bc6 C1EBA311 		rsb	r1, r1, r3, asr #6
 7005              	.L240:
 616:Lib/lvgl/src/themes/default/lv_theme_default.c ****     lv_style_set_shadow_color(&theme->styles.led, lv_color_white());
 7006              		.loc 1 616 5 discriminator 4 view .LVU1635
 7007 1bca 2846     		mov	r0, r5
 7008 1bcc FFF7FEFF 		bl	lv_style_set_shadow_width
 7009              	.LVL669:
 617:Lib/lvgl/src/themes/default/lv_theme_default.c ****     lv_style_set_shadow_spread(&theme->styles.led, _LV_DPX_CALC(theme->disp_dpi, 5));
 7010              		.loc 1 617 5 is_stmt 1 discriminator 4 view .LVU1636
 7011              	.LBB90:
 7012              	.LBI90:
ARM GAS  C:\Users\Alex\AppData\Local\Temp\ccR26jun.s 			page 191


 413:c:\users\alex\eclipse-workspace\lvgs_test\lib\lvgl\src\misc\lv_color.h **** {
 7013              		.loc 2 413 26 discriminator 4 view .LVU1637
 7014              		.loc 2 415 5 discriminator 4 view .LVU1638
 7015              	.LBB91:
 7016              	.LBI91:
 286:c:\users\alex\eclipse-workspace\lvgs_test\lib\lvgl\src\misc\lv_color.h **** {
 7017              		.loc 2 286 26 discriminator 4 view .LVU1639
 7018              	.LBB92:
 288:c:\users\alex\eclipse-workspace\lvgs_test\lib\lvgl\src\misc\lv_color.h ****     ret.red = r;
 7019              		.loc 2 288 5 discriminator 4 view .LVU1640
 289:c:\users\alex\eclipse-workspace\lvgs_test\lib\lvgl\src\misc\lv_color.h ****     ret.green = g;
 7020              		.loc 2 289 5 discriminator 4 view .LVU1641
 289:c:\users\alex\eclipse-workspace\lvgs_test\lib\lvgl\src\misc\lv_color.h ****     ret.green = g;
 7021              		.loc 2 289 13 is_stmt 0 discriminator 4 view .LVU1642
 7022 1bd0 FF23     		movs	r3, #255
 7023 1bd2 8DF80E30 		strb	r3, [sp, #14]
 290:c:\users\alex\eclipse-workspace\lvgs_test\lib\lvgl\src\misc\lv_color.h ****     ret.blue = b;
 7024              		.loc 2 290 5 is_stmt 1 discriminator 4 view .LVU1643
 290:c:\users\alex\eclipse-workspace\lvgs_test\lib\lvgl\src\misc\lv_color.h ****     ret.blue = b;
 7025              		.loc 2 290 15 is_stmt 0 discriminator 4 view .LVU1644
 7026 1bd6 8DF80D30 		strb	r3, [sp, #13]
 291:c:\users\alex\eclipse-workspace\lvgs_test\lib\lvgl\src\misc\lv_color.h ****     return ret;
 7027              		.loc 2 291 5 is_stmt 1 discriminator 4 view .LVU1645
 291:c:\users\alex\eclipse-workspace\lvgs_test\lib\lvgl\src\misc\lv_color.h ****     return ret;
 7028              		.loc 2 291 14 is_stmt 0 discriminator 4 view .LVU1646
 7029 1bda 8DF80C30 		strb	r3, [sp, #12]
 292:c:\users\alex\eclipse-workspace\lvgs_test\lib\lvgl\src\misc\lv_color.h **** }
 7030              		.loc 2 292 5 is_stmt 1 discriminator 4 view .LVU1647
 292:c:\users\alex\eclipse-workspace\lvgs_test\lib\lvgl\src\misc\lv_color.h **** }
 7031              		.loc 2 292 12 is_stmt 0 discriminator 4 view .LVU1648
 7032 1bde 039B     		ldr	r3, [sp, #12]
 7033 1be0 ADF89030 		strh	r3, [sp, #144]	@ movhi
 7034 1be4 1B0C     		lsrs	r3, r3, #16
 7035 1be6 8DF89230 		strb	r3, [sp, #146]
 7036 1bea 249B     		ldr	r3, [sp, #144]
 7037 1bec ADF89430 		strh	r3, [sp, #148]	@ movhi
 7038 1bf0 1B0C     		lsrs	r3, r3, #16
 7039 1bf2 8DF89630 		strb	r3, [sp, #150]
 7040              	.LVL670:
 292:c:\users\alex\eclipse-workspace\lvgs_test\lib\lvgl\src\misc\lv_color.h **** }
 7041              		.loc 2 292 12 discriminator 4 view .LVU1649
 7042 1bf6 259B     		ldr	r3, [sp, #148]
 7043 1bf8 ADF84030 		strh	r3, [sp, #64]	@ movhi
 7044 1bfc 1B0C     		lsrs	r3, r3, #16
 7045 1bfe 8DF84230 		strb	r3, [sp, #66]
 7046              	.LBE92:
 7047              	.LBE91:
 7048              	.LBE90:
 617:Lib/lvgl/src/themes/default/lv_theme_default.c ****     lv_style_set_shadow_spread(&theme->styles.led, _LV_DPX_CALC(theme->disp_dpi, 5));
 7049              		.loc 1 617 5 discriminator 4 view .LVU1650
 7050 1c02 1099     		ldr	r1, [sp, #64]
 7051 1c04 2846     		mov	r0, r5
 7052 1c06 FFF7FEFF 		bl	lv_style_set_shadow_color
 7053              	.LVL671:
 618:Lib/lvgl/src/themes/default/lv_theme_default.c **** #endif
 7054              		.loc 1 618 5 is_stmt 1 discriminator 4 view .LVU1651
 618:Lib/lvgl/src/themes/default/lv_theme_default.c **** #endif
ARM GAS  C:\Users\Alex\AppData\Local\Temp\ccR26jun.s 			page 192


 7055              		.loc 1 618 52 is_stmt 0 discriminator 4 view .LVU1652
 7056 1c0a E16A     		ldr	r1, [r4, #44]
 7057 1c0c 01EB8101 		add	r1, r1, r1, lsl #2
 618:Lib/lvgl/src/themes/default/lv_theme_default.c **** #endif
 7058              		.loc 1 618 5 discriminator 4 view .LVU1653
 7059 1c10 EF29     		cmp	r1, #239
 7060 1c12 60DD     		ble	.L399
 618:Lib/lvgl/src/themes/default/lv_theme_default.c **** #endif
 7061              		.loc 1 618 52 discriminator 1 view .LVU1654
 7062 1c14 5031     		adds	r1, r1, #80
 618:Lib/lvgl/src/themes/default/lv_theme_default.c **** #endif
 7063              		.loc 1 618 5 discriminator 1 view .LVU1655
 7064 1c16 364B     		ldr	r3, .L469
 7065 1c18 83FB0123 		smull	r2, r3, r3, r1
 7066 1c1c C917     		asrs	r1, r1, #31
 7067 1c1e C1EBA311 		rsb	r1, r1, r3, asr #6
 7068              	.L241:
 618:Lib/lvgl/src/themes/default/lv_theme_default.c **** #endif
 7069              		.loc 1 618 5 discriminator 4 view .LVU1656
 7070 1c22 2846     		mov	r0, r5
 7071 1c24 FFF7FEFF 		bl	lv_style_set_shadow_spread
 7072              	.LVL672:
 622:Lib/lvgl/src/themes/default/lv_theme_default.c ****     lv_style_set_line_color(&theme->styles.scale, theme->color_text);
 7073              		.loc 1 622 5 is_stmt 1 discriminator 4 view .LVU1657
 7074 1c28 04F55375 		add	r5, r4, #844
 7075 1c2c 2846     		mov	r0, r5
 7076 1c2e FFF7FEFF 		bl	style_init_reset
 7077              	.LVL673:
 623:Lib/lvgl/src/themes/default/lv_theme_default.c ****     lv_style_set_line_width(&theme->styles.scale, LV_DPX(2));
 7078              		.loc 1 623 5 discriminator 4 view .LVU1658
 7079 1c32 94F83330 		ldrb	r3, [r4, #51]	@ zero_extendqisi2
 7080 1c36 94F83420 		ldrb	r2, [r4, #52]	@ zero_extendqisi2
 7081 1c3a 43EA0223 		orr	r3, r3, r2, lsl #8
 7082 1c3e 94F83510 		ldrb	r1, [r4, #53]	@ zero_extendqisi2
 7083 1c42 43EA0141 		orr	r1, r3, r1, lsl #16
 7084 1c46 2846     		mov	r0, r5
 7085 1c48 FFF7FEFF 		bl	lv_style_set_line_color
 7086              	.LVL674:
 624:Lib/lvgl/src/themes/default/lv_theme_default.c ****     lv_style_set_arc_color(&theme->styles.scale, theme->color_text);
 7087              		.loc 1 624 5 discriminator 4 view .LVU1659
 624:Lib/lvgl/src/themes/default/lv_theme_default.c ****     lv_style_set_arc_color(&theme->styles.scale, theme->color_text);
 7088              		.loc 1 624 51 is_stmt 0 discriminator 4 view .LVU1660
 7089 1c4c 0020     		movs	r0, #0
 7090 1c4e FFF7FEFF 		bl	lv_display_get_dpi
 7091              	.LVL675:
 624:Lib/lvgl/src/themes/default/lv_theme_default.c ****     lv_style_set_arc_color(&theme->styles.scale, theme->color_text);
 7092              		.loc 1 624 5 discriminator 4 view .LVU1661
 7093 1c52 7728     		cmp	r0, #119
 7094 1c54 41DC     		bgt	.L449
 624:Lib/lvgl/src/themes/default/lv_theme_default.c ****     lv_style_set_arc_color(&theme->styles.scale, theme->color_text);
 7095              		.loc 1 624 5 view .LVU1662
 7096 1c56 0121     		movs	r1, #1
 7097              	.L242:
 624:Lib/lvgl/src/themes/default/lv_theme_default.c ****     lv_style_set_arc_color(&theme->styles.scale, theme->color_text);
 7098              		.loc 1 624 5 discriminator 4 view .LVU1663
 7099 1c58 2846     		mov	r0, r5
 7100 1c5a FFF7FEFF 		bl	lv_style_set_line_width
ARM GAS  C:\Users\Alex\AppData\Local\Temp\ccR26jun.s 			page 193


 7101              	.LVL676:
 625:Lib/lvgl/src/themes/default/lv_theme_default.c ****     lv_style_set_arc_width(&theme->styles.scale, LV_DPX(2));
 7102              		.loc 1 625 5 is_stmt 1 discriminator 4 view .LVU1664
 7103 1c5e 94F83330 		ldrb	r3, [r4, #51]	@ zero_extendqisi2
 7104 1c62 94F83420 		ldrb	r2, [r4, #52]	@ zero_extendqisi2
 7105 1c66 43EA0223 		orr	r3, r3, r2, lsl #8
 7106 1c6a 94F83510 		ldrb	r1, [r4, #53]	@ zero_extendqisi2
 7107 1c6e 43EA0141 		orr	r1, r3, r1, lsl #16
 7108 1c72 2846     		mov	r0, r5
 7109 1c74 FFF7FEFF 		bl	lv_style_set_arc_color
 7110              	.LVL677:
 626:Lib/lvgl/src/themes/default/lv_theme_default.c **** #endif
 7111              		.loc 1 626 5 discriminator 4 view .LVU1665
 626:Lib/lvgl/src/themes/default/lv_theme_default.c **** #endif
 7112              		.loc 1 626 50 is_stmt 0 discriminator 4 view .LVU1666
 7113 1c78 0020     		movs	r0, #0
 7114 1c7a FFF7FEFF 		bl	lv_display_get_dpi
 7115              	.LVL678:
 626:Lib/lvgl/src/themes/default/lv_theme_default.c **** #endif
 7116              		.loc 1 626 5 discriminator 4 view .LVU1667
 7117 1c7e 7728     		cmp	r0, #119
 7118 1c80 38DC     		bgt	.L450
 626:Lib/lvgl/src/themes/default/lv_theme_default.c **** #endif
 7119              		.loc 1 626 5 view .LVU1668
 7120 1c82 0121     		movs	r1, #1
 7121              	.L243:
 626:Lib/lvgl/src/themes/default/lv_theme_default.c **** #endif
 7122              		.loc 1 626 5 discriminator 4 view .LVU1669
 7123 1c84 2846     		mov	r0, r5
 7124 1c86 FFF7FEFF 		bl	lv_style_set_arc_width
 7125              	.LVL679:
 628:Lib/lvgl/src/themes/default/lv_theme_default.c **** 
 7126              		.loc 1 628 1 discriminator 4 view .LVU1670
 7127 1c8a 27B0     		add	sp, sp, #156
 7128              	.LCFI19:
 7129              		.cfi_remember_state
 7130              		.cfi_def_cfa_offset 36
 7131              		@ sp needed
 7132 1c8c BDE8F08F 		pop	{r4, r5, r6, r7, r8, r9, r10, fp, pc}
 7133              	.LVL680:
 7134              	.L382:
 7135              	.LCFI20:
 7136              		.cfi_restore_state
 584:Lib/lvgl/src/themes/default/lv_theme_default.c ****     lv_style_set_border_side(&theme->styles.tab_btn, LV_BORDER_SIDE_BOTTOM);
 7137              		.loc 1 584 5 view .LVU1671
 7138 1c90 0221     		movs	r1, #2
 7139 1c92 8AE6     		b	.L228
 7140              	.L383:
 586:Lib/lvgl/src/themes/default/lv_theme_default.c **** 
 7141              		.loc 1 586 5 view .LVU1672
 7142 1c94 0221     		movs	r1, #2
 7143 1c96 9BE6     		b	.L229
 7144              	.L384:
 589:Lib/lvgl/src/themes/default/lv_theme_default.c **** #endif
 7145              		.loc 1 589 5 view .LVU1673
 7146 1c98 4FF0FF31 		mov	r1, #-1
 7147 1c9c ABE6     		b	.L230
ARM GAS  C:\Users\Alex\AppData\Local\Temp\ccR26jun.s 			page 194


 7148              	.L445:
 594:Lib/lvgl/src/themes/default/lv_theme_default.c ****     lv_style_set_pad_ver(&theme->styles.list_bg, 0);
 7149              		.loc 1 594 50 view .LVU1674
 7150 1c9e 1423     		movs	r3, #20
 7151 1ca0 BBE6     		b	.L231
 7152              	.L385:
 7153 1ca2 1823     		movs	r3, #24
 7154 1ca4 B9E6     		b	.L231
 7155              	.L387:
 594:Lib/lvgl/src/themes/default/lv_theme_default.c ****     lv_style_set_pad_ver(&theme->styles.list_bg, 0);
 7156              		.loc 1 594 5 view .LVU1675
 7157 1ca6 0121     		movs	r1, #1
 7158 1ca8 C3E6     		b	.L232
 7159              	.L388:
 600:Lib/lvgl/src/themes/default/lv_theme_default.c ****     lv_style_set_border_color(&theme->styles.list_btn, theme->color_grey);
 7160              		.loc 1 600 5 view .LVU1676
 7161 1caa 0121     		movs	r1, #1
 7162 1cac E0E6     		b	.L233
 7163              	.L446:
 603:Lib/lvgl/src/themes/default/lv_theme_default.c ****     lv_style_set_pad_column(&theme->styles.list_btn, PAD_SMALL);
 7164              		.loc 1 603 51 view .LVU1677
 7165 1cae 0C23     		movs	r3, #12
 7166 1cb0 FCE6     		b	.L234
 7167              	.L389:
 7168 1cb2 0E23     		movs	r3, #14
 7169 1cb4 FAE6     		b	.L234
 7170              	.L391:
 603:Lib/lvgl/src/themes/default/lv_theme_default.c ****     lv_style_set_pad_column(&theme->styles.list_btn, PAD_SMALL);
 7171              		.loc 1 603 5 view .LVU1678
 7172 1cb6 0121     		movs	r1, #1
 7173 1cb8 04E7     		b	.L235
 7174              	.L447:
 604:Lib/lvgl/src/themes/default/lv_theme_default.c **** 
 7175              		.loc 1 604 54 view .LVU1679
 7176 1cba 0C23     		movs	r3, #12
 7177 1cbc 0FE7     		b	.L236
 7178              	.L392:
 7179 1cbe 0E23     		movs	r3, #14
 7180 1cc0 0DE7     		b	.L236
 7181              	.L394:
 604:Lib/lvgl/src/themes/default/lv_theme_default.c **** 
 7182              		.loc 1 604 5 view .LVU1680
 7183 1cc2 0121     		movs	r1, #1
 7184 1cc4 17E7     		b	.L237
 7185              	.L448:
 607:Lib/lvgl/src/themes/default/lv_theme_default.c **** #endif
 7186              		.loc 1 607 65 view .LVU1681
 7187 1cc6 1423     		movs	r3, #20
 7188 1cc8 27E7     		b	.L238
 7189              	.L395:
 7190 1cca 1823     		movs	r3, #24
 7191 1ccc 25E7     		b	.L238
 7192              	.L397:
 607:Lib/lvgl/src/themes/default/lv_theme_default.c **** #endif
 7193              		.loc 1 607 5 view .LVU1682
 7194 1cce 0121     		movs	r1, #1
 7195 1cd0 2FE7     		b	.L239
ARM GAS  C:\Users\Alex\AppData\Local\Temp\ccR26jun.s 			page 195


 7196              	.L398:
 616:Lib/lvgl/src/themes/default/lv_theme_default.c ****     lv_style_set_shadow_color(&theme->styles.led, lv_color_white());
 7197              		.loc 1 616 5 view .LVU1683
 7198 1cd2 0121     		movs	r1, #1
 7199 1cd4 79E7     		b	.L240
 7200              	.L399:
 618:Lib/lvgl/src/themes/default/lv_theme_default.c **** #endif
 7201              		.loc 1 618 5 view .LVU1684
 7202 1cd6 0121     		movs	r1, #1
 7203 1cd8 A3E7     		b	.L241
 7204              	.L449:
 624:Lib/lvgl/src/themes/default/lv_theme_default.c ****     lv_style_set_arc_color(&theme->styles.scale, theme->color_text);
 7205              		.loc 1 624 51 discriminator 1 view .LVU1685
 7206 1cda 0020     		movs	r0, #0
 7207 1cdc FFF7FEFF 		bl	lv_display_get_dpi
 7208              	.LVL681:
 7209 1ce0 2830     		adds	r0, r0, #40
 624:Lib/lvgl/src/themes/default/lv_theme_default.c ****     lv_style_set_arc_color(&theme->styles.scale, theme->color_text);
 7210              		.loc 1 624 5 discriminator 1 view .LVU1686
 7211 1ce2 034B     		ldr	r3, .L469
 7212 1ce4 83FB0023 		smull	r2, r3, r3, r0
 7213 1ce8 C117     		asrs	r1, r0, #31
 7214 1cea C1EB6311 		rsb	r1, r1, r3, asr #5
 7215 1cee B3E7     		b	.L242
 7216              	.L470:
 7217              		.align	2
 7218              	.L469:
 7219 1cf0 67666666 		.word	1717986919
 7220              	.L450:
 626:Lib/lvgl/src/themes/default/lv_theme_default.c **** #endif
 7221              		.loc 1 626 50 discriminator 1 view .LVU1687
 7222 1cf4 0020     		movs	r0, #0
 7223 1cf6 FFF7FEFF 		bl	lv_display_get_dpi
 7224              	.LVL682:
 7225 1cfa 2830     		adds	r0, r0, #40
 626:Lib/lvgl/src/themes/default/lv_theme_default.c **** #endif
 7226              		.loc 1 626 5 discriminator 1 view .LVU1688
 7227 1cfc 034B     		ldr	r3, .L471
 7228 1cfe 83FB0023 		smull	r2, r3, r3, r0
 7229 1d02 C117     		asrs	r1, r0, #31
 7230 1d04 C1EB6311 		rsb	r1, r1, r3, asr #5
 7231 1d08 BCE7     		b	.L243
 7232              	.L472:
 7233 1d0a 00BF     		.align	2
 7234              	.L471:
 7235 1d0c 67666666 		.word	1717986919
 7236              		.cfi_endproc
 7237              	.LFE258:
 7239              		.section	.text.lv_theme_default_deinit,"ax",%progbits
 7240              		.align	1
 7241              		.global	lv_theme_default_deinit
 7242              		.syntax unified
 7243              		.thumb
 7244              		.thumb_func
 7246              	lv_theme_default_deinit:
 7247              	.LFB260:
 688:Lib/lvgl/src/themes/default/lv_theme_default.c ****     my_theme_t * theme = theme_def;
ARM GAS  C:\Users\Alex\AppData\Local\Temp\ccR26jun.s 			page 196


 7248              		.loc 1 688 1 is_stmt 1 view -0
 7249              		.cfi_startproc
 7250              		@ args = 0, pretend = 0, frame = 0
 7251              		@ frame_needed = 0, uses_anonymous_args = 0
 7252 0000 38B5     		push	{r3, r4, r5, lr}
 7253              	.LCFI21:
 7254              		.cfi_def_cfa_offset 16
 7255              		.cfi_offset 3, -16
 7256              		.cfi_offset 4, -12
 7257              		.cfi_offset 5, -8
 7258              		.cfi_offset 14, -4
 689:Lib/lvgl/src/themes/default/lv_theme_default.c ****     if(theme) {
 7259              		.loc 1 689 5 view .LVU1690
 689:Lib/lvgl/src/themes/default/lv_theme_default.c ****     if(theme) {
 7260              		.loc 1 689 18 is_stmt 0 view .LVU1691
 7261 0002 0E4B     		ldr	r3, .L479
 7262 0004 D3F87C51 		ldr	r5, [r3, #380]
 7263              	.LVL683:
 690:Lib/lvgl/src/themes/default/lv_theme_default.c ****         if(theme->inited) {
 7264              		.loc 1 690 5 is_stmt 1 view .LVU1692
 690:Lib/lvgl/src/themes/default/lv_theme_default.c ****         if(theme->inited) {
 7265              		.loc 1 690 7 is_stmt 0 view .LVU1693
 7266 0008 B5B1     		cbz	r5, .L473
 691:Lib/lvgl/src/themes/default/lv_theme_default.c ****             lv_style_t * theme_styles = (lv_style_t *)(&(theme->styles));
 7267              		.loc 1 691 9 is_stmt 1 view .LVU1694
 691:Lib/lvgl/src/themes/default/lv_theme_default.c ****             lv_style_t * theme_styles = (lv_style_t *)(&(theme->styles));
 7268              		.loc 1 691 17 is_stmt 0 view .LVU1695
 7269 000a 95F83C30 		ldrb	r3, [r5, #60]	@ zero_extendqisi2
 691:Lib/lvgl/src/themes/default/lv_theme_default.c ****             lv_style_t * theme_styles = (lv_style_t *)(&(theme->styles));
 7270              		.loc 1 691 11 view .LVU1696
 7271 000e 5BB1     		cbz	r3, .L475
 7272              	.LBB93:
 692:Lib/lvgl/src/themes/default/lv_theme_default.c ****             uint32_t i;
 7273              		.loc 1 692 13 is_stmt 1 view .LVU1697
 692:Lib/lvgl/src/themes/default/lv_theme_default.c ****             uint32_t i;
 7274              		.loc 1 692 26 is_stmt 0 view .LVU1698
 7275 0010 4035     		adds	r5, r5, #64
 7276              	.LVL684:
 693:Lib/lvgl/src/themes/default/lv_theme_default.c ****             for(i = 0; i < sizeof(my_theme_styles_t) / sizeof(lv_style_t); i++) {
 7277              		.loc 1 693 13 is_stmt 1 view .LVU1699
 694:Lib/lvgl/src/themes/default/lv_theme_default.c ****                 lv_style_reset(theme_styles + i);
 7278              		.loc 1 694 13 view .LVU1700
 694:Lib/lvgl/src/themes/default/lv_theme_default.c ****                 lv_style_reset(theme_styles + i);
 7279              		.loc 1 694 19 is_stmt 0 view .LVU1701
 7280 0012 0024     		movs	r4, #0
 694:Lib/lvgl/src/themes/default/lv_theme_default.c ****                 lv_style_reset(theme_styles + i);
 7281              		.loc 1 694 13 view .LVU1702
 7282 0014 06E0     		b	.L476
 7283              	.LVL685:
 7284              	.L477:
 695:Lib/lvgl/src/themes/default/lv_theme_default.c ****             }
 7285              		.loc 1 695 17 is_stmt 1 discriminator 3 view .LVU1703
 695:Lib/lvgl/src/themes/default/lv_theme_default.c ****             }
 7286              		.loc 1 695 45 is_stmt 0 discriminator 3 view .LVU1704
 7287 0016 04EB4403 		add	r3, r4, r4, lsl #1
 7288 001a 9800     		lsls	r0, r3, #2
 695:Lib/lvgl/src/themes/default/lv_theme_default.c ****             }
ARM GAS  C:\Users\Alex\AppData\Local\Temp\ccR26jun.s 			page 197


 7289              		.loc 1 695 17 discriminator 3 view .LVU1705
 7290 001c 2844     		add	r0, r0, r5
 7291 001e FFF7FEFF 		bl	lv_style_reset
 7292              	.LVL686:
 694:Lib/lvgl/src/themes/default/lv_theme_default.c ****                 lv_style_reset(theme_styles + i);
 7293              		.loc 1 694 77 is_stmt 1 discriminator 3 view .LVU1706
 7294 0022 0134     		adds	r4, r4, #1
 7295              	.LVL687:
 7296              	.L476:
 694:Lib/lvgl/src/themes/default/lv_theme_default.c ****                 lv_style_reset(theme_styles + i);
 7297              		.loc 1 694 26 discriminator 1 view .LVU1707
 7298 0024 412C     		cmp	r4, #65
 7299 0026 F6D9     		bls	.L477
 7300              	.LVL688:
 7301              	.L475:
 694:Lib/lvgl/src/themes/default/lv_theme_default.c ****                 lv_style_reset(theme_styles + i);
 7302              		.loc 1 694 26 is_stmt 0 discriminator 1 view .LVU1708
 7303              	.LBE93:
 699:Lib/lvgl/src/themes/default/lv_theme_default.c ****         theme_def = NULL;
 7304              		.loc 1 699 9 is_stmt 1 view .LVU1709
 7305 0028 044C     		ldr	r4, .L479
 7306 002a D4F87C01 		ldr	r0, [r4, #380]
 7307 002e FFF7FEFF 		bl	lv_free
 7308              	.LVL689:
 700:Lib/lvgl/src/themes/default/lv_theme_default.c ****     }
 7309              		.loc 1 700 9 view .LVU1710
 700:Lib/lvgl/src/themes/default/lv_theme_default.c ****     }
 7310              		.loc 1 700 19 is_stmt 0 view .LVU1711
 7311 0032 0023     		movs	r3, #0
 7312 0034 C4F87C31 		str	r3, [r4, #380]
 7313              	.L473:
 702:Lib/lvgl/src/themes/default/lv_theme_default.c **** 
 7314              		.loc 1 702 1 view .LVU1712
 7315 0038 38BD     		pop	{r3, r4, r5, pc}
 7316              	.L480:
 7317 003a 00BF     		.align	2
 7318              	.L479:
 7319 003c 00000000 		.word	lv_global
 7320              		.cfi_endproc
 7321              	.LFE260:
 7323              		.section	.text.lv_theme_default_is_inited,"ax",%progbits
 7324              		.align	1
 7325              		.global	lv_theme_default_is_inited
 7326              		.syntax unified
 7327              		.thumb
 7328              		.thumb_func
 7330              	lv_theme_default_is_inited:
 7331              	.LFB262:
 714:Lib/lvgl/src/themes/default/lv_theme_default.c ****     my_theme_t * theme = theme_def;
 7332              		.loc 1 714 1 is_stmt 1 view -0
 7333              		.cfi_startproc
 7334              		@ args = 0, pretend = 0, frame = 0
 7335              		@ frame_needed = 0, uses_anonymous_args = 0
 7336              		@ link register save eliminated.
 715:Lib/lvgl/src/themes/default/lv_theme_default.c ****     if(theme == NULL) return false;
 7337              		.loc 1 715 5 view .LVU1714
 715:Lib/lvgl/src/themes/default/lv_theme_default.c ****     if(theme == NULL) return false;
ARM GAS  C:\Users\Alex\AppData\Local\Temp\ccR26jun.s 			page 198


 7338              		.loc 1 715 18 is_stmt 0 view .LVU1715
 7339 0000 044B     		ldr	r3, .L484
 7340 0002 D3F87C31 		ldr	r3, [r3, #380]
 7341              	.LVL690:
 716:Lib/lvgl/src/themes/default/lv_theme_default.c ****     return theme->inited;
 7342              		.loc 1 716 5 is_stmt 1 view .LVU1716
 716:Lib/lvgl/src/themes/default/lv_theme_default.c ****     return theme->inited;
 7343              		.loc 1 716 7 is_stmt 0 view .LVU1717
 7344 0006 13B1     		cbz	r3, .L483
 717:Lib/lvgl/src/themes/default/lv_theme_default.c **** }
 7345              		.loc 1 717 5 is_stmt 1 view .LVU1718
 717:Lib/lvgl/src/themes/default/lv_theme_default.c **** }
 7346              		.loc 1 717 17 is_stmt 0 view .LVU1719
 7347 0008 93F83C00 		ldrb	r0, [r3, #60]	@ zero_extendqisi2
 7348 000c 7047     		bx	lr
 7349              	.L483:
 716:Lib/lvgl/src/themes/default/lv_theme_default.c ****     return theme->inited;
 7350              		.loc 1 716 30 view .LVU1720
 7351 000e 0020     		movs	r0, #0
 718:Lib/lvgl/src/themes/default/lv_theme_default.c **** 
 7352              		.loc 1 718 1 view .LVU1721
 7353 0010 7047     		bx	lr
 7354              	.L485:
 7355 0012 00BF     		.align	2
 7356              	.L484:
 7357 0014 00000000 		.word	lv_global
 7358              		.cfi_endproc
 7359              	.LFE262:
 7361              		.section	.text.lv_theme_default_init,"ax",%progbits
 7362              		.align	1
 7363              		.global	lv_theme_default_init
 7364              		.syntax unified
 7365              		.thumb
 7366              		.thumb_func
 7368              	lv_theme_default_init:
 7369              	.LVL691:
 7370              	.LFB259:
 636:Lib/lvgl/src/themes/default/lv_theme_default.c ****     /*This trick is required only to avoid the garbage collection of
 7371              		.loc 1 636 1 is_stmt 1 view -0
 7372              		.cfi_startproc
 7373              		@ args = 4, pretend = 0, frame = 8
 7374              		@ frame_needed = 0, uses_anonymous_args = 0
 636:Lib/lvgl/src/themes/default/lv_theme_default.c ****     /*This trick is required only to avoid the garbage collection of
 7375              		.loc 1 636 1 is_stmt 0 view .LVU1723
 7376 0000 2DE9F047 		push	{r4, r5, r6, r7, r8, r9, r10, lr}
 7377              	.LCFI22:
 7378              		.cfi_def_cfa_offset 32
 7379              		.cfi_offset 4, -32
 7380              		.cfi_offset 5, -28
 7381              		.cfi_offset 6, -24
 7382              		.cfi_offset 7, -20
 7383              		.cfi_offset 8, -16
 7384              		.cfi_offset 9, -12
 7385              		.cfi_offset 10, -8
 7386              		.cfi_offset 14, -4
 7387 0004 82B0     		sub	sp, sp, #8
 7388              	.LCFI23:
ARM GAS  C:\Users\Alex\AppData\Local\Temp\ccR26jun.s 			page 199


 7389              		.cfi_def_cfa_offset 40
 7390 0006 0546     		mov	r5, r0
 7391 0008 0191     		str	r1, [sp, #4]
 7392 000a 0092     		str	r2, [sp]
 7393 000c 1F46     		mov	r7, r3
 7394 000e DDF82880 		ldr	r8, [sp, #40]
 641:Lib/lvgl/src/themes/default/lv_theme_default.c ****         theme_def = lv_malloc_zeroed(sizeof(my_theme_t));
 7395              		.loc 1 641 5 is_stmt 1 view .LVU1724
 641:Lib/lvgl/src/themes/default/lv_theme_default.c ****         theme_def = lv_malloc_zeroed(sizeof(my_theme_t));
 7396              		.loc 1 641 9 is_stmt 0 view .LVU1725
 7397 0012 FFF7FEFF 		bl	lv_theme_default_is_inited
 7398              	.LVL692:
 641:Lib/lvgl/src/themes/default/lv_theme_default.c ****         theme_def = lv_malloc_zeroed(sizeof(my_theme_t));
 7399              		.loc 1 641 7 view .LVU1726
 7400 0016 A0B1     		cbz	r0, .L498
 7401              	.L487:
 645:Lib/lvgl/src/themes/default/lv_theme_default.c **** 
 7402              		.loc 1 645 5 is_stmt 1 view .LVU1727
 645:Lib/lvgl/src/themes/default/lv_theme_default.c **** 
 7403              		.loc 1 645 18 is_stmt 0 view .LVU1728
 7404 0018 3A4B     		ldr	r3, .L501
 7405 001a D3F87C41 		ldr	r4, [r3, #380]
 7406              	.LVL693:
 647:Lib/lvgl/src/themes/default/lv_theme_default.c ****     int32_t new_dpi = lv_display_get_dpi(new_disp);
 7407              		.loc 1 647 5 is_stmt 1 view .LVU1729
 647:Lib/lvgl/src/themes/default/lv_theme_default.c ****     int32_t new_dpi = lv_display_get_dpi(new_disp);
 7408              		.loc 1 647 71 is_stmt 0 view .LVU1730
 7409 001e C5B1     		cbz	r5, .L499
 7410 0020 A946     		mov	r9, r5
 7411              	.L488:
 7412              	.LVL694:
 648:Lib/lvgl/src/themes/default/lv_theme_default.c ****     int32_t hor_res = lv_display_get_horizontal_resolution(new_disp);
 7413              		.loc 1 648 5 is_stmt 1 discriminator 4 view .LVU1731
 648:Lib/lvgl/src/themes/default/lv_theme_default.c ****     int32_t hor_res = lv_display_get_horizontal_resolution(new_disp);
 7414              		.loc 1 648 23 is_stmt 0 discriminator 4 view .LVU1732
 7415 0022 4846     		mov	r0, r9
 7416 0024 FFF7FEFF 		bl	lv_display_get_dpi
 7417              	.LVL695:
 7418 0028 0646     		mov	r6, r0
 7419              	.LVL696:
 649:Lib/lvgl/src/themes/default/lv_theme_default.c ****     disp_size_t new_size;
 7420              		.loc 1 649 5 is_stmt 1 discriminator 4 view .LVU1733
 649:Lib/lvgl/src/themes/default/lv_theme_default.c ****     disp_size_t new_size;
 7421              		.loc 1 649 23 is_stmt 0 discriminator 4 view .LVU1734
 7422 002a 4846     		mov	r0, r9
 7423              	.LVL697:
 649:Lib/lvgl/src/themes/default/lv_theme_default.c ****     disp_size_t new_size;
 7424              		.loc 1 649 23 discriminator 4 view .LVU1735
 7425 002c FFF7FEFF 		bl	lv_display_get_horizontal_resolution
 7426              	.LVL698:
 650:Lib/lvgl/src/themes/default/lv_theme_default.c **** 
 7427              		.loc 1 650 5 is_stmt 1 discriminator 4 view .LVU1736
 652:Lib/lvgl/src/themes/default/lv_theme_default.c ****     else if(hor_res < 720) new_size = DISP_MEDIUM;
 7428              		.loc 1 652 5 discriminator 4 view .LVU1737
 652:Lib/lvgl/src/themes/default/lv_theme_default.c ****     else if(hor_res < 720) new_size = DISP_MEDIUM;
 7429              		.loc 1 652 7 is_stmt 0 discriminator 4 view .LVU1738
 7430 0030 B0F5A07F 		cmp	r0, #320
ARM GAS  C:\Users\Alex\AppData\Local\Temp\ccR26jun.s 			page 200


 7431 0034 11DD     		ble	.L495
 653:Lib/lvgl/src/themes/default/lv_theme_default.c ****     else new_size = DISP_LARGE;
 7432              		.loc 1 653 10 is_stmt 1 view .LVU1739
 653:Lib/lvgl/src/themes/default/lv_theme_default.c ****     else new_size = DISP_LARGE;
 7433              		.loc 1 653 12 is_stmt 0 view .LVU1740
 7434 0036 B0F5347F 		cmp	r0, #720
 7435 003a 42DA     		bge	.L496
 653:Lib/lvgl/src/themes/default/lv_theme_default.c ****     else new_size = DISP_LARGE;
 7436              		.loc 1 653 37 view .LVU1741
 7437 003c 4FF0020A 		mov	r10, #2
 7438 0040 0DE0     		b	.L489
 7439              	.LVL699:
 7440              	.L498:
 642:Lib/lvgl/src/themes/default/lv_theme_default.c ****     }
 7441              		.loc 1 642 9 is_stmt 1 view .LVU1742
 642:Lib/lvgl/src/themes/default/lv_theme_default.c ****     }
 7442              		.loc 1 642 21 is_stmt 0 view .LVU1743
 7443 0042 4FF46470 		mov	r0, #912
 7444 0046 FFF7FEFF 		bl	lv_malloc_zeroed
 7445              	.LVL700:
 642:Lib/lvgl/src/themes/default/lv_theme_default.c ****     }
 7446              		.loc 1 642 19 view .LVU1744
 7447 004a 2E4B     		ldr	r3, .L501
 7448 004c C3F87C01 		str	r0, [r3, #380]
 7449 0050 E2E7     		b	.L487
 7450              	.LVL701:
 7451              	.L499:
 647:Lib/lvgl/src/themes/default/lv_theme_default.c ****     int32_t new_dpi = lv_display_get_dpi(new_disp);
 7452              		.loc 1 647 46 discriminator 1 view .LVU1745
 7453 0052 FFF7FEFF 		bl	lv_display_get_default
 7454              	.LVL702:
 7455 0056 8146     		mov	r9, r0
 7456 0058 E3E7     		b	.L488
 7457              	.LVL703:
 7458              	.L495:
 652:Lib/lvgl/src/themes/default/lv_theme_default.c ****     else if(hor_res < 720) new_size = DISP_MEDIUM;
 7459              		.loc 1 652 33 view .LVU1746
 7460 005a 4FF0030A 		mov	r10, #3
 7461              	.L489:
 7462              	.LVL704:
 657:Lib/lvgl/src/themes/default/lv_theme_default.c ****        theme->disp_size == new_size &&
 7463              		.loc 1 657 5 is_stmt 1 view .LVU1747
 657:Lib/lvgl/src/themes/default/lv_theme_default.c ****        theme->disp_size == new_size &&
 7464              		.loc 1 657 13 is_stmt 0 view .LVU1748
 7465 005e 94F83C30 		ldrb	r3, [r4, #60]	@ zero_extendqisi2
 657:Lib/lvgl/src/themes/default/lv_theme_default.c ****        theme->disp_size == new_size &&
 7466              		.loc 1 657 7 view .LVU1749
 7467 0062 13B1     		cbz	r3, .L490
 657:Lib/lvgl/src/themes/default/lv_theme_default.c ****        theme->disp_size == new_size &&
 7468              		.loc 1 657 30 discriminator 1 view .LVU1750
 7469 0064 E36A     		ldr	r3, [r4, #44]
 657:Lib/lvgl/src/themes/default/lv_theme_default.c ****        theme->disp_size == new_size &&
 7470              		.loc 1 657 22 discriminator 1 view .LVU1751
 7471 0066 B342     		cmp	r3, r6
 7472 0068 2ED0     		beq	.L500
 7473              	.LVL705:
 7474              	.L490:
ARM GAS  C:\Users\Alex\AppData\Local\Temp\ccR26jun.s 			page 201


 667:Lib/lvgl/src/themes/default/lv_theme_default.c ****     theme->disp_dpi = new_dpi;
 7475              		.loc 1 667 5 is_stmt 1 view .LVU1752
 667:Lib/lvgl/src/themes/default/lv_theme_default.c ****     theme->disp_dpi = new_dpi;
 7476              		.loc 1 667 22 is_stmt 0 view .LVU1753
 7477 006a 84F828A0 		strb	r10, [r4, #40]
 668:Lib/lvgl/src/themes/default/lv_theme_default.c ****     theme->base.disp = new_disp;
 7478              		.loc 1 668 5 is_stmt 1 view .LVU1754
 668:Lib/lvgl/src/themes/default/lv_theme_default.c ****     theme->base.disp = new_disp;
 7479              		.loc 1 668 21 is_stmt 0 view .LVU1755
 7480 006e E662     		str	r6, [r4, #44]
 669:Lib/lvgl/src/themes/default/lv_theme_default.c ****     theme->base.color_primary = color_primary;
 7481              		.loc 1 669 5 is_stmt 1 view .LVU1756
 669:Lib/lvgl/src/themes/default/lv_theme_default.c ****     theme->base.color_primary = color_primary;
 7482              		.loc 1 669 22 is_stmt 0 view .LVU1757
 7483 0070 C4F80C90 		str	r9, [r4, #12]
 670:Lib/lvgl/src/themes/default/lv_theme_default.c ****     theme->base.color_secondary = color_secondary;
 7484              		.loc 1 670 5 is_stmt 1 view .LVU1758
 670:Lib/lvgl/src/themes/default/lv_theme_default.c ****     theme->base.color_secondary = color_secondary;
 7485              		.loc 1 670 31 is_stmt 0 view .LVU1759
 7486 0074 019A     		ldr	r2, [sp, #4]
 7487 0076 2282     		strh	r2, [r4, #16]	@ movhi
 7488 0078 120C     		lsrs	r2, r2, #16
 7489 007a A274     		strb	r2, [r4, #18]
 671:Lib/lvgl/src/themes/default/lv_theme_default.c ****     theme->base.font_small = font;
 7490              		.loc 1 671 5 is_stmt 1 view .LVU1760
 671:Lib/lvgl/src/themes/default/lv_theme_default.c ****     theme->base.font_small = font;
 7491              		.loc 1 671 33 is_stmt 0 view .LVU1761
 7492 007c BDF80020 		ldrh	r2, [sp]	@ unaligned
 7493 0080 9DF80230 		ldrb	r3, [sp, #2]	@ zero_extendqisi2
 7494 0084 A4F81320 		strh	r2, [r4, #19]	@ unaligned
 7495 0088 6375     		strb	r3, [r4, #21]
 672:Lib/lvgl/src/themes/default/lv_theme_default.c ****     theme->base.font_normal = font;
 7496              		.loc 1 672 5 is_stmt 1 view .LVU1762
 672:Lib/lvgl/src/themes/default/lv_theme_default.c ****     theme->base.font_normal = font;
 7497              		.loc 1 672 28 is_stmt 0 view .LVU1763
 7498 008a C4F81880 		str	r8, [r4, #24]
 673:Lib/lvgl/src/themes/default/lv_theme_default.c ****     theme->base.font_large = font;
 7499              		.loc 1 673 5 is_stmt 1 view .LVU1764
 673:Lib/lvgl/src/themes/default/lv_theme_default.c ****     theme->base.font_large = font;
 7500              		.loc 1 673 29 is_stmt 0 view .LVU1765
 7501 008e C4F81C80 		str	r8, [r4, #28]
 674:Lib/lvgl/src/themes/default/lv_theme_default.c ****     theme->base.apply_cb = theme_apply;
 7502              		.loc 1 674 5 is_stmt 1 view .LVU1766
 674:Lib/lvgl/src/themes/default/lv_theme_default.c ****     theme->base.apply_cb = theme_apply;
 7503              		.loc 1 674 28 is_stmt 0 view .LVU1767
 7504 0092 C4F82080 		str	r8, [r4, #32]
 675:Lib/lvgl/src/themes/default/lv_theme_default.c ****     theme->base.flags = dark ? MODE_DARK : 0;
 7505              		.loc 1 675 5 is_stmt 1 view .LVU1768
 675:Lib/lvgl/src/themes/default/lv_theme_default.c ****     theme->base.flags = dark ? MODE_DARK : 0;
 7506              		.loc 1 675 26 is_stmt 0 view .LVU1769
 7507 0096 1C4B     		ldr	r3, .L501+4
 7508 0098 2360     		str	r3, [r4]
 676:Lib/lvgl/src/themes/default/lv_theme_default.c **** 
 7509              		.loc 1 676 5 is_stmt 1 view .LVU1770
 676:Lib/lvgl/src/themes/default/lv_theme_default.c **** 
 7510              		.loc 1 676 23 is_stmt 0 view .LVU1771
 7511 009a 6762     		str	r7, [r4, #36]
ARM GAS  C:\Users\Alex\AppData\Local\Temp\ccR26jun.s 			page 202


 678:Lib/lvgl/src/themes/default/lv_theme_default.c **** 
 7512              		.loc 1 678 5 is_stmt 1 view .LVU1772
 7513 009c 2046     		mov	r0, r4
 7514 009e FFF7FEFF 		bl	style_init
 7515              	.LVL706:
 680:Lib/lvgl/src/themes/default/lv_theme_default.c **** 
 7516              		.loc 1 680 5 view .LVU1773
 680:Lib/lvgl/src/themes/default/lv_theme_default.c **** 
 7517              		.loc 1 680 7 is_stmt 0 view .LVU1774
 7518 00a2 25B1     		cbz	r5, .L492
 680:Lib/lvgl/src/themes/default/lv_theme_default.c **** 
 7519              		.loc 1 680 24 discriminator 2 view .LVU1775
 7520 00a4 2846     		mov	r0, r5
 7521 00a6 FFF7FEFF 		bl	lv_display_get_theme
 7522              	.LVL707:
 680:Lib/lvgl/src/themes/default/lv_theme_default.c **** 
 7523              		.loc 1 680 21 discriminator 2 view .LVU1776
 7524 00aa 8442     		cmp	r4, r0
 7525 00ac 02D1     		bne	.L493
 7526              	.L492:
 680:Lib/lvgl/src/themes/default/lv_theme_default.c **** 
 7527              		.loc 1 680 75 is_stmt 1 discriminator 3 view .LVU1777
 7528 00ae 0020     		movs	r0, #0
 7529 00b0 FFF7FEFF 		bl	lv_obj_report_style_change
 7530              	.LVL708:
 7531              	.L493:
 682:Lib/lvgl/src/themes/default/lv_theme_default.c **** 
 7532              		.loc 1 682 5 view .LVU1778
 682:Lib/lvgl/src/themes/default/lv_theme_default.c **** 
 7533              		.loc 1 682 19 is_stmt 0 view .LVU1779
 7534 00b4 0123     		movs	r3, #1
 7535 00b6 84F83C30 		strb	r3, [r4, #60]
 684:Lib/lvgl/src/themes/default/lv_theme_default.c **** }
 7536              		.loc 1 684 5 is_stmt 1 view .LVU1780
 7537              	.L486:
 685:Lib/lvgl/src/themes/default/lv_theme_default.c **** 
 7538              		.loc 1 685 1 is_stmt 0 view .LVU1781
 7539 00ba 2046     		mov	r0, r4
 7540 00bc 02B0     		add	sp, sp, #8
 7541              	.LCFI24:
 7542              		.cfi_remember_state
 7543              		.cfi_def_cfa_offset 32
 7544              		@ sp needed
 7545 00be BDE8F087 		pop	{r4, r5, r6, r7, r8, r9, r10, pc}
 7546              	.LVL709:
 7547              	.L496:
 7548              	.LCFI25:
 7549              		.cfi_restore_state
 654:Lib/lvgl/src/themes/default/lv_theme_default.c **** 
 7550              		.loc 1 654 19 view .LVU1782
 7551 00c2 4FF0010A 		mov	r10, #1
 7552 00c6 CAE7     		b	.L489
 7553              	.LVL710:
 7554              	.L500:
 658:Lib/lvgl/src/themes/default/lv_theme_default.c ****        lv_color_eq(theme->base.color_primary, color_primary) &&
 7555              		.loc 1 658 13 discriminator 2 view .LVU1783
 7556 00c8 94F82830 		ldrb	r3, [r4, #40]	@ zero_extendqisi2
ARM GAS  C:\Users\Alex\AppData\Local\Temp\ccR26jun.s 			page 203


 657:Lib/lvgl/src/themes/default/lv_theme_default.c ****        theme->disp_size == new_size &&
 7557              		.loc 1 657 52 discriminator 2 view .LVU1784
 7558 00cc 5345     		cmp	r3, r10
 7559 00ce CCD1     		bne	.L490
 659:Lib/lvgl/src/themes/default/lv_theme_default.c ****        lv_color_eq(theme->base.color_secondary, color_secondary) &&
 7560              		.loc 1 659 8 view .LVU1785
 7561 00d0 0199     		ldr	r1, [sp, #4]
 7562 00d2 2069     		ldr	r0, [r4, #16]
 7563              	.LVL711:
 659:Lib/lvgl/src/themes/default/lv_theme_default.c ****        lv_color_eq(theme->base.color_secondary, color_secondary) &&
 7564              		.loc 1 659 8 view .LVU1786
 7565 00d4 FFF7FEFF 		bl	lv_color_eq
 7566              	.LVL712:
 658:Lib/lvgl/src/themes/default/lv_theme_default.c ****        lv_color_eq(theme->base.color_primary, color_primary) &&
 7567              		.loc 1 658 37 view .LVU1787
 7568 00d8 0028     		cmp	r0, #0
 7569 00da C6D0     		beq	.L490
 660:Lib/lvgl/src/themes/default/lv_theme_default.c ****        (theme->base.flags == dark ? MODE_DARK : 0) &&
 7570              		.loc 1 660 8 view .LVU1788
 7571 00dc E37C     		ldrb	r3, [r4, #19]	@ zero_extendqisi2
 7572 00de 227D     		ldrb	r2, [r4, #20]	@ zero_extendqisi2
 7573 00e0 43EA0223 		orr	r3, r3, r2, lsl #8
 7574 00e4 607D     		ldrb	r0, [r4, #21]	@ zero_extendqisi2
 7575 00e6 0099     		ldr	r1, [sp]
 7576 00e8 43EA0040 		orr	r0, r3, r0, lsl #16
 7577 00ec FFF7FEFF 		bl	lv_color_eq
 7578              	.LVL713:
 659:Lib/lvgl/src/themes/default/lv_theme_default.c ****        lv_color_eq(theme->base.color_secondary, color_secondary) &&
 7579              		.loc 1 659 62 view .LVU1789
 7580 00f0 0028     		cmp	r0, #0
 7581 00f2 BAD0     		beq	.L490
 661:Lib/lvgl/src/themes/default/lv_theme_default.c ****        theme->base.font_small == font) {
 7582              		.loc 1 661 20 view .LVU1790
 7583 00f4 636A     		ldr	r3, [r4, #36]
 660:Lib/lvgl/src/themes/default/lv_theme_default.c ****        (theme->base.flags == dark ? MODE_DARK : 0) &&
 7584              		.loc 1 660 66 view .LVU1791
 7585 00f6 BB42     		cmp	r3, r7
 7586 00f8 B7D1     		bne	.L490
 662:Lib/lvgl/src/themes/default/lv_theme_default.c ****         return (lv_theme_t *) theme;
 7587              		.loc 1 662 19 view .LVU1792
 7588 00fa A369     		ldr	r3, [r4, #24]
 661:Lib/lvgl/src/themes/default/lv_theme_default.c ****        theme->base.font_small == font) {
 7589              		.loc 1 661 52 view .LVU1793
 7590 00fc 4345     		cmp	r3, r8
 7591 00fe B4D1     		bne	.L490
 7592 0100 DBE7     		b	.L486
 7593              	.L502:
 7594 0102 00BF     		.align	2
 7595              	.L501:
 7596 0104 00000000 		.word	lv_global
 7597 0108 00000000 		.word	theme_apply
 7598              		.cfi_endproc
 7599              	.LFE259:
 7601              		.section	.text.lv_theme_default_get,"ax",%progbits
 7602              		.align	1
 7603              		.global	lv_theme_default_get
 7604              		.syntax unified
ARM GAS  C:\Users\Alex\AppData\Local\Temp\ccR26jun.s 			page 204


 7605              		.thumb
 7606              		.thumb_func
 7608              	lv_theme_default_get:
 7609              	.LFB261:
 705:Lib/lvgl/src/themes/default/lv_theme_default.c ****     if(!lv_theme_default_is_inited()) {
 7610              		.loc 1 705 1 is_stmt 1 view -0
 7611              		.cfi_startproc
 7612              		@ args = 0, pretend = 0, frame = 0
 7613              		@ frame_needed = 0, uses_anonymous_args = 0
 7614 0000 08B5     		push	{r3, lr}
 7615              	.LCFI26:
 7616              		.cfi_def_cfa_offset 8
 7617              		.cfi_offset 3, -8
 7618              		.cfi_offset 14, -4
 706:Lib/lvgl/src/themes/default/lv_theme_default.c ****         return NULL;
 7619              		.loc 1 706 5 view .LVU1795
 706:Lib/lvgl/src/themes/default/lv_theme_default.c ****         return NULL;
 7620              		.loc 1 706 9 is_stmt 0 view .LVU1796
 7621 0002 FFF7FEFF 		bl	lv_theme_default_is_inited
 7622              	.LVL714:
 706:Lib/lvgl/src/themes/default/lv_theme_default.c ****         return NULL;
 7623              		.loc 1 706 7 view .LVU1797
 7624 0006 18B1     		cbz	r0, .L505
 710:Lib/lvgl/src/themes/default/lv_theme_default.c **** }
 7625              		.loc 1 710 5 is_stmt 1 view .LVU1798
 710:Lib/lvgl/src/themes/default/lv_theme_default.c **** }
 7626              		.loc 1 710 12 is_stmt 0 view .LVU1799
 7627 0008 024B     		ldr	r3, .L507
 7628 000a D3F87C01 		ldr	r0, [r3, #380]
 7629              	.L503:
 711:Lib/lvgl/src/themes/default/lv_theme_default.c **** 
 7630              		.loc 1 711 1 view .LVU1800
 7631 000e 08BD     		pop	{r3, pc}
 7632              	.L505:
 707:Lib/lvgl/src/themes/default/lv_theme_default.c ****     }
 7633              		.loc 1 707 16 view .LVU1801
 7634 0010 0020     		movs	r0, #0
 7635 0012 FCE7     		b	.L503
 7636              	.L508:
 7637              		.align	2
 7638              	.L507:
 7639 0014 00000000 		.word	lv_global
 7640              		.cfi_endproc
 7641              	.LFE261:
 7643              		.section	.rodata.trans_props.0,"a"
 7644              		.align	2
 7647              	trans_props.0:
 7648 0000 1D1C6869 		.ascii	"\035\034hikjnlmba\000"
 7648      6B6A6E6C 
 7648      6D626100 
 7649              		.text
 7650              	.Letext0:
 7651              		.file 5 "e:\\programms\\gnu_mcu_eclipse\\toolchain\\arm-gnu-toolchain-12.2.mpacbti-bet1-mingw-w64-
 7652              		.file 6 "e:\\programms\\gnu_mcu_eclipse\\toolchain\\arm-gnu-toolchain-12.2.mpacbti-bet1-mingw-w64-
 7653              		.file 7 "e:\\programms\\gnu_mcu_eclipse\\toolchain\\arm-gnu-toolchain-12.2.mpacbti-bet1-mingw-w64-
 7654              		.file 8 "Lib/lvgl/src/themes/default/../../../src/stdlib/../misc/lv_types.h"
 7655              		.file 9 "Lib/lvgl/src/themes/default/../../../src/core/lv_obj.h"
ARM GAS  C:\Users\Alex\AppData\Local\Temp\ccR26jun.s 			page 205


 7656              		.file 10 "Lib/lvgl/src/themes/default/../../../src/core/lv_obj_class.h"
 7657              		.file 11 "c:\\users\\alex\\eclipse-workspace\\lvgs_test\\lib\\lvgl\\src\\core\\lv_group.h"
 7658              		.file 12 "Lib/lvgl/src/themes/default/../../../src/display/lv_display_private.h"
 7659              		.file 13 "c:\\users\\alex\\eclipse-workspace\\lvgs_test\\lib\\lvgl\\src\\draw\\lv_draw.h"
 7660              		.file 14 "c:\\users\\alex\\eclipse-workspace\\lvgs_test\\lib\\lvgl\\src\\misc\\lv_event.h"
 7661              		.file 15 "Lib/lvgl/src/themes/default/../../../src/misc/lv_timer.h"
 7662              		.file 16 "Lib/lvgl/src/themes/default/../../../src/themes/lv_theme.h"
 7663              		.file 17 "Lib/lvgl/src/themes/default/../../../src/misc/lv_anim.h"
 7664              		.file 18 "c:\\users\\alex\\eclipse-workspace\\lvgs_test\\lib\\lvgl\\src\\font\\lv_font.h"
 7665              		.file 19 "Lib/lvgl/src/themes/default/../../../src/misc/../tick/lv_tick.h"
 7666              		.file 20 "Lib/lvgl/src/themes/default/../../../src/misc/lv_ll.h"
 7667              		.file 21 "Lib/lvgl/src/themes/default/../../../src/misc/lv_array.h"
 7668              		.file 22 "c:\\users\\alex\\eclipse-workspace\\lvgs_test\\lib\\lvgl\\src\\misc\\lv_area.h"
 7669              		.file 23 "c:\\users\\alex\\eclipse-workspace\\lvgs_test\\lib\\lvgl\\src\\misc\\lv_palette.h"
 7670              		.file 24 "c:\\users\\alex\\eclipse-workspace\\lvgs_test\\lib\\lvgl\\src\\draw\\lv_image_buf.h"
 7671              		.file 25 "c:\\users\\alex\\eclipse-workspace\\lvgs_test\\lib\\lvgl\\src\\draw\\lv_draw_buf.h"
 7672              		.file 26 "c:\\users\\alex\\eclipse-workspace\\lvgs_test\\lib\\lvgl\\src\\osal\\lv_os_none.h"
 7673              		.file 27 "c:\\users\\alex\\eclipse-workspace\\lvgs_test\\lib\\lvgl\\src\\misc\\cache\\lv_cache_pri
 7674              		.file 28 "Lib/lvgl/src/themes/default/../../../src/core/../misc/lv_text.h"
 7675              		.file 29 "c:\\users\\alex\\eclipse-workspace\\lvgs_test\\lib\\lvgl\\src\\layouts\\lv_layout.h"
 7676              		.file 30 "Lib/lvgl/src/themes/default/../../../src/core/../display/lv_display.h"
 7677              		.file 31 "Lib/lvgl/src/themes/default/../../../src/core/lv_obj_style.h"
 7678              		.file 32 "Lib/lvgl/src/themes/default/../../../src/widgets/arc/lv_arc.h"
 7679              		.file 33 "Lib/lvgl/src/themes/default/../../../src/widgets/bar/lv_bar.h"
 7680              		.file 34 "Lib/lvgl/src/themes/default/../../../src/widgets/button/lv_button.h"
 7681              		.file 35 "Lib/lvgl/src/themes/default/../../../src/widgets/buttonmatrix/lv_buttonmatrix.h"
 7682              		.file 36 "Lib/lvgl/src/themes/default/../../../src/widgets/calendar/lv_calendar.h"
 7683              		.file 37 "Lib/lvgl/src/themes/default/../../../src/widgets/calendar/lv_calendar_header_arrow.h"
 7684              		.file 38 "Lib/lvgl/src/themes/default/../../../src/widgets/calendar/lv_calendar_header_dropdown.h"
 7685              		.file 39 "Lib/lvgl/src/themes/default/../../../src/widgets/chart/lv_chart.h"
 7686              		.file 40 "Lib/lvgl/src/themes/default/../../../src/widgets/checkbox/lv_checkbox.h"
 7687              		.file 41 "Lib/lvgl/src/themes/default/../../../src/widgets/dropdown/lv_dropdown.h"
 7688              		.file 42 "Lib/lvgl/src/themes/default/../../../src/widgets/keyboard/lv_keyboard.h"
 7689              		.file 43 "Lib/lvgl/src/themes/default/../../../src/widgets/led/lv_led.h"
 7690              		.file 44 "Lib/lvgl/src/themes/default/../../../src/widgets/line/lv_line.h"
 7691              		.file 45 "Lib/lvgl/src/themes/default/../../../src/widgets/list/lv_list.h"
 7692              		.file 46 "Lib/lvgl/src/themes/default/../../../src/widgets/menu/lv_menu.h"
 7693              		.file 47 "Lib/lvgl/src/themes/default/../../../src/widgets/msgbox/lv_msgbox.h"
 7694              		.file 48 "Lib/lvgl/src/themes/default/../../../src/widgets/roller/lv_roller.h"
 7695              		.file 49 "Lib/lvgl/src/themes/default/../../../src/widgets/scale/lv_scale.h"
 7696              		.file 50 "Lib/lvgl/src/themes/default/../../../src/widgets/slider/lv_slider.h"
 7697              		.file 51 "Lib/lvgl/src/themes/default/../../../src/widgets/spinbox/../textarea/lv_textarea.h"
 7698              		.file 52 "Lib/lvgl/src/themes/default/../../../src/widgets/spinbox/lv_spinbox.h"
 7699              		.file 53 "Lib/lvgl/src/themes/default/../../../src/widgets/spinner/lv_spinner.h"
 7700              		.file 54 "Lib/lvgl/src/themes/default/../../../src/widgets/switch/lv_switch.h"
 7701              		.file 55 "Lib/lvgl/src/themes/default/../../../src/widgets/table/lv_table.h"
 7702              		.file 56 "Lib/lvgl/src/themes/default/../../../src/widgets/tabview/lv_tabview.h"
 7703              		.file 57 "Lib/lvgl/src/themes/default/../../../src/widgets/tileview/lv_tileview.h"
 7704              		.file 58 "Lib/lvgl/src/themes/default/../../../src/widgets/win/lv_win.h"
 7705              		.file 59 "c:\\users\\alex\\eclipse-workspace\\lvgs_test\\lib\\lvgl\\src\\draw\\sw\\lv_draw_sw_mask
 7706              		.file 60 "Lib/lvgl/src/themes/default/../../../src/core/../stdlib/builtin/lv_tlsf.h"
 7707              		.file 61 "Lib/lvgl/src/themes/default/../../../src/core/lv_global.h"
 7708              		.file 62 "Lib/lvgl/src/themes/default/../../../src/stdlib/lv_mem.h"
 7709              		.file 63 "Lib/lvgl/src/themes/default/../../../src/core/../misc/lv_style_gen.h"
 7710              		.file 64 "Lib/lvgl/src/themes/default/../../../src/core/lv_obj_tree.h"
ARM GAS  C:\Users\Alex\AppData\Local\Temp\ccR26jun.s 			page 206


DEFINED SYMBOLS
                            *ABS*:00000000 lv_theme_default.c
C:\Users\Alex\AppData\Local\Temp\ccR26jun.s:21     .text.lv_color_eq:00000000 $t
C:\Users\Alex\AppData\Local\Temp\ccR26jun.s:26     .text.lv_color_eq:00000000 lv_color_eq
C:\Users\Alex\AppData\Local\Temp\ccR26jun.s:100    .text.lv_color_mix:00000000 $t
C:\Users\Alex\AppData\Local\Temp\ccR26jun.s:105    .text.lv_color_mix:00000000 lv_color_mix
C:\Users\Alex\AppData\Local\Temp\ccR26jun.s:180    .text.theme_apply:00000000 $t
C:\Users\Alex\AppData\Local\Temp\ccR26jun.s:185    .text.theme_apply:00000000 theme_apply
C:\Users\Alex\AppData\Local\Temp\ccR26jun.s:715    .text.theme_apply:00000330 $d
C:\Users\Alex\AppData\Local\Temp\ccR26jun.s:730    .text.theme_apply:00000360 $t
C:\Users\Alex\AppData\Local\Temp\ccR26jun.s:1155   .text.theme_apply:00000678 $d
C:\Users\Alex\AppData\Local\Temp\ccR26jun.s:1173   .text.theme_apply:000006b4 $t
C:\Users\Alex\AppData\Local\Temp\ccR26jun.s:1655   .text.theme_apply:00000a38 $d
C:\Users\Alex\AppData\Local\Temp\ccR26jun.s:1673   .text.theme_apply:00000a74 $t
C:\Users\Alex\AppData\Local\Temp\ccR26jun.s:2156   .text.theme_apply:00000dc8 $d
C:\Users\Alex\AppData\Local\Temp\ccR26jun.s:2182   .text.theme_apply:00000e24 $t
C:\Users\Alex\AppData\Local\Temp\ccR26jun.s:2453   .text.theme_apply:00000ff8 $d
C:\Users\Alex\AppData\Local\Temp\ccR26jun.s:2469   .text.grey_filter_cb:00000000 $t
C:\Users\Alex\AppData\Local\Temp\ccR26jun.s:2474   .text.grey_filter_cb:00000000 grey_filter_cb
C:\Users\Alex\AppData\Local\Temp\ccR26jun.s:2573   .text.grey_filter_cb:000000ac $d
C:\Users\Alex\AppData\Local\Temp\ccR26jun.s:2578   .text.lv_style_set_pad_gap:00000000 $t
C:\Users\Alex\AppData\Local\Temp\ccR26jun.s:2583   .text.lv_style_set_pad_gap:00000000 lv_style_set_pad_gap
C:\Users\Alex\AppData\Local\Temp\ccR26jun.s:2616   .text.lv_style_set_pad_ver:00000000 $t
C:\Users\Alex\AppData\Local\Temp\ccR26jun.s:2621   .text.lv_style_set_pad_ver:00000000 lv_style_set_pad_ver
C:\Users\Alex\AppData\Local\Temp\ccR26jun.s:2653   .text.dark_color_filter_cb:00000000 $t
C:\Users\Alex\AppData\Local\Temp\ccR26jun.s:2658   .text.dark_color_filter_cb:00000000 dark_color_filter_cb
C:\Users\Alex\AppData\Local\Temp\ccR26jun.s:2706   .text.lv_style_set_pad_hor:00000000 $t
C:\Users\Alex\AppData\Local\Temp\ccR26jun.s:2711   .text.lv_style_set_pad_hor:00000000 lv_style_set_pad_hor
C:\Users\Alex\AppData\Local\Temp\ccR26jun.s:2743   .text.lv_style_set_pad_all:00000000 $t
C:\Users\Alex\AppData\Local\Temp\ccR26jun.s:2748   .text.lv_style_set_pad_all:00000000 lv_style_set_pad_all
C:\Users\Alex\AppData\Local\Temp\ccR26jun.s:2790   .text.style_init_reset:00000000 $t
C:\Users\Alex\AppData\Local\Temp\ccR26jun.s:2795   .text.style_init_reset:00000000 style_init_reset
C:\Users\Alex\AppData\Local\Temp\ccR26jun.s:2832   .text.style_init_reset:0000001c $d
C:\Users\Alex\AppData\Local\Temp\ccR26jun.s:2837   .rodata.style_init.str1.4:00000000 $d
C:\Users\Alex\AppData\Local\Temp\ccR26jun.s:2841   .text.style_init:00000000 $t
C:\Users\Alex\AppData\Local\Temp\ccR26jun.s:2846   .text.style_init:00000000 style_init
C:\Users\Alex\AppData\Local\Temp\ccR26jun.s:3232   .text.style_init:00000274 $d
C:\Users\Alex\AppData\Local\Temp\ccR26jun.s:7647   .rodata.trans_props.0:00000000 trans_props.0
C:\Users\Alex\AppData\Local\Temp\ccR26jun.s:3237   .text.style_init:00000280 $t
C:\Users\Alex\AppData\Local\Temp\ccR26jun.s:3783   .text.style_init:00000668 $d
C:\Users\Alex\AppData\Local\Temp\ccR26jun.s:3787   .text.style_init:0000066c $t
C:\Users\Alex\AppData\Local\Temp\ccR26jun.s:4226   .text.style_init:00000948 $d
C:\Users\Alex\AppData\Local\Temp\ccR26jun.s:4232   .text.style_init:00000954 $t
C:\Users\Alex\AppData\Local\Temp\ccR26jun.s:4999   .text.style_init:00000e80 $d
C:\Users\Alex\AppData\Local\Temp\ccR26jun.s:5004   .text.style_init:00000e88 $t
C:\Users\Alex\AppData\Local\Temp\ccR26jun.s:5580   .text.style_init:0000128c $d
C:\Users\Alex\AppData\Local\Temp\ccR26jun.s:5584   .text.style_init:00001290 $t
C:\Users\Alex\AppData\Local\Temp\ccR26jun.s:6093   .text.style_init:00001628 $d
C:\Users\Alex\AppData\Local\Temp\ccR26jun.s:6096   .text.style_init:0000162c $t
C:\Users\Alex\AppData\Local\Temp\ccR26jun.s:6656   .text.style_init:00001974 $d
C:\Users\Alex\AppData\Local\Temp\ccR26jun.s:6659   .text.style_init:00001978 $t
C:\Users\Alex\AppData\Local\Temp\ccR26jun.s:7219   .text.style_init:00001cf0 $d
C:\Users\Alex\AppData\Local\Temp\ccR26jun.s:7222   .text.style_init:00001cf4 $t
C:\Users\Alex\AppData\Local\Temp\ccR26jun.s:7235   .text.style_init:00001d0c $d
C:\Users\Alex\AppData\Local\Temp\ccR26jun.s:7240   .text.lv_theme_default_deinit:00000000 $t
C:\Users\Alex\AppData\Local\Temp\ccR26jun.s:7246   .text.lv_theme_default_deinit:00000000 lv_theme_default_deinit
C:\Users\Alex\AppData\Local\Temp\ccR26jun.s:7319   .text.lv_theme_default_deinit:0000003c $d
ARM GAS  C:\Users\Alex\AppData\Local\Temp\ccR26jun.s 			page 207


C:\Users\Alex\AppData\Local\Temp\ccR26jun.s:7324   .text.lv_theme_default_is_inited:00000000 $t
C:\Users\Alex\AppData\Local\Temp\ccR26jun.s:7330   .text.lv_theme_default_is_inited:00000000 lv_theme_default_is_inited
C:\Users\Alex\AppData\Local\Temp\ccR26jun.s:7357   .text.lv_theme_default_is_inited:00000014 $d
C:\Users\Alex\AppData\Local\Temp\ccR26jun.s:7362   .text.lv_theme_default_init:00000000 $t
C:\Users\Alex\AppData\Local\Temp\ccR26jun.s:7368   .text.lv_theme_default_init:00000000 lv_theme_default_init
C:\Users\Alex\AppData\Local\Temp\ccR26jun.s:7596   .text.lv_theme_default_init:00000104 $d
C:\Users\Alex\AppData\Local\Temp\ccR26jun.s:7602   .text.lv_theme_default_get:00000000 $t
C:\Users\Alex\AppData\Local\Temp\ccR26jun.s:7608   .text.lv_theme_default_get:00000000 lv_theme_default_get
C:\Users\Alex\AppData\Local\Temp\ccR26jun.s:7639   .text.lv_theme_default_get:00000014 $d
C:\Users\Alex\AppData\Local\Temp\ccR26jun.s:7644   .rodata.trans_props.0:00000000 $d

UNDEFINED SYMBOLS
lv_obj_get_parent
lv_obj_check_type
lv_obj_get_index
lv_obj_add_style
lv_global
lv_obj_class
lv_tabview_class
lv_win_class
lv_calendar_class
lv_button_class
lv_menu_sidebar_header_cont_class
lv_menu_main_header_cont_class
lv_msgbox_class
lv_spinbox_class
lv_line_class
lv_buttonmatrix_class
lv_bar_class
lv_slider_class
lv_table_class
lv_checkbox_class
lv_switch_class
lv_chart_class
lv_roller_class
lv_dropdown_class
lv_dropdownlist_class
lv_arc_class
lv_spinner_class
lv_textarea_class
lv_calendar_header_arrow_class
lv_calendar_header_dropdown_class
lv_keyboard_class
lv_list_class
lv_list_text_class
lv_list_button_class
lv_menu_class
lv_menu_sidebar_cont_class
lv_menu_main_cont_class
lv_menu_cont_class
lv_menu_page_class
lv_menu_section_class
lv_menu_separator_class
lv_msgbox_backdrop_class
lv_msgbox_header_class
lv_msgbox_footer_class
lv_msgbox_header_button_class
ARM GAS  C:\Users\Alex\AppData\Local\Temp\ccR26jun.s 			page 208


lv_msgbox_footer_button_class
lv_tileview_class
lv_tileview_tile_class
lv_led_class
lv_scale_class
lv_palette_darken
lv_palette_lighten
lv_style_set_pad_row
lv_style_set_pad_column
lv_style_set_pad_top
lv_style_set_pad_bottom
lv_color_darken
lv_style_set_pad_left
lv_style_set_pad_right
lv_style_reset
lv_style_init
lv_style_transition_dsc_init
lv_style_set_transition
lv_style_set_bg_color
lv_style_set_radius
lv_palette_main
lv_anim_path_linear
lv_style_set_width
lv_style_set_bg_opa
lv_style_set_text_color
lv_style_set_text_font
lv_style_set_border_color
lv_style_set_border_width
lv_style_set_border_post
lv_style_set_line_color
lv_style_set_line_width
lv_style_set_outline_color
lv_style_set_outline_width
lv_style_set_outline_pad
lv_style_set_outline_opa
lv_style_set_color_filter_dsc
lv_style_set_color_filter_opa
lv_style_set_clip_corner
lv_style_set_text_line_space
lv_style_set_text_align
lv_style_set_transform_width
lv_style_set_transform_height
lv_style_set_anim_duration
lv_style_set_arc_color
lv_style_set_arc_width
lv_style_set_arc_rounded
lv_style_set_max_height
lv_style_set_bg_image_src
lv_style_set_height
lv_style_set_border_side
lv_style_set_border_opa
lv_style_set_shadow_opa
lv_style_set_shadow_width
lv_style_set_shadow_color
lv_display_get_dpi
lv_style_set_shadow_offset_y
lv_style_set_bg_grad_color
ARM GAS  C:\Users\Alex\AppData\Local\Temp\ccR26jun.s 			page 209


lv_style_set_shadow_spread
lv_free
lv_display_get_horizontal_resolution
lv_malloc_zeroed
lv_display_get_default
lv_display_get_theme
lv_obj_report_style_change
