ARM GAS  C:\Users\Alex\AppData\Local\Temp\ccyCJmTC.s 			page 1


   1              		.cpu cortex-m4
   2              		.arch armv7e-m
   3              		.fpu fpv4-sp-d16
   4              		.eabi_attribute 27, 1
   5              		.eabi_attribute 28, 1
   6              		.eabi_attribute 20, 1
   7              		.eabi_attribute 21, 1
   8              		.eabi_attribute 23, 3
   9              		.eabi_attribute 24, 1
  10              		.eabi_attribute 25, 1
  11              		.eabi_attribute 26, 1
  12              		.eabi_attribute 30, 1
  13              		.eabi_attribute 34, 1
  14              		.eabi_attribute 18, 4
  15              		.file	"lv_text.c"
  16              		.text
  17              	.Ltext0:
  18              		.cfi_sections	.debug_frame
  19              		.file 1 "Lib/lvgl/src/misc/lv_text.c"
  20              		.section	.text._lv_text_is_a_word,"ax",%progbits
  21              		.align	1
  22              		.syntax unified
  23              		.thumb
  24              		.thumb_func
  26              	_lv_text_is_a_word:
  27              	.LVL0:
  28              	.LFB38:
  29              		.file 2 "Lib/lvgl/src/misc/lv_text.h"
   1:Lib/lvgl/src/misc/lv_text.h **** /**
   2:Lib/lvgl/src/misc/lv_text.h ****  * @file lv_text.h
   3:Lib/lvgl/src/misc/lv_text.h ****  *
   4:Lib/lvgl/src/misc/lv_text.h ****  */
   5:Lib/lvgl/src/misc/lv_text.h **** 
   6:Lib/lvgl/src/misc/lv_text.h **** #ifndef LV_TEXT_H
   7:Lib/lvgl/src/misc/lv_text.h **** #define LV_TEXT_H
   8:Lib/lvgl/src/misc/lv_text.h **** 
   9:Lib/lvgl/src/misc/lv_text.h **** #ifdef __cplusplus
  10:Lib/lvgl/src/misc/lv_text.h **** extern "C" {
  11:Lib/lvgl/src/misc/lv_text.h **** #endif
  12:Lib/lvgl/src/misc/lv_text.h **** 
  13:Lib/lvgl/src/misc/lv_text.h **** /*********************
  14:Lib/lvgl/src/misc/lv_text.h ****  *      INCLUDES
  15:Lib/lvgl/src/misc/lv_text.h ****  *********************/
  16:Lib/lvgl/src/misc/lv_text.h **** #include "../lv_conf_internal.h"
  17:Lib/lvgl/src/misc/lv_text.h **** 
  18:Lib/lvgl/src/misc/lv_text.h **** #include <stdbool.h>
  19:Lib/lvgl/src/misc/lv_text.h **** #include <stdarg.h>
  20:Lib/lvgl/src/misc/lv_text.h **** #include "lv_area.h"
  21:Lib/lvgl/src/misc/lv_text.h **** #include "../font/lv_font.h"
  22:Lib/lvgl/src/misc/lv_text.h **** #include "../stdlib/lv_sprintf.h"
  23:Lib/lvgl/src/misc/lv_text.h **** #include "lv_types.h"
  24:Lib/lvgl/src/misc/lv_text.h **** 
  25:Lib/lvgl/src/misc/lv_text.h **** /*********************
  26:Lib/lvgl/src/misc/lv_text.h ****  *      DEFINES
  27:Lib/lvgl/src/misc/lv_text.h ****  *********************/
  28:Lib/lvgl/src/misc/lv_text.h **** 
  29:Lib/lvgl/src/misc/lv_text.h **** #define LV_TXT_ENC_UTF8 1
ARM GAS  C:\Users\Alex\AppData\Local\Temp\ccyCJmTC.s 			page 2


  30:Lib/lvgl/src/misc/lv_text.h **** #define LV_TXT_ENC_ASCII 2
  31:Lib/lvgl/src/misc/lv_text.h **** 
  32:Lib/lvgl/src/misc/lv_text.h **** /**********************
  33:Lib/lvgl/src/misc/lv_text.h ****  *      TYPEDEFS
  34:Lib/lvgl/src/misc/lv_text.h ****  **********************/
  35:Lib/lvgl/src/misc/lv_text.h **** 
  36:Lib/lvgl/src/misc/lv_text.h **** /**
  37:Lib/lvgl/src/misc/lv_text.h ****  * Options for text rendering.
  38:Lib/lvgl/src/misc/lv_text.h ****  */
  39:Lib/lvgl/src/misc/lv_text.h **** 
  40:Lib/lvgl/src/misc/lv_text.h **** enum _lv_text_flag_t {
  41:Lib/lvgl/src/misc/lv_text.h ****     LV_TEXT_FLAG_NONE    = 0x00,
  42:Lib/lvgl/src/misc/lv_text.h ****     LV_TEXT_FLAG_EXPAND  = 0x01, /**< Ignore max-width to avoid automatic word wrapping*/
  43:Lib/lvgl/src/misc/lv_text.h ****     LV_TEXT_FLAG_FIT     = 0x02, /**< Max-width is already equal to the longest line. (Used to skip
  44:Lib/lvgl/src/misc/lv_text.h **** };
  45:Lib/lvgl/src/misc/lv_text.h **** 
  46:Lib/lvgl/src/misc/lv_text.h **** #ifdef DOXYGEN
  47:Lib/lvgl/src/misc/lv_text.h **** typedef _lv_text_flag_t lv_text_flag_t;
  48:Lib/lvgl/src/misc/lv_text.h **** #else
  49:Lib/lvgl/src/misc/lv_text.h **** typedef uint8_t lv_text_flag_t;
  50:Lib/lvgl/src/misc/lv_text.h **** #endif /*DOXYGEN*/
  51:Lib/lvgl/src/misc/lv_text.h **** 
  52:Lib/lvgl/src/misc/lv_text.h **** /** Label align policy*/
  53:Lib/lvgl/src/misc/lv_text.h **** enum _lv_text_align_t {
  54:Lib/lvgl/src/misc/lv_text.h ****     LV_TEXT_ALIGN_AUTO, /**< Align text auto*/
  55:Lib/lvgl/src/misc/lv_text.h ****     LV_TEXT_ALIGN_LEFT, /**< Align text to left*/
  56:Lib/lvgl/src/misc/lv_text.h ****     LV_TEXT_ALIGN_CENTER, /**< Align text to center*/
  57:Lib/lvgl/src/misc/lv_text.h ****     LV_TEXT_ALIGN_RIGHT, /**< Align text to right*/
  58:Lib/lvgl/src/misc/lv_text.h **** };
  59:Lib/lvgl/src/misc/lv_text.h **** 
  60:Lib/lvgl/src/misc/lv_text.h **** #ifdef DOXYGEN
  61:Lib/lvgl/src/misc/lv_text.h **** typedef _lv_text_align_t lv_text_align_t;
  62:Lib/lvgl/src/misc/lv_text.h **** #else
  63:Lib/lvgl/src/misc/lv_text.h **** typedef uint8_t lv_text_align_t;
  64:Lib/lvgl/src/misc/lv_text.h **** #endif /*DOXYGEN*/
  65:Lib/lvgl/src/misc/lv_text.h **** 
  66:Lib/lvgl/src/misc/lv_text.h **** /**********************
  67:Lib/lvgl/src/misc/lv_text.h ****  * GLOBAL PROTOTYPES
  68:Lib/lvgl/src/misc/lv_text.h ****  **********************/
  69:Lib/lvgl/src/misc/lv_text.h **** 
  70:Lib/lvgl/src/misc/lv_text.h **** /**
  71:Lib/lvgl/src/misc/lv_text.h ****  * Get size of a text
  72:Lib/lvgl/src/misc/lv_text.h ****  * @param size_res pointer to a 'point_t' variable to store the result
  73:Lib/lvgl/src/misc/lv_text.h ****  * @param text pointer to a text
  74:Lib/lvgl/src/misc/lv_text.h ****  * @param font pointer to font of the text
  75:Lib/lvgl/src/misc/lv_text.h ****  * @param letter_space letter space of the text
  76:Lib/lvgl/src/misc/lv_text.h ****  * @param line_space line space of the text
  77:Lib/lvgl/src/misc/lv_text.h ****  * @param max_width max width of the text (break the lines to fit this size). Set COORD_MAX to avoi
  78:Lib/lvgl/src/misc/lv_text.h ****  * @param flag settings for the text from ::lv_text_flag_t
  79:Lib/lvgl/src/misc/lv_text.h **** 
  80:Lib/lvgl/src/misc/lv_text.h ****  * line breaks
  81:Lib/lvgl/src/misc/lv_text.h ****  */
  82:Lib/lvgl/src/misc/lv_text.h **** void lv_text_get_size(lv_point_t * size_res, const char * text, const lv_font_t * font, int32_t let
  83:Lib/lvgl/src/misc/lv_text.h ****                       int32_t line_space, int32_t max_width, lv_text_flag_t flag);
  84:Lib/lvgl/src/misc/lv_text.h **** 
  85:Lib/lvgl/src/misc/lv_text.h **** /**
  86:Lib/lvgl/src/misc/lv_text.h ****  * Get the next line of text. Check line length and break chars too.
ARM GAS  C:\Users\Alex\AppData\Local\Temp\ccyCJmTC.s 			page 3


  87:Lib/lvgl/src/misc/lv_text.h ****  * @param txt a '\0' terminated string
  88:Lib/lvgl/src/misc/lv_text.h ****  * @param font pointer to a font
  89:Lib/lvgl/src/misc/lv_text.h ****  * @param letter_space letter space
  90:Lib/lvgl/src/misc/lv_text.h ****  * @param max_width max width of the text (break the lines to fit this size). Set COORD_MAX to avoi
  91:Lib/lvgl/src/misc/lv_text.h ****  * line breaks
  92:Lib/lvgl/src/misc/lv_text.h ****  * @param used_width When used_width != NULL, save the width of this line if
  93:Lib/lvgl/src/misc/lv_text.h ****  * flag == LV_TEXT_FLAG_NONE, otherwise save -1.
  94:Lib/lvgl/src/misc/lv_text.h ****  * @param flag settings for the text from 'txt_flag_type' enum
  95:Lib/lvgl/src/misc/lv_text.h ****  * @return the index of the first char of the new line (in byte index not letter index. With UTF-8
  96:Lib/lvgl/src/misc/lv_text.h ****  * they are different)
  97:Lib/lvgl/src/misc/lv_text.h ****  */
  98:Lib/lvgl/src/misc/lv_text.h **** uint32_t _lv_text_get_next_line(const char * txt, const lv_font_t * font, int32_t letter_space,
  99:Lib/lvgl/src/misc/lv_text.h ****                                 int32_t max_width, int32_t * used_width, lv_text_flag_t flag);
 100:Lib/lvgl/src/misc/lv_text.h **** 
 101:Lib/lvgl/src/misc/lv_text.h **** /**
 102:Lib/lvgl/src/misc/lv_text.h ****  * Give the length of a text with a given font
 103:Lib/lvgl/src/misc/lv_text.h ****  * @param txt a '\0' terminate string
 104:Lib/lvgl/src/misc/lv_text.h ****  * @param length length of 'txt' in byte count and not characters (Ã is 1 character but 2 bytes in
 105:Lib/lvgl/src/misc/lv_text.h ****  * UTF-8)
 106:Lib/lvgl/src/misc/lv_text.h ****  * @param font pointer to a font
 107:Lib/lvgl/src/misc/lv_text.h ****  * @param letter_space letter space
 108:Lib/lvgl/src/misc/lv_text.h ****  * @return length of a char_num long text
 109:Lib/lvgl/src/misc/lv_text.h ****  */
 110:Lib/lvgl/src/misc/lv_text.h **** int32_t lv_text_get_width(const char * txt, uint32_t length, const lv_font_t * font, int32_t letter
 111:Lib/lvgl/src/misc/lv_text.h **** 
 112:Lib/lvgl/src/misc/lv_text.h **** /**
 113:Lib/lvgl/src/misc/lv_text.h ****  * Insert a string into an other
 114:Lib/lvgl/src/misc/lv_text.h ****  * @param txt_buf the original text (must be big enough for the result text and NULL terminated)
 115:Lib/lvgl/src/misc/lv_text.h ****  * @param pos position to insert (0: before the original text, 1: after the first char etc.)
 116:Lib/lvgl/src/misc/lv_text.h ****  * @param ins_txt text to insert, must be '\0' terminated
 117:Lib/lvgl/src/misc/lv_text.h ****  */
 118:Lib/lvgl/src/misc/lv_text.h **** void _lv_text_ins(char * txt_buf, uint32_t pos, const char * ins_txt);
 119:Lib/lvgl/src/misc/lv_text.h **** 
 120:Lib/lvgl/src/misc/lv_text.h **** /**
 121:Lib/lvgl/src/misc/lv_text.h ****  * Delete a part of a string
 122:Lib/lvgl/src/misc/lv_text.h ****  * @param txt string to modify, must be '\0' terminated and should point to a heap or stack frame, 
 123:Lib/lvgl/src/misc/lv_text.h ****  * @param pos position where to start the deleting (0: before the first char, 1: after the first
 124:Lib/lvgl/src/misc/lv_text.h ****  * char etc.)
 125:Lib/lvgl/src/misc/lv_text.h ****  * @param len number of characters to delete
 126:Lib/lvgl/src/misc/lv_text.h ****  */
 127:Lib/lvgl/src/misc/lv_text.h **** void _lv_text_cut(char * txt, uint32_t pos, uint32_t len);
 128:Lib/lvgl/src/misc/lv_text.h **** 
 129:Lib/lvgl/src/misc/lv_text.h **** /**
 130:Lib/lvgl/src/misc/lv_text.h ****  * return a new formatted text. Memory will be allocated to store the text.
 131:Lib/lvgl/src/misc/lv_text.h ****  * @param fmt `printf`-like format
 132:Lib/lvgl/src/misc/lv_text.h ****  * @param ap items to print
 133:Lib/lvgl/src/misc/lv_text.h **** 
 134:Lib/lvgl/src/misc/lv_text.h ****  * @return pointer to the allocated text string.
 135:Lib/lvgl/src/misc/lv_text.h ****  */
 136:Lib/lvgl/src/misc/lv_text.h **** char * _lv_text_set_text_vfmt(const char * fmt, va_list ap) LV_FORMAT_ATTRIBUTE(1, 0);
 137:Lib/lvgl/src/misc/lv_text.h **** 
 138:Lib/lvgl/src/misc/lv_text.h **** /**
 139:Lib/lvgl/src/misc/lv_text.h ****  * Decode two encoded character from a string.
 140:Lib/lvgl/src/misc/lv_text.h ****  * @param txt pointer to '\0' terminated string
 141:Lib/lvgl/src/misc/lv_text.h ****  * @param letter the first decoded Unicode character or 0 on invalid data code
 142:Lib/lvgl/src/misc/lv_text.h ****  * @param letter_next the second decoded Unicode character or 0 on invalid data code
 143:Lib/lvgl/src/misc/lv_text.h ****  * @param ofs start index in 'txt' where to start.
ARM GAS  C:\Users\Alex\AppData\Local\Temp\ccyCJmTC.s 			page 4


 144:Lib/lvgl/src/misc/lv_text.h ****  *                After the call it will point to the next encoded char in 'txt'.
 145:Lib/lvgl/src/misc/lv_text.h ****  *                NULL to use txt[0] as index
 146:Lib/lvgl/src/misc/lv_text.h ****  */
 147:Lib/lvgl/src/misc/lv_text.h **** void _lv_text_encoded_letter_next_2(const char * txt, uint32_t * letter, uint32_t * letter_next, ui
 148:Lib/lvgl/src/misc/lv_text.h **** 
 149:Lib/lvgl/src/misc/lv_text.h **** /**
 150:Lib/lvgl/src/misc/lv_text.h ****  * Test if char is break char or not (a text can broken here or not)
 151:Lib/lvgl/src/misc/lv_text.h ****  * @param letter a letter
 152:Lib/lvgl/src/misc/lv_text.h ****  * @return false: 'letter' is not break char
 153:Lib/lvgl/src/misc/lv_text.h ****  */
 154:Lib/lvgl/src/misc/lv_text.h **** static inline bool _lv_text_is_break_char(uint32_t letter)
 155:Lib/lvgl/src/misc/lv_text.h **** {
 156:Lib/lvgl/src/misc/lv_text.h ****     uint8_t i;
 157:Lib/lvgl/src/misc/lv_text.h ****     bool ret = false;
 158:Lib/lvgl/src/misc/lv_text.h **** 
 159:Lib/lvgl/src/misc/lv_text.h ****     /*Compare the letter to TXT_BREAK_CHARS*/
 160:Lib/lvgl/src/misc/lv_text.h ****     for(i = 0; LV_TXT_BREAK_CHARS[i] != '\0'; i++) {
 161:Lib/lvgl/src/misc/lv_text.h ****         if(letter == (uint32_t)LV_TXT_BREAK_CHARS[i]) {
 162:Lib/lvgl/src/misc/lv_text.h ****             ret = true; /*If match then it is break char*/
 163:Lib/lvgl/src/misc/lv_text.h ****             break;
 164:Lib/lvgl/src/misc/lv_text.h ****         }
 165:Lib/lvgl/src/misc/lv_text.h ****     }
 166:Lib/lvgl/src/misc/lv_text.h **** 
 167:Lib/lvgl/src/misc/lv_text.h ****     return ret;
 168:Lib/lvgl/src/misc/lv_text.h **** }
 169:Lib/lvgl/src/misc/lv_text.h **** 
 170:Lib/lvgl/src/misc/lv_text.h **** /**
 171:Lib/lvgl/src/misc/lv_text.h ****  * Test if char is break char or not (a text can broken here or not)
 172:Lib/lvgl/src/misc/lv_text.h ****  * @param letter a letter
 173:Lib/lvgl/src/misc/lv_text.h ****  * @return false: 'letter' is not break char
 174:Lib/lvgl/src/misc/lv_text.h ****  */
 175:Lib/lvgl/src/misc/lv_text.h **** static inline bool _lv_text_is_a_word(uint32_t letter)
 176:Lib/lvgl/src/misc/lv_text.h **** {
  30              		.loc 2 176 1 view -0
  31              		.cfi_startproc
  32              		@ args = 0, pretend = 0, frame = 0
  33              		@ frame_needed = 0, uses_anonymous_args = 0
  34              		@ link register save eliminated.
 177:Lib/lvgl/src/misc/lv_text.h ****     /*Cheap check on invalid letter*/
 178:Lib/lvgl/src/misc/lv_text.h ****     if(letter == 0) return false;
  35              		.loc 2 178 5 view .LVU1
  36              		.loc 2 178 7 is_stmt 0 view .LVU2
  37 0000 30B3     		cbz	r0, .L3
 179:Lib/lvgl/src/misc/lv_text.h **** 
 180:Lib/lvgl/src/misc/lv_text.h ****     /*CJK Unified Ideographs*/
 181:Lib/lvgl/src/misc/lv_text.h ****     if(letter >= 0x4E00 && letter <= 0x9FFF) {
  38              		.loc 2 181 5 is_stmt 1 view .LVU3
  39              		.loc 2 181 25 is_stmt 0 view .LVU4
  40 0002 A0F59C42 		sub	r2, r0, #19968
  41              		.loc 2 181 7 view .LVU5
  42 0006 B2F5A44F 		cmp	r2, #20992
  43 000a 23D3     		bcc	.L4
 182:Lib/lvgl/src/misc/lv_text.h ****         return true;
 183:Lib/lvgl/src/misc/lv_text.h ****     }
 184:Lib/lvgl/src/misc/lv_text.h **** 
 185:Lib/lvgl/src/misc/lv_text.h ****     /*Fullwidth ASCII variants*/
 186:Lib/lvgl/src/misc/lv_text.h ****     if(letter >= 0xFF01 && letter <= 0xFF5E) {
ARM GAS  C:\Users\Alex\AppData\Local\Temp\ccyCJmTC.s 			page 5


  44              		.loc 2 186 5 is_stmt 1 view .LVU6
  45              		.loc 2 186 25 is_stmt 0 view .LVU7
  46 000c 00F17F42 		add	r2, r0, #-16777216
  47 0010 02F1FF12 		add	r2, r2, #16711935
  48              		.loc 2 186 7 view .LVU8
  49 0014 5D2A     		cmp	r2, #93
  50 0016 1FD9     		bls	.L5
 187:Lib/lvgl/src/misc/lv_text.h ****         return true;
 188:Lib/lvgl/src/misc/lv_text.h ****     }
 189:Lib/lvgl/src/misc/lv_text.h **** 
 190:Lib/lvgl/src/misc/lv_text.h ****     /*CJK symbols and punctuation*/
 191:Lib/lvgl/src/misc/lv_text.h ****     if(letter >= 0x3000 && letter <= 0x303F) {
  51              		.loc 2 191 5 is_stmt 1 view .LVU9
  52              		.loc 2 191 25 is_stmt 0 view .LVU10
  53 0018 A0F54052 		sub	r2, r0, #12288
  54              		.loc 2 191 7 view .LVU11
  55 001c 3F2A     		cmp	r2, #63
  56 001e 1DD9     		bls	.L6
 192:Lib/lvgl/src/misc/lv_text.h ****         return true;
 193:Lib/lvgl/src/misc/lv_text.h ****     }
 194:Lib/lvgl/src/misc/lv_text.h **** 
 195:Lib/lvgl/src/misc/lv_text.h ****     /*CJK Radicals Supplement*/
 196:Lib/lvgl/src/misc/lv_text.h ****     if(letter >= 0x2E80 && letter <= 0x2EFF) {
  57              		.loc 2 196 5 is_stmt 1 view .LVU12
  58              		.loc 2 196 25 is_stmt 0 view .LVU13
  59 0020 A0F53A52 		sub	r2, r0, #11904
  60              		.loc 2 196 7 view .LVU14
  61 0024 7F2A     		cmp	r2, #127
  62 0026 1BD9     		bls	.L7
 197:Lib/lvgl/src/misc/lv_text.h ****         return true;
 198:Lib/lvgl/src/misc/lv_text.h ****     }
 199:Lib/lvgl/src/misc/lv_text.h **** 
 200:Lib/lvgl/src/misc/lv_text.h ****     /*CJK Strokes*/
 201:Lib/lvgl/src/misc/lv_text.h ****     if(letter >= 0x31C0 && letter <= 0x31EF) {
  63              		.loc 2 201 5 is_stmt 1 view .LVU15
  64              		.loc 2 201 25 is_stmt 0 view .LVU16
  65 0028 A0F54752 		sub	r2, r0, #12736
  66              		.loc 2 201 7 view .LVU17
  67 002c 2F2A     		cmp	r2, #47
  68 002e 19D9     		bls	.L8
 202:Lib/lvgl/src/misc/lv_text.h ****         return true;
 203:Lib/lvgl/src/misc/lv_text.h ****     }
 204:Lib/lvgl/src/misc/lv_text.h **** 
 205:Lib/lvgl/src/misc/lv_text.h ****     /*Hiragana and Katakana*/
 206:Lib/lvgl/src/misc/lv_text.h ****     if(letter >= 0x3040 && letter <= 0x30FF) {
  69              		.loc 2 206 5 is_stmt 1 view .LVU18
  70              		.loc 2 206 25 is_stmt 0 view .LVU19
  71 0030 A0F54152 		sub	r2, r0, #12352
  72              		.loc 2 206 7 view .LVU20
  73 0034 BF2A     		cmp	r2, #191
  74 0036 17D9     		bls	.L9
 207:Lib/lvgl/src/misc/lv_text.h ****         return true;
 208:Lib/lvgl/src/misc/lv_text.h ****     }
 209:Lib/lvgl/src/misc/lv_text.h **** 
 210:Lib/lvgl/src/misc/lv_text.h ****     /*Chinese Vertical Forms*/
 211:Lib/lvgl/src/misc/lv_text.h ****     if(letter >= 0xFE10 && letter <= 0xFE1F) {
  75              		.loc 2 211 5 is_stmt 1 view .LVU21
ARM GAS  C:\Users\Alex\AppData\Local\Temp\ccyCJmTC.s 			page 6


  76              		.loc 2 211 25 is_stmt 0 view .LVU22
  77 0038 A0F57E42 		sub	r2, r0, #65024
  78 003c 103A     		subs	r2, r2, #16
  79              		.loc 2 211 7 view .LVU23
  80 003e 0F2A     		cmp	r2, #15
  81 0040 14D9     		bls	.L10
 212:Lib/lvgl/src/misc/lv_text.h ****         return true;
 213:Lib/lvgl/src/misc/lv_text.h ****     }
 214:Lib/lvgl/src/misc/lv_text.h **** 
 215:Lib/lvgl/src/misc/lv_text.h ****     /*CJK Compatibility Forms*/
 216:Lib/lvgl/src/misc/lv_text.h ****     if(letter >= 0xFE30 && letter <= 0xFE4F) {
  82              		.loc 2 216 5 is_stmt 1 view .LVU24
  83              		.loc 2 216 25 is_stmt 0 view .LVU25
  84 0042 A0F57E43 		sub	r3, r0, #65024
  85 0046 303B     		subs	r3, r3, #48
  86              		.loc 2 216 7 view .LVU26
  87 0048 1F2B     		cmp	r3, #31
  88 004a 11D9     		bls	.L11
 217:Lib/lvgl/src/misc/lv_text.h ****         return true;
 218:Lib/lvgl/src/misc/lv_text.h ****     }
 219:Lib/lvgl/src/misc/lv_text.h **** 
 220:Lib/lvgl/src/misc/lv_text.h ****     return false;
  89              		.loc 2 220 12 view .LVU27
  90 004c 0020     		movs	r0, #0
  91              	.LVL1:
  92              		.loc 2 220 12 view .LVU28
  93 004e 7047     		bx	lr
  94              	.LVL2:
  95              	.L3:
 178:Lib/lvgl/src/misc/lv_text.h **** 
  96              		.loc 2 178 28 view .LVU29
  97 0050 0020     		movs	r0, #0
  98              	.LVL3:
 178:Lib/lvgl/src/misc/lv_text.h **** 
  99              		.loc 2 178 28 view .LVU30
 100 0052 7047     		bx	lr
 101              	.LVL4:
 102              	.L4:
 182:Lib/lvgl/src/misc/lv_text.h ****     }
 103              		.loc 2 182 16 view .LVU31
 104 0054 0120     		movs	r0, #1
 105              	.LVL5:
 182:Lib/lvgl/src/misc/lv_text.h ****     }
 106              		.loc 2 182 16 view .LVU32
 107 0056 7047     		bx	lr
 108              	.LVL6:
 109              	.L5:
 187:Lib/lvgl/src/misc/lv_text.h ****     }
 110              		.loc 2 187 16 view .LVU33
 111 0058 0120     		movs	r0, #1
 112              	.LVL7:
 187:Lib/lvgl/src/misc/lv_text.h ****     }
 113              		.loc 2 187 16 view .LVU34
 114 005a 7047     		bx	lr
 115              	.LVL8:
 116              	.L6:
 192:Lib/lvgl/src/misc/lv_text.h ****     }
ARM GAS  C:\Users\Alex\AppData\Local\Temp\ccyCJmTC.s 			page 7


 117              		.loc 2 192 16 view .LVU35
 118 005c 0120     		movs	r0, #1
 119              	.LVL9:
 192:Lib/lvgl/src/misc/lv_text.h ****     }
 120              		.loc 2 192 16 view .LVU36
 121 005e 7047     		bx	lr
 122              	.LVL10:
 123              	.L7:
 197:Lib/lvgl/src/misc/lv_text.h ****     }
 124              		.loc 2 197 16 view .LVU37
 125 0060 0120     		movs	r0, #1
 126              	.LVL11:
 197:Lib/lvgl/src/misc/lv_text.h ****     }
 127              		.loc 2 197 16 view .LVU38
 128 0062 7047     		bx	lr
 129              	.LVL12:
 130              	.L8:
 202:Lib/lvgl/src/misc/lv_text.h ****     }
 131              		.loc 2 202 16 view .LVU39
 132 0064 0120     		movs	r0, #1
 133              	.LVL13:
 202:Lib/lvgl/src/misc/lv_text.h ****     }
 134              		.loc 2 202 16 view .LVU40
 135 0066 7047     		bx	lr
 136              	.LVL14:
 137              	.L9:
 207:Lib/lvgl/src/misc/lv_text.h ****     }
 138              		.loc 2 207 16 view .LVU41
 139 0068 0120     		movs	r0, #1
 140              	.LVL15:
 207:Lib/lvgl/src/misc/lv_text.h ****     }
 141              		.loc 2 207 16 view .LVU42
 142 006a 7047     		bx	lr
 143              	.LVL16:
 144              	.L10:
 212:Lib/lvgl/src/misc/lv_text.h ****     }
 145              		.loc 2 212 16 view .LVU43
 146 006c 0120     		movs	r0, #1
 147              	.LVL17:
 212:Lib/lvgl/src/misc/lv_text.h ****     }
 148              		.loc 2 212 16 view .LVU44
 149 006e 7047     		bx	lr
 150              	.LVL18:
 151              	.L11:
 217:Lib/lvgl/src/misc/lv_text.h ****     }
 152              		.loc 2 217 16 view .LVU45
 153 0070 0120     		movs	r0, #1
 154              	.LVL19:
 221:Lib/lvgl/src/misc/lv_text.h **** }
 155              		.loc 2 221 1 view .LVU46
 156 0072 7047     		bx	lr
 157              		.cfi_endproc
 158              	.LFE38:
 160              		.section	.text.lv_text_utf8_size,"ax",%progbits
 161              		.align	1
 162              		.syntax unified
 163              		.thumb
ARM GAS  C:\Users\Alex\AppData\Local\Temp\ccyCJmTC.s 			page 8


 164              		.thumb_func
 166              	lv_text_utf8_size:
 167              	.LVL20:
 168              	.LFB90:
   1:Lib/lvgl/src/misc/lv_text.c **** /**
   2:Lib/lvgl/src/misc/lv_text.c ****  * @file lv_text.c
   3:Lib/lvgl/src/misc/lv_text.c ****  *
   4:Lib/lvgl/src/misc/lv_text.c ****  */
   5:Lib/lvgl/src/misc/lv_text.c **** 
   6:Lib/lvgl/src/misc/lv_text.c **** /*********************
   7:Lib/lvgl/src/misc/lv_text.c ****  *      INCLUDES
   8:Lib/lvgl/src/misc/lv_text.c ****  *********************/
   9:Lib/lvgl/src/misc/lv_text.c **** #include <stdarg.h>
  10:Lib/lvgl/src/misc/lv_text.c **** #include "lv_text.h"
  11:Lib/lvgl/src/misc/lv_text.c **** #include "lv_text_ap.h"
  12:Lib/lvgl/src/misc/lv_text.c **** #include "lv_math.h"
  13:Lib/lvgl/src/misc/lv_text.c **** #include "lv_log.h"
  14:Lib/lvgl/src/misc/lv_text.c **** #include "lv_assert.h"
  15:Lib/lvgl/src/misc/lv_text.c **** #include "../stdlib/lv_mem.h"
  16:Lib/lvgl/src/misc/lv_text.c **** #include "../stdlib/lv_string.h"
  17:Lib/lvgl/src/misc/lv_text.c **** 
  18:Lib/lvgl/src/misc/lv_text.c **** /*********************
  19:Lib/lvgl/src/misc/lv_text.c ****  *      DEFINES
  20:Lib/lvgl/src/misc/lv_text.c ****  *********************/
  21:Lib/lvgl/src/misc/lv_text.c **** #define NO_BREAK_FOUND UINT32_MAX
  22:Lib/lvgl/src/misc/lv_text.c **** 
  23:Lib/lvgl/src/misc/lv_text.c **** /**********************
  24:Lib/lvgl/src/misc/lv_text.c ****  *      TYPEDEFS
  25:Lib/lvgl/src/misc/lv_text.c ****  **********************/
  26:Lib/lvgl/src/misc/lv_text.c **** 
  27:Lib/lvgl/src/misc/lv_text.c **** /**********************
  28:Lib/lvgl/src/misc/lv_text.c ****  *  STATIC PROTOTYPES
  29:Lib/lvgl/src/misc/lv_text.c ****  **********************/
  30:Lib/lvgl/src/misc/lv_text.c **** 
  31:Lib/lvgl/src/misc/lv_text.c **** #if LV_TXT_ENC == LV_TXT_ENC_UTF8
  32:Lib/lvgl/src/misc/lv_text.c ****     static uint8_t lv_text_utf8_size(const char * str);
  33:Lib/lvgl/src/misc/lv_text.c ****     static uint32_t lv_text_unicode_to_utf8(uint32_t letter_uni);
  34:Lib/lvgl/src/misc/lv_text.c ****     static uint32_t lv_text_utf8_conv_wc(uint32_t c);
  35:Lib/lvgl/src/misc/lv_text.c ****     static uint32_t lv_text_utf8_next(const char * txt, uint32_t * i);
  36:Lib/lvgl/src/misc/lv_text.c ****     static uint32_t lv_text_utf8_prev(const char * txt, uint32_t * i_start);
  37:Lib/lvgl/src/misc/lv_text.c ****     static uint32_t lv_text_utf8_get_byte_id(const char * txt, uint32_t utf8_id);
  38:Lib/lvgl/src/misc/lv_text.c ****     static uint32_t lv_text_utf8_get_char_id(const char * txt, uint32_t byte_id);
  39:Lib/lvgl/src/misc/lv_text.c ****     static uint32_t lv_text_utf8_get_length(const char * txt);
  40:Lib/lvgl/src/misc/lv_text.c **** #elif LV_TXT_ENC == LV_TXT_ENC_ASCII
  41:Lib/lvgl/src/misc/lv_text.c ****     static uint8_t lv_text_iso8859_1_size(const char * str);
  42:Lib/lvgl/src/misc/lv_text.c ****     static uint32_t lv_text_unicode_to_iso8859_1(uint32_t letter_uni);
  43:Lib/lvgl/src/misc/lv_text.c ****     static uint32_t lv_text_iso8859_1_conv_wc(uint32_t c);
  44:Lib/lvgl/src/misc/lv_text.c ****     static uint32_t lv_text_iso8859_1_next(const char * txt, uint32_t * i);
  45:Lib/lvgl/src/misc/lv_text.c ****     static uint32_t lv_text_iso8859_1_prev(const char * txt, uint32_t * i_start);
  46:Lib/lvgl/src/misc/lv_text.c ****     static uint32_t lv_text_iso8859_1_get_byte_id(const char * txt, uint32_t utf8_id);
  47:Lib/lvgl/src/misc/lv_text.c ****     static uint32_t lv_text_iso8859_1_get_char_id(const char * txt, uint32_t byte_id);
  48:Lib/lvgl/src/misc/lv_text.c ****     static uint32_t lv_text_iso8859_1_get_length(const char * txt);
  49:Lib/lvgl/src/misc/lv_text.c **** #endif
  50:Lib/lvgl/src/misc/lv_text.c **** /**********************
  51:Lib/lvgl/src/misc/lv_text.c ****  *  STATIC VARIABLES
  52:Lib/lvgl/src/misc/lv_text.c ****  **********************/
  53:Lib/lvgl/src/misc/lv_text.c **** 
ARM GAS  C:\Users\Alex\AppData\Local\Temp\ccyCJmTC.s 			page 9


  54:Lib/lvgl/src/misc/lv_text.c **** /**********************
  55:Lib/lvgl/src/misc/lv_text.c ****  *  GLOBAL VARIABLES
  56:Lib/lvgl/src/misc/lv_text.c ****  **********************/
  57:Lib/lvgl/src/misc/lv_text.c **** #if LV_TXT_ENC == LV_TXT_ENC_UTF8
  58:Lib/lvgl/src/misc/lv_text.c ****     uint8_t (*_lv_text_encoded_size)(const char *)                   = lv_text_utf8_size;
  59:Lib/lvgl/src/misc/lv_text.c ****     uint32_t (*_lv_text_unicode_to_encoded)(uint32_t)                = lv_text_unicode_to_utf8;
  60:Lib/lvgl/src/misc/lv_text.c ****     uint32_t (*_lv_text_encoded_conv_wc)(uint32_t)                   = lv_text_utf8_conv_wc;
  61:Lib/lvgl/src/misc/lv_text.c ****     uint32_t (*_lv_text_encoded_next)(const char *, uint32_t *)      = lv_text_utf8_next;
  62:Lib/lvgl/src/misc/lv_text.c ****     uint32_t (*_lv_text_encoded_prev)(const char *, uint32_t *)      = lv_text_utf8_prev;
  63:Lib/lvgl/src/misc/lv_text.c ****     uint32_t (*_lv_text_encoded_get_byte_id)(const char *, uint32_t) = lv_text_utf8_get_byte_id;
  64:Lib/lvgl/src/misc/lv_text.c ****     uint32_t (*_lv_text_encoded_get_char_id)(const char *, uint32_t) = lv_text_utf8_get_char_id;
  65:Lib/lvgl/src/misc/lv_text.c ****     uint32_t (*_lv_text_get_encoded_length)(const char *)            = lv_text_utf8_get_length;
  66:Lib/lvgl/src/misc/lv_text.c **** #elif LV_TXT_ENC == LV_TXT_ENC_ASCII
  67:Lib/lvgl/src/misc/lv_text.c ****     uint8_t (*_lv_text_encoded_size)(const char *)                   = lv_text_iso8859_1_size;
  68:Lib/lvgl/src/misc/lv_text.c ****     uint32_t (*_lv_text_unicode_to_encoded)(uint32_t)                = lv_text_unicode_to_iso8859_1
  69:Lib/lvgl/src/misc/lv_text.c ****     uint32_t (*_lv_text_encoded_conv_wc)(uint32_t)                   = lv_text_iso8859_1_conv_wc;
  70:Lib/lvgl/src/misc/lv_text.c ****     uint32_t (*_lv_text_encoded_next)(const char *, uint32_t *)      = lv_text_iso8859_1_next;
  71:Lib/lvgl/src/misc/lv_text.c ****     uint32_t (*_lv_text_encoded_prev)(const char *, uint32_t *)      = lv_text_iso8859_1_prev;
  72:Lib/lvgl/src/misc/lv_text.c ****     uint32_t (*_lv_text_encoded_get_byte_id)(const char *, uint32_t) = lv_text_iso8859_1_get_byte_i
  73:Lib/lvgl/src/misc/lv_text.c ****     uint32_t (*_lv_text_encoded_get_char_id)(const char *, uint32_t)     = lv_text_iso8859_1_get_ch
  74:Lib/lvgl/src/misc/lv_text.c ****     uint32_t (*_lv_text_get_encoded_length)(const char *)            = lv_text_iso8859_1_get_length
  75:Lib/lvgl/src/misc/lv_text.c **** 
  76:Lib/lvgl/src/misc/lv_text.c **** #endif
  77:Lib/lvgl/src/misc/lv_text.c **** 
  78:Lib/lvgl/src/misc/lv_text.c **** /**********************
  79:Lib/lvgl/src/misc/lv_text.c ****  *      MACROS
  80:Lib/lvgl/src/misc/lv_text.c ****  **********************/
  81:Lib/lvgl/src/misc/lv_text.c **** 
  82:Lib/lvgl/src/misc/lv_text.c **** #define LV_IS_ASCII(value)              ((value & 0x80U) == 0x00U)
  83:Lib/lvgl/src/misc/lv_text.c **** #define LV_IS_2BYTES_UTF8_CODE(value)   ((value & 0xE0U) == 0xC0U)
  84:Lib/lvgl/src/misc/lv_text.c **** #define LV_IS_3BYTES_UTF8_CODE(value)   ((value & 0xF0U) == 0xE0U)
  85:Lib/lvgl/src/misc/lv_text.c **** #define LV_IS_4BYTES_UTF8_CODE(value)   ((value & 0xF8U) == 0xF0U)
  86:Lib/lvgl/src/misc/lv_text.c **** #define LV_IS_INVALID_UTF8_CODE(value)  ((value & 0xC0U) != 0x80U)
  87:Lib/lvgl/src/misc/lv_text.c **** 
  88:Lib/lvgl/src/misc/lv_text.c **** /**********************
  89:Lib/lvgl/src/misc/lv_text.c ****  *   GLOBAL FUNCTIONS
  90:Lib/lvgl/src/misc/lv_text.c ****  **********************/
  91:Lib/lvgl/src/misc/lv_text.c **** 
  92:Lib/lvgl/src/misc/lv_text.c **** void lv_text_get_size(lv_point_t * size_res, const char * text, const lv_font_t * font, int32_t let
  93:Lib/lvgl/src/misc/lv_text.c ****                       int32_t line_space, int32_t max_width, lv_text_flag_t flag)
  94:Lib/lvgl/src/misc/lv_text.c **** {
  95:Lib/lvgl/src/misc/lv_text.c ****     size_res->x = 0;
  96:Lib/lvgl/src/misc/lv_text.c ****     size_res->y = 0;
  97:Lib/lvgl/src/misc/lv_text.c **** 
  98:Lib/lvgl/src/misc/lv_text.c ****     if(text == NULL) return;
  99:Lib/lvgl/src/misc/lv_text.c ****     if(font == NULL) return;
 100:Lib/lvgl/src/misc/lv_text.c **** 
 101:Lib/lvgl/src/misc/lv_text.c ****     if(flag & LV_TEXT_FLAG_EXPAND) max_width = LV_COORD_MAX;
 102:Lib/lvgl/src/misc/lv_text.c **** 
 103:Lib/lvgl/src/misc/lv_text.c ****     uint32_t line_start     = 0;
 104:Lib/lvgl/src/misc/lv_text.c ****     uint32_t new_line_start = 0;
 105:Lib/lvgl/src/misc/lv_text.c ****     uint16_t letter_height = lv_font_get_line_height(font);
 106:Lib/lvgl/src/misc/lv_text.c **** 
 107:Lib/lvgl/src/misc/lv_text.c ****     /*Calc. the height and longest line*/
 108:Lib/lvgl/src/misc/lv_text.c ****     while(text[line_start] != '\0') {
 109:Lib/lvgl/src/misc/lv_text.c ****         new_line_start += _lv_text_get_next_line(&text[line_start], font, letter_space, max_width, 
 110:Lib/lvgl/src/misc/lv_text.c **** 
ARM GAS  C:\Users\Alex\AppData\Local\Temp\ccyCJmTC.s 			page 10


 111:Lib/lvgl/src/misc/lv_text.c ****         if((unsigned long)size_res->y + (unsigned long)letter_height + (unsigned long)line_space > 
 112:Lib/lvgl/src/misc/lv_text.c ****             LV_LOG_WARN("integer overflow while calculating text height");
 113:Lib/lvgl/src/misc/lv_text.c ****             return;
 114:Lib/lvgl/src/misc/lv_text.c ****         }
 115:Lib/lvgl/src/misc/lv_text.c ****         else {
 116:Lib/lvgl/src/misc/lv_text.c ****             size_res->y += letter_height;
 117:Lib/lvgl/src/misc/lv_text.c ****             size_res->y += line_space;
 118:Lib/lvgl/src/misc/lv_text.c ****         }
 119:Lib/lvgl/src/misc/lv_text.c **** 
 120:Lib/lvgl/src/misc/lv_text.c ****         /*Calculate the longest line*/
 121:Lib/lvgl/src/misc/lv_text.c ****         int32_t act_line_length = lv_text_get_width(&text[line_start], new_line_start - line_start,
 122:Lib/lvgl/src/misc/lv_text.c **** 
 123:Lib/lvgl/src/misc/lv_text.c ****         size_res->x = LV_MAX(act_line_length, size_res->x);
 124:Lib/lvgl/src/misc/lv_text.c ****         line_start  = new_line_start;
 125:Lib/lvgl/src/misc/lv_text.c ****     }
 126:Lib/lvgl/src/misc/lv_text.c **** 
 127:Lib/lvgl/src/misc/lv_text.c ****     /*Make the text one line taller if the last character is '\n' or '\r'*/
 128:Lib/lvgl/src/misc/lv_text.c ****     if((line_start != 0) && (text[line_start - 1] == '\n' || text[line_start - 1] == '\r')) {
 129:Lib/lvgl/src/misc/lv_text.c ****         size_res->y += letter_height + line_space;
 130:Lib/lvgl/src/misc/lv_text.c ****     }
 131:Lib/lvgl/src/misc/lv_text.c **** 
 132:Lib/lvgl/src/misc/lv_text.c ****     /*Correction with the last line space or set the height manually if the text is empty*/
 133:Lib/lvgl/src/misc/lv_text.c ****     if(size_res->y == 0)
 134:Lib/lvgl/src/misc/lv_text.c ****         size_res->y = letter_height;
 135:Lib/lvgl/src/misc/lv_text.c ****     else
 136:Lib/lvgl/src/misc/lv_text.c ****         size_res->y -= line_space;
 137:Lib/lvgl/src/misc/lv_text.c **** }
 138:Lib/lvgl/src/misc/lv_text.c **** 
 139:Lib/lvgl/src/misc/lv_text.c **** /**
 140:Lib/lvgl/src/misc/lv_text.c ****  * Get the next word of text. A word is delimited by break characters.
 141:Lib/lvgl/src/misc/lv_text.c ****  *
 142:Lib/lvgl/src/misc/lv_text.c ****  * If the word cannot fit in the max_width space, obey LV_TXT_LINE_BREAK_LONG_* rules.
 143:Lib/lvgl/src/misc/lv_text.c ****  *
 144:Lib/lvgl/src/misc/lv_text.c ****  * If the next word cannot fit anything, return 0.
 145:Lib/lvgl/src/misc/lv_text.c ****  *
 146:Lib/lvgl/src/misc/lv_text.c ****  * If the first character is a break character, returns the next index.
 147:Lib/lvgl/src/misc/lv_text.c ****  *
 148:Lib/lvgl/src/misc/lv_text.c ****  * Example calls from lv_text_get_next_line() assuming sufficient max_width and
 149:Lib/lvgl/src/misc/lv_text.c ****  * txt = "Test text\n"
 150:Lib/lvgl/src/misc/lv_text.c ****  *        0123456789
 151:Lib/lvgl/src/misc/lv_text.c ****  *
 152:Lib/lvgl/src/misc/lv_text.c ****  * Calls would be as follows:
 153:Lib/lvgl/src/misc/lv_text.c ****  *     1. Return i=4, pointing at breakchar ' ', for the string "Test"
 154:Lib/lvgl/src/misc/lv_text.c ****  *     2. Return i=5, since i=4 was a breakchar.
 155:Lib/lvgl/src/misc/lv_text.c ****  *     3. Return i=9, pointing at breakchar '\n'
 156:Lib/lvgl/src/misc/lv_text.c ****  *     4. Parenting lv_text_get_next_line() would detect subsequent '\0'
 157:Lib/lvgl/src/misc/lv_text.c ****  *
 158:Lib/lvgl/src/misc/lv_text.c ****  * TODO: Returned word_w_ptr may overestimate the returned word's width when
 159:Lib/lvgl/src/misc/lv_text.c ****  * max_width is reached. In current usage, this has no impact.
 160:Lib/lvgl/src/misc/lv_text.c ****  *
 161:Lib/lvgl/src/misc/lv_text.c ****  * @param txt a '\0' terminated string
 162:Lib/lvgl/src/misc/lv_text.c ****  * @param font pointer to a font
 163:Lib/lvgl/src/misc/lv_text.c ****  * @param letter_space letter space
 164:Lib/lvgl/src/misc/lv_text.c ****  * @param max_width max width of the text (break the lines to fit this size). Set COORD_MAX to avoi
 165:Lib/lvgl/src/misc/lv_text.c ****  * @param flags settings for the text from 'txt_flag_type' enum
 166:Lib/lvgl/src/misc/lv_text.c ****  * @param[out] word_w_ptr width (in pixels) of the parsed word. May be NULL.
 167:Lib/lvgl/src/misc/lv_text.c ****  * @param force Force return the fraction of the word that can fit in the provided space.
ARM GAS  C:\Users\Alex\AppData\Local\Temp\ccyCJmTC.s 			page 11


 168:Lib/lvgl/src/misc/lv_text.c ****  * @return the index of the first char of the next word (in byte index not letter index. With UTF-8
 169:Lib/lvgl/src/misc/lv_text.c ****  */
 170:Lib/lvgl/src/misc/lv_text.c **** static uint32_t lv_text_get_next_word(const char * txt, const lv_font_t * font,
 171:Lib/lvgl/src/misc/lv_text.c ****                                       int32_t letter_space, int32_t max_width,
 172:Lib/lvgl/src/misc/lv_text.c ****                                       lv_text_flag_t flag, uint32_t * word_w_ptr, bool force)
 173:Lib/lvgl/src/misc/lv_text.c **** {
 174:Lib/lvgl/src/misc/lv_text.c ****     if(txt == NULL || txt[0] == '\0') return 0;
 175:Lib/lvgl/src/misc/lv_text.c ****     if(font == NULL) return 0;
 176:Lib/lvgl/src/misc/lv_text.c **** 
 177:Lib/lvgl/src/misc/lv_text.c ****     if(flag & LV_TEXT_FLAG_EXPAND) max_width = LV_COORD_MAX;
 178:Lib/lvgl/src/misc/lv_text.c **** 
 179:Lib/lvgl/src/misc/lv_text.c ****     uint32_t i = 0, i_next = 0, i_next_next = 0;  /*Iterating index into txt*/
 180:Lib/lvgl/src/misc/lv_text.c ****     uint32_t letter = 0;      /*Letter at i*/
 181:Lib/lvgl/src/misc/lv_text.c ****     uint32_t letter_next = 0; /*Letter at i_next*/
 182:Lib/lvgl/src/misc/lv_text.c ****     int32_t letter_w;
 183:Lib/lvgl/src/misc/lv_text.c ****     int32_t cur_w = 0;  /*Pixel Width of transversed string*/
 184:Lib/lvgl/src/misc/lv_text.c ****     uint32_t word_len = 0;   /*Number of characters in the transversed word*/
 185:Lib/lvgl/src/misc/lv_text.c ****     uint32_t break_index = NO_BREAK_FOUND; /*only used for "long" words*/
 186:Lib/lvgl/src/misc/lv_text.c ****     uint32_t break_letter_count = 0; /*Number of characters up to the long word break point*/
 187:Lib/lvgl/src/misc/lv_text.c **** 
 188:Lib/lvgl/src/misc/lv_text.c ****     letter = _lv_text_encoded_next(txt, &i_next);
 189:Lib/lvgl/src/misc/lv_text.c ****     i_next_next = i_next;
 190:Lib/lvgl/src/misc/lv_text.c **** 
 191:Lib/lvgl/src/misc/lv_text.c ****     /*Obtain the full word, regardless if it fits or not in max_width*/
 192:Lib/lvgl/src/misc/lv_text.c ****     while(txt[i] != '\0') {
 193:Lib/lvgl/src/misc/lv_text.c ****         letter_next = _lv_text_encoded_next(txt, &i_next_next);
 194:Lib/lvgl/src/misc/lv_text.c ****         word_len++;
 195:Lib/lvgl/src/misc/lv_text.c **** 
 196:Lib/lvgl/src/misc/lv_text.c ****         letter_w = lv_font_get_glyph_width(font, letter, letter_next);
 197:Lib/lvgl/src/misc/lv_text.c ****         cur_w += letter_w;
 198:Lib/lvgl/src/misc/lv_text.c **** 
 199:Lib/lvgl/src/misc/lv_text.c ****         if(letter_w > 0) {
 200:Lib/lvgl/src/misc/lv_text.c ****             cur_w += letter_space;
 201:Lib/lvgl/src/misc/lv_text.c ****         }
 202:Lib/lvgl/src/misc/lv_text.c **** 
 203:Lib/lvgl/src/misc/lv_text.c ****         /*Test if this character fits within max_width*/
 204:Lib/lvgl/src/misc/lv_text.c ****         if(break_index == NO_BREAK_FOUND && (cur_w - letter_space) > max_width) {
 205:Lib/lvgl/src/misc/lv_text.c ****             break_index = i;
 206:Lib/lvgl/src/misc/lv_text.c ****             break_letter_count = word_len - 1;
 207:Lib/lvgl/src/misc/lv_text.c ****             /*break_index is now pointing at the character that doesn't fit*/
 208:Lib/lvgl/src/misc/lv_text.c ****         }
 209:Lib/lvgl/src/misc/lv_text.c **** 
 210:Lib/lvgl/src/misc/lv_text.c ****         /*Check for new line chars and breakchars*/
 211:Lib/lvgl/src/misc/lv_text.c ****         if(letter == '\n' || letter == '\r' || _lv_text_is_break_char(letter)) {
 212:Lib/lvgl/src/misc/lv_text.c ****             /*Update the output width on the first character if it fits.
 213:Lib/lvgl/src/misc/lv_text.c ****              *Must do this here in case first letter is a break character.*/
 214:Lib/lvgl/src/misc/lv_text.c ****             if(i == 0 && break_index == NO_BREAK_FOUND && word_w_ptr != NULL) *word_w_ptr = cur_w;
 215:Lib/lvgl/src/misc/lv_text.c ****             word_len--;
 216:Lib/lvgl/src/misc/lv_text.c ****             break;
 217:Lib/lvgl/src/misc/lv_text.c ****         }
 218:Lib/lvgl/src/misc/lv_text.c ****         else if(_lv_text_is_a_word(letter_next) || _lv_text_is_a_word(letter)) {
 219:Lib/lvgl/src/misc/lv_text.c ****             /*Found a word for single letter, usually true for CJK*/
 220:Lib/lvgl/src/misc/lv_text.c ****             *word_w_ptr = cur_w;
 221:Lib/lvgl/src/misc/lv_text.c ****             i = i_next;
 222:Lib/lvgl/src/misc/lv_text.c ****             break;
 223:Lib/lvgl/src/misc/lv_text.c ****         }
 224:Lib/lvgl/src/misc/lv_text.c **** 
ARM GAS  C:\Users\Alex\AppData\Local\Temp\ccyCJmTC.s 			page 12


 225:Lib/lvgl/src/misc/lv_text.c ****         /*Update the output width*/
 226:Lib/lvgl/src/misc/lv_text.c ****         if(word_w_ptr != NULL && break_index == NO_BREAK_FOUND) *word_w_ptr = cur_w;
 227:Lib/lvgl/src/misc/lv_text.c **** 
 228:Lib/lvgl/src/misc/lv_text.c ****         i = i_next;
 229:Lib/lvgl/src/misc/lv_text.c ****         i_next = i_next_next;
 230:Lib/lvgl/src/misc/lv_text.c ****         letter = letter_next;
 231:Lib/lvgl/src/misc/lv_text.c ****     }
 232:Lib/lvgl/src/misc/lv_text.c **** 
 233:Lib/lvgl/src/misc/lv_text.c ****     /*Entire Word fits in the provided space*/
 234:Lib/lvgl/src/misc/lv_text.c ****     if(break_index == NO_BREAK_FOUND) {
 235:Lib/lvgl/src/misc/lv_text.c ****         if(word_len == 0 || (letter == '\r' && letter_next == '\n')) i = i_next;
 236:Lib/lvgl/src/misc/lv_text.c ****         return i;
 237:Lib/lvgl/src/misc/lv_text.c ****     }
 238:Lib/lvgl/src/misc/lv_text.c **** 
 239:Lib/lvgl/src/misc/lv_text.c **** #if LV_TXT_LINE_BREAK_LONG_LEN > 0
 240:Lib/lvgl/src/misc/lv_text.c ****     /*Word doesn't fit in provided space, but isn't "long"*/
 241:Lib/lvgl/src/misc/lv_text.c ****     if(word_len < LV_TXT_LINE_BREAK_LONG_LEN) {
 242:Lib/lvgl/src/misc/lv_text.c ****         if(force) return break_index;
 243:Lib/lvgl/src/misc/lv_text.c ****         if(word_w_ptr != NULL) *word_w_ptr = 0; /*Return no word*/
 244:Lib/lvgl/src/misc/lv_text.c ****         return 0;
 245:Lib/lvgl/src/misc/lv_text.c ****     }
 246:Lib/lvgl/src/misc/lv_text.c **** 
 247:Lib/lvgl/src/misc/lv_text.c ****     /*Word is "long," but insufficient amounts can fit in provided space*/
 248:Lib/lvgl/src/misc/lv_text.c ****     if(break_letter_count < LV_TXT_LINE_BREAK_LONG_PRE_MIN_LEN) {
 249:Lib/lvgl/src/misc/lv_text.c ****         if(force) return break_index;
 250:Lib/lvgl/src/misc/lv_text.c ****         if(word_w_ptr != NULL) *word_w_ptr = 0;
 251:Lib/lvgl/src/misc/lv_text.c ****         return 0;
 252:Lib/lvgl/src/misc/lv_text.c ****     }
 253:Lib/lvgl/src/misc/lv_text.c **** 
 254:Lib/lvgl/src/misc/lv_text.c ****     /*Word is a "long", but letters may need to be better distributed*/
 255:Lib/lvgl/src/misc/lv_text.c ****     {
 256:Lib/lvgl/src/misc/lv_text.c ****         i = break_index;
 257:Lib/lvgl/src/misc/lv_text.c ****         int32_t n_move = LV_TXT_LINE_BREAK_LONG_POST_MIN_LEN - (word_len - break_letter_count);
 258:Lib/lvgl/src/misc/lv_text.c ****         /*Move pointer "i" backwards*/
 259:Lib/lvgl/src/misc/lv_text.c ****         for(; n_move > 0; n_move--) {
 260:Lib/lvgl/src/misc/lv_text.c ****             _lv_text_encoded_prev(txt, &i);
 261:Lib/lvgl/src/misc/lv_text.c ****             /**
 262:Lib/lvgl/src/misc/lv_text.c ****              * TODO: it would be appropriate to update the returned
 263:Lib/lvgl/src/misc/lv_text.c ****              * word width hereHowever, in current usage, this doesn't impact anything.
 264:Lib/lvgl/src/misc/lv_text.c ****              */
 265:Lib/lvgl/src/misc/lv_text.c ****         }
 266:Lib/lvgl/src/misc/lv_text.c ****     }
 267:Lib/lvgl/src/misc/lv_text.c ****     return i;
 268:Lib/lvgl/src/misc/lv_text.c **** #else
 269:Lib/lvgl/src/misc/lv_text.c ****     if(force) return break_index;
 270:Lib/lvgl/src/misc/lv_text.c ****     if(word_w_ptr != NULL) *word_w_ptr = 0; /*Return no word*/
 271:Lib/lvgl/src/misc/lv_text.c ****     (void) break_letter_count;
 272:Lib/lvgl/src/misc/lv_text.c ****     return 0;
 273:Lib/lvgl/src/misc/lv_text.c **** #endif
 274:Lib/lvgl/src/misc/lv_text.c **** }
 275:Lib/lvgl/src/misc/lv_text.c **** 
 276:Lib/lvgl/src/misc/lv_text.c **** uint32_t _lv_text_get_next_line(const char * txt, const lv_font_t * font,
 277:Lib/lvgl/src/misc/lv_text.c ****                                 int32_t letter_space, int32_t max_width,
 278:Lib/lvgl/src/misc/lv_text.c ****                                 int32_t * used_width, lv_text_flag_t flag)
 279:Lib/lvgl/src/misc/lv_text.c **** {
 280:Lib/lvgl/src/misc/lv_text.c ****     if(used_width) *used_width = 0;
 281:Lib/lvgl/src/misc/lv_text.c **** 
ARM GAS  C:\Users\Alex\AppData\Local\Temp\ccyCJmTC.s 			page 13


 282:Lib/lvgl/src/misc/lv_text.c ****     if(txt == NULL) return 0;
 283:Lib/lvgl/src/misc/lv_text.c ****     if(txt[0] == '\0') return 0;
 284:Lib/lvgl/src/misc/lv_text.c ****     if(font == NULL) return 0;
 285:Lib/lvgl/src/misc/lv_text.c **** 
 286:Lib/lvgl/src/misc/lv_text.c ****     int32_t line_w = 0;
 287:Lib/lvgl/src/misc/lv_text.c **** 
 288:Lib/lvgl/src/misc/lv_text.c ****     /*If max_width doesn't matter simply find the new line character
 289:Lib/lvgl/src/misc/lv_text.c ****      *without thinking about word wrapping*/
 290:Lib/lvgl/src/misc/lv_text.c ****     if((flag & LV_TEXT_FLAG_EXPAND) || (flag & LV_TEXT_FLAG_FIT)) {
 291:Lib/lvgl/src/misc/lv_text.c ****         uint32_t i;
 292:Lib/lvgl/src/misc/lv_text.c ****         for(i = 0; txt[i] != '\n' && txt[i] != '\r' && txt[i] != '\0'; i++) {
 293:Lib/lvgl/src/misc/lv_text.c ****             /*Just find the new line chars or string ends by incrementing `i`*/
 294:Lib/lvgl/src/misc/lv_text.c ****         }
 295:Lib/lvgl/src/misc/lv_text.c ****         if(txt[i] != '\0') i++;    /*To go beyond `\n`*/
 296:Lib/lvgl/src/misc/lv_text.c ****         if(used_width) *used_width = -1;
 297:Lib/lvgl/src/misc/lv_text.c ****         return i;
 298:Lib/lvgl/src/misc/lv_text.c ****     }
 299:Lib/lvgl/src/misc/lv_text.c **** 
 300:Lib/lvgl/src/misc/lv_text.c ****     if(flag & LV_TEXT_FLAG_EXPAND) max_width = LV_COORD_MAX;
 301:Lib/lvgl/src/misc/lv_text.c ****     uint32_t i = 0;                                        /*Iterating index into txt*/
 302:Lib/lvgl/src/misc/lv_text.c **** 
 303:Lib/lvgl/src/misc/lv_text.c ****     while(txt[i] != '\0' && max_width > 0) {
 304:Lib/lvgl/src/misc/lv_text.c ****         uint32_t word_w = 0;
 305:Lib/lvgl/src/misc/lv_text.c ****         uint32_t advance = lv_text_get_next_word(&txt[i], font, letter_space, max_width, flag, &wor
 306:Lib/lvgl/src/misc/lv_text.c ****         max_width -= word_w;
 307:Lib/lvgl/src/misc/lv_text.c ****         line_w += word_w;
 308:Lib/lvgl/src/misc/lv_text.c **** 
 309:Lib/lvgl/src/misc/lv_text.c ****         if(advance == 0) {
 310:Lib/lvgl/src/misc/lv_text.c ****             break;
 311:Lib/lvgl/src/misc/lv_text.c ****         }
 312:Lib/lvgl/src/misc/lv_text.c **** 
 313:Lib/lvgl/src/misc/lv_text.c ****         i += advance;
 314:Lib/lvgl/src/misc/lv_text.c **** 
 315:Lib/lvgl/src/misc/lv_text.c ****         if(txt[0] == '\n' || txt[0] == '\r') break;
 316:Lib/lvgl/src/misc/lv_text.c **** 
 317:Lib/lvgl/src/misc/lv_text.c ****         if(txt[i] == '\n' || txt[i] == '\r') {
 318:Lib/lvgl/src/misc/lv_text.c ****             i++;  /*Include the following newline in the current line*/
 319:Lib/lvgl/src/misc/lv_text.c ****             break;
 320:Lib/lvgl/src/misc/lv_text.c ****         }
 321:Lib/lvgl/src/misc/lv_text.c **** 
 322:Lib/lvgl/src/misc/lv_text.c ****     }
 323:Lib/lvgl/src/misc/lv_text.c **** 
 324:Lib/lvgl/src/misc/lv_text.c ****     /*Always step at least one to avoid infinite loops*/
 325:Lib/lvgl/src/misc/lv_text.c ****     if(i == 0) {
 326:Lib/lvgl/src/misc/lv_text.c ****         uint32_t letter = _lv_text_encoded_next(txt, &i);
 327:Lib/lvgl/src/misc/lv_text.c ****         if(used_width != NULL) {
 328:Lib/lvgl/src/misc/lv_text.c ****             line_w = lv_font_get_glyph_width(font, letter, '\0');
 329:Lib/lvgl/src/misc/lv_text.c ****         }
 330:Lib/lvgl/src/misc/lv_text.c ****     }
 331:Lib/lvgl/src/misc/lv_text.c **** 
 332:Lib/lvgl/src/misc/lv_text.c ****     if(used_width != NULL) {
 333:Lib/lvgl/src/misc/lv_text.c ****         *used_width = line_w;
 334:Lib/lvgl/src/misc/lv_text.c ****     }
 335:Lib/lvgl/src/misc/lv_text.c **** 
 336:Lib/lvgl/src/misc/lv_text.c ****     return i;
 337:Lib/lvgl/src/misc/lv_text.c **** }
 338:Lib/lvgl/src/misc/lv_text.c **** 
ARM GAS  C:\Users\Alex\AppData\Local\Temp\ccyCJmTC.s 			page 14


 339:Lib/lvgl/src/misc/lv_text.c **** int32_t lv_text_get_width(const char * txt, uint32_t length, const lv_font_t * font, int32_t letter
 340:Lib/lvgl/src/misc/lv_text.c **** {
 341:Lib/lvgl/src/misc/lv_text.c ****     if(txt == NULL) return 0;
 342:Lib/lvgl/src/misc/lv_text.c ****     if(font == NULL) return 0;
 343:Lib/lvgl/src/misc/lv_text.c ****     if(txt[0] == '\0') return 0;
 344:Lib/lvgl/src/misc/lv_text.c **** 
 345:Lib/lvgl/src/misc/lv_text.c ****     uint32_t i                   = 0;
 346:Lib/lvgl/src/misc/lv_text.c ****     int32_t width             = 0;
 347:Lib/lvgl/src/misc/lv_text.c **** 
 348:Lib/lvgl/src/misc/lv_text.c ****     if(length != 0) {
 349:Lib/lvgl/src/misc/lv_text.c ****         while(i < length) {
 350:Lib/lvgl/src/misc/lv_text.c ****             uint32_t letter;
 351:Lib/lvgl/src/misc/lv_text.c ****             uint32_t letter_next;
 352:Lib/lvgl/src/misc/lv_text.c ****             _lv_text_encoded_letter_next_2(txt, &letter, &letter_next, &i);
 353:Lib/lvgl/src/misc/lv_text.c **** 
 354:Lib/lvgl/src/misc/lv_text.c ****             int32_t char_width = lv_font_get_glyph_width(font, letter, letter_next);
 355:Lib/lvgl/src/misc/lv_text.c ****             if(char_width > 0) {
 356:Lib/lvgl/src/misc/lv_text.c ****                 width += char_width;
 357:Lib/lvgl/src/misc/lv_text.c ****                 width += letter_space;
 358:Lib/lvgl/src/misc/lv_text.c ****             }
 359:Lib/lvgl/src/misc/lv_text.c ****         }
 360:Lib/lvgl/src/misc/lv_text.c **** 
 361:Lib/lvgl/src/misc/lv_text.c ****         if(width > 0) {
 362:Lib/lvgl/src/misc/lv_text.c ****             width -= letter_space; /*Trim the last letter space. Important if the text is center
 363:Lib/lvgl/src/misc/lv_text.c ****                                       aligned*/
 364:Lib/lvgl/src/misc/lv_text.c ****         }
 365:Lib/lvgl/src/misc/lv_text.c ****     }
 366:Lib/lvgl/src/misc/lv_text.c **** 
 367:Lib/lvgl/src/misc/lv_text.c ****     return width;
 368:Lib/lvgl/src/misc/lv_text.c **** }
 369:Lib/lvgl/src/misc/lv_text.c **** 
 370:Lib/lvgl/src/misc/lv_text.c **** void _lv_text_ins(char * txt_buf, uint32_t pos, const char * ins_txt)
 371:Lib/lvgl/src/misc/lv_text.c **** {
 372:Lib/lvgl/src/misc/lv_text.c ****     if(txt_buf == NULL || ins_txt == NULL) return;
 373:Lib/lvgl/src/misc/lv_text.c **** 
 374:Lib/lvgl/src/misc/lv_text.c ****     size_t old_len = lv_strlen(txt_buf);
 375:Lib/lvgl/src/misc/lv_text.c ****     size_t ins_len = lv_strlen(ins_txt);
 376:Lib/lvgl/src/misc/lv_text.c ****     if(ins_len == 0) return;
 377:Lib/lvgl/src/misc/lv_text.c **** 
 378:Lib/lvgl/src/misc/lv_text.c ****     size_t new_len = ins_len + old_len;
 379:Lib/lvgl/src/misc/lv_text.c ****     pos              = _lv_text_encoded_get_byte_id(txt_buf, pos); /*Convert to byte index instead 
 380:Lib/lvgl/src/misc/lv_text.c **** 
 381:Lib/lvgl/src/misc/lv_text.c ****     /*Copy the second part into the end to make place to text to insert*/
 382:Lib/lvgl/src/misc/lv_text.c ****     size_t i;
 383:Lib/lvgl/src/misc/lv_text.c ****     for(i = new_len; i >= pos + ins_len; i--) {
 384:Lib/lvgl/src/misc/lv_text.c ****         txt_buf[i] = txt_buf[i - ins_len];
 385:Lib/lvgl/src/misc/lv_text.c ****     }
 386:Lib/lvgl/src/misc/lv_text.c **** 
 387:Lib/lvgl/src/misc/lv_text.c ****     /*Copy the text into the new space*/
 388:Lib/lvgl/src/misc/lv_text.c ****     lv_memcpy(txt_buf + pos, ins_txt, ins_len);
 389:Lib/lvgl/src/misc/lv_text.c **** }
 390:Lib/lvgl/src/misc/lv_text.c **** 
 391:Lib/lvgl/src/misc/lv_text.c **** void _lv_text_cut(char * txt, uint32_t pos, uint32_t len)
 392:Lib/lvgl/src/misc/lv_text.c **** {
 393:Lib/lvgl/src/misc/lv_text.c ****     if(txt == NULL) return;
 394:Lib/lvgl/src/misc/lv_text.c **** 
 395:Lib/lvgl/src/misc/lv_text.c ****     size_t old_len = lv_strlen(txt);
ARM GAS  C:\Users\Alex\AppData\Local\Temp\ccyCJmTC.s 			page 15


 396:Lib/lvgl/src/misc/lv_text.c **** 
 397:Lib/lvgl/src/misc/lv_text.c ****     pos = _lv_text_encoded_get_byte_id(txt, pos); /*Convert to byte index instead of letter index*/
 398:Lib/lvgl/src/misc/lv_text.c ****     len = _lv_text_encoded_get_byte_id(&txt[pos], len);
 399:Lib/lvgl/src/misc/lv_text.c **** 
 400:Lib/lvgl/src/misc/lv_text.c ****     /*Copy the second part into the end to make place to text to insert*/
 401:Lib/lvgl/src/misc/lv_text.c ****     uint32_t i;
 402:Lib/lvgl/src/misc/lv_text.c ****     for(i = pos; i <= old_len - len; i++) {
 403:Lib/lvgl/src/misc/lv_text.c ****         txt[i] = txt[i + len];
 404:Lib/lvgl/src/misc/lv_text.c ****     }
 405:Lib/lvgl/src/misc/lv_text.c **** }
 406:Lib/lvgl/src/misc/lv_text.c **** 
 407:Lib/lvgl/src/misc/lv_text.c **** char * _lv_text_set_text_vfmt(const char * fmt, va_list ap)
 408:Lib/lvgl/src/misc/lv_text.c **** {
 409:Lib/lvgl/src/misc/lv_text.c ****     /*Allocate space for the new text by using trick from C99 standard section 7.19.6.12*/
 410:Lib/lvgl/src/misc/lv_text.c ****     va_list ap_copy;
 411:Lib/lvgl/src/misc/lv_text.c ****     va_copy(ap_copy, ap);
 412:Lib/lvgl/src/misc/lv_text.c ****     uint32_t len = lv_vsnprintf(NULL, 0, fmt, ap_copy);
 413:Lib/lvgl/src/misc/lv_text.c ****     va_end(ap_copy);
 414:Lib/lvgl/src/misc/lv_text.c **** 
 415:Lib/lvgl/src/misc/lv_text.c ****     char * text = 0;
 416:Lib/lvgl/src/misc/lv_text.c **** #if LV_USE_ARABIC_PERSIAN_CHARS
 417:Lib/lvgl/src/misc/lv_text.c ****     /*Put together the text according to the format string*/
 418:Lib/lvgl/src/misc/lv_text.c ****     char * raw_txt = lv_malloc(len + 1);
 419:Lib/lvgl/src/misc/lv_text.c ****     LV_ASSERT_MALLOC(raw_txt);
 420:Lib/lvgl/src/misc/lv_text.c ****     if(raw_txt == NULL) {
 421:Lib/lvgl/src/misc/lv_text.c ****         return NULL;
 422:Lib/lvgl/src/misc/lv_text.c ****     }
 423:Lib/lvgl/src/misc/lv_text.c **** 
 424:Lib/lvgl/src/misc/lv_text.c ****     lv_vsnprintf(raw_txt, len + 1, fmt, ap);
 425:Lib/lvgl/src/misc/lv_text.c **** 
 426:Lib/lvgl/src/misc/lv_text.c ****     /*Get the size of the Arabic text and process it*/
 427:Lib/lvgl/src/misc/lv_text.c ****     size_t len_ap = _lv_text_ap_calc_bytes_count(raw_txt);
 428:Lib/lvgl/src/misc/lv_text.c ****     text = lv_malloc(len_ap + 1);
 429:Lib/lvgl/src/misc/lv_text.c ****     LV_ASSERT_MALLOC(text);
 430:Lib/lvgl/src/misc/lv_text.c ****     if(text == NULL) {
 431:Lib/lvgl/src/misc/lv_text.c ****         return NULL;
 432:Lib/lvgl/src/misc/lv_text.c ****     }
 433:Lib/lvgl/src/misc/lv_text.c ****     _lv_text_ap_proc(raw_txt, text);
 434:Lib/lvgl/src/misc/lv_text.c **** 
 435:Lib/lvgl/src/misc/lv_text.c ****     lv_free(raw_txt);
 436:Lib/lvgl/src/misc/lv_text.c **** #else
 437:Lib/lvgl/src/misc/lv_text.c ****     text = lv_malloc(len + 1);
 438:Lib/lvgl/src/misc/lv_text.c ****     LV_ASSERT_MALLOC(text);
 439:Lib/lvgl/src/misc/lv_text.c ****     if(text == NULL) {
 440:Lib/lvgl/src/misc/lv_text.c ****         return NULL;
 441:Lib/lvgl/src/misc/lv_text.c ****     }
 442:Lib/lvgl/src/misc/lv_text.c **** 
 443:Lib/lvgl/src/misc/lv_text.c ****     lv_vsnprintf(text, len + 1, fmt, ap);
 444:Lib/lvgl/src/misc/lv_text.c **** #endif
 445:Lib/lvgl/src/misc/lv_text.c **** 
 446:Lib/lvgl/src/misc/lv_text.c ****     return text;
 447:Lib/lvgl/src/misc/lv_text.c **** }
 448:Lib/lvgl/src/misc/lv_text.c **** 
 449:Lib/lvgl/src/misc/lv_text.c **** void _lv_text_encoded_letter_next_2(const char * txt, uint32_t * letter, uint32_t * letter_next, ui
 450:Lib/lvgl/src/misc/lv_text.c **** {
 451:Lib/lvgl/src/misc/lv_text.c ****     *letter = _lv_text_encoded_next(txt, ofs);
 452:Lib/lvgl/src/misc/lv_text.c ****     *letter_next = *letter != '\0' ? _lv_text_encoded_next(&txt[*ofs], NULL) : 0;
ARM GAS  C:\Users\Alex\AppData\Local\Temp\ccyCJmTC.s 			page 16


 453:Lib/lvgl/src/misc/lv_text.c **** }
 454:Lib/lvgl/src/misc/lv_text.c **** 
 455:Lib/lvgl/src/misc/lv_text.c **** #if LV_TXT_ENC == LV_TXT_ENC_UTF8
 456:Lib/lvgl/src/misc/lv_text.c **** /*******************************
 457:Lib/lvgl/src/misc/lv_text.c ****  *   UTF-8 ENCODER/DECODER
 458:Lib/lvgl/src/misc/lv_text.c ****  ******************************/
 459:Lib/lvgl/src/misc/lv_text.c **** 
 460:Lib/lvgl/src/misc/lv_text.c **** /**
 461:Lib/lvgl/src/misc/lv_text.c ****  * Give the size of an UTF-8 coded character
 462:Lib/lvgl/src/misc/lv_text.c ****  * @param str pointer to a character in a string
 463:Lib/lvgl/src/misc/lv_text.c ****  * @return length of the UTF-8 character (1,2,3 or 4), 0 on invalid code.
 464:Lib/lvgl/src/misc/lv_text.c ****  */
 465:Lib/lvgl/src/misc/lv_text.c **** static uint8_t lv_text_utf8_size(const char * str)
 466:Lib/lvgl/src/misc/lv_text.c **** {
 169              		.loc 1 466 1 is_stmt 1 view -0
 170              		.cfi_startproc
 171              		@ args = 0, pretend = 0, frame = 0
 172              		@ frame_needed = 0, uses_anonymous_args = 0
 173              		@ link register save eliminated.
 467:Lib/lvgl/src/misc/lv_text.c ****     if(LV_IS_ASCII(str[0]))
 174              		.loc 1 467 5 view .LVU48
 175              		.loc 1 467 8 is_stmt 0 view .LVU49
 176 0000 0378     		ldrb	r3, [r0]	@ zero_extendqisi2
 177 0002 90F90020 		ldrsb	r2, [r0]
 178              		.loc 1 467 7 view .LVU50
 179 0006 002A     		cmp	r2, #0
 180 0008 0DDA     		bge	.L14
 468:Lib/lvgl/src/misc/lv_text.c ****         return 1;
 469:Lib/lvgl/src/misc/lv_text.c ****     else if(LV_IS_2BYTES_UTF8_CODE(str[0]))
 181              		.loc 1 469 10 is_stmt 1 view .LVU51
 182              		.loc 1 469 12 is_stmt 0 view .LVU52
 183 000a 03F0E002 		and	r2, r3, #224
 184 000e C02A     		cmp	r2, #192
 185 0010 0BD0     		beq	.L15
 470:Lib/lvgl/src/misc/lv_text.c ****         return 2;
 471:Lib/lvgl/src/misc/lv_text.c ****     else if(LV_IS_3BYTES_UTF8_CODE(str[0]))
 186              		.loc 1 471 10 is_stmt 1 view .LVU53
 187              		.loc 1 471 12 is_stmt 0 view .LVU54
 188 0012 03F0F002 		and	r2, r3, #240
 189 0016 E02A     		cmp	r2, #224
 190 0018 09D0     		beq	.L16
 472:Lib/lvgl/src/misc/lv_text.c ****         return 3;
 473:Lib/lvgl/src/misc/lv_text.c ****     else if(LV_IS_4BYTES_UTF8_CODE(str[0]))
 191              		.loc 1 473 10 is_stmt 1 view .LVU55
 192              		.loc 1 473 12 is_stmt 0 view .LVU56
 193 001a 03F0F803 		and	r3, r3, #248
 194 001e F02B     		cmp	r3, #240
 195 0020 07D0     		beq	.L17
 474:Lib/lvgl/src/misc/lv_text.c ****         return 4;
 475:Lib/lvgl/src/misc/lv_text.c ****     return 0;
 196              		.loc 1 475 12 view .LVU57
 197 0022 0020     		movs	r0, #0
 198              	.LVL21:
 199              		.loc 1 475 12 view .LVU58
 200 0024 7047     		bx	lr
 201              	.LVL22:
 202              	.L14:
ARM GAS  C:\Users\Alex\AppData\Local\Temp\ccyCJmTC.s 			page 17


 468:Lib/lvgl/src/misc/lv_text.c ****     else if(LV_IS_2BYTES_UTF8_CODE(str[0]))
 203              		.loc 1 468 16 view .LVU59
 204 0026 0120     		movs	r0, #1
 205              	.LVL23:
 468:Lib/lvgl/src/misc/lv_text.c ****     else if(LV_IS_2BYTES_UTF8_CODE(str[0]))
 206              		.loc 1 468 16 view .LVU60
 207 0028 7047     		bx	lr
 208              	.LVL24:
 209              	.L15:
 470:Lib/lvgl/src/misc/lv_text.c ****     else if(LV_IS_3BYTES_UTF8_CODE(str[0]))
 210              		.loc 1 470 16 view .LVU61
 211 002a 0220     		movs	r0, #2
 212              	.LVL25:
 470:Lib/lvgl/src/misc/lv_text.c ****     else if(LV_IS_3BYTES_UTF8_CODE(str[0]))
 213              		.loc 1 470 16 view .LVU62
 214 002c 7047     		bx	lr
 215              	.LVL26:
 216              	.L16:
 472:Lib/lvgl/src/misc/lv_text.c ****     else if(LV_IS_4BYTES_UTF8_CODE(str[0]))
 217              		.loc 1 472 16 view .LVU63
 218 002e 0320     		movs	r0, #3
 219              	.LVL27:
 472:Lib/lvgl/src/misc/lv_text.c ****     else if(LV_IS_4BYTES_UTF8_CODE(str[0]))
 220              		.loc 1 472 16 view .LVU64
 221 0030 7047     		bx	lr
 222              	.LVL28:
 223              	.L17:
 474:Lib/lvgl/src/misc/lv_text.c ****     return 0;
 224              		.loc 1 474 16 view .LVU65
 225 0032 0420     		movs	r0, #4
 226              	.LVL29:
 476:Lib/lvgl/src/misc/lv_text.c **** }
 227              		.loc 1 476 1 view .LVU66
 228 0034 7047     		bx	lr
 229              		.cfi_endproc
 230              	.LFE90:
 232              		.section	.text.lv_text_unicode_to_utf8,"ax",%progbits
 233              		.align	1
 234              		.syntax unified
 235              		.thumb
 236              		.thumb_func
 238              	lv_text_unicode_to_utf8:
 239              	.LVL30:
 240              	.LFB91:
 477:Lib/lvgl/src/misc/lv_text.c **** 
 478:Lib/lvgl/src/misc/lv_text.c **** /**
 479:Lib/lvgl/src/misc/lv_text.c ****  * Convert a Unicode letter to UTF-8.
 480:Lib/lvgl/src/misc/lv_text.c ****  * @param letter_uni a Unicode letter
 481:Lib/lvgl/src/misc/lv_text.c ****  * @return UTF-8 coded character in Little Endian to be compatible with C chars (e.g. 'Ã', 'Å°')
 482:Lib/lvgl/src/misc/lv_text.c ****  */
 483:Lib/lvgl/src/misc/lv_text.c **** static uint32_t lv_text_unicode_to_utf8(uint32_t letter_uni)
 484:Lib/lvgl/src/misc/lv_text.c **** {
 241              		.loc 1 484 1 is_stmt 1 view -0
 242              		.cfi_startproc
 243              		@ args = 0, pretend = 0, frame = 8
 244              		@ frame_needed = 0, uses_anonymous_args = 0
 245              		@ link register save eliminated.
ARM GAS  C:\Users\Alex\AppData\Local\Temp\ccyCJmTC.s 			page 18


 485:Lib/lvgl/src/misc/lv_text.c ****     if(letter_uni < 128) return letter_uni;
 246              		.loc 1 485 5 view .LVU68
 247              		.loc 1 485 7 is_stmt 0 view .LVU69
 248 0000 7F28     		cmp	r0, #127
 249 0002 4ED9     		bls	.L26
 484:Lib/lvgl/src/misc/lv_text.c ****     if(letter_uni < 128) return letter_uni;
 250              		.loc 1 484 1 view .LVU70
 251 0004 82B0     		sub	sp, sp, #8
 252              	.LCFI0:
 253              		.cfi_def_cfa_offset 8
 486:Lib/lvgl/src/misc/lv_text.c ****     uint8_t bytes[4];
 254              		.loc 1 486 5 is_stmt 1 view .LVU71
 487:Lib/lvgl/src/misc/lv_text.c **** 
 488:Lib/lvgl/src/misc/lv_text.c ****     if(letter_uni < 0x0800) {
 255              		.loc 1 488 5 view .LVU72
 256              		.loc 1 488 7 is_stmt 0 view .LVU73
 257 0006 B0F5006F 		cmp	r0, #2048
 258 000a 13D2     		bcs	.L20
 489:Lib/lvgl/src/misc/lv_text.c ****         bytes[0] = ((letter_uni >> 6) & 0x1F) | 0xC0;
 259              		.loc 1 489 9 is_stmt 1 view .LVU74
 260              		.loc 1 489 39 is_stmt 0 view .LVU75
 261 000c C0F38413 		ubfx	r3, r0, #6, #5
 262              		.loc 1 489 47 view .LVU76
 263 0010 43F0C003 		orr	r3, r3, #192
 264              		.loc 1 489 18 view .LVU77
 265 0014 8DF80430 		strb	r3, [sp, #4]
 490:Lib/lvgl/src/misc/lv_text.c ****         bytes[1] = ((letter_uni >> 0) & 0x3F) | 0x80;
 266              		.loc 1 490 9 is_stmt 1 view .LVU78
 267              		.loc 1 490 39 is_stmt 0 view .LVU79
 268 0018 00F03F00 		and	r0, r0, #63
 269              	.LVL31:
 270              		.loc 1 490 47 view .LVU80
 271 001c 40F08000 		orr	r0, r0, #128
 272              		.loc 1 490 18 view .LVU81
 273 0020 8DF80500 		strb	r0, [sp, #5]
 491:Lib/lvgl/src/misc/lv_text.c ****         bytes[2] = 0;
 274              		.loc 1 491 9 is_stmt 1 view .LVU82
 275              		.loc 1 491 18 is_stmt 0 view .LVU83
 276 0024 0023     		movs	r3, #0
 277 0026 8DF80630 		strb	r3, [sp, #6]
 492:Lib/lvgl/src/misc/lv_text.c ****         bytes[3] = 0;
 278              		.loc 1 492 9 is_stmt 1 view .LVU84
 279              		.loc 1 492 18 is_stmt 0 view .LVU85
 280 002a 8DF80730 		strb	r3, [sp, #7]
 281              	.L21:
 493:Lib/lvgl/src/misc/lv_text.c ****     }
 494:Lib/lvgl/src/misc/lv_text.c ****     else if(letter_uni < 0x010000) {
 495:Lib/lvgl/src/misc/lv_text.c ****         bytes[0] = ((letter_uni >> 12) & 0x0F) | 0xE0;
 496:Lib/lvgl/src/misc/lv_text.c ****         bytes[1] = ((letter_uni >> 6) & 0x3F) | 0x80;
 497:Lib/lvgl/src/misc/lv_text.c ****         bytes[2] = ((letter_uni >> 0) & 0x3F) | 0x80;
 498:Lib/lvgl/src/misc/lv_text.c ****         bytes[3] = 0;
 499:Lib/lvgl/src/misc/lv_text.c ****     }
 500:Lib/lvgl/src/misc/lv_text.c ****     else if(letter_uni < 0x110000) {
 501:Lib/lvgl/src/misc/lv_text.c ****         bytes[0] = ((letter_uni >> 18) & 0x07) | 0xF0;
 502:Lib/lvgl/src/misc/lv_text.c ****         bytes[1] = ((letter_uni >> 12) & 0x3F) | 0x80;
 503:Lib/lvgl/src/misc/lv_text.c ****         bytes[2] = ((letter_uni >> 6) & 0x3F) | 0x80;
 504:Lib/lvgl/src/misc/lv_text.c ****         bytes[3] = ((letter_uni >> 0) & 0x3F) | 0x80;
ARM GAS  C:\Users\Alex\AppData\Local\Temp\ccyCJmTC.s 			page 19


 505:Lib/lvgl/src/misc/lv_text.c ****     }
 506:Lib/lvgl/src/misc/lv_text.c ****     else {
 507:Lib/lvgl/src/misc/lv_text.c ****         return 0;
 508:Lib/lvgl/src/misc/lv_text.c ****     }
 509:Lib/lvgl/src/misc/lv_text.c **** 
 510:Lib/lvgl/src/misc/lv_text.c ****     uint32_t * res_p = (uint32_t *)bytes;
 282              		.loc 1 510 5 is_stmt 1 view .LVU86
 283              	.LVL32:
 511:Lib/lvgl/src/misc/lv_text.c ****     return *res_p;
 284              		.loc 1 511 5 view .LVU87
 285              		.loc 1 511 12 is_stmt 0 view .LVU88
 286 002e 0198     		ldr	r0, [sp, #4]
 287              	.LVL33:
 288              	.L18:
 512:Lib/lvgl/src/misc/lv_text.c **** }
 289              		.loc 1 512 1 view .LVU89
 290 0030 02B0     		add	sp, sp, #8
 291              	.LCFI1:
 292              		.cfi_remember_state
 293              		.cfi_def_cfa_offset 0
 294              		@ sp needed
 295 0032 7047     		bx	lr
 296              	.LVL34:
 297              	.L20:
 298              	.LCFI2:
 299              		.cfi_restore_state
 494:Lib/lvgl/src/misc/lv_text.c ****         bytes[0] = ((letter_uni >> 12) & 0x0F) | 0xE0;
 300              		.loc 1 494 10 is_stmt 1 view .LVU90
 494:Lib/lvgl/src/misc/lv_text.c ****         bytes[0] = ((letter_uni >> 12) & 0x0F) | 0xE0;
 301              		.loc 1 494 12 is_stmt 0 view .LVU91
 302 0034 B0F5803F 		cmp	r0, #65536
 303 0038 15D2     		bcs	.L22
 495:Lib/lvgl/src/misc/lv_text.c ****         bytes[1] = ((letter_uni >> 6) & 0x3F) | 0x80;
 304              		.loc 1 495 9 is_stmt 1 view .LVU92
 495:Lib/lvgl/src/misc/lv_text.c ****         bytes[1] = ((letter_uni >> 6) & 0x3F) | 0x80;
 305              		.loc 1 495 40 is_stmt 0 view .LVU93
 306 003a C0F30333 		ubfx	r3, r0, #12, #4
 495:Lib/lvgl/src/misc/lv_text.c ****         bytes[1] = ((letter_uni >> 6) & 0x3F) | 0x80;
 307              		.loc 1 495 48 view .LVU94
 308 003e 43F0E003 		orr	r3, r3, #224
 495:Lib/lvgl/src/misc/lv_text.c ****         bytes[1] = ((letter_uni >> 6) & 0x3F) | 0x80;
 309              		.loc 1 495 18 view .LVU95
 310 0042 8DF80430 		strb	r3, [sp, #4]
 496:Lib/lvgl/src/misc/lv_text.c ****         bytes[2] = ((letter_uni >> 0) & 0x3F) | 0x80;
 311              		.loc 1 496 9 is_stmt 1 view .LVU96
 496:Lib/lvgl/src/misc/lv_text.c ****         bytes[2] = ((letter_uni >> 0) & 0x3F) | 0x80;
 312              		.loc 1 496 39 is_stmt 0 view .LVU97
 313 0046 C0F38513 		ubfx	r3, r0, #6, #6
 496:Lib/lvgl/src/misc/lv_text.c ****         bytes[2] = ((letter_uni >> 0) & 0x3F) | 0x80;
 314              		.loc 1 496 47 view .LVU98
 315 004a 43F08003 		orr	r3, r3, #128
 496:Lib/lvgl/src/misc/lv_text.c ****         bytes[2] = ((letter_uni >> 0) & 0x3F) | 0x80;
 316              		.loc 1 496 18 view .LVU99
 317 004e 8DF80530 		strb	r3, [sp, #5]
 497:Lib/lvgl/src/misc/lv_text.c ****         bytes[3] = 0;
 318              		.loc 1 497 9 is_stmt 1 view .LVU100
 497:Lib/lvgl/src/misc/lv_text.c ****         bytes[3] = 0;
ARM GAS  C:\Users\Alex\AppData\Local\Temp\ccyCJmTC.s 			page 20


 319              		.loc 1 497 39 is_stmt 0 view .LVU101
 320 0052 00F03F00 		and	r0, r0, #63
 321              	.LVL35:
 497:Lib/lvgl/src/misc/lv_text.c ****         bytes[3] = 0;
 322              		.loc 1 497 47 view .LVU102
 323 0056 40F08000 		orr	r0, r0, #128
 497:Lib/lvgl/src/misc/lv_text.c ****         bytes[3] = 0;
 324              		.loc 1 497 18 view .LVU103
 325 005a 8DF80600 		strb	r0, [sp, #6]
 498:Lib/lvgl/src/misc/lv_text.c ****     }
 326              		.loc 1 498 9 is_stmt 1 view .LVU104
 498:Lib/lvgl/src/misc/lv_text.c ****     }
 327              		.loc 1 498 18 is_stmt 0 view .LVU105
 328 005e 0023     		movs	r3, #0
 329 0060 8DF80730 		strb	r3, [sp, #7]
 330 0064 E3E7     		b	.L21
 331              	.LVL36:
 332              	.L22:
 500:Lib/lvgl/src/misc/lv_text.c ****         bytes[0] = ((letter_uni >> 18) & 0x07) | 0xF0;
 333              		.loc 1 500 10 is_stmt 1 view .LVU106
 500:Lib/lvgl/src/misc/lv_text.c ****         bytes[0] = ((letter_uni >> 18) & 0x07) | 0xF0;
 334              		.loc 1 500 12 is_stmt 0 view .LVU107
 335 0066 B0F5881F 		cmp	r0, #1114112
 336 006a 18D2     		bcs	.L24
 501:Lib/lvgl/src/misc/lv_text.c ****         bytes[1] = ((letter_uni >> 12) & 0x3F) | 0x80;
 337              		.loc 1 501 9 is_stmt 1 view .LVU108
 501:Lib/lvgl/src/misc/lv_text.c ****         bytes[1] = ((letter_uni >> 12) & 0x3F) | 0x80;
 338              		.loc 1 501 40 is_stmt 0 view .LVU109
 339 006c C0F38243 		ubfx	r3, r0, #18, #3
 501:Lib/lvgl/src/misc/lv_text.c ****         bytes[1] = ((letter_uni >> 12) & 0x3F) | 0x80;
 340              		.loc 1 501 48 view .LVU110
 341 0070 43F0F003 		orr	r3, r3, #240
 501:Lib/lvgl/src/misc/lv_text.c ****         bytes[1] = ((letter_uni >> 12) & 0x3F) | 0x80;
 342              		.loc 1 501 18 view .LVU111
 343 0074 8DF80430 		strb	r3, [sp, #4]
 502:Lib/lvgl/src/misc/lv_text.c ****         bytes[2] = ((letter_uni >> 6) & 0x3F) | 0x80;
 344              		.loc 1 502 9 is_stmt 1 view .LVU112
 502:Lib/lvgl/src/misc/lv_text.c ****         bytes[2] = ((letter_uni >> 6) & 0x3F) | 0x80;
 345              		.loc 1 502 40 is_stmt 0 view .LVU113
 346 0078 C0F30533 		ubfx	r3, r0, #12, #6
 502:Lib/lvgl/src/misc/lv_text.c ****         bytes[2] = ((letter_uni >> 6) & 0x3F) | 0x80;
 347              		.loc 1 502 48 view .LVU114
 348 007c 43F08003 		orr	r3, r3, #128
 502:Lib/lvgl/src/misc/lv_text.c ****         bytes[2] = ((letter_uni >> 6) & 0x3F) | 0x80;
 349              		.loc 1 502 18 view .LVU115
 350 0080 8DF80530 		strb	r3, [sp, #5]
 503:Lib/lvgl/src/misc/lv_text.c ****         bytes[3] = ((letter_uni >> 0) & 0x3F) | 0x80;
 351              		.loc 1 503 9 is_stmt 1 view .LVU116
 503:Lib/lvgl/src/misc/lv_text.c ****         bytes[3] = ((letter_uni >> 0) & 0x3F) | 0x80;
 352              		.loc 1 503 39 is_stmt 0 view .LVU117
 353 0084 C0F38513 		ubfx	r3, r0, #6, #6
 503:Lib/lvgl/src/misc/lv_text.c ****         bytes[3] = ((letter_uni >> 0) & 0x3F) | 0x80;
 354              		.loc 1 503 47 view .LVU118
 355 0088 43F08003 		orr	r3, r3, #128
 503:Lib/lvgl/src/misc/lv_text.c ****         bytes[3] = ((letter_uni >> 0) & 0x3F) | 0x80;
 356              		.loc 1 503 18 view .LVU119
 357 008c 8DF80630 		strb	r3, [sp, #6]
ARM GAS  C:\Users\Alex\AppData\Local\Temp\ccyCJmTC.s 			page 21


 504:Lib/lvgl/src/misc/lv_text.c ****     }
 358              		.loc 1 504 9 is_stmt 1 view .LVU120
 504:Lib/lvgl/src/misc/lv_text.c ****     }
 359              		.loc 1 504 39 is_stmt 0 view .LVU121
 360 0090 00F03F00 		and	r0, r0, #63
 361              	.LVL37:
 504:Lib/lvgl/src/misc/lv_text.c ****     }
 362              		.loc 1 504 47 view .LVU122
 363 0094 40F08000 		orr	r0, r0, #128
 504:Lib/lvgl/src/misc/lv_text.c ****     }
 364              		.loc 1 504 18 view .LVU123
 365 0098 8DF80700 		strb	r0, [sp, #7]
 366 009c C7E7     		b	.L21
 367              	.LVL38:
 368              	.L24:
 507:Lib/lvgl/src/misc/lv_text.c ****     }
 369              		.loc 1 507 16 view .LVU124
 370 009e 0020     		movs	r0, #0
 371              	.LVL39:
 507:Lib/lvgl/src/misc/lv_text.c ****     }
 372              		.loc 1 507 16 view .LVU125
 373 00a0 C6E7     		b	.L18
 374              	.LVL40:
 375              	.L26:
 376              	.LCFI3:
 377              		.cfi_def_cfa_offset 0
 378              		.loc 1 512 1 view .LVU126
 379 00a2 7047     		bx	lr
 380              		.cfi_endproc
 381              	.LFE91:
 383              		.section	.text.lv_text_utf8_next,"ax",%progbits
 384              		.align	1
 385              		.syntax unified
 386              		.thumb
 387              		.thumb_func
 389              	lv_text_utf8_next:
 390              	.LVL41:
 391              	.LFB93:
 513:Lib/lvgl/src/misc/lv_text.c **** 
 514:Lib/lvgl/src/misc/lv_text.c **** /**
 515:Lib/lvgl/src/misc/lv_text.c ****  * Convert a wide character, e.g. 'Ã' little endian to be UTF-8 compatible
 516:Lib/lvgl/src/misc/lv_text.c ****  * @param c a wide character or a  Little endian number
 517:Lib/lvgl/src/misc/lv_text.c ****  * @return `c` in big endian
 518:Lib/lvgl/src/misc/lv_text.c ****  */
 519:Lib/lvgl/src/misc/lv_text.c **** static uint32_t lv_text_utf8_conv_wc(uint32_t c)
 520:Lib/lvgl/src/misc/lv_text.c **** {
 521:Lib/lvgl/src/misc/lv_text.c **** #if LV_BIG_ENDIAN_SYSTEM == 0
 522:Lib/lvgl/src/misc/lv_text.c ****     /*Swap the bytes (UTF-8 is big endian, but the MCUs are little endian)*/
 523:Lib/lvgl/src/misc/lv_text.c ****     if((c & 0x80) != 0) {
 524:Lib/lvgl/src/misc/lv_text.c ****         uint32_t swapped;
 525:Lib/lvgl/src/misc/lv_text.c ****         uint8_t c8[4];
 526:Lib/lvgl/src/misc/lv_text.c ****         lv_memcpy(c8, &c, 4);
 527:Lib/lvgl/src/misc/lv_text.c ****         swapped = (c8[0] << 24) + (c8[1] << 16) + (c8[2] << 8) + (c8[3]);
 528:Lib/lvgl/src/misc/lv_text.c ****         uint8_t i;
 529:Lib/lvgl/src/misc/lv_text.c ****         for(i = 0; i < 4; i++) {
 530:Lib/lvgl/src/misc/lv_text.c ****             if((swapped & 0xFF) == 0)
 531:Lib/lvgl/src/misc/lv_text.c ****                 swapped = (swapped >> 8); /*Ignore leading zeros (they were in the end originally)*
ARM GAS  C:\Users\Alex\AppData\Local\Temp\ccyCJmTC.s 			page 22


 532:Lib/lvgl/src/misc/lv_text.c ****         }
 533:Lib/lvgl/src/misc/lv_text.c ****         c = swapped;
 534:Lib/lvgl/src/misc/lv_text.c ****     }
 535:Lib/lvgl/src/misc/lv_text.c **** #endif
 536:Lib/lvgl/src/misc/lv_text.c ****     return c;
 537:Lib/lvgl/src/misc/lv_text.c **** }
 538:Lib/lvgl/src/misc/lv_text.c **** 
 539:Lib/lvgl/src/misc/lv_text.c **** /**
 540:Lib/lvgl/src/misc/lv_text.c ****  * Decode an UTF-8 character from a string.
 541:Lib/lvgl/src/misc/lv_text.c ****  * @param txt pointer to '\0' terminated string
 542:Lib/lvgl/src/misc/lv_text.c ****  * @param i start byte index in 'txt' where to start.
 543:Lib/lvgl/src/misc/lv_text.c ****  *          After call it will point to the next UTF-8 char in 'txt'.
 544:Lib/lvgl/src/misc/lv_text.c ****  *          NULL to use txt[0] as index
 545:Lib/lvgl/src/misc/lv_text.c ****  * @return the decoded Unicode character or 0 on invalid UTF-8 code
 546:Lib/lvgl/src/misc/lv_text.c ****  */
 547:Lib/lvgl/src/misc/lv_text.c **** static uint32_t lv_text_utf8_next(const char * txt, uint32_t * i)
 548:Lib/lvgl/src/misc/lv_text.c **** {
 392              		.loc 1 548 1 is_stmt 1 view -0
 393              		.cfi_startproc
 394              		@ args = 0, pretend = 0, frame = 8
 395              		@ frame_needed = 0, uses_anonymous_args = 0
 396              		.loc 1 548 1 is_stmt 0 view .LVU128
 397 0000 00B5     		push	{lr}
 398              	.LCFI4:
 399              		.cfi_def_cfa_offset 4
 400              		.cfi_offset 14, -4
 401 0002 83B0     		sub	sp, sp, #12
 402              	.LCFI5:
 403              		.cfi_def_cfa_offset 16
 404 0004 8646     		mov	lr, r0
 549:Lib/lvgl/src/misc/lv_text.c ****     /**
 550:Lib/lvgl/src/misc/lv_text.c ****      * Unicode to UTF-8
 551:Lib/lvgl/src/misc/lv_text.c ****      * 00000000 00000000 00000000 0xxxxxxx -> 0xxxxxxx
 552:Lib/lvgl/src/misc/lv_text.c ****      * 00000000 00000000 00000yyy yyxxxxxx -> 110yyyyy 10xxxxxx
 553:Lib/lvgl/src/misc/lv_text.c ****      * 00000000 00000000 zzzzyyyy yyxxxxxx -> 1110zzzz 10yyyyyy 10xxxxxx
 554:Lib/lvgl/src/misc/lv_text.c ****      * 00000000 000wwwzz zzzzyyyy yyxxxxxx -> 11110www 10zzzzzz 10yyyyyy 10xxxxxx
 555:Lib/lvgl/src/misc/lv_text.c ****      */
 556:Lib/lvgl/src/misc/lv_text.c **** 
 557:Lib/lvgl/src/misc/lv_text.c ****     uint32_t result = 0;
 405              		.loc 1 557 5 is_stmt 1 view .LVU129
 406              	.LVL42:
 558:Lib/lvgl/src/misc/lv_text.c **** 
 559:Lib/lvgl/src/misc/lv_text.c ****     /*Dummy 'i' pointer is required*/
 560:Lib/lvgl/src/misc/lv_text.c ****     uint32_t i_tmp = 0;
 407              		.loc 1 560 5 view .LVU130
 408              		.loc 1 560 14 is_stmt 0 view .LVU131
 409 0006 0023     		movs	r3, #0
 410 0008 0193     		str	r3, [sp, #4]
 561:Lib/lvgl/src/misc/lv_text.c ****     if(i == NULL) i = &i_tmp;
 411              		.loc 1 561 5 is_stmt 1 view .LVU132
 412              		.loc 1 561 7 is_stmt 0 view .LVU133
 413 000a 8C46     		mov	ip, r1
 414 000c 69B1     		cbz	r1, .L44
 415              	.L30:
 416              	.LVL43:
 562:Lib/lvgl/src/misc/lv_text.c **** 
 563:Lib/lvgl/src/misc/lv_text.c ****     /*Normal ASCII*/
ARM GAS  C:\Users\Alex\AppData\Local\Temp\ccyCJmTC.s 			page 23


 564:Lib/lvgl/src/misc/lv_text.c ****     if(LV_IS_ASCII(txt[*i])) {
 417              		.loc 1 564 5 is_stmt 1 view .LVU134
 418              		.loc 1 564 8 is_stmt 0 view .LVU135
 419 000e DCF80020 		ldr	r2, [ip]
 420 0012 1EF80200 		ldrb	r0, [lr, r2]	@ zero_extendqisi2
 421              	.LVL44:
 422              		.loc 1 564 8 view .LVU136
 423 0016 1EF90230 		ldrsb	r3, [lr, r2]
 424              		.loc 1 564 7 view .LVU137
 425 001a 002B     		cmp	r3, #0
 426 001c 08DB     		blt	.L31
 565:Lib/lvgl/src/misc/lv_text.c ****         result = txt[*i];
 427              		.loc 1 565 9 is_stmt 1 view .LVU138
 428              	.LVL45:
 566:Lib/lvgl/src/misc/lv_text.c ****         (*i)++;
 429              		.loc 1 566 9 view .LVU139
 430              		.loc 1 566 13 is_stmt 0 view .LVU140
 431 001e 0132     		adds	r2, r2, #1
 432 0020 CCF80020 		str	r2, [ip]
 433              	.LVL46:
 434              	.L29:
 567:Lib/lvgl/src/misc/lv_text.c ****     }
 568:Lib/lvgl/src/misc/lv_text.c ****     /*Real UTF-8 decode*/
 569:Lib/lvgl/src/misc/lv_text.c ****     else {
 570:Lib/lvgl/src/misc/lv_text.c ****         /*2 bytes UTF-8 code*/
 571:Lib/lvgl/src/misc/lv_text.c ****         if(LV_IS_2BYTES_UTF8_CODE(txt[*i])) {
 572:Lib/lvgl/src/misc/lv_text.c ****             result = (uint32_t)(txt[*i] & 0x1F) << 6;
 573:Lib/lvgl/src/misc/lv_text.c ****             (*i)++;
 574:Lib/lvgl/src/misc/lv_text.c ****             if(LV_IS_INVALID_UTF8_CODE(txt[*i])) return 0;
 575:Lib/lvgl/src/misc/lv_text.c ****             result += (txt[*i] & 0x3F);
 576:Lib/lvgl/src/misc/lv_text.c ****             (*i)++;
 577:Lib/lvgl/src/misc/lv_text.c ****         }
 578:Lib/lvgl/src/misc/lv_text.c ****         /*3 bytes UTF-8 code*/
 579:Lib/lvgl/src/misc/lv_text.c ****         else if(LV_IS_3BYTES_UTF8_CODE(txt[*i])) {
 580:Lib/lvgl/src/misc/lv_text.c ****             result = (uint32_t)(txt[*i] & 0x0F) << 12;
 581:Lib/lvgl/src/misc/lv_text.c ****             (*i)++;
 582:Lib/lvgl/src/misc/lv_text.c **** 
 583:Lib/lvgl/src/misc/lv_text.c ****             if(LV_IS_INVALID_UTF8_CODE(txt[*i])) return 0;
 584:Lib/lvgl/src/misc/lv_text.c ****             result += (uint32_t)(txt[*i] & 0x3F) << 6;
 585:Lib/lvgl/src/misc/lv_text.c ****             (*i)++;
 586:Lib/lvgl/src/misc/lv_text.c **** 
 587:Lib/lvgl/src/misc/lv_text.c ****             if(LV_IS_INVALID_UTF8_CODE(txt[*i])) return 0;
 588:Lib/lvgl/src/misc/lv_text.c ****             result += (txt[*i] & 0x3F);
 589:Lib/lvgl/src/misc/lv_text.c ****             (*i)++;
 590:Lib/lvgl/src/misc/lv_text.c ****         }
 591:Lib/lvgl/src/misc/lv_text.c ****         /*4 bytes UTF-8 code*/
 592:Lib/lvgl/src/misc/lv_text.c ****         else if(LV_IS_4BYTES_UTF8_CODE(txt[*i])) {
 593:Lib/lvgl/src/misc/lv_text.c ****             result = (uint32_t)(txt[*i] & 0x07) << 18;
 594:Lib/lvgl/src/misc/lv_text.c ****             (*i)++;
 595:Lib/lvgl/src/misc/lv_text.c **** 
 596:Lib/lvgl/src/misc/lv_text.c ****             if(LV_IS_INVALID_UTF8_CODE(txt[*i])) return 0;
 597:Lib/lvgl/src/misc/lv_text.c ****             result += (uint32_t)(txt[*i] & 0x3F) << 12;
 598:Lib/lvgl/src/misc/lv_text.c ****             (*i)++;
 599:Lib/lvgl/src/misc/lv_text.c **** 
 600:Lib/lvgl/src/misc/lv_text.c ****             if(LV_IS_INVALID_UTF8_CODE(txt[*i])) return 0;
 601:Lib/lvgl/src/misc/lv_text.c ****             result += (uint32_t)(txt[*i] & 0x3F) << 6;
 602:Lib/lvgl/src/misc/lv_text.c ****             (*i)++;
ARM GAS  C:\Users\Alex\AppData\Local\Temp\ccyCJmTC.s 			page 24


 603:Lib/lvgl/src/misc/lv_text.c **** 
 604:Lib/lvgl/src/misc/lv_text.c ****             if(LV_IS_INVALID_UTF8_CODE(txt[*i])) return 0;
 605:Lib/lvgl/src/misc/lv_text.c ****             result += txt[*i] & 0x3F;
 606:Lib/lvgl/src/misc/lv_text.c ****             (*i)++;
 607:Lib/lvgl/src/misc/lv_text.c ****         }
 608:Lib/lvgl/src/misc/lv_text.c ****         else {
 609:Lib/lvgl/src/misc/lv_text.c ****             (*i)++; /*Not UTF-8 char. Go the next.*/
 610:Lib/lvgl/src/misc/lv_text.c ****         }
 611:Lib/lvgl/src/misc/lv_text.c ****     }
 612:Lib/lvgl/src/misc/lv_text.c ****     return result;
 613:Lib/lvgl/src/misc/lv_text.c **** }
 435              		.loc 1 613 1 view .LVU141
 436 0024 03B0     		add	sp, sp, #12
 437              	.LCFI6:
 438              		.cfi_remember_state
 439              		.cfi_def_cfa_offset 4
 440              		@ sp needed
 441 0026 5DF804FB 		ldr	pc, [sp], #4
 442              	.LVL47:
 443              	.L44:
 444              	.LCFI7:
 445              		.cfi_restore_state
 561:Lib/lvgl/src/misc/lv_text.c **** 
 446              		.loc 1 561 21 view .LVU142
 447 002a 0DF1040C 		add	ip, sp, #4
 448 002e EEE7     		b	.L30
 449              	.LVL48:
 450              	.L31:
 571:Lib/lvgl/src/misc/lv_text.c ****             result = (uint32_t)(txt[*i] & 0x1F) << 6;
 451              		.loc 1 571 9 is_stmt 1 view .LVU143
 571:Lib/lvgl/src/misc/lv_text.c ****             result = (uint32_t)(txt[*i] & 0x1F) << 6;
 452              		.loc 1 571 11 is_stmt 0 view .LVU144
 453 0030 00F0E003 		and	r3, r0, #224
 454 0034 C02B     		cmp	r3, #192
 455 0036 0CD0     		beq	.L45
 579:Lib/lvgl/src/misc/lv_text.c ****             result = (uint32_t)(txt[*i] & 0x0F) << 12;
 456              		.loc 1 579 14 is_stmt 1 view .LVU145
 579:Lib/lvgl/src/misc/lv_text.c ****             result = (uint32_t)(txt[*i] & 0x0F) << 12;
 457              		.loc 1 579 16 is_stmt 0 view .LVU146
 458 0038 00F0F003 		and	r3, r0, #240
 459 003c E02B     		cmp	r3, #224
 460 003e 1BD0     		beq	.L46
 592:Lib/lvgl/src/misc/lv_text.c ****             result = (uint32_t)(txt[*i] & 0x07) << 18;
 461              		.loc 1 592 14 is_stmt 1 view .LVU147
 592:Lib/lvgl/src/misc/lv_text.c ****             result = (uint32_t)(txt[*i] & 0x07) << 18;
 462              		.loc 1 592 16 is_stmt 0 view .LVU148
 463 0040 00F0F803 		and	r3, r0, #248
 464 0044 F02B     		cmp	r3, #240
 465 0046 36D0     		beq	.L47
 609:Lib/lvgl/src/misc/lv_text.c ****         }
 466              		.loc 1 609 13 is_stmt 1 view .LVU149
 609:Lib/lvgl/src/misc/lv_text.c ****         }
 467              		.loc 1 609 17 is_stmt 0 view .LVU150
 468 0048 0132     		adds	r2, r2, #1
 469 004a CCF80020 		str	r2, [ip]
 557:Lib/lvgl/src/misc/lv_text.c **** 
 470              		.loc 1 557 14 view .LVU151
ARM GAS  C:\Users\Alex\AppData\Local\Temp\ccyCJmTC.s 			page 25


 471 004e 0020     		movs	r0, #0
 472 0050 E8E7     		b	.L29
 473              	.L45:
 572:Lib/lvgl/src/misc/lv_text.c ****             (*i)++;
 474              		.loc 1 572 13 is_stmt 1 view .LVU152
 572:Lib/lvgl/src/misc/lv_text.c ****             (*i)++;
 475              		.loc 1 572 49 is_stmt 0 view .LVU153
 476 0052 8301     		lsls	r3, r0, #6
 572:Lib/lvgl/src/misc/lv_text.c ****             (*i)++;
 477              		.loc 1 572 20 view .LVU154
 478 0054 03F4F863 		and	r3, r3, #1984
 479              	.LVL49:
 573:Lib/lvgl/src/misc/lv_text.c ****             if(LV_IS_INVALID_UTF8_CODE(txt[*i])) return 0;
 480              		.loc 1 573 13 is_stmt 1 view .LVU155
 573:Lib/lvgl/src/misc/lv_text.c ****             if(LV_IS_INVALID_UTF8_CODE(txt[*i])) return 0;
 481              		.loc 1 573 17 is_stmt 0 view .LVU156
 482 0058 511C     		adds	r1, r2, #1
 483 005a CCF80010 		str	r1, [ip]
 574:Lib/lvgl/src/misc/lv_text.c ****             result += (txt[*i] & 0x3F);
 484              		.loc 1 574 13 is_stmt 1 view .LVU157
 574:Lib/lvgl/src/misc/lv_text.c ****             result += (txt[*i] & 0x3F);
 485              		.loc 1 574 16 is_stmt 0 view .LVU158
 486 005e 1EF80110 		ldrb	r1, [lr, r1]	@ zero_extendqisi2
 574:Lib/lvgl/src/misc/lv_text.c ****             result += (txt[*i] & 0x3F);
 487              		.loc 1 574 15 view .LVU159
 488 0062 01F0C000 		and	r0, r1, #192
 489 0066 8028     		cmp	r0, #128
 490 0068 52D1     		bne	.L37
 575:Lib/lvgl/src/misc/lv_text.c ****             (*i)++;
 491              		.loc 1 575 13 is_stmt 1 view .LVU160
 575:Lib/lvgl/src/misc/lv_text.c ****             (*i)++;
 492              		.loc 1 575 32 is_stmt 0 view .LVU161
 493 006a 01F03F01 		and	r1, r1, #63
 575:Lib/lvgl/src/misc/lv_text.c ****             (*i)++;
 494              		.loc 1 575 20 view .LVU162
 495 006e C818     		adds	r0, r1, r3
 496              	.LVL50:
 576:Lib/lvgl/src/misc/lv_text.c ****         }
 497              		.loc 1 576 13 is_stmt 1 view .LVU163
 576:Lib/lvgl/src/misc/lv_text.c ****         }
 498              		.loc 1 576 17 is_stmt 0 view .LVU164
 499 0070 0232     		adds	r2, r2, #2
 500 0072 CCF80020 		str	r2, [ip]
 501 0076 D5E7     		b	.L29
 502              	.LVL51:
 503              	.L46:
 580:Lib/lvgl/src/misc/lv_text.c ****             (*i)++;
 504              		.loc 1 580 13 is_stmt 1 view .LVU165
 580:Lib/lvgl/src/misc/lv_text.c ****             (*i)++;
 505              		.loc 1 580 49 is_stmt 0 view .LVU166
 506 0078 0303     		lsls	r3, r0, #12
 580:Lib/lvgl/src/misc/lv_text.c ****             (*i)++;
 507              		.loc 1 580 20 view .LVU167
 508 007a 9BB2     		uxth	r3, r3
 509              	.LVL52:
 581:Lib/lvgl/src/misc/lv_text.c **** 
 510              		.loc 1 581 13 is_stmt 1 view .LVU168
ARM GAS  C:\Users\Alex\AppData\Local\Temp\ccyCJmTC.s 			page 26


 581:Lib/lvgl/src/misc/lv_text.c **** 
 511              		.loc 1 581 17 is_stmt 0 view .LVU169
 512 007c 511C     		adds	r1, r2, #1
 513 007e CCF80010 		str	r1, [ip]
 583:Lib/lvgl/src/misc/lv_text.c ****             result += (uint32_t)(txt[*i] & 0x3F) << 6;
 514              		.loc 1 583 13 is_stmt 1 view .LVU170
 583:Lib/lvgl/src/misc/lv_text.c ****             result += (uint32_t)(txt[*i] & 0x3F) << 6;
 515              		.loc 1 583 16 is_stmt 0 view .LVU171
 516 0082 1EF80110 		ldrb	r1, [lr, r1]	@ zero_extendqisi2
 583:Lib/lvgl/src/misc/lv_text.c ****             result += (uint32_t)(txt[*i] & 0x3F) << 6;
 517              		.loc 1 583 15 view .LVU172
 518 0086 01F0C000 		and	r0, r1, #192
 519 008a 8028     		cmp	r0, #128
 520 008c 42D1     		bne	.L38
 584:Lib/lvgl/src/misc/lv_text.c ****             (*i)++;
 521              		.loc 1 584 13 is_stmt 1 view .LVU173
 584:Lib/lvgl/src/misc/lv_text.c ****             (*i)++;
 522              		.loc 1 584 50 is_stmt 0 view .LVU174
 523 008e 8901     		lsls	r1, r1, #6
 524 0090 01F47C61 		and	r1, r1, #4032
 584:Lib/lvgl/src/misc/lv_text.c ****             (*i)++;
 525              		.loc 1 584 20 view .LVU175
 526 0094 1944     		add	r1, r1, r3
 527              	.LVL53:
 585:Lib/lvgl/src/misc/lv_text.c **** 
 528              		.loc 1 585 13 is_stmt 1 view .LVU176
 585:Lib/lvgl/src/misc/lv_text.c **** 
 529              		.loc 1 585 17 is_stmt 0 view .LVU177
 530 0096 931C     		adds	r3, r2, #2
 531 0098 CCF80030 		str	r3, [ip]
 587:Lib/lvgl/src/misc/lv_text.c ****             result += (txt[*i] & 0x3F);
 532              		.loc 1 587 13 is_stmt 1 view .LVU178
 587:Lib/lvgl/src/misc/lv_text.c ****             result += (txt[*i] & 0x3F);
 533              		.loc 1 587 16 is_stmt 0 view .LVU179
 534 009c 1EF80300 		ldrb	r0, [lr, r3]	@ zero_extendqisi2
 587:Lib/lvgl/src/misc/lv_text.c ****             result += (txt[*i] & 0x3F);
 535              		.loc 1 587 15 view .LVU180
 536 00a0 00F0C003 		and	r3, r0, #192
 537 00a4 802B     		cmp	r3, #128
 538 00a6 37D1     		bne	.L39
 588:Lib/lvgl/src/misc/lv_text.c ****             (*i)++;
 539              		.loc 1 588 13 is_stmt 1 view .LVU181
 588:Lib/lvgl/src/misc/lv_text.c ****             (*i)++;
 540              		.loc 1 588 32 is_stmt 0 view .LVU182
 541 00a8 00F03F00 		and	r0, r0, #63
 588:Lib/lvgl/src/misc/lv_text.c ****             (*i)++;
 542              		.loc 1 588 20 view .LVU183
 543 00ac 0844     		add	r0, r0, r1
 544              	.LVL54:
 589:Lib/lvgl/src/misc/lv_text.c ****         }
 545              		.loc 1 589 13 is_stmt 1 view .LVU184
 589:Lib/lvgl/src/misc/lv_text.c ****         }
 546              		.loc 1 589 17 is_stmt 0 view .LVU185
 547 00ae 0332     		adds	r2, r2, #3
 548 00b0 CCF80020 		str	r2, [ip]
 549 00b4 B6E7     		b	.L29
 550              	.LVL55:
ARM GAS  C:\Users\Alex\AppData\Local\Temp\ccyCJmTC.s 			page 27


 551              	.L47:
 593:Lib/lvgl/src/misc/lv_text.c ****             (*i)++;
 552              		.loc 1 593 13 is_stmt 1 view .LVU186
 593:Lib/lvgl/src/misc/lv_text.c ****             (*i)++;
 553              		.loc 1 593 49 is_stmt 0 view .LVU187
 554 00b6 8304     		lsls	r3, r0, #18
 593:Lib/lvgl/src/misc/lv_text.c ****             (*i)++;
 555              		.loc 1 593 20 view .LVU188
 556 00b8 03F4E013 		and	r3, r3, #1835008
 557              	.LVL56:
 594:Lib/lvgl/src/misc/lv_text.c **** 
 558              		.loc 1 594 13 is_stmt 1 view .LVU189
 594:Lib/lvgl/src/misc/lv_text.c **** 
 559              		.loc 1 594 17 is_stmt 0 view .LVU190
 560 00bc 511C     		adds	r1, r2, #1
 561 00be CCF80010 		str	r1, [ip]
 596:Lib/lvgl/src/misc/lv_text.c ****             result += (uint32_t)(txt[*i] & 0x3F) << 12;
 562              		.loc 1 596 13 is_stmt 1 view .LVU191
 596:Lib/lvgl/src/misc/lv_text.c ****             result += (uint32_t)(txt[*i] & 0x3F) << 12;
 563              		.loc 1 596 16 is_stmt 0 view .LVU192
 564 00c2 1EF80110 		ldrb	r1, [lr, r1]	@ zero_extendqisi2
 596:Lib/lvgl/src/misc/lv_text.c ****             result += (uint32_t)(txt[*i] & 0x3F) << 12;
 565              		.loc 1 596 15 view .LVU193
 566 00c6 01F0C000 		and	r0, r1, #192
 567 00ca 8028     		cmp	r0, #128
 568 00cc 26D1     		bne	.L40
 597:Lib/lvgl/src/misc/lv_text.c ****             (*i)++;
 569              		.loc 1 597 13 is_stmt 1 view .LVU194
 597:Lib/lvgl/src/misc/lv_text.c ****             (*i)++;
 570              		.loc 1 597 50 is_stmt 0 view .LVU195
 571 00ce 0903     		lsls	r1, r1, #12
 572 00d0 01F47C31 		and	r1, r1, #258048
 597:Lib/lvgl/src/misc/lv_text.c ****             (*i)++;
 573              		.loc 1 597 20 view .LVU196
 574 00d4 1943     		orrs	r1, r1, r3
 575              	.LVL57:
 598:Lib/lvgl/src/misc/lv_text.c **** 
 576              		.loc 1 598 13 is_stmt 1 view .LVU197
 598:Lib/lvgl/src/misc/lv_text.c **** 
 577              		.loc 1 598 17 is_stmt 0 view .LVU198
 578 00d6 931C     		adds	r3, r2, #2
 579 00d8 CCF80030 		str	r3, [ip]
 600:Lib/lvgl/src/misc/lv_text.c ****             result += (uint32_t)(txt[*i] & 0x3F) << 6;
 580              		.loc 1 600 13 is_stmt 1 view .LVU199
 600:Lib/lvgl/src/misc/lv_text.c ****             result += (uint32_t)(txt[*i] & 0x3F) << 6;
 581              		.loc 1 600 16 is_stmt 0 view .LVU200
 582 00dc 1EF80330 		ldrb	r3, [lr, r3]	@ zero_extendqisi2
 600:Lib/lvgl/src/misc/lv_text.c ****             result += (uint32_t)(txt[*i] & 0x3F) << 6;
 583              		.loc 1 600 15 view .LVU201
 584 00e0 03F0C000 		and	r0, r3, #192
 585 00e4 8028     		cmp	r0, #128
 586 00e6 1BD1     		bne	.L41
 601:Lib/lvgl/src/misc/lv_text.c ****             (*i)++;
 587              		.loc 1 601 13 is_stmt 1 view .LVU202
 601:Lib/lvgl/src/misc/lv_text.c ****             (*i)++;
 588              		.loc 1 601 50 is_stmt 0 view .LVU203
 589 00e8 9B01     		lsls	r3, r3, #6
ARM GAS  C:\Users\Alex\AppData\Local\Temp\ccyCJmTC.s 			page 28


 590 00ea 03F47C63 		and	r3, r3, #4032
 601:Lib/lvgl/src/misc/lv_text.c ****             (*i)++;
 591              		.loc 1 601 20 view .LVU204
 592 00ee 1944     		add	r1, r1, r3
 593              	.LVL58:
 602:Lib/lvgl/src/misc/lv_text.c **** 
 594              		.loc 1 602 13 is_stmt 1 view .LVU205
 602:Lib/lvgl/src/misc/lv_text.c **** 
 595              		.loc 1 602 17 is_stmt 0 view .LVU206
 596 00f0 D31C     		adds	r3, r2, #3
 597 00f2 CCF80030 		str	r3, [ip]
 604:Lib/lvgl/src/misc/lv_text.c ****             result += txt[*i] & 0x3F;
 598              		.loc 1 604 13 is_stmt 1 view .LVU207
 604:Lib/lvgl/src/misc/lv_text.c ****             result += txt[*i] & 0x3F;
 599              		.loc 1 604 16 is_stmt 0 view .LVU208
 600 00f6 1EF80330 		ldrb	r3, [lr, r3]	@ zero_extendqisi2
 604:Lib/lvgl/src/misc/lv_text.c ****             result += txt[*i] & 0x3F;
 601              		.loc 1 604 15 view .LVU209
 602 00fa 03F0C000 		and	r0, r3, #192
 603 00fe 8028     		cmp	r0, #128
 604 0100 10D1     		bne	.L42
 605:Lib/lvgl/src/misc/lv_text.c ****             (*i)++;
 605              		.loc 1 605 13 is_stmt 1 view .LVU210
 605:Lib/lvgl/src/misc/lv_text.c ****             (*i)++;
 606              		.loc 1 605 31 is_stmt 0 view .LVU211
 607 0102 03F03F00 		and	r0, r3, #63
 605:Lib/lvgl/src/misc/lv_text.c ****             (*i)++;
 608              		.loc 1 605 20 view .LVU212
 609 0106 0844     		add	r0, r0, r1
 610              	.LVL59:
 606:Lib/lvgl/src/misc/lv_text.c ****         }
 611              		.loc 1 606 13 is_stmt 1 view .LVU213
 606:Lib/lvgl/src/misc/lv_text.c ****         }
 612              		.loc 1 606 17 is_stmt 0 view .LVU214
 613 0108 0432     		adds	r2, r2, #4
 614 010a CCF80020 		str	r2, [ip]
 615 010e 89E7     		b	.L29
 616              	.LVL60:
 617              	.L37:
 574:Lib/lvgl/src/misc/lv_text.c ****             result += (txt[*i] & 0x3F);
 618              		.loc 1 574 57 view .LVU215
 619 0110 0020     		movs	r0, #0
 620 0112 87E7     		b	.L29
 621              	.L38:
 583:Lib/lvgl/src/misc/lv_text.c ****             result += (uint32_t)(txt[*i] & 0x3F) << 6;
 622              		.loc 1 583 57 view .LVU216
 623 0114 0020     		movs	r0, #0
 624 0116 85E7     		b	.L29
 625              	.LVL61:
 626              	.L39:
 587:Lib/lvgl/src/misc/lv_text.c ****             result += (txt[*i] & 0x3F);
 627              		.loc 1 587 57 view .LVU217
 628 0118 0020     		movs	r0, #0
 629 011a 83E7     		b	.L29
 630              	.LVL62:
 631              	.L40:
 596:Lib/lvgl/src/misc/lv_text.c ****             result += (uint32_t)(txt[*i] & 0x3F) << 12;
ARM GAS  C:\Users\Alex\AppData\Local\Temp\ccyCJmTC.s 			page 29


 632              		.loc 1 596 57 view .LVU218
 633 011c 0020     		movs	r0, #0
 634 011e 81E7     		b	.L29
 635              	.LVL63:
 636              	.L41:
 600:Lib/lvgl/src/misc/lv_text.c ****             result += (uint32_t)(txt[*i] & 0x3F) << 6;
 637              		.loc 1 600 57 view .LVU219
 638 0120 0020     		movs	r0, #0
 639 0122 7FE7     		b	.L29
 640              	.L42:
 604:Lib/lvgl/src/misc/lv_text.c ****             result += txt[*i] & 0x3F;
 641              		.loc 1 604 57 view .LVU220
 642 0124 0020     		movs	r0, #0
 643              	.LVL64:
 604:Lib/lvgl/src/misc/lv_text.c ****             result += txt[*i] & 0x3F;
 644              		.loc 1 604 57 view .LVU221
 645 0126 7DE7     		b	.L29
 646              		.cfi_endproc
 647              	.LFE93:
 649              		.section	.text.lv_text_utf8_prev,"ax",%progbits
 650              		.align	1
 651              		.syntax unified
 652              		.thumb
 653              		.thumb_func
 655              	lv_text_utf8_prev:
 656              	.LVL65:
 657              	.LFB94:
 614:Lib/lvgl/src/misc/lv_text.c **** 
 615:Lib/lvgl/src/misc/lv_text.c **** /**
 616:Lib/lvgl/src/misc/lv_text.c ****  * Get previous UTF-8 character form a string.
 617:Lib/lvgl/src/misc/lv_text.c ****  * @param txt pointer to '\0' terminated string
 618:Lib/lvgl/src/misc/lv_text.c ****  * @param i start byte index in 'txt' where to start. After the call it will point to the previous
 619:Lib/lvgl/src/misc/lv_text.c ****  * UTF-8 char in 'txt'.
 620:Lib/lvgl/src/misc/lv_text.c ****  * @return the decoded Unicode character or 0 on invalid UTF-8 code
 621:Lib/lvgl/src/misc/lv_text.c ****  */
 622:Lib/lvgl/src/misc/lv_text.c **** static uint32_t lv_text_utf8_prev(const char * txt, uint32_t * i)
 623:Lib/lvgl/src/misc/lv_text.c **** {
 658              		.loc 1 623 1 is_stmt 1 view -0
 659              		.cfi_startproc
 660              		@ args = 0, pretend = 0, frame = 8
 661              		@ frame_needed = 0, uses_anonymous_args = 0
 662              		.loc 1 623 1 is_stmt 0 view .LVU223
 663 0000 70B5     		push	{r4, r5, r6, lr}
 664              	.LCFI8:
 665              		.cfi_def_cfa_offset 16
 666              		.cfi_offset 4, -16
 667              		.cfi_offset 5, -12
 668              		.cfi_offset 6, -8
 669              		.cfi_offset 14, -4
 670 0002 82B0     		sub	sp, sp, #8
 671              	.LCFI9:
 672              		.cfi_def_cfa_offset 24
 673 0004 0646     		mov	r6, r0
 674 0006 0D46     		mov	r5, r1
 624:Lib/lvgl/src/misc/lv_text.c ****     uint8_t c_size;
 675              		.loc 1 624 5 is_stmt 1 view .LVU224
 625:Lib/lvgl/src/misc/lv_text.c ****     uint8_t cnt = 0;
ARM GAS  C:\Users\Alex\AppData\Local\Temp\ccyCJmTC.s 			page 30


 676              		.loc 1 625 5 view .LVU225
 677              	.LVL66:
 626:Lib/lvgl/src/misc/lv_text.c **** 
 627:Lib/lvgl/src/misc/lv_text.c ****     /*Try to find a !0 long UTF-8 char by stepping one character back*/
 628:Lib/lvgl/src/misc/lv_text.c ****     (*i)--;
 678              		.loc 1 628 5 view .LVU226
 679              		.loc 1 628 6 is_stmt 0 view .LVU227
 680 0008 0B68     		ldr	r3, [r1]
 681              		.loc 1 628 9 view .LVU228
 682 000a 013B     		subs	r3, r3, #1
 683 000c 0B60     		str	r3, [r1]
 625:Lib/lvgl/src/misc/lv_text.c ****     uint8_t cnt = 0;
 684              		.loc 1 625 13 view .LVU229
 685 000e 0024     		movs	r4, #0
 686 0010 04E0     		b	.L51
 687              	.LVL67:
 688              	.L55:
 629:Lib/lvgl/src/misc/lv_text.c ****     do {
 630:Lib/lvgl/src/misc/lv_text.c ****         if(cnt >= 4) return 0; /*No UTF-8 char found before the initial*/
 631:Lib/lvgl/src/misc/lv_text.c **** 
 632:Lib/lvgl/src/misc/lv_text.c ****         c_size = _lv_text_encoded_size(&txt[*i]);
 633:Lib/lvgl/src/misc/lv_text.c ****         if(c_size == 0) {
 634:Lib/lvgl/src/misc/lv_text.c ****             if(*i != 0)
 635:Lib/lvgl/src/misc/lv_text.c ****                 (*i)--;
 689              		.loc 1 635 17 is_stmt 1 view .LVU230
 690              		.loc 1 635 21 is_stmt 0 view .LVU231
 691 0012 0138     		subs	r0, r0, #1
 692 0014 2860     		str	r0, [r5]
 693              	.L50:
 636:Lib/lvgl/src/misc/lv_text.c ****             else
 637:Lib/lvgl/src/misc/lv_text.c ****                 return 0;
 638:Lib/lvgl/src/misc/lv_text.c ****         }
 639:Lib/lvgl/src/misc/lv_text.c ****         cnt++;
 694              		.loc 1 639 9 is_stmt 1 view .LVU232
 695              		.loc 1 639 12 is_stmt 0 view .LVU233
 696 0016 0134     		adds	r4, r4, #1
 697              	.LVL68:
 698              		.loc 1 639 12 view .LVU234
 699 0018 E4B2     		uxtb	r4, r4
 700              	.LVL69:
 640:Lib/lvgl/src/misc/lv_text.c ****     } while(c_size == 0);
 701              		.loc 1 640 20 is_stmt 1 view .LVU235
 702 001a 6BB9     		cbnz	r3, .L54
 703              	.LVL70:
 704              	.L51:
 629:Lib/lvgl/src/misc/lv_text.c ****     do {
 705              		.loc 1 629 5 view .LVU236
 630:Lib/lvgl/src/misc/lv_text.c **** 
 706              		.loc 1 630 9 view .LVU237
 630:Lib/lvgl/src/misc/lv_text.c **** 
 707              		.loc 1 630 11 is_stmt 0 view .LVU238
 708 001c 032C     		cmp	r4, #3
 709 001e 13D8     		bhi	.L52
 632:Lib/lvgl/src/misc/lv_text.c ****         if(c_size == 0) {
 710              		.loc 1 632 9 is_stmt 1 view .LVU239
 632:Lib/lvgl/src/misc/lv_text.c ****         if(c_size == 0) {
 711              		.loc 1 632 45 is_stmt 0 view .LVU240
ARM GAS  C:\Users\Alex\AppData\Local\Temp\ccyCJmTC.s 			page 31


 712 0020 2868     		ldr	r0, [r5]
 632:Lib/lvgl/src/misc/lv_text.c ****         if(c_size == 0) {
 713              		.loc 1 632 18 view .LVU241
 714 0022 0B4B     		ldr	r3, .L56
 715 0024 1B68     		ldr	r3, [r3]
 716 0026 3044     		add	r0, r0, r6
 717 0028 9847     		blx	r3
 718              	.LVL71:
 633:Lib/lvgl/src/misc/lv_text.c ****             if(*i != 0)
 719              		.loc 1 633 9 is_stmt 1 view .LVU242
 633:Lib/lvgl/src/misc/lv_text.c ****             if(*i != 0)
 720              		.loc 1 633 11 is_stmt 0 view .LVU243
 721 002a 0346     		mov	r3, r0
 722 002c 0028     		cmp	r0, #0
 723 002e F2D1     		bne	.L50
 634:Lib/lvgl/src/misc/lv_text.c ****                 (*i)--;
 724              		.loc 1 634 13 is_stmt 1 view .LVU244
 634:Lib/lvgl/src/misc/lv_text.c ****                 (*i)--;
 725              		.loc 1 634 16 is_stmt 0 view .LVU245
 726 0030 2868     		ldr	r0, [r5]
 727              	.LVL72:
 634:Lib/lvgl/src/misc/lv_text.c ****                 (*i)--;
 728              		.loc 1 634 15 view .LVU246
 729 0032 0028     		cmp	r0, #0
 730 0034 EDD1     		bne	.L55
 731 0036 08E0     		b	.L48
 732              	.L54:
 641:Lib/lvgl/src/misc/lv_text.c **** 
 642:Lib/lvgl/src/misc/lv_text.c ****     uint32_t i_tmp  = *i;
 733              		.loc 1 642 5 is_stmt 1 view .LVU247
 734              		.loc 1 642 23 is_stmt 0 view .LVU248
 735 0038 2B68     		ldr	r3, [r5]
 736              		.loc 1 642 14 view .LVU249
 737 003a 0193     		str	r3, [sp, #4]
 643:Lib/lvgl/src/misc/lv_text.c ****     uint32_t letter = _lv_text_encoded_next(txt, &i_tmp); /*Character found, get it*/
 738              		.loc 1 643 5 is_stmt 1 view .LVU250
 739              		.loc 1 643 23 is_stmt 0 view .LVU251
 740 003c 054B     		ldr	r3, .L56+4
 741 003e 1B68     		ldr	r3, [r3]
 742 0040 01A9     		add	r1, sp, #4
 743 0042 3046     		mov	r0, r6
 744 0044 9847     		blx	r3
 745              	.LVL73:
 644:Lib/lvgl/src/misc/lv_text.c **** 
 645:Lib/lvgl/src/misc/lv_text.c ****     return letter;
 746              		.loc 1 645 5 is_stmt 1 view .LVU252
 747              		.loc 1 645 12 is_stmt 0 view .LVU253
 748 0046 00E0     		b	.L48
 749              	.LVL74:
 750              	.L52:
 630:Lib/lvgl/src/misc/lv_text.c **** 
 751              		.loc 1 630 29 view .LVU254
 752 0048 0020     		movs	r0, #0
 753              	.L48:
 646:Lib/lvgl/src/misc/lv_text.c **** }
 754              		.loc 1 646 1 view .LVU255
 755 004a 02B0     		add	sp, sp, #8
ARM GAS  C:\Users\Alex\AppData\Local\Temp\ccyCJmTC.s 			page 32


 756              	.LCFI10:
 757              		.cfi_def_cfa_offset 16
 758              		@ sp needed
 759 004c 70BD     		pop	{r4, r5, r6, pc}
 760              	.LVL75:
 761              	.L57:
 762              		.loc 1 646 1 view .LVU256
 763 004e 00BF     		.align	2
 764              	.L56:
 765 0050 00000000 		.word	_lv_text_encoded_size
 766 0054 00000000 		.word	_lv_text_encoded_next
 767              		.cfi_endproc
 768              	.LFE94:
 770              		.section	.text.lv_text_utf8_get_byte_id,"ax",%progbits
 771              		.align	1
 772              		.syntax unified
 773              		.thumb
 774              		.thumb_func
 776              	lv_text_utf8_get_byte_id:
 777              	.LVL76:
 778              	.LFB95:
 647:Lib/lvgl/src/misc/lv_text.c **** 
 648:Lib/lvgl/src/misc/lv_text.c **** /**
 649:Lib/lvgl/src/misc/lv_text.c ****  * Convert a character index (in an UTF-8 text) to byte index.
 650:Lib/lvgl/src/misc/lv_text.c ****  * E.g. in "AÃRT" index of 'R' is 2th char but start at byte 3 because 'Ã' is 2 bytes long
 651:Lib/lvgl/src/misc/lv_text.c ****  * @param txt a '\0' terminated UTF-8 string
 652:Lib/lvgl/src/misc/lv_text.c ****  * @param utf8_id character index
 653:Lib/lvgl/src/misc/lv_text.c ****  * @return byte index of the 'utf8_id'th letter
 654:Lib/lvgl/src/misc/lv_text.c ****  */
 655:Lib/lvgl/src/misc/lv_text.c **** static uint32_t lv_text_utf8_get_byte_id(const char * txt, uint32_t utf8_id)
 656:Lib/lvgl/src/misc/lv_text.c **** {
 779              		.loc 1 656 1 is_stmt 1 view -0
 780              		.cfi_startproc
 781              		@ args = 0, pretend = 0, frame = 0
 782              		@ frame_needed = 0, uses_anonymous_args = 0
 783              		.loc 1 656 1 is_stmt 0 view .LVU258
 784 0000 F8B5     		push	{r3, r4, r5, r6, r7, lr}
 785              	.LCFI11:
 786              		.cfi_def_cfa_offset 24
 787              		.cfi_offset 3, -24
 788              		.cfi_offset 4, -20
 789              		.cfi_offset 5, -16
 790              		.cfi_offset 6, -12
 791              		.cfi_offset 7, -8
 792              		.cfi_offset 14, -4
 793 0002 0646     		mov	r6, r0
 794 0004 0F46     		mov	r7, r1
 657:Lib/lvgl/src/misc/lv_text.c ****     uint32_t i;
 795              		.loc 1 657 5 is_stmt 1 view .LVU259
 658:Lib/lvgl/src/misc/lv_text.c ****     uint32_t byte_cnt = 0;
 796              		.loc 1 658 5 view .LVU260
 797              	.LVL77:
 659:Lib/lvgl/src/misc/lv_text.c ****     for(i = 0; i < utf8_id && txt[byte_cnt] != '\0'; i++) {
 798              		.loc 1 659 5 view .LVU261
 658:Lib/lvgl/src/misc/lv_text.c ****     uint32_t byte_cnt = 0;
 799              		.loc 1 658 14 is_stmt 0 view .LVU262
 800 0006 0024     		movs	r4, #0
ARM GAS  C:\Users\Alex\AppData\Local\Temp\ccyCJmTC.s 			page 33


 801              		.loc 1 659 11 view .LVU263
 802 0008 2546     		mov	r5, r4
 803              		.loc 1 659 5 view .LVU264
 804 000a 01E0     		b	.L59
 805              	.LVL78:
 806              	.L60:
 807              	.LBB7:
 660:Lib/lvgl/src/misc/lv_text.c ****         uint8_t c_size = _lv_text_encoded_size(&txt[byte_cnt]);
 661:Lib/lvgl/src/misc/lv_text.c ****         /* If the char was invalid tell it's 1 byte long*/
 662:Lib/lvgl/src/misc/lv_text.c ****         byte_cnt += c_size ? c_size : 1;
 808              		.loc 1 662 18 discriminator 4 view .LVU265
 809 000c 1C44     		add	r4, r4, r3
 810              	.LVL79:
 811              		.loc 1 662 18 discriminator 4 view .LVU266
 812              	.LBE7:
 659:Lib/lvgl/src/misc/lv_text.c ****     for(i = 0; i < utf8_id && txt[byte_cnt] != '\0'; i++) {
 813              		.loc 1 659 55 is_stmt 1 discriminator 4 view .LVU267
 814 000e 0135     		adds	r5, r5, #1
 815              	.LVL80:
 816              	.L59:
 659:Lib/lvgl/src/misc/lv_text.c ****     for(i = 0; i < utf8_id && txt[byte_cnt] != '\0'; i++) {
 817              		.loc 1 659 28 discriminator 2 view .LVU268
 818 0010 BD42     		cmp	r5, r7
 819 0012 0AD2     		bcs	.L58
 659:Lib/lvgl/src/misc/lv_text.c ****     for(i = 0; i < utf8_id && txt[byte_cnt] != '\0'; i++) {
 820              		.loc 1 659 34 is_stmt 0 discriminator 3 view .LVU269
 821 0014 3019     		adds	r0, r6, r4
 822 0016 335D     		ldrb	r3, [r6, r4]	@ zero_extendqisi2
 659:Lib/lvgl/src/misc/lv_text.c ****     for(i = 0; i < utf8_id && txt[byte_cnt] != '\0'; i++) {
 823              		.loc 1 659 28 discriminator 3 view .LVU270
 824 0018 3BB1     		cbz	r3, .L58
 825              	.LBB8:
 660:Lib/lvgl/src/misc/lv_text.c ****         uint8_t c_size = _lv_text_encoded_size(&txt[byte_cnt]);
 826              		.loc 1 660 9 is_stmt 1 view .LVU271
 660:Lib/lvgl/src/misc/lv_text.c ****         uint8_t c_size = _lv_text_encoded_size(&txt[byte_cnt]);
 827              		.loc 1 660 26 is_stmt 0 view .LVU272
 828 001a 054B     		ldr	r3, .L65
 829 001c 1B68     		ldr	r3, [r3]
 830 001e 9847     		blx	r3
 831              	.LVL81:
 832              		.loc 1 662 9 is_stmt 1 view .LVU273
 833              		.loc 1 662 37 is_stmt 0 view .LVU274
 834 0020 0346     		mov	r3, r0
 835 0022 0028     		cmp	r0, #0
 836 0024 F2D1     		bne	.L60
 837 0026 0123     		movs	r3, #1
 838 0028 F0E7     		b	.L60
 839              	.LVL82:
 840              	.L58:
 841              		.loc 1 662 37 view .LVU275
 842              	.LBE8:
 663:Lib/lvgl/src/misc/lv_text.c ****     }
 664:Lib/lvgl/src/misc/lv_text.c **** 
 665:Lib/lvgl/src/misc/lv_text.c ****     return byte_cnt;
 666:Lib/lvgl/src/misc/lv_text.c **** }
 843              		.loc 1 666 1 view .LVU276
 844 002a 2046     		mov	r0, r4
ARM GAS  C:\Users\Alex\AppData\Local\Temp\ccyCJmTC.s 			page 34


 845 002c F8BD     		pop	{r3, r4, r5, r6, r7, pc}
 846              	.LVL83:
 847              	.L66:
 848              		.loc 1 666 1 view .LVU277
 849 002e 00BF     		.align	2
 850              	.L65:
 851 0030 00000000 		.word	_lv_text_encoded_size
 852              		.cfi_endproc
 853              	.LFE95:
 855              		.section	.text.lv_text_utf8_get_char_id,"ax",%progbits
 856              		.align	1
 857              		.syntax unified
 858              		.thumb
 859              		.thumb_func
 861              	lv_text_utf8_get_char_id:
 862              	.LVL84:
 863              	.LFB96:
 667:Lib/lvgl/src/misc/lv_text.c **** 
 668:Lib/lvgl/src/misc/lv_text.c **** /**
 669:Lib/lvgl/src/misc/lv_text.c ****  * Convert a byte index (in an UTF-8 text) to character index.
 670:Lib/lvgl/src/misc/lv_text.c ****  * E.g. in "AÃRT" index of 'R' is 2th char but start at byte 3 because 'Ã' is 2 bytes long
 671:Lib/lvgl/src/misc/lv_text.c ****  * @param txt a '\0' terminated UTF-8 string
 672:Lib/lvgl/src/misc/lv_text.c ****  * @param byte_id byte index
 673:Lib/lvgl/src/misc/lv_text.c ****  * @return character index of the letter at 'byte_id'th position
 674:Lib/lvgl/src/misc/lv_text.c ****  */
 675:Lib/lvgl/src/misc/lv_text.c **** static uint32_t lv_text_utf8_get_char_id(const char * txt, uint32_t byte_id)
 676:Lib/lvgl/src/misc/lv_text.c **** {
 864              		.loc 1 676 1 is_stmt 1 view -0
 865              		.cfi_startproc
 866              		@ args = 0, pretend = 0, frame = 8
 867              		@ frame_needed = 0, uses_anonymous_args = 0
 868              		.loc 1 676 1 is_stmt 0 view .LVU279
 869 0000 70B5     		push	{r4, r5, r6, lr}
 870              	.LCFI12:
 871              		.cfi_def_cfa_offset 16
 872              		.cfi_offset 4, -16
 873              		.cfi_offset 5, -12
 874              		.cfi_offset 6, -8
 875              		.cfi_offset 14, -4
 876 0002 82B0     		sub	sp, sp, #8
 877              	.LCFI13:
 878              		.cfi_def_cfa_offset 24
 879 0004 0646     		mov	r6, r0
 880 0006 0D46     		mov	r5, r1
 677:Lib/lvgl/src/misc/lv_text.c ****     uint32_t i        = 0;
 881              		.loc 1 677 5 is_stmt 1 view .LVU280
 882              		.loc 1 677 14 is_stmt 0 view .LVU281
 883 0008 0024     		movs	r4, #0
 884 000a 0194     		str	r4, [sp, #4]
 678:Lib/lvgl/src/misc/lv_text.c ****     uint32_t char_cnt = 0;
 885              		.loc 1 678 5 is_stmt 1 view .LVU282
 886              	.LVL85:
 679:Lib/lvgl/src/misc/lv_text.c **** 
 680:Lib/lvgl/src/misc/lv_text.c ****     while(i < byte_id) {
 887              		.loc 1 680 5 view .LVU283
 888              		.loc 1 680 10 is_stmt 0 view .LVU284
 889 000c 05E0     		b	.L68
ARM GAS  C:\Users\Alex\AppData\Local\Temp\ccyCJmTC.s 			page 35


 890              	.LVL86:
 891              	.L69:
 681:Lib/lvgl/src/misc/lv_text.c ****         _lv_text_encoded_next(txt, &i); /*'i' points to the next letter so use the prev. value*/
 892              		.loc 1 681 9 is_stmt 1 view .LVU285
 893 000e 064B     		ldr	r3, .L71
 894 0010 1B68     		ldr	r3, [r3]
 895 0012 01A9     		add	r1, sp, #4
 896 0014 3046     		mov	r0, r6
 897 0016 9847     		blx	r3
 898              	.LVL87:
 682:Lib/lvgl/src/misc/lv_text.c ****         char_cnt++;
 899              		.loc 1 682 9 view .LVU286
 900              		.loc 1 682 17 is_stmt 0 view .LVU287
 901 0018 0134     		adds	r4, r4, #1
 902              	.LVL88:
 903              	.L68:
 680:Lib/lvgl/src/misc/lv_text.c ****         _lv_text_encoded_next(txt, &i); /*'i' points to the next letter so use the prev. value*/
 904              		.loc 1 680 13 is_stmt 1 view .LVU288
 905 001a 019B     		ldr	r3, [sp, #4]
 906 001c AB42     		cmp	r3, r5
 907 001e F6D3     		bcc	.L69
 683:Lib/lvgl/src/misc/lv_text.c ****     }
 684:Lib/lvgl/src/misc/lv_text.c **** 
 685:Lib/lvgl/src/misc/lv_text.c ****     return char_cnt;
 908              		.loc 1 685 5 view .LVU289
 686:Lib/lvgl/src/misc/lv_text.c **** }
 909              		.loc 1 686 1 is_stmt 0 view .LVU290
 910 0020 2046     		mov	r0, r4
 911 0022 02B0     		add	sp, sp, #8
 912              	.LCFI14:
 913              		.cfi_def_cfa_offset 16
 914              		@ sp needed
 915 0024 70BD     		pop	{r4, r5, r6, pc}
 916              	.LVL89:
 917              	.L72:
 918              		.loc 1 686 1 view .LVU291
 919 0026 00BF     		.align	2
 920              	.L71:
 921 0028 00000000 		.word	_lv_text_encoded_next
 922              		.cfi_endproc
 923              	.LFE96:
 925              		.section	.text.lv_text_utf8_get_length,"ax",%progbits
 926              		.align	1
 927              		.syntax unified
 928              		.thumb
 929              		.thumb_func
 931              	lv_text_utf8_get_length:
 932              	.LVL90:
 933              	.LFB97:
 687:Lib/lvgl/src/misc/lv_text.c **** 
 688:Lib/lvgl/src/misc/lv_text.c **** /**
 689:Lib/lvgl/src/misc/lv_text.c ****  * Get the number of characters (and NOT bytes) in a string. Decode it with UTF-8 if enabled.
 690:Lib/lvgl/src/misc/lv_text.c ****  * E.g.: "ÃBC" is 3 characters (but 4 bytes)
 691:Lib/lvgl/src/misc/lv_text.c ****  * @param txt a '\0' terminated char string
 692:Lib/lvgl/src/misc/lv_text.c ****  * @return number of characters
 693:Lib/lvgl/src/misc/lv_text.c ****  */
 694:Lib/lvgl/src/misc/lv_text.c **** static uint32_t lv_text_utf8_get_length(const char * txt)
ARM GAS  C:\Users\Alex\AppData\Local\Temp\ccyCJmTC.s 			page 36


 695:Lib/lvgl/src/misc/lv_text.c **** {
 934              		.loc 1 695 1 is_stmt 1 view -0
 935              		.cfi_startproc
 936              		@ args = 0, pretend = 0, frame = 8
 937              		@ frame_needed = 0, uses_anonymous_args = 0
 938              		.loc 1 695 1 is_stmt 0 view .LVU293
 939 0000 30B5     		push	{r4, r5, lr}
 940              	.LCFI15:
 941              		.cfi_def_cfa_offset 12
 942              		.cfi_offset 4, -12
 943              		.cfi_offset 5, -8
 944              		.cfi_offset 14, -4
 945 0002 83B0     		sub	sp, sp, #12
 946              	.LCFI16:
 947              		.cfi_def_cfa_offset 24
 948 0004 0546     		mov	r5, r0
 696:Lib/lvgl/src/misc/lv_text.c ****     uint32_t len = 0;
 949              		.loc 1 696 5 is_stmt 1 view .LVU294
 950              	.LVL91:
 697:Lib/lvgl/src/misc/lv_text.c ****     uint32_t i   = 0;
 951              		.loc 1 697 5 view .LVU295
 952              		.loc 1 697 14 is_stmt 0 view .LVU296
 953 0006 0024     		movs	r4, #0
 954 0008 0194     		str	r4, [sp, #4]
 698:Lib/lvgl/src/misc/lv_text.c **** 
 699:Lib/lvgl/src/misc/lv_text.c ****     while(txt[i] != '\0') {
 955              		.loc 1 699 5 is_stmt 1 view .LVU297
 956              		.loc 1 699 10 is_stmt 0 view .LVU298
 957 000a 05E0     		b	.L74
 958              	.LVL92:
 959              	.L75:
 700:Lib/lvgl/src/misc/lv_text.c ****         _lv_text_encoded_next(txt, &i);
 960              		.loc 1 700 9 is_stmt 1 view .LVU299
 961 000c 064B     		ldr	r3, .L77
 962 000e 1B68     		ldr	r3, [r3]
 963 0010 01A9     		add	r1, sp, #4
 964 0012 2846     		mov	r0, r5
 965 0014 9847     		blx	r3
 966              	.LVL93:
 701:Lib/lvgl/src/misc/lv_text.c ****         len++;
 967              		.loc 1 701 9 view .LVU300
 968              		.loc 1 701 12 is_stmt 0 view .LVU301
 969 0016 0134     		adds	r4, r4, #1
 970              	.LVL94:
 971              	.L74:
 699:Lib/lvgl/src/misc/lv_text.c ****         _lv_text_encoded_next(txt, &i);
 972              		.loc 1 699 18 is_stmt 1 view .LVU302
 699:Lib/lvgl/src/misc/lv_text.c ****         _lv_text_encoded_next(txt, &i);
 973              		.loc 1 699 14 is_stmt 0 view .LVU303
 974 0018 019B     		ldr	r3, [sp, #4]
 975 001a EB5C     		ldrb	r3, [r5, r3]	@ zero_extendqisi2
 699:Lib/lvgl/src/misc/lv_text.c ****         _lv_text_encoded_next(txt, &i);
 976              		.loc 1 699 18 view .LVU304
 977 001c 002B     		cmp	r3, #0
 978 001e F5D1     		bne	.L75
 702:Lib/lvgl/src/misc/lv_text.c ****     }
 703:Lib/lvgl/src/misc/lv_text.c **** 
ARM GAS  C:\Users\Alex\AppData\Local\Temp\ccyCJmTC.s 			page 37


 704:Lib/lvgl/src/misc/lv_text.c ****     return len;
 979              		.loc 1 704 5 is_stmt 1 view .LVU305
 705:Lib/lvgl/src/misc/lv_text.c **** }
 980              		.loc 1 705 1 is_stmt 0 view .LVU306
 981 0020 2046     		mov	r0, r4
 982 0022 03B0     		add	sp, sp, #12
 983              	.LCFI17:
 984              		.cfi_def_cfa_offset 12
 985              		@ sp needed
 986 0024 30BD     		pop	{r4, r5, pc}
 987              	.LVL95:
 988              	.L78:
 989              		.loc 1 705 1 view .LVU307
 990 0026 00BF     		.align	2
 991              	.L77:
 992 0028 00000000 		.word	_lv_text_encoded_next
 993              		.cfi_endproc
 994              	.LFE97:
 996              		.section	.text.lv_text_utf8_conv_wc,"ax",%progbits
 997              		.align	1
 998              		.syntax unified
 999              		.thumb
 1000              		.thumb_func
 1002              	lv_text_utf8_conv_wc:
 1003              	.LVL96:
 1004              	.LFB92:
 520:Lib/lvgl/src/misc/lv_text.c **** #if LV_BIG_ENDIAN_SYSTEM == 0
 1005              		.loc 1 520 1 is_stmt 1 view -0
 1006              		.cfi_startproc
 1007              		@ args = 0, pretend = 0, frame = 16
 1008              		@ frame_needed = 0, uses_anonymous_args = 0
 520:Lib/lvgl/src/misc/lv_text.c **** #if LV_BIG_ENDIAN_SYSTEM == 0
 1009              		.loc 1 520 1 is_stmt 0 view .LVU309
 1010 0000 00B5     		push	{lr}
 1011              	.LCFI18:
 1012              		.cfi_def_cfa_offset 4
 1013              		.cfi_offset 14, -4
 1014 0002 85B0     		sub	sp, sp, #20
 1015              	.LCFI19:
 1016              		.cfi_def_cfa_offset 24
 1017 0004 0190     		str	r0, [sp, #4]
 523:Lib/lvgl/src/misc/lv_text.c ****         uint32_t swapped;
 1018              		.loc 1 523 5 is_stmt 1 view .LVU310
 523:Lib/lvgl/src/misc/lv_text.c ****         uint32_t swapped;
 1019              		.loc 1 523 7 is_stmt 0 view .LVU311
 1020 0006 10F0800F 		tst	r0, #128
 1021 000a 03D1     		bne	.L85
 1022              	.LVL97:
 1023              	.L80:
 536:Lib/lvgl/src/misc/lv_text.c **** }
 1024              		.loc 1 536 5 is_stmt 1 view .LVU312
 537:Lib/lvgl/src/misc/lv_text.c **** 
 1025              		.loc 1 537 1 is_stmt 0 view .LVU313
 1026 000c 0198     		ldr	r0, [sp, #4]
 1027 000e 05B0     		add	sp, sp, #20
 1028              	.LCFI20:
 1029              		.cfi_remember_state
ARM GAS  C:\Users\Alex\AppData\Local\Temp\ccyCJmTC.s 			page 38


 1030              		.cfi_def_cfa_offset 4
 1031              		@ sp needed
 1032 0010 5DF804FB 		ldr	pc, [sp], #4
 1033              	.LVL98:
 1034              	.L85:
 1035              	.LCFI21:
 1036              		.cfi_restore_state
 1037              	.LBB9:
 524:Lib/lvgl/src/misc/lv_text.c ****         uint8_t c8[4];
 1038              		.loc 1 524 9 is_stmt 1 view .LVU314
 525:Lib/lvgl/src/misc/lv_text.c ****         lv_memcpy(c8, &c, 4);
 1039              		.loc 1 525 9 view .LVU315
 526:Lib/lvgl/src/misc/lv_text.c ****         swapped = (c8[0] << 24) + (c8[1] << 16) + (c8[2] << 8) + (c8[3]);
 1040              		.loc 1 526 9 view .LVU316
 1041 0014 0422     		movs	r2, #4
 1042 0016 0DEB0201 		add	r1, sp, r2
 1043 001a 03A8     		add	r0, sp, #12
 1044              	.LVL99:
 526:Lib/lvgl/src/misc/lv_text.c ****         swapped = (c8[0] << 24) + (c8[1] << 16) + (c8[2] << 8) + (c8[3]);
 1045              		.loc 1 526 9 is_stmt 0 view .LVU317
 1046 001c FFF7FEFF 		bl	lv_memcpy
 1047              	.LVL100:
 527:Lib/lvgl/src/misc/lv_text.c ****         uint8_t i;
 1048              		.loc 1 527 9 is_stmt 1 view .LVU318
 527:Lib/lvgl/src/misc/lv_text.c ****         uint8_t i;
 1049              		.loc 1 527 22 is_stmt 0 view .LVU319
 1050 0020 9DF80C30 		ldrb	r3, [sp, #12]	@ zero_extendqisi2
 527:Lib/lvgl/src/misc/lv_text.c ****         uint8_t i;
 1051              		.loc 1 527 38 view .LVU320
 1052 0024 9DF80D20 		ldrb	r2, [sp, #13]	@ zero_extendqisi2
 527:Lib/lvgl/src/misc/lv_text.c ****         uint8_t i;
 1053              		.loc 1 527 42 view .LVU321
 1054 0028 1204     		lsls	r2, r2, #16
 527:Lib/lvgl/src/misc/lv_text.c ****         uint8_t i;
 1055              		.loc 1 527 33 view .LVU322
 1056 002a 02EB0362 		add	r2, r2, r3, lsl #24
 527:Lib/lvgl/src/misc/lv_text.c ****         uint8_t i;
 1057              		.loc 1 527 54 view .LVU323
 1058 002e 9DF80E30 		ldrb	r3, [sp, #14]	@ zero_extendqisi2
 527:Lib/lvgl/src/misc/lv_text.c ****         uint8_t i;
 1059              		.loc 1 527 49 view .LVU324
 1060 0032 02EB0322 		add	r2, r2, r3, lsl #8
 527:Lib/lvgl/src/misc/lv_text.c ****         uint8_t i;
 1061              		.loc 1 527 69 view .LVU325
 1062 0036 9DF80F30 		ldrb	r3, [sp, #15]	@ zero_extendqisi2
 527:Lib/lvgl/src/misc/lv_text.c ****         uint8_t i;
 1063              		.loc 1 527 64 view .LVU326
 1064 003a 1A44     		add	r2, r2, r3
 1065              	.LVL101:
 528:Lib/lvgl/src/misc/lv_text.c ****         for(i = 0; i < 4; i++) {
 1066              		.loc 1 528 9 is_stmt 1 view .LVU327
 529:Lib/lvgl/src/misc/lv_text.c ****             if((swapped & 0xFF) == 0)
 1067              		.loc 1 529 9 view .LVU328
 529:Lib/lvgl/src/misc/lv_text.c ****             if((swapped & 0xFF) == 0)
 1068              		.loc 1 529 15 is_stmt 0 view .LVU329
 1069 003c 0023     		movs	r3, #0
 529:Lib/lvgl/src/misc/lv_text.c ****             if((swapped & 0xFF) == 0)
ARM GAS  C:\Users\Alex\AppData\Local\Temp\ccyCJmTC.s 			page 39


 1070              		.loc 1 529 9 view .LVU330
 1071 003e 01E0     		b	.L81
 1072              	.LVL102:
 1073              	.L82:
 529:Lib/lvgl/src/misc/lv_text.c ****             if((swapped & 0xFF) == 0)
 1074              		.loc 1 529 28 is_stmt 1 discriminator 2 view .LVU331
 1075 0040 0133     		adds	r3, r3, #1
 1076              	.LVL103:
 529:Lib/lvgl/src/misc/lv_text.c ****             if((swapped & 0xFF) == 0)
 1077              		.loc 1 529 28 is_stmt 0 discriminator 2 view .LVU332
 1078 0042 DBB2     		uxtb	r3, r3
 1079              	.LVL104:
 1080              	.L81:
 529:Lib/lvgl/src/misc/lv_text.c ****             if((swapped & 0xFF) == 0)
 1081              		.loc 1 529 22 is_stmt 1 discriminator 1 view .LVU333
 1082 0044 032B     		cmp	r3, #3
 1083 0046 04D8     		bhi	.L86
 530:Lib/lvgl/src/misc/lv_text.c ****                 swapped = (swapped >> 8); /*Ignore leading zeros (they were in the end originally)*
 1084              		.loc 1 530 13 view .LVU334
 530:Lib/lvgl/src/misc/lv_text.c ****                 swapped = (swapped >> 8); /*Ignore leading zeros (they were in the end originally)*
 1085              		.loc 1 530 15 is_stmt 0 view .LVU335
 1086 0048 12F0FF0F 		tst	r2, #255
 1087 004c F8D1     		bne	.L82
 531:Lib/lvgl/src/misc/lv_text.c ****         }
 1088              		.loc 1 531 17 is_stmt 1 view .LVU336
 531:Lib/lvgl/src/misc/lv_text.c ****         }
 1089              		.loc 1 531 25 is_stmt 0 view .LVU337
 1090 004e 120A     		lsrs	r2, r2, #8
 1091              	.LVL105:
 531:Lib/lvgl/src/misc/lv_text.c ****         }
 1092              		.loc 1 531 25 view .LVU338
 1093 0050 F6E7     		b	.L82
 1094              	.L86:
 533:Lib/lvgl/src/misc/lv_text.c ****     }
 1095              		.loc 1 533 9 is_stmt 1 view .LVU339
 533:Lib/lvgl/src/misc/lv_text.c ****     }
 1096              		.loc 1 533 11 is_stmt 0 view .LVU340
 1097 0052 0192     		str	r2, [sp, #4]
 1098 0054 DAE7     		b	.L80
 1099              	.LBE9:
 1100              		.cfi_endproc
 1101              	.LFE92:
 1103              		.section	.rodata.lv_text_get_next_word.str1.4,"aMS",%progbits,1
 1104              		.align	2
 1105              	.LC0:
 1106 0000 202C2E3B 		.ascii	" ,.;:-_)]}\000"
 1106      3A2D5F29 
 1106      5D7D00
 1107              		.section	.text.lv_text_get_next_word,"ax",%progbits
 1108              		.align	1
 1109              		.syntax unified
 1110              		.thumb
 1111              		.thumb_func
 1113              	lv_text_get_next_word:
 1114              	.LVL106:
 1115              	.LFB83:
 173:Lib/lvgl/src/misc/lv_text.c ****     if(txt == NULL || txt[0] == '\0') return 0;
ARM GAS  C:\Users\Alex\AppData\Local\Temp\ccyCJmTC.s 			page 40


 1116              		.loc 1 173 1 is_stmt 1 view -0
 1117              		.cfi_startproc
 1118              		@ args = 12, pretend = 0, frame = 24
 1119              		@ frame_needed = 0, uses_anonymous_args = 0
 173:Lib/lvgl/src/misc/lv_text.c ****     if(txt == NULL || txt[0] == '\0') return 0;
 1120              		.loc 1 173 1 is_stmt 0 view .LVU342
 1121 0000 2DE9F04F 		push	{r4, r5, r6, r7, r8, r9, r10, fp, lr}
 1122              	.LCFI22:
 1123              		.cfi_def_cfa_offset 36
 1124              		.cfi_offset 4, -36
 1125              		.cfi_offset 5, -32
 1126              		.cfi_offset 6, -28
 1127              		.cfi_offset 7, -24
 1128              		.cfi_offset 8, -20
 1129              		.cfi_offset 9, -16
 1130              		.cfi_offset 10, -12
 1131              		.cfi_offset 11, -8
 1132              		.cfi_offset 14, -4
 1133 0004 87B0     		sub	sp, sp, #28
 1134              	.LCFI23:
 1135              		.cfi_def_cfa_offset 64
 1136 0006 0091     		str	r1, [sp]
 1137 0008 0192     		str	r2, [sp, #4]
 1138 000a 0293     		str	r3, [sp, #8]
 1139 000c 9DF84830 		ldrb	r3, [sp, #72]	@ zero_extendqisi2
 1140              	.LVL107:
 173:Lib/lvgl/src/misc/lv_text.c ****     if(txt == NULL || txt[0] == '\0') return 0;
 1141              		.loc 1 173 1 view .LVU343
 1142 0010 0393     		str	r3, [sp, #12]
 174:Lib/lvgl/src/misc/lv_text.c ****     if(font == NULL) return 0;
 1143              		.loc 1 174 5 is_stmt 1 view .LVU344
 174:Lib/lvgl/src/misc/lv_text.c ****     if(font == NULL) return 0;
 1144              		.loc 1 174 7 is_stmt 0 view .LVU345
 1145 0012 0028     		cmp	r0, #0
 1146 0014 00F08A80 		beq	.L106
 1147 0018 8046     		mov	r8, r0
 174:Lib/lvgl/src/misc/lv_text.c ****     if(font == NULL) return 0;
 1148              		.loc 1 174 26 discriminator 2 view .LVU346
 1149 001a 0378     		ldrb	r3, [r0]	@ zero_extendqisi2
 174:Lib/lvgl/src/misc/lv_text.c ****     if(font == NULL) return 0;
 1150              		.loc 1 174 20 discriminator 2 view .LVU347
 1151 001c 002B     		cmp	r3, #0
 1152 001e 00F08880 		beq	.L107
 175:Lib/lvgl/src/misc/lv_text.c **** 
 1153              		.loc 1 175 5 is_stmt 1 view .LVU348
 175:Lib/lvgl/src/misc/lv_text.c **** 
 1154              		.loc 1 175 7 is_stmt 0 view .LVU349
 1155 0022 0029     		cmp	r1, #0
 1156 0024 00F08B80 		beq	.L108
 177:Lib/lvgl/src/misc/lv_text.c **** 
 1157              		.loc 1 177 5 is_stmt 1 view .LVU350
 177:Lib/lvgl/src/misc/lv_text.c **** 
 1158              		.loc 1 177 7 is_stmt 0 view .LVU351
 1159 0028 9DF84030 		ldrb	r3, [sp, #64]	@ zero_extendqisi2
 1160 002c 13F0010F 		tst	r3, #1
 1161 0030 02D0     		beq	.L89
 177:Lib/lvgl/src/misc/lv_text.c **** 
ARM GAS  C:\Users\Alex\AppData\Local\Temp\ccyCJmTC.s 			page 41


 1162              		.loc 1 177 46 view .LVU352
 1163 0032 6FF06043 		mvn	r3, #-536870912
 1164 0036 0293     		str	r3, [sp, #8]
 1165              	.LVL108:
 1166              	.L89:
 179:Lib/lvgl/src/misc/lv_text.c ****     uint32_t letter = 0;      /*Letter at i*/
 1167              		.loc 1 179 5 is_stmt 1 view .LVU353
 179:Lib/lvgl/src/misc/lv_text.c ****     uint32_t letter = 0;      /*Letter at i*/
 1168              		.loc 1 179 21 is_stmt 0 view .LVU354
 1169 0038 0027     		movs	r7, #0
 1170 003a 0597     		str	r7, [sp, #20]
 179:Lib/lvgl/src/misc/lv_text.c ****     uint32_t letter = 0;      /*Letter at i*/
 1171              		.loc 1 179 33 view .LVU355
 1172 003c 0497     		str	r7, [sp, #16]
 180:Lib/lvgl/src/misc/lv_text.c ****     uint32_t letter_next = 0; /*Letter at i_next*/
 1173              		.loc 1 180 5 is_stmt 1 view .LVU356
 1174              	.LVL109:
 181:Lib/lvgl/src/misc/lv_text.c ****     int32_t letter_w;
 1175              		.loc 1 181 5 view .LVU357
 182:Lib/lvgl/src/misc/lv_text.c ****     int32_t cur_w = 0;  /*Pixel Width of transversed string*/
 1176              		.loc 1 182 5 view .LVU358
 183:Lib/lvgl/src/misc/lv_text.c ****     uint32_t word_len = 0;   /*Number of characters in the transversed word*/
 1177              		.loc 1 183 5 view .LVU359
 184:Lib/lvgl/src/misc/lv_text.c ****     uint32_t break_index = NO_BREAK_FOUND; /*only used for "long" words*/
 1178              		.loc 1 184 5 view .LVU360
 185:Lib/lvgl/src/misc/lv_text.c ****     uint32_t break_letter_count = 0; /*Number of characters up to the long word break point*/
 1179              		.loc 1 185 5 view .LVU361
 186:Lib/lvgl/src/misc/lv_text.c **** 
 1180              		.loc 1 186 5 view .LVU362
 188:Lib/lvgl/src/misc/lv_text.c ****     i_next_next = i_next;
 1181              		.loc 1 188 5 view .LVU363
 188:Lib/lvgl/src/misc/lv_text.c ****     i_next_next = i_next;
 1182              		.loc 1 188 14 is_stmt 0 view .LVU364
 1183 003e 434B     		ldr	r3, .L122
 1184 0040 1B68     		ldr	r3, [r3]
 1185 0042 05A9     		add	r1, sp, #20
 1186              	.LVL110:
 188:Lib/lvgl/src/misc/lv_text.c ****     i_next_next = i_next;
 1187              		.loc 1 188 14 view .LVU365
 1188 0044 4046     		mov	r0, r8
 1189              	.LVL111:
 188:Lib/lvgl/src/misc/lv_text.c ****     i_next_next = i_next;
 1190              		.loc 1 188 14 view .LVU366
 1191 0046 9847     		blx	r3
 1192              	.LVL112:
 188:Lib/lvgl/src/misc/lv_text.c ****     i_next_next = i_next;
 1193              		.loc 1 188 14 view .LVU367
 1194 0048 0446     		mov	r4, r0
 1195              	.LVL113:
 189:Lib/lvgl/src/misc/lv_text.c **** 
 1196              		.loc 1 189 5 is_stmt 1 view .LVU368
 189:Lib/lvgl/src/misc/lv_text.c **** 
 1197              		.loc 1 189 17 is_stmt 0 view .LVU369
 1198 004a 059B     		ldr	r3, [sp, #20]
 1199 004c 0493     		str	r3, [sp, #16]
 192:Lib/lvgl/src/misc/lv_text.c ****         letter_next = _lv_text_encoded_next(txt, &i_next_next);
 1200              		.loc 1 192 5 is_stmt 1 view .LVU370
ARM GAS  C:\Users\Alex\AppData\Local\Temp\ccyCJmTC.s 			page 42


 185:Lib/lvgl/src/misc/lv_text.c ****     uint32_t break_letter_count = 0; /*Number of characters up to the long word break point*/
 1201              		.loc 1 185 14 is_stmt 0 view .LVU371
 1202 004e 4FF0FF3B 		mov	fp, #-1
 184:Lib/lvgl/src/misc/lv_text.c ****     uint32_t break_index = NO_BREAK_FOUND; /*only used for "long" words*/
 1203              		.loc 1 184 14 view .LVU372
 1204 0052 B946     		mov	r9, r7
 183:Lib/lvgl/src/misc/lv_text.c ****     uint32_t word_len = 0;   /*Number of characters in the transversed word*/
 1205              		.loc 1 183 13 view .LVU373
 1206 0054 3E46     		mov	r6, r7
 181:Lib/lvgl/src/misc/lv_text.c ****     int32_t letter_w;
 1207              		.loc 1 181 14 view .LVU374
 1208 0056 3D46     		mov	r5, r7
 192:Lib/lvgl/src/misc/lv_text.c ****         letter_next = _lv_text_encoded_next(txt, &i_next_next);
 1209              		.loc 1 192 10 view .LVU375
 1210 0058 23E0     		b	.L90
 1211              	.LVL114:
 1212              	.L119:
 204:Lib/lvgl/src/misc/lv_text.c ****             break_index = i;
 1213              		.loc 1 204 52 discriminator 1 view .LVU376
 1214 005a 019B     		ldr	r3, [sp, #4]
 1215 005c F31A     		subs	r3, r6, r3
 204:Lib/lvgl/src/misc/lv_text.c ****             break_index = i;
 1216              		.loc 1 204 42 discriminator 1 view .LVU377
 1217 005e 029A     		ldr	r2, [sp, #8]
 1218 0060 9342     		cmp	r3, r2
 1219 0062 36DD     		ble	.L92
 205:Lib/lvgl/src/misc/lv_text.c ****             break_letter_count = word_len - 1;
 1220              		.loc 1 205 25 view .LVU378
 1221 0064 BB46     		mov	fp, r7
 1222              	.LVL115:
 205:Lib/lvgl/src/misc/lv_text.c ****             break_letter_count = word_len - 1;
 1223              		.loc 1 205 25 view .LVU379
 1224 0066 34E0     		b	.L92
 1225              	.LVL116:
 1226              	.L117:
 1227              	.LBB10:
 1228              	.LBB11:
 160:Lib/lvgl/src/misc/lv_text.h ****         if(letter == (uint32_t)LV_TXT_BREAK_CHARS[i]) {
 1229              		.loc 2 160 48 is_stmt 1 view .LVU380
 1230 0068 0133     		adds	r3, r3, #1
 1231              	.LVL117:
 160:Lib/lvgl/src/misc/lv_text.h ****         if(letter == (uint32_t)LV_TXT_BREAK_CHARS[i]) {
 1232              		.loc 2 160 48 is_stmt 0 view .LVU381
 1233 006a DBB2     		uxtb	r3, r3
 1234              	.LVL118:
 1235              	.L94:
 160:Lib/lvgl/src/misc/lv_text.h ****         if(letter == (uint32_t)LV_TXT_BREAK_CHARS[i]) {
 1236              		.loc 2 160 38 is_stmt 1 view .LVU382
 160:Lib/lvgl/src/misc/lv_text.h ****         if(letter == (uint32_t)LV_TXT_BREAK_CHARS[i]) {
 1237              		.loc 2 160 34 is_stmt 0 view .LVU383
 1238 006c 384A     		ldr	r2, .L122+4
 1239 006e D25C     		ldrb	r2, [r2, r3]	@ zero_extendqisi2
 160:Lib/lvgl/src/misc/lv_text.h ****         if(letter == (uint32_t)LV_TXT_BREAK_CHARS[i]) {
 1240              		.loc 2 160 38 view .LVU384
 1241 0070 1AB1     		cbz	r2, .L116
 161:Lib/lvgl/src/misc/lv_text.h ****             ret = true; /*If match then it is break char*/
 1242              		.loc 2 161 9 is_stmt 1 view .LVU385
ARM GAS  C:\Users\Alex\AppData\Local\Temp\ccyCJmTC.s 			page 43


 161:Lib/lvgl/src/misc/lv_text.h ****             ret = true; /*If match then it is break char*/
 1243              		.loc 2 161 11 is_stmt 0 view .LVU386
 1244 0072 9442     		cmp	r4, r2
 1245 0074 F8D1     		bne	.L117
 162:Lib/lvgl/src/misc/lv_text.h ****             break;
 1246              		.loc 2 162 17 view .LVU387
 1247 0076 0123     		movs	r3, #1
 1248              	.LVL119:
 162:Lib/lvgl/src/misc/lv_text.h ****             break;
 1249              		.loc 2 162 17 view .LVU388
 1250 0078 00E0     		b	.L95
 1251              	.LVL120:
 1252              	.L116:
 157:Lib/lvgl/src/misc/lv_text.h **** 
 1253              		.loc 2 157 10 view .LVU389
 1254 007a 0023     		movs	r3, #0
 1255              	.LVL121:
 1256              	.L95:
 167:Lib/lvgl/src/misc/lv_text.h **** }
 1257              		.loc 2 167 5 is_stmt 1 view .LVU390
 167:Lib/lvgl/src/misc/lv_text.h **** }
 1258              		.loc 2 167 5 is_stmt 0 view .LVU391
 1259              	.LBE11:
 1260              	.LBE10:
 211:Lib/lvgl/src/misc/lv_text.c ****             /*Update the output width on the first character if it fits.
 1261              		.loc 1 211 45 view .LVU392
 1262 007c 7BBB     		cbnz	r3, .L93
 218:Lib/lvgl/src/misc/lv_text.c ****             /*Found a word for single letter, usually true for CJK*/
 1263              		.loc 1 218 14 is_stmt 1 view .LVU393
 218:Lib/lvgl/src/misc/lv_text.c ****             /*Found a word for single letter, usually true for CJK*/
 1264              		.loc 1 218 17 is_stmt 0 view .LVU394
 1265 007e 2846     		mov	r0, r5
 1266              	.LVL122:
 218:Lib/lvgl/src/misc/lv_text.c ****             /*Found a word for single letter, usually true for CJK*/
 1267              		.loc 1 218 17 view .LVU395
 1268 0080 FFF7FEFF 		bl	_lv_text_is_a_word
 1269              	.LVL123:
 218:Lib/lvgl/src/misc/lv_text.c ****             /*Found a word for single letter, usually true for CJK*/
 1270              		.loc 1 218 16 view .LVU396
 1271 0084 98BB     		cbnz	r0, .L99
 218:Lib/lvgl/src/misc/lv_text.c ****             /*Found a word for single letter, usually true for CJK*/
 1272              		.loc 1 218 52 discriminator 1 view .LVU397
 1273 0086 2046     		mov	r0, r4
 1274 0088 FFF7FEFF 		bl	_lv_text_is_a_word
 1275              	.LVL124:
 218:Lib/lvgl/src/misc/lv_text.c ****             /*Found a word for single letter, usually true for CJK*/
 1276              		.loc 1 218 49 discriminator 1 view .LVU398
 1277 008c 78BB     		cbnz	r0, .L99
 226:Lib/lvgl/src/misc/lv_text.c **** 
 1278              		.loc 1 226 9 is_stmt 1 view .LVU399
 226:Lib/lvgl/src/misc/lv_text.c **** 
 1279              		.loc 1 226 11 is_stmt 0 view .LVU400
 1280 008e 119B     		ldr	r3, [sp, #68]
 1281 0090 13B1     		cbz	r3, .L101
 226:Lib/lvgl/src/misc/lv_text.c **** 
 1282              		.loc 1 226 31 discriminator 1 view .LVU401
 1283 0092 BBF1FF3F 		cmp	fp, #-1
ARM GAS  C:\Users\Alex\AppData\Local\Temp\ccyCJmTC.s 			page 44


 1284 0096 39D0     		beq	.L118
 1285              	.L101:
 228:Lib/lvgl/src/misc/lv_text.c ****         i_next = i_next_next;
 1286              		.loc 1 228 9 is_stmt 1 view .LVU402
 228:Lib/lvgl/src/misc/lv_text.c ****         i_next = i_next_next;
 1287              		.loc 1 228 11 is_stmt 0 view .LVU403
 1288 0098 059F     		ldr	r7, [sp, #20]
 1289              	.LVL125:
 229:Lib/lvgl/src/misc/lv_text.c ****         letter = letter_next;
 1290              		.loc 1 229 9 is_stmt 1 view .LVU404
 229:Lib/lvgl/src/misc/lv_text.c ****         letter = letter_next;
 1291              		.loc 1 229 16 is_stmt 0 view .LVU405
 1292 009a 049B     		ldr	r3, [sp, #16]
 1293 009c 0593     		str	r3, [sp, #20]
 230:Lib/lvgl/src/misc/lv_text.c ****     }
 1294              		.loc 1 230 9 is_stmt 1 view .LVU406
 1295              	.LVL126:
 194:Lib/lvgl/src/misc/lv_text.c **** 
 1296              		.loc 1 194 17 is_stmt 0 view .LVU407
 1297 009e D146     		mov	r9, r10
 230:Lib/lvgl/src/misc/lv_text.c ****     }
 1298              		.loc 1 230 16 view .LVU408
 1299 00a0 2C46     		mov	r4, r5
 1300              	.LVL127:
 1301              	.L90:
 192:Lib/lvgl/src/misc/lv_text.c ****         letter_next = _lv_text_encoded_next(txt, &i_next_next);
 1302              		.loc 1 192 18 is_stmt 1 view .LVU409
 192:Lib/lvgl/src/misc/lv_text.c ****         letter_next = _lv_text_encoded_next(txt, &i_next_next);
 1303              		.loc 1 192 14 is_stmt 0 view .LVU410
 1304 00a2 18F80730 		ldrb	r3, [r8, r7]	@ zero_extendqisi2
 192:Lib/lvgl/src/misc/lv_text.c ****         letter_next = _lv_text_encoded_next(txt, &i_next_next);
 1305              		.loc 1 192 18 view .LVU411
 1306 00a6 33B3     		cbz	r3, .L98
 193:Lib/lvgl/src/misc/lv_text.c ****         word_len++;
 1307              		.loc 1 193 9 is_stmt 1 view .LVU412
 193:Lib/lvgl/src/misc/lv_text.c ****         word_len++;
 1308              		.loc 1 193 23 is_stmt 0 view .LVU413
 1309 00a8 284B     		ldr	r3, .L122
 1310 00aa 1B68     		ldr	r3, [r3]
 1311 00ac 04A9     		add	r1, sp, #16
 1312 00ae 4046     		mov	r0, r8
 1313 00b0 9847     		blx	r3
 1314              	.LVL128:
 1315 00b2 0546     		mov	r5, r0
 1316              	.LVL129:
 194:Lib/lvgl/src/misc/lv_text.c **** 
 1317              		.loc 1 194 9 is_stmt 1 view .LVU414
 194:Lib/lvgl/src/misc/lv_text.c **** 
 1318              		.loc 1 194 17 is_stmt 0 view .LVU415
 1319 00b4 09F1010A 		add	r10, r9, #1
 1320              	.LVL130:
 196:Lib/lvgl/src/misc/lv_text.c ****         cur_w += letter_w;
 1321              		.loc 1 196 9 is_stmt 1 view .LVU416
 196:Lib/lvgl/src/misc/lv_text.c ****         cur_w += letter_w;
 1322              		.loc 1 196 20 is_stmt 0 view .LVU417
 1323 00b8 0246     		mov	r2, r0
 1324 00ba 2146     		mov	r1, r4
ARM GAS  C:\Users\Alex\AppData\Local\Temp\ccyCJmTC.s 			page 45


 1325 00bc 0098     		ldr	r0, [sp]
 1326              	.LVL131:
 196:Lib/lvgl/src/misc/lv_text.c ****         cur_w += letter_w;
 1327              		.loc 1 196 20 view .LVU418
 1328 00be FFF7FEFF 		bl	lv_font_get_glyph_width
 1329              	.LVL132:
 197:Lib/lvgl/src/misc/lv_text.c **** 
 1330              		.loc 1 197 9 is_stmt 1 view .LVU419
 197:Lib/lvgl/src/misc/lv_text.c **** 
 1331              		.loc 1 197 15 is_stmt 0 view .LVU420
 1332 00c2 0644     		add	r6, r6, r0
 1333              	.LVL133:
 199:Lib/lvgl/src/misc/lv_text.c ****             cur_w += letter_space;
 1334              		.loc 1 199 9 is_stmt 1 view .LVU421
 199:Lib/lvgl/src/misc/lv_text.c ****             cur_w += letter_space;
 1335              		.loc 1 199 11 is_stmt 0 view .LVU422
 1336 00c4 0028     		cmp	r0, #0
 1337 00c6 01DD     		ble	.L91
 200:Lib/lvgl/src/misc/lv_text.c ****         }
 1338              		.loc 1 200 13 is_stmt 1 view .LVU423
 200:Lib/lvgl/src/misc/lv_text.c ****         }
 1339              		.loc 1 200 19 is_stmt 0 view .LVU424
 1340 00c8 019B     		ldr	r3, [sp, #4]
 1341 00ca 1E44     		add	r6, r6, r3
 1342              	.LVL134:
 1343              	.L91:
 204:Lib/lvgl/src/misc/lv_text.c ****             break_index = i;
 1344              		.loc 1 204 9 is_stmt 1 view .LVU425
 204:Lib/lvgl/src/misc/lv_text.c ****             break_index = i;
 1345              		.loc 1 204 11 is_stmt 0 view .LVU426
 1346 00cc BBF1FF3F 		cmp	fp, #-1
 1347 00d0 C3D0     		beq	.L119
 1348              	.LVL135:
 1349              	.L92:
 211:Lib/lvgl/src/misc/lv_text.c ****             /*Update the output width on the first character if it fits.
 1350              		.loc 1 211 9 is_stmt 1 view .LVU427
 211:Lib/lvgl/src/misc/lv_text.c ****             /*Update the output width on the first character if it fits.
 1351              		.loc 1 211 11 is_stmt 0 view .LVU428
 1352 00d2 0A2C     		cmp	r4, #10
 1353 00d4 03D0     		beq	.L93
 211:Lib/lvgl/src/misc/lv_text.c ****             /*Update the output width on the first character if it fits.
 1354              		.loc 1 211 27 discriminator 1 view .LVU429
 1355 00d6 0D2C     		cmp	r4, #13
 1356 00d8 01D0     		beq	.L93
 1357              	.LBB13:
 1358              	.LBB12:
 160:Lib/lvgl/src/misc/lv_text.h ****         if(letter == (uint32_t)LV_TXT_BREAK_CHARS[i]) {
 1359              		.loc 2 160 11 view .LVU430
 1360 00da 0023     		movs	r3, #0
 1361 00dc C6E7     		b	.L94
 1362              	.L93:
 160:Lib/lvgl/src/misc/lv_text.h ****         if(letter == (uint32_t)LV_TXT_BREAK_CHARS[i]) {
 1363              		.loc 2 160 11 view .LVU431
 1364              	.LBE12:
 1365              	.LBE13:
 214:Lib/lvgl/src/misc/lv_text.c ****             word_len--;
 1366              		.loc 1 214 13 is_stmt 1 view .LVU432
ARM GAS  C:\Users\Alex\AppData\Local\Temp\ccyCJmTC.s 			page 46


 214:Lib/lvgl/src/misc/lv_text.c ****             word_len--;
 1367              		.loc 1 214 15 is_stmt 0 view .LVU433
 1368 00de 57B9     		cbnz	r7, .L98
 214:Lib/lvgl/src/misc/lv_text.c ****             word_len--;
 1369              		.loc 1 214 23 discriminator 1 view .LVU434
 1370 00e0 BBF1FF3F 		cmp	fp, #-1
 1371 00e4 07D1     		bne	.L98
 214:Lib/lvgl/src/misc/lv_text.c ****             word_len--;
 1372              		.loc 1 214 56 discriminator 2 view .LVU435
 1373 00e6 119B     		ldr	r3, [sp, #68]
 1374 00e8 2BB1     		cbz	r3, .L98
 214:Lib/lvgl/src/misc/lv_text.c ****             word_len--;
 1375              		.loc 1 214 79 is_stmt 1 discriminator 3 view .LVU436
 214:Lib/lvgl/src/misc/lv_text.c ****             word_len--;
 1376              		.loc 1 214 91 is_stmt 0 discriminator 3 view .LVU437
 1377 00ea 1E60     		str	r6, [r3]
 1378 00ec 03E0     		b	.L98
 1379              	.LVL136:
 1380              	.L99:
 220:Lib/lvgl/src/misc/lv_text.c ****             i = i_next;
 1381              		.loc 1 220 13 is_stmt 1 view .LVU438
 220:Lib/lvgl/src/misc/lv_text.c ****             i = i_next;
 1382              		.loc 1 220 25 is_stmt 0 view .LVU439
 1383 00ee 119B     		ldr	r3, [sp, #68]
 1384 00f0 1E60     		str	r6, [r3]
 221:Lib/lvgl/src/misc/lv_text.c ****             break;
 1385              		.loc 1 221 13 is_stmt 1 view .LVU440
 221:Lib/lvgl/src/misc/lv_text.c ****             break;
 1386              		.loc 1 221 15 is_stmt 0 view .LVU441
 1387 00f2 059F     		ldr	r7, [sp, #20]
 1388              	.LVL137:
 222:Lib/lvgl/src/misc/lv_text.c ****         }
 1389              		.loc 1 222 13 is_stmt 1 view .LVU442
 194:Lib/lvgl/src/misc/lv_text.c **** 
 1390              		.loc 1 194 17 is_stmt 0 view .LVU443
 1391 00f4 D146     		mov	r9, r10
 1392              	.LVL138:
 1393              	.L98:
 234:Lib/lvgl/src/misc/lv_text.c ****         if(word_len == 0 || (letter == '\r' && letter_next == '\n')) i = i_next;
 1394              		.loc 1 234 5 is_stmt 1 view .LVU444
 234:Lib/lvgl/src/misc/lv_text.c ****         if(word_len == 0 || (letter == '\r' && letter_next == '\n')) i = i_next;
 1395              		.loc 1 234 7 is_stmt 0 view .LVU445
 1396 00f6 BBF1FF3F 		cmp	fp, #-1
 1397 00fa 09D0     		beq	.L120
 269:Lib/lvgl/src/misc/lv_text.c ****     if(word_w_ptr != NULL) *word_w_ptr = 0; /*Return no word*/
 1398              		.loc 1 269 5 is_stmt 1 view .LVU446
 269:Lib/lvgl/src/misc/lv_text.c ****     if(word_w_ptr != NULL) *word_w_ptr = 0; /*Return no word*/
 1399              		.loc 1 269 7 is_stmt 0 view .LVU447
 1400 00fc 039B     		ldr	r3, [sp, #12]
 1401 00fe D3B9     		cbnz	r3, .L87
 270:Lib/lvgl/src/misc/lv_text.c ****     (void) break_letter_count;
 1402              		.loc 1 270 5 is_stmt 1 view .LVU448
 270:Lib/lvgl/src/misc/lv_text.c ****     (void) break_letter_count;
 1403              		.loc 1 270 7 is_stmt 0 view .LVU449
 1404 0100 119B     		ldr	r3, [sp, #68]
 1405 0102 FBB1     		cbz	r3, .L114
 270:Lib/lvgl/src/misc/lv_text.c ****     (void) break_letter_count;
ARM GAS  C:\Users\Alex\AppData\Local\Temp\ccyCJmTC.s 			page 47


 1406              		.loc 1 270 28 is_stmt 1 discriminator 1 view .LVU450
 270:Lib/lvgl/src/misc/lv_text.c ****     (void) break_letter_count;
 1407              		.loc 1 270 40 is_stmt 0 discriminator 1 view .LVU451
 1408 0104 0021     		movs	r1, #0
 1409 0106 1960     		str	r1, [r3]
 272:Lib/lvgl/src/misc/lv_text.c **** #endif
 1410              		.loc 1 272 12 discriminator 1 view .LVU452
 1411 0108 8B46     		mov	fp, r1
 1412              	.LVL139:
 272:Lib/lvgl/src/misc/lv_text.c **** #endif
 1413              		.loc 1 272 12 discriminator 1 view .LVU453
 1414 010a 14E0     		b	.L87
 1415              	.LVL140:
 1416              	.L118:
 226:Lib/lvgl/src/misc/lv_text.c **** 
 1417              		.loc 1 226 65 is_stmt 1 discriminator 2 view .LVU454
 226:Lib/lvgl/src/misc/lv_text.c **** 
 1418              		.loc 1 226 77 is_stmt 0 discriminator 2 view .LVU455
 1419 010c 1E60     		str	r6, [r3]
 1420 010e C3E7     		b	.L101
 1421              	.LVL141:
 1422              	.L120:
 235:Lib/lvgl/src/misc/lv_text.c ****         return i;
 1423              		.loc 1 235 9 is_stmt 1 view .LVU456
 235:Lib/lvgl/src/misc/lv_text.c ****         return i;
 1424              		.loc 1 235 11 is_stmt 0 view .LVU457
 1425 0110 B9F1000F 		cmp	r9, #0
 1426 0114 07D0     		beq	.L104
 235:Lib/lvgl/src/misc/lv_text.c ****         return i;
 1427              		.loc 1 235 26 discriminator 2 view .LVU458
 1428 0116 0D2C     		cmp	r4, #13
 1429 0118 01D0     		beq	.L121
 1430 011a BB46     		mov	fp, r7
 1431              	.LVL142:
 235:Lib/lvgl/src/misc/lv_text.c ****         return i;
 1432              		.loc 1 235 26 discriminator 2 view .LVU459
 1433 011c 0BE0     		b	.L87
 1434              	.LVL143:
 1435              	.L121:
 235:Lib/lvgl/src/misc/lv_text.c ****         return i;
 1436              		.loc 1 235 45 discriminator 3 view .LVU460
 1437 011e 0A2D     		cmp	r5, #10
 1438 0120 01D0     		beq	.L104
 1439 0122 BB46     		mov	fp, r7
 1440              	.LVL144:
 236:Lib/lvgl/src/misc/lv_text.c ****     }
 1441              		.loc 1 236 9 is_stmt 1 view .LVU461
 236:Lib/lvgl/src/misc/lv_text.c ****     }
 1442              		.loc 1 236 16 is_stmt 0 view .LVU462
 1443 0124 07E0     		b	.L87
 1444              	.LVL145:
 1445              	.L104:
 235:Lib/lvgl/src/misc/lv_text.c ****         return i;
 1446              		.loc 1 235 70 is_stmt 1 discriminator 4 view .LVU463
 235:Lib/lvgl/src/misc/lv_text.c ****         return i;
 1447              		.loc 1 235 72 is_stmt 0 discriminator 4 view .LVU464
 1448 0126 DDF814B0 		ldr	fp, [sp, #20]
ARM GAS  C:\Users\Alex\AppData\Local\Temp\ccyCJmTC.s 			page 48


 1449              	.LVL146:
 235:Lib/lvgl/src/misc/lv_text.c ****         return i;
 1450              		.loc 1 235 72 discriminator 4 view .LVU465
 1451 012a 04E0     		b	.L87
 1452              	.LVL147:
 1453              	.L106:
 174:Lib/lvgl/src/misc/lv_text.c ****     if(font == NULL) return 0;
 1454              		.loc 1 174 46 view .LVU466
 1455 012c 4FF0000B 		mov	fp, #0
 1456 0130 01E0     		b	.L87
 1457              	.L107:
 174:Lib/lvgl/src/misc/lv_text.c ****     if(font == NULL) return 0;
 1458              		.loc 1 174 46 view .LVU467
 1459 0132 4FF0000B 		mov	fp, #0
 1460              	.LVL148:
 1461              	.L87:
 274:Lib/lvgl/src/misc/lv_text.c **** 
 1462              		.loc 1 274 1 view .LVU468
 1463 0136 5846     		mov	r0, fp
 1464 0138 07B0     		add	sp, sp, #28
 1465              	.LCFI24:
 1466              		.cfi_remember_state
 1467              		.cfi_def_cfa_offset 36
 1468              	.LVL149:
 274:Lib/lvgl/src/misc/lv_text.c **** 
 1469              		.loc 1 274 1 view .LVU469
 1470              		@ sp needed
 1471 013a BDE8F08F 		pop	{r4, r5, r6, r7, r8, r9, r10, fp, pc}
 1472              	.LVL150:
 1473              	.L108:
 1474              	.LCFI25:
 1475              		.cfi_restore_state
 175:Lib/lvgl/src/misc/lv_text.c **** 
 1476              		.loc 1 175 29 view .LVU470
 1477 013e 4FF0000B 		mov	fp, #0
 1478 0142 F8E7     		b	.L87
 1479              	.LVL151:
 1480              	.L114:
 272:Lib/lvgl/src/misc/lv_text.c **** #endif
 1481              		.loc 1 272 12 view .LVU471
 1482 0144 4FF0000B 		mov	fp, #0
 1483              	.LVL152:
 272:Lib/lvgl/src/misc/lv_text.c **** #endif
 1484              		.loc 1 272 12 view .LVU472
 1485 0148 F5E7     		b	.L87
 1486              	.L123:
 1487 014a 00BF     		.align	2
 1488              	.L122:
 1489 014c 00000000 		.word	_lv_text_encoded_next
 1490 0150 00000000 		.word	.LC0
 1491              		.cfi_endproc
 1492              	.LFE83:
 1494              		.section	.text._lv_text_get_next_line,"ax",%progbits
 1495              		.align	1
 1496              		.global	_lv_text_get_next_line
 1497              		.syntax unified
 1498              		.thumb
ARM GAS  C:\Users\Alex\AppData\Local\Temp\ccyCJmTC.s 			page 49


 1499              		.thumb_func
 1501              	_lv_text_get_next_line:
 1502              	.LVL153:
 1503              	.LFB84:
 279:Lib/lvgl/src/misc/lv_text.c ****     if(used_width) *used_width = 0;
 1504              		.loc 1 279 1 is_stmt 1 view -0
 1505              		.cfi_startproc
 1506              		@ args = 8, pretend = 0, frame = 8
 1507              		@ frame_needed = 0, uses_anonymous_args = 0
 279:Lib/lvgl/src/misc/lv_text.c ****     if(used_width) *used_width = 0;
 1508              		.loc 1 279 1 is_stmt 0 view .LVU474
 1509 0000 2DE9F04F 		push	{r4, r5, r6, r7, r8, r9, r10, fp, lr}
 1510              	.LCFI26:
 1511              		.cfi_def_cfa_offset 36
 1512              		.cfi_offset 4, -36
 1513              		.cfi_offset 5, -32
 1514              		.cfi_offset 6, -28
 1515              		.cfi_offset 7, -24
 1516              		.cfi_offset 8, -20
 1517              		.cfi_offset 9, -16
 1518              		.cfi_offset 10, -12
 1519              		.cfi_offset 11, -8
 1520              		.cfi_offset 14, -4
 1521 0004 87B0     		sub	sp, sp, #28
 1522              	.LCFI27:
 1523              		.cfi_def_cfa_offset 64
 1524 0006 0546     		mov	r5, r0
 1525 0008 8846     		mov	r8, r1
 1526 000a 9146     		mov	r9, r2
 1527 000c 1E46     		mov	r6, r3
 1528 000e DDF840B0 		ldr	fp, [sp, #64]
 1529 0012 9DF844A0 		ldrb	r10, [sp, #68]	@ zero_extendqisi2
 280:Lib/lvgl/src/misc/lv_text.c **** 
 1530              		.loc 1 280 5 is_stmt 1 view .LVU475
 280:Lib/lvgl/src/misc/lv_text.c **** 
 1531              		.loc 1 280 7 is_stmt 0 view .LVU476
 1532 0016 BBF1000F 		cmp	fp, #0
 1533 001a 02D0     		beq	.L125
 280:Lib/lvgl/src/misc/lv_text.c **** 
 1534              		.loc 1 280 20 is_stmt 1 discriminator 1 view .LVU477
 280:Lib/lvgl/src/misc/lv_text.c **** 
 1535              		.loc 1 280 32 is_stmt 0 discriminator 1 view .LVU478
 1536 001c 0023     		movs	r3, #0
 1537              	.LVL154:
 280:Lib/lvgl/src/misc/lv_text.c **** 
 1538              		.loc 1 280 32 discriminator 1 view .LVU479
 1539 001e CBF80030 		str	r3, [fp]
 1540              	.L125:
 282:Lib/lvgl/src/misc/lv_text.c ****     if(txt[0] == '\0') return 0;
 1541              		.loc 1 282 5 is_stmt 1 view .LVU480
 282:Lib/lvgl/src/misc/lv_text.c ****     if(txt[0] == '\0') return 0;
 1542              		.loc 1 282 7 is_stmt 0 view .LVU481
 1543 0022 002D     		cmp	r5, #0
 1544 0024 65D0     		beq	.L142
 283:Lib/lvgl/src/misc/lv_text.c ****     if(font == NULL) return 0;
 1545              		.loc 1 283 5 is_stmt 1 view .LVU482
 283:Lib/lvgl/src/misc/lv_text.c ****     if(font == NULL) return 0;
ARM GAS  C:\Users\Alex\AppData\Local\Temp\ccyCJmTC.s 			page 50


 1546              		.loc 1 283 11 is_stmt 0 view .LVU483
 1547 0026 2B78     		ldrb	r3, [r5]	@ zero_extendqisi2
 283:Lib/lvgl/src/misc/lv_text.c ****     if(font == NULL) return 0;
 1548              		.loc 1 283 7 view .LVU484
 1549 0028 002B     		cmp	r3, #0
 1550 002a 64D0     		beq	.L143
 284:Lib/lvgl/src/misc/lv_text.c **** 
 1551              		.loc 1 284 5 is_stmt 1 view .LVU485
 284:Lib/lvgl/src/misc/lv_text.c **** 
 1552              		.loc 1 284 7 is_stmt 0 view .LVU486
 1553 002c B8F1000F 		cmp	r8, #0
 1554 0030 63D0     		beq	.L144
 286:Lib/lvgl/src/misc/lv_text.c **** 
 1555              		.loc 1 286 5 is_stmt 1 view .LVU487
 1556              	.LVL155:
 290:Lib/lvgl/src/misc/lv_text.c ****         uint32_t i;
 1557              		.loc 1 290 5 view .LVU488
 290:Lib/lvgl/src/misc/lv_text.c ****         uint32_t i;
 1558              		.loc 1 290 7 is_stmt 0 view .LVU489
 1559 0032 1AF0030F 		tst	r10, #3
 1560 0036 5AD1     		bne	.L149
 300:Lib/lvgl/src/misc/lv_text.c ****     uint32_t i = 0;                                        /*Iterating index into txt*/
 1561              		.loc 1 300 5 is_stmt 1 view .LVU490
 300:Lib/lvgl/src/misc/lv_text.c ****     uint32_t i = 0;                                        /*Iterating index into txt*/
 1562              		.loc 1 300 7 is_stmt 0 view .LVU491
 1563 0038 1AF0010F 		tst	r10, #1
 1564 003c 01D0     		beq	.L133
 300:Lib/lvgl/src/misc/lv_text.c ****     uint32_t i = 0;                                        /*Iterating index into txt*/
 1565              		.loc 1 300 46 view .LVU492
 1566 003e 6FF06046 		mvn	r6, #-536870912
 1567              	.LVL156:
 1568              	.L133:
 301:Lib/lvgl/src/misc/lv_text.c **** 
 1569              		.loc 1 301 5 is_stmt 1 view .LVU493
 301:Lib/lvgl/src/misc/lv_text.c **** 
 1570              		.loc 1 301 14 is_stmt 0 view .LVU494
 1571 0042 0027     		movs	r7, #0
 1572 0044 0597     		str	r7, [sp, #20]
 303:Lib/lvgl/src/misc/lv_text.c ****         uint32_t word_w = 0;
 1573              		.loc 1 303 5 is_stmt 1 view .LVU495
 1574              	.LVL157:
 1575              	.L134:
 303:Lib/lvgl/src/misc/lv_text.c ****         uint32_t word_w = 0;
 1576              		.loc 1 303 26 view .LVU496
 303:Lib/lvgl/src/misc/lv_text.c ****         uint32_t word_w = 0;
 1577              		.loc 1 303 14 is_stmt 0 view .LVU497
 1578 0046 059C     		ldr	r4, [sp, #20]
 1579 0048 2819     		adds	r0, r5, r4
 1580 004a 2B5D     		ldrb	r3, [r5, r4]	@ zero_extendqisi2
 303:Lib/lvgl/src/misc/lv_text.c ****         uint32_t word_w = 0;
 1581              		.loc 1 303 26 view .LVU498
 1582 004c 23B3     		cbz	r3, .L138
 303:Lib/lvgl/src/misc/lv_text.c ****         uint32_t word_w = 0;
 1583              		.loc 1 303 26 discriminator 1 view .LVU499
 1584 004e 002E     		cmp	r6, #0
 1585 0050 22DD     		ble	.L138
 1586              	.LBB14:
ARM GAS  C:\Users\Alex\AppData\Local\Temp\ccyCJmTC.s 			page 51


 304:Lib/lvgl/src/misc/lv_text.c ****         uint32_t advance = lv_text_get_next_word(&txt[i], font, letter_space, max_width, flag, &wor
 1587              		.loc 1 304 9 is_stmt 1 view .LVU500
 304:Lib/lvgl/src/misc/lv_text.c ****         uint32_t advance = lv_text_get_next_word(&txt[i], font, letter_space, max_width, flag, &wor
 1588              		.loc 1 304 18 is_stmt 0 view .LVU501
 1589 0052 0023     		movs	r3, #0
 1590 0054 0493     		str	r3, [sp, #16]
 305:Lib/lvgl/src/misc/lv_text.c ****         max_width -= word_w;
 1591              		.loc 1 305 9 is_stmt 1 view .LVU502
 305:Lib/lvgl/src/misc/lv_text.c ****         max_width -= word_w;
 1592              		.loc 1 305 28 is_stmt 0 view .LVU503
 1593 0056 B4FA84F4 		clz	r4, r4
 1594 005a 6409     		lsrs	r4, r4, #5
 1595 005c 0294     		str	r4, [sp, #8]
 1596 005e 04AB     		add	r3, sp, #16
 1597 0060 0193     		str	r3, [sp, #4]
 1598 0062 CDF800A0 		str	r10, [sp]
 1599 0066 3346     		mov	r3, r6
 1600 0068 4A46     		mov	r2, r9
 1601 006a 4146     		mov	r1, r8
 1602 006c FFF7FEFF 		bl	lv_text_get_next_word
 1603              	.LVL158:
 306:Lib/lvgl/src/misc/lv_text.c ****         line_w += word_w;
 1604              		.loc 1 306 9 is_stmt 1 view .LVU504
 306:Lib/lvgl/src/misc/lv_text.c ****         line_w += word_w;
 1605              		.loc 1 306 19 is_stmt 0 view .LVU505
 1606 0070 049B     		ldr	r3, [sp, #16]
 1607 0072 F61A     		subs	r6, r6, r3
 1608              	.LVL159:
 307:Lib/lvgl/src/misc/lv_text.c **** 
 1609              		.loc 1 307 9 is_stmt 1 view .LVU506
 307:Lib/lvgl/src/misc/lv_text.c **** 
 1610              		.loc 1 307 16 is_stmt 0 view .LVU507
 1611 0074 1F44     		add	r7, r7, r3
 1612              	.LVL160:
 309:Lib/lvgl/src/misc/lv_text.c ****             break;
 1613              		.loc 1 309 9 is_stmt 1 view .LVU508
 309:Lib/lvgl/src/misc/lv_text.c ****             break;
 1614              		.loc 1 309 11 is_stmt 0 view .LVU509
 1615 0076 0346     		mov	r3, r0
 1616 0078 70B1     		cbz	r0, .L138
 313:Lib/lvgl/src/misc/lv_text.c **** 
 1617              		.loc 1 313 9 is_stmt 1 view .LVU510
 313:Lib/lvgl/src/misc/lv_text.c **** 
 1618              		.loc 1 313 11 is_stmt 0 view .LVU511
 1619 007a 059A     		ldr	r2, [sp, #20]
 1620 007c 1344     		add	r3, r3, r2
 1621 007e 0593     		str	r3, [sp, #20]
 315:Lib/lvgl/src/misc/lv_text.c **** 
 1622              		.loc 1 315 9 is_stmt 1 view .LVU512
 315:Lib/lvgl/src/misc/lv_text.c **** 
 1623              		.loc 1 315 15 is_stmt 0 view .LVU513
 1624 0080 2A78     		ldrb	r2, [r5]	@ zero_extendqisi2
 315:Lib/lvgl/src/misc/lv_text.c **** 
 1625              		.loc 1 315 11 view .LVU514
 1626 0082 0A2A     		cmp	r2, #10
 1627 0084 08D0     		beq	.L138
 315:Lib/lvgl/src/misc/lv_text.c **** 
ARM GAS  C:\Users\Alex\AppData\Local\Temp\ccyCJmTC.s 			page 52


 1628              		.loc 1 315 27 discriminator 1 view .LVU515
 1629 0086 0D2A     		cmp	r2, #13
 1630 0088 06D0     		beq	.L138
 317:Lib/lvgl/src/misc/lv_text.c ****             i++;  /*Include the following newline in the current line*/
 1631              		.loc 1 317 9 is_stmt 1 view .LVU516
 317:Lib/lvgl/src/misc/lv_text.c ****             i++;  /*Include the following newline in the current line*/
 1632              		.loc 1 317 15 is_stmt 0 view .LVU517
 1633 008a EA5C     		ldrb	r2, [r5, r3]	@ zero_extendqisi2
 317:Lib/lvgl/src/misc/lv_text.c ****             i++;  /*Include the following newline in the current line*/
 1634              		.loc 1 317 11 view .LVU518
 1635 008c 0A2A     		cmp	r2, #10
 1636 008e 01D0     		beq	.L136
 317:Lib/lvgl/src/misc/lv_text.c ****             i++;  /*Include the following newline in the current line*/
 1637              		.loc 1 317 27 discriminator 1 view .LVU519
 1638 0090 0D2A     		cmp	r2, #13
 1639 0092 D8D1     		bne	.L134
 1640              	.L136:
 318:Lib/lvgl/src/misc/lv_text.c ****             break;
 1641              		.loc 1 318 13 is_stmt 1 view .LVU520
 318:Lib/lvgl/src/misc/lv_text.c ****             break;
 1642              		.loc 1 318 14 is_stmt 0 view .LVU521
 1643 0094 0133     		adds	r3, r3, #1
 1644 0096 0593     		str	r3, [sp, #20]
 319:Lib/lvgl/src/misc/lv_text.c ****         }
 1645              		.loc 1 319 13 is_stmt 1 view .LVU522
 1646              	.LVL161:
 1647              	.L138:
 319:Lib/lvgl/src/misc/lv_text.c ****         }
 1648              		.loc 1 319 13 is_stmt 0 view .LVU523
 1649              	.LBE14:
 325:Lib/lvgl/src/misc/lv_text.c ****         uint32_t letter = _lv_text_encoded_next(txt, &i);
 1650              		.loc 1 325 5 is_stmt 1 view .LVU524
 325:Lib/lvgl/src/misc/lv_text.c ****         uint32_t letter = _lv_text_encoded_next(txt, &i);
 1651              		.loc 1 325 10 is_stmt 0 view .LVU525
 1652 0098 059B     		ldr	r3, [sp, #20]
 325:Lib/lvgl/src/misc/lv_text.c ****         uint32_t letter = _lv_text_encoded_next(txt, &i);
 1653              		.loc 1 325 7 view .LVU526
 1654 009a 6BB9     		cbnz	r3, .L140
 1655              	.LBB15:
 326:Lib/lvgl/src/misc/lv_text.c ****         if(used_width != NULL) {
 1656              		.loc 1 326 9 is_stmt 1 view .LVU527
 326:Lib/lvgl/src/misc/lv_text.c ****         if(used_width != NULL) {
 1657              		.loc 1 326 27 is_stmt 0 view .LVU528
 1658 009c 184B     		ldr	r3, .L150
 1659 009e 1B68     		ldr	r3, [r3]
 1660 00a0 05A9     		add	r1, sp, #20
 1661 00a2 2846     		mov	r0, r5
 1662 00a4 9847     		blx	r3
 1663              	.LVL162:
 1664 00a6 0146     		mov	r1, r0
 1665              	.LVL163:
 327:Lib/lvgl/src/misc/lv_text.c ****             line_w = lv_font_get_glyph_width(font, letter, '\0');
 1666              		.loc 1 327 9 is_stmt 1 view .LVU529
 327:Lib/lvgl/src/misc/lv_text.c ****             line_w = lv_font_get_glyph_width(font, letter, '\0');
 1667              		.loc 1 327 11 is_stmt 0 view .LVU530
 1668 00a8 BBF1000F 		cmp	fp, #0
 1669 00ac 09D0     		beq	.L141
ARM GAS  C:\Users\Alex\AppData\Local\Temp\ccyCJmTC.s 			page 53


 328:Lib/lvgl/src/misc/lv_text.c ****         }
 1670              		.loc 1 328 13 is_stmt 1 view .LVU531
 328:Lib/lvgl/src/misc/lv_text.c ****         }
 1671              		.loc 1 328 22 is_stmt 0 view .LVU532
 1672 00ae 0022     		movs	r2, #0
 1673 00b0 4046     		mov	r0, r8
 1674              	.LVL164:
 328:Lib/lvgl/src/misc/lv_text.c ****         }
 1675              		.loc 1 328 22 view .LVU533
 1676 00b2 FFF7FEFF 		bl	lv_font_get_glyph_width
 1677              	.LVL165:
 328:Lib/lvgl/src/misc/lv_text.c ****         }
 1678              		.loc 1 328 20 view .LVU534
 1679 00b6 0746     		mov	r7, r0
 1680              	.LVL166:
 1681              	.L140:
 328:Lib/lvgl/src/misc/lv_text.c ****         }
 1682              		.loc 1 328 20 view .LVU535
 1683              	.LBE15:
 332:Lib/lvgl/src/misc/lv_text.c ****         *used_width = line_w;
 1684              		.loc 1 332 5 is_stmt 1 view .LVU536
 332:Lib/lvgl/src/misc/lv_text.c ****         *used_width = line_w;
 1685              		.loc 1 332 7 is_stmt 0 view .LVU537
 1686 00b8 BBF1000F 		cmp	fp, #0
 1687 00bc 01D0     		beq	.L141
 333:Lib/lvgl/src/misc/lv_text.c ****     }
 1688              		.loc 1 333 9 is_stmt 1 view .LVU538
 333:Lib/lvgl/src/misc/lv_text.c ****     }
 1689              		.loc 1 333 21 is_stmt 0 view .LVU539
 1690 00be CBF80070 		str	r7, [fp]
 1691              	.L141:
 1692              	.LVL167:
 336:Lib/lvgl/src/misc/lv_text.c **** }
 1693              		.loc 1 336 5 is_stmt 1 view .LVU540
 336:Lib/lvgl/src/misc/lv_text.c **** }
 1694              		.loc 1 336 12 is_stmt 0 view .LVU541
 1695 00c2 0598     		ldr	r0, [sp, #20]
 1696              	.L124:
 337:Lib/lvgl/src/misc/lv_text.c **** 
 1697              		.loc 1 337 1 view .LVU542
 1698 00c4 07B0     		add	sp, sp, #28
 1699              	.LCFI28:
 1700              		.cfi_remember_state
 1701              		.cfi_def_cfa_offset 36
 1702              		@ sp needed
 1703 00c6 BDE8F08F 		pop	{r4, r5, r6, r7, r8, r9, r10, fp, pc}
 1704              	.LVL168:
 1705              	.L130:
 1706              	.LCFI29:
 1707              		.cfi_restore_state
 1708              	.LBB16:
 294:Lib/lvgl/src/misc/lv_text.c ****         if(txt[i] != '\0') i++;    /*To go beyond `\n`*/
 1709              		.loc 1 294 9 is_stmt 1 discriminator 5 view .LVU543
 292:Lib/lvgl/src/misc/lv_text.c ****             /*Just find the new line chars or string ends by incrementing `i`*/
 1710              		.loc 1 292 73 discriminator 5 view .LVU544
 1711 00ca 0130     		adds	r0, r0, #1
 1712              	.LVL169:
ARM GAS  C:\Users\Alex\AppData\Local\Temp\ccyCJmTC.s 			page 54


 1713              	.L127:
 292:Lib/lvgl/src/misc/lv_text.c ****             /*Just find the new line chars or string ends by incrementing `i`*/
 1714              		.loc 1 292 53 discriminator 1 view .LVU545
 292:Lib/lvgl/src/misc/lv_text.c ****             /*Just find the new line chars or string ends by incrementing `i`*/
 1715              		.loc 1 292 23 is_stmt 0 discriminator 1 view .LVU546
 1716 00cc 2B5C     		ldrb	r3, [r5, r0]	@ zero_extendqisi2
 292:Lib/lvgl/src/misc/lv_text.c ****             /*Just find the new line chars or string ends by incrementing `i`*/
 1717              		.loc 1 292 53 discriminator 1 view .LVU547
 1718 00ce 0A2B     		cmp	r3, #10
 1719 00d0 03D0     		beq	.L129
 292:Lib/lvgl/src/misc/lv_text.c ****             /*Just find the new line chars or string ends by incrementing `i`*/
 1720              		.loc 1 292 35 discriminator 3 view .LVU548
 1721 00d2 0D2B     		cmp	r3, #13
 1722 00d4 01D0     		beq	.L129
 292:Lib/lvgl/src/misc/lv_text.c ****             /*Just find the new line chars or string ends by incrementing `i`*/
 1723              		.loc 1 292 53 discriminator 4 view .LVU549
 1724 00d6 002B     		cmp	r3, #0
 1725 00d8 F7D1     		bne	.L130
 1726              	.L129:
 295:Lib/lvgl/src/misc/lv_text.c ****         if(used_width) *used_width = -1;
 1727              		.loc 1 295 9 is_stmt 1 view .LVU550
 295:Lib/lvgl/src/misc/lv_text.c ****         if(used_width) *used_width = -1;
 1728              		.loc 1 295 11 is_stmt 0 view .LVU551
 1729 00da 03B1     		cbz	r3, .L131
 295:Lib/lvgl/src/misc/lv_text.c ****         if(used_width) *used_width = -1;
 1730              		.loc 1 295 28 is_stmt 1 discriminator 1 view .LVU552
 295:Lib/lvgl/src/misc/lv_text.c ****         if(used_width) *used_width = -1;
 1731              		.loc 1 295 29 is_stmt 0 discriminator 1 view .LVU553
 1732 00dc 0130     		adds	r0, r0, #1
 1733              	.LVL170:
 1734              	.L131:
 296:Lib/lvgl/src/misc/lv_text.c ****         return i;
 1735              		.loc 1 296 9 is_stmt 1 view .LVU554
 296:Lib/lvgl/src/misc/lv_text.c ****         return i;
 1736              		.loc 1 296 11 is_stmt 0 view .LVU555
 1737 00de BBF1000F 		cmp	fp, #0
 1738 00e2 EFD0     		beq	.L124
 296:Lib/lvgl/src/misc/lv_text.c ****         return i;
 1739              		.loc 1 296 24 is_stmt 1 discriminator 1 view .LVU556
 296:Lib/lvgl/src/misc/lv_text.c ****         return i;
 1740              		.loc 1 296 36 is_stmt 0 discriminator 1 view .LVU557
 1741 00e4 4FF0FF33 		mov	r3, #-1
 1742 00e8 CBF80030 		str	r3, [fp]
 297:Lib/lvgl/src/misc/lv_text.c ****     }
 1743              		.loc 1 297 9 is_stmt 1 discriminator 1 view .LVU558
 297:Lib/lvgl/src/misc/lv_text.c ****     }
 1744              		.loc 1 297 16 is_stmt 0 discriminator 1 view .LVU559
 1745 00ec EAE7     		b	.L124
 1746              	.LVL171:
 1747              	.L149:
 292:Lib/lvgl/src/misc/lv_text.c ****             /*Just find the new line chars or string ends by incrementing `i`*/
 1748              		.loc 1 292 15 view .LVU560
 1749 00ee 0020     		movs	r0, #0
 1750              	.LVL172:
 292:Lib/lvgl/src/misc/lv_text.c ****             /*Just find the new line chars or string ends by incrementing `i`*/
 1751              		.loc 1 292 15 view .LVU561
 1752 00f0 ECE7     		b	.L127
ARM GAS  C:\Users\Alex\AppData\Local\Temp\ccyCJmTC.s 			page 55


 1753              	.LVL173:
 1754              	.L142:
 292:Lib/lvgl/src/misc/lv_text.c ****             /*Just find the new line chars or string ends by incrementing `i`*/
 1755              		.loc 1 292 15 view .LVU562
 1756              	.LBE16:
 282:Lib/lvgl/src/misc/lv_text.c ****     if(txt[0] == '\0') return 0;
 1757              		.loc 1 282 28 view .LVU563
 1758 00f2 0020     		movs	r0, #0
 1759              	.LVL174:
 282:Lib/lvgl/src/misc/lv_text.c ****     if(txt[0] == '\0') return 0;
 1760              		.loc 1 282 28 view .LVU564
 1761 00f4 E6E7     		b	.L124
 1762              	.LVL175:
 1763              	.L143:
 283:Lib/lvgl/src/misc/lv_text.c ****     if(font == NULL) return 0;
 1764              		.loc 1 283 31 view .LVU565
 1765 00f6 0020     		movs	r0, #0
 1766              	.LVL176:
 283:Lib/lvgl/src/misc/lv_text.c ****     if(font == NULL) return 0;
 1767              		.loc 1 283 31 view .LVU566
 1768 00f8 E4E7     		b	.L124
 1769              	.LVL177:
 1770              	.L144:
 284:Lib/lvgl/src/misc/lv_text.c **** 
 1771              		.loc 1 284 29 view .LVU567
 1772 00fa 0020     		movs	r0, #0
 1773              	.LVL178:
 284:Lib/lvgl/src/misc/lv_text.c **** 
 1774              		.loc 1 284 29 view .LVU568
 1775 00fc E2E7     		b	.L124
 1776              	.L151:
 1777 00fe 00BF     		.align	2
 1778              	.L150:
 1779 0100 00000000 		.word	_lv_text_encoded_next
 1780              		.cfi_endproc
 1781              	.LFE84:
 1783              		.section	.text._lv_text_ins,"ax",%progbits
 1784              		.align	1
 1785              		.global	_lv_text_ins
 1786              		.syntax unified
 1787              		.thumb
 1788              		.thumb_func
 1790              	_lv_text_ins:
 1791              	.LVL179:
 1792              	.LFB86:
 371:Lib/lvgl/src/misc/lv_text.c ****     if(txt_buf == NULL || ins_txt == NULL) return;
 1793              		.loc 1 371 1 is_stmt 1 view -0
 1794              		.cfi_startproc
 1795              		@ args = 0, pretend = 0, frame = 0
 1796              		@ frame_needed = 0, uses_anonymous_args = 0
 372:Lib/lvgl/src/misc/lv_text.c **** 
 1797              		.loc 1 372 5 view .LVU570
 372:Lib/lvgl/src/misc/lv_text.c **** 
 1798              		.loc 1 372 7 is_stmt 0 view .LVU571
 1799 0000 10B3     		cbz	r0, .L157
 371:Lib/lvgl/src/misc/lv_text.c ****     if(txt_buf == NULL || ins_txt == NULL) return;
 1800              		.loc 1 371 1 discriminator 2 view .LVU572
ARM GAS  C:\Users\Alex\AppData\Local\Temp\ccyCJmTC.s 			page 56


 1801 0002 2DE9F041 		push	{r4, r5, r6, r7, r8, lr}
 1802              	.LCFI30:
 1803              		.cfi_def_cfa_offset 24
 1804              		.cfi_offset 4, -24
 1805              		.cfi_offset 5, -20
 1806              		.cfi_offset 6, -16
 1807              		.cfi_offset 7, -12
 1808              		.cfi_offset 8, -8
 1809              		.cfi_offset 14, -4
 1810 0006 8846     		mov	r8, r1
 1811 0008 1746     		mov	r7, r2
 1812 000a 0546     		mov	r5, r0
 372:Lib/lvgl/src/misc/lv_text.c **** 
 1813              		.loc 1 372 24 discriminator 2 view .LVU573
 1814 000c D2B1     		cbz	r2, .L152
 374:Lib/lvgl/src/misc/lv_text.c ****     size_t ins_len = lv_strlen(ins_txt);
 1815              		.loc 1 374 5 is_stmt 1 view .LVU574
 374:Lib/lvgl/src/misc/lv_text.c ****     size_t ins_len = lv_strlen(ins_txt);
 1816              		.loc 1 374 22 is_stmt 0 view .LVU575
 1817 000e FFF7FEFF 		bl	lv_strlen
 1818              	.LVL180:
 374:Lib/lvgl/src/misc/lv_text.c ****     size_t ins_len = lv_strlen(ins_txt);
 1819              		.loc 1 374 22 view .LVU576
 1820 0012 0446     		mov	r4, r0
 1821              	.LVL181:
 375:Lib/lvgl/src/misc/lv_text.c ****     if(ins_len == 0) return;
 1822              		.loc 1 375 5 is_stmt 1 view .LVU577
 375:Lib/lvgl/src/misc/lv_text.c ****     if(ins_len == 0) return;
 1823              		.loc 1 375 22 is_stmt 0 view .LVU578
 1824 0014 3846     		mov	r0, r7
 1825              	.LVL182:
 375:Lib/lvgl/src/misc/lv_text.c ****     if(ins_len == 0) return;
 1826              		.loc 1 375 22 view .LVU579
 1827 0016 FFF7FEFF 		bl	lv_strlen
 1828              	.LVL183:
 376:Lib/lvgl/src/misc/lv_text.c **** 
 1829              		.loc 1 376 5 is_stmt 1 view .LVU580
 376:Lib/lvgl/src/misc/lv_text.c **** 
 1830              		.loc 1 376 7 is_stmt 0 view .LVU581
 1831 001a 0646     		mov	r6, r0
 1832 001c 90B1     		cbz	r0, .L152
 378:Lib/lvgl/src/misc/lv_text.c ****     pos              = _lv_text_encoded_get_byte_id(txt_buf, pos); /*Convert to byte index instead 
 1833              		.loc 1 378 5 is_stmt 1 view .LVU582
 378:Lib/lvgl/src/misc/lv_text.c ****     pos              = _lv_text_encoded_get_byte_id(txt_buf, pos); /*Convert to byte index instead 
 1834              		.loc 1 378 12 is_stmt 0 view .LVU583
 1835 001e 0444     		add	r4, r4, r0
 1836              	.LVL184:
 379:Lib/lvgl/src/misc/lv_text.c **** 
 1837              		.loc 1 379 5 is_stmt 1 view .LVU584
 379:Lib/lvgl/src/misc/lv_text.c **** 
 1838              		.loc 1 379 24 is_stmt 0 view .LVU585
 1839 0020 0A4B     		ldr	r3, .L160
 1840 0022 1B68     		ldr	r3, [r3]
 1841 0024 4146     		mov	r1, r8
 1842 0026 2846     		mov	r0, r5
 1843              	.LVL185:
 379:Lib/lvgl/src/misc/lv_text.c **** 
ARM GAS  C:\Users\Alex\AppData\Local\Temp\ccyCJmTC.s 			page 57


 1844              		.loc 1 379 24 view .LVU586
 1845 0028 9847     		blx	r3
 1846              	.LVL186:
 382:Lib/lvgl/src/misc/lv_text.c ****     for(i = new_len; i >= pos + ins_len; i--) {
 1847              		.loc 1 382 5 is_stmt 1 view .LVU587
 383:Lib/lvgl/src/misc/lv_text.c ****         txt_buf[i] = txt_buf[i - ins_len];
 1848              		.loc 1 383 5 view .LVU588
 383:Lib/lvgl/src/misc/lv_text.c ****         txt_buf[i] = txt_buf[i - ins_len];
 1849              		.loc 1 383 5 is_stmt 0 view .LVU589
 1850 002a 03E0     		b	.L154
 1851              	.LVL187:
 1852              	.L155:
 384:Lib/lvgl/src/misc/lv_text.c ****     }
 1853              		.loc 1 384 9 is_stmt 1 discriminator 3 view .LVU590
 384:Lib/lvgl/src/misc/lv_text.c ****     }
 1854              		.loc 1 384 32 is_stmt 0 discriminator 3 view .LVU591
 1855 002c A31B     		subs	r3, r4, r6
 384:Lib/lvgl/src/misc/lv_text.c ****     }
 1856              		.loc 1 384 29 discriminator 3 view .LVU592
 1857 002e EB5C     		ldrb	r3, [r5, r3]	@ zero_extendqisi2
 384:Lib/lvgl/src/misc/lv_text.c ****     }
 1858              		.loc 1 384 20 discriminator 3 view .LVU593
 1859 0030 2B55     		strb	r3, [r5, r4]
 383:Lib/lvgl/src/misc/lv_text.c ****         txt_buf[i] = txt_buf[i - ins_len];
 1860              		.loc 1 383 43 is_stmt 1 discriminator 3 view .LVU594
 1861 0032 013C     		subs	r4, r4, #1
 1862              	.LVL188:
 1863              	.L154:
 383:Lib/lvgl/src/misc/lv_text.c ****         txt_buf[i] = txt_buf[i - ins_len];
 1864              		.loc 1 383 24 discriminator 1 view .LVU595
 383:Lib/lvgl/src/misc/lv_text.c ****         txt_buf[i] = txt_buf[i - ins_len];
 1865              		.loc 1 383 31 is_stmt 0 discriminator 1 view .LVU596
 1866 0034 3318     		adds	r3, r6, r0
 383:Lib/lvgl/src/misc/lv_text.c ****         txt_buf[i] = txt_buf[i - ins_len];
 1867              		.loc 1 383 24 discriminator 1 view .LVU597
 1868 0036 A342     		cmp	r3, r4
 1869 0038 F8D9     		bls	.L155
 388:Lib/lvgl/src/misc/lv_text.c **** }
 1870              		.loc 1 388 5 is_stmt 1 view .LVU598
 1871 003a 3246     		mov	r2, r6
 1872 003c 3946     		mov	r1, r7
 1873 003e 2844     		add	r0, r0, r5
 1874              	.LVL189:
 388:Lib/lvgl/src/misc/lv_text.c **** }
 1875              		.loc 1 388 5 is_stmt 0 view .LVU599
 1876 0040 FFF7FEFF 		bl	lv_memcpy
 1877              	.LVL190:
 1878              	.L152:
 389:Lib/lvgl/src/misc/lv_text.c **** 
 1879              		.loc 1 389 1 view .LVU600
 1880 0044 BDE8F081 		pop	{r4, r5, r6, r7, r8, pc}
 1881              	.LVL191:
 1882              	.L157:
 1883              	.LCFI31:
 1884              		.cfi_def_cfa_offset 0
 1885              		.cfi_restore 4
 1886              		.cfi_restore 5
ARM GAS  C:\Users\Alex\AppData\Local\Temp\ccyCJmTC.s 			page 58


 1887              		.cfi_restore 6
 1888              		.cfi_restore 7
 1889              		.cfi_restore 8
 1890              		.cfi_restore 14
 389:Lib/lvgl/src/misc/lv_text.c **** 
 1891              		.loc 1 389 1 view .LVU601
 1892 0048 7047     		bx	lr
 1893              	.L161:
 1894 004a 00BF     		.align	2
 1895              	.L160:
 1896 004c 00000000 		.word	_lv_text_encoded_get_byte_id
 1897              		.cfi_endproc
 1898              	.LFE86:
 1900              		.section	.text._lv_text_cut,"ax",%progbits
 1901              		.align	1
 1902              		.global	_lv_text_cut
 1903              		.syntax unified
 1904              		.thumb
 1905              		.thumb_func
 1907              	_lv_text_cut:
 1908              	.LVL192:
 1909              	.LFB87:
 392:Lib/lvgl/src/misc/lv_text.c ****     if(txt == NULL) return;
 1910              		.loc 1 392 1 is_stmt 1 view -0
 1911              		.cfi_startproc
 1912              		@ args = 0, pretend = 0, frame = 0
 1913              		@ frame_needed = 0, uses_anonymous_args = 0
 393:Lib/lvgl/src/misc/lv_text.c **** 
 1914              		.loc 1 393 5 view .LVU603
 393:Lib/lvgl/src/misc/lv_text.c **** 
 1915              		.loc 1 393 7 is_stmt 0 view .LVU604
 1916 0000 D8B1     		cbz	r0, .L167
 392:Lib/lvgl/src/misc/lv_text.c ****     if(txt == NULL) return;
 1917              		.loc 1 392 1 view .LVU605
 1918 0002 2DE9F041 		push	{r4, r5, r6, r7, r8, lr}
 1919              	.LCFI32:
 1920              		.cfi_def_cfa_offset 24
 1921              		.cfi_offset 4, -24
 1922              		.cfi_offset 5, -20
 1923              		.cfi_offset 6, -16
 1924              		.cfi_offset 7, -12
 1925              		.cfi_offset 8, -8
 1926              		.cfi_offset 14, -4
 1927 0006 0C46     		mov	r4, r1
 1928 0008 9046     		mov	r8, r2
 1929 000a 0546     		mov	r5, r0
 395:Lib/lvgl/src/misc/lv_text.c **** 
 1930              		.loc 1 395 5 is_stmt 1 view .LVU606
 395:Lib/lvgl/src/misc/lv_text.c **** 
 1931              		.loc 1 395 22 is_stmt 0 view .LVU607
 1932 000c FFF7FEFF 		bl	lv_strlen
 1933              	.LVL193:
 395:Lib/lvgl/src/misc/lv_text.c **** 
 1934              		.loc 1 395 22 view .LVU608
 1935 0010 0646     		mov	r6, r0
 1936              	.LVL194:
 397:Lib/lvgl/src/misc/lv_text.c ****     len = _lv_text_encoded_get_byte_id(&txt[pos], len);
ARM GAS  C:\Users\Alex\AppData\Local\Temp\ccyCJmTC.s 			page 59


 1937              		.loc 1 397 5 is_stmt 1 view .LVU609
 397:Lib/lvgl/src/misc/lv_text.c ****     len = _lv_text_encoded_get_byte_id(&txt[pos], len);
 1938              		.loc 1 397 11 is_stmt 0 view .LVU610
 1939 0012 0A4F     		ldr	r7, .L170
 1940 0014 3B68     		ldr	r3, [r7]
 1941 0016 2146     		mov	r1, r4
 1942 0018 2846     		mov	r0, r5
 1943              	.LVL195:
 397:Lib/lvgl/src/misc/lv_text.c ****     len = _lv_text_encoded_get_byte_id(&txt[pos], len);
 1944              		.loc 1 397 11 view .LVU611
 1945 001a 9847     		blx	r3
 1946              	.LVL196:
 1947 001c 0446     		mov	r4, r0
 1948              	.LVL197:
 398:Lib/lvgl/src/misc/lv_text.c **** 
 1949              		.loc 1 398 5 is_stmt 1 view .LVU612
 398:Lib/lvgl/src/misc/lv_text.c **** 
 1950              		.loc 1 398 11 is_stmt 0 view .LVU613
 1951 001e 3B68     		ldr	r3, [r7]
 1952 0020 4146     		mov	r1, r8
 1953 0022 2818     		adds	r0, r5, r0
 1954              	.LVL198:
 398:Lib/lvgl/src/misc/lv_text.c **** 
 1955              		.loc 1 398 11 view .LVU614
 1956 0024 9847     		blx	r3
 1957              	.LVL199:
 401:Lib/lvgl/src/misc/lv_text.c ****     for(i = pos; i <= old_len - len; i++) {
 1958              		.loc 1 401 5 is_stmt 1 view .LVU615
 402:Lib/lvgl/src/misc/lv_text.c ****         txt[i] = txt[i + len];
 1959              		.loc 1 402 5 view .LVU616
 402:Lib/lvgl/src/misc/lv_text.c ****         txt[i] = txt[i + len];
 1960              		.loc 1 402 5 is_stmt 0 view .LVU617
 1961 0026 03E0     		b	.L164
 1962              	.LVL200:
 1963              	.L165:
 403:Lib/lvgl/src/misc/lv_text.c ****     }
 1964              		.loc 1 403 9 is_stmt 1 discriminator 3 view .LVU618
 403:Lib/lvgl/src/misc/lv_text.c ****     }
 1965              		.loc 1 403 24 is_stmt 0 discriminator 3 view .LVU619
 1966 0028 2318     		adds	r3, r4, r0
 403:Lib/lvgl/src/misc/lv_text.c ****     }
 1967              		.loc 1 403 21 discriminator 3 view .LVU620
 1968 002a EB5C     		ldrb	r3, [r5, r3]	@ zero_extendqisi2
 403:Lib/lvgl/src/misc/lv_text.c ****     }
 1969              		.loc 1 403 16 discriminator 3 view .LVU621
 1970 002c 2B55     		strb	r3, [r5, r4]
 402:Lib/lvgl/src/misc/lv_text.c ****         txt[i] = txt[i + len];
 1971              		.loc 1 402 39 is_stmt 1 discriminator 3 view .LVU622
 1972 002e 0134     		adds	r4, r4, #1
 1973              	.LVL201:
 1974              	.L164:
 402:Lib/lvgl/src/misc/lv_text.c ****         txt[i] = txt[i + len];
 1975              		.loc 1 402 20 discriminator 1 view .LVU623
 402:Lib/lvgl/src/misc/lv_text.c ****         txt[i] = txt[i + len];
 1976              		.loc 1 402 31 is_stmt 0 discriminator 1 view .LVU624
 1977 0030 331A     		subs	r3, r6, r0
 402:Lib/lvgl/src/misc/lv_text.c ****         txt[i] = txt[i + len];
ARM GAS  C:\Users\Alex\AppData\Local\Temp\ccyCJmTC.s 			page 60


 1978              		.loc 1 402 20 discriminator 1 view .LVU625
 1979 0032 A342     		cmp	r3, r4
 1980 0034 F8D2     		bcs	.L165
 405:Lib/lvgl/src/misc/lv_text.c **** 
 1981              		.loc 1 405 1 view .LVU626
 1982 0036 BDE8F081 		pop	{r4, r5, r6, r7, r8, pc}
 1983              	.LVL202:
 1984              	.L167:
 1985              	.LCFI33:
 1986              		.cfi_def_cfa_offset 0
 1987              		.cfi_restore 4
 1988              		.cfi_restore 5
 1989              		.cfi_restore 6
 1990              		.cfi_restore 7
 1991              		.cfi_restore 8
 1992              		.cfi_restore 14
 405:Lib/lvgl/src/misc/lv_text.c **** 
 1993              		.loc 1 405 1 view .LVU627
 1994 003a 7047     		bx	lr
 1995              	.L171:
 1996              		.align	2
 1997              	.L170:
 1998 003c 00000000 		.word	_lv_text_encoded_get_byte_id
 1999              		.cfi_endproc
 2000              	.LFE87:
 2002              		.section	.text._lv_text_set_text_vfmt,"ax",%progbits
 2003              		.align	1
 2004              		.global	_lv_text_set_text_vfmt
 2005              		.syntax unified
 2006              		.thumb
 2007              		.thumb_func
 2009              	_lv_text_set_text_vfmt:
 2010              	.LVL203:
 2011              	.LFB88:
 408:Lib/lvgl/src/misc/lv_text.c ****     /*Allocate space for the new text by using trick from C99 standard section 7.19.6.12*/
 2012              		.loc 1 408 1 is_stmt 1 view -0
 2013              		.cfi_startproc
 2014              		@ args = 0, pretend = 0, frame = 8
 2015              		@ frame_needed = 0, uses_anonymous_args = 0
 408:Lib/lvgl/src/misc/lv_text.c ****     /*Allocate space for the new text by using trick from C99 standard section 7.19.6.12*/
 2016              		.loc 1 408 1 is_stmt 0 view .LVU629
 2017 0000 F0B5     		push	{r4, r5, r6, r7, lr}
 2018              	.LCFI34:
 2019              		.cfi_def_cfa_offset 20
 2020              		.cfi_offset 4, -20
 2021              		.cfi_offset 5, -16
 2022              		.cfi_offset 6, -12
 2023              		.cfi_offset 7, -8
 2024              		.cfi_offset 14, -4
 2025 0002 83B0     		sub	sp, sp, #12
 2026              	.LCFI35:
 2027              		.cfi_def_cfa_offset 32
 2028 0004 0646     		mov	r6, r0
 2029 0006 0C46     		mov	r4, r1
 2030              	.LVL204:
 410:Lib/lvgl/src/misc/lv_text.c ****     va_copy(ap_copy, ap);
 2031              		.loc 1 410 5 is_stmt 1 view .LVU630
ARM GAS  C:\Users\Alex\AppData\Local\Temp\ccyCJmTC.s 			page 61


 411:Lib/lvgl/src/misc/lv_text.c ****     uint32_t len = lv_vsnprintf(NULL, 0, fmt, ap_copy);
 2032              		.loc 1 411 5 view .LVU631
 411:Lib/lvgl/src/misc/lv_text.c ****     uint32_t len = lv_vsnprintf(NULL, 0, fmt, ap_copy);
 2033              		.loc 1 411 5 is_stmt 0 view .LVU632
 2034 0008 0191     		str	r1, [sp, #4]
 412:Lib/lvgl/src/misc/lv_text.c ****     va_end(ap_copy);
 2035              		.loc 1 412 5 is_stmt 1 view .LVU633
 412:Lib/lvgl/src/misc/lv_text.c ****     va_end(ap_copy);
 2036              		.loc 1 412 20 is_stmt 0 view .LVU634
 2037 000a 0B46     		mov	r3, r1
 2038 000c 0246     		mov	r2, r0
 2039 000e 0021     		movs	r1, #0
 2040              	.LVL205:
 412:Lib/lvgl/src/misc/lv_text.c ****     va_end(ap_copy);
 2041              		.loc 1 412 20 view .LVU635
 2042 0010 0846     		mov	r0, r1
 2043              	.LVL206:
 412:Lib/lvgl/src/misc/lv_text.c ****     va_end(ap_copy);
 2044              		.loc 1 412 20 view .LVU636
 2045 0012 FFF7FEFF 		bl	lv_vsnprintf
 2046              	.LVL207:
 413:Lib/lvgl/src/misc/lv_text.c **** 
 2047              		.loc 1 413 5 is_stmt 1 view .LVU637
 415:Lib/lvgl/src/misc/lv_text.c **** #if LV_USE_ARABIC_PERSIAN_CHARS
 2048              		.loc 1 415 5 view .LVU638
 437:Lib/lvgl/src/misc/lv_text.c ****     LV_ASSERT_MALLOC(text);
 2049              		.loc 1 437 5 view .LVU639
 437:Lib/lvgl/src/misc/lv_text.c ****     LV_ASSERT_MALLOC(text);
 2050              		.loc 1 437 26 is_stmt 0 view .LVU640
 2051 0016 451C     		adds	r5, r0, #1
 437:Lib/lvgl/src/misc/lv_text.c ****     LV_ASSERT_MALLOC(text);
 2052              		.loc 1 437 12 view .LVU641
 2053 0018 2846     		mov	r0, r5
 2054              	.LVL208:
 437:Lib/lvgl/src/misc/lv_text.c ****     LV_ASSERT_MALLOC(text);
 2055              		.loc 1 437 12 view .LVU642
 2056 001a FFF7FEFF 		bl	lv_malloc
 2057              	.LVL209:
 438:Lib/lvgl/src/misc/lv_text.c ****     if(text == NULL) {
 2058              		.loc 1 438 5 is_stmt 1 view .LVU643
 438:Lib/lvgl/src/misc/lv_text.c ****     if(text == NULL) {
 2059              		.loc 1 438 5 view .LVU644
 2060 001e 40B1     		cbz	r0, .L174
 2061 0020 0746     		mov	r7, r0
 438:Lib/lvgl/src/misc/lv_text.c ****     if(text == NULL) {
 2062              		.loc 1 438 5 view .LVU645
 438:Lib/lvgl/src/misc/lv_text.c ****     if(text == NULL) {
 2063              		.loc 1 438 27 view .LVU646
 439:Lib/lvgl/src/misc/lv_text.c ****         return NULL;
 2064              		.loc 1 439 5 view .LVU647
 443:Lib/lvgl/src/misc/lv_text.c **** #endif
 2065              		.loc 1 443 5 view .LVU648
 2066              	.LVL210:
 443:Lib/lvgl/src/misc/lv_text.c **** #endif
 2067              		.loc 1 443 5 is_stmt 0 view .LVU649
 2068 0022 2346     		mov	r3, r4
 2069 0024 3246     		mov	r2, r6
ARM GAS  C:\Users\Alex\AppData\Local\Temp\ccyCJmTC.s 			page 62


 2070 0026 2946     		mov	r1, r5
 2071 0028 FFF7FEFF 		bl	lv_vsnprintf
 2072              	.LVL211:
 446:Lib/lvgl/src/misc/lv_text.c **** }
 2073              		.loc 1 446 5 is_stmt 1 view .LVU650
 447:Lib/lvgl/src/misc/lv_text.c **** 
 2074              		.loc 1 447 1 is_stmt 0 view .LVU651
 2075 002c 3846     		mov	r0, r7
 2076 002e 03B0     		add	sp, sp, #12
 2077              	.LCFI36:
 2078              		.cfi_remember_state
 2079              		.cfi_def_cfa_offset 20
 2080              		@ sp needed
 2081 0030 F0BD     		pop	{r4, r5, r6, r7, pc}
 2082              	.LVL212:
 2083              	.L174:
 2084              	.LCFI37:
 2085              		.cfi_restore_state
 438:Lib/lvgl/src/misc/lv_text.c ****     if(text == NULL) {
 2086              		.loc 1 438 5 is_stmt 1 discriminator 1 view .LVU652
 438:Lib/lvgl/src/misc/lv_text.c ****     if(text == NULL) {
 2087              		.loc 1 438 5 discriminator 1 view .LVU653
 438:Lib/lvgl/src/misc/lv_text.c ****     if(text == NULL) {
 2088              		.loc 1 438 5 discriminator 1 view .LVU654
 438:Lib/lvgl/src/misc/lv_text.c ****     if(text == NULL) {
 2089              		.loc 1 438 5 discriminator 1 view .LVU655
 438:Lib/lvgl/src/misc/lv_text.c ****     if(text == NULL) {
 2090              		.loc 1 438 5 discriminator 1 view .LVU656
 2091 0032 FEE7     		b	.L174
 2092              		.cfi_endproc
 2093              	.LFE88:
 2095              		.section	.text._lv_text_encoded_letter_next_2,"ax",%progbits
 2096              		.align	1
 2097              		.global	_lv_text_encoded_letter_next_2
 2098              		.syntax unified
 2099              		.thumb
 2100              		.thumb_func
 2102              	_lv_text_encoded_letter_next_2:
 2103              	.LVL213:
 2104              	.LFB89:
 450:Lib/lvgl/src/misc/lv_text.c ****     *letter = _lv_text_encoded_next(txt, ofs);
 2105              		.loc 1 450 1 view -0
 2106              		.cfi_startproc
 2107              		@ args = 0, pretend = 0, frame = 0
 2108              		@ frame_needed = 0, uses_anonymous_args = 0
 450:Lib/lvgl/src/misc/lv_text.c ****     *letter = _lv_text_encoded_next(txt, ofs);
 2109              		.loc 1 450 1 is_stmt 0 view .LVU658
 2110 0000 F8B5     		push	{r3, r4, r5, r6, r7, lr}
 2111              	.LCFI38:
 2112              		.cfi_def_cfa_offset 24
 2113              		.cfi_offset 3, -24
 2114              		.cfi_offset 4, -20
 2115              		.cfi_offset 5, -16
 2116              		.cfi_offset 6, -12
 2117              		.cfi_offset 7, -8
 2118              		.cfi_offset 14, -4
 2119 0002 0746     		mov	r7, r0
ARM GAS  C:\Users\Alex\AppData\Local\Temp\ccyCJmTC.s 			page 63


 2120 0004 0E46     		mov	r6, r1
 2121 0006 1546     		mov	r5, r2
 2122 0008 1C46     		mov	r4, r3
 451:Lib/lvgl/src/misc/lv_text.c ****     *letter_next = *letter != '\0' ? _lv_text_encoded_next(&txt[*ofs], NULL) : 0;
 2123              		.loc 1 451 5 is_stmt 1 view .LVU659
 451:Lib/lvgl/src/misc/lv_text.c ****     *letter_next = *letter != '\0' ? _lv_text_encoded_next(&txt[*ofs], NULL) : 0;
 2124              		.loc 1 451 15 is_stmt 0 view .LVU660
 2125 000a 074B     		ldr	r3, .L179
 2126              	.LVL214:
 451:Lib/lvgl/src/misc/lv_text.c ****     *letter_next = *letter != '\0' ? _lv_text_encoded_next(&txt[*ofs], NULL) : 0;
 2127              		.loc 1 451 15 view .LVU661
 2128 000c 1B68     		ldr	r3, [r3]
 2129 000e 2146     		mov	r1, r4
 2130              	.LVL215:
 451:Lib/lvgl/src/misc/lv_text.c ****     *letter_next = *letter != '\0' ? _lv_text_encoded_next(&txt[*ofs], NULL) : 0;
 2131              		.loc 1 451 15 view .LVU662
 2132 0010 9847     		blx	r3
 2133              	.LVL216:
 451:Lib/lvgl/src/misc/lv_text.c ****     *letter_next = *letter != '\0' ? _lv_text_encoded_next(&txt[*ofs], NULL) : 0;
 2134              		.loc 1 451 13 view .LVU663
 2135 0012 3060     		str	r0, [r6]
 452:Lib/lvgl/src/misc/lv_text.c **** }
 2136              		.loc 1 452 5 is_stmt 1 view .LVU664
 452:Lib/lvgl/src/misc/lv_text.c **** }
 2137              		.loc 1 452 78 is_stmt 0 view .LVU665
 2138 0014 28B1     		cbz	r0, .L177
 452:Lib/lvgl/src/misc/lv_text.c **** }
 2139              		.loc 1 452 65 discriminator 1 view .LVU666
 2140 0016 2068     		ldr	r0, [r4]
 452:Lib/lvgl/src/misc/lv_text.c **** }
 2141              		.loc 1 452 38 discriminator 1 view .LVU667
 2142 0018 034B     		ldr	r3, .L179
 2143 001a 1B68     		ldr	r3, [r3]
 2144 001c 0021     		movs	r1, #0
 2145 001e 3844     		add	r0, r0, r7
 2146 0020 9847     		blx	r3
 2147              	.LVL217:
 2148              	.L177:
 452:Lib/lvgl/src/misc/lv_text.c **** }
 2149              		.loc 1 452 18 discriminator 4 view .LVU668
 2150 0022 2860     		str	r0, [r5]
 453:Lib/lvgl/src/misc/lv_text.c **** 
 2151              		.loc 1 453 1 discriminator 4 view .LVU669
 2152 0024 F8BD     		pop	{r3, r4, r5, r6, r7, pc}
 2153              	.LVL218:
 2154              	.L180:
 453:Lib/lvgl/src/misc/lv_text.c **** 
 2155              		.loc 1 453 1 discriminator 4 view .LVU670
 2156 0026 00BF     		.align	2
 2157              	.L179:
 2158 0028 00000000 		.word	_lv_text_encoded_next
 2159              		.cfi_endproc
 2160              	.LFE89:
 2162              		.section	.text.lv_text_get_width,"ax",%progbits
 2163              		.align	1
 2164              		.global	lv_text_get_width
 2165              		.syntax unified
ARM GAS  C:\Users\Alex\AppData\Local\Temp\ccyCJmTC.s 			page 64


 2166              		.thumb
 2167              		.thumb_func
 2169              	lv_text_get_width:
 2170              	.LVL219:
 2171              	.LFB85:
 340:Lib/lvgl/src/misc/lv_text.c ****     if(txt == NULL) return 0;
 2172              		.loc 1 340 1 is_stmt 1 view -0
 2173              		.cfi_startproc
 2174              		@ args = 0, pretend = 0, frame = 16
 2175              		@ frame_needed = 0, uses_anonymous_args = 0
 340:Lib/lvgl/src/misc/lv_text.c ****     if(txt == NULL) return 0;
 2176              		.loc 1 340 1 is_stmt 0 view .LVU672
 2177 0000 2DE9F041 		push	{r4, r5, r6, r7, r8, lr}
 2178              	.LCFI39:
 2179              		.cfi_def_cfa_offset 24
 2180              		.cfi_offset 4, -24
 2181              		.cfi_offset 5, -20
 2182              		.cfi_offset 6, -16
 2183              		.cfi_offset 7, -12
 2184              		.cfi_offset 8, -8
 2185              		.cfi_offset 14, -4
 2186 0004 84B0     		sub	sp, sp, #16
 2187              	.LCFI40:
 2188              		.cfi_def_cfa_offset 40
 341:Lib/lvgl/src/misc/lv_text.c ****     if(font == NULL) return 0;
 2189              		.loc 1 341 5 is_stmt 1 view .LVU673
 341:Lib/lvgl/src/misc/lv_text.c ****     if(font == NULL) return 0;
 2190              		.loc 1 341 7 is_stmt 0 view .LVU674
 2191 0006 18B3     		cbz	r0, .L186
 2192 0008 0E46     		mov	r6, r1
 2193 000a 1546     		mov	r5, r2
 2194 000c 1F46     		mov	r7, r3
 2195 000e 8046     		mov	r8, r0
 342:Lib/lvgl/src/misc/lv_text.c ****     if(txt[0] == '\0') return 0;
 2196              		.loc 1 342 5 is_stmt 1 view .LVU675
 342:Lib/lvgl/src/misc/lv_text.c ****     if(txt[0] == '\0') return 0;
 2197              		.loc 1 342 7 is_stmt 0 view .LVU676
 2198 0010 02B3     		cbz	r2, .L187
 343:Lib/lvgl/src/misc/lv_text.c **** 
 2199              		.loc 1 343 5 is_stmt 1 view .LVU677
 343:Lib/lvgl/src/misc/lv_text.c **** 
 2200              		.loc 1 343 11 is_stmt 0 view .LVU678
 2201 0012 0378     		ldrb	r3, [r0]	@ zero_extendqisi2
 2202              	.LVL220:
 343:Lib/lvgl/src/misc/lv_text.c **** 
 2203              		.loc 1 343 7 view .LVU679
 2204 0014 03B3     		cbz	r3, .L188
 345:Lib/lvgl/src/misc/lv_text.c ****     int32_t width             = 0;
 2205              		.loc 1 345 5 is_stmt 1 view .LVU680
 345:Lib/lvgl/src/misc/lv_text.c ****     int32_t width             = 0;
 2206              		.loc 1 345 14 is_stmt 0 view .LVU681
 2207 0016 0023     		movs	r3, #0
 2208 0018 0393     		str	r3, [sp, #12]
 346:Lib/lvgl/src/misc/lv_text.c **** 
 2209              		.loc 1 346 5 is_stmt 1 view .LVU682
 2210              	.LVL221:
 348:Lib/lvgl/src/misc/lv_text.c ****         while(i < length) {
ARM GAS  C:\Users\Alex\AppData\Local\Temp\ccyCJmTC.s 			page 65


 2211              		.loc 1 348 5 view .LVU683
 348:Lib/lvgl/src/misc/lv_text.c ****         while(i < length) {
 2212              		.loc 1 348 7 is_stmt 0 view .LVU684
 2213 001a 09B9     		cbnz	r1, .L189
 346:Lib/lvgl/src/misc/lv_text.c **** 
 2214              		.loc 1 346 13 view .LVU685
 2215 001c 1C46     		mov	r4, r3
 2216 001e 1CE0     		b	.L181
 2217              	.L189:
 2218 0020 0024     		movs	r4, #0
 2219              	.LVL222:
 2220              	.L183:
 349:Lib/lvgl/src/misc/lv_text.c ****             uint32_t letter;
 2221              		.loc 1 349 17 is_stmt 1 view .LVU686
 2222 0022 039B     		ldr	r3, [sp, #12]
 2223 0024 B342     		cmp	r3, r6
 2224 0026 0FD2     		bcs	.L191
 2225              	.LBB17:
 350:Lib/lvgl/src/misc/lv_text.c ****             uint32_t letter_next;
 2226              		.loc 1 350 13 view .LVU687
 351:Lib/lvgl/src/misc/lv_text.c ****             _lv_text_encoded_letter_next_2(txt, &letter, &letter_next, &i);
 2227              		.loc 1 351 13 view .LVU688
 352:Lib/lvgl/src/misc/lv_text.c **** 
 2228              		.loc 1 352 13 view .LVU689
 2229 0028 03AB     		add	r3, sp, #12
 2230 002a 02AA     		add	r2, sp, #8
 2231 002c 01A9     		add	r1, sp, #4
 2232 002e 4046     		mov	r0, r8
 2233 0030 FFF7FEFF 		bl	_lv_text_encoded_letter_next_2
 2234              	.LVL223:
 354:Lib/lvgl/src/misc/lv_text.c ****             if(char_width > 0) {
 2235              		.loc 1 354 13 view .LVU690
 354:Lib/lvgl/src/misc/lv_text.c ****             if(char_width > 0) {
 2236              		.loc 1 354 34 is_stmt 0 view .LVU691
 2237 0034 029A     		ldr	r2, [sp, #8]
 2238 0036 0199     		ldr	r1, [sp, #4]
 2239 0038 2846     		mov	r0, r5
 2240 003a FFF7FEFF 		bl	lv_font_get_glyph_width
 2241              	.LVL224:
 355:Lib/lvgl/src/misc/lv_text.c ****                 width += char_width;
 2242              		.loc 1 355 13 is_stmt 1 view .LVU692
 355:Lib/lvgl/src/misc/lv_text.c ****                 width += char_width;
 2243              		.loc 1 355 15 is_stmt 0 view .LVU693
 2244 003e 0028     		cmp	r0, #0
 355:Lib/lvgl/src/misc/lv_text.c ****                 width += char_width;
 2245              		.loc 1 355 15 view .LVU694
 2246 0040 EFDD     		ble	.L183
 356:Lib/lvgl/src/misc/lv_text.c ****                 width += letter_space;
 2247              		.loc 1 356 17 is_stmt 1 view .LVU695
 356:Lib/lvgl/src/misc/lv_text.c ****                 width += letter_space;
 2248              		.loc 1 356 23 is_stmt 0 view .LVU696
 2249 0042 0444     		add	r4, r4, r0
 2250              	.LVL225:
 357:Lib/lvgl/src/misc/lv_text.c ****             }
 2251              		.loc 1 357 17 is_stmt 1 view .LVU697
 357:Lib/lvgl/src/misc/lv_text.c ****             }
 2252              		.loc 1 357 23 is_stmt 0 view .LVU698
ARM GAS  C:\Users\Alex\AppData\Local\Temp\ccyCJmTC.s 			page 66


 2253 0044 3C44     		add	r4, r4, r7
 2254              	.LVL226:
 357:Lib/lvgl/src/misc/lv_text.c ****             }
 2255              		.loc 1 357 23 view .LVU699
 2256 0046 ECE7     		b	.L183
 2257              	.LVL227:
 2258              	.L191:
 357:Lib/lvgl/src/misc/lv_text.c ****             }
 2259              		.loc 1 357 23 view .LVU700
 2260              	.LBE17:
 361:Lib/lvgl/src/misc/lv_text.c ****             width -= letter_space; /*Trim the last letter space. Important if the text is center
 2261              		.loc 1 361 9 is_stmt 1 view .LVU701
 361:Lib/lvgl/src/misc/lv_text.c ****             width -= letter_space; /*Trim the last letter space. Important if the text is center
 2262              		.loc 1 361 11 is_stmt 0 view .LVU702
 2263 0048 002C     		cmp	r4, #0
 2264 004a 06DD     		ble	.L181
 362:Lib/lvgl/src/misc/lv_text.c ****                                       aligned*/
 2265              		.loc 1 362 13 is_stmt 1 view .LVU703
 362:Lib/lvgl/src/misc/lv_text.c ****                                       aligned*/
 2266              		.loc 1 362 19 is_stmt 0 view .LVU704
 2267 004c E41B     		subs	r4, r4, r7
 2268              	.LVL228:
 362:Lib/lvgl/src/misc/lv_text.c ****                                       aligned*/
 2269              		.loc 1 362 19 view .LVU705
 2270 004e 04E0     		b	.L181
 2271              	.LVL229:
 2272              	.L186:
 341:Lib/lvgl/src/misc/lv_text.c ****     if(font == NULL) return 0;
 2273              		.loc 1 341 28 view .LVU706
 2274 0050 0024     		movs	r4, #0
 2275 0052 02E0     		b	.L181
 2276              	.L187:
 342:Lib/lvgl/src/misc/lv_text.c ****     if(txt[0] == '\0') return 0;
 2277              		.loc 1 342 29 view .LVU707
 2278 0054 0024     		movs	r4, #0
 2279 0056 00E0     		b	.L181
 2280              	.LVL230:
 2281              	.L188:
 343:Lib/lvgl/src/misc/lv_text.c **** 
 2282              		.loc 1 343 31 view .LVU708
 2283 0058 0024     		movs	r4, #0
 2284              	.LVL231:
 2285              	.L181:
 368:Lib/lvgl/src/misc/lv_text.c **** 
 2286              		.loc 1 368 1 view .LVU709
 2287 005a 2046     		mov	r0, r4
 2288 005c 04B0     		add	sp, sp, #16
 2289              	.LCFI41:
 2290              		.cfi_def_cfa_offset 24
 2291              		@ sp needed
 2292 005e BDE8F081 		pop	{r4, r5, r6, r7, r8, pc}
 2293              		.cfi_endproc
 2294              	.LFE85:
 2296              		.section	.text.lv_text_get_size,"ax",%progbits
 2297              		.align	1
 2298              		.global	lv_text_get_size
 2299              		.syntax unified
ARM GAS  C:\Users\Alex\AppData\Local\Temp\ccyCJmTC.s 			page 67


 2300              		.thumb
 2301              		.thumb_func
 2303              	lv_text_get_size:
 2304              	.LVL232:
 2305              	.LFB82:
  94:Lib/lvgl/src/misc/lv_text.c ****     size_res->x = 0;
 2306              		.loc 1 94 1 is_stmt 1 view -0
 2307              		.cfi_startproc
 2308              		@ args = 12, pretend = 0, frame = 8
 2309              		@ frame_needed = 0, uses_anonymous_args = 0
  94:Lib/lvgl/src/misc/lv_text.c ****     size_res->x = 0;
 2310              		.loc 1 94 1 is_stmt 0 view .LVU711
 2311 0000 2DE9F04F 		push	{r4, r5, r6, r7, r8, r9, r10, fp, lr}
 2312              	.LCFI42:
 2313              		.cfi_def_cfa_offset 36
 2314              		.cfi_offset 4, -36
 2315              		.cfi_offset 5, -32
 2316              		.cfi_offset 6, -28
 2317              		.cfi_offset 7, -24
 2318              		.cfi_offset 8, -20
 2319              		.cfi_offset 9, -16
 2320              		.cfi_offset 10, -12
 2321              		.cfi_offset 11, -8
 2322              		.cfi_offset 14, -4
 2323 0004 85B0     		sub	sp, sp, #20
 2324              	.LCFI43:
 2325              		.cfi_def_cfa_offset 56
 2326 0006 1F46     		mov	r7, r3
 2327 0008 DDF83890 		ldr	r9, [sp, #56]
 2328 000c 9DF840A0 		ldrb	r10, [sp, #64]	@ zero_extendqisi2
  95:Lib/lvgl/src/misc/lv_text.c ****     size_res->y = 0;
 2329              		.loc 1 95 5 is_stmt 1 view .LVU712
  95:Lib/lvgl/src/misc/lv_text.c ****     size_res->y = 0;
 2330              		.loc 1 95 17 is_stmt 0 view .LVU713
 2331 0010 0023     		movs	r3, #0
 2332              	.LVL233:
  95:Lib/lvgl/src/misc/lv_text.c ****     size_res->y = 0;
 2333              		.loc 1 95 17 view .LVU714
 2334 0012 0360     		str	r3, [r0]
  96:Lib/lvgl/src/misc/lv_text.c **** 
 2335              		.loc 1 96 5 is_stmt 1 view .LVU715
  96:Lib/lvgl/src/misc/lv_text.c **** 
 2336              		.loc 1 96 17 is_stmt 0 view .LVU716
 2337 0014 4360     		str	r3, [r0, #4]
  98:Lib/lvgl/src/misc/lv_text.c ****     if(font == NULL) return;
 2338              		.loc 1 98 5 is_stmt 1 view .LVU717
  98:Lib/lvgl/src/misc/lv_text.c ****     if(font == NULL) return;
 2339              		.loc 1 98 7 is_stmt 0 view .LVU718
 2340 0016 0029     		cmp	r1, #0
 2341 0018 47D0     		beq	.L192
 2342 001a 0446     		mov	r4, r0
 2343 001c 9346     		mov	fp, r2
 2344 001e 8846     		mov	r8, r1
  99:Lib/lvgl/src/misc/lv_text.c **** 
 2345              		.loc 1 99 5 is_stmt 1 view .LVU719
  99:Lib/lvgl/src/misc/lv_text.c **** 
 2346              		.loc 1 99 7 is_stmt 0 view .LVU720
ARM GAS  C:\Users\Alex\AppData\Local\Temp\ccyCJmTC.s 			page 68


 2347 0020 002A     		cmp	r2, #0
 2348 0022 42D0     		beq	.L192
 101:Lib/lvgl/src/misc/lv_text.c **** 
 2349              		.loc 1 101 5 is_stmt 1 view .LVU721
 101:Lib/lvgl/src/misc/lv_text.c **** 
 2350              		.loc 1 101 7 is_stmt 0 view .LVU722
 2351 0024 1AF0010F 		tst	r10, #1
 2352 0028 02D0     		beq	.L194
 101:Lib/lvgl/src/misc/lv_text.c **** 
 2353              		.loc 1 101 46 view .LVU723
 2354 002a 6FF06043 		mvn	r3, #-536870912
 2355 002e 0F93     		str	r3, [sp, #60]
 2356              	.LVL234:
 2357              	.L194:
 103:Lib/lvgl/src/misc/lv_text.c ****     uint32_t new_line_start = 0;
 2358              		.loc 1 103 5 is_stmt 1 view .LVU724
 104:Lib/lvgl/src/misc/lv_text.c ****     uint16_t letter_height = lv_font_get_line_height(font);
 2359              		.loc 1 104 5 view .LVU725
 105:Lib/lvgl/src/misc/lv_text.c **** 
 2360              		.loc 1 105 5 view .LVU726
 2361              	.LBB18:
 2362              	.LBI18:
 2363              		.file 3 "Lib/lvgl/src/misc/../font/lv_font.h"
   1:Lib/lvgl/src/misc/../font/lv_font.h **** /**
   2:Lib/lvgl/src/misc/../font/lv_font.h ****  * @file lv_font.h
   3:Lib/lvgl/src/misc/../font/lv_font.h ****  *
   4:Lib/lvgl/src/misc/../font/lv_font.h ****  */
   5:Lib/lvgl/src/misc/../font/lv_font.h **** 
   6:Lib/lvgl/src/misc/../font/lv_font.h **** #ifndef LV_FONT_H
   7:Lib/lvgl/src/misc/../font/lv_font.h **** #define LV_FONT_H
   8:Lib/lvgl/src/misc/../font/lv_font.h **** 
   9:Lib/lvgl/src/misc/../font/lv_font.h **** #ifdef __cplusplus
  10:Lib/lvgl/src/misc/../font/lv_font.h **** extern "C" {
  11:Lib/lvgl/src/misc/../font/lv_font.h **** #endif
  12:Lib/lvgl/src/misc/../font/lv_font.h **** 
  13:Lib/lvgl/src/misc/../font/lv_font.h **** /*********************
  14:Lib/lvgl/src/misc/../font/lv_font.h ****  *      INCLUDES
  15:Lib/lvgl/src/misc/../font/lv_font.h ****  *********************/
  16:Lib/lvgl/src/misc/../font/lv_font.h **** #include "../lv_conf_internal.h"
  17:Lib/lvgl/src/misc/../font/lv_font.h **** #include <stdint.h>
  18:Lib/lvgl/src/misc/../font/lv_font.h **** #include <stddef.h>
  19:Lib/lvgl/src/misc/../font/lv_font.h **** #include <stdbool.h>
  20:Lib/lvgl/src/misc/../font/lv_font.h **** 
  21:Lib/lvgl/src/misc/../font/lv_font.h **** #include "lv_symbol_def.h"
  22:Lib/lvgl/src/misc/../font/lv_font.h **** #include "../draw/lv_draw_buf.h"
  23:Lib/lvgl/src/misc/../font/lv_font.h **** #include "../misc/lv_area.h"
  24:Lib/lvgl/src/misc/../font/lv_font.h **** #include "../misc/lv_types.h"
  25:Lib/lvgl/src/misc/../font/lv_font.h **** #include "../misc/cache/lv_cache.h"
  26:Lib/lvgl/src/misc/../font/lv_font.h **** 
  27:Lib/lvgl/src/misc/../font/lv_font.h **** /*********************
  28:Lib/lvgl/src/misc/../font/lv_font.h ****  *      DEFINES
  29:Lib/lvgl/src/misc/../font/lv_font.h ****  *********************/
  30:Lib/lvgl/src/misc/../font/lv_font.h **** 
  31:Lib/lvgl/src/misc/../font/lv_font.h **** /* imgfont identifier */
  32:Lib/lvgl/src/misc/../font/lv_font.h **** #define LV_IMGFONT_BPP 9
  33:Lib/lvgl/src/misc/../font/lv_font.h **** #define LV_VECFONT_BPP 10
  34:Lib/lvgl/src/misc/../font/lv_font.h **** 
ARM GAS  C:\Users\Alex\AppData\Local\Temp\ccyCJmTC.s 			page 69


  35:Lib/lvgl/src/misc/../font/lv_font.h **** /**********************
  36:Lib/lvgl/src/misc/../font/lv_font.h ****  *      TYPEDEFS
  37:Lib/lvgl/src/misc/../font/lv_font.h ****  **********************/
  38:Lib/lvgl/src/misc/../font/lv_font.h **** 
  39:Lib/lvgl/src/misc/../font/lv_font.h **** /*------------------
  40:Lib/lvgl/src/misc/../font/lv_font.h ****  * General types
  41:Lib/lvgl/src/misc/../font/lv_font.h ****  *-----------------*/
  42:Lib/lvgl/src/misc/../font/lv_font.h **** 
  43:Lib/lvgl/src/misc/../font/lv_font.h **** /** Describes the properties of a glyph.*/
  44:Lib/lvgl/src/misc/../font/lv_font.h **** typedef struct {
  45:Lib/lvgl/src/misc/../font/lv_font.h ****     const lv_font_t *
  46:Lib/lvgl/src/misc/../font/lv_font.h ****     resolved_font; /**< Pointer to a font where the glyph was actually found after handling fallbac
  47:Lib/lvgl/src/misc/../font/lv_font.h ****     uint16_t adv_w; /**< The glyph needs this space. Draw the next glyph after this width.*/
  48:Lib/lvgl/src/misc/../font/lv_font.h ****     uint16_t box_w; /**< Width of the glyph's bounding box*/
  49:Lib/lvgl/src/misc/../font/lv_font.h ****     uint16_t box_h; /**< Height of the glyph's bounding box*/
  50:Lib/lvgl/src/misc/../font/lv_font.h ****     int16_t ofs_x;  /**< x offset of the bounding box*/
  51:Lib/lvgl/src/misc/../font/lv_font.h ****     int16_t ofs_y;  /**< y offset of the bounding box*/
  52:Lib/lvgl/src/misc/../font/lv_font.h ****     uint8_t bpp: 4;  /**< Bit-per-pixel: 1, 2, 4, 8*/
  53:Lib/lvgl/src/misc/../font/lv_font.h ****     uint8_t is_placeholder: 1; /** Glyph is missing. But placeholder will still be displayed */
  54:Lib/lvgl/src/misc/../font/lv_font.h **** 
  55:Lib/lvgl/src/misc/../font/lv_font.h ****     uint32_t glyph_index; /**< The index of the glyph in the font file. Used by the font cache*/
  56:Lib/lvgl/src/misc/../font/lv_font.h ****     lv_cache_entry_t * entry; /**< The cache entry of the glyph draw data. Used by the font cache*/
  57:Lib/lvgl/src/misc/../font/lv_font.h **** } lv_font_glyph_dsc_t;
  58:Lib/lvgl/src/misc/../font/lv_font.h **** 
  59:Lib/lvgl/src/misc/../font/lv_font.h **** /** The bitmaps might be upscaled by 3 to achieve subpixel rendering.*/
  60:Lib/lvgl/src/misc/../font/lv_font.h **** enum _lv_font_subpx_t {
  61:Lib/lvgl/src/misc/../font/lv_font.h ****     LV_FONT_SUBPX_NONE,
  62:Lib/lvgl/src/misc/../font/lv_font.h ****     LV_FONT_SUBPX_HOR,
  63:Lib/lvgl/src/misc/../font/lv_font.h ****     LV_FONT_SUBPX_VER,
  64:Lib/lvgl/src/misc/../font/lv_font.h ****     LV_FONT_SUBPX_BOTH,
  65:Lib/lvgl/src/misc/../font/lv_font.h **** };
  66:Lib/lvgl/src/misc/../font/lv_font.h **** 
  67:Lib/lvgl/src/misc/../font/lv_font.h **** #ifdef DOXYGEN
  68:Lib/lvgl/src/misc/../font/lv_font.h **** typedef _lv_font_subpx_t lv_font_subpx_t;
  69:Lib/lvgl/src/misc/../font/lv_font.h **** #else
  70:Lib/lvgl/src/misc/../font/lv_font.h **** typedef uint8_t lv_font_subpx_t;
  71:Lib/lvgl/src/misc/../font/lv_font.h **** #endif /*DOXYGEN*/
  72:Lib/lvgl/src/misc/../font/lv_font.h **** 
  73:Lib/lvgl/src/misc/../font/lv_font.h **** /** Adjust letter spacing for specific character pairs.*/
  74:Lib/lvgl/src/misc/../font/lv_font.h **** enum _lv_font_kerning_t {
  75:Lib/lvgl/src/misc/../font/lv_font.h ****     LV_FONT_KERNING_NORMAL,
  76:Lib/lvgl/src/misc/../font/lv_font.h ****     LV_FONT_KERNING_NONE,
  77:Lib/lvgl/src/misc/../font/lv_font.h **** };
  78:Lib/lvgl/src/misc/../font/lv_font.h **** 
  79:Lib/lvgl/src/misc/../font/lv_font.h **** #ifdef DOXYGEN
  80:Lib/lvgl/src/misc/../font/lv_font.h **** typedef _lv_font_kerning_t lv_font_kerning_t;
  81:Lib/lvgl/src/misc/../font/lv_font.h **** #else
  82:Lib/lvgl/src/misc/../font/lv_font.h **** typedef uint8_t lv_font_kerning_t;
  83:Lib/lvgl/src/misc/../font/lv_font.h **** #endif /*DOXYGEN*/
  84:Lib/lvgl/src/misc/../font/lv_font.h **** 
  85:Lib/lvgl/src/misc/../font/lv_font.h **** /** Describe the properties of a font*/
  86:Lib/lvgl/src/misc/../font/lv_font.h **** struct _lv_font_t {
  87:Lib/lvgl/src/misc/../font/lv_font.h ****     /** Get a glyph's descriptor from a font*/
  88:Lib/lvgl/src/misc/../font/lv_font.h ****     bool (*get_glyph_dsc)(const lv_font_t *, lv_font_glyph_dsc_t *, uint32_t letter, uint32_t lette
  89:Lib/lvgl/src/misc/../font/lv_font.h **** 
  90:Lib/lvgl/src/misc/../font/lv_font.h ****     /** Get a glyph's bitmap from a font*/
  91:Lib/lvgl/src/misc/../font/lv_font.h ****     const void * (*get_glyph_bitmap)(lv_font_glyph_dsc_t *, uint32_t, lv_draw_buf_t *);
ARM GAS  C:\Users\Alex\AppData\Local\Temp\ccyCJmTC.s 			page 70


  92:Lib/lvgl/src/misc/../font/lv_font.h **** 
  93:Lib/lvgl/src/misc/../font/lv_font.h ****     /** Release a glyph*/
  94:Lib/lvgl/src/misc/../font/lv_font.h ****     void (*release_glyph)(const lv_font_t *, lv_font_glyph_dsc_t *);
  95:Lib/lvgl/src/misc/../font/lv_font.h **** 
  96:Lib/lvgl/src/misc/../font/lv_font.h ****     /*Pointer to the font in a font pack (must have the same line height)*/
  97:Lib/lvgl/src/misc/../font/lv_font.h ****     int32_t line_height;         /**< The real line height where any text fits*/
  98:Lib/lvgl/src/misc/../font/lv_font.h ****     int32_t base_line;           /**< Base line measured from the top of the line_height*/
  99:Lib/lvgl/src/misc/../font/lv_font.h ****     uint8_t subpx   : 2;            /**< An element of `lv_font_subpx_t`*/
 100:Lib/lvgl/src/misc/../font/lv_font.h ****     uint8_t kerning : 1;            /**< An element of `lv_font_kerning_t`*/
 101:Lib/lvgl/src/misc/../font/lv_font.h **** 
 102:Lib/lvgl/src/misc/../font/lv_font.h ****     int8_t underline_position;      /**< Distance between the top of the underline and base line (<
 103:Lib/lvgl/src/misc/../font/lv_font.h ****     int8_t underline_thickness;     /**< Thickness of the underline*/
 104:Lib/lvgl/src/misc/../font/lv_font.h **** 
 105:Lib/lvgl/src/misc/../font/lv_font.h ****     const void * dsc;               /**< Store implementation specific or run_time data or caching 
 106:Lib/lvgl/src/misc/../font/lv_font.h ****     const lv_font_t * fallback;   /**< Fallback font for missing glyph. Resolved recursively */
 107:Lib/lvgl/src/misc/../font/lv_font.h ****     void * user_data;               /**< Custom user data for font.*/
 108:Lib/lvgl/src/misc/../font/lv_font.h **** };
 109:Lib/lvgl/src/misc/../font/lv_font.h **** 
 110:Lib/lvgl/src/misc/../font/lv_font.h **** /**********************
 111:Lib/lvgl/src/misc/../font/lv_font.h ****  * GLOBAL PROTOTYPES
 112:Lib/lvgl/src/misc/../font/lv_font.h ****  **********************/
 113:Lib/lvgl/src/misc/../font/lv_font.h **** 
 114:Lib/lvgl/src/misc/../font/lv_font.h **** /**
 115:Lib/lvgl/src/misc/../font/lv_font.h ****  * Return with the bitmap of a font.
 116:Lib/lvgl/src/misc/../font/lv_font.h ****  * @param g_dsc         the glyph descriptor including which font to use etc.
 117:Lib/lvgl/src/misc/../font/lv_font.h ****  * @param letter        a UNICODE character code
 118:Lib/lvgl/src/misc/../font/lv_font.h ****  * @param draw_buf      a draw buffer that can be used to store the bitmap of the glyph, it's OK no
 119:Lib/lvgl/src/misc/../font/lv_font.h ****  * @return pointer to the glyph's data. It can be a draw buffer for bitmap fonts or an image source
 120:Lib/lvgl/src/misc/../font/lv_font.h ****  */
 121:Lib/lvgl/src/misc/../font/lv_font.h **** const void * lv_font_get_glyph_bitmap(lv_font_glyph_dsc_t * g_dsc, uint32_t letter,
 122:Lib/lvgl/src/misc/../font/lv_font.h ****                                       lv_draw_buf_t * draw_buf);
 123:Lib/lvgl/src/misc/../font/lv_font.h **** 
 124:Lib/lvgl/src/misc/../font/lv_font.h **** /**
 125:Lib/lvgl/src/misc/../font/lv_font.h ****  * Get the descriptor of a glyph
 126:Lib/lvgl/src/misc/../font/lv_font.h ****  * @param font          pointer to font
 127:Lib/lvgl/src/misc/../font/lv_font.h ****  * @param dsc_out       store the result descriptor here
 128:Lib/lvgl/src/misc/../font/lv_font.h ****  * @param letter        a UNICODE letter code
 129:Lib/lvgl/src/misc/../font/lv_font.h ****  * @param letter_next   the next letter after `letter`. Used for kerning
 130:Lib/lvgl/src/misc/../font/lv_font.h ****  * @return true: descriptor is successfully loaded into `dsc_out`.
 131:Lib/lvgl/src/misc/../font/lv_font.h ****  *         false: the letter was not found, no data is loaded to `dsc_out`
 132:Lib/lvgl/src/misc/../font/lv_font.h ****  */
 133:Lib/lvgl/src/misc/../font/lv_font.h **** bool lv_font_get_glyph_dsc(const lv_font_t * font, lv_font_glyph_dsc_t * dsc_out, uint32_t letter,
 134:Lib/lvgl/src/misc/../font/lv_font.h ****                            uint32_t letter_next);
 135:Lib/lvgl/src/misc/../font/lv_font.h **** 
 136:Lib/lvgl/src/misc/../font/lv_font.h **** /**
 137:Lib/lvgl/src/misc/../font/lv_font.h ****  * Get the width of a glyph with kerning
 138:Lib/lvgl/src/misc/../font/lv_font.h ****  * @param font          pointer to a font
 139:Lib/lvgl/src/misc/../font/lv_font.h ****  * @param letter        a UNICODE letter
 140:Lib/lvgl/src/misc/../font/lv_font.h ****  * @param letter_next   the next letter after `letter`. Used for kerning
 141:Lib/lvgl/src/misc/../font/lv_font.h ****  * @return the width of the glyph
 142:Lib/lvgl/src/misc/../font/lv_font.h ****  */
 143:Lib/lvgl/src/misc/../font/lv_font.h **** uint16_t lv_font_get_glyph_width(const lv_font_t * font, uint32_t letter, uint32_t letter_next);
 144:Lib/lvgl/src/misc/../font/lv_font.h **** 
 145:Lib/lvgl/src/misc/../font/lv_font.h **** /**
 146:Lib/lvgl/src/misc/../font/lv_font.h ****  * Get the line height of a font. All characters fit into this height
 147:Lib/lvgl/src/misc/../font/lv_font.h ****  * @param font      pointer to a font
 148:Lib/lvgl/src/misc/../font/lv_font.h ****  * @return the height of a font
ARM GAS  C:\Users\Alex\AppData\Local\Temp\ccyCJmTC.s 			page 71


 149:Lib/lvgl/src/misc/../font/lv_font.h ****  */
 150:Lib/lvgl/src/misc/../font/lv_font.h **** static inline int32_t lv_font_get_line_height(const lv_font_t * font)
 2364              		.loc 3 150 23 view .LVU727
 2365              	.LBB19:
 151:Lib/lvgl/src/misc/../font/lv_font.h **** {
 152:Lib/lvgl/src/misc/../font/lv_font.h ****     return font->line_height;
 2366              		.loc 3 152 5 view .LVU728
 2367              		.loc 3 152 16 is_stmt 0 view .LVU729
 2368 0030 DBF80C30 		ldr	r3, [fp, #12]
 2369 0034 0393     		str	r3, [sp, #12]
 2370              	.LVL235:
 2371              		.loc 3 152 16 view .LVU730
 2372              	.LBE19:
 2373              	.LBE18:
 108:Lib/lvgl/src/misc/lv_text.c ****         new_line_start += _lv_text_get_next_line(&text[line_start], font, letter_space, max_width, 
 2374              		.loc 1 108 5 is_stmt 1 view .LVU731
 103:Lib/lvgl/src/misc/lv_text.c ****     uint32_t new_line_start = 0;
 2375              		.loc 1 103 14 is_stmt 0 view .LVU732
 2376 0036 0025     		movs	r5, #0
 2377              	.LVL236:
 2378              	.L195:
 108:Lib/lvgl/src/misc/lv_text.c ****         new_line_start += _lv_text_get_next_line(&text[line_start], font, letter_space, max_width, 
 2379              		.loc 1 108 28 is_stmt 1 view .LVU733
 108:Lib/lvgl/src/misc/lv_text.c ****         new_line_start += _lv_text_get_next_line(&text[line_start], font, letter_space, max_width, 
 2380              		.loc 1 108 15 is_stmt 0 view .LVU734
 2381 0038 08EB0506 		add	r6, r8, r5
 2382 003c 18F80530 		ldrb	r3, [r8, r5]	@ zero_extendqisi2
 108:Lib/lvgl/src/misc/lv_text.c ****         new_line_start += _lv_text_get_next_line(&text[line_start], font, letter_space, max_width, 
 2383              		.loc 1 108 28 view .LVU735
 2384 0040 0BB3     		cbz	r3, .L202
 2385              	.LBB20:
 109:Lib/lvgl/src/misc/lv_text.c **** 
 2386              		.loc 1 109 9 is_stmt 1 view .LVU736
 109:Lib/lvgl/src/misc/lv_text.c **** 
 2387              		.loc 1 109 27 is_stmt 0 view .LVU737
 2388 0042 CDF804A0 		str	r10, [sp, #4]
 2389 0046 0023     		movs	r3, #0
 2390 0048 0093     		str	r3, [sp]
 2391 004a 0F9B     		ldr	r3, [sp, #60]
 2392 004c 3A46     		mov	r2, r7
 2393 004e 5946     		mov	r1, fp
 2394 0050 3046     		mov	r0, r6
 2395 0052 FFF7FEFF 		bl	_lv_text_get_next_line
 2396              	.LVL237:
 2397 0056 0146     		mov	r1, r0
 109:Lib/lvgl/src/misc/lv_text.c **** 
 2398              		.loc 1 109 24 view .LVU738
 2399 0058 0544     		add	r5, r5, r0
 2400              	.LVL238:
 111:Lib/lvgl/src/misc/lv_text.c ****             LV_LOG_WARN("integer overflow while calculating text height");
 2401              		.loc 1 111 9 is_stmt 1 view .LVU739
 111:Lib/lvgl/src/misc/lv_text.c ****             LV_LOG_WARN("integer overflow while calculating text height");
 2402              		.loc 1 111 35 is_stmt 0 view .LVU740
 2403 005a 6368     		ldr	r3, [r4, #4]
 2404 005c BDF80C20 		ldrh	r2, [sp, #12]
 111:Lib/lvgl/src/misc/lv_text.c ****             LV_LOG_WARN("integer overflow while calculating text height");
 2405              		.loc 1 111 39 view .LVU741
ARM GAS  C:\Users\Alex\AppData\Local\Temp\ccyCJmTC.s 			page 72


 2406 0060 9818     		adds	r0, r3, r2
 111:Lib/lvgl/src/misc/lv_text.c ****             LV_LOG_WARN("integer overflow while calculating text height");
 2407              		.loc 1 111 11 view .LVU742
 2408 0062 10EB090F 		cmn	r0, r9
 2409 0066 20D4     		bmi	.L192
 116:Lib/lvgl/src/misc/lv_text.c ****             size_res->y += line_space;
 2410              		.loc 1 116 13 is_stmt 1 view .LVU743
 116:Lib/lvgl/src/misc/lv_text.c ****             size_res->y += line_space;
 2411              		.loc 1 116 25 is_stmt 0 view .LVU744
 2412 0068 0346     		mov	r3, r0
 2413 006a 6060     		str	r0, [r4, #4]
 117:Lib/lvgl/src/misc/lv_text.c ****         }
 2414              		.loc 1 117 13 is_stmt 1 view .LVU745
 117:Lib/lvgl/src/misc/lv_text.c ****         }
 2415              		.loc 1 117 25 is_stmt 0 view .LVU746
 2416 006c 4B44     		add	r3, r3, r9
 2417 006e 6360     		str	r3, [r4, #4]
 121:Lib/lvgl/src/misc/lv_text.c **** 
 2418              		.loc 1 121 9 is_stmt 1 view .LVU747
 121:Lib/lvgl/src/misc/lv_text.c **** 
 2419              		.loc 1 121 35 is_stmt 0 view .LVU748
 2420 0070 3B46     		mov	r3, r7
 2421 0072 5A46     		mov	r2, fp
 2422 0074 3046     		mov	r0, r6
 2423 0076 FFF7FEFF 		bl	lv_text_get_width
 2424              	.LVL239:
 123:Lib/lvgl/src/misc/lv_text.c ****         line_start  = new_line_start;
 2425              		.loc 1 123 9 is_stmt 1 view .LVU749
 123:Lib/lvgl/src/misc/lv_text.c ****         line_start  = new_line_start;
 2426              		.loc 1 123 23 is_stmt 0 view .LVU750
 2427 007a 2368     		ldr	r3, [r4]
 2428 007c 9842     		cmp	r0, r3
 2429 007e B8BF     		it	lt
 2430 0080 1846     		movlt	r0, r3
 2431              	.LVL240:
 123:Lib/lvgl/src/misc/lv_text.c ****         line_start  = new_line_start;
 2432              		.loc 1 123 21 view .LVU751
 2433 0082 2060     		str	r0, [r4]
 124:Lib/lvgl/src/misc/lv_text.c ****     }
 2434              		.loc 1 124 9 is_stmt 1 view .LVU752
 2435              	.LVL241:
 124:Lib/lvgl/src/misc/lv_text.c ****     }
 2436              		.loc 1 124 9 is_stmt 0 view .LVU753
 2437 0084 D8E7     		b	.L195
 2438              	.LVL242:
 2439              	.L202:
 124:Lib/lvgl/src/misc/lv_text.c ****     }
 2440              		.loc 1 124 9 view .LVU754
 2441              	.LBE20:
 128:Lib/lvgl/src/misc/lv_text.c ****         size_res->y += letter_height + line_space;
 2442              		.loc 1 128 5 is_stmt 1 view .LVU755
 128:Lib/lvgl/src/misc/lv_text.c ****         size_res->y += letter_height + line_space;
 2443              		.loc 1 128 7 is_stmt 0 view .LVU756
 2444 0086 5DB1     		cbz	r5, .L197
 128:Lib/lvgl/src/misc/lv_text.c ****         size_res->y += letter_height + line_space;
 2445              		.loc 1 128 34 discriminator 1 view .LVU757
 2446 0088 16F8013C 		ldrb	r3, [r6, #-1]	@ zero_extendqisi2
ARM GAS  C:\Users\Alex\AppData\Local\Temp\ccyCJmTC.s 			page 73


 128:Lib/lvgl/src/misc/lv_text.c ****         size_res->y += letter_height + line_space;
 2447              		.loc 1 128 26 discriminator 1 view .LVU758
 2448 008c 0A2B     		cmp	r3, #10
 2449 008e 01D0     		beq	.L198
 128:Lib/lvgl/src/misc/lv_text.c ****         size_res->y += letter_height + line_space;
 2450              		.loc 1 128 59 discriminator 2 view .LVU759
 2451 0090 0D2B     		cmp	r3, #13
 2452 0092 05D1     		bne	.L197
 2453              	.L198:
 129:Lib/lvgl/src/misc/lv_text.c ****     }
 2454              		.loc 1 129 9 is_stmt 1 view .LVU760
 129:Lib/lvgl/src/misc/lv_text.c ****     }
 2455              		.loc 1 129 17 is_stmt 0 view .LVU761
 2456 0094 6368     		ldr	r3, [r4, #4]
 129:Lib/lvgl/src/misc/lv_text.c ****     }
 2457              		.loc 1 129 38 view .LVU762
 2458 0096 039A     		ldr	r2, [sp, #12]
 2459 0098 19FA82F2 		uxtah	r2, r9, r2
 129:Lib/lvgl/src/misc/lv_text.c ****     }
 2460              		.loc 1 129 21 view .LVU763
 2461 009c 1344     		add	r3, r3, r2
 2462 009e 6360     		str	r3, [r4, #4]
 2463              	.L197:
 133:Lib/lvgl/src/misc/lv_text.c ****         size_res->y = letter_height;
 2464              		.loc 1 133 5 is_stmt 1 view .LVU764
 133:Lib/lvgl/src/misc/lv_text.c ****         size_res->y = letter_height;
 2465              		.loc 1 133 16 is_stmt 0 view .LVU765
 2466 00a0 6368     		ldr	r3, [r4, #4]
 133:Lib/lvgl/src/misc/lv_text.c ****         size_res->y = letter_height;
 2467              		.loc 1 133 7 view .LVU766
 2468 00a2 2BB9     		cbnz	r3, .L199
 134:Lib/lvgl/src/misc/lv_text.c ****     else
 2469              		.loc 1 134 9 is_stmt 1 view .LVU767
 134:Lib/lvgl/src/misc/lv_text.c ****     else
 2470              		.loc 1 134 21 is_stmt 0 view .LVU768
 2471 00a4 BDF80C30 		ldrh	r3, [sp, #12]
 2472 00a8 6360     		str	r3, [r4, #4]
 2473              	.LVL243:
 2474              	.L192:
 137:Lib/lvgl/src/misc/lv_text.c **** 
 2475              		.loc 1 137 1 view .LVU769
 2476 00aa 05B0     		add	sp, sp, #20
 2477              	.LCFI44:
 2478              		.cfi_remember_state
 2479              		.cfi_def_cfa_offset 36
 2480              		@ sp needed
 2481 00ac BDE8F08F 		pop	{r4, r5, r6, r7, r8, r9, r10, fp, pc}
 2482              	.LVL244:
 2483              	.L199:
 2484              	.LCFI45:
 2485              		.cfi_restore_state
 136:Lib/lvgl/src/misc/lv_text.c **** }
 2486              		.loc 1 136 9 is_stmt 1 view .LVU770
 136:Lib/lvgl/src/misc/lv_text.c **** }
 2487              		.loc 1 136 21 is_stmt 0 view .LVU771
 2488 00b0 A3EB0903 		sub	r3, r3, r9
 2489 00b4 6360     		str	r3, [r4, #4]
ARM GAS  C:\Users\Alex\AppData\Local\Temp\ccyCJmTC.s 			page 74


 2490 00b6 F8E7     		b	.L192
 2491              		.cfi_endproc
 2492              	.LFE82:
 2494              		.global	_lv_text_get_encoded_length
 2495              		.section	.data._lv_text_get_encoded_length,"aw"
 2496              		.align	2
 2499              	_lv_text_get_encoded_length:
 2500 0000 00000000 		.word	lv_text_utf8_get_length
 2501              		.global	_lv_text_encoded_get_char_id
 2502              		.section	.data._lv_text_encoded_get_char_id,"aw"
 2503              		.align	2
 2506              	_lv_text_encoded_get_char_id:
 2507 0000 00000000 		.word	lv_text_utf8_get_char_id
 2508              		.global	_lv_text_encoded_get_byte_id
 2509              		.section	.data._lv_text_encoded_get_byte_id,"aw"
 2510              		.align	2
 2513              	_lv_text_encoded_get_byte_id:
 2514 0000 00000000 		.word	lv_text_utf8_get_byte_id
 2515              		.global	_lv_text_encoded_prev
 2516              		.section	.data._lv_text_encoded_prev,"aw"
 2517              		.align	2
 2520              	_lv_text_encoded_prev:
 2521 0000 00000000 		.word	lv_text_utf8_prev
 2522              		.global	_lv_text_encoded_next
 2523              		.section	.data._lv_text_encoded_next,"aw"
 2524              		.align	2
 2527              	_lv_text_encoded_next:
 2528 0000 00000000 		.word	lv_text_utf8_next
 2529              		.global	_lv_text_encoded_conv_wc
 2530              		.section	.data._lv_text_encoded_conv_wc,"aw"
 2531              		.align	2
 2534              	_lv_text_encoded_conv_wc:
 2535 0000 00000000 		.word	lv_text_utf8_conv_wc
 2536              		.global	_lv_text_unicode_to_encoded
 2537              		.section	.data._lv_text_unicode_to_encoded,"aw"
 2538              		.align	2
 2541              	_lv_text_unicode_to_encoded:
 2542 0000 00000000 		.word	lv_text_unicode_to_utf8
 2543              		.global	_lv_text_encoded_size
 2544              		.section	.data._lv_text_encoded_size,"aw"
 2545              		.align	2
 2548              	_lv_text_encoded_size:
 2549 0000 00000000 		.word	lv_text_utf8_size
 2550              		.text
 2551              	.Letext0:
 2552              		.file 4 "e:\\programms\\gnu_mcu_eclipse\\toolchain\\arm-gnu-toolchain-12.2.mpacbti-bet1-mingw-w64-
 2553              		.file 5 "e:\\programms\\gnu_mcu_eclipse\\toolchain\\arm-gnu-toolchain-12.2.mpacbti-bet1-mingw-w64-
 2554              		.file 6 "e:\\programms\\gnu_mcu_eclipse\\toolchain\\arm-gnu-toolchain-12.2.mpacbti-bet1-mingw-w64-
 2555              		.file 7 "Lib/lvgl/src/misc/lv_types.h"
 2556              		.file 8 "Lib/lvgl/src/misc/lv_area.h"
 2557              		.file 9 "e:\\programms\\gnu_mcu_eclipse\\toolchain\\arm-gnu-toolchain-12.2.mpacbti-bet1-mingw-w64-
 2558              		.file 10 "Lib/lvgl/src/misc/../font/../draw/lv_image_buf.h"
 2559              		.file 11 "Lib/lvgl/src/misc/../font/../draw/lv_draw_buf.h"
 2560              		.file 12 "Lib/lvgl/src/misc/../font/../misc/cache/lv_cache_private.h"
 2561              		.file 13 "Lib/lvgl/src/misc/../font/../draw/../misc/../stdlib/lv_mem.h"
 2562              		.file 14 "Lib/lvgl/src/misc/../stdlib/lv_sprintf.h"
 2563              		.file 15 "Lib/lvgl/src/misc/../font/../draw/../stdlib/lv_string.h"
ARM GAS  C:\Users\Alex\AppData\Local\Temp\ccyCJmTC.s 			page 75


 2564              		.file 16 "<built-in>"
ARM GAS  C:\Users\Alex\AppData\Local\Temp\ccyCJmTC.s 			page 76

