ARM GAS  C:\Users\Alex\AppData\Local\Temp\cc8pUgFk.s 			page 1


   1              		.cpu cortex-m4
   2              		.arch armv7e-m
   3              		.fpu fpv4-sp-d16
   4              		.eabi_attribute 27, 1
   5              		.eabi_attribute 28, 1
   6              		.eabi_attribute 20, 1
   7              		.eabi_attribute 21, 1
   8              		.eabi_attribute 23, 3
   9              		.eabi_attribute 24, 1
  10              		.eabi_attribute 25, 1
  11              		.eabi_attribute 26, 1
  12              		.eabi_attribute 30, 1
  13              		.eabi_attribute 34, 1
  14              		.eabi_attribute 18, 4
  15              		.file	"lv_tileview.c"
  16              		.text
  17              	.Ltext0:
  18              		.cfi_sections	.debug_frame
  19              		.file 1 "Lib/lvgl/src/widgets/tileview/lv_tileview.c"
  20              		.section	.text.lv_tileview_constructor,"ax",%progbits
  21              		.align	1
  22              		.syntax unified
  23              		.thumb
  24              		.thumb_func
  26              	lv_tileview_constructor:
  27              	.LVL0:
  28              	.LFB238:
   1:Lib/lvgl/src/widgets/tileview/lv_tileview.c **** /**
   2:Lib/lvgl/src/widgets/tileview/lv_tileview.c ****  * @file lv_tileview.c
   3:Lib/lvgl/src/widgets/tileview/lv_tileview.c ****  *
   4:Lib/lvgl/src/widgets/tileview/lv_tileview.c ****  */
   5:Lib/lvgl/src/widgets/tileview/lv_tileview.c **** 
   6:Lib/lvgl/src/widgets/tileview/lv_tileview.c **** /*********************
   7:Lib/lvgl/src/widgets/tileview/lv_tileview.c ****  *      INCLUDES
   8:Lib/lvgl/src/widgets/tileview/lv_tileview.c ****  *********************/
   9:Lib/lvgl/src/widgets/tileview/lv_tileview.c **** #include "lv_tileview.h"
  10:Lib/lvgl/src/widgets/tileview/lv_tileview.c **** #include "../../indev/lv_indev.h"
  11:Lib/lvgl/src/widgets/tileview/lv_tileview.c **** #include "../../indev/lv_indev_private.h"
  12:Lib/lvgl/src/widgets/tileview/lv_tileview.c **** #if LV_USE_TILEVIEW
  13:Lib/lvgl/src/widgets/tileview/lv_tileview.c **** 
  14:Lib/lvgl/src/widgets/tileview/lv_tileview.c **** /*********************
  15:Lib/lvgl/src/widgets/tileview/lv_tileview.c ****  *      DEFINES
  16:Lib/lvgl/src/widgets/tileview/lv_tileview.c ****  *********************/
  17:Lib/lvgl/src/widgets/tileview/lv_tileview.c **** 
  18:Lib/lvgl/src/widgets/tileview/lv_tileview.c **** /**********************
  19:Lib/lvgl/src/widgets/tileview/lv_tileview.c ****  *      TYPEDEFS
  20:Lib/lvgl/src/widgets/tileview/lv_tileview.c ****  **********************/
  21:Lib/lvgl/src/widgets/tileview/lv_tileview.c **** 
  22:Lib/lvgl/src/widgets/tileview/lv_tileview.c **** /**********************
  23:Lib/lvgl/src/widgets/tileview/lv_tileview.c ****  *  STATIC PROTOTYPES
  24:Lib/lvgl/src/widgets/tileview/lv_tileview.c ****  **********************/
  25:Lib/lvgl/src/widgets/tileview/lv_tileview.c **** static void lv_tileview_constructor(const lv_obj_class_t * class_p, lv_obj_t * obj);
  26:Lib/lvgl/src/widgets/tileview/lv_tileview.c **** static void lv_tileview_tile_constructor(const lv_obj_class_t * class_p, lv_obj_t * obj);
  27:Lib/lvgl/src/widgets/tileview/lv_tileview.c **** static void tileview_event_cb(lv_event_t * e);
  28:Lib/lvgl/src/widgets/tileview/lv_tileview.c **** 
  29:Lib/lvgl/src/widgets/tileview/lv_tileview.c **** /**********************
  30:Lib/lvgl/src/widgets/tileview/lv_tileview.c ****  *  STATIC VARIABLES
ARM GAS  C:\Users\Alex\AppData\Local\Temp\cc8pUgFk.s 			page 2


  31:Lib/lvgl/src/widgets/tileview/lv_tileview.c ****  **********************/
  32:Lib/lvgl/src/widgets/tileview/lv_tileview.c **** 
  33:Lib/lvgl/src/widgets/tileview/lv_tileview.c **** const lv_obj_class_t lv_tileview_class = {
  34:Lib/lvgl/src/widgets/tileview/lv_tileview.c ****     .constructor_cb = lv_tileview_constructor,
  35:Lib/lvgl/src/widgets/tileview/lv_tileview.c ****     .base_class = &lv_obj_class,
  36:Lib/lvgl/src/widgets/tileview/lv_tileview.c ****     .instance_size = sizeof(lv_tileview_t),
  37:Lib/lvgl/src/widgets/tileview/lv_tileview.c ****     .name = "tileview",
  38:Lib/lvgl/src/widgets/tileview/lv_tileview.c **** };
  39:Lib/lvgl/src/widgets/tileview/lv_tileview.c **** 
  40:Lib/lvgl/src/widgets/tileview/lv_tileview.c **** const lv_obj_class_t lv_tileview_tile_class = {
  41:Lib/lvgl/src/widgets/tileview/lv_tileview.c ****     .constructor_cb = lv_tileview_tile_constructor,
  42:Lib/lvgl/src/widgets/tileview/lv_tileview.c ****     .base_class = &lv_obj_class,
  43:Lib/lvgl/src/widgets/tileview/lv_tileview.c ****     .instance_size = sizeof(lv_tileview_tile_t),
  44:Lib/lvgl/src/widgets/tileview/lv_tileview.c ****     .name = "tile",
  45:Lib/lvgl/src/widgets/tileview/lv_tileview.c **** };
  46:Lib/lvgl/src/widgets/tileview/lv_tileview.c **** 
  47:Lib/lvgl/src/widgets/tileview/lv_tileview.c **** /**********************
  48:Lib/lvgl/src/widgets/tileview/lv_tileview.c ****  *      MACROS
  49:Lib/lvgl/src/widgets/tileview/lv_tileview.c ****  **********************/
  50:Lib/lvgl/src/widgets/tileview/lv_tileview.c **** 
  51:Lib/lvgl/src/widgets/tileview/lv_tileview.c **** /**********************
  52:Lib/lvgl/src/widgets/tileview/lv_tileview.c ****  *   GLOBAL FUNCTIONS
  53:Lib/lvgl/src/widgets/tileview/lv_tileview.c ****  **********************/
  54:Lib/lvgl/src/widgets/tileview/lv_tileview.c **** 
  55:Lib/lvgl/src/widgets/tileview/lv_tileview.c **** lv_obj_t * lv_tileview_create(lv_obj_t * parent)
  56:Lib/lvgl/src/widgets/tileview/lv_tileview.c **** {
  57:Lib/lvgl/src/widgets/tileview/lv_tileview.c ****     LV_LOG_INFO("begin");
  58:Lib/lvgl/src/widgets/tileview/lv_tileview.c ****     lv_obj_t * obj = lv_obj_class_create_obj(&lv_tileview_class, parent);
  59:Lib/lvgl/src/widgets/tileview/lv_tileview.c ****     lv_obj_class_init_obj(obj);
  60:Lib/lvgl/src/widgets/tileview/lv_tileview.c ****     return obj;
  61:Lib/lvgl/src/widgets/tileview/lv_tileview.c **** }
  62:Lib/lvgl/src/widgets/tileview/lv_tileview.c **** 
  63:Lib/lvgl/src/widgets/tileview/lv_tileview.c **** /*======================
  64:Lib/lvgl/src/widgets/tileview/lv_tileview.c ****  * Add/remove functions
  65:Lib/lvgl/src/widgets/tileview/lv_tileview.c ****  *=====================*/
  66:Lib/lvgl/src/widgets/tileview/lv_tileview.c **** 
  67:Lib/lvgl/src/widgets/tileview/lv_tileview.c **** lv_obj_t * lv_tileview_add_tile(lv_obj_t * tv, uint8_t col_id, uint8_t row_id, lv_dir_t dir)
  68:Lib/lvgl/src/widgets/tileview/lv_tileview.c **** {
  69:Lib/lvgl/src/widgets/tileview/lv_tileview.c ****     LV_LOG_INFO("begin");
  70:Lib/lvgl/src/widgets/tileview/lv_tileview.c **** 
  71:Lib/lvgl/src/widgets/tileview/lv_tileview.c ****     lv_obj_t * obj = lv_obj_class_create_obj(&lv_tileview_tile_class, tv);
  72:Lib/lvgl/src/widgets/tileview/lv_tileview.c ****     lv_obj_class_init_obj(obj);
  73:Lib/lvgl/src/widgets/tileview/lv_tileview.c ****     lv_obj_set_pos(obj, col_id * lv_obj_get_content_width(tv),
  74:Lib/lvgl/src/widgets/tileview/lv_tileview.c ****                    row_id * lv_obj_get_content_height(tv));
  75:Lib/lvgl/src/widgets/tileview/lv_tileview.c **** 
  76:Lib/lvgl/src/widgets/tileview/lv_tileview.c ****     lv_tileview_tile_t * tile = (lv_tileview_tile_t *)obj;
  77:Lib/lvgl/src/widgets/tileview/lv_tileview.c ****     tile->dir = dir;
  78:Lib/lvgl/src/widgets/tileview/lv_tileview.c **** 
  79:Lib/lvgl/src/widgets/tileview/lv_tileview.c ****     if(col_id == 0 && row_id == 0) {
  80:Lib/lvgl/src/widgets/tileview/lv_tileview.c ****         lv_obj_set_scroll_dir(tv, dir);
  81:Lib/lvgl/src/widgets/tileview/lv_tileview.c ****     }
  82:Lib/lvgl/src/widgets/tileview/lv_tileview.c ****     return obj;
  83:Lib/lvgl/src/widgets/tileview/lv_tileview.c **** }
  84:Lib/lvgl/src/widgets/tileview/lv_tileview.c **** 
  85:Lib/lvgl/src/widgets/tileview/lv_tileview.c **** void lv_tileview_set_tile(lv_obj_t * obj, lv_obj_t * tile_obj, lv_anim_enable_t anim_en)
  86:Lib/lvgl/src/widgets/tileview/lv_tileview.c **** {
  87:Lib/lvgl/src/widgets/tileview/lv_tileview.c ****     int32_t tx = lv_obj_get_x(tile_obj);
ARM GAS  C:\Users\Alex\AppData\Local\Temp\cc8pUgFk.s 			page 3


  88:Lib/lvgl/src/widgets/tileview/lv_tileview.c ****     int32_t ty = lv_obj_get_y(tile_obj);
  89:Lib/lvgl/src/widgets/tileview/lv_tileview.c **** 
  90:Lib/lvgl/src/widgets/tileview/lv_tileview.c ****     lv_tileview_tile_t * tile = (lv_tileview_tile_t *)tile_obj;
  91:Lib/lvgl/src/widgets/tileview/lv_tileview.c ****     lv_tileview_t * tv = (lv_tileview_t *) obj;
  92:Lib/lvgl/src/widgets/tileview/lv_tileview.c ****     tv->tile_act = (lv_obj_t *)tile;
  93:Lib/lvgl/src/widgets/tileview/lv_tileview.c **** 
  94:Lib/lvgl/src/widgets/tileview/lv_tileview.c ****     lv_obj_set_scroll_dir(obj, tile->dir);
  95:Lib/lvgl/src/widgets/tileview/lv_tileview.c ****     lv_obj_scroll_to(obj, tx, ty, anim_en);
  96:Lib/lvgl/src/widgets/tileview/lv_tileview.c **** }
  97:Lib/lvgl/src/widgets/tileview/lv_tileview.c **** 
  98:Lib/lvgl/src/widgets/tileview/lv_tileview.c **** void lv_tileview_set_tile_by_index(lv_obj_t * tv, uint32_t col_id, uint32_t row_id, lv_anim_enable_
  99:Lib/lvgl/src/widgets/tileview/lv_tileview.c **** {
 100:Lib/lvgl/src/widgets/tileview/lv_tileview.c ****     lv_obj_update_layout(tv);
 101:Lib/lvgl/src/widgets/tileview/lv_tileview.c **** 
 102:Lib/lvgl/src/widgets/tileview/lv_tileview.c ****     int32_t w = lv_obj_get_content_width(tv);
 103:Lib/lvgl/src/widgets/tileview/lv_tileview.c ****     int32_t h = lv_obj_get_content_height(tv);
 104:Lib/lvgl/src/widgets/tileview/lv_tileview.c **** 
 105:Lib/lvgl/src/widgets/tileview/lv_tileview.c ****     int32_t tx = col_id * w;
 106:Lib/lvgl/src/widgets/tileview/lv_tileview.c ****     int32_t ty = row_id * h;
 107:Lib/lvgl/src/widgets/tileview/lv_tileview.c **** 
 108:Lib/lvgl/src/widgets/tileview/lv_tileview.c ****     uint32_t i;
 109:Lib/lvgl/src/widgets/tileview/lv_tileview.c ****     for(i = 0; i < lv_obj_get_child_count(tv); i++) {
 110:Lib/lvgl/src/widgets/tileview/lv_tileview.c ****         lv_obj_t * tile_obj = lv_obj_get_child(tv, i);
 111:Lib/lvgl/src/widgets/tileview/lv_tileview.c ****         int32_t x = lv_obj_get_x(tile_obj);
 112:Lib/lvgl/src/widgets/tileview/lv_tileview.c ****         int32_t y = lv_obj_get_y(tile_obj);
 113:Lib/lvgl/src/widgets/tileview/lv_tileview.c ****         if(x == tx && y == ty) {
 114:Lib/lvgl/src/widgets/tileview/lv_tileview.c ****             lv_tileview_set_tile(tv, tile_obj, anim_en);
 115:Lib/lvgl/src/widgets/tileview/lv_tileview.c ****             return;
 116:Lib/lvgl/src/widgets/tileview/lv_tileview.c ****         }
 117:Lib/lvgl/src/widgets/tileview/lv_tileview.c ****     }
 118:Lib/lvgl/src/widgets/tileview/lv_tileview.c **** 
 119:Lib/lvgl/src/widgets/tileview/lv_tileview.c ****     LV_LOG_WARN("No tile found with at (%d,%d) index", (int)col_id, (int)row_id);
 120:Lib/lvgl/src/widgets/tileview/lv_tileview.c **** }
 121:Lib/lvgl/src/widgets/tileview/lv_tileview.c **** 
 122:Lib/lvgl/src/widgets/tileview/lv_tileview.c **** lv_obj_t * lv_tileview_get_tile_active(lv_obj_t * obj)
 123:Lib/lvgl/src/widgets/tileview/lv_tileview.c **** {
 124:Lib/lvgl/src/widgets/tileview/lv_tileview.c ****     lv_tileview_t * tv = (lv_tileview_t *) obj;
 125:Lib/lvgl/src/widgets/tileview/lv_tileview.c ****     return tv->tile_act;
 126:Lib/lvgl/src/widgets/tileview/lv_tileview.c **** }
 127:Lib/lvgl/src/widgets/tileview/lv_tileview.c **** 
 128:Lib/lvgl/src/widgets/tileview/lv_tileview.c **** /**********************
 129:Lib/lvgl/src/widgets/tileview/lv_tileview.c ****  *   STATIC FUNCTIONS
 130:Lib/lvgl/src/widgets/tileview/lv_tileview.c ****  **********************/
 131:Lib/lvgl/src/widgets/tileview/lv_tileview.c **** 
 132:Lib/lvgl/src/widgets/tileview/lv_tileview.c **** static void lv_tileview_constructor(const lv_obj_class_t * class_p, lv_obj_t * obj)
 133:Lib/lvgl/src/widgets/tileview/lv_tileview.c **** {
  29              		.loc 1 133 1 view -0
  30              		.cfi_startproc
  31              		@ args = 0, pretend = 0, frame = 0
  32              		@ frame_needed = 0, uses_anonymous_args = 0
  33              		.loc 1 133 1 is_stmt 0 view .LVU1
  34 0000 10B5     		push	{r4, lr}
  35              	.LCFI0:
  36              		.cfi_def_cfa_offset 8
  37              		.cfi_offset 4, -8
  38              		.cfi_offset 14, -4
  39 0002 0C46     		mov	r4, r1
ARM GAS  C:\Users\Alex\AppData\Local\Temp\cc8pUgFk.s 			page 4


 134:Lib/lvgl/src/widgets/tileview/lv_tileview.c ****     LV_UNUSED(class_p);
  40              		.loc 1 134 5 is_stmt 1 view .LVU2
 135:Lib/lvgl/src/widgets/tileview/lv_tileview.c ****     lv_obj_set_size(obj, LV_PCT(100), LV_PCT(100));
  41              		.loc 1 135 5 view .LVU3
  42 0004 0B49     		ldr	r1, .L3
  43              	.LVL1:
  44              		.loc 1 135 5 is_stmt 0 view .LVU4
  45 0006 0A46     		mov	r2, r1
  46 0008 2046     		mov	r0, r4
  47              	.LVL2:
  48              		.loc 1 135 5 view .LVU5
  49 000a FFF7FEFF 		bl	lv_obj_set_size
  50              	.LVL3:
 136:Lib/lvgl/src/widgets/tileview/lv_tileview.c ****     lv_obj_add_event_cb(obj, tileview_event_cb, LV_EVENT_ALL, NULL);
  51              		.loc 1 136 5 is_stmt 1 view .LVU6
  52 000e 0023     		movs	r3, #0
  53 0010 1A46     		mov	r2, r3
  54 0012 0949     		ldr	r1, .L3+4
  55 0014 2046     		mov	r0, r4
  56 0016 FFF7FEFF 		bl	lv_obj_add_event_cb
  57              	.LVL4:
 137:Lib/lvgl/src/widgets/tileview/lv_tileview.c ****     lv_obj_add_flag(obj, LV_OBJ_FLAG_SCROLL_ONE);
  58              		.loc 1 137 5 view .LVU7
  59 001a 8021     		movs	r1, #128
  60 001c 2046     		mov	r0, r4
  61 001e FFF7FEFF 		bl	lv_obj_add_flag
  62              	.LVL5:
 138:Lib/lvgl/src/widgets/tileview/lv_tileview.c ****     lv_obj_set_scroll_snap_x(obj, LV_SCROLL_SNAP_CENTER);
  63              		.loc 1 138 5 view .LVU8
  64 0022 0321     		movs	r1, #3
  65 0024 2046     		mov	r0, r4
  66 0026 FFF7FEFF 		bl	lv_obj_set_scroll_snap_x
  67              	.LVL6:
 139:Lib/lvgl/src/widgets/tileview/lv_tileview.c ****     lv_obj_set_scroll_snap_y(obj, LV_SCROLL_SNAP_CENTER);
  68              		.loc 1 139 5 view .LVU9
  69 002a 0321     		movs	r1, #3
  70 002c 2046     		mov	r0, r4
  71 002e FFF7FEFF 		bl	lv_obj_set_scroll_snap_y
  72              	.LVL7:
 140:Lib/lvgl/src/widgets/tileview/lv_tileview.c **** 
 141:Lib/lvgl/src/widgets/tileview/lv_tileview.c **** }
  73              		.loc 1 141 1 is_stmt 0 view .LVU10
  74 0032 10BD     		pop	{r4, pc}
  75              	.LVL8:
  76              	.L4:
  77              		.loc 1 141 1 view .LVU11
  78              		.align	2
  79              	.L3:
  80 0034 64000020 		.word	536871012
  81 0038 00000000 		.word	tileview_event_cb
  82              		.cfi_endproc
  83              	.LFE238:
  85              		.section	.text.tileview_event_cb,"ax",%progbits
  86              		.align	1
  87              		.syntax unified
  88              		.thumb
  89              		.thumb_func
ARM GAS  C:\Users\Alex\AppData\Local\Temp\cc8pUgFk.s 			page 5


  91              	tileview_event_cb:
  92              	.LVL9:
  93              	.LFB240:
 142:Lib/lvgl/src/widgets/tileview/lv_tileview.c **** 
 143:Lib/lvgl/src/widgets/tileview/lv_tileview.c **** static void lv_tileview_tile_constructor(const lv_obj_class_t * class_p, lv_obj_t * obj)
 144:Lib/lvgl/src/widgets/tileview/lv_tileview.c **** {
 145:Lib/lvgl/src/widgets/tileview/lv_tileview.c **** 
 146:Lib/lvgl/src/widgets/tileview/lv_tileview.c ****     LV_UNUSED(class_p);
 147:Lib/lvgl/src/widgets/tileview/lv_tileview.c ****     lv_obj_set_size(obj, LV_PCT(100), LV_PCT(100));
 148:Lib/lvgl/src/widgets/tileview/lv_tileview.c ****     lv_obj_update_layout(obj);  /*Be sure the size is correct*/
 149:Lib/lvgl/src/widgets/tileview/lv_tileview.c **** }
 150:Lib/lvgl/src/widgets/tileview/lv_tileview.c **** 
 151:Lib/lvgl/src/widgets/tileview/lv_tileview.c **** static void tileview_event_cb(lv_event_t * e)
 152:Lib/lvgl/src/widgets/tileview/lv_tileview.c **** {
  94              		.loc 1 152 1 is_stmt 1 view -0
  95              		.cfi_startproc
  96              		@ args = 0, pretend = 0, frame = 8
  97              		@ frame_needed = 0, uses_anonymous_args = 0
  98              		.loc 1 152 1 is_stmt 0 view .LVU13
  99 0000 2DE9F043 		push	{r4, r5, r6, r7, r8, r9, lr}
 100              	.LCFI1:
 101              		.cfi_def_cfa_offset 28
 102              		.cfi_offset 4, -28
 103              		.cfi_offset 5, -24
 104              		.cfi_offset 6, -20
 105              		.cfi_offset 7, -16
 106              		.cfi_offset 8, -12
 107              		.cfi_offset 9, -8
 108              		.cfi_offset 14, -4
 109 0004 83B0     		sub	sp, sp, #12
 110              	.LCFI2:
 111              		.cfi_def_cfa_offset 40
 112 0006 0546     		mov	r5, r0
 153:Lib/lvgl/src/widgets/tileview/lv_tileview.c ****     lv_event_code_t code = lv_event_get_code(e);
 113              		.loc 1 153 5 is_stmt 1 view .LVU14
 114              		.loc 1 153 28 is_stmt 0 view .LVU15
 115 0008 FFF7FEFF 		bl	lv_event_get_code
 116              	.LVL10:
 117              		.loc 1 153 28 view .LVU16
 118 000c 0446     		mov	r4, r0
 119              	.LVL11:
 154:Lib/lvgl/src/widgets/tileview/lv_tileview.c ****     lv_obj_t * obj = lv_event_get_current_target(e);
 120              		.loc 1 154 5 is_stmt 1 view .LVU17
 121              		.loc 1 154 22 is_stmt 0 view .LVU18
 122 000e 2846     		mov	r0, r5
 123 0010 FFF7FEFF 		bl	lv_event_get_current_target
 124              	.LVL12:
 155:Lib/lvgl/src/widgets/tileview/lv_tileview.c ****     lv_tileview_t * tv = (lv_tileview_t *) obj;
 125              		.loc 1 155 5 is_stmt 1 view .LVU19
 156:Lib/lvgl/src/widgets/tileview/lv_tileview.c **** 
 157:Lib/lvgl/src/widgets/tileview/lv_tileview.c ****     if(code == LV_EVENT_SCROLL_END) {
 126              		.loc 1 157 5 view .LVU20
 127              		.loc 1 157 7 is_stmt 0 view .LVU21
 128 0014 0B2C     		cmp	r4, #11
 129 0016 02D0     		beq	.L13
 130              	.LVL13:
 131              	.L5:
ARM GAS  C:\Users\Alex\AppData\Local\Temp\cc8pUgFk.s 			page 6


 158:Lib/lvgl/src/widgets/tileview/lv_tileview.c ****         lv_indev_t * indev = lv_indev_active();
 159:Lib/lvgl/src/widgets/tileview/lv_tileview.c ****         if(indev && indev->state == LV_INDEV_STATE_PRESSED) {
 160:Lib/lvgl/src/widgets/tileview/lv_tileview.c ****             return;
 161:Lib/lvgl/src/widgets/tileview/lv_tileview.c ****         }
 162:Lib/lvgl/src/widgets/tileview/lv_tileview.c **** 
 163:Lib/lvgl/src/widgets/tileview/lv_tileview.c ****         int32_t w = lv_obj_get_content_width(obj);
 164:Lib/lvgl/src/widgets/tileview/lv_tileview.c ****         int32_t h = lv_obj_get_content_height(obj);
 165:Lib/lvgl/src/widgets/tileview/lv_tileview.c **** 
 166:Lib/lvgl/src/widgets/tileview/lv_tileview.c ****         lv_point_t scroll_end;
 167:Lib/lvgl/src/widgets/tileview/lv_tileview.c ****         lv_obj_get_scroll_end(obj, &scroll_end);
 168:Lib/lvgl/src/widgets/tileview/lv_tileview.c ****         int32_t left = scroll_end.x;
 169:Lib/lvgl/src/widgets/tileview/lv_tileview.c ****         int32_t top = scroll_end.y;
 170:Lib/lvgl/src/widgets/tileview/lv_tileview.c **** 
 171:Lib/lvgl/src/widgets/tileview/lv_tileview.c ****         int32_t tx = ((left + (w / 2)) / w) * w;
 172:Lib/lvgl/src/widgets/tileview/lv_tileview.c ****         int32_t ty = ((top + (h / 2)) / h) * h;
 173:Lib/lvgl/src/widgets/tileview/lv_tileview.c **** 
 174:Lib/lvgl/src/widgets/tileview/lv_tileview.c ****         lv_dir_t dir = LV_DIR_ALL;
 175:Lib/lvgl/src/widgets/tileview/lv_tileview.c ****         uint32_t i;
 176:Lib/lvgl/src/widgets/tileview/lv_tileview.c ****         for(i = 0; i < lv_obj_get_child_count(obj); i++) {
 177:Lib/lvgl/src/widgets/tileview/lv_tileview.c ****             lv_obj_t * tile_obj = lv_obj_get_child(obj, i);
 178:Lib/lvgl/src/widgets/tileview/lv_tileview.c ****             int32_t x = lv_obj_get_x(tile_obj);
 179:Lib/lvgl/src/widgets/tileview/lv_tileview.c ****             int32_t y = lv_obj_get_y(tile_obj);
 180:Lib/lvgl/src/widgets/tileview/lv_tileview.c ****             if(x == tx && y == ty) {
 181:Lib/lvgl/src/widgets/tileview/lv_tileview.c ****                 lv_tileview_tile_t * tile = (lv_tileview_tile_t *)tile_obj;
 182:Lib/lvgl/src/widgets/tileview/lv_tileview.c ****                 tv->tile_act = (lv_obj_t *)tile;
 183:Lib/lvgl/src/widgets/tileview/lv_tileview.c ****                 dir = tile->dir;
 184:Lib/lvgl/src/widgets/tileview/lv_tileview.c ****                 lv_obj_send_event(obj, LV_EVENT_VALUE_CHANGED, NULL);
 185:Lib/lvgl/src/widgets/tileview/lv_tileview.c ****                 break;
 186:Lib/lvgl/src/widgets/tileview/lv_tileview.c ****             }
 187:Lib/lvgl/src/widgets/tileview/lv_tileview.c ****         }
 188:Lib/lvgl/src/widgets/tileview/lv_tileview.c ****         lv_obj_set_scroll_dir(obj, dir);
 189:Lib/lvgl/src/widgets/tileview/lv_tileview.c ****     }
 190:Lib/lvgl/src/widgets/tileview/lv_tileview.c **** }
 132              		.loc 1 190 1 view .LVU22
 133 0018 03B0     		add	sp, sp, #12
 134              	.LCFI3:
 135              		.cfi_remember_state
 136              		.cfi_def_cfa_offset 28
 137              		@ sp needed
 138 001a BDE8F083 		pop	{r4, r5, r6, r7, r8, r9, pc}
 139              	.LVL14:
 140              	.L13:
 141              	.LCFI4:
 142              		.cfi_restore_state
 143              		.loc 1 190 1 view .LVU23
 144 001e 0746     		mov	r7, r0
 145              	.LBB2:
 158:Lib/lvgl/src/widgets/tileview/lv_tileview.c ****         lv_indev_t * indev = lv_indev_active();
 146              		.loc 1 158 9 is_stmt 1 view .LVU24
 158:Lib/lvgl/src/widgets/tileview/lv_tileview.c ****         lv_indev_t * indev = lv_indev_active();
 147              		.loc 1 158 30 is_stmt 0 view .LVU25
 148 0020 FFF7FEFF 		bl	lv_indev_active
 149              	.LVL15:
 159:Lib/lvgl/src/widgets/tileview/lv_tileview.c ****             return;
 150              		.loc 1 159 9 is_stmt 1 view .LVU26
 159:Lib/lvgl/src/widgets/tileview/lv_tileview.c ****             return;
 151              		.loc 1 159 11 is_stmt 0 view .LVU27
ARM GAS  C:\Users\Alex\AppData\Local\Temp\cc8pUgFk.s 			page 7


 152 0024 10B1     		cbz	r0, .L7
 159:Lib/lvgl/src/widgets/tileview/lv_tileview.c ****             return;
 153              		.loc 1 159 26 discriminator 1 view .LVU28
 154 0026 037A     		ldrb	r3, [r0, #8]	@ zero_extendqisi2
 159:Lib/lvgl/src/widgets/tileview/lv_tileview.c ****             return;
 155              		.loc 1 159 18 discriminator 1 view .LVU29
 156 0028 012B     		cmp	r3, #1
 157 002a F5D0     		beq	.L5
 158              	.L7:
 163:Lib/lvgl/src/widgets/tileview/lv_tileview.c ****         int32_t h = lv_obj_get_content_height(obj);
 159              		.loc 1 163 9 is_stmt 1 view .LVU30
 163:Lib/lvgl/src/widgets/tileview/lv_tileview.c ****         int32_t h = lv_obj_get_content_height(obj);
 160              		.loc 1 163 21 is_stmt 0 view .LVU31
 161 002c 3846     		mov	r0, r7
 162              	.LVL16:
 163:Lib/lvgl/src/widgets/tileview/lv_tileview.c ****         int32_t h = lv_obj_get_content_height(obj);
 163              		.loc 1 163 21 view .LVU32
 164 002e FFF7FEFF 		bl	lv_obj_get_content_width
 165              	.LVL17:
 166 0032 0546     		mov	r5, r0
 167              	.LVL18:
 164:Lib/lvgl/src/widgets/tileview/lv_tileview.c **** 
 168              		.loc 1 164 9 is_stmt 1 view .LVU33
 164:Lib/lvgl/src/widgets/tileview/lv_tileview.c **** 
 169              		.loc 1 164 21 is_stmt 0 view .LVU34
 170 0034 3846     		mov	r0, r7
 171              	.LVL19:
 164:Lib/lvgl/src/widgets/tileview/lv_tileview.c **** 
 172              		.loc 1 164 21 view .LVU35
 173 0036 FFF7FEFF 		bl	lv_obj_get_content_height
 174              	.LVL20:
 175 003a 0446     		mov	r4, r0
 176              	.LVL21:
 166:Lib/lvgl/src/widgets/tileview/lv_tileview.c ****         lv_obj_get_scroll_end(obj, &scroll_end);
 177              		.loc 1 166 9 is_stmt 1 view .LVU36
 167:Lib/lvgl/src/widgets/tileview/lv_tileview.c ****         int32_t left = scroll_end.x;
 178              		.loc 1 167 9 view .LVU37
 179 003c 6946     		mov	r1, sp
 180 003e 3846     		mov	r0, r7
 181              	.LVL22:
 167:Lib/lvgl/src/widgets/tileview/lv_tileview.c ****         int32_t left = scroll_end.x;
 182              		.loc 1 167 9 is_stmt 0 view .LVU38
 183 0040 FFF7FEFF 		bl	lv_obj_get_scroll_end
 184              	.LVL23:
 168:Lib/lvgl/src/widgets/tileview/lv_tileview.c ****         int32_t top = scroll_end.y;
 185              		.loc 1 168 9 is_stmt 1 view .LVU39
 169:Lib/lvgl/src/widgets/tileview/lv_tileview.c **** 
 186              		.loc 1 169 9 view .LVU40
 171:Lib/lvgl/src/widgets/tileview/lv_tileview.c ****         int32_t ty = ((top + (h / 2)) / h) * h;
 187              		.loc 1 171 9 view .LVU41
 171:Lib/lvgl/src/widgets/tileview/lv_tileview.c ****         int32_t ty = ((top + (h / 2)) / h) * h;
 188              		.loc 1 171 34 is_stmt 0 view .LVU42
 189 0044 05EBD572 		add	r2, r5, r5, lsr #31
 171:Lib/lvgl/src/widgets/tileview/lv_tileview.c ****         int32_t ty = ((top + (h / 2)) / h) * h;
 190              		.loc 1 171 29 view .LVU43
 191 0048 009B     		ldr	r3, [sp]
 192 004a 03EB6208 		add	r8, r3, r2, asr #1
ARM GAS  C:\Users\Alex\AppData\Local\Temp\cc8pUgFk.s 			page 8


 171:Lib/lvgl/src/widgets/tileview/lv_tileview.c ****         int32_t ty = ((top + (h / 2)) / h) * h;
 193              		.loc 1 171 40 view .LVU44
 194 004e 98FBF5F8 		sdiv	r8, r8, r5
 171:Lib/lvgl/src/widgets/tileview/lv_tileview.c ****         int32_t ty = ((top + (h / 2)) / h) * h;
 195              		.loc 1 171 17 view .LVU45
 196 0052 05FB08F8 		mul	r8, r5, r8
 197              	.LVL24:
 172:Lib/lvgl/src/widgets/tileview/lv_tileview.c **** 
 198              		.loc 1 172 9 is_stmt 1 view .LVU46
 172:Lib/lvgl/src/widgets/tileview/lv_tileview.c **** 
 199              		.loc 1 172 33 is_stmt 0 view .LVU47
 200 0056 04EBD472 		add	r2, r4, r4, lsr #31
 172:Lib/lvgl/src/widgets/tileview/lv_tileview.c **** 
 201              		.loc 1 172 28 view .LVU48
 202 005a 019B     		ldr	r3, [sp, #4]
 203 005c 03EB6209 		add	r9, r3, r2, asr #1
 172:Lib/lvgl/src/widgets/tileview/lv_tileview.c **** 
 204              		.loc 1 172 39 view .LVU49
 205 0060 99FBF4F9 		sdiv	r9, r9, r4
 172:Lib/lvgl/src/widgets/tileview/lv_tileview.c **** 
 206              		.loc 1 172 17 view .LVU50
 207 0064 04FB09F9 		mul	r9, r4, r9
 208              	.LVL25:
 174:Lib/lvgl/src/widgets/tileview/lv_tileview.c ****         uint32_t i;
 209              		.loc 1 174 9 is_stmt 1 view .LVU51
 175:Lib/lvgl/src/widgets/tileview/lv_tileview.c ****         for(i = 0; i < lv_obj_get_child_count(obj); i++) {
 210              		.loc 1 175 9 view .LVU52
 176:Lib/lvgl/src/widgets/tileview/lv_tileview.c ****             lv_obj_t * tile_obj = lv_obj_get_child(obj, i);
 211              		.loc 1 176 9 view .LVU53
 176:Lib/lvgl/src/widgets/tileview/lv_tileview.c ****             lv_obj_t * tile_obj = lv_obj_get_child(obj, i);
 212              		.loc 1 176 15 is_stmt 0 view .LVU54
 213 0068 0024     		movs	r4, #0
 214              	.LVL26:
 176:Lib/lvgl/src/widgets/tileview/lv_tileview.c ****             lv_obj_t * tile_obj = lv_obj_get_child(obj, i);
 215              		.loc 1 176 9 view .LVU55
 216 006a 00E0     		b	.L8
 217              	.LVL27:
 218              	.L9:
 176:Lib/lvgl/src/widgets/tileview/lv_tileview.c ****             lv_obj_t * tile_obj = lv_obj_get_child(obj, i);
 219              		.loc 1 176 54 is_stmt 1 discriminator 2 view .LVU56
 220 006c 0134     		adds	r4, r4, #1
 221              	.LVL28:
 222              	.L8:
 176:Lib/lvgl/src/widgets/tileview/lv_tileview.c ****             lv_obj_t * tile_obj = lv_obj_get_child(obj, i);
 223              		.loc 1 176 22 discriminator 1 view .LVU57
 176:Lib/lvgl/src/widgets/tileview/lv_tileview.c ****             lv_obj_t * tile_obj = lv_obj_get_child(obj, i);
 224              		.loc 1 176 24 is_stmt 0 discriminator 1 view .LVU58
 225 006e 3846     		mov	r0, r7
 226 0070 FFF7FEFF 		bl	lv_obj_get_child_count
 227              	.LVL29:
 176:Lib/lvgl/src/widgets/tileview/lv_tileview.c ****             lv_obj_t * tile_obj = lv_obj_get_child(obj, i);
 228              		.loc 1 176 22 discriminator 1 view .LVU59
 229 0074 A042     		cmp	r0, r4
 230 0076 17D9     		bls	.L14
 231              	.LBB3:
 177:Lib/lvgl/src/widgets/tileview/lv_tileview.c ****             int32_t x = lv_obj_get_x(tile_obj);
 232              		.loc 1 177 13 is_stmt 1 view .LVU60
ARM GAS  C:\Users\Alex\AppData\Local\Temp\cc8pUgFk.s 			page 9


 177:Lib/lvgl/src/widgets/tileview/lv_tileview.c ****             int32_t x = lv_obj_get_x(tile_obj);
 233              		.loc 1 177 35 is_stmt 0 view .LVU61
 234 0078 2146     		mov	r1, r4
 235 007a 3846     		mov	r0, r7
 236 007c FFF7FEFF 		bl	lv_obj_get_child
 237              	.LVL30:
 238 0080 0546     		mov	r5, r0
 239              	.LVL31:
 178:Lib/lvgl/src/widgets/tileview/lv_tileview.c ****             int32_t y = lv_obj_get_y(tile_obj);
 240              		.loc 1 178 13 is_stmt 1 view .LVU62
 178:Lib/lvgl/src/widgets/tileview/lv_tileview.c ****             int32_t y = lv_obj_get_y(tile_obj);
 241              		.loc 1 178 25 is_stmt 0 view .LVU63
 242 0082 FFF7FEFF 		bl	lv_obj_get_x
 243              	.LVL32:
 178:Lib/lvgl/src/widgets/tileview/lv_tileview.c ****             int32_t y = lv_obj_get_y(tile_obj);
 244              		.loc 1 178 25 view .LVU64
 245 0086 0646     		mov	r6, r0
 246              	.LVL33:
 179:Lib/lvgl/src/widgets/tileview/lv_tileview.c ****             if(x == tx && y == ty) {
 247              		.loc 1 179 13 is_stmt 1 view .LVU65
 179:Lib/lvgl/src/widgets/tileview/lv_tileview.c ****             if(x == tx && y == ty) {
 248              		.loc 1 179 25 is_stmt 0 view .LVU66
 249 0088 2846     		mov	r0, r5
 250              	.LVL34:
 179:Lib/lvgl/src/widgets/tileview/lv_tileview.c ****             if(x == tx && y == ty) {
 251              		.loc 1 179 25 view .LVU67
 252 008a FFF7FEFF 		bl	lv_obj_get_y
 253              	.LVL35:
 180:Lib/lvgl/src/widgets/tileview/lv_tileview.c ****                 lv_tileview_tile_t * tile = (lv_tileview_tile_t *)tile_obj;
 254              		.loc 1 180 13 is_stmt 1 view .LVU68
 180:Lib/lvgl/src/widgets/tileview/lv_tileview.c ****                 lv_tileview_tile_t * tile = (lv_tileview_tile_t *)tile_obj;
 255              		.loc 1 180 15 is_stmt 0 view .LVU69
 256 008e B045     		cmp	r8, r6
 257 0090 ECD1     		bne	.L9
 180:Lib/lvgl/src/widgets/tileview/lv_tileview.c ****                 lv_tileview_tile_t * tile = (lv_tileview_tile_t *)tile_obj;
 258              		.loc 1 180 24 discriminator 1 view .LVU70
 259 0092 8145     		cmp	r9, r0
 260 0094 EAD1     		bne	.L9
 261              	.LBB4:
 181:Lib/lvgl/src/widgets/tileview/lv_tileview.c ****                 tv->tile_act = (lv_obj_t *)tile;
 262              		.loc 1 181 17 is_stmt 1 view .LVU71
 263              	.LVL36:
 182:Lib/lvgl/src/widgets/tileview/lv_tileview.c ****                 dir = tile->dir;
 264              		.loc 1 182 17 view .LVU72
 182:Lib/lvgl/src/widgets/tileview/lv_tileview.c ****                 dir = tile->dir;
 265              		.loc 1 182 30 is_stmt 0 view .LVU73
 266 0096 FD62     		str	r5, [r7, #44]
 183:Lib/lvgl/src/widgets/tileview/lv_tileview.c ****                 lv_obj_send_event(obj, LV_EVENT_VALUE_CHANGED, NULL);
 267              		.loc 1 183 17 is_stmt 1 view .LVU74
 183:Lib/lvgl/src/widgets/tileview/lv_tileview.c ****                 lv_obj_send_event(obj, LV_EVENT_VALUE_CHANGED, NULL);
 268              		.loc 1 183 21 is_stmt 0 view .LVU75
 269 0098 95F82C40 		ldrb	r4, [r5, #44]	@ zero_extendqisi2
 270              	.LVL37:
 184:Lib/lvgl/src/widgets/tileview/lv_tileview.c ****                 break;
 271              		.loc 1 184 17 is_stmt 1 view .LVU76
 272 009c 0022     		movs	r2, #0
 273 009e 1D21     		movs	r1, #29
ARM GAS  C:\Users\Alex\AppData\Local\Temp\cc8pUgFk.s 			page 10


 274 00a0 3846     		mov	r0, r7
 275              	.LVL38:
 184:Lib/lvgl/src/widgets/tileview/lv_tileview.c ****                 break;
 276              		.loc 1 184 17 is_stmt 0 view .LVU77
 277 00a2 FFF7FEFF 		bl	lv_obj_send_event
 278              	.LVL39:
 185:Lib/lvgl/src/widgets/tileview/lv_tileview.c ****             }
 279              		.loc 1 185 17 is_stmt 1 view .LVU78
 280 00a6 00E0     		b	.L10
 281              	.LVL40:
 282              	.L14:
 185:Lib/lvgl/src/widgets/tileview/lv_tileview.c ****             }
 283              		.loc 1 185 17 is_stmt 0 view .LVU79
 284              	.LBE4:
 285              	.LBE3:
 174:Lib/lvgl/src/widgets/tileview/lv_tileview.c ****         uint32_t i;
 286              		.loc 1 174 18 view .LVU80
 287 00a8 0F24     		movs	r4, #15
 288              	.LVL41:
 289              	.L10:
 188:Lib/lvgl/src/widgets/tileview/lv_tileview.c ****     }
 290              		.loc 1 188 9 is_stmt 1 view .LVU81
 291 00aa 2146     		mov	r1, r4
 292 00ac 3846     		mov	r0, r7
 293 00ae FFF7FEFF 		bl	lv_obj_set_scroll_dir
 294              	.LVL42:
 295 00b2 B1E7     		b	.L5
 296              	.LBE2:
 297              		.cfi_endproc
 298              	.LFE240:
 300              		.section	.text.lv_tileview_tile_constructor,"ax",%progbits
 301              		.align	1
 302              		.syntax unified
 303              		.thumb
 304              		.thumb_func
 306              	lv_tileview_tile_constructor:
 307              	.LVL43:
 308              	.LFB239:
 144:Lib/lvgl/src/widgets/tileview/lv_tileview.c **** 
 309              		.loc 1 144 1 view -0
 310              		.cfi_startproc
 311              		@ args = 0, pretend = 0, frame = 0
 312              		@ frame_needed = 0, uses_anonymous_args = 0
 144:Lib/lvgl/src/widgets/tileview/lv_tileview.c **** 
 313              		.loc 1 144 1 is_stmt 0 view .LVU83
 314 0000 10B5     		push	{r4, lr}
 315              	.LCFI5:
 316              		.cfi_def_cfa_offset 8
 317              		.cfi_offset 4, -8
 318              		.cfi_offset 14, -4
 319 0002 0C46     		mov	r4, r1
 146:Lib/lvgl/src/widgets/tileview/lv_tileview.c ****     lv_obj_set_size(obj, LV_PCT(100), LV_PCT(100));
 320              		.loc 1 146 5 is_stmt 1 view .LVU84
 147:Lib/lvgl/src/widgets/tileview/lv_tileview.c ****     lv_obj_update_layout(obj);  /*Be sure the size is correct*/
 321              		.loc 1 147 5 view .LVU85
 322 0004 0449     		ldr	r1, .L17
 323              	.LVL44:
ARM GAS  C:\Users\Alex\AppData\Local\Temp\cc8pUgFk.s 			page 11


 147:Lib/lvgl/src/widgets/tileview/lv_tileview.c ****     lv_obj_update_layout(obj);  /*Be sure the size is correct*/
 324              		.loc 1 147 5 is_stmt 0 view .LVU86
 325 0006 0A46     		mov	r2, r1
 326 0008 2046     		mov	r0, r4
 327              	.LVL45:
 147:Lib/lvgl/src/widgets/tileview/lv_tileview.c ****     lv_obj_update_layout(obj);  /*Be sure the size is correct*/
 328              		.loc 1 147 5 view .LVU87
 329 000a FFF7FEFF 		bl	lv_obj_set_size
 330              	.LVL46:
 148:Lib/lvgl/src/widgets/tileview/lv_tileview.c **** }
 331              		.loc 1 148 5 is_stmt 1 view .LVU88
 332 000e 2046     		mov	r0, r4
 333 0010 FFF7FEFF 		bl	lv_obj_update_layout
 334              	.LVL47:
 149:Lib/lvgl/src/widgets/tileview/lv_tileview.c **** 
 335              		.loc 1 149 1 is_stmt 0 view .LVU89
 336 0014 10BD     		pop	{r4, pc}
 337              	.LVL48:
 338              	.L18:
 149:Lib/lvgl/src/widgets/tileview/lv_tileview.c **** 
 339              		.loc 1 149 1 view .LVU90
 340 0016 00BF     		.align	2
 341              	.L17:
 342 0018 64000020 		.word	536871012
 343              		.cfi_endproc
 344              	.LFE239:
 346              		.section	.text.lv_tileview_create,"ax",%progbits
 347              		.align	1
 348              		.global	lv_tileview_create
 349              		.syntax unified
 350              		.thumb
 351              		.thumb_func
 353              	lv_tileview_create:
 354              	.LVL49:
 355              	.LFB233:
  56:Lib/lvgl/src/widgets/tileview/lv_tileview.c ****     LV_LOG_INFO("begin");
 356              		.loc 1 56 1 is_stmt 1 view -0
 357              		.cfi_startproc
 358              		@ args = 0, pretend = 0, frame = 0
 359              		@ frame_needed = 0, uses_anonymous_args = 0
  56:Lib/lvgl/src/widgets/tileview/lv_tileview.c ****     LV_LOG_INFO("begin");
 360              		.loc 1 56 1 is_stmt 0 view .LVU92
 361 0000 10B5     		push	{r4, lr}
 362              	.LCFI6:
 363              		.cfi_def_cfa_offset 8
 364              		.cfi_offset 4, -8
 365              		.cfi_offset 14, -4
 366 0002 0146     		mov	r1, r0
  57:Lib/lvgl/src/widgets/tileview/lv_tileview.c ****     lv_obj_t * obj = lv_obj_class_create_obj(&lv_tileview_class, parent);
 367              		.loc 1 57 5 is_stmt 1 view .LVU93
  57:Lib/lvgl/src/widgets/tileview/lv_tileview.c ****     lv_obj_t * obj = lv_obj_class_create_obj(&lv_tileview_class, parent);
 368              		.loc 1 57 5 view .LVU94
  57:Lib/lvgl/src/widgets/tileview/lv_tileview.c ****     lv_obj_t * obj = lv_obj_class_create_obj(&lv_tileview_class, parent);
 369              		.loc 1 57 5 view .LVU95
  58:Lib/lvgl/src/widgets/tileview/lv_tileview.c ****     lv_obj_class_init_obj(obj);
 370              		.loc 1 58 5 view .LVU96
  58:Lib/lvgl/src/widgets/tileview/lv_tileview.c ****     lv_obj_class_init_obj(obj);
ARM GAS  C:\Users\Alex\AppData\Local\Temp\cc8pUgFk.s 			page 12


 371              		.loc 1 58 22 is_stmt 0 view .LVU97
 372 0004 0348     		ldr	r0, .L21
 373              	.LVL50:
  58:Lib/lvgl/src/widgets/tileview/lv_tileview.c ****     lv_obj_class_init_obj(obj);
 374              		.loc 1 58 22 view .LVU98
 375 0006 FFF7FEFF 		bl	lv_obj_class_create_obj
 376              	.LVL51:
  58:Lib/lvgl/src/widgets/tileview/lv_tileview.c ****     lv_obj_class_init_obj(obj);
 377              		.loc 1 58 22 view .LVU99
 378 000a 0446     		mov	r4, r0
 379              	.LVL52:
  59:Lib/lvgl/src/widgets/tileview/lv_tileview.c ****     return obj;
 380              		.loc 1 59 5 is_stmt 1 view .LVU100
 381 000c FFF7FEFF 		bl	lv_obj_class_init_obj
 382              	.LVL53:
  60:Lib/lvgl/src/widgets/tileview/lv_tileview.c **** }
 383              		.loc 1 60 5 view .LVU101
  61:Lib/lvgl/src/widgets/tileview/lv_tileview.c **** 
 384              		.loc 1 61 1 is_stmt 0 view .LVU102
 385 0010 2046     		mov	r0, r4
 386 0012 10BD     		pop	{r4, pc}
 387              	.LVL54:
 388              	.L22:
  61:Lib/lvgl/src/widgets/tileview/lv_tileview.c **** 
 389              		.loc 1 61 1 view .LVU103
 390              		.align	2
 391              	.L21:
 392 0014 00000000 		.word	lv_tileview_class
 393              		.cfi_endproc
 394              	.LFE233:
 396              		.section	.text.lv_tileview_add_tile,"ax",%progbits
 397              		.align	1
 398              		.global	lv_tileview_add_tile
 399              		.syntax unified
 400              		.thumb
 401              		.thumb_func
 403              	lv_tileview_add_tile:
 404              	.LVL55:
 405              	.LFB234:
  68:Lib/lvgl/src/widgets/tileview/lv_tileview.c ****     LV_LOG_INFO("begin");
 406              		.loc 1 68 1 is_stmt 1 view -0
 407              		.cfi_startproc
 408              		@ args = 0, pretend = 0, frame = 0
 409              		@ frame_needed = 0, uses_anonymous_args = 0
  68:Lib/lvgl/src/widgets/tileview/lv_tileview.c ****     LV_LOG_INFO("begin");
 410              		.loc 1 68 1 is_stmt 0 view .LVU105
 411 0000 2DE9F843 		push	{r3, r4, r5, r6, r7, r8, r9, lr}
 412              	.LCFI7:
 413              		.cfi_def_cfa_offset 32
 414              		.cfi_offset 3, -32
 415              		.cfi_offset 4, -28
 416              		.cfi_offset 5, -24
 417              		.cfi_offset 6, -20
 418              		.cfi_offset 7, -16
 419              		.cfi_offset 8, -12
 420              		.cfi_offset 9, -8
 421              		.cfi_offset 14, -4
ARM GAS  C:\Users\Alex\AppData\Local\Temp\cc8pUgFk.s 			page 13


 422 0004 0446     		mov	r4, r0
 423 0006 0E46     		mov	r6, r1
 424 0008 1746     		mov	r7, r2
 425 000a 9846     		mov	r8, r3
  69:Lib/lvgl/src/widgets/tileview/lv_tileview.c **** 
 426              		.loc 1 69 5 is_stmt 1 view .LVU106
  69:Lib/lvgl/src/widgets/tileview/lv_tileview.c **** 
 427              		.loc 1 69 5 view .LVU107
  69:Lib/lvgl/src/widgets/tileview/lv_tileview.c **** 
 428              		.loc 1 69 5 view .LVU108
  71:Lib/lvgl/src/widgets/tileview/lv_tileview.c ****     lv_obj_class_init_obj(obj);
 429              		.loc 1 71 5 view .LVU109
  71:Lib/lvgl/src/widgets/tileview/lv_tileview.c ****     lv_obj_class_init_obj(obj);
 430              		.loc 1 71 22 is_stmt 0 view .LVU110
 431 000c 0146     		mov	r1, r0
 432              	.LVL56:
  71:Lib/lvgl/src/widgets/tileview/lv_tileview.c ****     lv_obj_class_init_obj(obj);
 433              		.loc 1 71 22 view .LVU111
 434 000e 1048     		ldr	r0, .L27
 435              	.LVL57:
  71:Lib/lvgl/src/widgets/tileview/lv_tileview.c ****     lv_obj_class_init_obj(obj);
 436              		.loc 1 71 22 view .LVU112
 437 0010 FFF7FEFF 		bl	lv_obj_class_create_obj
 438              	.LVL58:
  71:Lib/lvgl/src/widgets/tileview/lv_tileview.c ****     lv_obj_class_init_obj(obj);
 439              		.loc 1 71 22 view .LVU113
 440 0014 0546     		mov	r5, r0
 441              	.LVL59:
  72:Lib/lvgl/src/widgets/tileview/lv_tileview.c ****     lv_obj_set_pos(obj, col_id * lv_obj_get_content_width(tv),
 442              		.loc 1 72 5 is_stmt 1 view .LVU114
 443 0016 FFF7FEFF 		bl	lv_obj_class_init_obj
 444              	.LVL60:
  73:Lib/lvgl/src/widgets/tileview/lv_tileview.c ****                    row_id * lv_obj_get_content_height(tv));
 445              		.loc 1 73 5 view .LVU115
  73:Lib/lvgl/src/widgets/tileview/lv_tileview.c ****                    row_id * lv_obj_get_content_height(tv));
 446              		.loc 1 73 34 is_stmt 0 view .LVU116
 447 001a 2046     		mov	r0, r4
 448 001c FFF7FEFF 		bl	lv_obj_get_content_width
 449              	.LVL61:
  73:Lib/lvgl/src/widgets/tileview/lv_tileview.c ****                    row_id * lv_obj_get_content_height(tv));
 450              		.loc 1 73 5 view .LVU117
 451 0020 00FB06F9 		mul	r9, r0, r6
  74:Lib/lvgl/src/widgets/tileview/lv_tileview.c **** 
 452              		.loc 1 74 29 view .LVU118
 453 0024 2046     		mov	r0, r4
 454 0026 FFF7FEFF 		bl	lv_obj_get_content_height
 455              	.LVL62:
  73:Lib/lvgl/src/widgets/tileview/lv_tileview.c ****                    row_id * lv_obj_get_content_height(tv));
 456              		.loc 1 73 5 view .LVU119
 457 002a 00FB07F2 		mul	r2, r0, r7
 458 002e 4946     		mov	r1, r9
 459 0030 2846     		mov	r0, r5
 460 0032 FFF7FEFF 		bl	lv_obj_set_pos
 461              	.LVL63:
  76:Lib/lvgl/src/widgets/tileview/lv_tileview.c ****     tile->dir = dir;
 462              		.loc 1 76 5 is_stmt 1 view .LVU120
  77:Lib/lvgl/src/widgets/tileview/lv_tileview.c **** 
ARM GAS  C:\Users\Alex\AppData\Local\Temp\cc8pUgFk.s 			page 14


 463              		.loc 1 77 5 view .LVU121
  77:Lib/lvgl/src/widgets/tileview/lv_tileview.c **** 
 464              		.loc 1 77 15 is_stmt 0 view .LVU122
 465 0036 85F82C80 		strb	r8, [r5, #44]
  79:Lib/lvgl/src/widgets/tileview/lv_tileview.c ****         lv_obj_set_scroll_dir(tv, dir);
 466              		.loc 1 79 5 is_stmt 1 view .LVU123
  79:Lib/lvgl/src/widgets/tileview/lv_tileview.c ****         lv_obj_set_scroll_dir(tv, dir);
 467              		.loc 1 79 7 is_stmt 0 view .LVU124
 468 003a 06B9     		cbnz	r6, .L23
  79:Lib/lvgl/src/widgets/tileview/lv_tileview.c ****         lv_obj_set_scroll_dir(tv, dir);
 469              		.loc 1 79 20 discriminator 1 view .LVU125
 470 003c 17B1     		cbz	r7, .L26
 471              	.L23:
  83:Lib/lvgl/src/widgets/tileview/lv_tileview.c **** 
 472              		.loc 1 83 1 view .LVU126
 473 003e 2846     		mov	r0, r5
 474 0040 BDE8F883 		pop	{r3, r4, r5, r6, r7, r8, r9, pc}
 475              	.LVL64:
 476              	.L26:
  80:Lib/lvgl/src/widgets/tileview/lv_tileview.c ****     }
 477              		.loc 1 80 9 is_stmt 1 view .LVU127
 478 0044 4146     		mov	r1, r8
 479 0046 2046     		mov	r0, r4
 480 0048 FFF7FEFF 		bl	lv_obj_set_scroll_dir
 481              	.LVL65:
  82:Lib/lvgl/src/widgets/tileview/lv_tileview.c **** }
 482              		.loc 1 82 5 view .LVU128
  82:Lib/lvgl/src/widgets/tileview/lv_tileview.c **** }
 483              		.loc 1 82 12 is_stmt 0 view .LVU129
 484 004c F7E7     		b	.L23
 485              	.L28:
 486 004e 00BF     		.align	2
 487              	.L27:
 488 0050 00000000 		.word	lv_tileview_tile_class
 489              		.cfi_endproc
 490              	.LFE234:
 492              		.section	.text.lv_tileview_set_tile,"ax",%progbits
 493              		.align	1
 494              		.global	lv_tileview_set_tile
 495              		.syntax unified
 496              		.thumb
 497              		.thumb_func
 499              	lv_tileview_set_tile:
 500              	.LVL66:
 501              	.LFB235:
  86:Lib/lvgl/src/widgets/tileview/lv_tileview.c ****     int32_t tx = lv_obj_get_x(tile_obj);
 502              		.loc 1 86 1 is_stmt 1 view -0
 503              		.cfi_startproc
 504              		@ args = 0, pretend = 0, frame = 0
 505              		@ frame_needed = 0, uses_anonymous_args = 0
  86:Lib/lvgl/src/widgets/tileview/lv_tileview.c ****     int32_t tx = lv_obj_get_x(tile_obj);
 506              		.loc 1 86 1 is_stmt 0 view .LVU131
 507 0000 2DE9F041 		push	{r4, r5, r6, r7, r8, lr}
 508              	.LCFI8:
 509              		.cfi_def_cfa_offset 24
 510              		.cfi_offset 4, -24
 511              		.cfi_offset 5, -20
ARM GAS  C:\Users\Alex\AppData\Local\Temp\cc8pUgFk.s 			page 15


 512              		.cfi_offset 6, -16
 513              		.cfi_offset 7, -12
 514              		.cfi_offset 8, -8
 515              		.cfi_offset 14, -4
 516 0004 0546     		mov	r5, r0
 517 0006 0C46     		mov	r4, r1
 518 0008 9046     		mov	r8, r2
  87:Lib/lvgl/src/widgets/tileview/lv_tileview.c ****     int32_t ty = lv_obj_get_y(tile_obj);
 519              		.loc 1 87 5 is_stmt 1 view .LVU132
  87:Lib/lvgl/src/widgets/tileview/lv_tileview.c ****     int32_t ty = lv_obj_get_y(tile_obj);
 520              		.loc 1 87 18 is_stmt 0 view .LVU133
 521 000a 0846     		mov	r0, r1
 522              	.LVL67:
  87:Lib/lvgl/src/widgets/tileview/lv_tileview.c ****     int32_t ty = lv_obj_get_y(tile_obj);
 523              		.loc 1 87 18 view .LVU134
 524 000c FFF7FEFF 		bl	lv_obj_get_x
 525              	.LVL68:
  87:Lib/lvgl/src/widgets/tileview/lv_tileview.c ****     int32_t ty = lv_obj_get_y(tile_obj);
 526              		.loc 1 87 18 view .LVU135
 527 0010 0646     		mov	r6, r0
 528              	.LVL69:
  88:Lib/lvgl/src/widgets/tileview/lv_tileview.c **** 
 529              		.loc 1 88 5 is_stmt 1 view .LVU136
  88:Lib/lvgl/src/widgets/tileview/lv_tileview.c **** 
 530              		.loc 1 88 18 is_stmt 0 view .LVU137
 531 0012 2046     		mov	r0, r4
 532              	.LVL70:
  88:Lib/lvgl/src/widgets/tileview/lv_tileview.c **** 
 533              		.loc 1 88 18 view .LVU138
 534 0014 FFF7FEFF 		bl	lv_obj_get_y
 535              	.LVL71:
 536 0018 0746     		mov	r7, r0
 537              	.LVL72:
  90:Lib/lvgl/src/widgets/tileview/lv_tileview.c ****     lv_tileview_t * tv = (lv_tileview_t *) obj;
 538              		.loc 1 90 5 is_stmt 1 view .LVU139
  91:Lib/lvgl/src/widgets/tileview/lv_tileview.c ****     tv->tile_act = (lv_obj_t *)tile;
 539              		.loc 1 91 5 view .LVU140
  92:Lib/lvgl/src/widgets/tileview/lv_tileview.c **** 
 540              		.loc 1 92 5 view .LVU141
  92:Lib/lvgl/src/widgets/tileview/lv_tileview.c **** 
 541              		.loc 1 92 18 is_stmt 0 view .LVU142
 542 001a EC62     		str	r4, [r5, #44]
  94:Lib/lvgl/src/widgets/tileview/lv_tileview.c ****     lv_obj_scroll_to(obj, tx, ty, anim_en);
 543              		.loc 1 94 5 is_stmt 1 view .LVU143
 544 001c 94F82C10 		ldrb	r1, [r4, #44]	@ zero_extendqisi2
 545 0020 2846     		mov	r0, r5
 546              	.LVL73:
  94:Lib/lvgl/src/widgets/tileview/lv_tileview.c ****     lv_obj_scroll_to(obj, tx, ty, anim_en);
 547              		.loc 1 94 5 is_stmt 0 view .LVU144
 548 0022 FFF7FEFF 		bl	lv_obj_set_scroll_dir
 549              	.LVL74:
  95:Lib/lvgl/src/widgets/tileview/lv_tileview.c **** }
 550              		.loc 1 95 5 is_stmt 1 view .LVU145
 551 0026 4346     		mov	r3, r8
 552 0028 3A46     		mov	r2, r7
 553 002a 3146     		mov	r1, r6
 554 002c 2846     		mov	r0, r5
ARM GAS  C:\Users\Alex\AppData\Local\Temp\cc8pUgFk.s 			page 16


 555 002e FFF7FEFF 		bl	lv_obj_scroll_to
 556              	.LVL75:
  96:Lib/lvgl/src/widgets/tileview/lv_tileview.c **** 
 557              		.loc 1 96 1 is_stmt 0 view .LVU146
 558 0032 BDE8F081 		pop	{r4, r5, r6, r7, r8, pc}
  96:Lib/lvgl/src/widgets/tileview/lv_tileview.c **** 
 559              		.loc 1 96 1 view .LVU147
 560              		.cfi_endproc
 561              	.LFE235:
 563              		.section	.text.lv_tileview_set_tile_by_index,"ax",%progbits
 564              		.align	1
 565              		.global	lv_tileview_set_tile_by_index
 566              		.syntax unified
 567              		.thumb
 568              		.thumb_func
 570              	lv_tileview_set_tile_by_index:
 571              	.LVL76:
 572              	.LFB236:
  99:Lib/lvgl/src/widgets/tileview/lv_tileview.c ****     lv_obj_update_layout(tv);
 573              		.loc 1 99 1 is_stmt 1 view -0
 574              		.cfi_startproc
 575              		@ args = 0, pretend = 0, frame = 0
 576              		@ frame_needed = 0, uses_anonymous_args = 0
  99:Lib/lvgl/src/widgets/tileview/lv_tileview.c ****     lv_obj_update_layout(tv);
 577              		.loc 1 99 1 is_stmt 0 view .LVU149
 578 0000 2DE9F047 		push	{r4, r5, r6, r7, r8, r9, r10, lr}
 579              	.LCFI9:
 580              		.cfi_def_cfa_offset 32
 581              		.cfi_offset 4, -32
 582              		.cfi_offset 5, -28
 583              		.cfi_offset 6, -24
 584              		.cfi_offset 7, -20
 585              		.cfi_offset 8, -16
 586              		.cfi_offset 9, -12
 587              		.cfi_offset 10, -8
 588              		.cfi_offset 14, -4
 589 0004 0746     		mov	r7, r0
 590 0006 0D46     		mov	r5, r1
 591 0008 9146     		mov	r9, r2
 592 000a 9A46     		mov	r10, r3
 100:Lib/lvgl/src/widgets/tileview/lv_tileview.c **** 
 593              		.loc 1 100 5 is_stmt 1 view .LVU150
 594 000c FFF7FEFF 		bl	lv_obj_update_layout
 595              	.LVL77:
 102:Lib/lvgl/src/widgets/tileview/lv_tileview.c ****     int32_t h = lv_obj_get_content_height(tv);
 596              		.loc 1 102 5 view .LVU151
 102:Lib/lvgl/src/widgets/tileview/lv_tileview.c ****     int32_t h = lv_obj_get_content_height(tv);
 597              		.loc 1 102 17 is_stmt 0 view .LVU152
 598 0010 3846     		mov	r0, r7
 599 0012 FFF7FEFF 		bl	lv_obj_get_content_width
 600              	.LVL78:
 601 0016 8046     		mov	r8, r0
 602              	.LVL79:
 103:Lib/lvgl/src/widgets/tileview/lv_tileview.c **** 
 603              		.loc 1 103 5 is_stmt 1 view .LVU153
 103:Lib/lvgl/src/widgets/tileview/lv_tileview.c **** 
 604              		.loc 1 103 17 is_stmt 0 view .LVU154
ARM GAS  C:\Users\Alex\AppData\Local\Temp\cc8pUgFk.s 			page 17


 605 0018 3846     		mov	r0, r7
 606              	.LVL80:
 103:Lib/lvgl/src/widgets/tileview/lv_tileview.c **** 
 607              		.loc 1 103 17 view .LVU155
 608 001a FFF7FEFF 		bl	lv_obj_get_content_height
 609              	.LVL81:
 105:Lib/lvgl/src/widgets/tileview/lv_tileview.c ****     int32_t ty = row_id * h;
 610              		.loc 1 105 5 is_stmt 1 view .LVU156
 105:Lib/lvgl/src/widgets/tileview/lv_tileview.c ****     int32_t ty = row_id * h;
 611              		.loc 1 105 25 is_stmt 0 view .LVU157
 612 001e 05FB08F8 		mul	r8, r5, r8
 613              	.LVL82:
 106:Lib/lvgl/src/widgets/tileview/lv_tileview.c **** 
 614              		.loc 1 106 5 is_stmt 1 view .LVU158
 106:Lib/lvgl/src/widgets/tileview/lv_tileview.c **** 
 615              		.loc 1 106 25 is_stmt 0 view .LVU159
 616 0022 09FB00F9 		mul	r9, r9, r0
 617              	.LVL83:
 108:Lib/lvgl/src/widgets/tileview/lv_tileview.c ****     for(i = 0; i < lv_obj_get_child_count(tv); i++) {
 618              		.loc 1 108 5 is_stmt 1 view .LVU160
 109:Lib/lvgl/src/widgets/tileview/lv_tileview.c ****         lv_obj_t * tile_obj = lv_obj_get_child(tv, i);
 619              		.loc 1 109 5 view .LVU161
 109:Lib/lvgl/src/widgets/tileview/lv_tileview.c ****         lv_obj_t * tile_obj = lv_obj_get_child(tv, i);
 620              		.loc 1 109 11 is_stmt 0 view .LVU162
 621 0026 0024     		movs	r4, #0
 109:Lib/lvgl/src/widgets/tileview/lv_tileview.c ****         lv_obj_t * tile_obj = lv_obj_get_child(tv, i);
 622              		.loc 1 109 5 view .LVU163
 623 0028 00E0     		b	.L32
 624              	.LVL84:
 625              	.L33:
 109:Lib/lvgl/src/widgets/tileview/lv_tileview.c ****         lv_obj_t * tile_obj = lv_obj_get_child(tv, i);
 626              		.loc 1 109 49 is_stmt 1 discriminator 2 view .LVU164
 627 002a 0134     		adds	r4, r4, #1
 628              	.LVL85:
 629              	.L32:
 109:Lib/lvgl/src/widgets/tileview/lv_tileview.c ****         lv_obj_t * tile_obj = lv_obj_get_child(tv, i);
 630              		.loc 1 109 18 discriminator 1 view .LVU165
 109:Lib/lvgl/src/widgets/tileview/lv_tileview.c ****         lv_obj_t * tile_obj = lv_obj_get_child(tv, i);
 631              		.loc 1 109 20 is_stmt 0 discriminator 1 view .LVU166
 632 002c 3846     		mov	r0, r7
 633 002e FFF7FEFF 		bl	lv_obj_get_child_count
 634              	.LVL86:
 109:Lib/lvgl/src/widgets/tileview/lv_tileview.c ****         lv_obj_t * tile_obj = lv_obj_get_child(tv, i);
 635              		.loc 1 109 18 discriminator 1 view .LVU167
 636 0032 A042     		cmp	r0, r4
 637 0034 13D9     		bls	.L31
 638              	.LBB5:
 110:Lib/lvgl/src/widgets/tileview/lv_tileview.c ****         int32_t x = lv_obj_get_x(tile_obj);
 639              		.loc 1 110 9 is_stmt 1 view .LVU168
 110:Lib/lvgl/src/widgets/tileview/lv_tileview.c ****         int32_t x = lv_obj_get_x(tile_obj);
 640              		.loc 1 110 31 is_stmt 0 view .LVU169
 641 0036 2146     		mov	r1, r4
 642 0038 3846     		mov	r0, r7
 643 003a FFF7FEFF 		bl	lv_obj_get_child
 644              	.LVL87:
 645 003e 0546     		mov	r5, r0
 646              	.LVL88:
ARM GAS  C:\Users\Alex\AppData\Local\Temp\cc8pUgFk.s 			page 18


 111:Lib/lvgl/src/widgets/tileview/lv_tileview.c ****         int32_t y = lv_obj_get_y(tile_obj);
 647              		.loc 1 111 9 is_stmt 1 view .LVU170
 111:Lib/lvgl/src/widgets/tileview/lv_tileview.c ****         int32_t y = lv_obj_get_y(tile_obj);
 648              		.loc 1 111 21 is_stmt 0 view .LVU171
 649 0040 FFF7FEFF 		bl	lv_obj_get_x
 650              	.LVL89:
 111:Lib/lvgl/src/widgets/tileview/lv_tileview.c ****         int32_t y = lv_obj_get_y(tile_obj);
 651              		.loc 1 111 21 view .LVU172
 652 0044 0646     		mov	r6, r0
 653              	.LVL90:
 112:Lib/lvgl/src/widgets/tileview/lv_tileview.c ****         if(x == tx && y == ty) {
 654              		.loc 1 112 9 is_stmt 1 view .LVU173
 112:Lib/lvgl/src/widgets/tileview/lv_tileview.c ****         if(x == tx && y == ty) {
 655              		.loc 1 112 21 is_stmt 0 view .LVU174
 656 0046 2846     		mov	r0, r5
 657              	.LVL91:
 112:Lib/lvgl/src/widgets/tileview/lv_tileview.c ****         if(x == tx && y == ty) {
 658              		.loc 1 112 21 view .LVU175
 659 0048 FFF7FEFF 		bl	lv_obj_get_y
 660              	.LVL92:
 113:Lib/lvgl/src/widgets/tileview/lv_tileview.c ****             lv_tileview_set_tile(tv, tile_obj, anim_en);
 661              		.loc 1 113 9 is_stmt 1 view .LVU176
 113:Lib/lvgl/src/widgets/tileview/lv_tileview.c ****             lv_tileview_set_tile(tv, tile_obj, anim_en);
 662              		.loc 1 113 11 is_stmt 0 view .LVU177
 663 004c B045     		cmp	r8, r6
 664 004e ECD1     		bne	.L33
 113:Lib/lvgl/src/widgets/tileview/lv_tileview.c ****             lv_tileview_set_tile(tv, tile_obj, anim_en);
 665              		.loc 1 113 20 discriminator 1 view .LVU178
 666 0050 8145     		cmp	r9, r0
 667 0052 EAD1     		bne	.L33
 114:Lib/lvgl/src/widgets/tileview/lv_tileview.c ****             return;
 668              		.loc 1 114 13 is_stmt 1 view .LVU179
 669 0054 5246     		mov	r2, r10
 670 0056 2946     		mov	r1, r5
 671 0058 3846     		mov	r0, r7
 672              	.LVL93:
 114:Lib/lvgl/src/widgets/tileview/lv_tileview.c ****             return;
 673              		.loc 1 114 13 is_stmt 0 view .LVU180
 674 005a FFF7FEFF 		bl	lv_tileview_set_tile
 675              	.LVL94:
 115:Lib/lvgl/src/widgets/tileview/lv_tileview.c ****         }
 676              		.loc 1 115 13 is_stmt 1 view .LVU181
 677              	.L31:
 115:Lib/lvgl/src/widgets/tileview/lv_tileview.c ****         }
 678              		.loc 1 115 13 is_stmt 0 view .LVU182
 679              	.LBE5:
 120:Lib/lvgl/src/widgets/tileview/lv_tileview.c **** 
 680              		.loc 1 120 1 view .LVU183
 681 005e BDE8F087 		pop	{r4, r5, r6, r7, r8, r9, r10, pc}
 120:Lib/lvgl/src/widgets/tileview/lv_tileview.c **** 
 682              		.loc 1 120 1 view .LVU184
 683              		.cfi_endproc
 684              	.LFE236:
 686              		.section	.text.lv_tileview_get_tile_active,"ax",%progbits
 687              		.align	1
 688              		.global	lv_tileview_get_tile_active
 689              		.syntax unified
ARM GAS  C:\Users\Alex\AppData\Local\Temp\cc8pUgFk.s 			page 19


 690              		.thumb
 691              		.thumb_func
 693              	lv_tileview_get_tile_active:
 694              	.LVL95:
 695              	.LFB237:
 123:Lib/lvgl/src/widgets/tileview/lv_tileview.c ****     lv_tileview_t * tv = (lv_tileview_t *) obj;
 696              		.loc 1 123 1 is_stmt 1 view -0
 697              		.cfi_startproc
 698              		@ args = 0, pretend = 0, frame = 0
 699              		@ frame_needed = 0, uses_anonymous_args = 0
 700              		@ link register save eliminated.
 124:Lib/lvgl/src/widgets/tileview/lv_tileview.c ****     return tv->tile_act;
 701              		.loc 1 124 5 view .LVU186
 125:Lib/lvgl/src/widgets/tileview/lv_tileview.c **** }
 702              		.loc 1 125 5 view .LVU187
 126:Lib/lvgl/src/widgets/tileview/lv_tileview.c **** 
 703              		.loc 1 126 1 is_stmt 0 view .LVU188
 704 0000 C06A     		ldr	r0, [r0, #44]
 705              	.LVL96:
 126:Lib/lvgl/src/widgets/tileview/lv_tileview.c **** 
 706              		.loc 1 126 1 view .LVU189
 707 0002 7047     		bx	lr
 708              		.cfi_endproc
 709              	.LFE237:
 711              		.global	lv_tileview_tile_class
 712              		.section	.rodata.str1.4,"aMS",%progbits,1
 713              		.align	2
 714              	.LC0:
 715 0000 74696C65 		.ascii	"tile\000"
 715      00
 716              		.section	.rodata.lv_tileview_tile_class,"a"
 717              		.align	2
 720              	lv_tileview_tile_class:
 721 0000 00000000 		.word	lv_obj_class
 722 0004 00000000 		.word	lv_tileview_tile_constructor
 723 0008 00000000 		.space	12
 723      00000000 
 723      00000000 
 724 0014 00000000 		.word	.LC0
 725 0018 00000000 		.space	8
 725      00000000 
 726 0020 00       		.byte	0
 727 0021 03       		.byte	3
 728 0022 00       		.byte	0
 729 0023 00       		.space	1
 730              		.global	lv_tileview_class
 731              		.section	.rodata.str1.4
 732 0005 000000   		.align	2
 733              	.LC1:
 734 0008 74696C65 		.ascii	"tileview\000"
 734      76696577 
 734      00
 735              		.section	.rodata.lv_tileview_class,"a"
 736              		.align	2
 739              	lv_tileview_class:
 740 0000 00000000 		.word	lv_obj_class
 741 0004 00000000 		.word	lv_tileview_constructor
ARM GAS  C:\Users\Alex\AppData\Local\Temp\cc8pUgFk.s 			page 20


 742 0008 00000000 		.space	12
 742      00000000 
 742      00000000 
 743 0014 08000000 		.word	.LC1
 744 0018 00000000 		.space	8
 744      00000000 
 745 0020 00       		.byte	0
 746 0021 03       		.byte	3
 747 0022 00       		.byte	0
 748 0023 00       		.space	1
 749              		.text
 750              	.Letext0:
 751              		.file 2 "e:\\programms\\gnu_mcu_eclipse\\toolchain\\arm-gnu-toolchain-12.2.mpacbti-bet1-mingw-w64-
 752              		.file 3 "e:\\programms\\gnu_mcu_eclipse\\toolchain\\arm-gnu-toolchain-12.2.mpacbti-bet1-mingw-w64-
 753              		.file 4 "Lib/lvgl/src/widgets/tileview/../../core/../misc/lv_types.h"
 754              		.file 5 "Lib/lvgl/src/widgets/tileview/../../core/lv_obj.h"
 755              		.file 6 "Lib/lvgl/src/widgets/tileview/../../core/lv_obj_class.h"
 756              		.file 7 "Lib/lvgl/src/widgets/tileview/../../core/../indev/../core/lv_group.h"
 757              		.file 8 "Lib/lvgl/src/widgets/tileview/../../indev/lv_indev_private.h"
 758              		.file 9 "Lib/lvgl/src/widgets/tileview/../../core/../display/../misc/lv_event.h"
 759              		.file 10 "Lib/lvgl/src/widgets/tileview/../../core/../misc/lv_timer.h"
 760              		.file 11 "Lib/lvgl/src/widgets/tileview/../../core/../misc/lv_anim.h"
 761              		.file 12 "c:\\users\\alex\\eclipse-workspace\\lvgs_test\\lib\\lvgl\\src\\misc\\lv_area.h"
 762              		.file 13 "Lib/lvgl/src/widgets/tileview/../../core/../misc/lv_ll.h"
 763              		.file 14 "Lib/lvgl/src/widgets/tileview/../../core/../misc/lv_style.h"
 764              		.file 15 "Lib/lvgl/src/widgets/tileview/../../core/../display/../misc/lv_array.h"
 765              		.file 16 "Lib/lvgl/src/widgets/tileview/../../core/lv_obj_scroll.h"
 766              		.file 17 "Lib/lvgl/src/widgets/tileview/../../core/lv_obj_style.h"
 767              		.file 18 "Lib/lvgl/src/widgets/tileview/../../core/../indev/lv_indev.h"
 768              		.file 19 "Lib/lvgl/src/widgets/tileview/lv_tileview.h"
 769              		.file 20 "Lib/lvgl/src/widgets/tileview/../../core/lv_obj_pos.h"
 770              		.file 21 "Lib/lvgl/src/widgets/tileview/../../core/lv_obj_tree.h"
 771              		.file 22 "Lib/lvgl/src/widgets/tileview/../../core/lv_obj_event.h"
ARM GAS  C:\Users\Alex\AppData\Local\Temp\cc8pUgFk.s 			page 21

