ARM GAS  C:\Users\Alex\AppData\Local\Temp\ccBm5uex.s 			page 1


   1              		.cpu cortex-m4
   2              		.arch armv7e-m
   3              		.fpu fpv4-sp-d16
   4              		.eabi_attribute 27, 1
   5              		.eabi_attribute 28, 1
   6              		.eabi_attribute 20, 1
   7              		.eabi_attribute 21, 1
   8              		.eabi_attribute 23, 3
   9              		.eabi_attribute 24, 1
  10              		.eabi_attribute 25, 1
  11              		.eabi_attribute 26, 1
  12              		.eabi_attribute 30, 1
  13              		.eabi_attribute 34, 1
  14              		.eabi_attribute 18, 4
  15              		.file	"lv_tabview.c"
  16              		.text
  17              	.Ltext0:
  18              		.cfi_sections	.debug_frame
  19              		.file 1 "Lib/lvgl/src/widgets/tabview/lv_tabview.c"
  20              		.section	.text.lv_tabview_create,"ax",%progbits
  21              		.align	1
  22              		.global	lv_tabview_create
  23              		.syntax unified
  24              		.thumb
  25              		.thumb_func
  27              	lv_tabview_create:
  28              	.LVL0:
  29              	.LFB256:
   1:Lib/lvgl/src/widgets/tabview/lv_tabview.c **** /**
   2:Lib/lvgl/src/widgets/tabview/lv_tabview.c ****  * @file lv_tabview.c
   3:Lib/lvgl/src/widgets/tabview/lv_tabview.c ****  *
   4:Lib/lvgl/src/widgets/tabview/lv_tabview.c ****  */
   5:Lib/lvgl/src/widgets/tabview/lv_tabview.c **** 
   6:Lib/lvgl/src/widgets/tabview/lv_tabview.c **** /*********************
   7:Lib/lvgl/src/widgets/tabview/lv_tabview.c ****  *      INCLUDES
   8:Lib/lvgl/src/widgets/tabview/lv_tabview.c ****  *********************/
   9:Lib/lvgl/src/widgets/tabview/lv_tabview.c **** #include "lv_tabview.h"
  10:Lib/lvgl/src/widgets/tabview/lv_tabview.c **** #if LV_USE_TABVIEW
  11:Lib/lvgl/src/widgets/tabview/lv_tabview.c **** 
  12:Lib/lvgl/src/widgets/tabview/lv_tabview.c **** #include "../../misc/lv_assert.h"
  13:Lib/lvgl/src/widgets/tabview/lv_tabview.c **** #include "../../indev/lv_indev_private.h"
  14:Lib/lvgl/src/widgets/tabview/lv_tabview.c **** 
  15:Lib/lvgl/src/widgets/tabview/lv_tabview.c **** /*********************
  16:Lib/lvgl/src/widgets/tabview/lv_tabview.c ****  *      DEFINES
  17:Lib/lvgl/src/widgets/tabview/lv_tabview.c ****  *********************/
  18:Lib/lvgl/src/widgets/tabview/lv_tabview.c **** #define MY_CLASS    &lv_tabview_class
  19:Lib/lvgl/src/widgets/tabview/lv_tabview.c **** 
  20:Lib/lvgl/src/widgets/tabview/lv_tabview.c **** /**********************
  21:Lib/lvgl/src/widgets/tabview/lv_tabview.c ****  *      TYPEDEFS
  22:Lib/lvgl/src/widgets/tabview/lv_tabview.c ****  **********************/
  23:Lib/lvgl/src/widgets/tabview/lv_tabview.c **** 
  24:Lib/lvgl/src/widgets/tabview/lv_tabview.c **** /**********************
  25:Lib/lvgl/src/widgets/tabview/lv_tabview.c ****  *  STATIC PROTOTYPES
  26:Lib/lvgl/src/widgets/tabview/lv_tabview.c ****  **********************/
  27:Lib/lvgl/src/widgets/tabview/lv_tabview.c **** static void lv_tabview_constructor(const lv_obj_class_t * class_p, lv_obj_t * obj);
  28:Lib/lvgl/src/widgets/tabview/lv_tabview.c **** static void lv_tabview_event(const lv_obj_class_t * class_p, lv_event_t * e);
  29:Lib/lvgl/src/widgets/tabview/lv_tabview.c **** static void button_clicked_event_cb(lv_event_t * e);
ARM GAS  C:\Users\Alex\AppData\Local\Temp\ccBm5uex.s 			page 2


  30:Lib/lvgl/src/widgets/tabview/lv_tabview.c **** static void cont_scroll_end_event_cb(lv_event_t * e);
  31:Lib/lvgl/src/widgets/tabview/lv_tabview.c **** 
  32:Lib/lvgl/src/widgets/tabview/lv_tabview.c **** /**********************
  33:Lib/lvgl/src/widgets/tabview/lv_tabview.c ****  *  STATIC VARIABLES
  34:Lib/lvgl/src/widgets/tabview/lv_tabview.c ****  **********************/
  35:Lib/lvgl/src/widgets/tabview/lv_tabview.c **** const lv_obj_class_t lv_tabview_class = {
  36:Lib/lvgl/src/widgets/tabview/lv_tabview.c ****     .constructor_cb = lv_tabview_constructor,
  37:Lib/lvgl/src/widgets/tabview/lv_tabview.c ****     .event_cb = lv_tabview_event,
  38:Lib/lvgl/src/widgets/tabview/lv_tabview.c ****     .width_def = LV_PCT(100),
  39:Lib/lvgl/src/widgets/tabview/lv_tabview.c ****     .height_def = LV_PCT(100),
  40:Lib/lvgl/src/widgets/tabview/lv_tabview.c ****     .base_class = &lv_obj_class,
  41:Lib/lvgl/src/widgets/tabview/lv_tabview.c ****     .instance_size = sizeof(lv_tabview_t),
  42:Lib/lvgl/src/widgets/tabview/lv_tabview.c ****     .name = "tabview",
  43:Lib/lvgl/src/widgets/tabview/lv_tabview.c **** };
  44:Lib/lvgl/src/widgets/tabview/lv_tabview.c **** 
  45:Lib/lvgl/src/widgets/tabview/lv_tabview.c **** typedef struct {
  46:Lib/lvgl/src/widgets/tabview/lv_tabview.c ****     lv_dir_t tab_pos;
  47:Lib/lvgl/src/widgets/tabview/lv_tabview.c ****     int32_t tab_size;
  48:Lib/lvgl/src/widgets/tabview/lv_tabview.c **** } lv_tabview_create_info_t;
  49:Lib/lvgl/src/widgets/tabview/lv_tabview.c **** 
  50:Lib/lvgl/src/widgets/tabview/lv_tabview.c **** /**********************
  51:Lib/lvgl/src/widgets/tabview/lv_tabview.c ****  *      MACROS
  52:Lib/lvgl/src/widgets/tabview/lv_tabview.c ****  **********************/
  53:Lib/lvgl/src/widgets/tabview/lv_tabview.c **** 
  54:Lib/lvgl/src/widgets/tabview/lv_tabview.c **** /**********************
  55:Lib/lvgl/src/widgets/tabview/lv_tabview.c ****  *   GLOBAL FUNCTIONS
  56:Lib/lvgl/src/widgets/tabview/lv_tabview.c ****  **********************/
  57:Lib/lvgl/src/widgets/tabview/lv_tabview.c **** 
  58:Lib/lvgl/src/widgets/tabview/lv_tabview.c **** lv_obj_t * lv_tabview_create(lv_obj_t * parent)
  59:Lib/lvgl/src/widgets/tabview/lv_tabview.c **** {
  30              		.loc 1 59 1 view -0
  31              		.cfi_startproc
  32              		@ args = 0, pretend = 0, frame = 0
  33              		@ frame_needed = 0, uses_anonymous_args = 0
  34              		.loc 1 59 1 is_stmt 0 view .LVU1
  35 0000 10B5     		push	{r4, lr}
  36              	.LCFI0:
  37              		.cfi_def_cfa_offset 8
  38              		.cfi_offset 4, -8
  39              		.cfi_offset 14, -4
  40 0002 0146     		mov	r1, r0
  60:Lib/lvgl/src/widgets/tabview/lv_tabview.c ****     LV_LOG_INFO("begin");
  41              		.loc 1 60 5 is_stmt 1 view .LVU2
  42              		.loc 1 60 5 view .LVU3
  43              		.loc 1 60 5 view .LVU4
  61:Lib/lvgl/src/widgets/tabview/lv_tabview.c **** 
  62:Lib/lvgl/src/widgets/tabview/lv_tabview.c ****     lv_obj_t * obj = lv_obj_class_create_obj(&lv_tabview_class, parent);
  44              		.loc 1 62 5 view .LVU5
  45              		.loc 1 62 22 is_stmt 0 view .LVU6
  46 0004 0348     		ldr	r0, .L3
  47              	.LVL1:
  48              		.loc 1 62 22 view .LVU7
  49 0006 FFF7FEFF 		bl	lv_obj_class_create_obj
  50              	.LVL2:
  51              		.loc 1 62 22 view .LVU8
  52 000a 0446     		mov	r4, r0
  53              	.LVL3:
ARM GAS  C:\Users\Alex\AppData\Local\Temp\ccBm5uex.s 			page 3


  63:Lib/lvgl/src/widgets/tabview/lv_tabview.c ****     lv_obj_class_init_obj(obj);
  54              		.loc 1 63 5 is_stmt 1 view .LVU9
  55 000c FFF7FEFF 		bl	lv_obj_class_init_obj
  56              	.LVL4:
  64:Lib/lvgl/src/widgets/tabview/lv_tabview.c ****     return obj;
  57              		.loc 1 64 5 view .LVU10
  65:Lib/lvgl/src/widgets/tabview/lv_tabview.c **** }
  58              		.loc 1 65 1 is_stmt 0 view .LVU11
  59 0010 2046     		mov	r0, r4
  60 0012 10BD     		pop	{r4, pc}
  61              	.LVL5:
  62              	.L4:
  63              		.loc 1 65 1 view .LVU12
  64              		.align	2
  65              	.L3:
  66 0014 00000000 		.word	lv_tabview_class
  67              		.cfi_endproc
  68              	.LFE256:
  70              		.section	.text.lv_tabview_get_tab_active,"ax",%progbits
  71              		.align	1
  72              		.global	lv_tabview_get_tab_active
  73              		.syntax unified
  74              		.thumb
  75              		.thumb_func
  77              	lv_tabview_get_tab_active:
  78              	.LVL6:
  79              	.LFB262:
  66:Lib/lvgl/src/widgets/tabview/lv_tabview.c **** 
  67:Lib/lvgl/src/widgets/tabview/lv_tabview.c **** lv_obj_t * lv_tabview_add_tab(lv_obj_t * obj, const char * name)
  68:Lib/lvgl/src/widgets/tabview/lv_tabview.c **** {
  69:Lib/lvgl/src/widgets/tabview/lv_tabview.c ****     LV_ASSERT_OBJ(obj, MY_CLASS);
  70:Lib/lvgl/src/widgets/tabview/lv_tabview.c ****     lv_obj_t * cont = lv_tabview_get_content(obj);
  71:Lib/lvgl/src/widgets/tabview/lv_tabview.c **** 
  72:Lib/lvgl/src/widgets/tabview/lv_tabview.c ****     lv_obj_t * page = lv_obj_create(cont);
  73:Lib/lvgl/src/widgets/tabview/lv_tabview.c ****     lv_obj_set_size(page, lv_pct(100), lv_pct(100));
  74:Lib/lvgl/src/widgets/tabview/lv_tabview.c ****     uint32_t tab_idx = lv_obj_get_child_count(cont);
  75:Lib/lvgl/src/widgets/tabview/lv_tabview.c **** 
  76:Lib/lvgl/src/widgets/tabview/lv_tabview.c ****     lv_obj_t * tab_bar = lv_tabview_get_tab_bar(obj);
  77:Lib/lvgl/src/widgets/tabview/lv_tabview.c **** 
  78:Lib/lvgl/src/widgets/tabview/lv_tabview.c ****     lv_obj_t * button = lv_button_create(tab_bar);
  79:Lib/lvgl/src/widgets/tabview/lv_tabview.c ****     lv_obj_set_flex_grow(button, 1);
  80:Lib/lvgl/src/widgets/tabview/lv_tabview.c ****     lv_obj_set_size(button, lv_pct(100), lv_pct(100));
  81:Lib/lvgl/src/widgets/tabview/lv_tabview.c ****     lv_obj_add_event_cb(button, button_clicked_event_cb, LV_EVENT_CLICKED, NULL);
  82:Lib/lvgl/src/widgets/tabview/lv_tabview.c ****     lv_group_t * g = lv_group_get_default();
  83:Lib/lvgl/src/widgets/tabview/lv_tabview.c ****     if(g) lv_group_add_obj(g, button);
  84:Lib/lvgl/src/widgets/tabview/lv_tabview.c **** 
  85:Lib/lvgl/src/widgets/tabview/lv_tabview.c ****     lv_obj_t * label = lv_label_create(button);
  86:Lib/lvgl/src/widgets/tabview/lv_tabview.c ****     lv_label_set_text(label, name);
  87:Lib/lvgl/src/widgets/tabview/lv_tabview.c ****     lv_obj_center(label);
  88:Lib/lvgl/src/widgets/tabview/lv_tabview.c **** 
  89:Lib/lvgl/src/widgets/tabview/lv_tabview.c ****     if(tab_idx == 1) {
  90:Lib/lvgl/src/widgets/tabview/lv_tabview.c ****         lv_tabview_set_active(obj, 0, LV_ANIM_OFF);
  91:Lib/lvgl/src/widgets/tabview/lv_tabview.c ****     }
  92:Lib/lvgl/src/widgets/tabview/lv_tabview.c **** 
  93:Lib/lvgl/src/widgets/tabview/lv_tabview.c ****     return page;
  94:Lib/lvgl/src/widgets/tabview/lv_tabview.c **** }
  95:Lib/lvgl/src/widgets/tabview/lv_tabview.c **** 
ARM GAS  C:\Users\Alex\AppData\Local\Temp\ccBm5uex.s 			page 4


  96:Lib/lvgl/src/widgets/tabview/lv_tabview.c **** void lv_tabview_rename_tab(lv_obj_t * obj, uint32_t idx, const char * new_name)
  97:Lib/lvgl/src/widgets/tabview/lv_tabview.c **** {
  98:Lib/lvgl/src/widgets/tabview/lv_tabview.c ****     LV_ASSERT_OBJ(obj, MY_CLASS);
  99:Lib/lvgl/src/widgets/tabview/lv_tabview.c **** 
 100:Lib/lvgl/src/widgets/tabview/lv_tabview.c ****     lv_obj_t * tab_bar = lv_tabview_get_tab_bar(obj);
 101:Lib/lvgl/src/widgets/tabview/lv_tabview.c ****     lv_obj_t * button = lv_obj_get_child_by_type(tab_bar, idx, &lv_button_class);
 102:Lib/lvgl/src/widgets/tabview/lv_tabview.c ****     lv_obj_t * label = lv_obj_get_child_by_type(button, 0, &lv_label_class);
 103:Lib/lvgl/src/widgets/tabview/lv_tabview.c ****     lv_label_set_text(label, new_name);
 104:Lib/lvgl/src/widgets/tabview/lv_tabview.c **** }
 105:Lib/lvgl/src/widgets/tabview/lv_tabview.c **** 
 106:Lib/lvgl/src/widgets/tabview/lv_tabview.c **** void lv_tabview_set_active(lv_obj_t * obj, uint32_t idx, lv_anim_enable_t anim_en)
 107:Lib/lvgl/src/widgets/tabview/lv_tabview.c **** {
 108:Lib/lvgl/src/widgets/tabview/lv_tabview.c ****     LV_ASSERT_OBJ(obj, MY_CLASS);
 109:Lib/lvgl/src/widgets/tabview/lv_tabview.c ****     lv_tabview_t * tabview = (lv_tabview_t *)obj;
 110:Lib/lvgl/src/widgets/tabview/lv_tabview.c **** 
 111:Lib/lvgl/src/widgets/tabview/lv_tabview.c ****     lv_obj_t * cont = lv_tabview_get_content(obj);
 112:Lib/lvgl/src/widgets/tabview/lv_tabview.c ****     lv_obj_t * tab_bar = lv_tabview_get_tab_bar(obj);
 113:Lib/lvgl/src/widgets/tabview/lv_tabview.c **** 
 114:Lib/lvgl/src/widgets/tabview/lv_tabview.c ****     uint32_t tab_cnt = lv_tabview_get_tab_count(obj);
 115:Lib/lvgl/src/widgets/tabview/lv_tabview.c ****     if(idx >= tab_cnt) {
 116:Lib/lvgl/src/widgets/tabview/lv_tabview.c ****         idx = tab_cnt - 1;
 117:Lib/lvgl/src/widgets/tabview/lv_tabview.c ****     }
 118:Lib/lvgl/src/widgets/tabview/lv_tabview.c **** 
 119:Lib/lvgl/src/widgets/tabview/lv_tabview.c ****     /*To be sure lv_obj_get_content_width will return valid value*/
 120:Lib/lvgl/src/widgets/tabview/lv_tabview.c ****     lv_obj_update_layout(obj);
 121:Lib/lvgl/src/widgets/tabview/lv_tabview.c **** 
 122:Lib/lvgl/src/widgets/tabview/lv_tabview.c ****     if(cont == NULL) return;
 123:Lib/lvgl/src/widgets/tabview/lv_tabview.c **** 
 124:Lib/lvgl/src/widgets/tabview/lv_tabview.c ****     if((tabview->tab_pos & LV_DIR_VER) != 0) {
 125:Lib/lvgl/src/widgets/tabview/lv_tabview.c ****         int32_t gap = lv_obj_get_style_pad_column(cont, LV_PART_MAIN);
 126:Lib/lvgl/src/widgets/tabview/lv_tabview.c ****         int32_t w = lv_obj_get_content_width(cont);
 127:Lib/lvgl/src/widgets/tabview/lv_tabview.c ****         if(lv_obj_get_style_base_dir(obj, LV_PART_MAIN) != LV_BASE_DIR_RTL) {
 128:Lib/lvgl/src/widgets/tabview/lv_tabview.c ****             lv_obj_scroll_to_x(cont, idx * (gap + w), anim_en);
 129:Lib/lvgl/src/widgets/tabview/lv_tabview.c ****         }
 130:Lib/lvgl/src/widgets/tabview/lv_tabview.c ****         else {
 131:Lib/lvgl/src/widgets/tabview/lv_tabview.c ****             int32_t id_rtl = -(int32_t)idx;
 132:Lib/lvgl/src/widgets/tabview/lv_tabview.c ****             lv_obj_scroll_to_x(cont, (gap + w) * id_rtl, anim_en);
 133:Lib/lvgl/src/widgets/tabview/lv_tabview.c ****         }
 134:Lib/lvgl/src/widgets/tabview/lv_tabview.c ****     }
 135:Lib/lvgl/src/widgets/tabview/lv_tabview.c ****     else {
 136:Lib/lvgl/src/widgets/tabview/lv_tabview.c ****         int32_t gap = lv_obj_get_style_pad_row(cont, LV_PART_MAIN);
 137:Lib/lvgl/src/widgets/tabview/lv_tabview.c ****         int32_t h = lv_obj_get_content_height(cont);
 138:Lib/lvgl/src/widgets/tabview/lv_tabview.c ****         lv_obj_scroll_to_y(cont, idx * (gap + h), anim_en);
 139:Lib/lvgl/src/widgets/tabview/lv_tabview.c ****     }
 140:Lib/lvgl/src/widgets/tabview/lv_tabview.c **** 
 141:Lib/lvgl/src/widgets/tabview/lv_tabview.c ****     uint32_t i = 0;
 142:Lib/lvgl/src/widgets/tabview/lv_tabview.c ****     lv_obj_t * button = lv_obj_get_child_by_type(tab_bar, i, &lv_button_class);
 143:Lib/lvgl/src/widgets/tabview/lv_tabview.c ****     while(button) {
 144:Lib/lvgl/src/widgets/tabview/lv_tabview.c ****         lv_obj_set_state(button, LV_STATE_CHECKED, i == idx);
 145:Lib/lvgl/src/widgets/tabview/lv_tabview.c ****         i++;
 146:Lib/lvgl/src/widgets/tabview/lv_tabview.c ****         button = lv_obj_get_child_by_type(tab_bar, (int32_t)i, &lv_button_class);
 147:Lib/lvgl/src/widgets/tabview/lv_tabview.c ****     }
 148:Lib/lvgl/src/widgets/tabview/lv_tabview.c **** 
 149:Lib/lvgl/src/widgets/tabview/lv_tabview.c ****     tabview->tab_cur = idx;
 150:Lib/lvgl/src/widgets/tabview/lv_tabview.c **** }
 151:Lib/lvgl/src/widgets/tabview/lv_tabview.c **** 
 152:Lib/lvgl/src/widgets/tabview/lv_tabview.c **** void lv_tabview_set_tab_bar_position(lv_obj_t * obj, lv_dir_t dir)
ARM GAS  C:\Users\Alex\AppData\Local\Temp\ccBm5uex.s 			page 5


 153:Lib/lvgl/src/widgets/tabview/lv_tabview.c **** {
 154:Lib/lvgl/src/widgets/tabview/lv_tabview.c ****     LV_ASSERT_OBJ(obj, MY_CLASS);
 155:Lib/lvgl/src/widgets/tabview/lv_tabview.c ****     lv_tabview_t * tabview = (lv_tabview_t *)obj;
 156:Lib/lvgl/src/widgets/tabview/lv_tabview.c **** 
 157:Lib/lvgl/src/widgets/tabview/lv_tabview.c ****     switch(dir) {
 158:Lib/lvgl/src/widgets/tabview/lv_tabview.c ****         case LV_DIR_TOP:
 159:Lib/lvgl/src/widgets/tabview/lv_tabview.c ****             lv_obj_set_flex_flow(obj, LV_FLEX_FLOW_COLUMN);
 160:Lib/lvgl/src/widgets/tabview/lv_tabview.c ****             break;
 161:Lib/lvgl/src/widgets/tabview/lv_tabview.c ****         case LV_DIR_BOTTOM:
 162:Lib/lvgl/src/widgets/tabview/lv_tabview.c ****             lv_obj_set_flex_flow(obj, LV_FLEX_FLOW_COLUMN_REVERSE);
 163:Lib/lvgl/src/widgets/tabview/lv_tabview.c ****             break;
 164:Lib/lvgl/src/widgets/tabview/lv_tabview.c ****         case LV_DIR_LEFT:
 165:Lib/lvgl/src/widgets/tabview/lv_tabview.c ****             lv_obj_set_flex_flow(obj, LV_FLEX_FLOW_ROW);
 166:Lib/lvgl/src/widgets/tabview/lv_tabview.c ****             break;
 167:Lib/lvgl/src/widgets/tabview/lv_tabview.c ****         case LV_DIR_RIGHT:
 168:Lib/lvgl/src/widgets/tabview/lv_tabview.c ****             lv_obj_set_flex_flow(obj, LV_FLEX_FLOW_ROW_REVERSE);
 169:Lib/lvgl/src/widgets/tabview/lv_tabview.c ****             break;
 170:Lib/lvgl/src/widgets/tabview/lv_tabview.c ****     }
 171:Lib/lvgl/src/widgets/tabview/lv_tabview.c **** 
 172:Lib/lvgl/src/widgets/tabview/lv_tabview.c ****     lv_obj_t * tab_bar = lv_tabview_get_tab_bar(obj);
 173:Lib/lvgl/src/widgets/tabview/lv_tabview.c ****     lv_obj_t * cont = lv_tabview_get_content(obj);
 174:Lib/lvgl/src/widgets/tabview/lv_tabview.c **** 
 175:Lib/lvgl/src/widgets/tabview/lv_tabview.c ****     switch(dir) {
 176:Lib/lvgl/src/widgets/tabview/lv_tabview.c ****         case LV_DIR_TOP:
 177:Lib/lvgl/src/widgets/tabview/lv_tabview.c ****         case LV_DIR_BOTTOM:
 178:Lib/lvgl/src/widgets/tabview/lv_tabview.c ****             lv_obj_set_width(cont, LV_PCT(100));
 179:Lib/lvgl/src/widgets/tabview/lv_tabview.c ****             lv_obj_set_flex_grow(cont, 1);
 180:Lib/lvgl/src/widgets/tabview/lv_tabview.c ****             lv_obj_set_flex_flow(tab_bar, LV_FLEX_FLOW_ROW);
 181:Lib/lvgl/src/widgets/tabview/lv_tabview.c ****             lv_obj_set_flex_flow(cont, LV_FLEX_FLOW_ROW);
 182:Lib/lvgl/src/widgets/tabview/lv_tabview.c ****             lv_obj_set_scroll_snap_x(cont, LV_SCROLL_SNAP_CENTER);
 183:Lib/lvgl/src/widgets/tabview/lv_tabview.c ****             lv_obj_set_scroll_snap_y(cont, LV_SCROLL_SNAP_NONE);
 184:Lib/lvgl/src/widgets/tabview/lv_tabview.c ****             break;
 185:Lib/lvgl/src/widgets/tabview/lv_tabview.c ****         case LV_DIR_LEFT:
 186:Lib/lvgl/src/widgets/tabview/lv_tabview.c ****         case LV_DIR_RIGHT:
 187:Lib/lvgl/src/widgets/tabview/lv_tabview.c ****             lv_obj_set_height(cont, LV_PCT(100));
 188:Lib/lvgl/src/widgets/tabview/lv_tabview.c ****             lv_obj_set_flex_grow(cont, 1);
 189:Lib/lvgl/src/widgets/tabview/lv_tabview.c ****             lv_obj_set_flex_flow(tab_bar, LV_FLEX_FLOW_COLUMN);
 190:Lib/lvgl/src/widgets/tabview/lv_tabview.c ****             lv_obj_set_flex_flow(cont, LV_FLEX_FLOW_COLUMN);
 191:Lib/lvgl/src/widgets/tabview/lv_tabview.c ****             lv_obj_set_scroll_snap_x(cont, LV_SCROLL_SNAP_NONE);
 192:Lib/lvgl/src/widgets/tabview/lv_tabview.c ****             lv_obj_set_scroll_snap_y(cont, LV_SCROLL_SNAP_CENTER);
 193:Lib/lvgl/src/widgets/tabview/lv_tabview.c ****             break;
 194:Lib/lvgl/src/widgets/tabview/lv_tabview.c ****     }
 195:Lib/lvgl/src/widgets/tabview/lv_tabview.c **** 
 196:Lib/lvgl/src/widgets/tabview/lv_tabview.c ****     bool was_ver = tabview->tab_pos & LV_DIR_VER;
 197:Lib/lvgl/src/widgets/tabview/lv_tabview.c ****     bool now_ver = dir & LV_DIR_VER;
 198:Lib/lvgl/src/widgets/tabview/lv_tabview.c **** 
 199:Lib/lvgl/src/widgets/tabview/lv_tabview.c ****     if(was_ver != now_ver) {
 200:Lib/lvgl/src/widgets/tabview/lv_tabview.c ****         int32_t dpi = lv_display_get_dpi(lv_obj_get_display(obj));
 201:Lib/lvgl/src/widgets/tabview/lv_tabview.c ****         if(now_ver) {
 202:Lib/lvgl/src/widgets/tabview/lv_tabview.c ****             lv_obj_set_size(tab_bar, lv_pct(100), dpi / 2);
 203:Lib/lvgl/src/widgets/tabview/lv_tabview.c ****         }
 204:Lib/lvgl/src/widgets/tabview/lv_tabview.c ****         else {
 205:Lib/lvgl/src/widgets/tabview/lv_tabview.c ****             lv_obj_set_size(tab_bar, dpi, lv_pct(100));
 206:Lib/lvgl/src/widgets/tabview/lv_tabview.c ****         }
 207:Lib/lvgl/src/widgets/tabview/lv_tabview.c ****     }
 208:Lib/lvgl/src/widgets/tabview/lv_tabview.c ****     tabview->tab_pos = dir;
 209:Lib/lvgl/src/widgets/tabview/lv_tabview.c **** }
ARM GAS  C:\Users\Alex\AppData\Local\Temp\ccBm5uex.s 			page 6


 210:Lib/lvgl/src/widgets/tabview/lv_tabview.c **** 
 211:Lib/lvgl/src/widgets/tabview/lv_tabview.c **** void lv_tabview_set_tab_bar_size(lv_obj_t * obj, int32_t size)
 212:Lib/lvgl/src/widgets/tabview/lv_tabview.c **** {
 213:Lib/lvgl/src/widgets/tabview/lv_tabview.c ****     LV_ASSERT_OBJ(obj, MY_CLASS);
 214:Lib/lvgl/src/widgets/tabview/lv_tabview.c ****     lv_tabview_t * tabview = (lv_tabview_t *)obj;
 215:Lib/lvgl/src/widgets/tabview/lv_tabview.c **** 
 216:Lib/lvgl/src/widgets/tabview/lv_tabview.c ****     lv_obj_t * tab_bar = lv_tabview_get_tab_bar(obj);
 217:Lib/lvgl/src/widgets/tabview/lv_tabview.c ****     if(tabview->tab_pos & LV_DIR_VER) {
 218:Lib/lvgl/src/widgets/tabview/lv_tabview.c ****         lv_obj_set_height(tab_bar, size);
 219:Lib/lvgl/src/widgets/tabview/lv_tabview.c ****     }
 220:Lib/lvgl/src/widgets/tabview/lv_tabview.c ****     else {
 221:Lib/lvgl/src/widgets/tabview/lv_tabview.c ****         lv_obj_set_width(tab_bar, size);
 222:Lib/lvgl/src/widgets/tabview/lv_tabview.c ****     }
 223:Lib/lvgl/src/widgets/tabview/lv_tabview.c **** 
 224:Lib/lvgl/src/widgets/tabview/lv_tabview.c **** }
 225:Lib/lvgl/src/widgets/tabview/lv_tabview.c **** 
 226:Lib/lvgl/src/widgets/tabview/lv_tabview.c **** uint32_t lv_tabview_get_tab_active(lv_obj_t * obj)
 227:Lib/lvgl/src/widgets/tabview/lv_tabview.c **** {
  80              		.loc 1 227 1 is_stmt 1 view -0
  81              		.cfi_startproc
  82              		@ args = 0, pretend = 0, frame = 0
  83              		@ frame_needed = 0, uses_anonymous_args = 0
  84              		@ link register save eliminated.
 228:Lib/lvgl/src/widgets/tabview/lv_tabview.c ****     LV_ASSERT_OBJ(obj, MY_CLASS);
  85              		.loc 1 228 5 view .LVU14
  86              		.loc 1 228 5 view .LVU15
  87              		.loc 1 228 5 view .LVU16
 229:Lib/lvgl/src/widgets/tabview/lv_tabview.c ****     lv_tabview_t * tabview = (lv_tabview_t *)obj;
  88              		.loc 1 229 5 view .LVU17
 230:Lib/lvgl/src/widgets/tabview/lv_tabview.c ****     return tabview->tab_cur;
  89              		.loc 1 230 5 view .LVU18
 231:Lib/lvgl/src/widgets/tabview/lv_tabview.c **** }
  90              		.loc 1 231 1 is_stmt 0 view .LVU19
  91 0000 C06A     		ldr	r0, [r0, #44]
  92              	.LVL7:
  93              		.loc 1 231 1 view .LVU20
  94 0002 7047     		bx	lr
  95              		.cfi_endproc
  96              	.LFE262:
  98              		.section	.text.lv_tabview_get_content,"ax",%progbits
  99              		.align	1
 100              		.global	lv_tabview_get_content
 101              		.syntax unified
 102              		.thumb
 103              		.thumb_func
 105              	lv_tabview_get_content:
 106              	.LVL8:
 107              	.LFB264:
 232:Lib/lvgl/src/widgets/tabview/lv_tabview.c **** 
 233:Lib/lvgl/src/widgets/tabview/lv_tabview.c **** uint32_t lv_tabview_get_tab_count(lv_obj_t * obj)
 234:Lib/lvgl/src/widgets/tabview/lv_tabview.c **** {
 235:Lib/lvgl/src/widgets/tabview/lv_tabview.c ****     LV_ASSERT_OBJ(obj, MY_CLASS);
 236:Lib/lvgl/src/widgets/tabview/lv_tabview.c ****     lv_obj_t * tab_bar = lv_tabview_get_tab_bar(obj);
 237:Lib/lvgl/src/widgets/tabview/lv_tabview.c ****     return lv_obj_get_child_count_by_type(tab_bar, &lv_button_class);
 238:Lib/lvgl/src/widgets/tabview/lv_tabview.c **** }
 239:Lib/lvgl/src/widgets/tabview/lv_tabview.c **** 
 240:Lib/lvgl/src/widgets/tabview/lv_tabview.c **** lv_obj_t * lv_tabview_get_content(lv_obj_t * tv)
ARM GAS  C:\Users\Alex\AppData\Local\Temp\ccBm5uex.s 			page 7


 241:Lib/lvgl/src/widgets/tabview/lv_tabview.c **** {
 108              		.loc 1 241 1 is_stmt 1 view -0
 109              		.cfi_startproc
 110              		@ args = 0, pretend = 0, frame = 0
 111              		@ frame_needed = 0, uses_anonymous_args = 0
 112              		.loc 1 241 1 is_stmt 0 view .LVU22
 113 0000 08B5     		push	{r3, lr}
 114              	.LCFI1:
 115              		.cfi_def_cfa_offset 8
 116              		.cfi_offset 3, -8
 117              		.cfi_offset 14, -4
 242:Lib/lvgl/src/widgets/tabview/lv_tabview.c ****     return lv_obj_get_child(tv, 1);
 118              		.loc 1 242 5 is_stmt 1 view .LVU23
 119              		.loc 1 242 12 is_stmt 0 view .LVU24
 120 0002 0121     		movs	r1, #1
 121 0004 FFF7FEFF 		bl	lv_obj_get_child
 122              	.LVL9:
 243:Lib/lvgl/src/widgets/tabview/lv_tabview.c **** }
 123              		.loc 1 243 1 view .LVU25
 124 0008 08BD     		pop	{r3, pc}
 125              		.cfi_endproc
 126              	.LFE264:
 128              		.section	.text.lv_tabview_get_tab_bar,"ax",%progbits
 129              		.align	1
 130              		.global	lv_tabview_get_tab_bar
 131              		.syntax unified
 132              		.thumb
 133              		.thumb_func
 135              	lv_tabview_get_tab_bar:
 136              	.LVL10:
 137              	.LFB265:
 244:Lib/lvgl/src/widgets/tabview/lv_tabview.c **** 
 245:Lib/lvgl/src/widgets/tabview/lv_tabview.c **** lv_obj_t * lv_tabview_get_tab_bar(lv_obj_t * tv)
 246:Lib/lvgl/src/widgets/tabview/lv_tabview.c **** {
 138              		.loc 1 246 1 is_stmt 1 view -0
 139              		.cfi_startproc
 140              		@ args = 0, pretend = 0, frame = 0
 141              		@ frame_needed = 0, uses_anonymous_args = 0
 142              		.loc 1 246 1 is_stmt 0 view .LVU27
 143 0000 08B5     		push	{r3, lr}
 144              	.LCFI2:
 145              		.cfi_def_cfa_offset 8
 146              		.cfi_offset 3, -8
 147              		.cfi_offset 14, -4
 247:Lib/lvgl/src/widgets/tabview/lv_tabview.c ****     return lv_obj_get_child(tv, 0);
 148              		.loc 1 247 5 is_stmt 1 view .LVU28
 149              		.loc 1 247 12 is_stmt 0 view .LVU29
 150 0002 0021     		movs	r1, #0
 151 0004 FFF7FEFF 		bl	lv_obj_get_child
 152              	.LVL11:
 248:Lib/lvgl/src/widgets/tabview/lv_tabview.c **** }
 153              		.loc 1 248 1 view .LVU30
 154 0008 08BD     		pop	{r3, pc}
 155              		.cfi_endproc
 156              	.LFE265:
 158              		.section	.text.lv_tabview_rename_tab,"ax",%progbits
 159              		.align	1
ARM GAS  C:\Users\Alex\AppData\Local\Temp\ccBm5uex.s 			page 8


 160              		.global	lv_tabview_rename_tab
 161              		.syntax unified
 162              		.thumb
 163              		.thumb_func
 165              	lv_tabview_rename_tab:
 166              	.LVL12:
 167              	.LFB258:
  97:Lib/lvgl/src/widgets/tabview/lv_tabview.c ****     LV_ASSERT_OBJ(obj, MY_CLASS);
 168              		.loc 1 97 1 is_stmt 1 view -0
 169              		.cfi_startproc
 170              		@ args = 0, pretend = 0, frame = 0
 171              		@ frame_needed = 0, uses_anonymous_args = 0
  97:Lib/lvgl/src/widgets/tabview/lv_tabview.c ****     LV_ASSERT_OBJ(obj, MY_CLASS);
 172              		.loc 1 97 1 is_stmt 0 view .LVU32
 173 0000 38B5     		push	{r3, r4, r5, lr}
 174              	.LCFI3:
 175              		.cfi_def_cfa_offset 16
 176              		.cfi_offset 3, -16
 177              		.cfi_offset 4, -12
 178              		.cfi_offset 5, -8
 179              		.cfi_offset 14, -4
 180 0002 0D46     		mov	r5, r1
 181 0004 1446     		mov	r4, r2
  98:Lib/lvgl/src/widgets/tabview/lv_tabview.c **** 
 182              		.loc 1 98 5 is_stmt 1 view .LVU33
  98:Lib/lvgl/src/widgets/tabview/lv_tabview.c **** 
 183              		.loc 1 98 5 view .LVU34
  98:Lib/lvgl/src/widgets/tabview/lv_tabview.c **** 
 184              		.loc 1 98 5 view .LVU35
 100:Lib/lvgl/src/widgets/tabview/lv_tabview.c ****     lv_obj_t * button = lv_obj_get_child_by_type(tab_bar, idx, &lv_button_class);
 185              		.loc 1 100 5 view .LVU36
 100:Lib/lvgl/src/widgets/tabview/lv_tabview.c ****     lv_obj_t * button = lv_obj_get_child_by_type(tab_bar, idx, &lv_button_class);
 186              		.loc 1 100 26 is_stmt 0 view .LVU37
 187 0006 FFF7FEFF 		bl	lv_tabview_get_tab_bar
 188              	.LVL13:
 101:Lib/lvgl/src/widgets/tabview/lv_tabview.c ****     lv_obj_t * label = lv_obj_get_child_by_type(button, 0, &lv_label_class);
 189              		.loc 1 101 5 is_stmt 1 view .LVU38
 101:Lib/lvgl/src/widgets/tabview/lv_tabview.c ****     lv_obj_t * label = lv_obj_get_child_by_type(button, 0, &lv_label_class);
 190              		.loc 1 101 25 is_stmt 0 view .LVU39
 191 000a 064A     		ldr	r2, .L12
 192 000c 2946     		mov	r1, r5
 193 000e FFF7FEFF 		bl	lv_obj_get_child_by_type
 194              	.LVL14:
 102:Lib/lvgl/src/widgets/tabview/lv_tabview.c ****     lv_label_set_text(label, new_name);
 195              		.loc 1 102 5 is_stmt 1 view .LVU40
 102:Lib/lvgl/src/widgets/tabview/lv_tabview.c ****     lv_label_set_text(label, new_name);
 196              		.loc 1 102 24 is_stmt 0 view .LVU41
 197 0012 054A     		ldr	r2, .L12+4
 198 0014 0021     		movs	r1, #0
 199 0016 FFF7FEFF 		bl	lv_obj_get_child_by_type
 200              	.LVL15:
 103:Lib/lvgl/src/widgets/tabview/lv_tabview.c **** }
 201              		.loc 1 103 5 is_stmt 1 view .LVU42
 202 001a 2146     		mov	r1, r4
 203 001c FFF7FEFF 		bl	lv_label_set_text
 204              	.LVL16:
 104:Lib/lvgl/src/widgets/tabview/lv_tabview.c **** 
ARM GAS  C:\Users\Alex\AppData\Local\Temp\ccBm5uex.s 			page 9


 205              		.loc 1 104 1 is_stmt 0 view .LVU43
 206 0020 38BD     		pop	{r3, r4, r5, pc}
 207              	.LVL17:
 208              	.L13:
 104:Lib/lvgl/src/widgets/tabview/lv_tabview.c **** 
 209              		.loc 1 104 1 view .LVU44
 210 0022 00BF     		.align	2
 211              	.L12:
 212 0024 00000000 		.word	lv_button_class
 213 0028 00000000 		.word	lv_label_class
 214              		.cfi_endproc
 215              	.LFE258:
 217              		.section	.text.lv_tabview_set_tab_bar_position,"ax",%progbits
 218              		.align	1
 219              		.global	lv_tabview_set_tab_bar_position
 220              		.syntax unified
 221              		.thumb
 222              		.thumb_func
 224              	lv_tabview_set_tab_bar_position:
 225              	.LVL18:
 226              	.LFB260:
 153:Lib/lvgl/src/widgets/tabview/lv_tabview.c ****     LV_ASSERT_OBJ(obj, MY_CLASS);
 227              		.loc 1 153 1 is_stmt 1 view -0
 228              		.cfi_startproc
 229              		@ args = 0, pretend = 0, frame = 0
 230              		@ frame_needed = 0, uses_anonymous_args = 0
 153:Lib/lvgl/src/widgets/tabview/lv_tabview.c ****     LV_ASSERT_OBJ(obj, MY_CLASS);
 231              		.loc 1 153 1 is_stmt 0 view .LVU46
 232 0000 F8B5     		push	{r3, r4, r5, r6, r7, lr}
 233              	.LCFI4:
 234              		.cfi_def_cfa_offset 24
 235              		.cfi_offset 3, -24
 236              		.cfi_offset 4, -20
 237              		.cfi_offset 5, -16
 238              		.cfi_offset 6, -12
 239              		.cfi_offset 7, -8
 240              		.cfi_offset 14, -4
 241 0002 0546     		mov	r5, r0
 242 0004 0C46     		mov	r4, r1
 154:Lib/lvgl/src/widgets/tabview/lv_tabview.c ****     lv_tabview_t * tabview = (lv_tabview_t *)obj;
 243              		.loc 1 154 5 is_stmt 1 view .LVU47
 154:Lib/lvgl/src/widgets/tabview/lv_tabview.c ****     lv_tabview_t * tabview = (lv_tabview_t *)obj;
 244              		.loc 1 154 5 view .LVU48
 154:Lib/lvgl/src/widgets/tabview/lv_tabview.c ****     lv_tabview_t * tabview = (lv_tabview_t *)obj;
 245              		.loc 1 154 5 view .LVU49
 155:Lib/lvgl/src/widgets/tabview/lv_tabview.c **** 
 246              		.loc 1 155 5 view .LVU50
 247              	.LVL19:
 157:Lib/lvgl/src/widgets/tabview/lv_tabview.c ****         case LV_DIR_TOP:
 248              		.loc 1 157 5 view .LVU51
 249 0006 4B1E     		subs	r3, r1, #1
 250 0008 072B     		cmp	r3, #7
 251 000a 08D8     		bhi	.L15
 252 000c DFE803F0 		tbb	[pc, r3]
 253              	.L17:
 254 0010 32       		.byte	(.L20-.L17)/2
 255 0011 36       		.byte	(.L19-.L17)/2
ARM GAS  C:\Users\Alex\AppData\Local\Temp\ccBm5uex.s 			page 10


 256 0012 07       		.byte	(.L15-.L17)/2
 257 0013 04       		.byte	(.L18-.L17)/2
 258 0014 07       		.byte	(.L15-.L17)/2
 259 0015 07       		.byte	(.L15-.L17)/2
 260 0016 07       		.byte	(.L15-.L17)/2
 261 0017 2E       		.byte	(.L16-.L17)/2
 262              		.p2align 1
 263              	.L18:
 159:Lib/lvgl/src/widgets/tabview/lv_tabview.c ****             break;
 264              		.loc 1 159 13 view .LVU52
 265 0018 0121     		movs	r1, #1
 266              	.LVL20:
 159:Lib/lvgl/src/widgets/tabview/lv_tabview.c ****             break;
 267              		.loc 1 159 13 is_stmt 0 view .LVU53
 268 001a FFF7FEFF 		bl	lv_obj_set_flex_flow
 269              	.LVL21:
 160:Lib/lvgl/src/widgets/tabview/lv_tabview.c ****         case LV_DIR_BOTTOM:
 270              		.loc 1 160 13 is_stmt 1 view .LVU54
 271              	.L15:
 172:Lib/lvgl/src/widgets/tabview/lv_tabview.c ****     lv_obj_t * cont = lv_tabview_get_content(obj);
 272              		.loc 1 172 5 view .LVU55
 172:Lib/lvgl/src/widgets/tabview/lv_tabview.c ****     lv_obj_t * cont = lv_tabview_get_content(obj);
 273              		.loc 1 172 26 is_stmt 0 view .LVU56
 274 001e 2846     		mov	r0, r5
 275 0020 FFF7FEFF 		bl	lv_tabview_get_tab_bar
 276              	.LVL22:
 277 0024 0746     		mov	r7, r0
 278              	.LVL23:
 173:Lib/lvgl/src/widgets/tabview/lv_tabview.c **** 
 279              		.loc 1 173 5 is_stmt 1 view .LVU57
 173:Lib/lvgl/src/widgets/tabview/lv_tabview.c **** 
 280              		.loc 1 173 23 is_stmt 0 view .LVU58
 281 0026 2846     		mov	r0, r5
 282              	.LVL24:
 173:Lib/lvgl/src/widgets/tabview/lv_tabview.c **** 
 283              		.loc 1 173 23 view .LVU59
 284 0028 FFF7FEFF 		bl	lv_tabview_get_content
 285              	.LVL25:
 286 002c 0646     		mov	r6, r0
 287              	.LVL26:
 175:Lib/lvgl/src/widgets/tabview/lv_tabview.c ****         case LV_DIR_TOP:
 288              		.loc 1 175 5 is_stmt 1 view .LVU60
 289 002e 042C     		cmp	r4, #4
 290 0030 2AD0     		beq	.L21
 291 0032 27D8     		bhi	.L22
 292 0034 631E     		subs	r3, r4, #1
 293 0036 DBB2     		uxtb	r3, r3
 294 0038 012B     		cmp	r3, #1
 295 003a 3DD8     		bhi	.L23
 187:Lib/lvgl/src/widgets/tabview/lv_tabview.c ****             lv_obj_set_flex_grow(cont, 1);
 296              		.loc 1 187 13 view .LVU61
 297 003c 3149     		ldr	r1, .L31
 298 003e FFF7FEFF 		bl	lv_obj_set_height
 299              	.LVL27:
 188:Lib/lvgl/src/widgets/tabview/lv_tabview.c ****             lv_obj_set_flex_flow(tab_bar, LV_FLEX_FLOW_COLUMN);
 300              		.loc 1 188 13 view .LVU62
 301 0042 0121     		movs	r1, #1
ARM GAS  C:\Users\Alex\AppData\Local\Temp\ccBm5uex.s 			page 11


 302 0044 3046     		mov	r0, r6
 303 0046 FFF7FEFF 		bl	lv_obj_set_flex_grow
 304              	.LVL28:
 189:Lib/lvgl/src/widgets/tabview/lv_tabview.c ****             lv_obj_set_flex_flow(cont, LV_FLEX_FLOW_COLUMN);
 305              		.loc 1 189 13 view .LVU63
 306 004a 0121     		movs	r1, #1
 307 004c 3846     		mov	r0, r7
 308 004e FFF7FEFF 		bl	lv_obj_set_flex_flow
 309              	.LVL29:
 190:Lib/lvgl/src/widgets/tabview/lv_tabview.c ****             lv_obj_set_scroll_snap_x(cont, LV_SCROLL_SNAP_NONE);
 310              		.loc 1 190 13 view .LVU64
 311 0052 0121     		movs	r1, #1
 312 0054 3046     		mov	r0, r6
 313 0056 FFF7FEFF 		bl	lv_obj_set_flex_flow
 314              	.LVL30:
 191:Lib/lvgl/src/widgets/tabview/lv_tabview.c ****             lv_obj_set_scroll_snap_y(cont, LV_SCROLL_SNAP_CENTER);
 315              		.loc 1 191 13 view .LVU65
 316 005a 0021     		movs	r1, #0
 317 005c 3046     		mov	r0, r6
 318 005e FFF7FEFF 		bl	lv_obj_set_scroll_snap_x
 319              	.LVL31:
 192:Lib/lvgl/src/widgets/tabview/lv_tabview.c ****             break;
 320              		.loc 1 192 13 view .LVU66
 321 0062 0321     		movs	r1, #3
 322 0064 3046     		mov	r0, r6
 323 0066 FFF7FEFF 		bl	lv_obj_set_scroll_snap_y
 324              	.LVL32:
 193:Lib/lvgl/src/widgets/tabview/lv_tabview.c ****     }
 325              		.loc 1 193 13 view .LVU67
 326 006a 25E0     		b	.L23
 327              	.LVL33:
 328              	.L16:
 162:Lib/lvgl/src/widgets/tabview/lv_tabview.c ****             break;
 329              		.loc 1 162 13 view .LVU68
 330 006c 0921     		movs	r1, #9
 331              	.LVL34:
 162:Lib/lvgl/src/widgets/tabview/lv_tabview.c ****             break;
 332              		.loc 1 162 13 is_stmt 0 view .LVU69
 333 006e FFF7FEFF 		bl	lv_obj_set_flex_flow
 334              	.LVL35:
 163:Lib/lvgl/src/widgets/tabview/lv_tabview.c ****         case LV_DIR_LEFT:
 335              		.loc 1 163 13 is_stmt 1 view .LVU70
 336 0072 D4E7     		b	.L15
 337              	.LVL36:
 338              	.L20:
 165:Lib/lvgl/src/widgets/tabview/lv_tabview.c ****             break;
 339              		.loc 1 165 13 view .LVU71
 340 0074 0021     		movs	r1, #0
 341              	.LVL37:
 165:Lib/lvgl/src/widgets/tabview/lv_tabview.c ****             break;
 342              		.loc 1 165 13 is_stmt 0 view .LVU72
 343 0076 FFF7FEFF 		bl	lv_obj_set_flex_flow
 344              	.LVL38:
 166:Lib/lvgl/src/widgets/tabview/lv_tabview.c ****         case LV_DIR_RIGHT:
 345              		.loc 1 166 13 is_stmt 1 view .LVU73
 346 007a D0E7     		b	.L15
 347              	.LVL39:
ARM GAS  C:\Users\Alex\AppData\Local\Temp\ccBm5uex.s 			page 12


 348              	.L19:
 168:Lib/lvgl/src/widgets/tabview/lv_tabview.c ****             break;
 349              		.loc 1 168 13 view .LVU74
 350 007c 0821     		movs	r1, #8
 351              	.LVL40:
 168:Lib/lvgl/src/widgets/tabview/lv_tabview.c ****             break;
 352              		.loc 1 168 13 is_stmt 0 view .LVU75
 353 007e FFF7FEFF 		bl	lv_obj_set_flex_flow
 354              	.LVL41:
 169:Lib/lvgl/src/widgets/tabview/lv_tabview.c ****     }
 355              		.loc 1 169 13 is_stmt 1 view .LVU76
 356 0082 CCE7     		b	.L15
 357              	.LVL42:
 358              	.L22:
 175:Lib/lvgl/src/widgets/tabview/lv_tabview.c ****         case LV_DIR_TOP:
 359              		.loc 1 175 5 is_stmt 0 view .LVU77
 360 0084 082C     		cmp	r4, #8
 361 0086 17D1     		bne	.L23
 362              	.L21:
 178:Lib/lvgl/src/widgets/tabview/lv_tabview.c ****             lv_obj_set_flex_grow(cont, 1);
 363              		.loc 1 178 13 is_stmt 1 view .LVU78
 364 0088 1E49     		ldr	r1, .L31
 365 008a 3046     		mov	r0, r6
 366              	.LVL43:
 178:Lib/lvgl/src/widgets/tabview/lv_tabview.c ****             lv_obj_set_flex_grow(cont, 1);
 367              		.loc 1 178 13 is_stmt 0 view .LVU79
 368 008c FFF7FEFF 		bl	lv_obj_set_width
 369              	.LVL44:
 179:Lib/lvgl/src/widgets/tabview/lv_tabview.c ****             lv_obj_set_flex_flow(tab_bar, LV_FLEX_FLOW_ROW);
 370              		.loc 1 179 13 is_stmt 1 view .LVU80
 371 0090 0121     		movs	r1, #1
 372 0092 3046     		mov	r0, r6
 373 0094 FFF7FEFF 		bl	lv_obj_set_flex_grow
 374              	.LVL45:
 180:Lib/lvgl/src/widgets/tabview/lv_tabview.c ****             lv_obj_set_flex_flow(cont, LV_FLEX_FLOW_ROW);
 375              		.loc 1 180 13 view .LVU81
 376 0098 0021     		movs	r1, #0
 377 009a 3846     		mov	r0, r7
 378 009c FFF7FEFF 		bl	lv_obj_set_flex_flow
 379              	.LVL46:
 181:Lib/lvgl/src/widgets/tabview/lv_tabview.c ****             lv_obj_set_scroll_snap_x(cont, LV_SCROLL_SNAP_CENTER);
 380              		.loc 1 181 13 view .LVU82
 381 00a0 0021     		movs	r1, #0
 382 00a2 3046     		mov	r0, r6
 383 00a4 FFF7FEFF 		bl	lv_obj_set_flex_flow
 384              	.LVL47:
 182:Lib/lvgl/src/widgets/tabview/lv_tabview.c ****             lv_obj_set_scroll_snap_y(cont, LV_SCROLL_SNAP_NONE);
 385              		.loc 1 182 13 view .LVU83
 386 00a8 0321     		movs	r1, #3
 387 00aa 3046     		mov	r0, r6
 388 00ac FFF7FEFF 		bl	lv_obj_set_scroll_snap_x
 389              	.LVL48:
 183:Lib/lvgl/src/widgets/tabview/lv_tabview.c ****             break;
 390              		.loc 1 183 13 view .LVU84
 391 00b0 0021     		movs	r1, #0
 392 00b2 3046     		mov	r0, r6
 393 00b4 FFF7FEFF 		bl	lv_obj_set_scroll_snap_y
ARM GAS  C:\Users\Alex\AppData\Local\Temp\ccBm5uex.s 			page 13


 394              	.LVL49:
 184:Lib/lvgl/src/widgets/tabview/lv_tabview.c ****         case LV_DIR_LEFT:
 395              		.loc 1 184 13 view .LVU85
 396              	.L23:
 196:Lib/lvgl/src/widgets/tabview/lv_tabview.c ****     bool now_ver = dir & LV_DIR_VER;
 397              		.loc 1 196 5 view .LVU86
 196:Lib/lvgl/src/widgets/tabview/lv_tabview.c ****     bool now_ver = dir & LV_DIR_VER;
 398              		.loc 1 196 27 is_stmt 0 view .LVU87
 399 00b8 95F83030 		ldrb	r3, [r5, #48]	@ zero_extendqisi2
 196:Lib/lvgl/src/widgets/tabview/lv_tabview.c ****     bool now_ver = dir & LV_DIR_VER;
 400              		.loc 1 196 10 view .LVU88
 401 00bc 13F00C0F 		tst	r3, #12
 402 00c0 14BF     		ite	ne
 403 00c2 0122     		movne	r2, #1
 404 00c4 0022     		moveq	r2, #0
 405              	.LVL50:
 197:Lib/lvgl/src/widgets/tabview/lv_tabview.c **** 
 406              		.loc 1 197 5 is_stmt 1 view .LVU89
 197:Lib/lvgl/src/widgets/tabview/lv_tabview.c **** 
 407              		.loc 1 197 10 is_stmt 0 view .LVU90
 408 00c6 14F00C06 		ands	r6, r4, #12
 409              	.LVL51:
 197:Lib/lvgl/src/widgets/tabview/lv_tabview.c **** 
 410              		.loc 1 197 10 view .LVU91
 411 00ca 14BF     		ite	ne
 412 00cc 0123     		movne	r3, #1
 413 00ce 0023     		moveq	r3, #0
 414              	.LVL52:
 199:Lib/lvgl/src/widgets/tabview/lv_tabview.c ****         int32_t dpi = lv_display_get_dpi(lv_obj_get_display(obj));
 415              		.loc 1 199 5 is_stmt 1 view .LVU92
 199:Lib/lvgl/src/widgets/tabview/lv_tabview.c ****         int32_t dpi = lv_display_get_dpi(lv_obj_get_display(obj));
 416              		.loc 1 199 7 is_stmt 0 view .LVU93
 417 00d0 9A42     		cmp	r2, r3
 418 00d2 02D1     		bne	.L30
 419              	.LVL53:
 420              	.L25:
 208:Lib/lvgl/src/widgets/tabview/lv_tabview.c **** }
 421              		.loc 1 208 5 is_stmt 1 view .LVU94
 208:Lib/lvgl/src/widgets/tabview/lv_tabview.c **** }
 422              		.loc 1 208 22 is_stmt 0 view .LVU95
 423 00d4 85F83040 		strb	r4, [r5, #48]
 209:Lib/lvgl/src/widgets/tabview/lv_tabview.c **** 
 424              		.loc 1 209 1 view .LVU96
 425 00d8 F8BD     		pop	{r3, r4, r5, r6, r7, pc}
 426              	.LVL54:
 427              	.L30:
 428              	.LBB31:
 200:Lib/lvgl/src/widgets/tabview/lv_tabview.c ****         if(now_ver) {
 429              		.loc 1 200 9 is_stmt 1 view .LVU97
 200:Lib/lvgl/src/widgets/tabview/lv_tabview.c ****         if(now_ver) {
 430              		.loc 1 200 42 is_stmt 0 view .LVU98
 431 00da 2846     		mov	r0, r5
 432 00dc FFF7FEFF 		bl	lv_obj_get_display
 433              	.LVL55:
 200:Lib/lvgl/src/widgets/tabview/lv_tabview.c ****         if(now_ver) {
 434              		.loc 1 200 23 view .LVU99
 435 00e0 FFF7FEFF 		bl	lv_display_get_dpi
ARM GAS  C:\Users\Alex\AppData\Local\Temp\ccBm5uex.s 			page 14


 436              	.LVL56:
 437 00e4 0146     		mov	r1, r0
 438              	.LVL57:
 201:Lib/lvgl/src/widgets/tabview/lv_tabview.c ****             lv_obj_set_size(tab_bar, lv_pct(100), dpi / 2);
 439              		.loc 1 201 9 is_stmt 1 view .LVU100
 201:Lib/lvgl/src/widgets/tabview/lv_tabview.c ****             lv_obj_set_size(tab_bar, lv_pct(100), dpi / 2);
 440              		.loc 1 201 11 is_stmt 0 view .LVU101
 441 00e6 3EB1     		cbz	r6, .L26
 202:Lib/lvgl/src/widgets/tabview/lv_tabview.c ****         }
 442              		.loc 1 202 13 is_stmt 1 view .LVU102
 443 00e8 00EBD071 		add	r1, r0, r0, lsr #31
 444 00ec 4A10     		asrs	r2, r1, #1
 445 00ee 0549     		ldr	r1, .L31
 446 00f0 3846     		mov	r0, r7
 447              	.LVL58:
 202:Lib/lvgl/src/widgets/tabview/lv_tabview.c ****         }
 448              		.loc 1 202 13 is_stmt 0 view .LVU103
 449 00f2 FFF7FEFF 		bl	lv_obj_set_size
 450              	.LVL59:
 451 00f6 EDE7     		b	.L25
 452              	.LVL60:
 453              	.L26:
 205:Lib/lvgl/src/widgets/tabview/lv_tabview.c ****         }
 454              		.loc 1 205 13 is_stmt 1 view .LVU104
 455 00f8 024A     		ldr	r2, .L31
 456 00fa 3846     		mov	r0, r7
 457              	.LVL61:
 205:Lib/lvgl/src/widgets/tabview/lv_tabview.c ****         }
 458              		.loc 1 205 13 is_stmt 0 view .LVU105
 459 00fc FFF7FEFF 		bl	lv_obj_set_size
 460              	.LVL62:
 205:Lib/lvgl/src/widgets/tabview/lv_tabview.c ****         }
 461              		.loc 1 205 13 view .LVU106
 462 0100 E8E7     		b	.L25
 463              	.L32:
 464 0102 00BF     		.align	2
 465              	.L31:
 466 0104 64000020 		.word	536871012
 467              	.LBE31:
 468              		.cfi_endproc
 469              	.LFE260:
 471              		.section	.text.lv_tabview_constructor,"ax",%progbits
 472              		.align	1
 473              		.syntax unified
 474              		.thumb
 475              		.thumb_func
 477              	lv_tabview_constructor:
 478              	.LVL63:
 479              	.LFB266:
 249:Lib/lvgl/src/widgets/tabview/lv_tabview.c **** 
 250:Lib/lvgl/src/widgets/tabview/lv_tabview.c **** /**********************
 251:Lib/lvgl/src/widgets/tabview/lv_tabview.c ****  *   STATIC FUNCTIONS
 252:Lib/lvgl/src/widgets/tabview/lv_tabview.c ****  **********************/
 253:Lib/lvgl/src/widgets/tabview/lv_tabview.c **** 
 254:Lib/lvgl/src/widgets/tabview/lv_tabview.c **** static void lv_tabview_constructor(const lv_obj_class_t * class_p, lv_obj_t * obj)
 255:Lib/lvgl/src/widgets/tabview/lv_tabview.c **** {
 480              		.loc 1 255 1 is_stmt 1 view -0
ARM GAS  C:\Users\Alex\AppData\Local\Temp\ccBm5uex.s 			page 15


 481              		.cfi_startproc
 482              		@ args = 0, pretend = 0, frame = 0
 483              		@ frame_needed = 0, uses_anonymous_args = 0
 484              		.loc 1 255 1 is_stmt 0 view .LVU108
 485 0000 70B5     		push	{r4, r5, r6, lr}
 486              	.LCFI5:
 487              		.cfi_def_cfa_offset 16
 488              		.cfi_offset 4, -16
 489              		.cfi_offset 5, -12
 490              		.cfi_offset 6, -8
 491              		.cfi_offset 14, -4
 492 0002 0C46     		mov	r4, r1
 256:Lib/lvgl/src/widgets/tabview/lv_tabview.c ****     LV_UNUSED(class_p);
 493              		.loc 1 256 5 is_stmt 1 view .LVU109
 257:Lib/lvgl/src/widgets/tabview/lv_tabview.c ****     lv_tabview_t * tabview = (lv_tabview_t *)obj;
 494              		.loc 1 257 5 view .LVU110
 495              	.LVL64:
 258:Lib/lvgl/src/widgets/tabview/lv_tabview.c ****     tabview->tab_pos = LV_DIR_NONE;  /*Invalid value to apply the default TOP direction correctly*/
 496              		.loc 1 258 5 view .LVU111
 497              		.loc 1 258 22 is_stmt 0 view .LVU112
 498 0004 0026     		movs	r6, #0
 499 0006 81F83060 		strb	r6, [r1, #48]
 259:Lib/lvgl/src/widgets/tabview/lv_tabview.c **** 
 260:Lib/lvgl/src/widgets/tabview/lv_tabview.c ****     lv_obj_set_size(obj, LV_PCT(100), LV_PCT(100));
 500              		.loc 1 260 5 is_stmt 1 view .LVU113
 501 000a 1349     		ldr	r1, .L35
 502              	.LVL65:
 503              		.loc 1 260 5 is_stmt 0 view .LVU114
 504 000c 0A46     		mov	r2, r1
 505 000e 2046     		mov	r0, r4
 506              	.LVL66:
 507              		.loc 1 260 5 view .LVU115
 508 0010 FFF7FEFF 		bl	lv_obj_set_size
 509              	.LVL67:
 261:Lib/lvgl/src/widgets/tabview/lv_tabview.c **** 
 262:Lib/lvgl/src/widgets/tabview/lv_tabview.c ****     lv_obj_t * cont;
 510              		.loc 1 262 5 is_stmt 1 view .LVU116
 263:Lib/lvgl/src/widgets/tabview/lv_tabview.c **** 
 264:Lib/lvgl/src/widgets/tabview/lv_tabview.c ****     lv_obj_create(obj);
 511              		.loc 1 264 5 view .LVU117
 512 0014 2046     		mov	r0, r4
 513 0016 FFF7FEFF 		bl	lv_obj_create
 514              	.LVL68:
 265:Lib/lvgl/src/widgets/tabview/lv_tabview.c ****     cont = lv_obj_create(obj);
 515              		.loc 1 265 5 view .LVU118
 516              		.loc 1 265 12 is_stmt 0 view .LVU119
 517 001a 2046     		mov	r0, r4
 518 001c FFF7FEFF 		bl	lv_obj_create
 519              	.LVL69:
 520 0020 0546     		mov	r5, r0
 521              	.LVL70:
 266:Lib/lvgl/src/widgets/tabview/lv_tabview.c ****     lv_obj_set_flex_flow(cont, LV_FLEX_FLOW_ROW);
 522              		.loc 1 266 5 is_stmt 1 view .LVU120
 523 0022 3146     		mov	r1, r6
 524 0024 FFF7FEFF 		bl	lv_obj_set_flex_flow
 525              	.LVL71:
 267:Lib/lvgl/src/widgets/tabview/lv_tabview.c **** 
ARM GAS  C:\Users\Alex\AppData\Local\Temp\ccBm5uex.s 			page 16


 268:Lib/lvgl/src/widgets/tabview/lv_tabview.c ****     lv_obj_add_event_cb(cont, cont_scroll_end_event_cb, LV_EVENT_ALL, NULL);
 526              		.loc 1 268 5 view .LVU121
 527 0028 3346     		mov	r3, r6
 528 002a 3246     		mov	r2, r6
 529 002c 0B49     		ldr	r1, .L35+4
 530 002e 2846     		mov	r0, r5
 531 0030 FFF7FEFF 		bl	lv_obj_add_event_cb
 532              	.LVL72:
 269:Lib/lvgl/src/widgets/tabview/lv_tabview.c ****     lv_obj_set_scrollbar_mode(cont, LV_SCROLLBAR_MODE_OFF);
 533              		.loc 1 269 5 view .LVU122
 534 0034 3146     		mov	r1, r6
 535 0036 2846     		mov	r0, r5
 536 0038 FFF7FEFF 		bl	lv_obj_set_scrollbar_mode
 537              	.LVL73:
 270:Lib/lvgl/src/widgets/tabview/lv_tabview.c ****     lv_tabview_set_tab_bar_position(obj, LV_DIR_TOP);
 538              		.loc 1 270 5 view .LVU123
 539 003c 0421     		movs	r1, #4
 540 003e 2046     		mov	r0, r4
 541 0040 FFF7FEFF 		bl	lv_tabview_set_tab_bar_position
 542              	.LVL74:
 271:Lib/lvgl/src/widgets/tabview/lv_tabview.c **** 
 272:Lib/lvgl/src/widgets/tabview/lv_tabview.c ****     lv_obj_add_flag(cont, LV_OBJ_FLAG_SCROLL_ONE);
 543              		.loc 1 272 5 view .LVU124
 544 0044 8021     		movs	r1, #128
 545 0046 2846     		mov	r0, r5
 546 0048 FFF7FEFF 		bl	lv_obj_add_flag
 547              	.LVL75:
 273:Lib/lvgl/src/widgets/tabview/lv_tabview.c ****     lv_obj_remove_flag(cont, LV_OBJ_FLAG_SCROLL_ON_FOCUS);
 548              		.loc 1 273 5 view .LVU125
 549 004c 4FF48061 		mov	r1, #1024
 550 0050 2846     		mov	r0, r5
 551 0052 FFF7FEFF 		bl	lv_obj_remove_flag
 552              	.LVL76:
 274:Lib/lvgl/src/widgets/tabview/lv_tabview.c **** }
 553              		.loc 1 274 1 is_stmt 0 view .LVU126
 554 0056 70BD     		pop	{r4, r5, r6, pc}
 555              	.LVL77:
 556              	.L36:
 557              		.loc 1 274 1 view .LVU127
 558              		.align	2
 559              	.L35:
 560 0058 64000020 		.word	536871012
 561 005c 00000000 		.word	cont_scroll_end_event_cb
 562              		.cfi_endproc
 563              	.LFE266:
 565              		.section	.text.lv_tabview_set_tab_bar_size,"ax",%progbits
 566              		.align	1
 567              		.global	lv_tabview_set_tab_bar_size
 568              		.syntax unified
 569              		.thumb
 570              		.thumb_func
 572              	lv_tabview_set_tab_bar_size:
 573              	.LVL78:
 574              	.LFB261:
 212:Lib/lvgl/src/widgets/tabview/lv_tabview.c ****     LV_ASSERT_OBJ(obj, MY_CLASS);
 575              		.loc 1 212 1 is_stmt 1 view -0
 576              		.cfi_startproc
ARM GAS  C:\Users\Alex\AppData\Local\Temp\ccBm5uex.s 			page 17


 577              		@ args = 0, pretend = 0, frame = 0
 578              		@ frame_needed = 0, uses_anonymous_args = 0
 212:Lib/lvgl/src/widgets/tabview/lv_tabview.c ****     LV_ASSERT_OBJ(obj, MY_CLASS);
 579              		.loc 1 212 1 is_stmt 0 view .LVU129
 580 0000 38B5     		push	{r3, r4, r5, lr}
 581              	.LCFI6:
 582              		.cfi_def_cfa_offset 16
 583              		.cfi_offset 3, -16
 584              		.cfi_offset 4, -12
 585              		.cfi_offset 5, -8
 586              		.cfi_offset 14, -4
 587 0002 0546     		mov	r5, r0
 588 0004 0C46     		mov	r4, r1
 213:Lib/lvgl/src/widgets/tabview/lv_tabview.c ****     lv_tabview_t * tabview = (lv_tabview_t *)obj;
 589              		.loc 1 213 5 is_stmt 1 view .LVU130
 213:Lib/lvgl/src/widgets/tabview/lv_tabview.c ****     lv_tabview_t * tabview = (lv_tabview_t *)obj;
 590              		.loc 1 213 5 view .LVU131
 213:Lib/lvgl/src/widgets/tabview/lv_tabview.c ****     lv_tabview_t * tabview = (lv_tabview_t *)obj;
 591              		.loc 1 213 5 view .LVU132
 214:Lib/lvgl/src/widgets/tabview/lv_tabview.c **** 
 592              		.loc 1 214 5 view .LVU133
 593              	.LVL79:
 216:Lib/lvgl/src/widgets/tabview/lv_tabview.c ****     if(tabview->tab_pos & LV_DIR_VER) {
 594              		.loc 1 216 5 view .LVU134
 216:Lib/lvgl/src/widgets/tabview/lv_tabview.c ****     if(tabview->tab_pos & LV_DIR_VER) {
 595              		.loc 1 216 26 is_stmt 0 view .LVU135
 596 0006 FFF7FEFF 		bl	lv_tabview_get_tab_bar
 597              	.LVL80:
 217:Lib/lvgl/src/widgets/tabview/lv_tabview.c ****         lv_obj_set_height(tab_bar, size);
 598              		.loc 1 217 5 is_stmt 1 view .LVU136
 217:Lib/lvgl/src/widgets/tabview/lv_tabview.c ****         lv_obj_set_height(tab_bar, size);
 599              		.loc 1 217 15 is_stmt 0 view .LVU137
 600 000a 95F83030 		ldrb	r3, [r5, #48]	@ zero_extendqisi2
 217:Lib/lvgl/src/widgets/tabview/lv_tabview.c ****         lv_obj_set_height(tab_bar, size);
 601              		.loc 1 217 7 view .LVU138
 602 000e 13F00C0F 		tst	r3, #12
 603 0012 03D0     		beq	.L38
 218:Lib/lvgl/src/widgets/tabview/lv_tabview.c ****     }
 604              		.loc 1 218 9 is_stmt 1 view .LVU139
 605 0014 2146     		mov	r1, r4
 606 0016 FFF7FEFF 		bl	lv_obj_set_height
 607              	.LVL81:
 608              	.L37:
 224:Lib/lvgl/src/widgets/tabview/lv_tabview.c **** 
 609              		.loc 1 224 1 is_stmt 0 view .LVU140
 610 001a 38BD     		pop	{r3, r4, r5, pc}
 611              	.LVL82:
 612              	.L38:
 221:Lib/lvgl/src/widgets/tabview/lv_tabview.c ****     }
 613              		.loc 1 221 9 is_stmt 1 view .LVU141
 614 001c 2146     		mov	r1, r4
 615 001e FFF7FEFF 		bl	lv_obj_set_width
 616              	.LVL83:
 224:Lib/lvgl/src/widgets/tabview/lv_tabview.c **** 
 617              		.loc 1 224 1 is_stmt 0 view .LVU142
 618 0022 FAE7     		b	.L37
 619              		.cfi_endproc
ARM GAS  C:\Users\Alex\AppData\Local\Temp\ccBm5uex.s 			page 18


 620              	.LFE261:
 622              		.section	.text.lv_tabview_get_tab_count,"ax",%progbits
 623              		.align	1
 624              		.global	lv_tabview_get_tab_count
 625              		.syntax unified
 626              		.thumb
 627              		.thumb_func
 629              	lv_tabview_get_tab_count:
 630              	.LVL84:
 631              	.LFB263:
 234:Lib/lvgl/src/widgets/tabview/lv_tabview.c ****     LV_ASSERT_OBJ(obj, MY_CLASS);
 632              		.loc 1 234 1 is_stmt 1 view -0
 633              		.cfi_startproc
 634              		@ args = 0, pretend = 0, frame = 0
 635              		@ frame_needed = 0, uses_anonymous_args = 0
 234:Lib/lvgl/src/widgets/tabview/lv_tabview.c ****     LV_ASSERT_OBJ(obj, MY_CLASS);
 636              		.loc 1 234 1 is_stmt 0 view .LVU144
 637 0000 08B5     		push	{r3, lr}
 638              	.LCFI7:
 639              		.cfi_def_cfa_offset 8
 640              		.cfi_offset 3, -8
 641              		.cfi_offset 14, -4
 235:Lib/lvgl/src/widgets/tabview/lv_tabview.c ****     lv_obj_t * tab_bar = lv_tabview_get_tab_bar(obj);
 642              		.loc 1 235 5 is_stmt 1 view .LVU145
 235:Lib/lvgl/src/widgets/tabview/lv_tabview.c ****     lv_obj_t * tab_bar = lv_tabview_get_tab_bar(obj);
 643              		.loc 1 235 5 view .LVU146
 235:Lib/lvgl/src/widgets/tabview/lv_tabview.c ****     lv_obj_t * tab_bar = lv_tabview_get_tab_bar(obj);
 644              		.loc 1 235 5 view .LVU147
 236:Lib/lvgl/src/widgets/tabview/lv_tabview.c ****     return lv_obj_get_child_count_by_type(tab_bar, &lv_button_class);
 645              		.loc 1 236 5 view .LVU148
 236:Lib/lvgl/src/widgets/tabview/lv_tabview.c ****     return lv_obj_get_child_count_by_type(tab_bar, &lv_button_class);
 646              		.loc 1 236 26 is_stmt 0 view .LVU149
 647 0002 FFF7FEFF 		bl	lv_tabview_get_tab_bar
 648              	.LVL85:
 237:Lib/lvgl/src/widgets/tabview/lv_tabview.c **** }
 649              		.loc 1 237 5 is_stmt 1 view .LVU150
 237:Lib/lvgl/src/widgets/tabview/lv_tabview.c **** }
 650              		.loc 1 237 12 is_stmt 0 view .LVU151
 651 0006 0249     		ldr	r1, .L43
 652 0008 FFF7FEFF 		bl	lv_obj_get_child_count_by_type
 653              	.LVL86:
 238:Lib/lvgl/src/widgets/tabview/lv_tabview.c **** 
 654              		.loc 1 238 1 view .LVU152
 655 000c 08BD     		pop	{r3, pc}
 656              	.L44:
 657 000e 00BF     		.align	2
 658              	.L43:
 659 0010 00000000 		.word	lv_button_class
 660              		.cfi_endproc
 661              	.LFE263:
 663              		.section	.text.lv_tabview_set_active,"ax",%progbits
 664              		.align	1
 665              		.global	lv_tabview_set_active
 666              		.syntax unified
 667              		.thumb
 668              		.thumb_func
 670              	lv_tabview_set_active:
ARM GAS  C:\Users\Alex\AppData\Local\Temp\ccBm5uex.s 			page 19


 671              	.LVL87:
 672              	.LFB259:
 107:Lib/lvgl/src/widgets/tabview/lv_tabview.c ****     LV_ASSERT_OBJ(obj, MY_CLASS);
 673              		.loc 1 107 1 is_stmt 1 view -0
 674              		.cfi_startproc
 675              		@ args = 0, pretend = 0, frame = 8
 676              		@ frame_needed = 0, uses_anonymous_args = 0
 107:Lib/lvgl/src/widgets/tabview/lv_tabview.c ****     LV_ASSERT_OBJ(obj, MY_CLASS);
 677              		.loc 1 107 1 is_stmt 0 view .LVU154
 678 0000 2DE9F047 		push	{r4, r5, r6, r7, r8, r9, r10, lr}
 679              	.LCFI8:
 680              		.cfi_def_cfa_offset 32
 681              		.cfi_offset 4, -32
 682              		.cfi_offset 5, -28
 683              		.cfi_offset 6, -24
 684              		.cfi_offset 7, -20
 685              		.cfi_offset 8, -16
 686              		.cfi_offset 9, -12
 687              		.cfi_offset 10, -8
 688              		.cfi_offset 14, -4
 689 0004 82B0     		sub	sp, sp, #8
 690              	.LCFI9:
 691              		.cfi_def_cfa_offset 40
 692 0006 0746     		mov	r7, r0
 693 0008 0D46     		mov	r5, r1
 694 000a 9046     		mov	r8, r2
 108:Lib/lvgl/src/widgets/tabview/lv_tabview.c ****     lv_tabview_t * tabview = (lv_tabview_t *)obj;
 695              		.loc 1 108 5 is_stmt 1 view .LVU155
 108:Lib/lvgl/src/widgets/tabview/lv_tabview.c ****     lv_tabview_t * tabview = (lv_tabview_t *)obj;
 696              		.loc 1 108 5 view .LVU156
 108:Lib/lvgl/src/widgets/tabview/lv_tabview.c ****     lv_tabview_t * tabview = (lv_tabview_t *)obj;
 697              		.loc 1 108 5 view .LVU157
 109:Lib/lvgl/src/widgets/tabview/lv_tabview.c **** 
 698              		.loc 1 109 5 view .LVU158
 699              	.LVL88:
 111:Lib/lvgl/src/widgets/tabview/lv_tabview.c ****     lv_obj_t * tab_bar = lv_tabview_get_tab_bar(obj);
 700              		.loc 1 111 5 view .LVU159
 111:Lib/lvgl/src/widgets/tabview/lv_tabview.c ****     lv_obj_t * tab_bar = lv_tabview_get_tab_bar(obj);
 701              		.loc 1 111 23 is_stmt 0 view .LVU160
 702 000c FFF7FEFF 		bl	lv_tabview_get_content
 703              	.LVL89:
 111:Lib/lvgl/src/widgets/tabview/lv_tabview.c ****     lv_obj_t * tab_bar = lv_tabview_get_tab_bar(obj);
 704              		.loc 1 111 23 view .LVU161
 705 0010 0446     		mov	r4, r0
 706              	.LVL90:
 112:Lib/lvgl/src/widgets/tabview/lv_tabview.c **** 
 707              		.loc 1 112 5 is_stmt 1 view .LVU162
 112:Lib/lvgl/src/widgets/tabview/lv_tabview.c **** 
 708              		.loc 1 112 26 is_stmt 0 view .LVU163
 709 0012 3846     		mov	r0, r7
 710              	.LVL91:
 112:Lib/lvgl/src/widgets/tabview/lv_tabview.c **** 
 711              		.loc 1 112 26 view .LVU164
 712 0014 FFF7FEFF 		bl	lv_tabview_get_tab_bar
 713              	.LVL92:
 714 0018 0646     		mov	r6, r0
 715              	.LVL93:
ARM GAS  C:\Users\Alex\AppData\Local\Temp\ccBm5uex.s 			page 20


 114:Lib/lvgl/src/widgets/tabview/lv_tabview.c ****     if(idx >= tab_cnt) {
 716              		.loc 1 114 5 is_stmt 1 view .LVU165
 114:Lib/lvgl/src/widgets/tabview/lv_tabview.c ****     if(idx >= tab_cnt) {
 717              		.loc 1 114 24 is_stmt 0 view .LVU166
 718 001a 3846     		mov	r0, r7
 719              	.LVL94:
 114:Lib/lvgl/src/widgets/tabview/lv_tabview.c ****     if(idx >= tab_cnt) {
 720              		.loc 1 114 24 view .LVU167
 721 001c FFF7FEFF 		bl	lv_tabview_get_tab_count
 722              	.LVL95:
 115:Lib/lvgl/src/widgets/tabview/lv_tabview.c ****         idx = tab_cnt - 1;
 723              		.loc 1 115 5 is_stmt 1 view .LVU168
 115:Lib/lvgl/src/widgets/tabview/lv_tabview.c ****         idx = tab_cnt - 1;
 724              		.loc 1 115 7 is_stmt 0 view .LVU169
 725 0020 A842     		cmp	r0, r5
 726 0022 00D8     		bhi	.L46
 116:Lib/lvgl/src/widgets/tabview/lv_tabview.c ****     }
 727              		.loc 1 116 9 is_stmt 1 view .LVU170
 116:Lib/lvgl/src/widgets/tabview/lv_tabview.c ****     }
 728              		.loc 1 116 13 is_stmt 0 view .LVU171
 729 0024 451E     		subs	r5, r0, #1
 730              	.LVL96:
 731              	.L46:
 120:Lib/lvgl/src/widgets/tabview/lv_tabview.c **** 
 732              		.loc 1 120 5 is_stmt 1 view .LVU172
 733 0026 3846     		mov	r0, r7
 734              	.LVL97:
 120:Lib/lvgl/src/widgets/tabview/lv_tabview.c **** 
 735              		.loc 1 120 5 is_stmt 0 view .LVU173
 736 0028 FFF7FEFF 		bl	lv_obj_update_layout
 737              	.LVL98:
 122:Lib/lvgl/src/widgets/tabview/lv_tabview.c **** 
 738              		.loc 1 122 5 is_stmt 1 view .LVU174
 122:Lib/lvgl/src/widgets/tabview/lv_tabview.c **** 
 739              		.loc 1 122 7 is_stmt 0 view .LVU175
 740 002c 002C     		cmp	r4, #0
 741 002e 53D0     		beq	.L45
 124:Lib/lvgl/src/widgets/tabview/lv_tabview.c ****         int32_t gap = lv_obj_get_style_pad_column(cont, LV_PART_MAIN);
 742              		.loc 1 124 5 is_stmt 1 view .LVU176
 124:Lib/lvgl/src/widgets/tabview/lv_tabview.c ****         int32_t gap = lv_obj_get_style_pad_column(cont, LV_PART_MAIN);
 743              		.loc 1 124 16 is_stmt 0 view .LVU177
 744 0030 97F83030 		ldrb	r3, [r7, #48]	@ zero_extendqisi2
 124:Lib/lvgl/src/widgets/tabview/lv_tabview.c ****         int32_t gap = lv_obj_get_style_pad_column(cont, LV_PART_MAIN);
 745              		.loc 1 124 7 view .LVU178
 746 0034 13F00C0F 		tst	r3, #12
 747 0038 25D0     		beq	.L48
 748              	.LBB32:
 125:Lib/lvgl/src/widgets/tabview/lv_tabview.c ****         int32_t w = lv_obj_get_content_width(cont);
 749              		.loc 1 125 9 is_stmt 1 view .LVU179
 750              	.LVL99:
 751              	.LBB33:
 752              	.LBI33:
 753              		.file 2 "Lib/lvgl/src/widgets/tabview/../../../src/core/lv_obj_style_gen.h"
   1:Lib/lvgl/src/widgets/tabview/../../../src/core/lv_obj_style_gen.h **** 
   2:Lib/lvgl/src/widgets/tabview/../../../src/core/lv_obj_style_gen.h **** /*
   3:Lib/lvgl/src/widgets/tabview/../../../src/core/lv_obj_style_gen.h ****  **********************************************************************
   4:Lib/lvgl/src/widgets/tabview/../../../src/core/lv_obj_style_gen.h ****  *                            DO NOT EDIT
ARM GAS  C:\Users\Alex\AppData\Local\Temp\ccBm5uex.s 			page 21


   5:Lib/lvgl/src/widgets/tabview/../../../src/core/lv_obj_style_gen.h ****  * This file is automatically generated by "style_api_gen.py"
   6:Lib/lvgl/src/widgets/tabview/../../../src/core/lv_obj_style_gen.h ****  **********************************************************************
   7:Lib/lvgl/src/widgets/tabview/../../../src/core/lv_obj_style_gen.h ****  */
   8:Lib/lvgl/src/widgets/tabview/../../../src/core/lv_obj_style_gen.h **** 
   9:Lib/lvgl/src/widgets/tabview/../../../src/core/lv_obj_style_gen.h **** #ifndef LV_OBJ_STYLE_GEN_H
  10:Lib/lvgl/src/widgets/tabview/../../../src/core/lv_obj_style_gen.h **** #define LV_OBJ_STYLE_GEN_H
  11:Lib/lvgl/src/widgets/tabview/../../../src/core/lv_obj_style_gen.h **** 
  12:Lib/lvgl/src/widgets/tabview/../../../src/core/lv_obj_style_gen.h **** #include "../misc/lv_area.h"
  13:Lib/lvgl/src/widgets/tabview/../../../src/core/lv_obj_style_gen.h **** #include "../misc/lv_style.h"
  14:Lib/lvgl/src/widgets/tabview/../../../src/core/lv_obj_style_gen.h **** #include "../core/lv_obj_style.h"
  15:Lib/lvgl/src/widgets/tabview/../../../src/core/lv_obj_style_gen.h **** 
  16:Lib/lvgl/src/widgets/tabview/../../../src/core/lv_obj_style_gen.h **** static inline int32_t lv_obj_get_style_width(const lv_obj_t * obj, uint32_t part)
  17:Lib/lvgl/src/widgets/tabview/../../../src/core/lv_obj_style_gen.h **** {
  18:Lib/lvgl/src/widgets/tabview/../../../src/core/lv_obj_style_gen.h ****     lv_style_value_t v = lv_obj_get_style_prop(obj, part, LV_STYLE_WIDTH);
  19:Lib/lvgl/src/widgets/tabview/../../../src/core/lv_obj_style_gen.h ****     return (int32_t)v.num;
  20:Lib/lvgl/src/widgets/tabview/../../../src/core/lv_obj_style_gen.h **** }
  21:Lib/lvgl/src/widgets/tabview/../../../src/core/lv_obj_style_gen.h **** 
  22:Lib/lvgl/src/widgets/tabview/../../../src/core/lv_obj_style_gen.h **** static inline int32_t lv_obj_get_style_min_width(const lv_obj_t * obj, uint32_t part)
  23:Lib/lvgl/src/widgets/tabview/../../../src/core/lv_obj_style_gen.h **** {
  24:Lib/lvgl/src/widgets/tabview/../../../src/core/lv_obj_style_gen.h ****     lv_style_value_t v = lv_obj_get_style_prop(obj, part, LV_STYLE_MIN_WIDTH);
  25:Lib/lvgl/src/widgets/tabview/../../../src/core/lv_obj_style_gen.h ****     return (int32_t)v.num;
  26:Lib/lvgl/src/widgets/tabview/../../../src/core/lv_obj_style_gen.h **** }
  27:Lib/lvgl/src/widgets/tabview/../../../src/core/lv_obj_style_gen.h **** 
  28:Lib/lvgl/src/widgets/tabview/../../../src/core/lv_obj_style_gen.h **** static inline int32_t lv_obj_get_style_max_width(const lv_obj_t * obj, uint32_t part)
  29:Lib/lvgl/src/widgets/tabview/../../../src/core/lv_obj_style_gen.h **** {
  30:Lib/lvgl/src/widgets/tabview/../../../src/core/lv_obj_style_gen.h ****     lv_style_value_t v = lv_obj_get_style_prop(obj, part, LV_STYLE_MAX_WIDTH);
  31:Lib/lvgl/src/widgets/tabview/../../../src/core/lv_obj_style_gen.h ****     return (int32_t)v.num;
  32:Lib/lvgl/src/widgets/tabview/../../../src/core/lv_obj_style_gen.h **** }
  33:Lib/lvgl/src/widgets/tabview/../../../src/core/lv_obj_style_gen.h **** 
  34:Lib/lvgl/src/widgets/tabview/../../../src/core/lv_obj_style_gen.h **** static inline int32_t lv_obj_get_style_height(const lv_obj_t * obj, uint32_t part)
  35:Lib/lvgl/src/widgets/tabview/../../../src/core/lv_obj_style_gen.h **** {
  36:Lib/lvgl/src/widgets/tabview/../../../src/core/lv_obj_style_gen.h ****     lv_style_value_t v = lv_obj_get_style_prop(obj, part, LV_STYLE_HEIGHT);
  37:Lib/lvgl/src/widgets/tabview/../../../src/core/lv_obj_style_gen.h ****     return (int32_t)v.num;
  38:Lib/lvgl/src/widgets/tabview/../../../src/core/lv_obj_style_gen.h **** }
  39:Lib/lvgl/src/widgets/tabview/../../../src/core/lv_obj_style_gen.h **** 
  40:Lib/lvgl/src/widgets/tabview/../../../src/core/lv_obj_style_gen.h **** static inline int32_t lv_obj_get_style_min_height(const lv_obj_t * obj, uint32_t part)
  41:Lib/lvgl/src/widgets/tabview/../../../src/core/lv_obj_style_gen.h **** {
  42:Lib/lvgl/src/widgets/tabview/../../../src/core/lv_obj_style_gen.h ****     lv_style_value_t v = lv_obj_get_style_prop(obj, part, LV_STYLE_MIN_HEIGHT);
  43:Lib/lvgl/src/widgets/tabview/../../../src/core/lv_obj_style_gen.h ****     return (int32_t)v.num;
  44:Lib/lvgl/src/widgets/tabview/../../../src/core/lv_obj_style_gen.h **** }
  45:Lib/lvgl/src/widgets/tabview/../../../src/core/lv_obj_style_gen.h **** 
  46:Lib/lvgl/src/widgets/tabview/../../../src/core/lv_obj_style_gen.h **** static inline int32_t lv_obj_get_style_max_height(const lv_obj_t * obj, uint32_t part)
  47:Lib/lvgl/src/widgets/tabview/../../../src/core/lv_obj_style_gen.h **** {
  48:Lib/lvgl/src/widgets/tabview/../../../src/core/lv_obj_style_gen.h ****     lv_style_value_t v = lv_obj_get_style_prop(obj, part, LV_STYLE_MAX_HEIGHT);
  49:Lib/lvgl/src/widgets/tabview/../../../src/core/lv_obj_style_gen.h ****     return (int32_t)v.num;
  50:Lib/lvgl/src/widgets/tabview/../../../src/core/lv_obj_style_gen.h **** }
  51:Lib/lvgl/src/widgets/tabview/../../../src/core/lv_obj_style_gen.h **** 
  52:Lib/lvgl/src/widgets/tabview/../../../src/core/lv_obj_style_gen.h **** static inline int32_t lv_obj_get_style_length(const lv_obj_t * obj, uint32_t part)
  53:Lib/lvgl/src/widgets/tabview/../../../src/core/lv_obj_style_gen.h **** {
  54:Lib/lvgl/src/widgets/tabview/../../../src/core/lv_obj_style_gen.h ****     lv_style_value_t v = lv_obj_get_style_prop(obj, part, LV_STYLE_LENGTH);
  55:Lib/lvgl/src/widgets/tabview/../../../src/core/lv_obj_style_gen.h ****     return (int32_t)v.num;
  56:Lib/lvgl/src/widgets/tabview/../../../src/core/lv_obj_style_gen.h **** }
  57:Lib/lvgl/src/widgets/tabview/../../../src/core/lv_obj_style_gen.h **** 
  58:Lib/lvgl/src/widgets/tabview/../../../src/core/lv_obj_style_gen.h **** static inline int32_t lv_obj_get_style_x(const lv_obj_t * obj, uint32_t part)
  59:Lib/lvgl/src/widgets/tabview/../../../src/core/lv_obj_style_gen.h **** {
  60:Lib/lvgl/src/widgets/tabview/../../../src/core/lv_obj_style_gen.h ****     lv_style_value_t v = lv_obj_get_style_prop(obj, part, LV_STYLE_X);
  61:Lib/lvgl/src/widgets/tabview/../../../src/core/lv_obj_style_gen.h ****     return (int32_t)v.num;
ARM GAS  C:\Users\Alex\AppData\Local\Temp\ccBm5uex.s 			page 22


  62:Lib/lvgl/src/widgets/tabview/../../../src/core/lv_obj_style_gen.h **** }
  63:Lib/lvgl/src/widgets/tabview/../../../src/core/lv_obj_style_gen.h **** 
  64:Lib/lvgl/src/widgets/tabview/../../../src/core/lv_obj_style_gen.h **** static inline int32_t lv_obj_get_style_y(const lv_obj_t * obj, uint32_t part)
  65:Lib/lvgl/src/widgets/tabview/../../../src/core/lv_obj_style_gen.h **** {
  66:Lib/lvgl/src/widgets/tabview/../../../src/core/lv_obj_style_gen.h ****     lv_style_value_t v = lv_obj_get_style_prop(obj, part, LV_STYLE_Y);
  67:Lib/lvgl/src/widgets/tabview/../../../src/core/lv_obj_style_gen.h ****     return (int32_t)v.num;
  68:Lib/lvgl/src/widgets/tabview/../../../src/core/lv_obj_style_gen.h **** }
  69:Lib/lvgl/src/widgets/tabview/../../../src/core/lv_obj_style_gen.h **** 
  70:Lib/lvgl/src/widgets/tabview/../../../src/core/lv_obj_style_gen.h **** static inline lv_align_t lv_obj_get_style_align(const lv_obj_t * obj, uint32_t part)
  71:Lib/lvgl/src/widgets/tabview/../../../src/core/lv_obj_style_gen.h **** {
  72:Lib/lvgl/src/widgets/tabview/../../../src/core/lv_obj_style_gen.h ****     lv_style_value_t v = lv_obj_get_style_prop(obj, part, LV_STYLE_ALIGN);
  73:Lib/lvgl/src/widgets/tabview/../../../src/core/lv_obj_style_gen.h ****     return (lv_align_t)v.num;
  74:Lib/lvgl/src/widgets/tabview/../../../src/core/lv_obj_style_gen.h **** }
  75:Lib/lvgl/src/widgets/tabview/../../../src/core/lv_obj_style_gen.h **** 
  76:Lib/lvgl/src/widgets/tabview/../../../src/core/lv_obj_style_gen.h **** static inline int32_t lv_obj_get_style_transform_width(const lv_obj_t * obj, uint32_t part)
  77:Lib/lvgl/src/widgets/tabview/../../../src/core/lv_obj_style_gen.h **** {
  78:Lib/lvgl/src/widgets/tabview/../../../src/core/lv_obj_style_gen.h ****     lv_style_value_t v = lv_obj_get_style_prop(obj, part, LV_STYLE_TRANSFORM_WIDTH);
  79:Lib/lvgl/src/widgets/tabview/../../../src/core/lv_obj_style_gen.h ****     return (int32_t)v.num;
  80:Lib/lvgl/src/widgets/tabview/../../../src/core/lv_obj_style_gen.h **** }
  81:Lib/lvgl/src/widgets/tabview/../../../src/core/lv_obj_style_gen.h **** 
  82:Lib/lvgl/src/widgets/tabview/../../../src/core/lv_obj_style_gen.h **** static inline int32_t lv_obj_get_style_transform_height(const lv_obj_t * obj, uint32_t part)
  83:Lib/lvgl/src/widgets/tabview/../../../src/core/lv_obj_style_gen.h **** {
  84:Lib/lvgl/src/widgets/tabview/../../../src/core/lv_obj_style_gen.h ****     lv_style_value_t v = lv_obj_get_style_prop(obj, part, LV_STYLE_TRANSFORM_HEIGHT);
  85:Lib/lvgl/src/widgets/tabview/../../../src/core/lv_obj_style_gen.h ****     return (int32_t)v.num;
  86:Lib/lvgl/src/widgets/tabview/../../../src/core/lv_obj_style_gen.h **** }
  87:Lib/lvgl/src/widgets/tabview/../../../src/core/lv_obj_style_gen.h **** 
  88:Lib/lvgl/src/widgets/tabview/../../../src/core/lv_obj_style_gen.h **** static inline int32_t lv_obj_get_style_translate_x(const lv_obj_t * obj, uint32_t part)
  89:Lib/lvgl/src/widgets/tabview/../../../src/core/lv_obj_style_gen.h **** {
  90:Lib/lvgl/src/widgets/tabview/../../../src/core/lv_obj_style_gen.h ****     lv_style_value_t v = lv_obj_get_style_prop(obj, part, LV_STYLE_TRANSLATE_X);
  91:Lib/lvgl/src/widgets/tabview/../../../src/core/lv_obj_style_gen.h ****     return (int32_t)v.num;
  92:Lib/lvgl/src/widgets/tabview/../../../src/core/lv_obj_style_gen.h **** }
  93:Lib/lvgl/src/widgets/tabview/../../../src/core/lv_obj_style_gen.h **** 
  94:Lib/lvgl/src/widgets/tabview/../../../src/core/lv_obj_style_gen.h **** static inline int32_t lv_obj_get_style_translate_y(const lv_obj_t * obj, uint32_t part)
  95:Lib/lvgl/src/widgets/tabview/../../../src/core/lv_obj_style_gen.h **** {
  96:Lib/lvgl/src/widgets/tabview/../../../src/core/lv_obj_style_gen.h ****     lv_style_value_t v = lv_obj_get_style_prop(obj, part, LV_STYLE_TRANSLATE_Y);
  97:Lib/lvgl/src/widgets/tabview/../../../src/core/lv_obj_style_gen.h ****     return (int32_t)v.num;
  98:Lib/lvgl/src/widgets/tabview/../../../src/core/lv_obj_style_gen.h **** }
  99:Lib/lvgl/src/widgets/tabview/../../../src/core/lv_obj_style_gen.h **** 
 100:Lib/lvgl/src/widgets/tabview/../../../src/core/lv_obj_style_gen.h **** static inline int32_t lv_obj_get_style_transform_scale_x(const lv_obj_t * obj, uint32_t part)
 101:Lib/lvgl/src/widgets/tabview/../../../src/core/lv_obj_style_gen.h **** {
 102:Lib/lvgl/src/widgets/tabview/../../../src/core/lv_obj_style_gen.h ****     lv_style_value_t v = lv_obj_get_style_prop(obj, part, LV_STYLE_TRANSFORM_SCALE_X);
 103:Lib/lvgl/src/widgets/tabview/../../../src/core/lv_obj_style_gen.h ****     return (int32_t)v.num;
 104:Lib/lvgl/src/widgets/tabview/../../../src/core/lv_obj_style_gen.h **** }
 105:Lib/lvgl/src/widgets/tabview/../../../src/core/lv_obj_style_gen.h **** 
 106:Lib/lvgl/src/widgets/tabview/../../../src/core/lv_obj_style_gen.h **** static inline int32_t lv_obj_get_style_transform_scale_y(const lv_obj_t * obj, uint32_t part)
 107:Lib/lvgl/src/widgets/tabview/../../../src/core/lv_obj_style_gen.h **** {
 108:Lib/lvgl/src/widgets/tabview/../../../src/core/lv_obj_style_gen.h ****     lv_style_value_t v = lv_obj_get_style_prop(obj, part, LV_STYLE_TRANSFORM_SCALE_Y);
 109:Lib/lvgl/src/widgets/tabview/../../../src/core/lv_obj_style_gen.h ****     return (int32_t)v.num;
 110:Lib/lvgl/src/widgets/tabview/../../../src/core/lv_obj_style_gen.h **** }
 111:Lib/lvgl/src/widgets/tabview/../../../src/core/lv_obj_style_gen.h **** 
 112:Lib/lvgl/src/widgets/tabview/../../../src/core/lv_obj_style_gen.h **** static inline int32_t lv_obj_get_style_transform_rotation(const lv_obj_t * obj, uint32_t part)
 113:Lib/lvgl/src/widgets/tabview/../../../src/core/lv_obj_style_gen.h **** {
 114:Lib/lvgl/src/widgets/tabview/../../../src/core/lv_obj_style_gen.h ****     lv_style_value_t v = lv_obj_get_style_prop(obj, part, LV_STYLE_TRANSFORM_ROTATION);
 115:Lib/lvgl/src/widgets/tabview/../../../src/core/lv_obj_style_gen.h ****     return (int32_t)v.num;
 116:Lib/lvgl/src/widgets/tabview/../../../src/core/lv_obj_style_gen.h **** }
 117:Lib/lvgl/src/widgets/tabview/../../../src/core/lv_obj_style_gen.h **** 
 118:Lib/lvgl/src/widgets/tabview/../../../src/core/lv_obj_style_gen.h **** static inline int32_t lv_obj_get_style_transform_pivot_x(const lv_obj_t * obj, uint32_t part)
ARM GAS  C:\Users\Alex\AppData\Local\Temp\ccBm5uex.s 			page 23


 119:Lib/lvgl/src/widgets/tabview/../../../src/core/lv_obj_style_gen.h **** {
 120:Lib/lvgl/src/widgets/tabview/../../../src/core/lv_obj_style_gen.h ****     lv_style_value_t v = lv_obj_get_style_prop(obj, part, LV_STYLE_TRANSFORM_PIVOT_X);
 121:Lib/lvgl/src/widgets/tabview/../../../src/core/lv_obj_style_gen.h ****     return (int32_t)v.num;
 122:Lib/lvgl/src/widgets/tabview/../../../src/core/lv_obj_style_gen.h **** }
 123:Lib/lvgl/src/widgets/tabview/../../../src/core/lv_obj_style_gen.h **** 
 124:Lib/lvgl/src/widgets/tabview/../../../src/core/lv_obj_style_gen.h **** static inline int32_t lv_obj_get_style_transform_pivot_y(const lv_obj_t * obj, uint32_t part)
 125:Lib/lvgl/src/widgets/tabview/../../../src/core/lv_obj_style_gen.h **** {
 126:Lib/lvgl/src/widgets/tabview/../../../src/core/lv_obj_style_gen.h ****     lv_style_value_t v = lv_obj_get_style_prop(obj, part, LV_STYLE_TRANSFORM_PIVOT_Y);
 127:Lib/lvgl/src/widgets/tabview/../../../src/core/lv_obj_style_gen.h ****     return (int32_t)v.num;
 128:Lib/lvgl/src/widgets/tabview/../../../src/core/lv_obj_style_gen.h **** }
 129:Lib/lvgl/src/widgets/tabview/../../../src/core/lv_obj_style_gen.h **** 
 130:Lib/lvgl/src/widgets/tabview/../../../src/core/lv_obj_style_gen.h **** static inline int32_t lv_obj_get_style_transform_skew_x(const lv_obj_t * obj, uint32_t part)
 131:Lib/lvgl/src/widgets/tabview/../../../src/core/lv_obj_style_gen.h **** {
 132:Lib/lvgl/src/widgets/tabview/../../../src/core/lv_obj_style_gen.h ****     lv_style_value_t v = lv_obj_get_style_prop(obj, part, LV_STYLE_TRANSFORM_SKEW_X);
 133:Lib/lvgl/src/widgets/tabview/../../../src/core/lv_obj_style_gen.h ****     return (int32_t)v.num;
 134:Lib/lvgl/src/widgets/tabview/../../../src/core/lv_obj_style_gen.h **** }
 135:Lib/lvgl/src/widgets/tabview/../../../src/core/lv_obj_style_gen.h **** 
 136:Lib/lvgl/src/widgets/tabview/../../../src/core/lv_obj_style_gen.h **** static inline int32_t lv_obj_get_style_transform_skew_y(const lv_obj_t * obj, uint32_t part)
 137:Lib/lvgl/src/widgets/tabview/../../../src/core/lv_obj_style_gen.h **** {
 138:Lib/lvgl/src/widgets/tabview/../../../src/core/lv_obj_style_gen.h ****     lv_style_value_t v = lv_obj_get_style_prop(obj, part, LV_STYLE_TRANSFORM_SKEW_Y);
 139:Lib/lvgl/src/widgets/tabview/../../../src/core/lv_obj_style_gen.h ****     return (int32_t)v.num;
 140:Lib/lvgl/src/widgets/tabview/../../../src/core/lv_obj_style_gen.h **** }
 141:Lib/lvgl/src/widgets/tabview/../../../src/core/lv_obj_style_gen.h **** 
 142:Lib/lvgl/src/widgets/tabview/../../../src/core/lv_obj_style_gen.h **** static inline int32_t lv_obj_get_style_pad_top(const lv_obj_t * obj, uint32_t part)
 143:Lib/lvgl/src/widgets/tabview/../../../src/core/lv_obj_style_gen.h **** {
 144:Lib/lvgl/src/widgets/tabview/../../../src/core/lv_obj_style_gen.h ****     lv_style_value_t v = lv_obj_get_style_prop(obj, part, LV_STYLE_PAD_TOP);
 145:Lib/lvgl/src/widgets/tabview/../../../src/core/lv_obj_style_gen.h ****     return (int32_t)v.num;
 146:Lib/lvgl/src/widgets/tabview/../../../src/core/lv_obj_style_gen.h **** }
 147:Lib/lvgl/src/widgets/tabview/../../../src/core/lv_obj_style_gen.h **** 
 148:Lib/lvgl/src/widgets/tabview/../../../src/core/lv_obj_style_gen.h **** static inline int32_t lv_obj_get_style_pad_bottom(const lv_obj_t * obj, uint32_t part)
 149:Lib/lvgl/src/widgets/tabview/../../../src/core/lv_obj_style_gen.h **** {
 150:Lib/lvgl/src/widgets/tabview/../../../src/core/lv_obj_style_gen.h ****     lv_style_value_t v = lv_obj_get_style_prop(obj, part, LV_STYLE_PAD_BOTTOM);
 151:Lib/lvgl/src/widgets/tabview/../../../src/core/lv_obj_style_gen.h ****     return (int32_t)v.num;
 152:Lib/lvgl/src/widgets/tabview/../../../src/core/lv_obj_style_gen.h **** }
 153:Lib/lvgl/src/widgets/tabview/../../../src/core/lv_obj_style_gen.h **** 
 154:Lib/lvgl/src/widgets/tabview/../../../src/core/lv_obj_style_gen.h **** static inline int32_t lv_obj_get_style_pad_left(const lv_obj_t * obj, uint32_t part)
 155:Lib/lvgl/src/widgets/tabview/../../../src/core/lv_obj_style_gen.h **** {
 156:Lib/lvgl/src/widgets/tabview/../../../src/core/lv_obj_style_gen.h ****     lv_style_value_t v = lv_obj_get_style_prop(obj, part, LV_STYLE_PAD_LEFT);
 157:Lib/lvgl/src/widgets/tabview/../../../src/core/lv_obj_style_gen.h ****     return (int32_t)v.num;
 158:Lib/lvgl/src/widgets/tabview/../../../src/core/lv_obj_style_gen.h **** }
 159:Lib/lvgl/src/widgets/tabview/../../../src/core/lv_obj_style_gen.h **** 
 160:Lib/lvgl/src/widgets/tabview/../../../src/core/lv_obj_style_gen.h **** static inline int32_t lv_obj_get_style_pad_right(const lv_obj_t * obj, uint32_t part)
 161:Lib/lvgl/src/widgets/tabview/../../../src/core/lv_obj_style_gen.h **** {
 162:Lib/lvgl/src/widgets/tabview/../../../src/core/lv_obj_style_gen.h ****     lv_style_value_t v = lv_obj_get_style_prop(obj, part, LV_STYLE_PAD_RIGHT);
 163:Lib/lvgl/src/widgets/tabview/../../../src/core/lv_obj_style_gen.h ****     return (int32_t)v.num;
 164:Lib/lvgl/src/widgets/tabview/../../../src/core/lv_obj_style_gen.h **** }
 165:Lib/lvgl/src/widgets/tabview/../../../src/core/lv_obj_style_gen.h **** 
 166:Lib/lvgl/src/widgets/tabview/../../../src/core/lv_obj_style_gen.h **** static inline int32_t lv_obj_get_style_pad_row(const lv_obj_t * obj, uint32_t part)
 167:Lib/lvgl/src/widgets/tabview/../../../src/core/lv_obj_style_gen.h **** {
 168:Lib/lvgl/src/widgets/tabview/../../../src/core/lv_obj_style_gen.h ****     lv_style_value_t v = lv_obj_get_style_prop(obj, part, LV_STYLE_PAD_ROW);
 169:Lib/lvgl/src/widgets/tabview/../../../src/core/lv_obj_style_gen.h ****     return (int32_t)v.num;
 170:Lib/lvgl/src/widgets/tabview/../../../src/core/lv_obj_style_gen.h **** }
 171:Lib/lvgl/src/widgets/tabview/../../../src/core/lv_obj_style_gen.h **** 
 172:Lib/lvgl/src/widgets/tabview/../../../src/core/lv_obj_style_gen.h **** static inline int32_t lv_obj_get_style_pad_column(const lv_obj_t * obj, uint32_t part)
 754              		.loc 2 172 23 view .LVU180
 755              	.LBB34:
 173:Lib/lvgl/src/widgets/tabview/../../../src/core/lv_obj_style_gen.h **** {
ARM GAS  C:\Users\Alex\AppData\Local\Temp\ccBm5uex.s 			page 24


 174:Lib/lvgl/src/widgets/tabview/../../../src/core/lv_obj_style_gen.h ****     lv_style_value_t v = lv_obj_get_style_prop(obj, part, LV_STYLE_PAD_COLUMN);
 756              		.loc 2 174 5 view .LVU181
 757              		.loc 2 174 26 is_stmt 0 view .LVU182
 758 003a 1522     		movs	r2, #21
 759 003c 0021     		movs	r1, #0
 760 003e 2046     		mov	r0, r4
 761 0040 FFF7FEFF 		bl	lv_obj_get_style_prop
 762              	.LVL100:
 763 0044 8246     		mov	r10, r0
 764 0046 0190     		str	r0, [sp, #4]
 175:Lib/lvgl/src/widgets/tabview/../../../src/core/lv_obj_style_gen.h ****     return (int32_t)v.num;
 765              		.loc 2 175 5 is_stmt 1 view .LVU183
 766              	.LVL101:
 767              		.loc 2 175 5 is_stmt 0 view .LVU184
 768              	.LBE34:
 769              	.LBE33:
 126:Lib/lvgl/src/widgets/tabview/lv_tabview.c ****         if(lv_obj_get_style_base_dir(obj, LV_PART_MAIN) != LV_BASE_DIR_RTL) {
 770              		.loc 1 126 9 is_stmt 1 view .LVU185
 126:Lib/lvgl/src/widgets/tabview/lv_tabview.c ****         if(lv_obj_get_style_base_dir(obj, LV_PART_MAIN) != LV_BASE_DIR_RTL) {
 771              		.loc 1 126 21 is_stmt 0 view .LVU186
 772 0048 2046     		mov	r0, r4
 773              	.LVL102:
 126:Lib/lvgl/src/widgets/tabview/lv_tabview.c ****         if(lv_obj_get_style_base_dir(obj, LV_PART_MAIN) != LV_BASE_DIR_RTL) {
 774              		.loc 1 126 21 view .LVU187
 775 004a FFF7FEFF 		bl	lv_obj_get_content_width
 776              	.LVL103:
 777 004e 8146     		mov	r9, r0
 778              	.LVL104:
 127:Lib/lvgl/src/widgets/tabview/lv_tabview.c ****             lv_obj_scroll_to_x(cont, idx * (gap + w), anim_en);
 779              		.loc 1 127 9 is_stmt 1 view .LVU188
 780              	.LBB35:
 781              	.LBI35:
 176:Lib/lvgl/src/widgets/tabview/../../../src/core/lv_obj_style_gen.h **** }
 177:Lib/lvgl/src/widgets/tabview/../../../src/core/lv_obj_style_gen.h **** 
 178:Lib/lvgl/src/widgets/tabview/../../../src/core/lv_obj_style_gen.h **** static inline int32_t lv_obj_get_style_margin_top(const lv_obj_t * obj, uint32_t part)
 179:Lib/lvgl/src/widgets/tabview/../../../src/core/lv_obj_style_gen.h **** {
 180:Lib/lvgl/src/widgets/tabview/../../../src/core/lv_obj_style_gen.h ****     lv_style_value_t v = lv_obj_get_style_prop(obj, part, LV_STYLE_MARGIN_TOP);
 181:Lib/lvgl/src/widgets/tabview/../../../src/core/lv_obj_style_gen.h ****     return (int32_t)v.num;
 182:Lib/lvgl/src/widgets/tabview/../../../src/core/lv_obj_style_gen.h **** }
 183:Lib/lvgl/src/widgets/tabview/../../../src/core/lv_obj_style_gen.h **** 
 184:Lib/lvgl/src/widgets/tabview/../../../src/core/lv_obj_style_gen.h **** static inline int32_t lv_obj_get_style_margin_bottom(const lv_obj_t * obj, uint32_t part)
 185:Lib/lvgl/src/widgets/tabview/../../../src/core/lv_obj_style_gen.h **** {
 186:Lib/lvgl/src/widgets/tabview/../../../src/core/lv_obj_style_gen.h ****     lv_style_value_t v = lv_obj_get_style_prop(obj, part, LV_STYLE_MARGIN_BOTTOM);
 187:Lib/lvgl/src/widgets/tabview/../../../src/core/lv_obj_style_gen.h ****     return (int32_t)v.num;
 188:Lib/lvgl/src/widgets/tabview/../../../src/core/lv_obj_style_gen.h **** }
 189:Lib/lvgl/src/widgets/tabview/../../../src/core/lv_obj_style_gen.h **** 
 190:Lib/lvgl/src/widgets/tabview/../../../src/core/lv_obj_style_gen.h **** static inline int32_t lv_obj_get_style_margin_left(const lv_obj_t * obj, uint32_t part)
 191:Lib/lvgl/src/widgets/tabview/../../../src/core/lv_obj_style_gen.h **** {
 192:Lib/lvgl/src/widgets/tabview/../../../src/core/lv_obj_style_gen.h ****     lv_style_value_t v = lv_obj_get_style_prop(obj, part, LV_STYLE_MARGIN_LEFT);
 193:Lib/lvgl/src/widgets/tabview/../../../src/core/lv_obj_style_gen.h ****     return (int32_t)v.num;
 194:Lib/lvgl/src/widgets/tabview/../../../src/core/lv_obj_style_gen.h **** }
 195:Lib/lvgl/src/widgets/tabview/../../../src/core/lv_obj_style_gen.h **** 
 196:Lib/lvgl/src/widgets/tabview/../../../src/core/lv_obj_style_gen.h **** static inline int32_t lv_obj_get_style_margin_right(const lv_obj_t * obj, uint32_t part)
 197:Lib/lvgl/src/widgets/tabview/../../../src/core/lv_obj_style_gen.h **** {
 198:Lib/lvgl/src/widgets/tabview/../../../src/core/lv_obj_style_gen.h ****     lv_style_value_t v = lv_obj_get_style_prop(obj, part, LV_STYLE_MARGIN_RIGHT);
 199:Lib/lvgl/src/widgets/tabview/../../../src/core/lv_obj_style_gen.h ****     return (int32_t)v.num;
 200:Lib/lvgl/src/widgets/tabview/../../../src/core/lv_obj_style_gen.h **** }
ARM GAS  C:\Users\Alex\AppData\Local\Temp\ccBm5uex.s 			page 25


 201:Lib/lvgl/src/widgets/tabview/../../../src/core/lv_obj_style_gen.h **** 
 202:Lib/lvgl/src/widgets/tabview/../../../src/core/lv_obj_style_gen.h **** static inline lv_color_t lv_obj_get_style_bg_color(const lv_obj_t * obj, uint32_t part)
 203:Lib/lvgl/src/widgets/tabview/../../../src/core/lv_obj_style_gen.h **** {
 204:Lib/lvgl/src/widgets/tabview/../../../src/core/lv_obj_style_gen.h ****     lv_style_value_t v = lv_obj_get_style_prop(obj, part, LV_STYLE_BG_COLOR);
 205:Lib/lvgl/src/widgets/tabview/../../../src/core/lv_obj_style_gen.h ****     return v.color;
 206:Lib/lvgl/src/widgets/tabview/../../../src/core/lv_obj_style_gen.h **** }
 207:Lib/lvgl/src/widgets/tabview/../../../src/core/lv_obj_style_gen.h **** 
 208:Lib/lvgl/src/widgets/tabview/../../../src/core/lv_obj_style_gen.h **** static inline lv_color_t lv_obj_get_style_bg_color_filtered(const lv_obj_t * obj, uint32_t part)
 209:Lib/lvgl/src/widgets/tabview/../../../src/core/lv_obj_style_gen.h **** {
 210:Lib/lvgl/src/widgets/tabview/../../../src/core/lv_obj_style_gen.h ****     lv_style_value_t v = _lv_obj_style_apply_color_filter(obj, part, lv_obj_get_style_prop(obj, par
 211:Lib/lvgl/src/widgets/tabview/../../../src/core/lv_obj_style_gen.h ****     return v.color;
 212:Lib/lvgl/src/widgets/tabview/../../../src/core/lv_obj_style_gen.h **** }
 213:Lib/lvgl/src/widgets/tabview/../../../src/core/lv_obj_style_gen.h **** 
 214:Lib/lvgl/src/widgets/tabview/../../../src/core/lv_obj_style_gen.h **** static inline lv_opa_t lv_obj_get_style_bg_opa(const lv_obj_t * obj, uint32_t part)
 215:Lib/lvgl/src/widgets/tabview/../../../src/core/lv_obj_style_gen.h **** {
 216:Lib/lvgl/src/widgets/tabview/../../../src/core/lv_obj_style_gen.h ****     lv_style_value_t v = lv_obj_get_style_prop(obj, part, LV_STYLE_BG_OPA);
 217:Lib/lvgl/src/widgets/tabview/../../../src/core/lv_obj_style_gen.h ****     return (lv_opa_t)v.num;
 218:Lib/lvgl/src/widgets/tabview/../../../src/core/lv_obj_style_gen.h **** }
 219:Lib/lvgl/src/widgets/tabview/../../../src/core/lv_obj_style_gen.h **** 
 220:Lib/lvgl/src/widgets/tabview/../../../src/core/lv_obj_style_gen.h **** static inline lv_color_t lv_obj_get_style_bg_grad_color(const lv_obj_t * obj, uint32_t part)
 221:Lib/lvgl/src/widgets/tabview/../../../src/core/lv_obj_style_gen.h **** {
 222:Lib/lvgl/src/widgets/tabview/../../../src/core/lv_obj_style_gen.h ****     lv_style_value_t v = lv_obj_get_style_prop(obj, part, LV_STYLE_BG_GRAD_COLOR);
 223:Lib/lvgl/src/widgets/tabview/../../../src/core/lv_obj_style_gen.h ****     return v.color;
 224:Lib/lvgl/src/widgets/tabview/../../../src/core/lv_obj_style_gen.h **** }
 225:Lib/lvgl/src/widgets/tabview/../../../src/core/lv_obj_style_gen.h **** 
 226:Lib/lvgl/src/widgets/tabview/../../../src/core/lv_obj_style_gen.h **** static inline lv_color_t lv_obj_get_style_bg_grad_color_filtered(const lv_obj_t * obj, uint32_t par
 227:Lib/lvgl/src/widgets/tabview/../../../src/core/lv_obj_style_gen.h **** {
 228:Lib/lvgl/src/widgets/tabview/../../../src/core/lv_obj_style_gen.h ****     lv_style_value_t v = _lv_obj_style_apply_color_filter(obj, part, lv_obj_get_style_prop(obj, par
 229:Lib/lvgl/src/widgets/tabview/../../../src/core/lv_obj_style_gen.h ****                                                                                            LV_STYLE
 230:Lib/lvgl/src/widgets/tabview/../../../src/core/lv_obj_style_gen.h ****     return v.color;
 231:Lib/lvgl/src/widgets/tabview/../../../src/core/lv_obj_style_gen.h **** }
 232:Lib/lvgl/src/widgets/tabview/../../../src/core/lv_obj_style_gen.h **** 
 233:Lib/lvgl/src/widgets/tabview/../../../src/core/lv_obj_style_gen.h **** static inline lv_grad_dir_t lv_obj_get_style_bg_grad_dir(const lv_obj_t * obj, uint32_t part)
 234:Lib/lvgl/src/widgets/tabview/../../../src/core/lv_obj_style_gen.h **** {
 235:Lib/lvgl/src/widgets/tabview/../../../src/core/lv_obj_style_gen.h ****     lv_style_value_t v = lv_obj_get_style_prop(obj, part, LV_STYLE_BG_GRAD_DIR);
 236:Lib/lvgl/src/widgets/tabview/../../../src/core/lv_obj_style_gen.h ****     return (lv_grad_dir_t)v.num;
 237:Lib/lvgl/src/widgets/tabview/../../../src/core/lv_obj_style_gen.h **** }
 238:Lib/lvgl/src/widgets/tabview/../../../src/core/lv_obj_style_gen.h **** 
 239:Lib/lvgl/src/widgets/tabview/../../../src/core/lv_obj_style_gen.h **** static inline int32_t lv_obj_get_style_bg_main_stop(const lv_obj_t * obj, uint32_t part)
 240:Lib/lvgl/src/widgets/tabview/../../../src/core/lv_obj_style_gen.h **** {
 241:Lib/lvgl/src/widgets/tabview/../../../src/core/lv_obj_style_gen.h ****     lv_style_value_t v = lv_obj_get_style_prop(obj, part, LV_STYLE_BG_MAIN_STOP);
 242:Lib/lvgl/src/widgets/tabview/../../../src/core/lv_obj_style_gen.h ****     return (int32_t)v.num;
 243:Lib/lvgl/src/widgets/tabview/../../../src/core/lv_obj_style_gen.h **** }
 244:Lib/lvgl/src/widgets/tabview/../../../src/core/lv_obj_style_gen.h **** 
 245:Lib/lvgl/src/widgets/tabview/../../../src/core/lv_obj_style_gen.h **** static inline int32_t lv_obj_get_style_bg_grad_stop(const lv_obj_t * obj, uint32_t part)
 246:Lib/lvgl/src/widgets/tabview/../../../src/core/lv_obj_style_gen.h **** {
 247:Lib/lvgl/src/widgets/tabview/../../../src/core/lv_obj_style_gen.h ****     lv_style_value_t v = lv_obj_get_style_prop(obj, part, LV_STYLE_BG_GRAD_STOP);
 248:Lib/lvgl/src/widgets/tabview/../../../src/core/lv_obj_style_gen.h ****     return (int32_t)v.num;
 249:Lib/lvgl/src/widgets/tabview/../../../src/core/lv_obj_style_gen.h **** }
 250:Lib/lvgl/src/widgets/tabview/../../../src/core/lv_obj_style_gen.h **** 
 251:Lib/lvgl/src/widgets/tabview/../../../src/core/lv_obj_style_gen.h **** static inline lv_opa_t lv_obj_get_style_bg_main_opa(const lv_obj_t * obj, uint32_t part)
 252:Lib/lvgl/src/widgets/tabview/../../../src/core/lv_obj_style_gen.h **** {
 253:Lib/lvgl/src/widgets/tabview/../../../src/core/lv_obj_style_gen.h ****     lv_style_value_t v = lv_obj_get_style_prop(obj, part, LV_STYLE_BG_MAIN_OPA);
 254:Lib/lvgl/src/widgets/tabview/../../../src/core/lv_obj_style_gen.h ****     return (lv_opa_t)v.num;
 255:Lib/lvgl/src/widgets/tabview/../../../src/core/lv_obj_style_gen.h **** }
 256:Lib/lvgl/src/widgets/tabview/../../../src/core/lv_obj_style_gen.h **** 
 257:Lib/lvgl/src/widgets/tabview/../../../src/core/lv_obj_style_gen.h **** static inline lv_opa_t lv_obj_get_style_bg_grad_opa(const lv_obj_t * obj, uint32_t part)
ARM GAS  C:\Users\Alex\AppData\Local\Temp\ccBm5uex.s 			page 26


 258:Lib/lvgl/src/widgets/tabview/../../../src/core/lv_obj_style_gen.h **** {
 259:Lib/lvgl/src/widgets/tabview/../../../src/core/lv_obj_style_gen.h ****     lv_style_value_t v = lv_obj_get_style_prop(obj, part, LV_STYLE_BG_GRAD_OPA);
 260:Lib/lvgl/src/widgets/tabview/../../../src/core/lv_obj_style_gen.h ****     return (lv_opa_t)v.num;
 261:Lib/lvgl/src/widgets/tabview/../../../src/core/lv_obj_style_gen.h **** }
 262:Lib/lvgl/src/widgets/tabview/../../../src/core/lv_obj_style_gen.h **** 
 263:Lib/lvgl/src/widgets/tabview/../../../src/core/lv_obj_style_gen.h **** static inline const lv_grad_dsc_t * lv_obj_get_style_bg_grad(const lv_obj_t * obj, uint32_t part)
 264:Lib/lvgl/src/widgets/tabview/../../../src/core/lv_obj_style_gen.h **** {
 265:Lib/lvgl/src/widgets/tabview/../../../src/core/lv_obj_style_gen.h ****     lv_style_value_t v = lv_obj_get_style_prop(obj, part, LV_STYLE_BG_GRAD);
 266:Lib/lvgl/src/widgets/tabview/../../../src/core/lv_obj_style_gen.h ****     return (const lv_grad_dsc_t *)v.ptr;
 267:Lib/lvgl/src/widgets/tabview/../../../src/core/lv_obj_style_gen.h **** }
 268:Lib/lvgl/src/widgets/tabview/../../../src/core/lv_obj_style_gen.h **** 
 269:Lib/lvgl/src/widgets/tabview/../../../src/core/lv_obj_style_gen.h **** static inline const void * lv_obj_get_style_bg_image_src(const lv_obj_t * obj, uint32_t part)
 270:Lib/lvgl/src/widgets/tabview/../../../src/core/lv_obj_style_gen.h **** {
 271:Lib/lvgl/src/widgets/tabview/../../../src/core/lv_obj_style_gen.h ****     lv_style_value_t v = lv_obj_get_style_prop(obj, part, LV_STYLE_BG_IMAGE_SRC);
 272:Lib/lvgl/src/widgets/tabview/../../../src/core/lv_obj_style_gen.h ****     return (const void *)v.ptr;
 273:Lib/lvgl/src/widgets/tabview/../../../src/core/lv_obj_style_gen.h **** }
 274:Lib/lvgl/src/widgets/tabview/../../../src/core/lv_obj_style_gen.h **** 
 275:Lib/lvgl/src/widgets/tabview/../../../src/core/lv_obj_style_gen.h **** static inline lv_opa_t lv_obj_get_style_bg_image_opa(const lv_obj_t * obj, uint32_t part)
 276:Lib/lvgl/src/widgets/tabview/../../../src/core/lv_obj_style_gen.h **** {
 277:Lib/lvgl/src/widgets/tabview/../../../src/core/lv_obj_style_gen.h ****     lv_style_value_t v = lv_obj_get_style_prop(obj, part, LV_STYLE_BG_IMAGE_OPA);
 278:Lib/lvgl/src/widgets/tabview/../../../src/core/lv_obj_style_gen.h ****     return (lv_opa_t)v.num;
 279:Lib/lvgl/src/widgets/tabview/../../../src/core/lv_obj_style_gen.h **** }
 280:Lib/lvgl/src/widgets/tabview/../../../src/core/lv_obj_style_gen.h **** 
 281:Lib/lvgl/src/widgets/tabview/../../../src/core/lv_obj_style_gen.h **** static inline lv_color_t lv_obj_get_style_bg_image_recolor(const lv_obj_t * obj, uint32_t part)
 282:Lib/lvgl/src/widgets/tabview/../../../src/core/lv_obj_style_gen.h **** {
 283:Lib/lvgl/src/widgets/tabview/../../../src/core/lv_obj_style_gen.h ****     lv_style_value_t v = lv_obj_get_style_prop(obj, part, LV_STYLE_BG_IMAGE_RECOLOR);
 284:Lib/lvgl/src/widgets/tabview/../../../src/core/lv_obj_style_gen.h ****     return v.color;
 285:Lib/lvgl/src/widgets/tabview/../../../src/core/lv_obj_style_gen.h **** }
 286:Lib/lvgl/src/widgets/tabview/../../../src/core/lv_obj_style_gen.h **** 
 287:Lib/lvgl/src/widgets/tabview/../../../src/core/lv_obj_style_gen.h **** static inline lv_color_t lv_obj_get_style_bg_image_recolor_filtered(const lv_obj_t * obj, uint32_t 
 288:Lib/lvgl/src/widgets/tabview/../../../src/core/lv_obj_style_gen.h **** {
 289:Lib/lvgl/src/widgets/tabview/../../../src/core/lv_obj_style_gen.h ****     lv_style_value_t v = _lv_obj_style_apply_color_filter(obj, part, lv_obj_get_style_prop(obj, par
 290:Lib/lvgl/src/widgets/tabview/../../../src/core/lv_obj_style_gen.h ****                                                                                            LV_STYLE
 291:Lib/lvgl/src/widgets/tabview/../../../src/core/lv_obj_style_gen.h ****     return v.color;
 292:Lib/lvgl/src/widgets/tabview/../../../src/core/lv_obj_style_gen.h **** }
 293:Lib/lvgl/src/widgets/tabview/../../../src/core/lv_obj_style_gen.h **** 
 294:Lib/lvgl/src/widgets/tabview/../../../src/core/lv_obj_style_gen.h **** static inline lv_opa_t lv_obj_get_style_bg_image_recolor_opa(const lv_obj_t * obj, uint32_t part)
 295:Lib/lvgl/src/widgets/tabview/../../../src/core/lv_obj_style_gen.h **** {
 296:Lib/lvgl/src/widgets/tabview/../../../src/core/lv_obj_style_gen.h ****     lv_style_value_t v = lv_obj_get_style_prop(obj, part, LV_STYLE_BG_IMAGE_RECOLOR_OPA);
 297:Lib/lvgl/src/widgets/tabview/../../../src/core/lv_obj_style_gen.h ****     return (lv_opa_t)v.num;
 298:Lib/lvgl/src/widgets/tabview/../../../src/core/lv_obj_style_gen.h **** }
 299:Lib/lvgl/src/widgets/tabview/../../../src/core/lv_obj_style_gen.h **** 
 300:Lib/lvgl/src/widgets/tabview/../../../src/core/lv_obj_style_gen.h **** static inline bool lv_obj_get_style_bg_image_tiled(const lv_obj_t * obj, uint32_t part)
 301:Lib/lvgl/src/widgets/tabview/../../../src/core/lv_obj_style_gen.h **** {
 302:Lib/lvgl/src/widgets/tabview/../../../src/core/lv_obj_style_gen.h ****     lv_style_value_t v = lv_obj_get_style_prop(obj, part, LV_STYLE_BG_IMAGE_TILED);
 303:Lib/lvgl/src/widgets/tabview/../../../src/core/lv_obj_style_gen.h ****     return (bool)v.num;
 304:Lib/lvgl/src/widgets/tabview/../../../src/core/lv_obj_style_gen.h **** }
 305:Lib/lvgl/src/widgets/tabview/../../../src/core/lv_obj_style_gen.h **** 
 306:Lib/lvgl/src/widgets/tabview/../../../src/core/lv_obj_style_gen.h **** static inline lv_color_t lv_obj_get_style_border_color(const lv_obj_t * obj, uint32_t part)
 307:Lib/lvgl/src/widgets/tabview/../../../src/core/lv_obj_style_gen.h **** {
 308:Lib/lvgl/src/widgets/tabview/../../../src/core/lv_obj_style_gen.h ****     lv_style_value_t v = lv_obj_get_style_prop(obj, part, LV_STYLE_BORDER_COLOR);
 309:Lib/lvgl/src/widgets/tabview/../../../src/core/lv_obj_style_gen.h ****     return v.color;
 310:Lib/lvgl/src/widgets/tabview/../../../src/core/lv_obj_style_gen.h **** }
 311:Lib/lvgl/src/widgets/tabview/../../../src/core/lv_obj_style_gen.h **** 
 312:Lib/lvgl/src/widgets/tabview/../../../src/core/lv_obj_style_gen.h **** static inline lv_color_t lv_obj_get_style_border_color_filtered(const lv_obj_t * obj, uint32_t part
 313:Lib/lvgl/src/widgets/tabview/../../../src/core/lv_obj_style_gen.h **** {
 314:Lib/lvgl/src/widgets/tabview/../../../src/core/lv_obj_style_gen.h ****     lv_style_value_t v = _lv_obj_style_apply_color_filter(obj, part, lv_obj_get_style_prop(obj, par
ARM GAS  C:\Users\Alex\AppData\Local\Temp\ccBm5uex.s 			page 27


 315:Lib/lvgl/src/widgets/tabview/../../../src/core/lv_obj_style_gen.h ****                                                                                            LV_STYLE
 316:Lib/lvgl/src/widgets/tabview/../../../src/core/lv_obj_style_gen.h ****     return v.color;
 317:Lib/lvgl/src/widgets/tabview/../../../src/core/lv_obj_style_gen.h **** }
 318:Lib/lvgl/src/widgets/tabview/../../../src/core/lv_obj_style_gen.h **** 
 319:Lib/lvgl/src/widgets/tabview/../../../src/core/lv_obj_style_gen.h **** static inline lv_opa_t lv_obj_get_style_border_opa(const lv_obj_t * obj, uint32_t part)
 320:Lib/lvgl/src/widgets/tabview/../../../src/core/lv_obj_style_gen.h **** {
 321:Lib/lvgl/src/widgets/tabview/../../../src/core/lv_obj_style_gen.h ****     lv_style_value_t v = lv_obj_get_style_prop(obj, part, LV_STYLE_BORDER_OPA);
 322:Lib/lvgl/src/widgets/tabview/../../../src/core/lv_obj_style_gen.h ****     return (lv_opa_t)v.num;
 323:Lib/lvgl/src/widgets/tabview/../../../src/core/lv_obj_style_gen.h **** }
 324:Lib/lvgl/src/widgets/tabview/../../../src/core/lv_obj_style_gen.h **** 
 325:Lib/lvgl/src/widgets/tabview/../../../src/core/lv_obj_style_gen.h **** static inline int32_t lv_obj_get_style_border_width(const lv_obj_t * obj, uint32_t part)
 326:Lib/lvgl/src/widgets/tabview/../../../src/core/lv_obj_style_gen.h **** {
 327:Lib/lvgl/src/widgets/tabview/../../../src/core/lv_obj_style_gen.h ****     lv_style_value_t v = lv_obj_get_style_prop(obj, part, LV_STYLE_BORDER_WIDTH);
 328:Lib/lvgl/src/widgets/tabview/../../../src/core/lv_obj_style_gen.h ****     return (int32_t)v.num;
 329:Lib/lvgl/src/widgets/tabview/../../../src/core/lv_obj_style_gen.h **** }
 330:Lib/lvgl/src/widgets/tabview/../../../src/core/lv_obj_style_gen.h **** 
 331:Lib/lvgl/src/widgets/tabview/../../../src/core/lv_obj_style_gen.h **** static inline lv_border_side_t lv_obj_get_style_border_side(const lv_obj_t * obj, uint32_t part)
 332:Lib/lvgl/src/widgets/tabview/../../../src/core/lv_obj_style_gen.h **** {
 333:Lib/lvgl/src/widgets/tabview/../../../src/core/lv_obj_style_gen.h ****     lv_style_value_t v = lv_obj_get_style_prop(obj, part, LV_STYLE_BORDER_SIDE);
 334:Lib/lvgl/src/widgets/tabview/../../../src/core/lv_obj_style_gen.h ****     return (lv_border_side_t)v.num;
 335:Lib/lvgl/src/widgets/tabview/../../../src/core/lv_obj_style_gen.h **** }
 336:Lib/lvgl/src/widgets/tabview/../../../src/core/lv_obj_style_gen.h **** 
 337:Lib/lvgl/src/widgets/tabview/../../../src/core/lv_obj_style_gen.h **** static inline bool lv_obj_get_style_border_post(const lv_obj_t * obj, uint32_t part)
 338:Lib/lvgl/src/widgets/tabview/../../../src/core/lv_obj_style_gen.h **** {
 339:Lib/lvgl/src/widgets/tabview/../../../src/core/lv_obj_style_gen.h ****     lv_style_value_t v = lv_obj_get_style_prop(obj, part, LV_STYLE_BORDER_POST);
 340:Lib/lvgl/src/widgets/tabview/../../../src/core/lv_obj_style_gen.h ****     return (bool)v.num;
 341:Lib/lvgl/src/widgets/tabview/../../../src/core/lv_obj_style_gen.h **** }
 342:Lib/lvgl/src/widgets/tabview/../../../src/core/lv_obj_style_gen.h **** 
 343:Lib/lvgl/src/widgets/tabview/../../../src/core/lv_obj_style_gen.h **** static inline int32_t lv_obj_get_style_outline_width(const lv_obj_t * obj, uint32_t part)
 344:Lib/lvgl/src/widgets/tabview/../../../src/core/lv_obj_style_gen.h **** {
 345:Lib/lvgl/src/widgets/tabview/../../../src/core/lv_obj_style_gen.h ****     lv_style_value_t v = lv_obj_get_style_prop(obj, part, LV_STYLE_OUTLINE_WIDTH);
 346:Lib/lvgl/src/widgets/tabview/../../../src/core/lv_obj_style_gen.h ****     return (int32_t)v.num;
 347:Lib/lvgl/src/widgets/tabview/../../../src/core/lv_obj_style_gen.h **** }
 348:Lib/lvgl/src/widgets/tabview/../../../src/core/lv_obj_style_gen.h **** 
 349:Lib/lvgl/src/widgets/tabview/../../../src/core/lv_obj_style_gen.h **** static inline lv_color_t lv_obj_get_style_outline_color(const lv_obj_t * obj, uint32_t part)
 350:Lib/lvgl/src/widgets/tabview/../../../src/core/lv_obj_style_gen.h **** {
 351:Lib/lvgl/src/widgets/tabview/../../../src/core/lv_obj_style_gen.h ****     lv_style_value_t v = lv_obj_get_style_prop(obj, part, LV_STYLE_OUTLINE_COLOR);
 352:Lib/lvgl/src/widgets/tabview/../../../src/core/lv_obj_style_gen.h ****     return v.color;
 353:Lib/lvgl/src/widgets/tabview/../../../src/core/lv_obj_style_gen.h **** }
 354:Lib/lvgl/src/widgets/tabview/../../../src/core/lv_obj_style_gen.h **** 
 355:Lib/lvgl/src/widgets/tabview/../../../src/core/lv_obj_style_gen.h **** static inline lv_color_t lv_obj_get_style_outline_color_filtered(const lv_obj_t * obj, uint32_t par
 356:Lib/lvgl/src/widgets/tabview/../../../src/core/lv_obj_style_gen.h **** {
 357:Lib/lvgl/src/widgets/tabview/../../../src/core/lv_obj_style_gen.h ****     lv_style_value_t v = _lv_obj_style_apply_color_filter(obj, part, lv_obj_get_style_prop(obj, par
 358:Lib/lvgl/src/widgets/tabview/../../../src/core/lv_obj_style_gen.h ****                                                                                            LV_STYLE
 359:Lib/lvgl/src/widgets/tabview/../../../src/core/lv_obj_style_gen.h ****     return v.color;
 360:Lib/lvgl/src/widgets/tabview/../../../src/core/lv_obj_style_gen.h **** }
 361:Lib/lvgl/src/widgets/tabview/../../../src/core/lv_obj_style_gen.h **** 
 362:Lib/lvgl/src/widgets/tabview/../../../src/core/lv_obj_style_gen.h **** static inline lv_opa_t lv_obj_get_style_outline_opa(const lv_obj_t * obj, uint32_t part)
 363:Lib/lvgl/src/widgets/tabview/../../../src/core/lv_obj_style_gen.h **** {
 364:Lib/lvgl/src/widgets/tabview/../../../src/core/lv_obj_style_gen.h ****     lv_style_value_t v = lv_obj_get_style_prop(obj, part, LV_STYLE_OUTLINE_OPA);
 365:Lib/lvgl/src/widgets/tabview/../../../src/core/lv_obj_style_gen.h ****     return (lv_opa_t)v.num;
 366:Lib/lvgl/src/widgets/tabview/../../../src/core/lv_obj_style_gen.h **** }
 367:Lib/lvgl/src/widgets/tabview/../../../src/core/lv_obj_style_gen.h **** 
 368:Lib/lvgl/src/widgets/tabview/../../../src/core/lv_obj_style_gen.h **** static inline int32_t lv_obj_get_style_outline_pad(const lv_obj_t * obj, uint32_t part)
 369:Lib/lvgl/src/widgets/tabview/../../../src/core/lv_obj_style_gen.h **** {
 370:Lib/lvgl/src/widgets/tabview/../../../src/core/lv_obj_style_gen.h ****     lv_style_value_t v = lv_obj_get_style_prop(obj, part, LV_STYLE_OUTLINE_PAD);
 371:Lib/lvgl/src/widgets/tabview/../../../src/core/lv_obj_style_gen.h ****     return (int32_t)v.num;
ARM GAS  C:\Users\Alex\AppData\Local\Temp\ccBm5uex.s 			page 28


 372:Lib/lvgl/src/widgets/tabview/../../../src/core/lv_obj_style_gen.h **** }
 373:Lib/lvgl/src/widgets/tabview/../../../src/core/lv_obj_style_gen.h **** 
 374:Lib/lvgl/src/widgets/tabview/../../../src/core/lv_obj_style_gen.h **** static inline int32_t lv_obj_get_style_shadow_width(const lv_obj_t * obj, uint32_t part)
 375:Lib/lvgl/src/widgets/tabview/../../../src/core/lv_obj_style_gen.h **** {
 376:Lib/lvgl/src/widgets/tabview/../../../src/core/lv_obj_style_gen.h ****     lv_style_value_t v = lv_obj_get_style_prop(obj, part, LV_STYLE_SHADOW_WIDTH);
 377:Lib/lvgl/src/widgets/tabview/../../../src/core/lv_obj_style_gen.h ****     return (int32_t)v.num;
 378:Lib/lvgl/src/widgets/tabview/../../../src/core/lv_obj_style_gen.h **** }
 379:Lib/lvgl/src/widgets/tabview/../../../src/core/lv_obj_style_gen.h **** 
 380:Lib/lvgl/src/widgets/tabview/../../../src/core/lv_obj_style_gen.h **** static inline int32_t lv_obj_get_style_shadow_offset_x(const lv_obj_t * obj, uint32_t part)
 381:Lib/lvgl/src/widgets/tabview/../../../src/core/lv_obj_style_gen.h **** {
 382:Lib/lvgl/src/widgets/tabview/../../../src/core/lv_obj_style_gen.h ****     lv_style_value_t v = lv_obj_get_style_prop(obj, part, LV_STYLE_SHADOW_OFFSET_X);
 383:Lib/lvgl/src/widgets/tabview/../../../src/core/lv_obj_style_gen.h ****     return (int32_t)v.num;
 384:Lib/lvgl/src/widgets/tabview/../../../src/core/lv_obj_style_gen.h **** }
 385:Lib/lvgl/src/widgets/tabview/../../../src/core/lv_obj_style_gen.h **** 
 386:Lib/lvgl/src/widgets/tabview/../../../src/core/lv_obj_style_gen.h **** static inline int32_t lv_obj_get_style_shadow_offset_y(const lv_obj_t * obj, uint32_t part)
 387:Lib/lvgl/src/widgets/tabview/../../../src/core/lv_obj_style_gen.h **** {
 388:Lib/lvgl/src/widgets/tabview/../../../src/core/lv_obj_style_gen.h ****     lv_style_value_t v = lv_obj_get_style_prop(obj, part, LV_STYLE_SHADOW_OFFSET_Y);
 389:Lib/lvgl/src/widgets/tabview/../../../src/core/lv_obj_style_gen.h ****     return (int32_t)v.num;
 390:Lib/lvgl/src/widgets/tabview/../../../src/core/lv_obj_style_gen.h **** }
 391:Lib/lvgl/src/widgets/tabview/../../../src/core/lv_obj_style_gen.h **** 
 392:Lib/lvgl/src/widgets/tabview/../../../src/core/lv_obj_style_gen.h **** static inline int32_t lv_obj_get_style_shadow_spread(const lv_obj_t * obj, uint32_t part)
 393:Lib/lvgl/src/widgets/tabview/../../../src/core/lv_obj_style_gen.h **** {
 394:Lib/lvgl/src/widgets/tabview/../../../src/core/lv_obj_style_gen.h ****     lv_style_value_t v = lv_obj_get_style_prop(obj, part, LV_STYLE_SHADOW_SPREAD);
 395:Lib/lvgl/src/widgets/tabview/../../../src/core/lv_obj_style_gen.h ****     return (int32_t)v.num;
 396:Lib/lvgl/src/widgets/tabview/../../../src/core/lv_obj_style_gen.h **** }
 397:Lib/lvgl/src/widgets/tabview/../../../src/core/lv_obj_style_gen.h **** 
 398:Lib/lvgl/src/widgets/tabview/../../../src/core/lv_obj_style_gen.h **** static inline lv_color_t lv_obj_get_style_shadow_color(const lv_obj_t * obj, uint32_t part)
 399:Lib/lvgl/src/widgets/tabview/../../../src/core/lv_obj_style_gen.h **** {
 400:Lib/lvgl/src/widgets/tabview/../../../src/core/lv_obj_style_gen.h ****     lv_style_value_t v = lv_obj_get_style_prop(obj, part, LV_STYLE_SHADOW_COLOR);
 401:Lib/lvgl/src/widgets/tabview/../../../src/core/lv_obj_style_gen.h ****     return v.color;
 402:Lib/lvgl/src/widgets/tabview/../../../src/core/lv_obj_style_gen.h **** }
 403:Lib/lvgl/src/widgets/tabview/../../../src/core/lv_obj_style_gen.h **** 
 404:Lib/lvgl/src/widgets/tabview/../../../src/core/lv_obj_style_gen.h **** static inline lv_color_t lv_obj_get_style_shadow_color_filtered(const lv_obj_t * obj, uint32_t part
 405:Lib/lvgl/src/widgets/tabview/../../../src/core/lv_obj_style_gen.h **** {
 406:Lib/lvgl/src/widgets/tabview/../../../src/core/lv_obj_style_gen.h ****     lv_style_value_t v = _lv_obj_style_apply_color_filter(obj, part, lv_obj_get_style_prop(obj, par
 407:Lib/lvgl/src/widgets/tabview/../../../src/core/lv_obj_style_gen.h ****                                                                                            LV_STYLE
 408:Lib/lvgl/src/widgets/tabview/../../../src/core/lv_obj_style_gen.h ****     return v.color;
 409:Lib/lvgl/src/widgets/tabview/../../../src/core/lv_obj_style_gen.h **** }
 410:Lib/lvgl/src/widgets/tabview/../../../src/core/lv_obj_style_gen.h **** 
 411:Lib/lvgl/src/widgets/tabview/../../../src/core/lv_obj_style_gen.h **** static inline lv_opa_t lv_obj_get_style_shadow_opa(const lv_obj_t * obj, uint32_t part)
 412:Lib/lvgl/src/widgets/tabview/../../../src/core/lv_obj_style_gen.h **** {
 413:Lib/lvgl/src/widgets/tabview/../../../src/core/lv_obj_style_gen.h ****     lv_style_value_t v = lv_obj_get_style_prop(obj, part, LV_STYLE_SHADOW_OPA);
 414:Lib/lvgl/src/widgets/tabview/../../../src/core/lv_obj_style_gen.h ****     return (lv_opa_t)v.num;
 415:Lib/lvgl/src/widgets/tabview/../../../src/core/lv_obj_style_gen.h **** }
 416:Lib/lvgl/src/widgets/tabview/../../../src/core/lv_obj_style_gen.h **** 
 417:Lib/lvgl/src/widgets/tabview/../../../src/core/lv_obj_style_gen.h **** static inline lv_opa_t lv_obj_get_style_image_opa(const lv_obj_t * obj, uint32_t part)
 418:Lib/lvgl/src/widgets/tabview/../../../src/core/lv_obj_style_gen.h **** {
 419:Lib/lvgl/src/widgets/tabview/../../../src/core/lv_obj_style_gen.h ****     lv_style_value_t v = lv_obj_get_style_prop(obj, part, LV_STYLE_IMAGE_OPA);
 420:Lib/lvgl/src/widgets/tabview/../../../src/core/lv_obj_style_gen.h ****     return (lv_opa_t)v.num;
 421:Lib/lvgl/src/widgets/tabview/../../../src/core/lv_obj_style_gen.h **** }
 422:Lib/lvgl/src/widgets/tabview/../../../src/core/lv_obj_style_gen.h **** 
 423:Lib/lvgl/src/widgets/tabview/../../../src/core/lv_obj_style_gen.h **** static inline lv_color_t lv_obj_get_style_image_recolor(const lv_obj_t * obj, uint32_t part)
 424:Lib/lvgl/src/widgets/tabview/../../../src/core/lv_obj_style_gen.h **** {
 425:Lib/lvgl/src/widgets/tabview/../../../src/core/lv_obj_style_gen.h ****     lv_style_value_t v = lv_obj_get_style_prop(obj, part, LV_STYLE_IMAGE_RECOLOR);
 426:Lib/lvgl/src/widgets/tabview/../../../src/core/lv_obj_style_gen.h ****     return v.color;
 427:Lib/lvgl/src/widgets/tabview/../../../src/core/lv_obj_style_gen.h **** }
 428:Lib/lvgl/src/widgets/tabview/../../../src/core/lv_obj_style_gen.h **** 
ARM GAS  C:\Users\Alex\AppData\Local\Temp\ccBm5uex.s 			page 29


 429:Lib/lvgl/src/widgets/tabview/../../../src/core/lv_obj_style_gen.h **** static inline lv_color_t lv_obj_get_style_image_recolor_filtered(const lv_obj_t * obj, uint32_t par
 430:Lib/lvgl/src/widgets/tabview/../../../src/core/lv_obj_style_gen.h **** {
 431:Lib/lvgl/src/widgets/tabview/../../../src/core/lv_obj_style_gen.h ****     lv_style_value_t v = _lv_obj_style_apply_color_filter(obj, part, lv_obj_get_style_prop(obj, par
 432:Lib/lvgl/src/widgets/tabview/../../../src/core/lv_obj_style_gen.h ****                                                                                            LV_STYLE
 433:Lib/lvgl/src/widgets/tabview/../../../src/core/lv_obj_style_gen.h ****     return v.color;
 434:Lib/lvgl/src/widgets/tabview/../../../src/core/lv_obj_style_gen.h **** }
 435:Lib/lvgl/src/widgets/tabview/../../../src/core/lv_obj_style_gen.h **** 
 436:Lib/lvgl/src/widgets/tabview/../../../src/core/lv_obj_style_gen.h **** static inline lv_opa_t lv_obj_get_style_image_recolor_opa(const lv_obj_t * obj, uint32_t part)
 437:Lib/lvgl/src/widgets/tabview/../../../src/core/lv_obj_style_gen.h **** {
 438:Lib/lvgl/src/widgets/tabview/../../../src/core/lv_obj_style_gen.h ****     lv_style_value_t v = lv_obj_get_style_prop(obj, part, LV_STYLE_IMAGE_RECOLOR_OPA);
 439:Lib/lvgl/src/widgets/tabview/../../../src/core/lv_obj_style_gen.h ****     return (lv_opa_t)v.num;
 440:Lib/lvgl/src/widgets/tabview/../../../src/core/lv_obj_style_gen.h **** }
 441:Lib/lvgl/src/widgets/tabview/../../../src/core/lv_obj_style_gen.h **** 
 442:Lib/lvgl/src/widgets/tabview/../../../src/core/lv_obj_style_gen.h **** static inline int32_t lv_obj_get_style_line_width(const lv_obj_t * obj, uint32_t part)
 443:Lib/lvgl/src/widgets/tabview/../../../src/core/lv_obj_style_gen.h **** {
 444:Lib/lvgl/src/widgets/tabview/../../../src/core/lv_obj_style_gen.h ****     lv_style_value_t v = lv_obj_get_style_prop(obj, part, LV_STYLE_LINE_WIDTH);
 445:Lib/lvgl/src/widgets/tabview/../../../src/core/lv_obj_style_gen.h ****     return (int32_t)v.num;
 446:Lib/lvgl/src/widgets/tabview/../../../src/core/lv_obj_style_gen.h **** }
 447:Lib/lvgl/src/widgets/tabview/../../../src/core/lv_obj_style_gen.h **** 
 448:Lib/lvgl/src/widgets/tabview/../../../src/core/lv_obj_style_gen.h **** static inline int32_t lv_obj_get_style_line_dash_width(const lv_obj_t * obj, uint32_t part)
 449:Lib/lvgl/src/widgets/tabview/../../../src/core/lv_obj_style_gen.h **** {
 450:Lib/lvgl/src/widgets/tabview/../../../src/core/lv_obj_style_gen.h ****     lv_style_value_t v = lv_obj_get_style_prop(obj, part, LV_STYLE_LINE_DASH_WIDTH);
 451:Lib/lvgl/src/widgets/tabview/../../../src/core/lv_obj_style_gen.h ****     return (int32_t)v.num;
 452:Lib/lvgl/src/widgets/tabview/../../../src/core/lv_obj_style_gen.h **** }
 453:Lib/lvgl/src/widgets/tabview/../../../src/core/lv_obj_style_gen.h **** 
 454:Lib/lvgl/src/widgets/tabview/../../../src/core/lv_obj_style_gen.h **** static inline int32_t lv_obj_get_style_line_dash_gap(const lv_obj_t * obj, uint32_t part)
 455:Lib/lvgl/src/widgets/tabview/../../../src/core/lv_obj_style_gen.h **** {
 456:Lib/lvgl/src/widgets/tabview/../../../src/core/lv_obj_style_gen.h ****     lv_style_value_t v = lv_obj_get_style_prop(obj, part, LV_STYLE_LINE_DASH_GAP);
 457:Lib/lvgl/src/widgets/tabview/../../../src/core/lv_obj_style_gen.h ****     return (int32_t)v.num;
 458:Lib/lvgl/src/widgets/tabview/../../../src/core/lv_obj_style_gen.h **** }
 459:Lib/lvgl/src/widgets/tabview/../../../src/core/lv_obj_style_gen.h **** 
 460:Lib/lvgl/src/widgets/tabview/../../../src/core/lv_obj_style_gen.h **** static inline bool lv_obj_get_style_line_rounded(const lv_obj_t * obj, uint32_t part)
 461:Lib/lvgl/src/widgets/tabview/../../../src/core/lv_obj_style_gen.h **** {
 462:Lib/lvgl/src/widgets/tabview/../../../src/core/lv_obj_style_gen.h ****     lv_style_value_t v = lv_obj_get_style_prop(obj, part, LV_STYLE_LINE_ROUNDED);
 463:Lib/lvgl/src/widgets/tabview/../../../src/core/lv_obj_style_gen.h ****     return (bool)v.num;
 464:Lib/lvgl/src/widgets/tabview/../../../src/core/lv_obj_style_gen.h **** }
 465:Lib/lvgl/src/widgets/tabview/../../../src/core/lv_obj_style_gen.h **** 
 466:Lib/lvgl/src/widgets/tabview/../../../src/core/lv_obj_style_gen.h **** static inline lv_color_t lv_obj_get_style_line_color(const lv_obj_t * obj, uint32_t part)
 467:Lib/lvgl/src/widgets/tabview/../../../src/core/lv_obj_style_gen.h **** {
 468:Lib/lvgl/src/widgets/tabview/../../../src/core/lv_obj_style_gen.h ****     lv_style_value_t v = lv_obj_get_style_prop(obj, part, LV_STYLE_LINE_COLOR);
 469:Lib/lvgl/src/widgets/tabview/../../../src/core/lv_obj_style_gen.h ****     return v.color;
 470:Lib/lvgl/src/widgets/tabview/../../../src/core/lv_obj_style_gen.h **** }
 471:Lib/lvgl/src/widgets/tabview/../../../src/core/lv_obj_style_gen.h **** 
 472:Lib/lvgl/src/widgets/tabview/../../../src/core/lv_obj_style_gen.h **** static inline lv_color_t lv_obj_get_style_line_color_filtered(const lv_obj_t * obj, uint32_t part)
 473:Lib/lvgl/src/widgets/tabview/../../../src/core/lv_obj_style_gen.h **** {
 474:Lib/lvgl/src/widgets/tabview/../../../src/core/lv_obj_style_gen.h ****     lv_style_value_t v = _lv_obj_style_apply_color_filter(obj, part, lv_obj_get_style_prop(obj, par
 475:Lib/lvgl/src/widgets/tabview/../../../src/core/lv_obj_style_gen.h ****     return v.color;
 476:Lib/lvgl/src/widgets/tabview/../../../src/core/lv_obj_style_gen.h **** }
 477:Lib/lvgl/src/widgets/tabview/../../../src/core/lv_obj_style_gen.h **** 
 478:Lib/lvgl/src/widgets/tabview/../../../src/core/lv_obj_style_gen.h **** static inline lv_opa_t lv_obj_get_style_line_opa(const lv_obj_t * obj, uint32_t part)
 479:Lib/lvgl/src/widgets/tabview/../../../src/core/lv_obj_style_gen.h **** {
 480:Lib/lvgl/src/widgets/tabview/../../../src/core/lv_obj_style_gen.h ****     lv_style_value_t v = lv_obj_get_style_prop(obj, part, LV_STYLE_LINE_OPA);
 481:Lib/lvgl/src/widgets/tabview/../../../src/core/lv_obj_style_gen.h ****     return (lv_opa_t)v.num;
 482:Lib/lvgl/src/widgets/tabview/../../../src/core/lv_obj_style_gen.h **** }
 483:Lib/lvgl/src/widgets/tabview/../../../src/core/lv_obj_style_gen.h **** 
 484:Lib/lvgl/src/widgets/tabview/../../../src/core/lv_obj_style_gen.h **** static inline int32_t lv_obj_get_style_arc_width(const lv_obj_t * obj, uint32_t part)
 485:Lib/lvgl/src/widgets/tabview/../../../src/core/lv_obj_style_gen.h **** {
ARM GAS  C:\Users\Alex\AppData\Local\Temp\ccBm5uex.s 			page 30


 486:Lib/lvgl/src/widgets/tabview/../../../src/core/lv_obj_style_gen.h ****     lv_style_value_t v = lv_obj_get_style_prop(obj, part, LV_STYLE_ARC_WIDTH);
 487:Lib/lvgl/src/widgets/tabview/../../../src/core/lv_obj_style_gen.h ****     return (int32_t)v.num;
 488:Lib/lvgl/src/widgets/tabview/../../../src/core/lv_obj_style_gen.h **** }
 489:Lib/lvgl/src/widgets/tabview/../../../src/core/lv_obj_style_gen.h **** 
 490:Lib/lvgl/src/widgets/tabview/../../../src/core/lv_obj_style_gen.h **** static inline bool lv_obj_get_style_arc_rounded(const lv_obj_t * obj, uint32_t part)
 491:Lib/lvgl/src/widgets/tabview/../../../src/core/lv_obj_style_gen.h **** {
 492:Lib/lvgl/src/widgets/tabview/../../../src/core/lv_obj_style_gen.h ****     lv_style_value_t v = lv_obj_get_style_prop(obj, part, LV_STYLE_ARC_ROUNDED);
 493:Lib/lvgl/src/widgets/tabview/../../../src/core/lv_obj_style_gen.h ****     return (bool)v.num;
 494:Lib/lvgl/src/widgets/tabview/../../../src/core/lv_obj_style_gen.h **** }
 495:Lib/lvgl/src/widgets/tabview/../../../src/core/lv_obj_style_gen.h **** 
 496:Lib/lvgl/src/widgets/tabview/../../../src/core/lv_obj_style_gen.h **** static inline lv_color_t lv_obj_get_style_arc_color(const lv_obj_t * obj, uint32_t part)
 497:Lib/lvgl/src/widgets/tabview/../../../src/core/lv_obj_style_gen.h **** {
 498:Lib/lvgl/src/widgets/tabview/../../../src/core/lv_obj_style_gen.h ****     lv_style_value_t v = lv_obj_get_style_prop(obj, part, LV_STYLE_ARC_COLOR);
 499:Lib/lvgl/src/widgets/tabview/../../../src/core/lv_obj_style_gen.h ****     return v.color;
 500:Lib/lvgl/src/widgets/tabview/../../../src/core/lv_obj_style_gen.h **** }
 501:Lib/lvgl/src/widgets/tabview/../../../src/core/lv_obj_style_gen.h **** 
 502:Lib/lvgl/src/widgets/tabview/../../../src/core/lv_obj_style_gen.h **** static inline lv_color_t lv_obj_get_style_arc_color_filtered(const lv_obj_t * obj, uint32_t part)
 503:Lib/lvgl/src/widgets/tabview/../../../src/core/lv_obj_style_gen.h **** {
 504:Lib/lvgl/src/widgets/tabview/../../../src/core/lv_obj_style_gen.h ****     lv_style_value_t v = _lv_obj_style_apply_color_filter(obj, part, lv_obj_get_style_prop(obj, par
 505:Lib/lvgl/src/widgets/tabview/../../../src/core/lv_obj_style_gen.h ****     return v.color;
 506:Lib/lvgl/src/widgets/tabview/../../../src/core/lv_obj_style_gen.h **** }
 507:Lib/lvgl/src/widgets/tabview/../../../src/core/lv_obj_style_gen.h **** 
 508:Lib/lvgl/src/widgets/tabview/../../../src/core/lv_obj_style_gen.h **** static inline lv_opa_t lv_obj_get_style_arc_opa(const lv_obj_t * obj, uint32_t part)
 509:Lib/lvgl/src/widgets/tabview/../../../src/core/lv_obj_style_gen.h **** {
 510:Lib/lvgl/src/widgets/tabview/../../../src/core/lv_obj_style_gen.h ****     lv_style_value_t v = lv_obj_get_style_prop(obj, part, LV_STYLE_ARC_OPA);
 511:Lib/lvgl/src/widgets/tabview/../../../src/core/lv_obj_style_gen.h ****     return (lv_opa_t)v.num;
 512:Lib/lvgl/src/widgets/tabview/../../../src/core/lv_obj_style_gen.h **** }
 513:Lib/lvgl/src/widgets/tabview/../../../src/core/lv_obj_style_gen.h **** 
 514:Lib/lvgl/src/widgets/tabview/../../../src/core/lv_obj_style_gen.h **** static inline const void * lv_obj_get_style_arc_image_src(const lv_obj_t * obj, uint32_t part)
 515:Lib/lvgl/src/widgets/tabview/../../../src/core/lv_obj_style_gen.h **** {
 516:Lib/lvgl/src/widgets/tabview/../../../src/core/lv_obj_style_gen.h ****     lv_style_value_t v = lv_obj_get_style_prop(obj, part, LV_STYLE_ARC_IMAGE_SRC);
 517:Lib/lvgl/src/widgets/tabview/../../../src/core/lv_obj_style_gen.h ****     return (const void *)v.ptr;
 518:Lib/lvgl/src/widgets/tabview/../../../src/core/lv_obj_style_gen.h **** }
 519:Lib/lvgl/src/widgets/tabview/../../../src/core/lv_obj_style_gen.h **** 
 520:Lib/lvgl/src/widgets/tabview/../../../src/core/lv_obj_style_gen.h **** static inline lv_color_t lv_obj_get_style_text_color(const lv_obj_t * obj, uint32_t part)
 521:Lib/lvgl/src/widgets/tabview/../../../src/core/lv_obj_style_gen.h **** {
 522:Lib/lvgl/src/widgets/tabview/../../../src/core/lv_obj_style_gen.h ****     lv_style_value_t v = lv_obj_get_style_prop(obj, part, LV_STYLE_TEXT_COLOR);
 523:Lib/lvgl/src/widgets/tabview/../../../src/core/lv_obj_style_gen.h ****     return v.color;
 524:Lib/lvgl/src/widgets/tabview/../../../src/core/lv_obj_style_gen.h **** }
 525:Lib/lvgl/src/widgets/tabview/../../../src/core/lv_obj_style_gen.h **** 
 526:Lib/lvgl/src/widgets/tabview/../../../src/core/lv_obj_style_gen.h **** static inline lv_color_t lv_obj_get_style_text_color_filtered(const lv_obj_t * obj, uint32_t part)
 527:Lib/lvgl/src/widgets/tabview/../../../src/core/lv_obj_style_gen.h **** {
 528:Lib/lvgl/src/widgets/tabview/../../../src/core/lv_obj_style_gen.h ****     lv_style_value_t v = _lv_obj_style_apply_color_filter(obj, part, lv_obj_get_style_prop(obj, par
 529:Lib/lvgl/src/widgets/tabview/../../../src/core/lv_obj_style_gen.h ****     return v.color;
 530:Lib/lvgl/src/widgets/tabview/../../../src/core/lv_obj_style_gen.h **** }
 531:Lib/lvgl/src/widgets/tabview/../../../src/core/lv_obj_style_gen.h **** 
 532:Lib/lvgl/src/widgets/tabview/../../../src/core/lv_obj_style_gen.h **** static inline lv_opa_t lv_obj_get_style_text_opa(const lv_obj_t * obj, uint32_t part)
 533:Lib/lvgl/src/widgets/tabview/../../../src/core/lv_obj_style_gen.h **** {
 534:Lib/lvgl/src/widgets/tabview/../../../src/core/lv_obj_style_gen.h ****     lv_style_value_t v = lv_obj_get_style_prop(obj, part, LV_STYLE_TEXT_OPA);
 535:Lib/lvgl/src/widgets/tabview/../../../src/core/lv_obj_style_gen.h ****     return (lv_opa_t)v.num;
 536:Lib/lvgl/src/widgets/tabview/../../../src/core/lv_obj_style_gen.h **** }
 537:Lib/lvgl/src/widgets/tabview/../../../src/core/lv_obj_style_gen.h **** 
 538:Lib/lvgl/src/widgets/tabview/../../../src/core/lv_obj_style_gen.h **** static inline const lv_font_t * lv_obj_get_style_text_font(const lv_obj_t * obj, uint32_t part)
 539:Lib/lvgl/src/widgets/tabview/../../../src/core/lv_obj_style_gen.h **** {
 540:Lib/lvgl/src/widgets/tabview/../../../src/core/lv_obj_style_gen.h ****     lv_style_value_t v = lv_obj_get_style_prop(obj, part, LV_STYLE_TEXT_FONT);
 541:Lib/lvgl/src/widgets/tabview/../../../src/core/lv_obj_style_gen.h ****     return (const lv_font_t *)v.ptr;
 542:Lib/lvgl/src/widgets/tabview/../../../src/core/lv_obj_style_gen.h **** }
ARM GAS  C:\Users\Alex\AppData\Local\Temp\ccBm5uex.s 			page 31


 543:Lib/lvgl/src/widgets/tabview/../../../src/core/lv_obj_style_gen.h **** 
 544:Lib/lvgl/src/widgets/tabview/../../../src/core/lv_obj_style_gen.h **** static inline int32_t lv_obj_get_style_text_letter_space(const lv_obj_t * obj, uint32_t part)
 545:Lib/lvgl/src/widgets/tabview/../../../src/core/lv_obj_style_gen.h **** {
 546:Lib/lvgl/src/widgets/tabview/../../../src/core/lv_obj_style_gen.h ****     lv_style_value_t v = lv_obj_get_style_prop(obj, part, LV_STYLE_TEXT_LETTER_SPACE);
 547:Lib/lvgl/src/widgets/tabview/../../../src/core/lv_obj_style_gen.h ****     return (int32_t)v.num;
 548:Lib/lvgl/src/widgets/tabview/../../../src/core/lv_obj_style_gen.h **** }
 549:Lib/lvgl/src/widgets/tabview/../../../src/core/lv_obj_style_gen.h **** 
 550:Lib/lvgl/src/widgets/tabview/../../../src/core/lv_obj_style_gen.h **** static inline int32_t lv_obj_get_style_text_line_space(const lv_obj_t * obj, uint32_t part)
 551:Lib/lvgl/src/widgets/tabview/../../../src/core/lv_obj_style_gen.h **** {
 552:Lib/lvgl/src/widgets/tabview/../../../src/core/lv_obj_style_gen.h ****     lv_style_value_t v = lv_obj_get_style_prop(obj, part, LV_STYLE_TEXT_LINE_SPACE);
 553:Lib/lvgl/src/widgets/tabview/../../../src/core/lv_obj_style_gen.h ****     return (int32_t)v.num;
 554:Lib/lvgl/src/widgets/tabview/../../../src/core/lv_obj_style_gen.h **** }
 555:Lib/lvgl/src/widgets/tabview/../../../src/core/lv_obj_style_gen.h **** 
 556:Lib/lvgl/src/widgets/tabview/../../../src/core/lv_obj_style_gen.h **** static inline lv_text_decor_t lv_obj_get_style_text_decor(const lv_obj_t * obj, uint32_t part)
 557:Lib/lvgl/src/widgets/tabview/../../../src/core/lv_obj_style_gen.h **** {
 558:Lib/lvgl/src/widgets/tabview/../../../src/core/lv_obj_style_gen.h ****     lv_style_value_t v = lv_obj_get_style_prop(obj, part, LV_STYLE_TEXT_DECOR);
 559:Lib/lvgl/src/widgets/tabview/../../../src/core/lv_obj_style_gen.h ****     return (lv_text_decor_t)v.num;
 560:Lib/lvgl/src/widgets/tabview/../../../src/core/lv_obj_style_gen.h **** }
 561:Lib/lvgl/src/widgets/tabview/../../../src/core/lv_obj_style_gen.h **** 
 562:Lib/lvgl/src/widgets/tabview/../../../src/core/lv_obj_style_gen.h **** static inline lv_text_align_t lv_obj_get_style_text_align(const lv_obj_t * obj, uint32_t part)
 563:Lib/lvgl/src/widgets/tabview/../../../src/core/lv_obj_style_gen.h **** {
 564:Lib/lvgl/src/widgets/tabview/../../../src/core/lv_obj_style_gen.h ****     lv_style_value_t v = lv_obj_get_style_prop(obj, part, LV_STYLE_TEXT_ALIGN);
 565:Lib/lvgl/src/widgets/tabview/../../../src/core/lv_obj_style_gen.h ****     return (lv_text_align_t)v.num;
 566:Lib/lvgl/src/widgets/tabview/../../../src/core/lv_obj_style_gen.h **** }
 567:Lib/lvgl/src/widgets/tabview/../../../src/core/lv_obj_style_gen.h **** 
 568:Lib/lvgl/src/widgets/tabview/../../../src/core/lv_obj_style_gen.h **** static inline int32_t lv_obj_get_style_radius(const lv_obj_t * obj, uint32_t part)
 569:Lib/lvgl/src/widgets/tabview/../../../src/core/lv_obj_style_gen.h **** {
 570:Lib/lvgl/src/widgets/tabview/../../../src/core/lv_obj_style_gen.h ****     lv_style_value_t v = lv_obj_get_style_prop(obj, part, LV_STYLE_RADIUS);
 571:Lib/lvgl/src/widgets/tabview/../../../src/core/lv_obj_style_gen.h ****     return (int32_t)v.num;
 572:Lib/lvgl/src/widgets/tabview/../../../src/core/lv_obj_style_gen.h **** }
 573:Lib/lvgl/src/widgets/tabview/../../../src/core/lv_obj_style_gen.h **** 
 574:Lib/lvgl/src/widgets/tabview/../../../src/core/lv_obj_style_gen.h **** static inline bool lv_obj_get_style_clip_corner(const lv_obj_t * obj, uint32_t part)
 575:Lib/lvgl/src/widgets/tabview/../../../src/core/lv_obj_style_gen.h **** {
 576:Lib/lvgl/src/widgets/tabview/../../../src/core/lv_obj_style_gen.h ****     lv_style_value_t v = lv_obj_get_style_prop(obj, part, LV_STYLE_CLIP_CORNER);
 577:Lib/lvgl/src/widgets/tabview/../../../src/core/lv_obj_style_gen.h ****     return (bool)v.num;
 578:Lib/lvgl/src/widgets/tabview/../../../src/core/lv_obj_style_gen.h **** }
 579:Lib/lvgl/src/widgets/tabview/../../../src/core/lv_obj_style_gen.h **** 
 580:Lib/lvgl/src/widgets/tabview/../../../src/core/lv_obj_style_gen.h **** static inline lv_opa_t lv_obj_get_style_opa(const lv_obj_t * obj, uint32_t part)
 581:Lib/lvgl/src/widgets/tabview/../../../src/core/lv_obj_style_gen.h **** {
 582:Lib/lvgl/src/widgets/tabview/../../../src/core/lv_obj_style_gen.h ****     lv_style_value_t v = lv_obj_get_style_prop(obj, part, LV_STYLE_OPA);
 583:Lib/lvgl/src/widgets/tabview/../../../src/core/lv_obj_style_gen.h ****     return (lv_opa_t)v.num;
 584:Lib/lvgl/src/widgets/tabview/../../../src/core/lv_obj_style_gen.h **** }
 585:Lib/lvgl/src/widgets/tabview/../../../src/core/lv_obj_style_gen.h **** 
 586:Lib/lvgl/src/widgets/tabview/../../../src/core/lv_obj_style_gen.h **** static inline lv_opa_t lv_obj_get_style_opa_layered(const lv_obj_t * obj, uint32_t part)
 587:Lib/lvgl/src/widgets/tabview/../../../src/core/lv_obj_style_gen.h **** {
 588:Lib/lvgl/src/widgets/tabview/../../../src/core/lv_obj_style_gen.h ****     lv_style_value_t v = lv_obj_get_style_prop(obj, part, LV_STYLE_OPA_LAYERED);
 589:Lib/lvgl/src/widgets/tabview/../../../src/core/lv_obj_style_gen.h ****     return (lv_opa_t)v.num;
 590:Lib/lvgl/src/widgets/tabview/../../../src/core/lv_obj_style_gen.h **** }
 591:Lib/lvgl/src/widgets/tabview/../../../src/core/lv_obj_style_gen.h **** 
 592:Lib/lvgl/src/widgets/tabview/../../../src/core/lv_obj_style_gen.h **** static inline const lv_color_filter_dsc_t * lv_obj_get_style_color_filter_dsc(const lv_obj_t * obj,
 593:Lib/lvgl/src/widgets/tabview/../../../src/core/lv_obj_style_gen.h **** {
 594:Lib/lvgl/src/widgets/tabview/../../../src/core/lv_obj_style_gen.h ****     lv_style_value_t v = lv_obj_get_style_prop(obj, part, LV_STYLE_COLOR_FILTER_DSC);
 595:Lib/lvgl/src/widgets/tabview/../../../src/core/lv_obj_style_gen.h ****     return (const lv_color_filter_dsc_t *)v.ptr;
 596:Lib/lvgl/src/widgets/tabview/../../../src/core/lv_obj_style_gen.h **** }
 597:Lib/lvgl/src/widgets/tabview/../../../src/core/lv_obj_style_gen.h **** 
 598:Lib/lvgl/src/widgets/tabview/../../../src/core/lv_obj_style_gen.h **** static inline lv_opa_t lv_obj_get_style_color_filter_opa(const lv_obj_t * obj, uint32_t part)
 599:Lib/lvgl/src/widgets/tabview/../../../src/core/lv_obj_style_gen.h **** {
ARM GAS  C:\Users\Alex\AppData\Local\Temp\ccBm5uex.s 			page 32


 600:Lib/lvgl/src/widgets/tabview/../../../src/core/lv_obj_style_gen.h ****     lv_style_value_t v = lv_obj_get_style_prop(obj, part, LV_STYLE_COLOR_FILTER_OPA);
 601:Lib/lvgl/src/widgets/tabview/../../../src/core/lv_obj_style_gen.h ****     return (lv_opa_t)v.num;
 602:Lib/lvgl/src/widgets/tabview/../../../src/core/lv_obj_style_gen.h **** }
 603:Lib/lvgl/src/widgets/tabview/../../../src/core/lv_obj_style_gen.h **** 
 604:Lib/lvgl/src/widgets/tabview/../../../src/core/lv_obj_style_gen.h **** static inline const lv_anim_t * lv_obj_get_style_anim(const lv_obj_t * obj, uint32_t part)
 605:Lib/lvgl/src/widgets/tabview/../../../src/core/lv_obj_style_gen.h **** {
 606:Lib/lvgl/src/widgets/tabview/../../../src/core/lv_obj_style_gen.h ****     lv_style_value_t v = lv_obj_get_style_prop(obj, part, LV_STYLE_ANIM);
 607:Lib/lvgl/src/widgets/tabview/../../../src/core/lv_obj_style_gen.h ****     return (const lv_anim_t *)v.ptr;
 608:Lib/lvgl/src/widgets/tabview/../../../src/core/lv_obj_style_gen.h **** }
 609:Lib/lvgl/src/widgets/tabview/../../../src/core/lv_obj_style_gen.h **** 
 610:Lib/lvgl/src/widgets/tabview/../../../src/core/lv_obj_style_gen.h **** static inline uint32_t lv_obj_get_style_anim_duration(const lv_obj_t * obj, uint32_t part)
 611:Lib/lvgl/src/widgets/tabview/../../../src/core/lv_obj_style_gen.h **** {
 612:Lib/lvgl/src/widgets/tabview/../../../src/core/lv_obj_style_gen.h ****     lv_style_value_t v = lv_obj_get_style_prop(obj, part, LV_STYLE_ANIM_DURATION);
 613:Lib/lvgl/src/widgets/tabview/../../../src/core/lv_obj_style_gen.h ****     return (uint32_t)v.num;
 614:Lib/lvgl/src/widgets/tabview/../../../src/core/lv_obj_style_gen.h **** }
 615:Lib/lvgl/src/widgets/tabview/../../../src/core/lv_obj_style_gen.h **** 
 616:Lib/lvgl/src/widgets/tabview/../../../src/core/lv_obj_style_gen.h **** static inline const lv_style_transition_dsc_t * lv_obj_get_style_transition(const lv_obj_t * obj, u
 617:Lib/lvgl/src/widgets/tabview/../../../src/core/lv_obj_style_gen.h **** {
 618:Lib/lvgl/src/widgets/tabview/../../../src/core/lv_obj_style_gen.h ****     lv_style_value_t v = lv_obj_get_style_prop(obj, part, LV_STYLE_TRANSITION);
 619:Lib/lvgl/src/widgets/tabview/../../../src/core/lv_obj_style_gen.h ****     return (const lv_style_transition_dsc_t *)v.ptr;
 620:Lib/lvgl/src/widgets/tabview/../../../src/core/lv_obj_style_gen.h **** }
 621:Lib/lvgl/src/widgets/tabview/../../../src/core/lv_obj_style_gen.h **** 
 622:Lib/lvgl/src/widgets/tabview/../../../src/core/lv_obj_style_gen.h **** static inline lv_blend_mode_t lv_obj_get_style_blend_mode(const lv_obj_t * obj, uint32_t part)
 623:Lib/lvgl/src/widgets/tabview/../../../src/core/lv_obj_style_gen.h **** {
 624:Lib/lvgl/src/widgets/tabview/../../../src/core/lv_obj_style_gen.h ****     lv_style_value_t v = lv_obj_get_style_prop(obj, part, LV_STYLE_BLEND_MODE);
 625:Lib/lvgl/src/widgets/tabview/../../../src/core/lv_obj_style_gen.h ****     return (lv_blend_mode_t)v.num;
 626:Lib/lvgl/src/widgets/tabview/../../../src/core/lv_obj_style_gen.h **** }
 627:Lib/lvgl/src/widgets/tabview/../../../src/core/lv_obj_style_gen.h **** 
 628:Lib/lvgl/src/widgets/tabview/../../../src/core/lv_obj_style_gen.h **** static inline uint16_t lv_obj_get_style_layout(const lv_obj_t * obj, uint32_t part)
 629:Lib/lvgl/src/widgets/tabview/../../../src/core/lv_obj_style_gen.h **** {
 630:Lib/lvgl/src/widgets/tabview/../../../src/core/lv_obj_style_gen.h ****     lv_style_value_t v = lv_obj_get_style_prop(obj, part, LV_STYLE_LAYOUT);
 631:Lib/lvgl/src/widgets/tabview/../../../src/core/lv_obj_style_gen.h ****     return (uint16_t)v.num;
 632:Lib/lvgl/src/widgets/tabview/../../../src/core/lv_obj_style_gen.h **** }
 633:Lib/lvgl/src/widgets/tabview/../../../src/core/lv_obj_style_gen.h **** 
 634:Lib/lvgl/src/widgets/tabview/../../../src/core/lv_obj_style_gen.h **** static inline lv_base_dir_t lv_obj_get_style_base_dir(const lv_obj_t * obj, uint32_t part)
 782              		.loc 2 634 29 view .LVU189
 783              	.LBB36:
 635:Lib/lvgl/src/widgets/tabview/../../../src/core/lv_obj_style_gen.h **** {
 636:Lib/lvgl/src/widgets/tabview/../../../src/core/lv_obj_style_gen.h ****     lv_style_value_t v = lv_obj_get_style_prop(obj, part, LV_STYLE_BASE_DIR);
 784              		.loc 2 636 5 view .LVU190
 785              		.loc 2 636 26 is_stmt 0 view .LVU191
 786 0050 2722     		movs	r2, #39
 787 0052 0021     		movs	r1, #0
 788 0054 3846     		mov	r0, r7
 789              	.LVL105:
 790              		.loc 2 636 26 view .LVU192
 791 0056 FFF7FEFF 		bl	lv_obj_get_style_prop
 792              	.LVL106:
 793 005a 0190     		str	r0, [sp, #4]
 637:Lib/lvgl/src/widgets/tabview/../../../src/core/lv_obj_style_gen.h ****     return (lv_base_dir_t)v.num;
 794              		.loc 2 637 5 is_stmt 1 view .LVU193
 795              		.loc 2 637 12 is_stmt 0 view .LVU194
 796 005c C3B2     		uxtb	r3, r0
 797              	.LVL107:
 798              		.loc 2 637 12 view .LVU195
 799              	.LBE36:
 800              	.LBE35:
ARM GAS  C:\Users\Alex\AppData\Local\Temp\ccBm5uex.s 			page 33


 127:Lib/lvgl/src/widgets/tabview/lv_tabview.c ****             lv_obj_scroll_to_x(cont, idx * (gap + w), anim_en);
 801              		.loc 1 127 11 view .LVU196
 802 005e 012B     		cmp	r3, #1
 803 0060 08D0     		beq	.L49
 128:Lib/lvgl/src/widgets/tabview/lv_tabview.c ****         }
 804              		.loc 1 128 13 is_stmt 1 view .LVU197
 128:Lib/lvgl/src/widgets/tabview/lv_tabview.c ****         }
 805              		.loc 1 128 49 is_stmt 0 view .LVU198
 806 0062 09EB0A01 		add	r1, r9, r10
 128:Lib/lvgl/src/widgets/tabview/lv_tabview.c ****         }
 807              		.loc 1 128 13 view .LVU199
 808 0066 4246     		mov	r2, r8
 809 0068 05FB01F1 		mul	r1, r5, r1
 810 006c 2046     		mov	r0, r4
 811 006e FFF7FEFF 		bl	lv_obj_scroll_to_x
 812              	.LVL108:
 813 0072 1AE0     		b	.L50
 814              	.L49:
 815              	.LBB37:
 131:Lib/lvgl/src/widgets/tabview/lv_tabview.c ****             lv_obj_scroll_to_x(cont, (gap + w) * id_rtl, anim_en);
 816              		.loc 1 131 13 is_stmt 1 view .LVU200
 131:Lib/lvgl/src/widgets/tabview/lv_tabview.c ****             lv_obj_scroll_to_x(cont, (gap + w) * id_rtl, anim_en);
 817              		.loc 1 131 21 is_stmt 0 view .LVU201
 818 0074 6942     		rsbs	r1, r5, #0
 132:Lib/lvgl/src/widgets/tabview/lv_tabview.c ****         }
 819              		.loc 1 132 13 is_stmt 1 view .LVU202
 132:Lib/lvgl/src/widgets/tabview/lv_tabview.c ****         }
 820              		.loc 1 132 43 is_stmt 0 view .LVU203
 821 0076 D144     		add	r9, r9, r10
 822              	.LVL109:
 132:Lib/lvgl/src/widgets/tabview/lv_tabview.c ****         }
 823              		.loc 1 132 13 view .LVU204
 824 0078 4246     		mov	r2, r8
 825 007a 01FB09F1 		mul	r1, r1, r9
 826 007e 2046     		mov	r0, r4
 827 0080 FFF7FEFF 		bl	lv_obj_scroll_to_x
 828              	.LVL110:
 829 0084 11E0     		b	.L50
 830              	.LVL111:
 831              	.L48:
 132:Lib/lvgl/src/widgets/tabview/lv_tabview.c ****         }
 832              		.loc 1 132 13 view .LVU205
 833              	.LBE37:
 834              	.LBE32:
 835              	.LBB38:
 136:Lib/lvgl/src/widgets/tabview/lv_tabview.c ****         int32_t h = lv_obj_get_content_height(cont);
 836              		.loc 1 136 9 is_stmt 1 view .LVU206
 837              	.LBB39:
 838              	.LBI39:
 166:Lib/lvgl/src/widgets/tabview/../../../src/core/lv_obj_style_gen.h **** {
 839              		.loc 2 166 23 view .LVU207
 840              	.LBB40:
 168:Lib/lvgl/src/widgets/tabview/../../../src/core/lv_obj_style_gen.h ****     return (int32_t)v.num;
 841              		.loc 2 168 5 view .LVU208
 168:Lib/lvgl/src/widgets/tabview/../../../src/core/lv_obj_style_gen.h ****     return (int32_t)v.num;
 842              		.loc 2 168 26 is_stmt 0 view .LVU209
 843 0086 1422     		movs	r2, #20
ARM GAS  C:\Users\Alex\AppData\Local\Temp\ccBm5uex.s 			page 34


 844 0088 0021     		movs	r1, #0
 845 008a 2046     		mov	r0, r4
 846 008c FFF7FEFF 		bl	lv_obj_get_style_prop
 847              	.LVL112:
 848 0090 8146     		mov	r9, r0
 849 0092 0190     		str	r0, [sp, #4]
 169:Lib/lvgl/src/widgets/tabview/../../../src/core/lv_obj_style_gen.h **** }
 850              		.loc 2 169 5 is_stmt 1 view .LVU210
 851              	.LVL113:
 169:Lib/lvgl/src/widgets/tabview/../../../src/core/lv_obj_style_gen.h **** }
 852              		.loc 2 169 5 is_stmt 0 view .LVU211
 853              	.LBE40:
 854              	.LBE39:
 137:Lib/lvgl/src/widgets/tabview/lv_tabview.c ****         lv_obj_scroll_to_y(cont, idx * (gap + h), anim_en);
 855              		.loc 1 137 9 is_stmt 1 view .LVU212
 137:Lib/lvgl/src/widgets/tabview/lv_tabview.c ****         lv_obj_scroll_to_y(cont, idx * (gap + h), anim_en);
 856              		.loc 1 137 21 is_stmt 0 view .LVU213
 857 0094 2046     		mov	r0, r4
 858              	.LVL114:
 137:Lib/lvgl/src/widgets/tabview/lv_tabview.c ****         lv_obj_scroll_to_y(cont, idx * (gap + h), anim_en);
 859              		.loc 1 137 21 view .LVU214
 860 0096 FFF7FEFF 		bl	lv_obj_get_content_height
 861              	.LVL115:
 138:Lib/lvgl/src/widgets/tabview/lv_tabview.c ****     }
 862              		.loc 1 138 9 is_stmt 1 view .LVU215
 138:Lib/lvgl/src/widgets/tabview/lv_tabview.c ****     }
 863              		.loc 1 138 45 is_stmt 0 view .LVU216
 864 009a 00EB0901 		add	r1, r0, r9
 138:Lib/lvgl/src/widgets/tabview/lv_tabview.c ****     }
 865              		.loc 1 138 9 view .LVU217
 866 009e 4246     		mov	r2, r8
 867 00a0 05FB01F1 		mul	r1, r5, r1
 868 00a4 2046     		mov	r0, r4
 869              	.LVL116:
 138:Lib/lvgl/src/widgets/tabview/lv_tabview.c ****     }
 870              		.loc 1 138 9 view .LVU218
 871 00a6 FFF7FEFF 		bl	lv_obj_scroll_to_y
 872              	.LVL117:
 873              	.L50:
 138:Lib/lvgl/src/widgets/tabview/lv_tabview.c ****     }
 874              		.loc 1 138 9 view .LVU219
 875              	.LBE38:
 141:Lib/lvgl/src/widgets/tabview/lv_tabview.c ****     lv_obj_t * button = lv_obj_get_child_by_type(tab_bar, i, &lv_button_class);
 876              		.loc 1 141 5 is_stmt 1 view .LVU220
 142:Lib/lvgl/src/widgets/tabview/lv_tabview.c ****     while(button) {
 877              		.loc 1 142 5 view .LVU221
 142:Lib/lvgl/src/widgets/tabview/lv_tabview.c ****     while(button) {
 878              		.loc 1 142 25 is_stmt 0 view .LVU222
 879 00aa 0D4A     		ldr	r2, .L54
 880 00ac 0021     		movs	r1, #0
 881 00ae 3046     		mov	r0, r6
 882 00b0 FFF7FEFF 		bl	lv_obj_get_child_by_type
 883              	.LVL118:
 143:Lib/lvgl/src/widgets/tabview/lv_tabview.c ****         lv_obj_set_state(button, LV_STATE_CHECKED, i == idx);
 884              		.loc 1 143 5 is_stmt 1 view .LVU223
 141:Lib/lvgl/src/widgets/tabview/lv_tabview.c ****     lv_obj_t * button = lv_obj_get_child_by_type(tab_bar, i, &lv_button_class);
 885              		.loc 1 141 14 is_stmt 0 view .LVU224
ARM GAS  C:\Users\Alex\AppData\Local\Temp\ccBm5uex.s 			page 35


 886 00b4 0024     		movs	r4, #0
 887              	.LVL119:
 143:Lib/lvgl/src/widgets/tabview/lv_tabview.c ****         lv_obj_set_state(button, LV_STATE_CHECKED, i == idx);
 888              		.loc 1 143 10 view .LVU225
 889 00b6 0CE0     		b	.L51
 890              	.LVL120:
 891              	.L52:
 144:Lib/lvgl/src/widgets/tabview/lv_tabview.c ****         i++;
 892              		.loc 1 144 9 is_stmt 1 view .LVU226
 893 00b8 A542     		cmp	r5, r4
 894 00ba 14BF     		ite	ne
 895 00bc 0022     		movne	r2, #0
 896 00be 0122     		moveq	r2, #1
 897 00c0 0121     		movs	r1, #1
 898 00c2 FFF7FEFF 		bl	lv_obj_set_state
 899              	.LVL121:
 145:Lib/lvgl/src/widgets/tabview/lv_tabview.c ****         button = lv_obj_get_child_by_type(tab_bar, (int32_t)i, &lv_button_class);
 900              		.loc 1 145 9 view .LVU227
 145:Lib/lvgl/src/widgets/tabview/lv_tabview.c ****         button = lv_obj_get_child_by_type(tab_bar, (int32_t)i, &lv_button_class);
 901              		.loc 1 145 10 is_stmt 0 view .LVU228
 902 00c6 0134     		adds	r4, r4, #1
 903              	.LVL122:
 146:Lib/lvgl/src/widgets/tabview/lv_tabview.c ****     }
 904              		.loc 1 146 9 is_stmt 1 view .LVU229
 146:Lib/lvgl/src/widgets/tabview/lv_tabview.c ****     }
 905              		.loc 1 146 18 is_stmt 0 view .LVU230
 906 00c8 054A     		ldr	r2, .L54
 907 00ca 2146     		mov	r1, r4
 908 00cc 3046     		mov	r0, r6
 909 00ce FFF7FEFF 		bl	lv_obj_get_child_by_type
 910              	.LVL123:
 911              	.L51:
 143:Lib/lvgl/src/widgets/tabview/lv_tabview.c ****         lv_obj_set_state(button, LV_STATE_CHECKED, i == idx);
 912              		.loc 1 143 11 is_stmt 1 view .LVU231
 913 00d2 0028     		cmp	r0, #0
 914 00d4 F0D1     		bne	.L52
 149:Lib/lvgl/src/widgets/tabview/lv_tabview.c **** }
 915              		.loc 1 149 5 view .LVU232
 149:Lib/lvgl/src/widgets/tabview/lv_tabview.c **** }
 916              		.loc 1 149 22 is_stmt 0 view .LVU233
 917 00d6 FD62     		str	r5, [r7, #44]
 918              	.LVL124:
 919              	.L45:
 150:Lib/lvgl/src/widgets/tabview/lv_tabview.c **** 
 920              		.loc 1 150 1 view .LVU234
 921 00d8 02B0     		add	sp, sp, #8
 922              	.LCFI10:
 923              		.cfi_def_cfa_offset 32
 924              		@ sp needed
 925 00da BDE8F087 		pop	{r4, r5, r6, r7, r8, r9, r10, pc}
 926              	.LVL125:
 927              	.L55:
 150:Lib/lvgl/src/widgets/tabview/lv_tabview.c **** 
 928              		.loc 1 150 1 view .LVU235
 929 00de 00BF     		.align	2
 930              	.L54:
 931 00e0 00000000 		.word	lv_button_class
ARM GAS  C:\Users\Alex\AppData\Local\Temp\ccBm5uex.s 			page 36


 932              		.cfi_endproc
 933              	.LFE259:
 935              		.section	.text.lv_tabview_event,"ax",%progbits
 936              		.align	1
 937              		.syntax unified
 938              		.thumb
 939              		.thumb_func
 941              	lv_tabview_event:
 942              	.LVL126:
 943              	.LFB267:
 275:Lib/lvgl/src/widgets/tabview/lv_tabview.c **** 
 276:Lib/lvgl/src/widgets/tabview/lv_tabview.c **** static void lv_tabview_event(const lv_obj_class_t * class_p, lv_event_t * e)
 277:Lib/lvgl/src/widgets/tabview/lv_tabview.c **** {
 944              		.loc 1 277 1 is_stmt 1 view -0
 945              		.cfi_startproc
 946              		@ args = 0, pretend = 0, frame = 0
 947              		@ frame_needed = 0, uses_anonymous_args = 0
 948              		.loc 1 277 1 is_stmt 0 view .LVU237
 949 0000 38B5     		push	{r3, r4, r5, lr}
 950              	.LCFI11:
 951              		.cfi_def_cfa_offset 16
 952              		.cfi_offset 3, -16
 953              		.cfi_offset 4, -12
 954              		.cfi_offset 5, -8
 955              		.cfi_offset 14, -4
 956 0002 0C46     		mov	r4, r1
 278:Lib/lvgl/src/widgets/tabview/lv_tabview.c ****     LV_UNUSED(class_p);
 957              		.loc 1 278 5 is_stmt 1 view .LVU238
 279:Lib/lvgl/src/widgets/tabview/lv_tabview.c ****     lv_result_t res = lv_obj_event_base(&lv_tabview_class, e);
 958              		.loc 1 279 5 view .LVU239
 959              		.loc 1 279 23 is_stmt 0 view .LVU240
 960 0004 0B48     		ldr	r0, .L60
 961              	.LVL127:
 962              		.loc 1 279 23 view .LVU241
 963 0006 FFF7FEFF 		bl	lv_obj_event_base
 964              	.LVL128:
 280:Lib/lvgl/src/widgets/tabview/lv_tabview.c ****     if(res != LV_RESULT_OK) return;
 965              		.loc 1 280 5 is_stmt 1 view .LVU242
 966              		.loc 1 280 7 is_stmt 0 view .LVU243
 967 000a 0128     		cmp	r0, #1
 968 000c 00D0     		beq	.L59
 969              	.LVL129:
 970              	.L56:
 281:Lib/lvgl/src/widgets/tabview/lv_tabview.c **** 
 282:Lib/lvgl/src/widgets/tabview/lv_tabview.c ****     lv_event_code_t code = lv_event_get_code(e);
 283:Lib/lvgl/src/widgets/tabview/lv_tabview.c ****     lv_obj_t * target = lv_event_get_current_target(e);
 284:Lib/lvgl/src/widgets/tabview/lv_tabview.c **** 
 285:Lib/lvgl/src/widgets/tabview/lv_tabview.c ****     if(code == LV_EVENT_SIZE_CHANGED) {
 286:Lib/lvgl/src/widgets/tabview/lv_tabview.c ****         lv_tabview_set_active(target, lv_tabview_get_tab_active(target), LV_ANIM_OFF);
 287:Lib/lvgl/src/widgets/tabview/lv_tabview.c ****     }
 288:Lib/lvgl/src/widgets/tabview/lv_tabview.c **** }
 971              		.loc 1 288 1 view .LVU244
 972 000e 38BD     		pop	{r3, r4, r5, pc}
 973              	.LVL130:
 974              	.L59:
 282:Lib/lvgl/src/widgets/tabview/lv_tabview.c ****     lv_obj_t * target = lv_event_get_current_target(e);
 975              		.loc 1 282 5 is_stmt 1 view .LVU245
ARM GAS  C:\Users\Alex\AppData\Local\Temp\ccBm5uex.s 			page 37


 282:Lib/lvgl/src/widgets/tabview/lv_tabview.c ****     lv_obj_t * target = lv_event_get_current_target(e);
 976              		.loc 1 282 28 is_stmt 0 view .LVU246
 977 0010 2046     		mov	r0, r4
 978              	.LVL131:
 282:Lib/lvgl/src/widgets/tabview/lv_tabview.c ****     lv_obj_t * target = lv_event_get_current_target(e);
 979              		.loc 1 282 28 view .LVU247
 980 0012 FFF7FEFF 		bl	lv_event_get_code
 981              	.LVL132:
 982 0016 0546     		mov	r5, r0
 983              	.LVL133:
 283:Lib/lvgl/src/widgets/tabview/lv_tabview.c **** 
 984              		.loc 1 283 5 is_stmt 1 view .LVU248
 283:Lib/lvgl/src/widgets/tabview/lv_tabview.c **** 
 985              		.loc 1 283 25 is_stmt 0 view .LVU249
 986 0018 2046     		mov	r0, r4
 987 001a FFF7FEFF 		bl	lv_event_get_current_target
 988              	.LVL134:
 989 001e 0446     		mov	r4, r0
 990              	.LVL135:
 285:Lib/lvgl/src/widgets/tabview/lv_tabview.c ****         lv_tabview_set_active(target, lv_tabview_get_tab_active(target), LV_ANIM_OFF);
 991              		.loc 1 285 5 is_stmt 1 view .LVU250
 285:Lib/lvgl/src/widgets/tabview/lv_tabview.c ****         lv_tabview_set_active(target, lv_tabview_get_tab_active(target), LV_ANIM_OFF);
 992              		.loc 1 285 7 is_stmt 0 view .LVU251
 993 0020 2B2D     		cmp	r5, #43
 994 0022 F4D1     		bne	.L56
 286:Lib/lvgl/src/widgets/tabview/lv_tabview.c ****     }
 995              		.loc 1 286 9 is_stmt 1 view .LVU252
 996 0024 FFF7FEFF 		bl	lv_tabview_get_tab_active
 997              	.LVL136:
 286:Lib/lvgl/src/widgets/tabview/lv_tabview.c ****     }
 998              		.loc 1 286 9 is_stmt 0 view .LVU253
 999 0028 0146     		mov	r1, r0
 1000 002a 0022     		movs	r2, #0
 1001 002c 2046     		mov	r0, r4
 1002 002e FFF7FEFF 		bl	lv_tabview_set_active
 1003              	.LVL137:
 1004 0032 ECE7     		b	.L56
 1005              	.L61:
 1006              		.align	2
 1007              	.L60:
 1008 0034 00000000 		.word	lv_tabview_class
 1009              		.cfi_endproc
 1010              	.LFE267:
 1012              		.section	.text.cont_scroll_end_event_cb,"ax",%progbits
 1013              		.align	1
 1014              		.syntax unified
 1015              		.thumb
 1016              		.thumb_func
 1018              	cont_scroll_end_event_cb:
 1019              	.LVL138:
 1020              	.LFB269:
 289:Lib/lvgl/src/widgets/tabview/lv_tabview.c **** 
 290:Lib/lvgl/src/widgets/tabview/lv_tabview.c **** static void button_clicked_event_cb(lv_event_t * e)
 291:Lib/lvgl/src/widgets/tabview/lv_tabview.c **** {
 292:Lib/lvgl/src/widgets/tabview/lv_tabview.c ****     lv_obj_t * button = lv_event_get_current_target(e);
 293:Lib/lvgl/src/widgets/tabview/lv_tabview.c **** 
 294:Lib/lvgl/src/widgets/tabview/lv_tabview.c ****     lv_obj_t * tv = lv_obj_get_parent(lv_obj_get_parent(button));
ARM GAS  C:\Users\Alex\AppData\Local\Temp\ccBm5uex.s 			page 38


 295:Lib/lvgl/src/widgets/tabview/lv_tabview.c ****     int32_t idx = lv_obj_get_index_by_type(button, &lv_button_class);
 296:Lib/lvgl/src/widgets/tabview/lv_tabview.c ****     lv_tabview_set_active(tv, idx, LV_ANIM_OFF);
 297:Lib/lvgl/src/widgets/tabview/lv_tabview.c **** }
 298:Lib/lvgl/src/widgets/tabview/lv_tabview.c **** 
 299:Lib/lvgl/src/widgets/tabview/lv_tabview.c **** static void cont_scroll_end_event_cb(lv_event_t * e)
 300:Lib/lvgl/src/widgets/tabview/lv_tabview.c **** {
 1021              		.loc 1 300 1 is_stmt 1 view -0
 1022              		.cfi_startproc
 1023              		@ args = 0, pretend = 0, frame = 16
 1024              		@ frame_needed = 0, uses_anonymous_args = 0
 1025              		.loc 1 300 1 is_stmt 0 view .LVU255
 1026 0000 70B5     		push	{r4, r5, r6, lr}
 1027              	.LCFI12:
 1028              		.cfi_def_cfa_offset 16
 1029              		.cfi_offset 4, -16
 1030              		.cfi_offset 5, -12
 1031              		.cfi_offset 6, -8
 1032              		.cfi_offset 14, -4
 1033 0002 84B0     		sub	sp, sp, #16
 1034              	.LCFI13:
 1035              		.cfi_def_cfa_offset 32
 1036 0004 0446     		mov	r4, r0
 301:Lib/lvgl/src/widgets/tabview/lv_tabview.c ****     lv_obj_t * cont = lv_event_get_current_target(e);
 1037              		.loc 1 301 5 is_stmt 1 view .LVU256
 1038              		.loc 1 301 23 is_stmt 0 view .LVU257
 1039 0006 FFF7FEFF 		bl	lv_event_get_current_target
 1040              	.LVL139:
 1041              		.loc 1 301 23 view .LVU258
 1042 000a 0546     		mov	r5, r0
 1043              	.LVL140:
 302:Lib/lvgl/src/widgets/tabview/lv_tabview.c ****     lv_event_code_t code = lv_event_get_code(e);
 1044              		.loc 1 302 5 is_stmt 1 view .LVU259
 1045              		.loc 1 302 28 is_stmt 0 view .LVU260
 1046 000c 2046     		mov	r0, r4
 1047              	.LVL141:
 1048              		.loc 1 302 28 view .LVU261
 1049 000e FFF7FEFF 		bl	lv_event_get_code
 1050              	.LVL142:
 1051 0012 0446     		mov	r4, r0
 1052              	.LVL143:
 303:Lib/lvgl/src/widgets/tabview/lv_tabview.c **** 
 304:Lib/lvgl/src/widgets/tabview/lv_tabview.c ****     lv_obj_t * tv = lv_obj_get_parent(cont);
 1053              		.loc 1 304 5 is_stmt 1 view .LVU262
 1054              		.loc 1 304 21 is_stmt 0 view .LVU263
 1055 0014 2846     		mov	r0, r5
 1056 0016 FFF7FEFF 		bl	lv_obj_get_parent
 1057              	.LVL144:
 1058 001a 0646     		mov	r6, r0
 1059              	.LVL145:
 305:Lib/lvgl/src/widgets/tabview/lv_tabview.c ****     lv_tabview_t * tv_obj = (lv_tabview_t *)tv;
 1060              		.loc 1 305 5 is_stmt 1 view .LVU264
 306:Lib/lvgl/src/widgets/tabview/lv_tabview.c ****     if(code == LV_EVENT_LAYOUT_CHANGED) {
 1061              		.loc 1 306 5 view .LVU265
 1062              		.loc 1 306 7 is_stmt 0 view .LVU266
 1063 001c 2D2C     		cmp	r4, #45
 1064 001e 03D0     		beq	.L77
 307:Lib/lvgl/src/widgets/tabview/lv_tabview.c ****         lv_tabview_set_active(tv, lv_tabview_get_tab_active(tv), LV_ANIM_OFF);
ARM GAS  C:\Users\Alex\AppData\Local\Temp\ccBm5uex.s 			page 39


 308:Lib/lvgl/src/widgets/tabview/lv_tabview.c ****     }
 309:Lib/lvgl/src/widgets/tabview/lv_tabview.c ****     else if(code == LV_EVENT_SCROLL_END) {
 1065              		.loc 1 309 10 is_stmt 1 view .LVU267
 1066              		.loc 1 309 12 is_stmt 0 view .LVU268
 1067 0020 0B2C     		cmp	r4, #11
 1068 0022 09D0     		beq	.L78
 1069              	.LVL146:
 1070              	.L62:
 310:Lib/lvgl/src/widgets/tabview/lv_tabview.c ****         lv_indev_t * indev = lv_indev_active();
 311:Lib/lvgl/src/widgets/tabview/lv_tabview.c ****         if(indev && indev->state == LV_INDEV_STATE_PRESSED) {
 312:Lib/lvgl/src/widgets/tabview/lv_tabview.c ****             return;
 313:Lib/lvgl/src/widgets/tabview/lv_tabview.c ****         }
 314:Lib/lvgl/src/widgets/tabview/lv_tabview.c **** 
 315:Lib/lvgl/src/widgets/tabview/lv_tabview.c ****         lv_point_t p;
 316:Lib/lvgl/src/widgets/tabview/lv_tabview.c ****         lv_obj_get_scroll_end(cont, &p);
 317:Lib/lvgl/src/widgets/tabview/lv_tabview.c **** 
 318:Lib/lvgl/src/widgets/tabview/lv_tabview.c ****         int32_t t;
 319:Lib/lvgl/src/widgets/tabview/lv_tabview.c ****         if((tv_obj->tab_pos & LV_DIR_VER) != 0) {
 320:Lib/lvgl/src/widgets/tabview/lv_tabview.c ****             int32_t w = lv_obj_get_content_width(cont);
 321:Lib/lvgl/src/widgets/tabview/lv_tabview.c ****             if(lv_obj_get_style_base_dir(tv, LV_PART_MAIN) == LV_BASE_DIR_RTL)  t = -(p.x - w / 2) 
 322:Lib/lvgl/src/widgets/tabview/lv_tabview.c ****             else t = (p.x + w / 2) / w;
 323:Lib/lvgl/src/widgets/tabview/lv_tabview.c ****         }
 324:Lib/lvgl/src/widgets/tabview/lv_tabview.c ****         else {
 325:Lib/lvgl/src/widgets/tabview/lv_tabview.c ****             int32_t h = lv_obj_get_content_height(cont);
 326:Lib/lvgl/src/widgets/tabview/lv_tabview.c ****             t = (p.y + h / 2) / h;
 327:Lib/lvgl/src/widgets/tabview/lv_tabview.c ****         }
 328:Lib/lvgl/src/widgets/tabview/lv_tabview.c **** 
 329:Lib/lvgl/src/widgets/tabview/lv_tabview.c ****         if(t < 0) t = 0;
 330:Lib/lvgl/src/widgets/tabview/lv_tabview.c ****         bool new_tab = false;
 331:Lib/lvgl/src/widgets/tabview/lv_tabview.c ****         if(t != (int32_t)lv_tabview_get_tab_active(tv)) new_tab = true;
 332:Lib/lvgl/src/widgets/tabview/lv_tabview.c **** 
 333:Lib/lvgl/src/widgets/tabview/lv_tabview.c ****         /*If not scrolled by an indev set the tab immediately*/
 334:Lib/lvgl/src/widgets/tabview/lv_tabview.c ****         if(lv_indev_active()) {
 335:Lib/lvgl/src/widgets/tabview/lv_tabview.c ****             lv_tabview_set_active(tv, t, LV_ANIM_ON);
 336:Lib/lvgl/src/widgets/tabview/lv_tabview.c ****         }
 337:Lib/lvgl/src/widgets/tabview/lv_tabview.c ****         else {
 338:Lib/lvgl/src/widgets/tabview/lv_tabview.c ****             lv_tabview_set_active(tv, t, LV_ANIM_OFF);
 339:Lib/lvgl/src/widgets/tabview/lv_tabview.c ****         }
 340:Lib/lvgl/src/widgets/tabview/lv_tabview.c **** 
 341:Lib/lvgl/src/widgets/tabview/lv_tabview.c ****         if(new_tab) lv_obj_send_event(tv, LV_EVENT_VALUE_CHANGED, NULL);
 342:Lib/lvgl/src/widgets/tabview/lv_tabview.c ****     }
 343:Lib/lvgl/src/widgets/tabview/lv_tabview.c **** }
 1071              		.loc 1 343 1 view .LVU269
 1072 0024 04B0     		add	sp, sp, #16
 1073              	.LCFI14:
 1074              		.cfi_remember_state
 1075              		.cfi_def_cfa_offset 16
 1076              		@ sp needed
 1077 0026 70BD     		pop	{r4, r5, r6, pc}
 1078              	.LVL147:
 1079              	.L77:
 1080              	.LCFI15:
 1081              		.cfi_restore_state
 307:Lib/lvgl/src/widgets/tabview/lv_tabview.c ****         lv_tabview_set_active(tv, lv_tabview_get_tab_active(tv), LV_ANIM_OFF);
 1082              		.loc 1 307 9 is_stmt 1 view .LVU270
 1083 0028 FFF7FEFF 		bl	lv_tabview_get_tab_active
 1084              	.LVL148:
ARM GAS  C:\Users\Alex\AppData\Local\Temp\ccBm5uex.s 			page 40


 307:Lib/lvgl/src/widgets/tabview/lv_tabview.c ****         lv_tabview_set_active(tv, lv_tabview_get_tab_active(tv), LV_ANIM_OFF);
 1085              		.loc 1 307 9 is_stmt 0 view .LVU271
 1086 002c 0146     		mov	r1, r0
 1087 002e 0022     		movs	r2, #0
 1088 0030 3046     		mov	r0, r6
 1089 0032 FFF7FEFF 		bl	lv_tabview_set_active
 1090              	.LVL149:
 1091 0036 F5E7     		b	.L62
 1092              	.LVL150:
 1093              	.L78:
 1094              	.LBB41:
 310:Lib/lvgl/src/widgets/tabview/lv_tabview.c ****         lv_indev_t * indev = lv_indev_active();
 1095              		.loc 1 310 9 is_stmt 1 view .LVU272
 310:Lib/lvgl/src/widgets/tabview/lv_tabview.c ****         lv_indev_t * indev = lv_indev_active();
 1096              		.loc 1 310 30 is_stmt 0 view .LVU273
 1097 0038 FFF7FEFF 		bl	lv_indev_active
 1098              	.LVL151:
 311:Lib/lvgl/src/widgets/tabview/lv_tabview.c ****             return;
 1099              		.loc 1 311 9 is_stmt 1 view .LVU274
 311:Lib/lvgl/src/widgets/tabview/lv_tabview.c ****             return;
 1100              		.loc 1 311 11 is_stmt 0 view .LVU275
 1101 003c 10B1     		cbz	r0, .L65
 311:Lib/lvgl/src/widgets/tabview/lv_tabview.c ****             return;
 1102              		.loc 1 311 26 discriminator 1 view .LVU276
 1103 003e 037A     		ldrb	r3, [r0, #8]	@ zero_extendqisi2
 311:Lib/lvgl/src/widgets/tabview/lv_tabview.c ****             return;
 1104              		.loc 1 311 18 discriminator 1 view .LVU277
 1105 0040 012B     		cmp	r3, #1
 1106 0042 EFD0     		beq	.L62
 1107              	.L65:
 315:Lib/lvgl/src/widgets/tabview/lv_tabview.c ****         lv_obj_get_scroll_end(cont, &p);
 1108              		.loc 1 315 9 is_stmt 1 view .LVU278
 316:Lib/lvgl/src/widgets/tabview/lv_tabview.c **** 
 1109              		.loc 1 316 9 view .LVU279
 1110 0044 02A9     		add	r1, sp, #8
 1111 0046 2846     		mov	r0, r5
 1112              	.LVL152:
 316:Lib/lvgl/src/widgets/tabview/lv_tabview.c **** 
 1113              		.loc 1 316 9 is_stmt 0 view .LVU280
 1114 0048 FFF7FEFF 		bl	lv_obj_get_scroll_end
 1115              	.LVL153:
 318:Lib/lvgl/src/widgets/tabview/lv_tabview.c ****         if((tv_obj->tab_pos & LV_DIR_VER) != 0) {
 1116              		.loc 1 318 9 is_stmt 1 view .LVU281
 319:Lib/lvgl/src/widgets/tabview/lv_tabview.c ****             int32_t w = lv_obj_get_content_width(cont);
 1117              		.loc 1 319 9 view .LVU282
 319:Lib/lvgl/src/widgets/tabview/lv_tabview.c ****             int32_t w = lv_obj_get_content_width(cont);
 1118              		.loc 1 319 19 is_stmt 0 view .LVU283
 1119 004c 96F83030 		ldrb	r3, [r6, #48]	@ zero_extendqisi2
 319:Lib/lvgl/src/widgets/tabview/lv_tabview.c ****             int32_t w = lv_obj_get_content_width(cont);
 1120              		.loc 1 319 11 view .LVU284
 1121 0050 13F00C0F 		tst	r3, #12
 1122 0054 1CD0     		beq	.L66
 1123              	.LBB42:
 320:Lib/lvgl/src/widgets/tabview/lv_tabview.c ****             if(lv_obj_get_style_base_dir(tv, LV_PART_MAIN) == LV_BASE_DIR_RTL)  t = -(p.x - w / 2) 
 1124              		.loc 1 320 13 is_stmt 1 view .LVU285
 320:Lib/lvgl/src/widgets/tabview/lv_tabview.c ****             if(lv_obj_get_style_base_dir(tv, LV_PART_MAIN) == LV_BASE_DIR_RTL)  t = -(p.x - w / 2) 
 1125              		.loc 1 320 25 is_stmt 0 view .LVU286
ARM GAS  C:\Users\Alex\AppData\Local\Temp\ccBm5uex.s 			page 41


 1126 0056 2846     		mov	r0, r5
 1127 0058 FFF7FEFF 		bl	lv_obj_get_content_width
 1128              	.LVL154:
 1129 005c 0446     		mov	r4, r0
 1130              	.LVL155:
 321:Lib/lvgl/src/widgets/tabview/lv_tabview.c ****             else t = (p.x + w / 2) / w;
 1131              		.loc 1 321 13 is_stmt 1 view .LVU287
 1132              	.LBB43:
 1133              	.LBI43:
 634:Lib/lvgl/src/widgets/tabview/../../../src/core/lv_obj_style_gen.h **** {
 1134              		.loc 2 634 29 view .LVU288
 1135              	.LBB44:
 636:Lib/lvgl/src/widgets/tabview/../../../src/core/lv_obj_style_gen.h ****     return (lv_base_dir_t)v.num;
 1136              		.loc 2 636 5 view .LVU289
 636:Lib/lvgl/src/widgets/tabview/../../../src/core/lv_obj_style_gen.h ****     return (lv_base_dir_t)v.num;
 1137              		.loc 2 636 26 is_stmt 0 view .LVU290
 1138 005e 2722     		movs	r2, #39
 1139 0060 0021     		movs	r1, #0
 1140 0062 3046     		mov	r0, r6
 1141              	.LVL156:
 636:Lib/lvgl/src/widgets/tabview/../../../src/core/lv_obj_style_gen.h ****     return (lv_base_dir_t)v.num;
 1142              		.loc 2 636 26 view .LVU291
 1143 0064 FFF7FEFF 		bl	lv_obj_get_style_prop
 1144              	.LVL157:
 1145 0068 0190     		str	r0, [sp, #4]
 1146              		.loc 2 637 5 is_stmt 1 view .LVU292
 1147              		.loc 2 637 12 is_stmt 0 view .LVU293
 1148 006a C0B2     		uxtb	r0, r0
 1149              	.LVL158:
 1150              		.loc 2 637 12 view .LVU294
 1151              	.LBE44:
 1152              	.LBE43:
 321:Lib/lvgl/src/widgets/tabview/lv_tabview.c ****             else t = (p.x + w / 2) / w;
 1153              		.loc 1 321 15 view .LVU295
 1154 006c 0128     		cmp	r0, #1
 1155 006e 07D0     		beq	.L79
 322:Lib/lvgl/src/widgets/tabview/lv_tabview.c ****         }
 1156              		.loc 1 322 18 is_stmt 1 view .LVU296
 322:Lib/lvgl/src/widgets/tabview/lv_tabview.c ****         }
 1157              		.loc 1 322 31 is_stmt 0 view .LVU297
 1158 0070 04EBD472 		add	r2, r4, r4, lsr #31
 322:Lib/lvgl/src/widgets/tabview/lv_tabview.c ****         }
 1159              		.loc 1 322 27 view .LVU298
 1160 0074 029B     		ldr	r3, [sp, #8]
 1161 0076 03EB6203 		add	r3, r3, r2, asr #1
 322:Lib/lvgl/src/widgets/tabview/lv_tabview.c ****         }
 1162              		.loc 1 322 20 view .LVU299
 1163 007a 93FBF4F4 		sdiv	r4, r3, r4
 1164              	.LVL159:
 322:Lib/lvgl/src/widgets/tabview/lv_tabview.c ****         }
 1165              		.loc 1 322 20 view .LVU300
 1166 007e 11E0     		b	.L68
 1167              	.LVL160:
 1168              	.L79:
 321:Lib/lvgl/src/widgets/tabview/lv_tabview.c ****             else t = (p.x + w / 2) / w;
 1169              		.loc 1 321 81 is_stmt 1 discriminator 1 view .LVU301
 321:Lib/lvgl/src/widgets/tabview/lv_tabview.c ****             else t = (p.x + w / 2) / w;
ARM GAS  C:\Users\Alex\AppData\Local\Temp\ccBm5uex.s 			page 42


 1170              		.loc 1 321 95 is_stmt 0 discriminator 1 view .LVU302
 1171 0080 04EBD472 		add	r2, r4, r4, lsr #31
 321:Lib/lvgl/src/widgets/tabview/lv_tabview.c ****             else t = (p.x + w / 2) / w;
 1172              		.loc 1 321 88 discriminator 1 view .LVU303
 1173 0084 029B     		ldr	r3, [sp, #8]
 321:Lib/lvgl/src/widgets/tabview/lv_tabview.c ****             else t = (p.x + w / 2) / w;
 1174              		.loc 1 321 85 discriminator 1 view .LVU304
 1175 0086 C3EB6203 		rsb	r3, r3, r2, asr #1
 321:Lib/lvgl/src/widgets/tabview/lv_tabview.c ****             else t = (p.x + w / 2) / w;
 1176              		.loc 1 321 83 discriminator 1 view .LVU305
 1177 008a 93FBF4F4 		sdiv	r4, r3, r4
 1178              	.LVL161:
 321:Lib/lvgl/src/widgets/tabview/lv_tabview.c ****             else t = (p.x + w / 2) / w;
 1179              		.loc 1 321 83 discriminator 1 view .LVU306
 1180 008e 09E0     		b	.L68
 1181              	.LVL162:
 1182              	.L66:
 321:Lib/lvgl/src/widgets/tabview/lv_tabview.c ****             else t = (p.x + w / 2) / w;
 1183              		.loc 1 321 83 discriminator 1 view .LVU307
 1184              	.LBE42:
 1185              	.LBB45:
 325:Lib/lvgl/src/widgets/tabview/lv_tabview.c ****             t = (p.y + h / 2) / h;
 1186              		.loc 1 325 13 is_stmt 1 view .LVU308
 325:Lib/lvgl/src/widgets/tabview/lv_tabview.c ****             t = (p.y + h / 2) / h;
 1187              		.loc 1 325 25 is_stmt 0 view .LVU309
 1188 0090 2846     		mov	r0, r5
 1189 0092 FFF7FEFF 		bl	lv_obj_get_content_height
 1190              	.LVL163:
 326:Lib/lvgl/src/widgets/tabview/lv_tabview.c ****         }
 1191              		.loc 1 326 13 is_stmt 1 view .LVU310
 326:Lib/lvgl/src/widgets/tabview/lv_tabview.c ****         }
 1192              		.loc 1 326 26 is_stmt 0 view .LVU311
 1193 0096 00EBD073 		add	r3, r0, r0, lsr #31
 326:Lib/lvgl/src/widgets/tabview/lv_tabview.c ****         }
 1194              		.loc 1 326 22 view .LVU312
 1195 009a 039C     		ldr	r4, [sp, #12]
 1196              	.LVL164:
 326:Lib/lvgl/src/widgets/tabview/lv_tabview.c ****         }
 1197              		.loc 1 326 22 view .LVU313
 1198 009c 04EB6304 		add	r4, r4, r3, asr #1
 326:Lib/lvgl/src/widgets/tabview/lv_tabview.c ****         }
 1199              		.loc 1 326 15 view .LVU314
 1200 00a0 94FBF0F4 		sdiv	r4, r4, r0
 1201              	.LVL165:
 1202              	.L68:
 326:Lib/lvgl/src/widgets/tabview/lv_tabview.c ****         }
 1203              		.loc 1 326 15 view .LVU315
 1204              	.LBE45:
 329:Lib/lvgl/src/widgets/tabview/lv_tabview.c ****         bool new_tab = false;
 1205              		.loc 1 329 9 is_stmt 1 view .LVU316
 329:Lib/lvgl/src/widgets/tabview/lv_tabview.c ****         bool new_tab = false;
 1206              		.loc 1 329 11 is_stmt 0 view .LVU317
 1207 00a4 002C     		cmp	r4, #0
 1208 00a6 16DB     		blt	.L80
 1209              	.LVL166:
 1210              	.L69:
 330:Lib/lvgl/src/widgets/tabview/lv_tabview.c ****         if(t != (int32_t)lv_tabview_get_tab_active(tv)) new_tab = true;
ARM GAS  C:\Users\Alex\AppData\Local\Temp\ccBm5uex.s 			page 43


 1211              		.loc 1 330 9 is_stmt 1 view .LVU318
 331:Lib/lvgl/src/widgets/tabview/lv_tabview.c **** 
 1212              		.loc 1 331 9 view .LVU319
 331:Lib/lvgl/src/widgets/tabview/lv_tabview.c **** 
 1213              		.loc 1 331 26 is_stmt 0 view .LVU320
 1214 00a8 3046     		mov	r0, r6
 1215 00aa FFF7FEFF 		bl	lv_tabview_get_tab_active
 1216              	.LVL167:
 331:Lib/lvgl/src/widgets/tabview/lv_tabview.c **** 
 1217              		.loc 1 331 14 view .LVU321
 1218 00ae 2546     		mov	r5, r4
 1219              	.LVL168:
 331:Lib/lvgl/src/widgets/tabview/lv_tabview.c **** 
 1220              		.loc 1 331 11 view .LVU322
 1221 00b0 A042     		cmp	r0, r4
 1222 00b2 12D0     		beq	.L81
 331:Lib/lvgl/src/widgets/tabview/lv_tabview.c **** 
 1223              		.loc 1 331 65 view .LVU323
 1224 00b4 0124     		movs	r4, #1
 1225              	.LVL169:
 1226              	.L70:
 334:Lib/lvgl/src/widgets/tabview/lv_tabview.c ****             lv_tabview_set_active(tv, t, LV_ANIM_ON);
 1227              		.loc 1 334 9 is_stmt 1 view .LVU324
 334:Lib/lvgl/src/widgets/tabview/lv_tabview.c ****             lv_tabview_set_active(tv, t, LV_ANIM_ON);
 1228              		.loc 1 334 12 is_stmt 0 view .LVU325
 1229 00b6 FFF7FEFF 		bl	lv_indev_active
 1230              	.LVL170:
 334:Lib/lvgl/src/widgets/tabview/lv_tabview.c ****             lv_tabview_set_active(tv, t, LV_ANIM_ON);
 1231              		.loc 1 334 11 view .LVU326
 1232 00ba 80B1     		cbz	r0, .L71
 335:Lib/lvgl/src/widgets/tabview/lv_tabview.c ****         }
 1233              		.loc 1 335 13 is_stmt 1 view .LVU327
 1234 00bc 0122     		movs	r2, #1
 1235 00be 2946     		mov	r1, r5
 1236 00c0 3046     		mov	r0, r6
 1237 00c2 FFF7FEFF 		bl	lv_tabview_set_active
 1238              	.LVL171:
 1239              	.L72:
 341:Lib/lvgl/src/widgets/tabview/lv_tabview.c ****     }
 1240              		.loc 1 341 9 view .LVU328
 341:Lib/lvgl/src/widgets/tabview/lv_tabview.c ****     }
 1241              		.loc 1 341 11 is_stmt 0 view .LVU329
 1242 00c6 002C     		cmp	r4, #0
 1243 00c8 ACD0     		beq	.L62
 341:Lib/lvgl/src/widgets/tabview/lv_tabview.c ****     }
 1244              		.loc 1 341 21 is_stmt 1 discriminator 1 view .LVU330
 1245 00ca 0022     		movs	r2, #0
 1246 00cc 1D21     		movs	r1, #29
 1247 00ce 3046     		mov	r0, r6
 1248 00d0 FFF7FEFF 		bl	lv_obj_send_event
 1249              	.LVL172:
 1250 00d4 A6E7     		b	.L62
 1251              	.LVL173:
 1252              	.L80:
 329:Lib/lvgl/src/widgets/tabview/lv_tabview.c ****         bool new_tab = false;
 1253              		.loc 1 329 21 is_stmt 0 view .LVU331
 1254 00d6 0024     		movs	r4, #0
ARM GAS  C:\Users\Alex\AppData\Local\Temp\ccBm5uex.s 			page 44


 1255              	.LVL174:
 329:Lib/lvgl/src/widgets/tabview/lv_tabview.c ****         bool new_tab = false;
 1256              		.loc 1 329 21 view .LVU332
 1257 00d8 E6E7     		b	.L69
 1258              	.LVL175:
 1259              	.L81:
 330:Lib/lvgl/src/widgets/tabview/lv_tabview.c ****         if(t != (int32_t)lv_tabview_get_tab_active(tv)) new_tab = true;
 1260              		.loc 1 330 14 view .LVU333
 1261 00da 0024     		movs	r4, #0
 1262              	.LVL176:
 330:Lib/lvgl/src/widgets/tabview/lv_tabview.c ****         if(t != (int32_t)lv_tabview_get_tab_active(tv)) new_tab = true;
 1263              		.loc 1 330 14 view .LVU334
 1264 00dc EBE7     		b	.L70
 1265              	.LVL177:
 1266              	.L71:
 338:Lib/lvgl/src/widgets/tabview/lv_tabview.c ****         }
 1267              		.loc 1 338 13 is_stmt 1 view .LVU335
 1268 00de 0022     		movs	r2, #0
 1269 00e0 2946     		mov	r1, r5
 1270 00e2 3046     		mov	r0, r6
 1271 00e4 FFF7FEFF 		bl	lv_tabview_set_active
 1272              	.LVL178:
 1273 00e8 EDE7     		b	.L72
 1274              	.LBE41:
 1275              		.cfi_endproc
 1276              	.LFE269:
 1278              		.section	.text.button_clicked_event_cb,"ax",%progbits
 1279              		.align	1
 1280              		.syntax unified
 1281              		.thumb
 1282              		.thumb_func
 1284              	button_clicked_event_cb:
 1285              	.LVL179:
 1286              	.LFB268:
 291:Lib/lvgl/src/widgets/tabview/lv_tabview.c ****     lv_obj_t * button = lv_event_get_current_target(e);
 1287              		.loc 1 291 1 view -0
 1288              		.cfi_startproc
 1289              		@ args = 0, pretend = 0, frame = 0
 1290              		@ frame_needed = 0, uses_anonymous_args = 0
 291:Lib/lvgl/src/widgets/tabview/lv_tabview.c ****     lv_obj_t * button = lv_event_get_current_target(e);
 1291              		.loc 1 291 1 is_stmt 0 view .LVU337
 1292 0000 38B5     		push	{r3, r4, r5, lr}
 1293              	.LCFI16:
 1294              		.cfi_def_cfa_offset 16
 1295              		.cfi_offset 3, -16
 1296              		.cfi_offset 4, -12
 1297              		.cfi_offset 5, -8
 1298              		.cfi_offset 14, -4
 292:Lib/lvgl/src/widgets/tabview/lv_tabview.c **** 
 1299              		.loc 1 292 5 is_stmt 1 view .LVU338
 292:Lib/lvgl/src/widgets/tabview/lv_tabview.c **** 
 1300              		.loc 1 292 25 is_stmt 0 view .LVU339
 1301 0002 FFF7FEFF 		bl	lv_event_get_current_target
 1302              	.LVL180:
 292:Lib/lvgl/src/widgets/tabview/lv_tabview.c **** 
 1303              		.loc 1 292 25 view .LVU340
 1304 0006 0546     		mov	r5, r0
ARM GAS  C:\Users\Alex\AppData\Local\Temp\ccBm5uex.s 			page 45


 1305              	.LVL181:
 294:Lib/lvgl/src/widgets/tabview/lv_tabview.c ****     int32_t idx = lv_obj_get_index_by_type(button, &lv_button_class);
 1306              		.loc 1 294 5 is_stmt 1 view .LVU341
 294:Lib/lvgl/src/widgets/tabview/lv_tabview.c ****     int32_t idx = lv_obj_get_index_by_type(button, &lv_button_class);
 1307              		.loc 1 294 39 is_stmt 0 view .LVU342
 1308 0008 FFF7FEFF 		bl	lv_obj_get_parent
 1309              	.LVL182:
 294:Lib/lvgl/src/widgets/tabview/lv_tabview.c ****     int32_t idx = lv_obj_get_index_by_type(button, &lv_button_class);
 1310              		.loc 1 294 21 view .LVU343
 1311 000c FFF7FEFF 		bl	lv_obj_get_parent
 1312              	.LVL183:
 1313 0010 0446     		mov	r4, r0
 1314              	.LVL184:
 295:Lib/lvgl/src/widgets/tabview/lv_tabview.c ****     lv_tabview_set_active(tv, idx, LV_ANIM_OFF);
 1315              		.loc 1 295 5 is_stmt 1 view .LVU344
 295:Lib/lvgl/src/widgets/tabview/lv_tabview.c ****     lv_tabview_set_active(tv, idx, LV_ANIM_OFF);
 1316              		.loc 1 295 19 is_stmt 0 view .LVU345
 1317 0012 0549     		ldr	r1, .L84
 1318 0014 2846     		mov	r0, r5
 1319              	.LVL185:
 295:Lib/lvgl/src/widgets/tabview/lv_tabview.c ****     lv_tabview_set_active(tv, idx, LV_ANIM_OFF);
 1320              		.loc 1 295 19 view .LVU346
 1321 0016 FFF7FEFF 		bl	lv_obj_get_index_by_type
 1322              	.LVL186:
 1323 001a 0146     		mov	r1, r0
 1324              	.LVL187:
 296:Lib/lvgl/src/widgets/tabview/lv_tabview.c **** }
 1325              		.loc 1 296 5 is_stmt 1 view .LVU347
 1326 001c 0022     		movs	r2, #0
 1327 001e 2046     		mov	r0, r4
 1328              	.LVL188:
 296:Lib/lvgl/src/widgets/tabview/lv_tabview.c **** }
 1329              		.loc 1 296 5 is_stmt 0 view .LVU348
 1330 0020 FFF7FEFF 		bl	lv_tabview_set_active
 1331              	.LVL189:
 297:Lib/lvgl/src/widgets/tabview/lv_tabview.c **** 
 1332              		.loc 1 297 1 view .LVU349
 1333 0024 38BD     		pop	{r3, r4, r5, pc}
 1334              	.LVL190:
 1335              	.L85:
 297:Lib/lvgl/src/widgets/tabview/lv_tabview.c **** 
 1336              		.loc 1 297 1 view .LVU350
 1337 0026 00BF     		.align	2
 1338              	.L84:
 1339 0028 00000000 		.word	lv_button_class
 1340              		.cfi_endproc
 1341              	.LFE268:
 1343              		.section	.text.lv_tabview_add_tab,"ax",%progbits
 1344              		.align	1
 1345              		.global	lv_tabview_add_tab
 1346              		.syntax unified
 1347              		.thumb
 1348              		.thumb_func
 1350              	lv_tabview_add_tab:
 1351              	.LVL191:
 1352              	.LFB257:
  68:Lib/lvgl/src/widgets/tabview/lv_tabview.c ****     LV_ASSERT_OBJ(obj, MY_CLASS);
ARM GAS  C:\Users\Alex\AppData\Local\Temp\ccBm5uex.s 			page 46


 1353              		.loc 1 68 1 is_stmt 1 view -0
 1354              		.cfi_startproc
 1355              		@ args = 0, pretend = 0, frame = 0
 1356              		@ frame_needed = 0, uses_anonymous_args = 0
  68:Lib/lvgl/src/widgets/tabview/lv_tabview.c ****     LV_ASSERT_OBJ(obj, MY_CLASS);
 1357              		.loc 1 68 1 is_stmt 0 view .LVU352
 1358 0000 2DE9F843 		push	{r3, r4, r5, r6, r7, r8, r9, lr}
 1359              	.LCFI17:
 1360              		.cfi_def_cfa_offset 32
 1361              		.cfi_offset 3, -32
 1362              		.cfi_offset 4, -28
 1363              		.cfi_offset 5, -24
 1364              		.cfi_offset 6, -20
 1365              		.cfi_offset 7, -16
 1366              		.cfi_offset 8, -12
 1367              		.cfi_offset 9, -8
 1368              		.cfi_offset 14, -4
 1369 0004 0646     		mov	r6, r0
 1370 0006 8946     		mov	r9, r1
  69:Lib/lvgl/src/widgets/tabview/lv_tabview.c ****     lv_obj_t * cont = lv_tabview_get_content(obj);
 1371              		.loc 1 69 5 is_stmt 1 view .LVU353
  69:Lib/lvgl/src/widgets/tabview/lv_tabview.c ****     lv_obj_t * cont = lv_tabview_get_content(obj);
 1372              		.loc 1 69 5 view .LVU354
  69:Lib/lvgl/src/widgets/tabview/lv_tabview.c ****     lv_obj_t * cont = lv_tabview_get_content(obj);
 1373              		.loc 1 69 5 view .LVU355
  70:Lib/lvgl/src/widgets/tabview/lv_tabview.c **** 
 1374              		.loc 1 70 5 view .LVU356
  70:Lib/lvgl/src/widgets/tabview/lv_tabview.c **** 
 1375              		.loc 1 70 23 is_stmt 0 view .LVU357
 1376 0008 FFF7FEFF 		bl	lv_tabview_get_content
 1377              	.LVL192:
  70:Lib/lvgl/src/widgets/tabview/lv_tabview.c **** 
 1378              		.loc 1 70 23 view .LVU358
 1379 000c 0446     		mov	r4, r0
 1380              	.LVL193:
  72:Lib/lvgl/src/widgets/tabview/lv_tabview.c ****     lv_obj_set_size(page, lv_pct(100), lv_pct(100));
 1381              		.loc 1 72 5 is_stmt 1 view .LVU359
  72:Lib/lvgl/src/widgets/tabview/lv_tabview.c ****     lv_obj_set_size(page, lv_pct(100), lv_pct(100));
 1382              		.loc 1 72 23 is_stmt 0 view .LVU360
 1383 000e FFF7FEFF 		bl	lv_obj_create
 1384              	.LVL194:
  72:Lib/lvgl/src/widgets/tabview/lv_tabview.c ****     lv_obj_set_size(page, lv_pct(100), lv_pct(100));
 1385              		.loc 1 72 23 view .LVU361
 1386 0012 0746     		mov	r7, r0
 1387              	.LVL195:
  73:Lib/lvgl/src/widgets/tabview/lv_tabview.c ****     uint32_t tab_idx = lv_obj_get_child_count(cont);
 1388              		.loc 1 73 5 is_stmt 1 view .LVU362
 1389 0014 1D4D     		ldr	r5, .L91
 1390 0016 2A46     		mov	r2, r5
 1391 0018 2946     		mov	r1, r5
 1392 001a FFF7FEFF 		bl	lv_obj_set_size
 1393              	.LVL196:
  74:Lib/lvgl/src/widgets/tabview/lv_tabview.c **** 
 1394              		.loc 1 74 5 view .LVU363
  74:Lib/lvgl/src/widgets/tabview/lv_tabview.c **** 
 1395              		.loc 1 74 24 is_stmt 0 view .LVU364
 1396 001e 2046     		mov	r0, r4
ARM GAS  C:\Users\Alex\AppData\Local\Temp\ccBm5uex.s 			page 47


 1397 0020 FFF7FEFF 		bl	lv_obj_get_child_count
 1398              	.LVL197:
 1399 0024 8046     		mov	r8, r0
 1400              	.LVL198:
  76:Lib/lvgl/src/widgets/tabview/lv_tabview.c **** 
 1401              		.loc 1 76 5 is_stmt 1 view .LVU365
  76:Lib/lvgl/src/widgets/tabview/lv_tabview.c **** 
 1402              		.loc 1 76 26 is_stmt 0 view .LVU366
 1403 0026 3046     		mov	r0, r6
 1404              	.LVL199:
  76:Lib/lvgl/src/widgets/tabview/lv_tabview.c **** 
 1405              		.loc 1 76 26 view .LVU367
 1406 0028 FFF7FEFF 		bl	lv_tabview_get_tab_bar
 1407              	.LVL200:
  78:Lib/lvgl/src/widgets/tabview/lv_tabview.c ****     lv_obj_set_flex_grow(button, 1);
 1408              		.loc 1 78 5 is_stmt 1 view .LVU368
  78:Lib/lvgl/src/widgets/tabview/lv_tabview.c ****     lv_obj_set_flex_grow(button, 1);
 1409              		.loc 1 78 25 is_stmt 0 view .LVU369
 1410 002c FFF7FEFF 		bl	lv_button_create
 1411              	.LVL201:
  78:Lib/lvgl/src/widgets/tabview/lv_tabview.c ****     lv_obj_set_flex_grow(button, 1);
 1412              		.loc 1 78 25 view .LVU370
 1413 0030 0446     		mov	r4, r0
 1414              	.LVL202:
  79:Lib/lvgl/src/widgets/tabview/lv_tabview.c ****     lv_obj_set_size(button, lv_pct(100), lv_pct(100));
 1415              		.loc 1 79 5 is_stmt 1 view .LVU371
 1416 0032 0121     		movs	r1, #1
 1417 0034 FFF7FEFF 		bl	lv_obj_set_flex_grow
 1418              	.LVL203:
  80:Lib/lvgl/src/widgets/tabview/lv_tabview.c ****     lv_obj_add_event_cb(button, button_clicked_event_cb, LV_EVENT_CLICKED, NULL);
 1419              		.loc 1 80 5 view .LVU372
 1420 0038 2A46     		mov	r2, r5
 1421 003a 2946     		mov	r1, r5
 1422 003c 2046     		mov	r0, r4
 1423 003e FFF7FEFF 		bl	lv_obj_set_size
 1424              	.LVL204:
  81:Lib/lvgl/src/widgets/tabview/lv_tabview.c ****     lv_group_t * g = lv_group_get_default();
 1425              		.loc 1 81 5 view .LVU373
 1426 0042 0023     		movs	r3, #0
 1427 0044 0722     		movs	r2, #7
 1428 0046 1249     		ldr	r1, .L91+4
 1429 0048 2046     		mov	r0, r4
 1430 004a FFF7FEFF 		bl	lv_obj_add_event_cb
 1431              	.LVL205:
  82:Lib/lvgl/src/widgets/tabview/lv_tabview.c ****     if(g) lv_group_add_obj(g, button);
 1432              		.loc 1 82 5 view .LVU374
  82:Lib/lvgl/src/widgets/tabview/lv_tabview.c ****     if(g) lv_group_add_obj(g, button);
 1433              		.loc 1 82 22 is_stmt 0 view .LVU375
 1434 004e FFF7FEFF 		bl	lv_group_get_default
 1435              	.LVL206:
  83:Lib/lvgl/src/widgets/tabview/lv_tabview.c **** 
 1436              		.loc 1 83 5 is_stmt 1 view .LVU376
  83:Lib/lvgl/src/widgets/tabview/lv_tabview.c **** 
 1437              		.loc 1 83 7 is_stmt 0 view .LVU377
 1438 0052 10B1     		cbz	r0, .L87
  83:Lib/lvgl/src/widgets/tabview/lv_tabview.c **** 
 1439              		.loc 1 83 11 is_stmt 1 discriminator 1 view .LVU378
ARM GAS  C:\Users\Alex\AppData\Local\Temp\ccBm5uex.s 			page 48


 1440 0054 2146     		mov	r1, r4
 1441 0056 FFF7FEFF 		bl	lv_group_add_obj
 1442              	.LVL207:
 1443              	.L87:
  85:Lib/lvgl/src/widgets/tabview/lv_tabview.c ****     lv_label_set_text(label, name);
 1444              		.loc 1 85 5 view .LVU379
  85:Lib/lvgl/src/widgets/tabview/lv_tabview.c ****     lv_label_set_text(label, name);
 1445              		.loc 1 85 24 is_stmt 0 view .LVU380
 1446 005a 2046     		mov	r0, r4
 1447 005c FFF7FEFF 		bl	lv_label_create
 1448              	.LVL208:
 1449 0060 0446     		mov	r4, r0
 1450              	.LVL209:
  86:Lib/lvgl/src/widgets/tabview/lv_tabview.c ****     lv_obj_center(label);
 1451              		.loc 1 86 5 is_stmt 1 view .LVU381
 1452 0062 4946     		mov	r1, r9
 1453 0064 FFF7FEFF 		bl	lv_label_set_text
 1454              	.LVL210:
  87:Lib/lvgl/src/widgets/tabview/lv_tabview.c **** 
 1455              		.loc 1 87 5 view .LVU382
 1456              	.LBB46:
 1457              	.LBI46:
 1458              		.file 3 "Lib/lvgl/src/widgets/tabview/../../../src/core/lv_obj_pos.h"
   1:Lib/lvgl/src/widgets/tabview/../../../src/core/lv_obj_pos.h **** /**
   2:Lib/lvgl/src/widgets/tabview/../../../src/core/lv_obj_pos.h ****  * @file lv_obj_pos.h
   3:Lib/lvgl/src/widgets/tabview/../../../src/core/lv_obj_pos.h ****  *
   4:Lib/lvgl/src/widgets/tabview/../../../src/core/lv_obj_pos.h ****  */
   5:Lib/lvgl/src/widgets/tabview/../../../src/core/lv_obj_pos.h **** 
   6:Lib/lvgl/src/widgets/tabview/../../../src/core/lv_obj_pos.h **** #ifndef LV_OBJ_POS_H
   7:Lib/lvgl/src/widgets/tabview/../../../src/core/lv_obj_pos.h **** #define LV_OBJ_POS_H
   8:Lib/lvgl/src/widgets/tabview/../../../src/core/lv_obj_pos.h **** 
   9:Lib/lvgl/src/widgets/tabview/../../../src/core/lv_obj_pos.h **** #ifdef __cplusplus
  10:Lib/lvgl/src/widgets/tabview/../../../src/core/lv_obj_pos.h **** extern "C" {
  11:Lib/lvgl/src/widgets/tabview/../../../src/core/lv_obj_pos.h **** #endif
  12:Lib/lvgl/src/widgets/tabview/../../../src/core/lv_obj_pos.h **** 
  13:Lib/lvgl/src/widgets/tabview/../../../src/core/lv_obj_pos.h **** /*********************
  14:Lib/lvgl/src/widgets/tabview/../../../src/core/lv_obj_pos.h ****  *      INCLUDES
  15:Lib/lvgl/src/widgets/tabview/../../../src/core/lv_obj_pos.h ****  *********************/
  16:Lib/lvgl/src/widgets/tabview/../../../src/core/lv_obj_pos.h **** #include "../misc/lv_area.h"
  17:Lib/lvgl/src/widgets/tabview/../../../src/core/lv_obj_pos.h **** 
  18:Lib/lvgl/src/widgets/tabview/../../../src/core/lv_obj_pos.h **** /*********************
  19:Lib/lvgl/src/widgets/tabview/../../../src/core/lv_obj_pos.h ****  *      DEFINES
  20:Lib/lvgl/src/widgets/tabview/../../../src/core/lv_obj_pos.h ****  *********************/
  21:Lib/lvgl/src/widgets/tabview/../../../src/core/lv_obj_pos.h **** 
  22:Lib/lvgl/src/widgets/tabview/../../../src/core/lv_obj_pos.h **** /**********************
  23:Lib/lvgl/src/widgets/tabview/../../../src/core/lv_obj_pos.h ****  *      TYPEDEFS
  24:Lib/lvgl/src/widgets/tabview/../../../src/core/lv_obj_pos.h ****  **********************/
  25:Lib/lvgl/src/widgets/tabview/../../../src/core/lv_obj_pos.h **** 
  26:Lib/lvgl/src/widgets/tabview/../../../src/core/lv_obj_pos.h **** /**********************
  27:Lib/lvgl/src/widgets/tabview/../../../src/core/lv_obj_pos.h ****  * GLOBAL PROTOTYPES
  28:Lib/lvgl/src/widgets/tabview/../../../src/core/lv_obj_pos.h ****  **********************/
  29:Lib/lvgl/src/widgets/tabview/../../../src/core/lv_obj_pos.h **** 
  30:Lib/lvgl/src/widgets/tabview/../../../src/core/lv_obj_pos.h **** /**
  31:Lib/lvgl/src/widgets/tabview/../../../src/core/lv_obj_pos.h ****  * Set the position of an object relative to the set alignment.
  32:Lib/lvgl/src/widgets/tabview/../../../src/core/lv_obj_pos.h ****  * @param obj       pointer to an object
  33:Lib/lvgl/src/widgets/tabview/../../../src/core/lv_obj_pos.h ****  * @param x         new x coordinate
  34:Lib/lvgl/src/widgets/tabview/../../../src/core/lv_obj_pos.h ****  * @param y         new y coordinate
ARM GAS  C:\Users\Alex\AppData\Local\Temp\ccBm5uex.s 			page 49


  35:Lib/lvgl/src/widgets/tabview/../../../src/core/lv_obj_pos.h ****  * @note            With default alignment it's the distance from the top left corner
  36:Lib/lvgl/src/widgets/tabview/../../../src/core/lv_obj_pos.h ****  * @note            E.g. LV_ALIGN_CENTER alignment it's the offset from the center of the parent
  37:Lib/lvgl/src/widgets/tabview/../../../src/core/lv_obj_pos.h ****  * @note            The position is interpreted on the content area of the parent
  38:Lib/lvgl/src/widgets/tabview/../../../src/core/lv_obj_pos.h ****  * @note            The values can be set in pixel or in percentage of parent size with `lv_pct(v)`
  39:Lib/lvgl/src/widgets/tabview/../../../src/core/lv_obj_pos.h ****  */
  40:Lib/lvgl/src/widgets/tabview/../../../src/core/lv_obj_pos.h **** void lv_obj_set_pos(lv_obj_t * obj, int32_t x, int32_t y);
  41:Lib/lvgl/src/widgets/tabview/../../../src/core/lv_obj_pos.h **** 
  42:Lib/lvgl/src/widgets/tabview/../../../src/core/lv_obj_pos.h **** /**
  43:Lib/lvgl/src/widgets/tabview/../../../src/core/lv_obj_pos.h ****  * Set the x coordinate of an object
  44:Lib/lvgl/src/widgets/tabview/../../../src/core/lv_obj_pos.h ****  * @param obj       pointer to an object
  45:Lib/lvgl/src/widgets/tabview/../../../src/core/lv_obj_pos.h ****  * @param x         new x coordinate
  46:Lib/lvgl/src/widgets/tabview/../../../src/core/lv_obj_pos.h ****  * @note            With default alignment it's the distance from the top left corner
  47:Lib/lvgl/src/widgets/tabview/../../../src/core/lv_obj_pos.h ****  * @note            E.g. LV_ALIGN_CENTER alignment it's the offset from the center of the parent
  48:Lib/lvgl/src/widgets/tabview/../../../src/core/lv_obj_pos.h ****  * @note            The position is interpreted on the content area of the parent
  49:Lib/lvgl/src/widgets/tabview/../../../src/core/lv_obj_pos.h ****  * @note            The values can be set in pixel or in percentage of parent size with `lv_pct(v)`
  50:Lib/lvgl/src/widgets/tabview/../../../src/core/lv_obj_pos.h ****  */
  51:Lib/lvgl/src/widgets/tabview/../../../src/core/lv_obj_pos.h **** void lv_obj_set_x(lv_obj_t * obj, int32_t x);
  52:Lib/lvgl/src/widgets/tabview/../../../src/core/lv_obj_pos.h **** 
  53:Lib/lvgl/src/widgets/tabview/../../../src/core/lv_obj_pos.h **** /**
  54:Lib/lvgl/src/widgets/tabview/../../../src/core/lv_obj_pos.h ****  * Set the y coordinate of an object
  55:Lib/lvgl/src/widgets/tabview/../../../src/core/lv_obj_pos.h ****  * @param obj       pointer to an object
  56:Lib/lvgl/src/widgets/tabview/../../../src/core/lv_obj_pos.h ****  * @param y         new y coordinate
  57:Lib/lvgl/src/widgets/tabview/../../../src/core/lv_obj_pos.h ****  * @note            With default alignment it's the distance from the top left corner
  58:Lib/lvgl/src/widgets/tabview/../../../src/core/lv_obj_pos.h ****  * @note            E.g. LV_ALIGN_CENTER alignment it's the offset from the center of the parent
  59:Lib/lvgl/src/widgets/tabview/../../../src/core/lv_obj_pos.h ****  * @note            The position is interpreted on the content area of the parent
  60:Lib/lvgl/src/widgets/tabview/../../../src/core/lv_obj_pos.h ****  * @note            The values can be set in pixel or in percentage of parent size with `lv_pct(v)`
  61:Lib/lvgl/src/widgets/tabview/../../../src/core/lv_obj_pos.h ****  */
  62:Lib/lvgl/src/widgets/tabview/../../../src/core/lv_obj_pos.h **** void lv_obj_set_y(lv_obj_t * obj, int32_t y);
  63:Lib/lvgl/src/widgets/tabview/../../../src/core/lv_obj_pos.h **** 
  64:Lib/lvgl/src/widgets/tabview/../../../src/core/lv_obj_pos.h **** /**
  65:Lib/lvgl/src/widgets/tabview/../../../src/core/lv_obj_pos.h ****  * Set the size of an object.
  66:Lib/lvgl/src/widgets/tabview/../../../src/core/lv_obj_pos.h ****  * @param obj       pointer to an object
  67:Lib/lvgl/src/widgets/tabview/../../../src/core/lv_obj_pos.h ****  * @param w         the new width
  68:Lib/lvgl/src/widgets/tabview/../../../src/core/lv_obj_pos.h ****  * @param h         the new height
  69:Lib/lvgl/src/widgets/tabview/../../../src/core/lv_obj_pos.h ****  * @note            possible values are:
  70:Lib/lvgl/src/widgets/tabview/../../../src/core/lv_obj_pos.h ****  *                  pixel               simple set the size accordingly
  71:Lib/lvgl/src/widgets/tabview/../../../src/core/lv_obj_pos.h ****  *                  LV_SIZE_CONTENT     set the size to involve all children in the given direction
  72:Lib/lvgl/src/widgets/tabview/../../../src/core/lv_obj_pos.h ****  *                  lv_pct(x)           to set size in percentage of the parent's content area size
  73:Lib/lvgl/src/widgets/tabview/../../../src/core/lv_obj_pos.h ****  *                                      x should be in [0..1000]% range
  74:Lib/lvgl/src/widgets/tabview/../../../src/core/lv_obj_pos.h ****  */
  75:Lib/lvgl/src/widgets/tabview/../../../src/core/lv_obj_pos.h **** void lv_obj_set_size(lv_obj_t * obj, int32_t w, int32_t h);
  76:Lib/lvgl/src/widgets/tabview/../../../src/core/lv_obj_pos.h **** 
  77:Lib/lvgl/src/widgets/tabview/../../../src/core/lv_obj_pos.h **** /**
  78:Lib/lvgl/src/widgets/tabview/../../../src/core/lv_obj_pos.h ****  * Recalculate the size of the object
  79:Lib/lvgl/src/widgets/tabview/../../../src/core/lv_obj_pos.h ****  * @param obj       pointer to an object
  80:Lib/lvgl/src/widgets/tabview/../../../src/core/lv_obj_pos.h ****  * @return          true: the size has been changed
  81:Lib/lvgl/src/widgets/tabview/../../../src/core/lv_obj_pos.h ****  */
  82:Lib/lvgl/src/widgets/tabview/../../../src/core/lv_obj_pos.h **** bool lv_obj_refr_size(lv_obj_t * obj);
  83:Lib/lvgl/src/widgets/tabview/../../../src/core/lv_obj_pos.h **** 
  84:Lib/lvgl/src/widgets/tabview/../../../src/core/lv_obj_pos.h **** /**
  85:Lib/lvgl/src/widgets/tabview/../../../src/core/lv_obj_pos.h ****  * Set the width of an object
  86:Lib/lvgl/src/widgets/tabview/../../../src/core/lv_obj_pos.h ****  * @param obj       pointer to an object
  87:Lib/lvgl/src/widgets/tabview/../../../src/core/lv_obj_pos.h ****  * @param w         the new width
  88:Lib/lvgl/src/widgets/tabview/../../../src/core/lv_obj_pos.h ****  * @note            possible values are:
  89:Lib/lvgl/src/widgets/tabview/../../../src/core/lv_obj_pos.h ****  *                  pixel               simple set the size accordingly
  90:Lib/lvgl/src/widgets/tabview/../../../src/core/lv_obj_pos.h ****  *                  LV_SIZE_CONTENT     set the size to involve all children in the given direction
  91:Lib/lvgl/src/widgets/tabview/../../../src/core/lv_obj_pos.h ****  *                  lv_pct(x)           to set size in percentage of the parent's content area size
ARM GAS  C:\Users\Alex\AppData\Local\Temp\ccBm5uex.s 			page 50


  92:Lib/lvgl/src/widgets/tabview/../../../src/core/lv_obj_pos.h ****  *                                      x should be in [0..1000]% range
  93:Lib/lvgl/src/widgets/tabview/../../../src/core/lv_obj_pos.h ****  */
  94:Lib/lvgl/src/widgets/tabview/../../../src/core/lv_obj_pos.h **** void lv_obj_set_width(lv_obj_t * obj, int32_t w);
  95:Lib/lvgl/src/widgets/tabview/../../../src/core/lv_obj_pos.h **** 
  96:Lib/lvgl/src/widgets/tabview/../../../src/core/lv_obj_pos.h **** /**
  97:Lib/lvgl/src/widgets/tabview/../../../src/core/lv_obj_pos.h ****  * Set the height of an object
  98:Lib/lvgl/src/widgets/tabview/../../../src/core/lv_obj_pos.h ****  * @param obj       pointer to an object
  99:Lib/lvgl/src/widgets/tabview/../../../src/core/lv_obj_pos.h ****  * @param h         the new height
 100:Lib/lvgl/src/widgets/tabview/../../../src/core/lv_obj_pos.h ****  * @note            possible values are:
 101:Lib/lvgl/src/widgets/tabview/../../../src/core/lv_obj_pos.h ****  *                  pixel               simple set the size accordingly
 102:Lib/lvgl/src/widgets/tabview/../../../src/core/lv_obj_pos.h ****  *                  LV_SIZE_CONTENT     set the size to involve all children in the given direction
 103:Lib/lvgl/src/widgets/tabview/../../../src/core/lv_obj_pos.h ****  *                  lv_pct(x)           to set size in percentage of the parent's content area size
 104:Lib/lvgl/src/widgets/tabview/../../../src/core/lv_obj_pos.h ****  *                                      x should be in [0..1000]% range
 105:Lib/lvgl/src/widgets/tabview/../../../src/core/lv_obj_pos.h ****  */
 106:Lib/lvgl/src/widgets/tabview/../../../src/core/lv_obj_pos.h **** void lv_obj_set_height(lv_obj_t * obj, int32_t h);
 107:Lib/lvgl/src/widgets/tabview/../../../src/core/lv_obj_pos.h **** 
 108:Lib/lvgl/src/widgets/tabview/../../../src/core/lv_obj_pos.h **** /**
 109:Lib/lvgl/src/widgets/tabview/../../../src/core/lv_obj_pos.h ****  * Set the width reduced by the left and right padding and the border width.
 110:Lib/lvgl/src/widgets/tabview/../../../src/core/lv_obj_pos.h ****  * @param obj       pointer to an object
 111:Lib/lvgl/src/widgets/tabview/../../../src/core/lv_obj_pos.h ****  * @param w         the width without paddings in pixels
 112:Lib/lvgl/src/widgets/tabview/../../../src/core/lv_obj_pos.h ****  */
 113:Lib/lvgl/src/widgets/tabview/../../../src/core/lv_obj_pos.h **** void lv_obj_set_content_width(lv_obj_t * obj, int32_t w);
 114:Lib/lvgl/src/widgets/tabview/../../../src/core/lv_obj_pos.h **** 
 115:Lib/lvgl/src/widgets/tabview/../../../src/core/lv_obj_pos.h **** /**
 116:Lib/lvgl/src/widgets/tabview/../../../src/core/lv_obj_pos.h ****  * Set the height reduced by the top and bottom padding and the border width.
 117:Lib/lvgl/src/widgets/tabview/../../../src/core/lv_obj_pos.h ****  * @param obj       pointer to an object
 118:Lib/lvgl/src/widgets/tabview/../../../src/core/lv_obj_pos.h ****  * @param h         the height without paddings in pixels
 119:Lib/lvgl/src/widgets/tabview/../../../src/core/lv_obj_pos.h ****  */
 120:Lib/lvgl/src/widgets/tabview/../../../src/core/lv_obj_pos.h **** void lv_obj_set_content_height(lv_obj_t * obj, int32_t h);
 121:Lib/lvgl/src/widgets/tabview/../../../src/core/lv_obj_pos.h **** 
 122:Lib/lvgl/src/widgets/tabview/../../../src/core/lv_obj_pos.h **** /**
 123:Lib/lvgl/src/widgets/tabview/../../../src/core/lv_obj_pos.h ****  * Set a layout for an object
 124:Lib/lvgl/src/widgets/tabview/../../../src/core/lv_obj_pos.h ****  * @param obj       pointer to an object
 125:Lib/lvgl/src/widgets/tabview/../../../src/core/lv_obj_pos.h ****  * @param layout    pointer to a layout descriptor to set
 126:Lib/lvgl/src/widgets/tabview/../../../src/core/lv_obj_pos.h ****  */
 127:Lib/lvgl/src/widgets/tabview/../../../src/core/lv_obj_pos.h **** void lv_obj_set_layout(lv_obj_t * obj, uint32_t layout);
 128:Lib/lvgl/src/widgets/tabview/../../../src/core/lv_obj_pos.h **** 
 129:Lib/lvgl/src/widgets/tabview/../../../src/core/lv_obj_pos.h **** /**
 130:Lib/lvgl/src/widgets/tabview/../../../src/core/lv_obj_pos.h ****  * Test whether the and object is positioned by a layout or not
 131:Lib/lvgl/src/widgets/tabview/../../../src/core/lv_obj_pos.h ****  * @param obj       pointer to an object to test
 132:Lib/lvgl/src/widgets/tabview/../../../src/core/lv_obj_pos.h ****  * @return true:    positioned by a layout; false: not positioned by a layout
 133:Lib/lvgl/src/widgets/tabview/../../../src/core/lv_obj_pos.h ****  */
 134:Lib/lvgl/src/widgets/tabview/../../../src/core/lv_obj_pos.h **** bool lv_obj_is_layout_positioned(const lv_obj_t * obj);
 135:Lib/lvgl/src/widgets/tabview/../../../src/core/lv_obj_pos.h **** 
 136:Lib/lvgl/src/widgets/tabview/../../../src/core/lv_obj_pos.h **** /**
 137:Lib/lvgl/src/widgets/tabview/../../../src/core/lv_obj_pos.h ****  * Mark the object for layout update.
 138:Lib/lvgl/src/widgets/tabview/../../../src/core/lv_obj_pos.h ****  * @param obj      pointer to an object whose children needs to be updated
 139:Lib/lvgl/src/widgets/tabview/../../../src/core/lv_obj_pos.h ****  */
 140:Lib/lvgl/src/widgets/tabview/../../../src/core/lv_obj_pos.h **** void lv_obj_mark_layout_as_dirty(lv_obj_t * obj);
 141:Lib/lvgl/src/widgets/tabview/../../../src/core/lv_obj_pos.h **** 
 142:Lib/lvgl/src/widgets/tabview/../../../src/core/lv_obj_pos.h **** /**
 143:Lib/lvgl/src/widgets/tabview/../../../src/core/lv_obj_pos.h ****  * Update the layout of an object.
 144:Lib/lvgl/src/widgets/tabview/../../../src/core/lv_obj_pos.h ****  * @param obj      pointer to an object whose children needs to be updated
 145:Lib/lvgl/src/widgets/tabview/../../../src/core/lv_obj_pos.h ****  */
 146:Lib/lvgl/src/widgets/tabview/../../../src/core/lv_obj_pos.h **** void lv_obj_update_layout(const lv_obj_t * obj);
 147:Lib/lvgl/src/widgets/tabview/../../../src/core/lv_obj_pos.h **** 
 148:Lib/lvgl/src/widgets/tabview/../../../src/core/lv_obj_pos.h **** /**
ARM GAS  C:\Users\Alex\AppData\Local\Temp\ccBm5uex.s 			page 51


 149:Lib/lvgl/src/widgets/tabview/../../../src/core/lv_obj_pos.h ****  * Change the alignment of an object.
 150:Lib/lvgl/src/widgets/tabview/../../../src/core/lv_obj_pos.h ****  * @param obj       pointer to an object to align
 151:Lib/lvgl/src/widgets/tabview/../../../src/core/lv_obj_pos.h ****  * @param align     type of alignment (see 'lv_align_t' enum) `LV_ALIGN_OUT_...` can't be used.
 152:Lib/lvgl/src/widgets/tabview/../../../src/core/lv_obj_pos.h ****  */
 153:Lib/lvgl/src/widgets/tabview/../../../src/core/lv_obj_pos.h **** void lv_obj_set_align(lv_obj_t * obj, lv_align_t align);
 154:Lib/lvgl/src/widgets/tabview/../../../src/core/lv_obj_pos.h **** 
 155:Lib/lvgl/src/widgets/tabview/../../../src/core/lv_obj_pos.h **** /**
 156:Lib/lvgl/src/widgets/tabview/../../../src/core/lv_obj_pos.h ****  * Change the alignment of an object and set new coordinates.
 157:Lib/lvgl/src/widgets/tabview/../../../src/core/lv_obj_pos.h ****  * Equivalent to:
 158:Lib/lvgl/src/widgets/tabview/../../../src/core/lv_obj_pos.h ****  * lv_obj_set_align(obj, align);
 159:Lib/lvgl/src/widgets/tabview/../../../src/core/lv_obj_pos.h ****  * lv_obj_set_pos(obj, x_ofs, y_ofs);
 160:Lib/lvgl/src/widgets/tabview/../../../src/core/lv_obj_pos.h ****  * @param obj       pointer to an object to align
 161:Lib/lvgl/src/widgets/tabview/../../../src/core/lv_obj_pos.h ****  * @param align     type of alignment (see 'lv_align_t' enum) `LV_ALIGN_OUT_...` can't be used.
 162:Lib/lvgl/src/widgets/tabview/../../../src/core/lv_obj_pos.h ****  * @param x_ofs     x coordinate offset after alignment
 163:Lib/lvgl/src/widgets/tabview/../../../src/core/lv_obj_pos.h ****  * @param y_ofs     y coordinate offset after alignment
 164:Lib/lvgl/src/widgets/tabview/../../../src/core/lv_obj_pos.h ****  */
 165:Lib/lvgl/src/widgets/tabview/../../../src/core/lv_obj_pos.h **** void lv_obj_align(lv_obj_t * obj, lv_align_t align, int32_t x_ofs, int32_t y_ofs);
 166:Lib/lvgl/src/widgets/tabview/../../../src/core/lv_obj_pos.h **** 
 167:Lib/lvgl/src/widgets/tabview/../../../src/core/lv_obj_pos.h **** /**
 168:Lib/lvgl/src/widgets/tabview/../../../src/core/lv_obj_pos.h ****  * Align an object to an other object.
 169:Lib/lvgl/src/widgets/tabview/../../../src/core/lv_obj_pos.h ****  * @param obj       pointer to an object to align
 170:Lib/lvgl/src/widgets/tabview/../../../src/core/lv_obj_pos.h ****  * @param base      pointer to an other object (if NULL `obj`s parent is used). 'obj' will be align
 171:Lib/lvgl/src/widgets/tabview/../../../src/core/lv_obj_pos.h ****  * @param align     type of alignment (see 'lv_align_t' enum)
 172:Lib/lvgl/src/widgets/tabview/../../../src/core/lv_obj_pos.h ****  * @param x_ofs     x coordinate offset after alignment
 173:Lib/lvgl/src/widgets/tabview/../../../src/core/lv_obj_pos.h ****  * @param y_ofs     y coordinate offset after alignment
 174:Lib/lvgl/src/widgets/tabview/../../../src/core/lv_obj_pos.h ****  * @note            if the position or size of `base` changes `obj` needs to be aligned manually ag
 175:Lib/lvgl/src/widgets/tabview/../../../src/core/lv_obj_pos.h ****  */
 176:Lib/lvgl/src/widgets/tabview/../../../src/core/lv_obj_pos.h **** void lv_obj_align_to(lv_obj_t * obj, const lv_obj_t * base, lv_align_t align, int32_t x_ofs,
 177:Lib/lvgl/src/widgets/tabview/../../../src/core/lv_obj_pos.h ****                      int32_t y_ofs);
 178:Lib/lvgl/src/widgets/tabview/../../../src/core/lv_obj_pos.h **** 
 179:Lib/lvgl/src/widgets/tabview/../../../src/core/lv_obj_pos.h **** /**
 180:Lib/lvgl/src/widgets/tabview/../../../src/core/lv_obj_pos.h ****  * Align an object to the center on its parent.
 181:Lib/lvgl/src/widgets/tabview/../../../src/core/lv_obj_pos.h ****  * @param obj       pointer to an object to align
 182:Lib/lvgl/src/widgets/tabview/../../../src/core/lv_obj_pos.h ****  * @note            if the parent size changes `obj` needs to be aligned manually again
 183:Lib/lvgl/src/widgets/tabview/../../../src/core/lv_obj_pos.h ****  */
 184:Lib/lvgl/src/widgets/tabview/../../../src/core/lv_obj_pos.h **** static inline void lv_obj_center(lv_obj_t * obj)
 1459              		.loc 3 184 20 view .LVU383
 1460              	.LBB47:
 185:Lib/lvgl/src/widgets/tabview/../../../src/core/lv_obj_pos.h **** {
 186:Lib/lvgl/src/widgets/tabview/../../../src/core/lv_obj_pos.h ****     lv_obj_align(obj, LV_ALIGN_CENTER, 0, 0);
 1461              		.loc 3 186 5 view .LVU384
 1462 0068 0023     		movs	r3, #0
 1463 006a 1A46     		mov	r2, r3
 1464 006c 0921     		movs	r1, #9
 1465 006e 2046     		mov	r0, r4
 1466 0070 FFF7FEFF 		bl	lv_obj_align
 1467              	.LVL211:
 1468              		.loc 3 186 5 is_stmt 0 view .LVU385
 1469              	.LBE47:
 1470              	.LBE46:
  89:Lib/lvgl/src/widgets/tabview/lv_tabview.c ****         lv_tabview_set_active(obj, 0, LV_ANIM_OFF);
 1471              		.loc 1 89 5 is_stmt 1 view .LVU386
  89:Lib/lvgl/src/widgets/tabview/lv_tabview.c ****         lv_tabview_set_active(obj, 0, LV_ANIM_OFF);
 1472              		.loc 1 89 7 is_stmt 0 view .LVU387
 1473 0074 B8F1010F 		cmp	r8, #1
 1474 0078 02D0     		beq	.L90
 1475              	.L86:
ARM GAS  C:\Users\Alex\AppData\Local\Temp\ccBm5uex.s 			page 52


  94:Lib/lvgl/src/widgets/tabview/lv_tabview.c **** 
 1476              		.loc 1 94 1 view .LVU388
 1477 007a 3846     		mov	r0, r7
 1478 007c BDE8F883 		pop	{r3, r4, r5, r6, r7, r8, r9, pc}
 1479              	.LVL212:
 1480              	.L90:
  90:Lib/lvgl/src/widgets/tabview/lv_tabview.c ****     }
 1481              		.loc 1 90 9 is_stmt 1 view .LVU389
 1482 0080 0022     		movs	r2, #0
 1483 0082 1146     		mov	r1, r2
 1484 0084 3046     		mov	r0, r6
 1485 0086 FFF7FEFF 		bl	lv_tabview_set_active
 1486              	.LVL213:
  93:Lib/lvgl/src/widgets/tabview/lv_tabview.c **** }
 1487              		.loc 1 93 5 view .LVU390
  93:Lib/lvgl/src/widgets/tabview/lv_tabview.c **** }
 1488              		.loc 1 93 12 is_stmt 0 view .LVU391
 1489 008a F6E7     		b	.L86
 1490              	.L92:
 1491              		.align	2
 1492              	.L91:
 1493 008c 64000020 		.word	536871012
 1494 0090 00000000 		.word	button_clicked_event_cb
 1495              		.cfi_endproc
 1496              	.LFE257:
 1498              		.global	lv_tabview_class
 1499              		.section	.rodata.str1.4,"aMS",%progbits,1
 1500              		.align	2
 1501              	.LC0:
 1502 0000 74616276 		.ascii	"tabview\000"
 1502      69657700 
 1503              		.section	.rodata.lv_tabview_class,"a"
 1504              		.align	2
 1507              	lv_tabview_class:
 1508 0000 00000000 		.word	lv_obj_class
 1509 0004 00000000 		.word	lv_tabview_constructor
 1510 0008 00000000 		.space	4
 1511 000c 00000000 		.word	lv_tabview_event
 1512 0010 00000000 		.space	4
 1513 0014 00000000 		.word	.LC0
 1514 0018 64000020 		.word	536871012
 1515 001c 64000020 		.word	536871012
 1516 0020 40       		.byte	64
 1517 0021 03       		.byte	3
 1518 0022 00       		.byte	0
 1519 0023 00       		.space	1
 1520              		.text
 1521              	.Letext0:
 1522              		.file 4 "e:\\programms\\gnu_mcu_eclipse\\toolchain\\arm-gnu-toolchain-12.2.mpacbti-bet1-mingw-w64-
 1523              		.file 5 "e:\\programms\\gnu_mcu_eclipse\\toolchain\\arm-gnu-toolchain-12.2.mpacbti-bet1-mingw-w64-
 1524              		.file 6 "Lib/lvgl/src/widgets/tabview/../../../src/stdlib/../misc/lv_types.h"
 1525              		.file 7 "Lib/lvgl/src/widgets/tabview/../../../src/core/lv_obj.h"
 1526              		.file 8 "Lib/lvgl/src/widgets/tabview/../../../src/core/lv_obj_class.h"
 1527              		.file 9 "c:\\users\\alex\\eclipse-workspace\\lvgs_test\\lib\\lvgl\\src\\core\\lv_group.h"
 1528              		.file 10 "Lib/lvgl/src/widgets/tabview/../../../src/display/lv_display_private.h"
 1529              		.file 11 "c:\\users\\alex\\eclipse-workspace\\lvgs_test\\lib\\lvgl\\src\\draw\\lv_draw.h"
 1530              		.file 12 "Lib/lvgl/src/widgets/tabview/../../indev/lv_indev_private.h"
ARM GAS  C:\Users\Alex\AppData\Local\Temp\ccBm5uex.s 			page 53


 1531              		.file 13 "c:\\users\\alex\\eclipse-workspace\\lvgs_test\\lib\\lvgl\\src\\misc\\lv_event.h"
 1532              		.file 14 "Lib/lvgl/src/widgets/tabview/../../../src/misc/lv_timer.h"
 1533              		.file 15 "Lib/lvgl/src/widgets/tabview/../../../src/themes/lv_theme.h"
 1534              		.file 16 "Lib/lvgl/src/widgets/tabview/../../../src/misc/lv_anim.h"
 1535              		.file 17 "c:\\users\\alex\\eclipse-workspace\\lvgs_test\\lib\\lvgl\\src\\font\\lv_font.h"
 1536              		.file 18 "Lib/lvgl/src/widgets/tabview/../../../src/misc/lv_ll.h"
 1537              		.file 19 "Lib/lvgl/src/widgets/tabview/../../../src/misc/lv_array.h"
 1538              		.file 20 "c:\\users\\alex\\eclipse-workspace\\lvgs_test\\lib\\lvgl\\src\\misc\\lv_area.h"
 1539              		.file 21 "c:\\users\\alex\\eclipse-workspace\\lvgs_test\\lib\\lvgl\\src\\misc\\lv_color.h"
 1540              		.file 22 "c:\\users\\alex\\eclipse-workspace\\lvgs_test\\lib\\lvgl\\src\\draw\\lv_image_buf.h"
 1541              		.file 23 "c:\\users\\alex\\eclipse-workspace\\lvgs_test\\lib\\lvgl\\src\\draw\\lv_draw_buf.h"
 1542              		.file 24 "c:\\users\\alex\\eclipse-workspace\\lvgs_test\\lib\\lvgl\\src\\misc\\cache\\lv_cache_pri
 1543              		.file 25 "Lib/lvgl/src/widgets/tabview/../../../src/core/../misc/lv_bidi.h"
 1544              		.file 26 "c:\\users\\alex\\eclipse-workspace\\lvgs_test\\lib\\lvgl\\src\\layouts\\flex/lv_flex.h"
 1545              		.file 27 "Lib/lvgl/src/widgets/tabview/../../../src/core/../misc/lv_style.h"
 1546              		.file 28 "Lib/lvgl/src/widgets/tabview/../../../src/core/../display/lv_display.h"
 1547              		.file 29 "Lib/lvgl/src/widgets/tabview/../../../src/core/lv_obj_scroll.h"
 1548              		.file 30 "Lib/lvgl/src/widgets/tabview/../../../src/core/lv_obj_style.h"
 1549              		.file 31 "Lib/lvgl/src/widgets/tabview/../../../src/core/../indev/lv_indev.h"
 1550              		.file 32 "Lib/lvgl/src/widgets/tabview/../../../src/widgets/bar/../label/lv_label.h"
 1551              		.file 33 "Lib/lvgl/src/widgets/tabview/../../../src/widgets/bar/lv_bar.h"
 1552              		.file 34 "Lib/lvgl/src/widgets/tabview/../../../src/widgets/button/lv_button.h"
 1553              		.file 35 "Lib/lvgl/src/widgets/tabview/../../../src/widgets/imagebutton/lv_imagebutton.h"
 1554              		.file 36 "Lib/lvgl/src/widgets/tabview/lv_tabview.h"
 1555              		.file 37 "Lib/lvgl/src/widgets/tabview/../../../src/core/lv_obj_tree.h"
 1556              		.file 38 "Lib/lvgl/src/widgets/tabview/../../../src/core/lv_obj_event.h"
ARM GAS  C:\Users\Alex\AppData\Local\Temp\ccBm5uex.s 			page 54

